ARM GAS  C:\Users\CHUCK~1.ERH\AppData\Local\Temp\cclfQUCJ.s 			page 1


   1              		.syntax unified
   2              		.cpu cortex-m3
   3              		.fpu softvfp
   4              		.eabi_attribute 20, 1
   5              		.eabi_attribute 21, 1
   6              		.eabi_attribute 23, 3
   7              		.eabi_attribute 24, 1
   8              		.eabi_attribute 25, 1
   9              		.eabi_attribute 26, 1
  10              		.eabi_attribute 30, 6
  11              		.eabi_attribute 34, 1
  12              		.eabi_attribute 18, 4
  13              		.thumb
  14              		.file	"ETH.c"
  15              		.text
  16              	.Ltext0:
  17              		.cfi_sections	.debug_frame
  18              		.global	ETH_SOCKET_TX_BASE
  19              		.section	.rodata
  20              		.align	2
  21              		.type	ETH_SOCKET_TX_BASE, %object
  22              		.size	ETH_SOCKET_TX_BASE, 32
  23              	ETH_SOCKET_TX_BASE:
  24 0000 00000200 		.word	131072
  25 0004 00000600 		.word	393216
  26 0008 00000A00 		.word	655360
  27 000c 00000E00 		.word	917504
  28 0010 00001200 		.word	1179648
  29 0014 00001600 		.word	1441792
  30 0018 00001A00 		.word	1703936
  31 001c 00001E00 		.word	1966080
  32              		.global	ETH_SOCKET_RX_BASE
  33              		.align	2
  34              		.type	ETH_SOCKET_RX_BASE, %object
  35              		.size	ETH_SOCKET_RX_BASE, 32
  36              	ETH_SOCKET_RX_BASE:
  37 0020 00000300 		.word	196608
  38 0024 00000700 		.word	458752
  39 0028 00000B00 		.word	720896
  40 002c 00000F00 		.word	983040
  41 0030 00001300 		.word	1245184
  42 0034 00001700 		.word	1507328
  43 0038 00001B00 		.word	1769472
  44 003c 00001F00 		.word	2031616
  45              		.global	ETH_W5500_BSB
  46              		.align	2
  47              		.type	ETH_W5500_BSB, %object
  48              		.size	ETH_W5500_BSB, 32
  49              	ETH_W5500_BSB:
  50 0040 00000100 		.word	65536
  51 0044 00000500 		.word	327680
  52 0048 00000900 		.word	589824
  53 004c 00000D00 		.word	851968
  54 0050 00001100 		.word	1114112
  55 0054 00001500 		.word	1376256
  56 0058 00001900 		.word	1638400
  57 005c 00001E00 		.word	1966080
ARM GAS  C:\Users\CHUCK~1.ERH\AppData\Local\Temp\cclfQUCJ.s 			page 2


  58              		.comm	ETH_SocketConfig,64,4
  59              		.comm	ETH_SubnetMask,4,4
  60              		.comm	ETH_MAC,6,4
  61              		.section	.text.ETH_ChipSelect,"ax",%progbits
  62              		.align	2
  63              		.global	ETH_ChipSelect
  64              		.thumb
  65              		.thumb_func
  66              		.type	ETH_ChipSelect, %function
  67              	ETH_ChipSelect:
  68              	.LFB56:
  69              		.file 1 ".\\Generated_Source\\PSoC5\\ETH.c"
   1:.\Generated_Source\PSoC5/ETH.c **** /**
   2:.\Generated_Source\PSoC5/ETH.c ****  * \addtogroup w5x00
   3:.\Generated_Source\PSoC5/ETH.c ****  * @{
   4:.\Generated_Source\PSoC5/ETH.c ****  */
   5:.\Generated_Source\PSoC5/ETH.c **** 
   6:.\Generated_Source\PSoC5/ETH.c **** /**
   7:.\Generated_Source\PSoC5/ETH.c ****  * \file Driver implementation for interfacing with the W5x00 device
   8:.\Generated_Source\PSoC5/ETH.c ****  * \author Chuck Erhardt (chuck@e2forlife.com)
   9:.\Generated_Source\PSoC5/ETH.c ****  *
  10:.\Generated_Source\PSoC5/ETH.c ****  * This file contains the main driver implementation for control
  11:.\Generated_Source\PSoC5/ETH.c ****  * of the W5x00 device.
  12:.\Generated_Source\PSoC5/ETH.c **** */
  13:.\Generated_Source\PSoC5/ETH.c **** 
  14:.\Generated_Source\PSoC5/ETH.c **** /*
  15:.\Generated_Source\PSoC5/ETH.c ****  * Change Log:
  16:.\Generated_Source\PSoC5/ETH.c ****  * 
  17:.\Generated_Source\PSoC5/ETH.c ****  * V1.1
  18:.\Generated_Source\PSoC5/ETH.c ****  * - Modified the SPI access function to remove hard wait for READ_WRITE_DELAY  <CE>
  19:.\Generated_Source\PSoC5/ETH.c ****  * - Removed READ_WRITE_DELAY Parameter <CE>
  20:.\Generated_Source\PSoC5/ETH.c ****  * - Added validator to SS_NUM parameter to ensure that the value is the range 0-3 <CE>
  21:.\Generated_Source\PSoC5/ETH.c ****  * - Removed "inline" keywords from interal register access function to promote
  22:.\Generated_Source\PSoC5/ETH.c ****  *   compatibility with Keil PSoC3 compilers that don't support them. <CE>
  23:.\Generated_Source\PSoC5/ETH.c ****  * - Fixed bug in _ProcessRxData() that caused the read pointer not to be updated without
  24:.\Generated_Source\PSoC5/ETH.c ****  *   the lookahead flag being set. <CE>
  25:.\Generated_Source\PSoC5/ETH.c ****  * V1.2
  26:.\Generated_Source\PSoC5/ETH.c ****  * - Added _STS_SPI_IDLE flag to _SpiDone conditions to prevent deadlocking that
  27:.\Generated_Source\PSoC5/ETH.c ****  *   was occuring during the first read or write using the SPI device (SPIM moded) <CE>
  28:.\Generated_Source\PSoC5/ETH.c ****  * - Removed the check for SOCKET_ESTABLISHED at the start of the TcpReceive
  29:.\Generated_Source\PSoC5/ETH.c ****  *   function to allow for reading received socket data after the socket was dropped
  30:.\Generated_Source\PSoC5/ETH.c ****  *   by the remote server.  It was brought to my attention that this occurs when
  31:.\Generated_Source\PSoC5/ETH.c ****  *   operating with client connection to HTTP servers. <CE>
  32:.\Generated_Source\PSoC5/ETH.c ****  * - Added a MAC address parser and MAC to String Converter. <CE>
  33:.\Generated_Source\PSoC5/ETH.c ****  */
  34:.\Generated_Source\PSoC5/ETH.c **** 
  35:.\Generated_Source\PSoC5/ETH.c **** /* Cypress library includes */
  36:.\Generated_Source\PSoC5/ETH.c **** #include <cytypes.h>
  37:.\Generated_Source\PSoC5/ETH.c **** #include <cylib.h>
  38:.\Generated_Source\PSoC5/ETH.c **** 
  39:.\Generated_Source\PSoC5/ETH.c **** #include <project.h>
  40:.\Generated_Source\PSoC5/ETH.c **** 
  41:.\Generated_Source\PSoC5/ETH.c **** /*  include functions and types for the driver */
  42:.\Generated_Source\PSoC5/ETH.c **** #include "ETH.h"
  43:.\Generated_Source\PSoC5/ETH.c **** /* Include register address constants */
  44:.\Generated_Source\PSoC5/ETH.c **** #include "ETH_reg55.h"
  45:.\Generated_Source\PSoC5/ETH.c **** 
ARM GAS  C:\Users\CHUCK~1.ERH\AppData\Local\Temp\cclfQUCJ.s 			page 3


  46:.\Generated_Source\PSoC5/ETH.c **** /* include the serial interface functions */
  47:.\Generated_Source\PSoC5/ETH.c **** #include <SPI.h>
  48:.\Generated_Source\PSoC5/ETH.c **** #include <CSN.h>
  49:.\Generated_Source\PSoC5/ETH.c **** 
  50:.\Generated_Source\PSoC5/ETH.c **** extern uint8 SPI_initVar;
  51:.\Generated_Source\PSoC5/ETH.c **** 
  52:.\Generated_Source\PSoC5/ETH.c **** typedef struct
  53:.\Generated_Source\PSoC5/ETH.c **** {
  54:.\Generated_Source\PSoC5/ETH.c **** 	uint8  Protocol;
  55:.\Generated_Source\PSoC5/ETH.c **** 	uint8  SocketFlags;
  56:.\Generated_Source\PSoC5/ETH.c **** 	uint16 SourcePort;
  57:.\Generated_Source\PSoC5/ETH.c **** 	uint8  ServerFlag;
  58:.\Generated_Source\PSoC5/ETH.c **** 	uint8  TxBufferSize;
  59:.\Generated_Source\PSoC5/ETH.c **** 	uint8  RxBufferSize;
  60:.\Generated_Source\PSoC5/ETH.c **** } ETH_SOCKET;
  61:.\Generated_Source\PSoC5/ETH.c **** 
  62:.\Generated_Source\PSoC5/ETH.c **** #if (5 == 1) // W5100 Specific
  63:.\Generated_Source\PSoC5/ETH.c **** const uint32 ETH_SOCKET_TX_BASE[4] = { 0x4000, 0x4800, 0x5000, 0x5800 };
  64:.\Generated_Source\PSoC5/ETH.c **** const uint32 ETH_SOCKET_RX_BASE[4] = { 0x6000, 0x6800, 0x7000, 0x7800 };
  65:.\Generated_Source\PSoC5/ETH.c **** 
  66:.\Generated_Source\PSoC5/ETH.c **** #define ETH_MAX_SOCKET   ( 4 )
  67:.\Generated_Source\PSoC5/ETH.c **** #define ETH_BURST_MAX    ( 1 )
  68:.\Generated_Source\PSoC5/ETH.c **** 
  69:.\Generated_Source\PSoC5/ETH.c **** /**
  70:.\Generated_Source\PSoC5/ETH.c ****  * \def ETH_SOCKET REG(s,r)
  71:.\Generated_Source\PSoC5/ETH.c ****  * \brief Convert the socket number to a base address within the W5100
  72:.\Generated_Source\PSoC5/ETH.c ****  */
  73:.\Generated_Source\PSoC5/ETH.c **** #define ETH_SOCKET_REG(s,r)           ( (((uint32)s<<8)+0x0400) + r )
  74:.\Generated_Source\PSoC5/ETH.c **** 
  75:.\Generated_Source\PSoC5/ETH.c **** #elif (5 == 2) // W5200 Specific
  76:.\Generated_Source\PSoC5/ETH.c **** 	
  77:.\Generated_Source\PSoC5/ETH.c **** const uint32 ETH_SOCKET_TX_BASE[8] = { 0x8000, 0x8800, 0x9000, 0x9800, 0xA000, 0xA800, 0xB000, 0xB8
  78:.\Generated_Source\PSoC5/ETH.c **** const uint32 ETH_SOCKET_RX_BASE[8] = { 0xC000, 0xC800, 0xD000, 0xD800, 0xE000, 0xE800, 0xF000, 0xF8
  79:.\Generated_Source\PSoC5/ETH.c **** 
  80:.\Generated_Source\PSoC5/ETH.c **** #define ETH_MAX_SOCKET   ( 8 )
  81:.\Generated_Source\PSoC5/ETH.c **** #define ETH_BURST_MAX    ( 0x7FFF )
  82:.\Generated_Source\PSoC5/ETH.c **** 
  83:.\Generated_Source\PSoC5/ETH.c **** /**
  84:.\Generated_Source\PSoC5/ETH.c ****  * \def ETH_SOCKET REG(s,r)
  85:.\Generated_Source\PSoC5/ETH.c ****  * \brief Convert the socket number and register to a base address within the W5200
  86:.\Generated_Source\PSoC5/ETH.c ****  */
  87:.\Generated_Source\PSoC5/ETH.c **** #define ETH_SOCKET_REG(s,r)           ( ((uint32)s<<8) + r )
  88:.\Generated_Source\PSoC5/ETH.c **** #elif (5 == 5) // W5500 Specific
  89:.\Generated_Source\PSoC5/ETH.c **** 
  90:.\Generated_Source\PSoC5/ETH.c **** 	const uint32 ETH_SOCKET_TX_BASE[8] = { 0x00020000, 0x00060000, 0x000A0000, 0x000E0000, 0x00120000,
  91:.\Generated_Source\PSoC5/ETH.c **** 	const uint32 ETH_SOCKET_RX_BASE[8] = { 0x00030000, 0x00070000, 0x000B0000, 0x000F0000, 0x00130000,
  92:.\Generated_Source\PSoC5/ETH.c **** 
  93:.\Generated_Source\PSoC5/ETH.c **** 	#define ETH_MAX_SOCKET   ( 8 )
  94:.\Generated_Source\PSoC5/ETH.c **** 	#define ETH_BURST_MAX    ( 0xFFFF )
  95:.\Generated_Source\PSoC5/ETH.c **** 
  96:.\Generated_Source\PSoC5/ETH.c **** 	const uint32 ETH_W5500_BSB[8] = { 0x00010000, 0x00050000, 0x00090000, 0x000D0000, 0x00110000, 0x00
  97:.\Generated_Source\PSoC5/ETH.c **** 	/**
  98:.\Generated_Source\PSoC5/ETH.c **** 	 * \def ETH_SOCKET REG(s,r)
  99:.\Generated_Source\PSoC5/ETH.c **** 	 * \brief Convert the socket number and register to a base address within the W5500
 100:.\Generated_Source\PSoC5/ETH.c **** 	 */
 101:.\Generated_Source\PSoC5/ETH.c **** 	#define ETH_SOCKET_REG(s,r)           ( ETH_W5500_BSB[s] + r )
 102:.\Generated_Source\PSoC5/ETH.c **** 
ARM GAS  C:\Users\CHUCK~1.ERH\AppData\Local\Temp\cclfQUCJ.s 			page 4


 103:.\Generated_Source\PSoC5/ETH.c **** #else
 104:.\Generated_Source\PSoC5/ETH.c **** 	#error "W5x00 components other than W5100, W5200 and W5500 are not currently supported"
 105:.\Generated_Source\PSoC5/ETH.c **** #endif
 106:.\Generated_Source\PSoC5/ETH.c **** 
 107:.\Generated_Source\PSoC5/ETH.c **** ETH_SOCKET ETH_SocketConfig[ETH_MAX_SOCKET];
 108:.\Generated_Source\PSoC5/ETH.c **** uint32 ETH_SubnetMask;
 109:.\Generated_Source\PSoC5/ETH.c **** 
 110:.\Generated_Source\PSoC5/ETH.c **** uint8 ETH_MAC[6]; /* V1.2: removed = {00-de-ad-be-ef-00}; */
 111:.\Generated_Source\PSoC5/ETH.c **** 
 112:.\Generated_Source\PSoC5/ETH.c **** /* ------------------------------------------------------------------------ */
 113:.\Generated_Source\PSoC5/ETH.c **** /* V1.2 HEX digit conversion tools for MAC Address parsing */
 114:.\Generated_Source\PSoC5/ETH.c **** #define ETH_ISXDIGIT(x) \
 115:.\Generated_Source\PSoC5/ETH.c **** ( ((x>='0')&&(x<='9'))||((x>='a')&&(x<='f'))||((x>='A')&&(x<='F')) )
 116:.\Generated_Source\PSoC5/ETH.c **** /* ------------------------------------------------------------------------ */
 117:.\Generated_Source\PSoC5/ETH.c **** #define ETH_HEX2BIN(x) \
 118:.\Generated_Source\PSoC5/ETH.c **** ( ((x>='0')&&(x<='9'))? (x-'0') : \
 119:.\Generated_Source\PSoC5/ETH.c ****   ((x>='a')&&(x<='f'))? ((x-'a')+10) : \
 120:.\Generated_Source\PSoC5/ETH.c ****   ((x>='A')&&(x<='F'))? ((x-'A')+10) : 0 )
 121:.\Generated_Source\PSoC5/ETH.c **** /* ------------------------------------------------------------------------ */
 122:.\Generated_Source\PSoC5/ETH.c **** #define ETH_BIN2HEX(x) \
 123:.\Generated_Source\PSoC5/ETH.c **** ( (x>9)? ((x-10)+'A') : (x + '0'))
 124:.\Generated_Source\PSoC5/ETH.c **** /* END V1.2 defines */
 125:.\Generated_Source\PSoC5/ETH.c **** /* ------------------------------------------------------------------------ */
 126:.\Generated_Source\PSoC5/ETH.c **** #if !defined(CY_SCB_SPI_H)
 127:.\Generated_Source\PSoC5/ETH.c **** 	/* SPIM Code */
 128:.\Generated_Source\PSoC5/ETH.c **** /* ------------------------------------------------------------------------ */	
 129:.\Generated_Source\PSoC5/ETH.c **** /* V1.1 : Macro definition for the SpiDone flag. */
 130:.\Generated_Source\PSoC5/ETH.c **** /*  
 131:.\Generated_Source\PSoC5/ETH.c **** 	V1.2 : Added SPI_IDLE flag to the condition for done to eliminate
 132:.\Generated_Source\PSoC5/ETH.c **** 	deadlocking when IDLE but not done.  This seems to occur during the
 133:.\Generated_Source\PSoC5/ETH.c **** 	initial write/read to/from the SPI port.
 134:.\Generated_Source\PSoC5/ETH.c **** */
 135:.\Generated_Source\PSoC5/ETH.c **** /**
 136:.\Generated_Source\PSoC5/ETH.c ****  * \brief Macro to determine the state of the spi done
 137:.\Generated_Source\PSoC5/ETH.c ****  * This macro reads the status register of the transmitter and masks off the doen bit.
 138:.\Generated_Source\PSoC5/ETH.c ****  */
 139:.\Generated_Source\PSoC5/ETH.c **** #define ETH_SpiDone     (SPI_ReadTxStatus() & (SPI_STS_SPI_DONE | SPI_STS_SPI_IDLE))
 140:.\Generated_Source\PSoC5/ETH.c **** #else
 141:.\Generated_Source\PSoC5/ETH.c **** /* include SPI function header for the SCB */
 142:.\Generated_Source\PSoC5/ETH.c **** #include <SPI_SPI_UART.h>
 143:.\Generated_Source\PSoC5/ETH.c **** 
 144:.\Generated_Source\PSoC5/ETH.c **** /* V1.1 : Include the header for the select pin used. */
 145:.\Generated_Source\PSoC5/ETH.c **** #define ETH_SpiDone    ((SPI_SpiUartGetTxBufferSize()==0)?1:0)
 146:.\Generated_Source\PSoC5/ETH.c **** #endif
 147:.\Generated_Source\PSoC5/ETH.c **** 
 148:.\Generated_Source\PSoC5/ETH.c **** /* ------------------------------------------------------------------------ */
 149:.\Generated_Source\PSoC5/ETH.c **** /**
 150:.\Generated_Source\PSoC5/ETH.c ****  * \brief Select the active SCB chip select connected to the W51
 151:.\Generated_Source\PSoC5/ETH.c ****  *
 152:.\Generated_Source\PSoC5/ETH.c ****  * this fucntion will set the active SS line within the SCB to select and
 153:.\Generated_Source\PSoC5/ETH.c ****  * communicate with the W5100 device.
 154:.\Generated_Source\PSoC5/ETH.c ****  * \note this functions requires that the device chip select is originating
 155:.\Generated_Source\PSoC5/ETH.c ****  *  from the SPI device.
 156:.\Generated_Source\PSoC5/ETH.c ****  */
 157:.\Generated_Source\PSoC5/ETH.c **** void
 158:.\Generated_Source\PSoC5/ETH.c **** ETH_ChipSelect( void )
 159:.\Generated_Source\PSoC5/ETH.c **** {
ARM GAS  C:\Users\CHUCK~1.ERH\AppData\Local\Temp\cclfQUCJ.s 			page 5


  70              		.loc 1 159 0
  71              		.cfi_startproc
  72              		@ args = 0, pretend = 0, frame = 0
  73              		@ frame_needed = 1, uses_anonymous_args = 0
  74 0000 80B5     		push	{r7, lr}
  75              	.LCFI0:
  76              		.cfi_def_cfa_offset 8
  77              		.cfi_offset 7, -8
  78              		.cfi_offset 14, -4
  79 0002 00AF     		add	r7, sp, #0
  80              	.LCFI1:
  81              		.cfi_def_cfa_register 7
 160:.\Generated_Source\PSoC5/ETH.c **** 	/*
 161:.\Generated_Source\PSoC5/ETH.c **** 	 * User code for setting the chip select enable.  This is called once
 162:.\Generated_Source\PSoC5/ETH.c **** 	 * at the beginning of each tranfer to/from the W5100, so we recommend
 163:.\Generated_Source\PSoC5/ETH.c **** 	 * either doing nothing (SPIM SS straight out), or to switch the demux
 164:.\Generated_Source\PSoC5/ETH.c **** 	 * component to select the correct output for the SS routing.  This
 165:.\Generated_Source\PSoC5/ETH.c **** 	 * should probably not drive a pin directly since there is no return
 166:.\Generated_Source\PSoC5/ETH.c **** 	 * call from the driver that would allow an enable/disable type of
 167:.\Generated_Source\PSoC5/ETH.c **** 	 * implementation for CSN control.
 168:.\Generated_Source\PSoC5/ETH.c **** 	 */
 169:.\Generated_Source\PSoC5/ETH.c **** 	CSN_Write( ~(1<<0) );
  82              		.loc 1 169 0
  83 0004 4FF0FE00 		mov	r0, #254
  84 0008 FFF7FEFF 		bl	CSN_Write
 170:.\Generated_Source\PSoC5/ETH.c **** 	/* `#START CHIP_SELECT_GENERATION` */
 171:.\Generated_Source\PSoC5/ETH.c **** 
 172:.\Generated_Source\PSoC5/ETH.c **** 	/* `#END` */
 173:.\Generated_Source\PSoC5/ETH.c **** }
  85              		.loc 1 173 0
  86 000c 80BD     		pop	{r7, pc}
  87              		.cfi_endproc
  88              	.LFE56:
  89              		.size	ETH_ChipSelect, .-ETH_ChipSelect
  90 000e 00BF     		.section	.text.ETH_ChipDeSelect,"ax",%progbits
  91              		.align	2
  92              		.global	ETH_ChipDeSelect
  93              		.thumb
  94              		.thumb_func
  95              		.type	ETH_ChipDeSelect, %function
  96              	ETH_ChipDeSelect:
  97              	.LFB57:
 174:.\Generated_Source\PSoC5/ETH.c **** /* ------------------------------------------------------------------------ */
 175:.\Generated_Source\PSoC5/ETH.c **** /**
 176:.\Generated_Source\PSoC5/ETH.c ****  * \brief Called at the end of a transfer to deselect the device
 177:.\Generated_Source\PSoC5/ETH.c ****  *
 178:.\Generated_Source\PSoC5/ETH.c ****  * This function is called by the chip access functions from the core
 179:.\Generated_Source\PSoC5/ETH.c ****  * interface code to de-select the device after the read/write operation
 180:.\Generated_Source\PSoC5/ETH.c ****  * has been completed. This was changed from the "old way" of doing things
 181:.\Generated_Source\PSoC5/ETH.c ****  * using the hardware SS pin because the FIFO will empty too quickly
 182:.\Generated_Source\PSoC5/ETH.c ****  * causing interruptions in the transfer during burst writes at high
 183:.\Generated_Source\PSoC5/ETH.c ****  * speed. This allows bursting without having to have a huge software
 184:.\Generated_Source\PSoC5/ETH.c ****  * FIFO and using DMA to keep the buffer loaded.
 185:.\Generated_Source\PSoC5/ETH.c ****  */
 186:.\Generated_Source\PSoC5/ETH.c **** void
 187:.\Generated_Source\PSoC5/ETH.c **** ETH_ChipDeSelect( void )
 188:.\Generated_Source\PSoC5/ETH.c **** {
ARM GAS  C:\Users\CHUCK~1.ERH\AppData\Local\Temp\cclfQUCJ.s 			page 6


  98              		.loc 1 188 0
  99              		.cfi_startproc
 100              		@ args = 0, pretend = 0, frame = 0
 101              		@ frame_needed = 1, uses_anonymous_args = 0
 102 0000 80B5     		push	{r7, lr}
 103              	.LCFI2:
 104              		.cfi_def_cfa_offset 8
 105              		.cfi_offset 7, -8
 106              		.cfi_offset 14, -4
 107 0002 00AF     		add	r7, sp, #0
 108              	.LCFI3:
 109              		.cfi_def_cfa_register 7
 189:.\Generated_Source\PSoC5/ETH.c **** 	/* V1.1: Wait for SPI operation to complete */
 190:.\Generated_Source\PSoC5/ETH.c **** 	while( ETH_SpiDone == 0) {
 110              		.loc 1 190 0
 111 0004 03E0     		b	.L3
 112              	.L4:
 191:.\Generated_Source\PSoC5/ETH.c **** 		CyDelayUs(1);
 113              		.loc 1 191 0
 114 0006 4FF00100 		mov	r0, #1
 115 000a FFF7FEFF 		bl	CyDelayUs
 116              	.L3:
 190:.\Generated_Source\PSoC5/ETH.c **** 	while( ETH_SpiDone == 0) {
 117              		.loc 1 190 0 discriminator 1
 118 000e FFF7FEFF 		bl	SPI_ReadTxStatus
 119 0012 0346     		mov	r3, r0
 120 0014 03F01103 		and	r3, r3, #17
 121 0018 002B     		cmp	r3, #0
 122 001a F4D0     		beq	.L4
 192:.\Generated_Source\PSoC5/ETH.c **** 	}
 193:.\Generated_Source\PSoC5/ETH.c **** 	CSN_Write(0xFF);
 123              		.loc 1 193 0
 124 001c 4FF0FF00 		mov	r0, #255
 125 0020 FFF7FEFF 		bl	CSN_Write
 194:.\Generated_Source\PSoC5/ETH.c **** }
 126              		.loc 1 194 0
 127 0024 80BD     		pop	{r7, pc}
 128              		.cfi_endproc
 129              	.LFE57:
 130              		.size	ETH_ChipDeSelect, .-ETH_ChipDeSelect
 131 0026 00BF     		.section	.text.ETH_ChipWrite,"ax",%progbits
 132              		.align	2
 133              		.global	ETH_ChipWrite
 134              		.thumb
 135              		.thumb_func
 136              		.type	ETH_ChipWrite, %function
 137              	ETH_ChipWrite:
 138              	.LFB58:
 195:.\Generated_Source\PSoC5/ETH.c **** 
 196:.\Generated_Source\PSoC5/ETH.c **** /* ======================================================================== */
 197:.\Generated_Source\PSoC5/ETH.c **** /* Generic SPI Functions */
 198:.\Generated_Source\PSoC5/ETH.c **** /*
 199:.\Generated_Source\PSoC5/ETH.c ****  * NOTE: when using the SPIM, there must be a buffer length of at least 4
 200:.\Generated_Source\PSoC5/ETH.c ****  * bytes to allow the transfer/receive cycle for each read/write operation
 201:.\Generated_Source\PSoC5/ETH.c ****  * to be contained within the FIFO buffer.
 202:.\Generated_Source\PSoC5/ETH.c ****  */
 203:.\Generated_Source\PSoC5/ETH.c **** #if !defined(CY_SCB_SPI_H)
ARM GAS  C:\Users\CHUCK~1.ERH\AppData\Local\Temp\cclfQUCJ.s 			page 7


 204:.\Generated_Source\PSoC5/ETH.c **** 	/* SPIM Code */
 205:.\Generated_Source\PSoC5/ETH.c **** /* ------------------------------------------------------------------------ */
 206:.\Generated_Source\PSoC5/ETH.c **** /**
 207:.\Generated_Source\PSoC5/ETH.c ****  * \brief write Data to the W5100 at the specified address
 208:.\Generated_Source\PSoC5/ETH.c ****  * \param addr Address of register or memory buffer
 209:.\Generated_Source\PSoC5/ETH.c ****  * \param dat Data to write to the device
 210:.\Generated_Source\PSoC5/ETH.c ****  *
 211:.\Generated_Source\PSoC5/ETH.c ****  * This function will send the WRITE opcode, address and data to the W5100
 212:.\Generated_Source\PSoC5/ETH.c ****  * in order to write the data to the specified register.
 213:.\Generated_Source\PSoC5/ETH.c ****  */
 214:.\Generated_Source\PSoC5/ETH.c **** void 
 215:.\Generated_Source\PSoC5/ETH.c **** ETH_ChipWrite(uint32 addr, uint8 *dat, uint16 length)
 216:.\Generated_Source\PSoC5/ETH.c **** {
 139              		.loc 1 216 0
 140              		.cfi_startproc
 141              		@ args = 0, pretend = 0, frame = 24
 142              		@ frame_needed = 1, uses_anonymous_args = 0
 143 0000 80B5     		push	{r7, lr}
 144              	.LCFI4:
 145              		.cfi_def_cfa_offset 8
 146              		.cfi_offset 7, -8
 147              		.cfi_offset 14, -4
 148 0002 86B0     		sub	sp, sp, #24
 149              	.LCFI5:
 150              		.cfi_def_cfa_offset 32
 151 0004 00AF     		add	r7, sp, #0
 152              	.LCFI6:
 153              		.cfi_def_cfa_register 7
 154 0006 F860     		str	r0, [r7, #12]
 155 0008 B960     		str	r1, [r7, #8]
 156 000a 1346     		mov	r3, r2
 157 000c FB80     		strh	r3, [r7, #6]	@ movhi
 217:.\Generated_Source\PSoC5/ETH.c **** 	uint16 txLen;
 218:.\Generated_Source\PSoC5/ETH.c **** 	uint16 txCount;
 219:.\Generated_Source\PSoC5/ETH.c **** 	uint16 adr;
 220:.\Generated_Source\PSoC5/ETH.c **** 	uint8 crit;
 221:.\Generated_Source\PSoC5/ETH.c **** 	/* V2.0 W5500 block select bits, stripped from the upper 16 bits of the address */
 222:.\Generated_Source\PSoC5/ETH.c **** 	uint8 bsb;
 223:.\Generated_Source\PSoC5/ETH.c **** 	
 224:.\Generated_Source\PSoC5/ETH.c **** 	/* V1.1: Wait for SPI operation to complete */
 225:.\Generated_Source\PSoC5/ETH.c **** 	while( ETH_SpiDone == 0) {
 158              		.loc 1 225 0
 159 000e 03E0     		b	.L6
 160              	.L7:
 226:.\Generated_Source\PSoC5/ETH.c **** 		CyDelayUs(1);
 161              		.loc 1 226 0
 162 0010 4FF00100 		mov	r0, #1
 163 0014 FFF7FEFF 		bl	CyDelayUs
 164              	.L6:
 225:.\Generated_Source\PSoC5/ETH.c **** 	while( ETH_SpiDone == 0) {
 165              		.loc 1 225 0 discriminator 1
 166 0018 FFF7FEFF 		bl	SPI_ReadTxStatus
 167 001c 0346     		mov	r3, r0
 168 001e 03F01103 		and	r3, r3, #17
 169 0022 002B     		cmp	r3, #0
 170 0024 F4D0     		beq	.L7
 227:.\Generated_Source\PSoC5/ETH.c **** 	}
ARM GAS  C:\Users\CHUCK~1.ERH\AppData\Local\Temp\cclfQUCJ.s 			page 8


 228:.\Generated_Source\PSoC5/ETH.c **** 	/* V1.1: End change */
 229:.\Generated_Source\PSoC5/ETH.c **** 	
 230:.\Generated_Source\PSoC5/ETH.c **** 	crit = CyEnterCriticalSection();
 171              		.loc 1 230 0
 172 0026 FFF7FEFF 		bl	CyEnterCriticalSection
 173 002a 0346     		mov	r3, r0
 174 002c 3B74     		strb	r3, [r7, #16]
 231:.\Generated_Source\PSoC5/ETH.c **** 	
 232:.\Generated_Source\PSoC5/ETH.c **** 	adr = (addr&0x0000FFFF);
 175              		.loc 1 232 0
 176 002e FB68     		ldr	r3, [r7, #12]
 177 0030 7B82     		strh	r3, [r7, #18]	@ movhi
 233:.\Generated_Source\PSoC5/ETH.c **** 	bsb = (addr>>16)&0x001F; /* remove the block-select bits from the address */
 178              		.loc 1 233 0
 179 0032 FB68     		ldr	r3, [r7, #12]
 180 0034 4FEA1343 		lsr	r3, r3, #16
 181 0038 DBB2     		uxtb	r3, r3
 182 003a 03F01F03 		and	r3, r3, #31
 183 003e 7B74     		strb	r3, [r7, #17]
 234:.\Generated_Source\PSoC5/ETH.c **** 	
 235:.\Generated_Source\PSoC5/ETH.c **** 	txLen = 0;
 184              		.loc 1 235 0
 185 0040 4FF00003 		mov	r3, #0
 186 0044 FB82     		strh	r3, [r7, #22]	@ movhi
 236:.\Generated_Source\PSoC5/ETH.c **** 	txCount = 0;
 187              		.loc 1 236 0
 188 0046 4FF00003 		mov	r3, #0
 189 004a BB82     		strh	r3, [r7, #20]	@ movhi
 190              	.L12:
 237:.\Generated_Source\PSoC5/ETH.c **** 	do {
 238:.\Generated_Source\PSoC5/ETH.c **** 		/* Using internal device SS generation */
 239:.\Generated_Source\PSoC5/ETH.c **** 		ETH_ChipSelect();
 191              		.loc 1 239 0
 192 004c FFF7FEFF 		bl	ETH_ChipSelect
 240:.\Generated_Source\PSoC5/ETH.c **** 		/*
 241:.\Generated_Source\PSoC5/ETH.c **** 		 * The first thing to do is to clear the Rx Buffer of any lingering
 242:.\Generated_Source\PSoC5/ETH.c **** 		 * data left from other transfers.  Then send the data per the W5100
 243:.\Generated_Source\PSoC5/ETH.c **** 		 * datasheet p.62
 244:.\Generated_Source\PSoC5/ETH.c **** 		 */
 245:.\Generated_Source\PSoC5/ETH.c **** 		SPI_ClearRxBuffer();
 193              		.loc 1 245 0
 194 0050 FFF7FEFF 		bl	SPI_ClearRxBuffer
 246:.\Generated_Source\PSoC5/ETH.c **** 		/* Begin transfer of data to device */
 247:.\Generated_Source\PSoC5/ETH.c **** #if (5 == 1)
 248:.\Generated_Source\PSoC5/ETH.c **** 		/*
 249:.\Generated_Source\PSoC5/ETH.c **** 	     * The W5100 uses an opcode followed by the register/buffer
 250:.\Generated_Source\PSoC5/ETH.c **** 	     * address for each data element transfered.
 251:.\Generated_Source\PSoC5/ETH.c **** 	     */
 252:.\Generated_Source\PSoC5/ETH.c **** 		txLen = 1;
 253:.\Generated_Source\PSoC5/ETH.c **** 		SPI_WriteTxData(ETH_WRITE_OP);
 254:.\Generated_Source\PSoC5/ETH.c **** 		SPI_WriteTxData((adr>>8)&0x00FF);
 255:.\Generated_Source\PSoC5/ETH.c **** 		SPI_WriteTxData(adr&0x00FF);
 256:.\Generated_Source\PSoC5/ETH.c **** #elif (5 == 2)
 257:.\Generated_Source\PSoC5/ETH.c **** 	    /*
 258:.\Generated_Source\PSoC5/ETH.c **** 	     * The Header block for the W5200 uses the address, plus
 259:.\Generated_Source\PSoC5/ETH.c **** 	     * a length word which contains a read/write bit.  Setting
 260:.\Generated_Source\PSoC5/ETH.c **** 	     * the bit to a 1 (0x80) will enable write mode
ARM GAS  C:\Users\CHUCK~1.ERH\AppData\Local\Temp\cclfQUCJ.s 			page 9


 261:.\Generated_Source\PSoC5/ETH.c **** 	     */
 262:.\Generated_Source\PSoC5/ETH.c **** 		txLen = (length > ETH_BURST_MAX)? ETH_BURST_MAX : length;
 263:.\Generated_Source\PSoC5/ETH.c **** 		SPI_WriteTxData( (adr>>8) & 0x00FF);
 264:.\Generated_Source\PSoC5/ETH.c **** 		SPI_WriteTxData( adr & 0x00FF );
 265:.\Generated_Source\PSoC5/ETH.c **** 		SPI_WriteTxData( 0x80 | ((txLen>>8)&0x007F) );
 266:.\Generated_Source\PSoC5/ETH.c **** 		SPI_WriteTxData( txLen & 0x00FF );
 267:.\Generated_Source\PSoC5/ETH.c **** #elif (5 == 5)
 268:.\Generated_Source\PSoC5/ETH.c **** 		/*
 269:.\Generated_Source\PSoC5/ETH.c **** 	 	 * Build the header block for the W5500, using the length to
 270:.\Generated_Source\PSoC5/ETH.c **** 	     * added the command length (1, 2, 4 or n) to the set.
 271:.\Generated_Source\PSoC5/ETH.c **** 		 */
 272:.\Generated_Source\PSoC5/ETH.c **** 		txLen = length; /* default to the length, since there is N-length data */
 195              		.loc 1 272 0
 196 0054 FB88     		ldrh	r3, [r7, #6]	@ movhi
 197 0056 FB82     		strh	r3, [r7, #22]	@ movhi
 273:.\Generated_Source\PSoC5/ETH.c **** 		/* 
 274:.\Generated_Source\PSoC5/ETH.c **** 	     * configure the BSB byte to contain the write bit set.
 275:.\Generated_Source\PSoC5/ETH.c **** 	     * note/todo : enable SPi-less usage and fixed mode transfer data for
 276:.\Generated_Source\PSoC5/ETH.c **** 	     * the use without having SPI.
 277:.\Generated_Source\PSoC5/ETH.c **** 	     */
 278:.\Generated_Source\PSoC5/ETH.c **** 		bsb = (bsb << 3) | 4;
 198              		.loc 1 278 0
 199 0058 7B7C     		ldrb	r3, [r7, #17]	@ zero_extendqisi2
 200 005a 4FEAC303 		lsl	r3, r3, #3
 201 005e DBB2     		uxtb	r3, r3
 202 0060 43F00403 		orr	r3, r3, #4
 203 0064 DBB2     		uxtb	r3, r3
 204 0066 7B74     		strb	r3, [r7, #17]
 279:.\Generated_Source\PSoC5/ETH.c **** 		
 280:.\Generated_Source\PSoC5/ETH.c **** 		SPI_WriteTxData( (adr>>8) & 0x00FF);
 205              		.loc 1 280 0
 206 0068 7B8A     		ldrh	r3, [r7, #18]
 207 006a 4FEA1323 		lsr	r3, r3, #8
 208 006e 9BB2     		uxth	r3, r3
 209 0070 DBB2     		uxtb	r3, r3
 210 0072 1846     		mov	r0, r3
 211 0074 FFF7FEFF 		bl	SPI_WriteTxData
 281:.\Generated_Source\PSoC5/ETH.c **** 		SPI_WriteTxData( adr & 0x00FF );
 212              		.loc 1 281 0
 213 0078 7B8A     		ldrh	r3, [r7, #18]	@ movhi
 214 007a DBB2     		uxtb	r3, r3
 215 007c 1846     		mov	r0, r3
 216 007e FFF7FEFF 		bl	SPI_WriteTxData
 282:.\Generated_Source\PSoC5/ETH.c **** 		SPI_WriteTxData( bsb );
 217              		.loc 1 282 0
 218 0082 7B7C     		ldrb	r3, [r7, #17]	@ zero_extendqisi2
 219 0084 1846     		mov	r0, r3
 220 0086 FFF7FEFF 		bl	SPI_WriteTxData
 221              	.L13:
 283:.\Generated_Source\PSoC5/ETH.c **** 		
 284:.\Generated_Source\PSoC5/ETH.c **** #endif
 285:.\Generated_Source\PSoC5/ETH.c **** 		/*
 286:.\Generated_Source\PSoC5/ETH.c ****          * send the sequence of bytes to the device following the 
 287:.\Generated_Source\PSoC5/ETH.c ****          * header data transfer.  This will wait for the FIFO to  have
 288:.\Generated_Source\PSoC5/ETH.c ****          * available memory prior to writing the data to the part.
 289:.\Generated_Source\PSoC5/ETH.c ****          * at the end of the block the loop exits and ends the operation
 290:.\Generated_Source\PSoC5/ETH.c ****          * by setting the chip select high.
ARM GAS  C:\Users\CHUCK~1.ERH\AppData\Local\Temp\cclfQUCJ.s 			page 10


 291:.\Generated_Source\PSoC5/ETH.c ****          */
 292:.\Generated_Source\PSoC5/ETH.c **** 		// Transmit data block
 293:.\Generated_Source\PSoC5/ETH.c **** 		do {
 294:.\Generated_Source\PSoC5/ETH.c **** 			while ( (SPI_ReadTxStatus() & SPI_STS_TX_FIFO_NOT_FULL) == 0);
 222              		.loc 1 294 0
 223 008a 00BF     		nop
 224              	.L8:
 225              		.loc 1 294 0 is_stmt 0 discriminator 1
 226 008c FFF7FEFF 		bl	SPI_ReadTxStatus
 227 0090 0346     		mov	r3, r0
 228 0092 03F00403 		and	r3, r3, #4
 229 0096 002B     		cmp	r3, #0
 230 0098 F8D0     		beq	.L8
 295:.\Generated_Source\PSoC5/ETH.c **** 			SPI_WriteTxData(dat[txCount++]);
 231              		.loc 1 295 0 is_stmt 1
 232 009a BB8A     		ldrh	r3, [r7, #20]
 233 009c BA68     		ldr	r2, [r7, #8]
 234 009e D318     		adds	r3, r2, r3
 235 00a0 1B78     		ldrb	r3, [r3, #0]	@ zero_extendqisi2
 236 00a2 BA8A     		ldrh	r2, [r7, #20]	@ movhi
 237 00a4 02F10102 		add	r2, r2, #1
 238 00a8 BA82     		strh	r2, [r7, #20]	@ movhi
 239 00aa 1846     		mov	r0, r3
 240 00ac FFF7FEFF 		bl	SPI_WriteTxData
 296:.\Generated_Source\PSoC5/ETH.c **** 			--length;
 241              		.loc 1 296 0
 242 00b0 FB88     		ldrh	r3, [r7, #6]	@ movhi
 243 00b2 03F1FF33 		add	r3, r3, #-1
 244 00b6 FB80     		strh	r3, [r7, #6]	@ movhi
 297:.\Generated_Source\PSoC5/ETH.c **** 			--txLen;
 245              		.loc 1 297 0
 246 00b8 FB8A     		ldrh	r3, [r7, #22]	@ movhi
 247 00ba 03F1FF33 		add	r3, r3, #-1
 248 00be FB82     		strh	r3, [r7, #22]	@ movhi
 298:.\Generated_Source\PSoC5/ETH.c **** 			++adr;
 249              		.loc 1 298 0
 250 00c0 7B8A     		ldrh	r3, [r7, #18]	@ movhi
 251 00c2 03F10103 		add	r3, r3, #1
 252 00c6 7B82     		strh	r3, [r7, #18]	@ movhi
 299:.\Generated_Source\PSoC5/ETH.c **** 		} while ( txLen > 0 );
 253              		.loc 1 299 0
 254 00c8 FB8A     		ldrh	r3, [r7, #22]
 255 00ca 002B     		cmp	r3, #0
 256 00cc DDD1     		bne	.L13
 300:.\Generated_Source\PSoC5/ETH.c **** 
 301:.\Generated_Source\PSoC5/ETH.c **** 		while( ETH_SpiDone == 0) {
 257              		.loc 1 301 0
 258 00ce 03E0     		b	.L10
 259              	.L11:
 302:.\Generated_Source\PSoC5/ETH.c **** 			CyDelayUs(1);
 260              		.loc 1 302 0
 261 00d0 4FF00100 		mov	r0, #1
 262 00d4 FFF7FEFF 		bl	CyDelayUs
 263              	.L10:
 301:.\Generated_Source\PSoC5/ETH.c **** 		while( ETH_SpiDone == 0) {
 264              		.loc 1 301 0 discriminator 1
 265 00d8 FFF7FEFF 		bl	SPI_ReadTxStatus
ARM GAS  C:\Users\CHUCK~1.ERH\AppData\Local\Temp\cclfQUCJ.s 			page 11


 266 00dc 0346     		mov	r3, r0
 267 00de 03F01103 		and	r3, r3, #17
 268 00e2 002B     		cmp	r3, #0
 269 00e4 F4D0     		beq	.L11
 303:.\Generated_Source\PSoC5/ETH.c **** 		}
 304:.\Generated_Source\PSoC5/ETH.c **** 		// End operation
 305:.\Generated_Source\PSoC5/ETH.c **** 		ETH_ChipDeSelect();
 270              		.loc 1 305 0
 271 00e6 FFF7FEFF 		bl	ETH_ChipDeSelect
 306:.\Generated_Source\PSoC5/ETH.c **** 	} while (length > 0);
 272              		.loc 1 306 0
 273 00ea FB88     		ldrh	r3, [r7, #6]
 274 00ec 002B     		cmp	r3, #0
 275 00ee ADD1     		bne	.L12
 307:.\Generated_Source\PSoC5/ETH.c **** 	
 308:.\Generated_Source\PSoC5/ETH.c **** 	CyExitCriticalSection( crit );
 276              		.loc 1 308 0
 277 00f0 3B7C     		ldrb	r3, [r7, #16]	@ zero_extendqisi2
 278 00f2 1846     		mov	r0, r3
 279 00f4 FFF7FEFF 		bl	CyExitCriticalSection
 309:.\Generated_Source\PSoC5/ETH.c **** }
 280              		.loc 1 309 0
 281 00f8 07F11807 		add	r7, r7, #24
 282 00fc BD46     		mov	sp, r7
 283 00fe 80BD     		pop	{r7, pc}
 284              		.cfi_endproc
 285              	.LFE58:
 286              		.size	ETH_ChipWrite, .-ETH_ChipWrite
 287              		.section	.text.ETH_ChipRead,"ax",%progbits
 288              		.align	2
 289              		.global	ETH_ChipRead
 290              		.thumb
 291              		.thumb_func
 292              		.type	ETH_ChipRead, %function
 293              	ETH_ChipRead:
 294              	.LFB59:
 310:.\Generated_Source\PSoC5/ETH.c **** 
 311:.\Generated_Source\PSoC5/ETH.c **** /* ------------------------------------------------------------------------ */
 312:.\Generated_Source\PSoC5/ETH.c **** /**
 313:.\Generated_Source\PSoC5/ETH.c ****  * \brief Read data from the W5100 at the spsecified address
 314:.\Generated_Source\PSoC5/ETH.c ****  * \param addr Address from which to read
 315:.\Generated_Source\PSoC5/ETH.c ****  * \returns the data read from the address
 316:.\Generated_Source\PSoC5/ETH.c ****  *
 317:.\Generated_Source\PSoC5/ETH.c ****  * this fucntion will access a W5100 memory location and read the contents
 318:.\Generated_Source\PSoC5/ETH.c ****  * using the serial protocol specified on P.61 of the datasheet.
 319:.\Generated_Source\PSoC5/ETH.c ****  */
 320:.\Generated_Source\PSoC5/ETH.c **** void
 321:.\Generated_Source\PSoC5/ETH.c **** ETH_ChipRead(uint32 addr, uint8 *dat, uint16 length)
 322:.\Generated_Source\PSoC5/ETH.c **** {
 295              		.loc 1 322 0
 296              		.cfi_startproc
 297              		@ args = 0, pretend = 0, frame = 32
 298              		@ frame_needed = 1, uses_anonymous_args = 0
 299 0000 80B5     		push	{r7, lr}
 300              	.LCFI7:
 301              		.cfi_def_cfa_offset 8
 302              		.cfi_offset 7, -8
ARM GAS  C:\Users\CHUCK~1.ERH\AppData\Local\Temp\cclfQUCJ.s 			page 12


 303              		.cfi_offset 14, -4
 304 0002 88B0     		sub	sp, sp, #32
 305              	.LCFI8:
 306              		.cfi_def_cfa_offset 40
 307 0004 00AF     		add	r7, sp, #0
 308              	.LCFI9:
 309              		.cfi_def_cfa_register 7
 310 0006 F860     		str	r0, [r7, #12]
 311 0008 B960     		str	r1, [r7, #8]
 312 000a 1346     		mov	r3, r2
 313 000c FB80     		strh	r3, [r7, #6]	@ movhi
 323:.\Generated_Source\PSoC5/ETH.c **** 	uint16 rxIndex; /* the data index in to the receive buffer */
 324:.\Generated_Source\PSoC5/ETH.c **** 	uint16 address; /* the current chip address */
 325:.\Generated_Source\PSoC5/ETH.c **** 	uint16 rxLen;   /* the number of bytes to read durning the burst */
 326:.\Generated_Source\PSoC5/ETH.c **** 	uint16 txBytes; /* the number of dummy bytes send during th read */
 327:.\Generated_Source\PSoC5/ETH.c **** 	uint8 dump;     /* the number of bytes to ignore from the data stream readback */
 328:.\Generated_Source\PSoC5/ETH.c **** 	uint16 rxCount; /* the number of bytes read from the chip */
 329:.\Generated_Source\PSoC5/ETH.c **** 	uint8 rxb;      /* the byte within the SPI buffer read from the chip */
 330:.\Generated_Source\PSoC5/ETH.c **** 	/* V2.0 W5500 block select bits, stripped from the upper 16 bits of the address */
 331:.\Generated_Source\PSoC5/ETH.c **** 	uint8 bsb;
 332:.\Generated_Source\PSoC5/ETH.c **** 	
 333:.\Generated_Source\PSoC5/ETH.c **** 	/* V1.1: Wait for SPI operation to complete */
 334:.\Generated_Source\PSoC5/ETH.c **** 	while( ETH_SpiDone == 0) {
 314              		.loc 1 334 0
 315 000e 03E0     		b	.L15
 316              	.L16:
 335:.\Generated_Source\PSoC5/ETH.c **** 		CyDelayUs(1);
 317              		.loc 1 335 0
 318 0010 4FF00100 		mov	r0, #1
 319 0014 FFF7FEFF 		bl	CyDelayUs
 320              	.L15:
 334:.\Generated_Source\PSoC5/ETH.c **** 	while( ETH_SpiDone == 0) {
 321              		.loc 1 334 0 discriminator 1
 322 0018 FFF7FEFF 		bl	SPI_ReadTxStatus
 323 001c 0346     		mov	r3, r0
 324 001e 03F01103 		and	r3, r3, #17
 325 0022 002B     		cmp	r3, #0
 326 0024 F4D0     		beq	.L16
 336:.\Generated_Source\PSoC5/ETH.c **** 	}
 337:.\Generated_Source\PSoC5/ETH.c **** 	/* V1.1: End change */
 338:.\Generated_Source\PSoC5/ETH.c **** 
 339:.\Generated_Source\PSoC5/ETH.c **** 	address = (addr & 0x0000FFFF); // assign base pointer address
 327              		.loc 1 339 0
 328 0026 FB68     		ldr	r3, [r7, #12]
 329 0028 BB83     		strh	r3, [r7, #28]	@ movhi
 340:.\Generated_Source\PSoC5/ETH.c **** 	bsb = (addr>>16)&0x001F; /* remove the block-select bits from the address */
 330              		.loc 1 340 0
 331 002a FB68     		ldr	r3, [r7, #12]
 332 002c 4FEA1343 		lsr	r3, r3, #16
 333 0030 DBB2     		uxtb	r3, r3
 334 0032 03F01F03 		and	r3, r3, #31
 335 0036 7B75     		strb	r3, [r7, #21]
 341:.\Generated_Source\PSoC5/ETH.c **** 	rxIndex = 0;    // default the starting index for the receive to zero
 336              		.loc 1 341 0
 337 0038 4FF00003 		mov	r3, #0
 338 003c FB83     		strh	r3, [r7, #30]	@ movhi
 339              	.L22:
ARM GAS  C:\Users\CHUCK~1.ERH\AppData\Local\Temp\cclfQUCJ.s 			page 13


 342:.\Generated_Source\PSoC5/ETH.c **** 	
 343:.\Generated_Source\PSoC5/ETH.c **** 	do {
 344:.\Generated_Source\PSoC5/ETH.c **** 		/* Write the chip select instance to select the device */
 345:.\Generated_Source\PSoC5/ETH.c **** 		ETH_ChipSelect();
 340              		.loc 1 345 0
 341 003e FFF7FEFF 		bl	ETH_ChipSelect
 346:.\Generated_Source\PSoC5/ETH.c **** 		/*
 347:.\Generated_Source\PSoC5/ETH.c **** 		 * First, clear the Rx Buffer of any waiting data.  Then begin the
 348:.\Generated_Source\PSoC5/ETH.c **** 		 * read operation by sending the op code, followed byte the address
 349:.\Generated_Source\PSoC5/ETH.c **** 		 * from which the read will be executed, then send a dummy byte
 350:.\Generated_Source\PSoC5/ETH.c **** 		 * of zeros to read the data from the device.
 351:.\Generated_Source\PSoC5/ETH.c **** 		 */
 352:.\Generated_Source\PSoC5/ETH.c **** 		SPI_ClearRxBuffer();
 342              		.loc 1 352 0
 343 0042 FFF7FEFF 		bl	SPI_ClearRxBuffer
 353:.\Generated_Source\PSoC5/ETH.c **** 		/* Send the device header */
 354:.\Generated_Source\PSoC5/ETH.c **** 		rxCount = 0; // initialize the bytes received to none
 344              		.loc 1 354 0
 345 0046 4FF00003 		mov	r3, #0
 346 004a FB82     		strh	r3, [r7, #22]	@ movhi
 355:.\Generated_Source\PSoC5/ETH.c **** #if (5 == 1 )
 356:.\Generated_Source\PSoC5/ETH.c **** 		/*
 357:.\Generated_Source\PSoC5/ETH.c **** 		 * W1100 interface code
 358:.\Generated_Source\PSoC5/ETH.c **** 		 * --------------------
 359:.\Generated_Source\PSoC5/ETH.c **** 		 * The W5100 only supports 1 byte transfers (no burst mode), so
 360:.\Generated_Source\PSoC5/ETH.c **** 		 * peg the receive length as 1 byte, and issue a number of commands
 361:.\Generated_Source\PSoC5/ETH.c **** 		 * in sequence to simulate a burst read.
 362:.\Generated_Source\PSoC5/ETH.c **** 		 */
 363:.\Generated_Source\PSoC5/ETH.c **** 		rxLen = 1;  // The W5100 is limited to 1 byte of data transmitted
 364:.\Generated_Source\PSoC5/ETH.c **** 		dump = 3;   // The W5100 has a 3-byte packet header
 365:.\Generated_Source\PSoC5/ETH.c **** 		txBytes = 0; // Send only one byte afte rthe header then end the transfer
 366:.\Generated_Source\PSoC5/ETH.c **** 		SPI_WriteTxData(ETH_READ_OP);
 367:.\Generated_Source\PSoC5/ETH.c **** 		SPI_WriteTxData(address>>8);
 368:.\Generated_Source\PSoC5/ETH.c **** 		SPI_WriteTxData(address&0x00FF);
 369:.\Generated_Source\PSoC5/ETH.c **** 		
 370:.\Generated_Source\PSoC5/ETH.c **** #elif (5 == 2)
 371:.\Generated_Source\PSoC5/ETH.c **** 		/*
 372:.\Generated_Source\PSoC5/ETH.c **** 		 * W5200 Interface Header
 373:.\Generated_Source\PSoC5/ETH.c **** 		 * ----------------------
 374:.\Generated_Source\PSoC5/ETH.c **** 		 * The W5200 protocol expects an address followed by a read
 375:.\Generated_Source\PSoC5/ETH.c **** 		 * byte count for the header of the protocol, so, this will
 376:.\Generated_Source\PSoC5/ETH.c **** 		 * issue reads up to the max burst length
 377:.\Generated_Source\PSoC5/ETH.c **** 		 */
 378:.\Generated_Source\PSoC5/ETH.c **** 		dump = 4; /*  The W5200 has a definded data length and a header of 4 bytes */
 379:.\Generated_Source\PSoC5/ETH.c **** 		rxLen = (length < ETH_BURST_MAX) ? length : ETH_BURST_MAX;
 380:.\Generated_Source\PSoC5/ETH.c **** 		/* 
 381:.\Generated_Source\PSoC5/ETH.c **** 		 * Set the number of bytes to transmit before
 382:.\Generated_Source\PSoC5/ETH.c **** 		 * ending the packet to the calculated value
 383:.\Generated_Source\PSoC5/ETH.c **** 		 */
 384:.\Generated_Source\PSoC5/ETH.c **** 		txBytes = 0; 
 385:.\Generated_Source\PSoC5/ETH.c **** 		/* Send the packet header */
 386:.\Generated_Source\PSoC5/ETH.c **** 		SPI_WriteTxData( address>>8);
 387:.\Generated_Source\PSoC5/ETH.c **** 		SPI_WriteTxData( address & 0x00FF );
 388:.\Generated_Source\PSoC5/ETH.c **** 		SPI_WriteTxData( 0x7F & (rxLen>>8) );
 389:.\Generated_Source\PSoC5/ETH.c **** 		SPI_WriteTxData( rxLen&0x00FF );
 390:.\Generated_Source\PSoC5/ETH.c **** #elif (5 == 5)
 391:.\Generated_Source\PSoC5/ETH.c **** 		/*
ARM GAS  C:\Users\CHUCK~1.ERH\AppData\Local\Temp\cclfQUCJ.s 			page 14


 392:.\Generated_Source\PSoC5/ETH.c **** 	     * W5500 Interface Header
 393:.\Generated_Source\PSoC5/ETH.c **** 	     * -----------------------
 394:.\Generated_Source\PSoC5/ETH.c **** 	     * the W5500 header uses an address, fllowed by a command byte
 395:.\Generated_Source\PSoC5/ETH.c **** 		 * that included a block select (bank) for selecting the registers
 396:.\Generated_Source\PSoC5/ETH.c **** 	     * using the address as an offset.  following the BSB byte is
 397:.\Generated_Source\PSoC5/ETH.c **** 	     * the data read/write phase.  This section generates the custom
 398:.\Generated_Source\PSoC5/ETH.c **** 	     * W5500 header for reading data from the device.
 399:.\Generated_Source\PSoC5/ETH.c **** 	     */
 400:.\Generated_Source\PSoC5/ETH.c **** 		dump = 3; /*  The W5500 has a definded data length and a header of 3 bytes */
 347              		.loc 1 400 0
 348 004c 4FF00303 		mov	r3, #3
 349 0050 7B76     		strb	r3, [r7, #25]
 401:.\Generated_Source\PSoC5/ETH.c **** 		rxLen = length;
 350              		.loc 1 401 0
 351 0052 FB88     		ldrh	r3, [r7, #6]	@ movhi
 352 0054 7B82     		strh	r3, [r7, #18]	@ movhi
 402:.\Generated_Source\PSoC5/ETH.c **** 		/* 
 403:.\Generated_Source\PSoC5/ETH.c **** 		 * Set the number of bytes to transmit before
 404:.\Generated_Source\PSoC5/ETH.c **** 		 * ending the packet to the calculated value
 405:.\Generated_Source\PSoC5/ETH.c **** 		 */
 406:.\Generated_Source\PSoC5/ETH.c **** 		txBytes = 0; 
 353              		.loc 1 406 0
 354 0056 4FF00003 		mov	r3, #0
 355 005a 7B83     		strh	r3, [r7, #26]	@ movhi
 407:.\Generated_Source\PSoC5/ETH.c **** 		/* Send the packet header */
 408:.\Generated_Source\PSoC5/ETH.c **** 		SPI_WriteTxData( address>>8);
 356              		.loc 1 408 0
 357 005c BB8B     		ldrh	r3, [r7, #28]
 358 005e 4FEA1323 		lsr	r3, r3, #8
 359 0062 9BB2     		uxth	r3, r3
 360 0064 DBB2     		uxtb	r3, r3
 361 0066 1846     		mov	r0, r3
 362 0068 FFF7FEFF 		bl	SPI_WriteTxData
 409:.\Generated_Source\PSoC5/ETH.c **** 		SPI_WriteTxData( address & 0x00FF );
 363              		.loc 1 409 0
 364 006c BB8B     		ldrh	r3, [r7, #28]	@ movhi
 365 006e DBB2     		uxtb	r3, r3
 366 0070 1846     		mov	r0, r3
 367 0072 FFF7FEFF 		bl	SPI_WriteTxData
 410:.\Generated_Source\PSoC5/ETH.c **** 		SPI_WriteTxData( bsb << 3);
 368              		.loc 1 410 0
 369 0076 7B7D     		ldrb	r3, [r7, #21]
 370 0078 4FEAC303 		lsl	r3, r3, #3
 371 007c DBB2     		uxtb	r3, r3
 372 007e 1846     		mov	r0, r3
 373 0080 FFF7FEFF 		bl	SPI_WriteTxData
 411:.\Generated_Source\PSoC5/ETH.c **** #endif
 412:.\Generated_Source\PSoC5/ETH.c **** 
 413:.\Generated_Source\PSoC5/ETH.c **** 		while (rxCount < rxLen) {
 374              		.loc 1 413 0
 375 0084 3CE0     		b	.L17
 376              	.L21:
 414:.\Generated_Source\PSoC5/ETH.c **** 			/*
 415:.\Generated_Source\PSoC5/ETH.c **** 			 * Since the header is clogging the buffer (and it is inefficient
 416:.\Generated_Source\PSoC5/ETH.c **** 			 * to just clear the header before executing the reads), this loop
 417:.\Generated_Source\PSoC5/ETH.c **** 			 * will transmit the data completely the header size before
 418:.\Generated_Source\PSoC5/ETH.c **** 			 * the data has been read, so, send the data when the rxLength
ARM GAS  C:\Users\CHUCK~1.ERH\AppData\Local\Temp\cclfQUCJ.s 			page 15


 419:.\Generated_Source\PSoC5/ETH.c **** 			 * is not zero.
 420:.\Generated_Source\PSoC5/ETH.c **** 			 */
 421:.\Generated_Source\PSoC5/ETH.c **** 			if (txBytes < rxLen ) {
 377              		.loc 1 421 0
 378 0086 7A8B     		ldrh	r2, [r7, #26]
 379 0088 7B8A     		ldrh	r3, [r7, #18]
 380 008a 9A42     		cmp	r2, r3
 381 008c 0FD2     		bcs	.L23
 422:.\Generated_Source\PSoC5/ETH.c **** 				SPI_WriteTxData( 0 );
 382              		.loc 1 422 0
 383 008e 4FF00000 		mov	r0, #0
 384 0092 FFF7FEFF 		bl	SPI_WriteTxData
 423:.\Generated_Source\PSoC5/ETH.c **** 				address ++;
 385              		.loc 1 423 0
 386 0096 BB8B     		ldrh	r3, [r7, #28]	@ movhi
 387 0098 03F10103 		add	r3, r3, #1
 388 009c BB83     		strh	r3, [r7, #28]	@ movhi
 424:.\Generated_Source\PSoC5/ETH.c **** 				length --;
 389              		.loc 1 424 0
 390 009e FB88     		ldrh	r3, [r7, #6]	@ movhi
 391 00a0 03F1FF33 		add	r3, r3, #-1
 392 00a4 FB80     		strh	r3, [r7, #6]	@ movhi
 425:.\Generated_Source\PSoC5/ETH.c **** 				txBytes ++;
 393              		.loc 1 425 0
 394 00a6 7B8B     		ldrh	r3, [r7, #26]	@ movhi
 395 00a8 03F10103 		add	r3, r3, #1
 396 00ac 7B83     		strh	r3, [r7, #26]	@ movhi
 397              	.L23:
 426:.\Generated_Source\PSoC5/ETH.c **** 			}
 427:.\Generated_Source\PSoC5/ETH.c **** 			/*
 428:.\Generated_Source\PSoC5/ETH.c **** 			 * Read the data from the buffer.  The header data responses
 429:.\Generated_Source\PSoC5/ETH.c **** 			 * are going to be sitting in the buffer, so dump them
 430:.\Generated_Source\PSoC5/ETH.c **** 			 * and just receive the data bock
 431:.\Generated_Source\PSoC5/ETH.c **** 			 */
 432:.\Generated_Source\PSoC5/ETH.c **** 			while ( ( SPI_ReadRxStatus()&SPI_STS_RX_FIFO_NOT_EMPTY) == 0);
 398              		.loc 1 432 0
 399 00ae 00BF     		nop
 400              	.L19:
 401              		.loc 1 432 0 is_stmt 0 discriminator 1
 402 00b0 FFF7FEFF 		bl	SPI_ReadRxStatus
 403 00b4 0346     		mov	r3, r0
 404 00b6 03F02003 		and	r3, r3, #32
 405 00ba 002B     		cmp	r3, #0
 406 00bc F8D0     		beq	.L19
 433:.\Generated_Source\PSoC5/ETH.c **** 			rxb = SPI_ReadRxData();
 407              		.loc 1 433 0 is_stmt 1
 408 00be FFF7FEFF 		bl	SPI_ReadRxData
 409 00c2 0346     		mov	r3, r0
 410 00c4 7B74     		strb	r3, [r7, #17]
 434:.\Generated_Source\PSoC5/ETH.c **** 			dat[rxIndex] = rxb;
 411              		.loc 1 434 0
 412 00c6 FB8B     		ldrh	r3, [r7, #30]
 413 00c8 BA68     		ldr	r2, [r7, #8]
 414 00ca D318     		adds	r3, r2, r3
 415 00cc 7A7C     		ldrb	r2, [r7, #17]
 416 00ce 1A70     		strb	r2, [r3, #0]
 435:.\Generated_Source\PSoC5/ETH.c **** 			if (dump > 0) {
ARM GAS  C:\Users\CHUCK~1.ERH\AppData\Local\Temp\cclfQUCJ.s 			page 16


 417              		.loc 1 435 0
 418 00d0 7B7E     		ldrb	r3, [r7, #25]	@ zero_extendqisi2
 419 00d2 002B     		cmp	r3, #0
 420 00d4 04D0     		beq	.L20
 436:.\Generated_Source\PSoC5/ETH.c **** 				--dump;
 421              		.loc 1 436 0
 422 00d6 7B7E     		ldrb	r3, [r7, #25]
 423 00d8 03F1FF33 		add	r3, r3, #-1
 424 00dc 7B76     		strb	r3, [r7, #25]
 425 00de 0FE0     		b	.L17
 426              	.L20:
 437:.\Generated_Source\PSoC5/ETH.c **** 			}
 438:.\Generated_Source\PSoC5/ETH.c **** 			else {
 439:.\Generated_Source\PSoC5/ETH.c **** 				SWTP_Write(1);
 427              		.loc 1 439 0
 428 00e0 4FF00100 		mov	r0, #1
 429 00e4 FFF7FEFF 		bl	SWTP_Write
 440:.\Generated_Source\PSoC5/ETH.c **** 				rxCount++;
 430              		.loc 1 440 0
 431 00e8 FB8A     		ldrh	r3, [r7, #22]	@ movhi
 432 00ea 03F10103 		add	r3, r3, #1
 433 00ee FB82     		strh	r3, [r7, #22]	@ movhi
 441:.\Generated_Source\PSoC5/ETH.c **** 				rxIndex++;
 434              		.loc 1 441 0
 435 00f0 FB8B     		ldrh	r3, [r7, #30]	@ movhi
 436 00f2 03F10103 		add	r3, r3, #1
 437 00f6 FB83     		strh	r3, [r7, #30]	@ movhi
 442:.\Generated_Source\PSoC5/ETH.c **** 				SWTP_Write(0);
 438              		.loc 1 442 0
 439 00f8 4FF00000 		mov	r0, #0
 440 00fc FFF7FEFF 		bl	SWTP_Write
 441              	.L17:
 413:.\Generated_Source\PSoC5/ETH.c **** 		while (rxCount < rxLen) {
 442              		.loc 1 413 0 discriminator 1
 443 0100 FA8A     		ldrh	r2, [r7, #22]
 444 0102 7B8A     		ldrh	r3, [r7, #18]
 445 0104 9A42     		cmp	r2, r3
 446 0106 BED3     		bcc	.L21
 443:.\Generated_Source\PSoC5/ETH.c **** 			}
 444:.\Generated_Source\PSoC5/ETH.c **** 		}
 445:.\Generated_Source\PSoC5/ETH.c **** 		/* Turn off chip select, and set the buffer */
 446:.\Generated_Source\PSoC5/ETH.c **** 		ETH_ChipDeSelect();
 447              		.loc 1 446 0
 448 0108 FFF7FEFF 		bl	ETH_ChipDeSelect
 447:.\Generated_Source\PSoC5/ETH.c **** 	}
 448:.\Generated_Source\PSoC5/ETH.c **** 	while ( length > 0);
 449              		.loc 1 448 0
 450 010c FB88     		ldrh	r3, [r7, #6]
 451 010e 002B     		cmp	r3, #0
 452 0110 95D1     		bne	.L22
 449:.\Generated_Source\PSoC5/ETH.c **** }
 453              		.loc 1 449 0
 454 0112 07F12007 		add	r7, r7, #32
 455 0116 BD46     		mov	sp, r7
 456 0118 80BD     		pop	{r7, pc}
 457              		.cfi_endproc
 458              	.LFE59:
ARM GAS  C:\Users\CHUCK~1.ERH\AppData\Local\Temp\cclfQUCJ.s 			page 17


 459              		.size	ETH_ChipRead, .-ETH_ChipRead
 460 011a 00BF     		.section	.text.ETH_ChipWrite16,"ax",%progbits
 461              		.align	2
 462              		.global	ETH_ChipWrite16
 463              		.thumb
 464              		.thumb_func
 465              		.type	ETH_ChipWrite16, %function
 466              	ETH_ChipWrite16:
 467              	.LFB60:
 450:.\Generated_Source\PSoC5/ETH.c **** /* ======================================================================== */
 451:.\Generated_Source\PSoC5/ETH.c **** /* SCB Specific Functions */
 452:.\Generated_Source\PSoC5/ETH.c **** #else
 453:.\Generated_Source\PSoC5/ETH.c **** /* ------------------------------------------------------------------------ */
 454:.\Generated_Source\PSoC5/ETH.c **** /**
 455:.\Generated_Source\PSoC5/ETH.c ****  * \brief write Data to the W5100 at the specified address
 456:.\Generated_Source\PSoC5/ETH.c ****  * \param addr Address of register or memory buffer
 457:.\Generated_Source\PSoC5/ETH.c ****  * \param dat Data to write to the device
 458:.\Generated_Source\PSoC5/ETH.c ****  *
 459:.\Generated_Source\PSoC5/ETH.c ****  * This function will send the WRITE opcode, address and data to the W5100
 460:.\Generated_Source\PSoC5/ETH.c ****  * in order to write the data to the specified register.
 461:.\Generated_Source\PSoC5/ETH.c ****  */
 462:.\Generated_Source\PSoC5/ETH.c **** void
 463:.\Generated_Source\PSoC5/ETH.c **** ETH_ChipWrite(uint32 addr, uint8 *dat, uint16 length)
 464:.\Generated_Source\PSoC5/ETH.c **** {
 465:.\Generated_Source\PSoC5/ETH.c **** 	/* TBD */
 466:.\Generated_Source\PSoC5/ETH.c **** }
 467:.\Generated_Source\PSoC5/ETH.c **** /* ------------------------------------------------------------------------ */
 468:.\Generated_Source\PSoC5/ETH.c **** /**
 469:.\Generated_Source\PSoC5/ETH.c ****  * \brief Read data from the W5100 at the spsecified address
 470:.\Generated_Source\PSoC5/ETH.c ****  * \param addr Address from which to read
 471:.\Generated_Source\PSoC5/ETH.c ****  * \returns the data read from the address
 472:.\Generated_Source\PSoC5/ETH.c ****  *
 473:.\Generated_Source\PSoC5/ETH.c ****  * this fucntion will access a W5100 memory location and read the contents
 474:.\Generated_Source\PSoC5/ETH.c ****  * using the serial protocol specified on P.61 of the datasheet.
 475:.\Generated_Source\PSoC5/ETH.c ****  */
 476:.\Generated_Source\PSoC5/ETH.c **** void
 477:.\Generated_Source\PSoC5/ETH.c **** ETH_ChipRead(uint32 addr, uint8 *dat, uint16 length)
 478:.\Generated_Source\PSoC5/ETH.c **** {
 479:.\Generated_Source\PSoC5/ETH.c **** 	/* TBD */
 480:.\Generated_Source\PSoC5/ETH.c **** }
 481:.\Generated_Source\PSoC5/ETH.c **** 
 482:.\Generated_Source\PSoC5/ETH.c **** #endif
 483:.\Generated_Source\PSoC5/ETH.c **** 
 484:.\Generated_Source\PSoC5/ETH.c **** /* ======================================================================== */
 485:.\Generated_Source\PSoC5/ETH.c **** /* W5x00 Access Primitaves */
 486:.\Generated_Source\PSoC5/ETH.c **** #if (1)
 487:.\Generated_Source\PSoC5/ETH.c **** /* ------------------------------------------------------------------------ */
 488:.\Generated_Source\PSoC5/ETH.c **** /**
 489:.\Generated_Source\PSoC5/ETH.c ****  * \brief Write a 16-bit word to the device
 490:.\Generated_Source\PSoC5/ETH.c ****  * \param addr the starting address to which the data will be written
 491:.\Generated_Source\PSoC5/ETH.c ****  * \param val the 16-bit value to write
 492:.\Generated_Source\PSoC5/ETH.c ****  */
 493:.\Generated_Source\PSoC5/ETH.c **** void ETH_ChipWrite16( uint32 addr, uint16 val )
 494:.\Generated_Source\PSoC5/ETH.c **** {
 468              		.loc 1 494 0
 469              		.cfi_startproc
 470              		@ args = 0, pretend = 0, frame = 16
ARM GAS  C:\Users\CHUCK~1.ERH\AppData\Local\Temp\cclfQUCJ.s 			page 18


 471              		@ frame_needed = 1, uses_anonymous_args = 0
 472 0000 80B5     		push	{r7, lr}
 473              	.LCFI10:
 474              		.cfi_def_cfa_offset 8
 475              		.cfi_offset 7, -8
 476              		.cfi_offset 14, -4
 477 0002 84B0     		sub	sp, sp, #16
 478              	.LCFI11:
 479              		.cfi_def_cfa_offset 24
 480 0004 00AF     		add	r7, sp, #0
 481              	.LCFI12:
 482              		.cfi_def_cfa_register 7
 483 0006 7860     		str	r0, [r7, #4]
 484 0008 0B46     		mov	r3, r1
 485 000a 7B80     		strh	r3, [r7, #2]	@ movhi
 495:.\Generated_Source\PSoC5/ETH.c **** 	uint16 bigVal;
 496:.\Generated_Source\PSoC5/ETH.c **** 	
 497:.\Generated_Source\PSoC5/ETH.c **** #if !( CY_PSOC3 ) 
 498:.\Generated_Source\PSoC5/ETH.c **** 	bigVal = CYSWAP_ENDIAN16( val );
 486              		.loc 1 498 0
 487 000c 7B88     		ldrh	r3, [r7, #2]
 488 000e 4FEA0323 		lsl	r3, r3, #8
 489 0012 9AB2     		uxth	r2, r3
 490 0014 7B88     		ldrh	r3, [r7, #2]
 491 0016 4FEA1323 		lsr	r3, r3, #8
 492 001a 9BB2     		uxth	r3, r3
 493 001c 9BB2     		uxth	r3, r3
 494 001e 1343     		orrs	r3, r3, r2
 495 0020 9BB2     		uxth	r3, r3
 496 0022 9BB2     		uxth	r3, r3
 497 0024 FB81     		strh	r3, [r7, #14]	@ movhi
 499:.\Generated_Source\PSoC5/ETH.c **** #else
 500:.\Generated_Source\PSoC5/ETH.c **** 	bigValu = val;
 501:.\Generated_Source\PSoC5/ETH.c **** #endif
 502:.\Generated_Source\PSoC5/ETH.c **** 	ETH_ChipWrite( addr, (uint8*)&bigVal, 2 );
 498              		.loc 1 502 0
 499 0026 07F10E03 		add	r3, r7, #14
 500 002a 7868     		ldr	r0, [r7, #4]
 501 002c 1946     		mov	r1, r3
 502 002e 4FF00202 		mov	r2, #2
 503 0032 FFF7FEFF 		bl	ETH_ChipWrite
 503:.\Generated_Source\PSoC5/ETH.c **** }
 504              		.loc 1 503 0
 505 0036 07F11007 		add	r7, r7, #16
 506 003a BD46     		mov	sp, r7
 507 003c 80BD     		pop	{r7, pc}
 508              		.cfi_endproc
 509              	.LFE60:
 510              		.size	ETH_ChipWrite16, .-ETH_ChipWrite16
 511 003e 00BF     		.section	.text.ETH_ChipRead16,"ax",%progbits
 512              		.align	2
 513              		.global	ETH_ChipRead16
 514              		.thumb
 515              		.thumb_func
 516              		.type	ETH_ChipRead16, %function
 517              	ETH_ChipRead16:
 518              	.LFB61:
ARM GAS  C:\Users\CHUCK~1.ERH\AppData\Local\Temp\cclfQUCJ.s 			page 19


 504:.\Generated_Source\PSoC5/ETH.c **** /* ------------------------------------------------------------------------ */
 505:.\Generated_Source\PSoC5/ETH.c **** /**
 506:.\Generated_Source\PSoC5/ETH.c ****  * \brief Read a 16-bit value from the device
 507:.\Generated_Source\PSoC5/ETH.c ****  * \param addr The starting address from which data will be read
 508:.\Generated_Source\PSoC5/ETH.c ****  * \returns the 16-bit value read from the memory.
 509:.\Generated_Source\PSoC5/ETH.c ****  */
 510:.\Generated_Source\PSoC5/ETH.c **** uint16 ETH_ChipRead16( uint32 addr )
 511:.\Generated_Source\PSoC5/ETH.c **** {
 519              		.loc 1 511 0
 520              		.cfi_startproc
 521              		@ args = 0, pretend = 0, frame = 16
 522              		@ frame_needed = 1, uses_anonymous_args = 0
 523 0000 80B5     		push	{r7, lr}
 524              	.LCFI13:
 525              		.cfi_def_cfa_offset 8
 526              		.cfi_offset 7, -8
 527              		.cfi_offset 14, -4
 528 0002 84B0     		sub	sp, sp, #16
 529              	.LCFI14:
 530              		.cfi_def_cfa_offset 24
 531 0004 00AF     		add	r7, sp, #0
 532              	.LCFI15:
 533              		.cfi_def_cfa_register 7
 534 0006 7860     		str	r0, [r7, #4]
 512:.\Generated_Source\PSoC5/ETH.c **** 	uint16 val;
 513:.\Generated_Source\PSoC5/ETH.c **** 	
 514:.\Generated_Source\PSoC5/ETH.c **** 	ETH_ChipRead(addr, (uint8*)&val, 2);
 535              		.loc 1 514 0
 536 0008 07F10E03 		add	r3, r7, #14
 537 000c 7868     		ldr	r0, [r7, #4]
 538 000e 1946     		mov	r1, r3
 539 0010 4FF00202 		mov	r2, #2
 540 0014 FFF7FEFF 		bl	ETH_ChipRead
 515:.\Generated_Source\PSoC5/ETH.c **** #if !( CY_PSOC3 )
 516:.\Generated_Source\PSoC5/ETH.c **** 	val = CYSWAP_ENDIAN16( val );
 541              		.loc 1 516 0
 542 0018 FB89     		ldrh	r3, [r7, #14]
 543 001a 4FEA0323 		lsl	r3, r3, #8
 544 001e 9AB2     		uxth	r2, r3
 545 0020 FB89     		ldrh	r3, [r7, #14]
 546 0022 4FEA1323 		lsr	r3, r3, #8
 547 0026 9BB2     		uxth	r3, r3
 548 0028 9BB2     		uxth	r3, r3
 549 002a 1343     		orrs	r3, r3, r2
 550 002c 9BB2     		uxth	r3, r3
 551 002e 9BB2     		uxth	r3, r3
 552 0030 FB81     		strh	r3, [r7, #14]	@ movhi
 517:.\Generated_Source\PSoC5/ETH.c **** #endif
 518:.\Generated_Source\PSoC5/ETH.c **** 	
 519:.\Generated_Source\PSoC5/ETH.c **** 	return( val );
 553              		.loc 1 519 0
 554 0032 FB89     		ldrh	r3, [r7, #14]
 520:.\Generated_Source\PSoC5/ETH.c **** }
 555              		.loc 1 520 0
 556 0034 1846     		mov	r0, r3
 557 0036 07F11007 		add	r7, r7, #16
 558 003a BD46     		mov	sp, r7
ARM GAS  C:\Users\CHUCK~1.ERH\AppData\Local\Temp\cclfQUCJ.s 			page 20


 559 003c 80BD     		pop	{r7, pc}
 560              		.cfi_endproc
 561              	.LFE61:
 562              		.size	ETH_ChipRead16, .-ETH_ChipRead16
 563 003e 00BF     		.section	.text.ETH_SetSourceMAC,"ax",%progbits
 564              		.align	2
 565              		.global	ETH_SetSourceMAC
 566              		.thumb
 567              		.thumb_func
 568              		.type	ETH_SetSourceMAC, %function
 569              	ETH_SetSourceMAC:
 570              	.LFB62:
 521:.\Generated_Source\PSoC5/ETH.c **** /* ======================================================================== */
 522:.\Generated_Source\PSoC5/ETH.c **** /* END SECTION */
 523:.\Generated_Source\PSoC5/ETH.c **** #endif
 524:.\Generated_Source\PSoC5/ETH.c **** /* ======================================================================== */
 525:.\Generated_Source\PSoC5/ETH.c **** /* Chip Register access */
 526:.\Generated_Source\PSoC5/ETH.c **** #if (1)
 527:.\Generated_Source\PSoC5/ETH.c **** // Common Registers
 528:.\Generated_Source\PSoC5/ETH.c **** /* ------------------------------------------------------------------------ */
 529:.\Generated_Source\PSoC5/ETH.c **** /**
 530:.\Generated_Source\PSoC5/ETH.c ****  * \brief Set teh chip mac address to teh specified address
 531:.\Generated_Source\PSoC5/ETH.c ****  * \param *mac pointer to the array holding the MAC address
 532:.\Generated_Source\PSoC5/ETH.c ****  */
 533:.\Generated_Source\PSoC5/ETH.c **** void ETH_SetSourceMAC( uint8 *mac )
 534:.\Generated_Source\PSoC5/ETH.c **** {
 571              		.loc 1 534 0
 572              		.cfi_startproc
 573              		@ args = 0, pretend = 0, frame = 8
 574              		@ frame_needed = 1, uses_anonymous_args = 0
 575 0000 80B5     		push	{r7, lr}
 576              	.LCFI16:
 577              		.cfi_def_cfa_offset 8
 578              		.cfi_offset 7, -8
 579              		.cfi_offset 14, -4
 580 0002 82B0     		sub	sp, sp, #8
 581              	.LCFI17:
 582              		.cfi_def_cfa_offset 16
 583 0004 00AF     		add	r7, sp, #0
 584              	.LCFI18:
 585              		.cfi_def_cfa_register 7
 586 0006 7860     		str	r0, [r7, #4]
 535:.\Generated_Source\PSoC5/ETH.c **** 	ETH_ChipWrite(ETH_REG_SHAR, mac,6 );
 587              		.loc 1 535 0
 588 0008 4FF00900 		mov	r0, #9
 589 000c 7968     		ldr	r1, [r7, #4]
 590 000e 4FF00602 		mov	r2, #6
 591 0012 FFF7FEFF 		bl	ETH_ChipWrite
 536:.\Generated_Source\PSoC5/ETH.c **** }
 592              		.loc 1 536 0
 593 0016 07F10807 		add	r7, r7, #8
 594 001a BD46     		mov	sp, r7
 595 001c 80BD     		pop	{r7, pc}
 596              		.cfi_endproc
 597              	.LFE62:
 598              		.size	ETH_SetSourceMAC, .-ETH_SetSourceMAC
 599 001e 00BF     		.section	.text.ETH_GetSourceMAC,"ax",%progbits
ARM GAS  C:\Users\CHUCK~1.ERH\AppData\Local\Temp\cclfQUCJ.s 			page 21


 600              		.align	2
 601              		.global	ETH_GetSourceMAC
 602              		.thumb
 603              		.thumb_func
 604              		.type	ETH_GetSourceMAC, %function
 605              	ETH_GetSourceMAC:
 606              	.LFB63:
 537:.\Generated_Source\PSoC5/ETH.c **** /* ------------------------------------------------------------------------ */
 538:.\Generated_Source\PSoC5/ETH.c **** /**
 539:.\Generated_Source\PSoC5/ETH.c ****  * \brief Read the chip source MAC address from the MAC registers
 540:.\Generated_Source\PSoC5/ETH.c ****  * \param *mac pointer to the address of the buffer to hold the read MAC address
 541:.\Generated_Source\PSoC5/ETH.c ****  */
 542:.\Generated_Source\PSoC5/ETH.c **** void ETH_GetSourceMAC( uint8 *mac )
 543:.\Generated_Source\PSoC5/ETH.c **** {
 607              		.loc 1 543 0
 608              		.cfi_startproc
 609              		@ args = 0, pretend = 0, frame = 8
 610              		@ frame_needed = 1, uses_anonymous_args = 0
 611 0000 80B5     		push	{r7, lr}
 612              	.LCFI19:
 613              		.cfi_def_cfa_offset 8
 614              		.cfi_offset 7, -8
 615              		.cfi_offset 14, -4
 616 0002 82B0     		sub	sp, sp, #8
 617              	.LCFI20:
 618              		.cfi_def_cfa_offset 16
 619 0004 00AF     		add	r7, sp, #0
 620              	.LCFI21:
 621              		.cfi_def_cfa_register 7
 622 0006 7860     		str	r0, [r7, #4]
 544:.\Generated_Source\PSoC5/ETH.c **** 	ETH_ChipRead(ETH_REG_SHAR,mac,6);
 623              		.loc 1 544 0
 624 0008 4FF00900 		mov	r0, #9
 625 000c 7968     		ldr	r1, [r7, #4]
 626 000e 4FF00602 		mov	r2, #6
 627 0012 FFF7FEFF 		bl	ETH_ChipRead
 545:.\Generated_Source\PSoC5/ETH.c **** }
 628              		.loc 1 545 0
 629 0016 07F10807 		add	r7, r7, #8
 630 001a BD46     		mov	sp, r7
 631 001c 80BD     		pop	{r7, pc}
 632              		.cfi_endproc
 633              	.LFE63:
 634              		.size	ETH_GetSourceMAC, .-ETH_GetSourceMAC
 635 001e 00BF     		.section	.text.ETH_SetGatewayAddress,"ax",%progbits
 636              		.align	2
 637              		.global	ETH_SetGatewayAddress
 638              		.thumb
 639              		.thumb_func
 640              		.type	ETH_SetGatewayAddress, %function
 641              	ETH_SetGatewayAddress:
 642              	.LFB64:
 546:.\Generated_Source\PSoC5/ETH.c **** /* ------------------------------------------------------------------------ */
 547:.\Generated_Source\PSoC5/ETH.c **** /**
 548:.\Generated_Source\PSoC5/ETH.c ****  * \brief Set the IPv4 address of the network gateway
 549:.\Generated_Source\PSoC5/ETH.c ****  * \param ip IP address of the gateway
 550:.\Generated_Source\PSoC5/ETH.c ****  */
ARM GAS  C:\Users\CHUCK~1.ERH\AppData\Local\Temp\cclfQUCJ.s 			page 22


 551:.\Generated_Source\PSoC5/ETH.c **** void ETH_SetGatewayAddress(uint32 ip)
 552:.\Generated_Source\PSoC5/ETH.c **** {
 643              		.loc 1 552 0
 644              		.cfi_startproc
 645              		@ args = 0, pretend = 0, frame = 8
 646              		@ frame_needed = 1, uses_anonymous_args = 0
 647 0000 80B5     		push	{r7, lr}
 648              	.LCFI22:
 649              		.cfi_def_cfa_offset 8
 650              		.cfi_offset 7, -8
 651              		.cfi_offset 14, -4
 652 0002 82B0     		sub	sp, sp, #8
 653              	.LCFI23:
 654              		.cfi_def_cfa_offset 16
 655 0004 00AF     		add	r7, sp, #0
 656              	.LCFI24:
 657              		.cfi_def_cfa_register 7
 658 0006 7860     		str	r0, [r7, #4]
 553:.\Generated_Source\PSoC5/ETH.c **** 	ETH_ChipWrite(ETH_REG_GAR, (uint8*)&(ip),4);
 659              		.loc 1 553 0
 660 0008 07F10403 		add	r3, r7, #4
 661 000c 4FF00100 		mov	r0, #1
 662 0010 1946     		mov	r1, r3
 663 0012 4FF00402 		mov	r2, #4
 664 0016 FFF7FEFF 		bl	ETH_ChipWrite
 554:.\Generated_Source\PSoC5/ETH.c **** }
 665              		.loc 1 554 0
 666 001a 07F10807 		add	r7, r7, #8
 667 001e BD46     		mov	sp, r7
 668 0020 80BD     		pop	{r7, pc}
 669              		.cfi_endproc
 670              	.LFE64:
 671              		.size	ETH_SetGatewayAddress, .-ETH_SetGatewayAddress
 672 0022 00BF     		.section	.text.ETH_GetGatewayAddress,"ax",%progbits
 673              		.align	2
 674              		.global	ETH_GetGatewayAddress
 675              		.thumb
 676              		.thumb_func
 677              		.type	ETH_GetGatewayAddress, %function
 678              	ETH_GetGatewayAddress:
 679              	.LFB65:
 555:.\Generated_Source\PSoC5/ETH.c **** /* ------------------------------------------------------------------------ */
 556:.\Generated_Source\PSoC5/ETH.c **** /**
 557:.\Generated_Source\PSoC5/ETH.c ****  * \brief Read the gateway address from the device
 558:.\Generated_Source\PSoC5/ETH.c ****  * \returns the IP address of the gateway
 559:.\Generated_Source\PSoC5/ETH.c ****  */
 560:.\Generated_Source\PSoC5/ETH.c **** uint32 ETH_GetGatewayAddress( void )
 561:.\Generated_Source\PSoC5/ETH.c **** {
 680              		.loc 1 561 0
 681              		.cfi_startproc
 682              		@ args = 0, pretend = 0, frame = 8
 683              		@ frame_needed = 1, uses_anonymous_args = 0
 684 0000 80B5     		push	{r7, lr}
 685              	.LCFI25:
 686              		.cfi_def_cfa_offset 8
 687              		.cfi_offset 7, -8
 688              		.cfi_offset 14, -4
ARM GAS  C:\Users\CHUCK~1.ERH\AppData\Local\Temp\cclfQUCJ.s 			page 23


 689 0002 82B0     		sub	sp, sp, #8
 690              	.LCFI26:
 691              		.cfi_def_cfa_offset 16
 692 0004 00AF     		add	r7, sp, #0
 693              	.LCFI27:
 694              		.cfi_def_cfa_register 7
 562:.\Generated_Source\PSoC5/ETH.c **** 	uint32 ip = 0xFFFFFFFF;
 695              		.loc 1 562 0
 696 0006 4FF0FF33 		mov	r3, #-1
 697 000a 7B60     		str	r3, [r7, #4]
 563:.\Generated_Source\PSoC5/ETH.c **** 	
 564:.\Generated_Source\PSoC5/ETH.c **** 	ETH_ChipRead( ETH_REG_GAR, (uint8*)(ip), 4);
 698              		.loc 1 564 0
 699 000c 7B68     		ldr	r3, [r7, #4]
 700 000e 4FF00100 		mov	r0, #1
 701 0012 1946     		mov	r1, r3
 702 0014 4FF00402 		mov	r2, #4
 703 0018 FFF7FEFF 		bl	ETH_ChipRead
 565:.\Generated_Source\PSoC5/ETH.c **** 	
 566:.\Generated_Source\PSoC5/ETH.c **** 	return ip;
 704              		.loc 1 566 0
 705 001c 7B68     		ldr	r3, [r7, #4]
 567:.\Generated_Source\PSoC5/ETH.c **** }
 706              		.loc 1 567 0
 707 001e 1846     		mov	r0, r3
 708 0020 07F10807 		add	r7, r7, #8
 709 0024 BD46     		mov	sp, r7
 710 0026 80BD     		pop	{r7, pc}
 711              		.cfi_endproc
 712              	.LFE65:
 713              		.size	ETH_GetGatewayAddress, .-ETH_GetGatewayAddress
 714              		.section	.text.ETH_SetSubnetMask,"ax",%progbits
 715              		.align	2
 716              		.global	ETH_SetSubnetMask
 717              		.thumb
 718              		.thumb_func
 719              		.type	ETH_SetSubnetMask, %function
 720              	ETH_SetSubnetMask:
 721              	.LFB66:
 568:.\Generated_Source\PSoC5/ETH.c **** /* ------------------------------------------------------------------------ */
 569:.\Generated_Source\PSoC5/ETH.c **** /**
 570:.\Generated_Source\PSoC5/ETH.c ****  * \brief set the subnet mask of the ethernet device
 571:.\Generated_Source\PSoC5/ETH.c ****  * \param the subnet mask (IPv4)
 572:.\Generated_Source\PSoC5/ETH.c ****  */
 573:.\Generated_Source\PSoC5/ETH.c **** void ETH_SetSubnetMask( uint32 ip )
 574:.\Generated_Source\PSoC5/ETH.c **** {
 722              		.loc 1 574 0
 723              		.cfi_startproc
 724              		@ args = 0, pretend = 0, frame = 8
 725              		@ frame_needed = 1, uses_anonymous_args = 0
 726 0000 80B5     		push	{r7, lr}
 727              	.LCFI28:
 728              		.cfi_def_cfa_offset 8
 729              		.cfi_offset 7, -8
 730              		.cfi_offset 14, -4
 731 0002 82B0     		sub	sp, sp, #8
 732              	.LCFI29:
ARM GAS  C:\Users\CHUCK~1.ERH\AppData\Local\Temp\cclfQUCJ.s 			page 24


 733              		.cfi_def_cfa_offset 16
 734 0004 00AF     		add	r7, sp, #0
 735              	.LCFI30:
 736              		.cfi_def_cfa_register 7
 737 0006 7860     		str	r0, [r7, #4]
 575:.\Generated_Source\PSoC5/ETH.c **** 	ETH_ChipWrite(ETH_REG_SUBR, (uint8*)&(ip), 4);
 738              		.loc 1 575 0
 739 0008 07F10403 		add	r3, r7, #4
 740 000c 4FF00500 		mov	r0, #5
 741 0010 1946     		mov	r1, r3
 742 0012 4FF00402 		mov	r2, #4
 743 0016 FFF7FEFF 		bl	ETH_ChipWrite
 576:.\Generated_Source\PSoC5/ETH.c **** }
 744              		.loc 1 576 0
 745 001a 07F10807 		add	r7, r7, #8
 746 001e BD46     		mov	sp, r7
 747 0020 80BD     		pop	{r7, pc}
 748              		.cfi_endproc
 749              	.LFE66:
 750              		.size	ETH_SetSubnetMask, .-ETH_SetSubnetMask
 751 0022 00BF     		.section	.text.ETH_GetSubnetMask,"ax",%progbits
 752              		.align	2
 753              		.global	ETH_GetSubnetMask
 754              		.thumb
 755              		.thumb_func
 756              		.type	ETH_GetSubnetMask, %function
 757              	ETH_GetSubnetMask:
 758              	.LFB67:
 577:.\Generated_Source\PSoC5/ETH.c **** /* ------------------------------------------------------------------------ */
 578:.\Generated_Source\PSoC5/ETH.c **** /**
 579:.\Generated_Source\PSoC5/ETH.c ****  * \brief Read the subnet mask from the device
 580:.\Generated_Source\PSoC5/ETH.c ****  * \returns the subnet mask that was read from the device.
 581:.\Generated_Source\PSoC5/ETH.c ****  */
 582:.\Generated_Source\PSoC5/ETH.c **** uint32 ETH_GetSubnetMask( void )
 583:.\Generated_Source\PSoC5/ETH.c **** {
 759              		.loc 1 583 0
 760              		.cfi_startproc
 761              		@ args = 0, pretend = 0, frame = 8
 762              		@ frame_needed = 1, uses_anonymous_args = 0
 763 0000 80B5     		push	{r7, lr}
 764              	.LCFI31:
 765              		.cfi_def_cfa_offset 8
 766              		.cfi_offset 7, -8
 767              		.cfi_offset 14, -4
 768 0002 82B0     		sub	sp, sp, #8
 769              	.LCFI32:
 770              		.cfi_def_cfa_offset 16
 771 0004 00AF     		add	r7, sp, #0
 772              	.LCFI33:
 773              		.cfi_def_cfa_register 7
 584:.\Generated_Source\PSoC5/ETH.c **** 	uint32 ip = 0xFFFFFFFF;
 774              		.loc 1 584 0
 775 0006 4FF0FF33 		mov	r3, #-1
 776 000a 7B60     		str	r3, [r7, #4]
 585:.\Generated_Source\PSoC5/ETH.c **** 	ETH_ChipRead(ETH_REG_SUBR, (uint8*)(ip), 4);
 777              		.loc 1 585 0
 778 000c 7B68     		ldr	r3, [r7, #4]
ARM GAS  C:\Users\CHUCK~1.ERH\AppData\Local\Temp\cclfQUCJ.s 			page 25


 779 000e 4FF00500 		mov	r0, #5
 780 0012 1946     		mov	r1, r3
 781 0014 4FF00402 		mov	r2, #4
 782 0018 FFF7FEFF 		bl	ETH_ChipRead
 586:.\Generated_Source\PSoC5/ETH.c **** 	return ip;
 783              		.loc 1 586 0
 784 001c 7B68     		ldr	r3, [r7, #4]
 587:.\Generated_Source\PSoC5/ETH.c **** }
 785              		.loc 1 587 0
 786 001e 1846     		mov	r0, r3
 787 0020 07F10807 		add	r7, r7, #8
 788 0024 BD46     		mov	sp, r7
 789 0026 80BD     		pop	{r7, pc}
 790              		.cfi_endproc
 791              	.LFE67:
 792              		.size	ETH_GetSubnetMask, .-ETH_GetSubnetMask
 793              		.section	.text.ETH_SetSourceIP,"ax",%progbits
 794              		.align	2
 795              		.global	ETH_SetSourceIP
 796              		.thumb
 797              		.thumb_func
 798              		.type	ETH_SetSourceIP, %function
 799              	ETH_SetSourceIP:
 800              	.LFB68:
 588:.\Generated_Source\PSoC5/ETH.c **** /* ------------------------------------------------------------------------ */
 589:.\Generated_Source\PSoC5/ETH.c **** /**
 590:.\Generated_Source\PSoC5/ETH.c ****  * \brief Write the device source IPv4 address
 591:.\Generated_Source\PSoC5/ETH.c ****  * \param ip the ip address to set as the chip IP address
 592:.\Generated_Source\PSoC5/ETH.c ****  */
 593:.\Generated_Source\PSoC5/ETH.c **** void ETH_SetSourceIP(uint32 ip )
 594:.\Generated_Source\PSoC5/ETH.c **** {
 801              		.loc 1 594 0
 802              		.cfi_startproc
 803              		@ args = 0, pretend = 0, frame = 8
 804              		@ frame_needed = 1, uses_anonymous_args = 0
 805 0000 80B5     		push	{r7, lr}
 806              	.LCFI34:
 807              		.cfi_def_cfa_offset 8
 808              		.cfi_offset 7, -8
 809              		.cfi_offset 14, -4
 810 0002 82B0     		sub	sp, sp, #8
 811              	.LCFI35:
 812              		.cfi_def_cfa_offset 16
 813 0004 00AF     		add	r7, sp, #0
 814              	.LCFI36:
 815              		.cfi_def_cfa_register 7
 816 0006 7860     		str	r0, [r7, #4]
 595:.\Generated_Source\PSoC5/ETH.c **** 	ETH_ChipWrite( ETH_REG_SIPR, (uint8*)&(ip), 4 );
 817              		.loc 1 595 0
 818 0008 07F10403 		add	r3, r7, #4
 819 000c 4FF00F00 		mov	r0, #15
 820 0010 1946     		mov	r1, r3
 821 0012 4FF00402 		mov	r2, #4
 822 0016 FFF7FEFF 		bl	ETH_ChipWrite
 596:.\Generated_Source\PSoC5/ETH.c **** }
 823              		.loc 1 596 0
 824 001a 07F10807 		add	r7, r7, #8
ARM GAS  C:\Users\CHUCK~1.ERH\AppData\Local\Temp\cclfQUCJ.s 			page 26


 825 001e BD46     		mov	sp, r7
 826 0020 80BD     		pop	{r7, pc}
 827              		.cfi_endproc
 828              	.LFE68:
 829              		.size	ETH_SetSourceIP, .-ETH_SetSourceIP
 830 0022 00BF     		.section	.text.ETH_GetSourceIP,"ax",%progbits
 831              		.align	2
 832              		.global	ETH_GetSourceIP
 833              		.thumb
 834              		.thumb_func
 835              		.type	ETH_GetSourceIP, %function
 836              	ETH_GetSourceIP:
 837              	.LFB69:
 597:.\Generated_Source\PSoC5/ETH.c **** /* ------------------------------------------------------------------------ */
 598:.\Generated_Source\PSoC5/ETH.c **** /**
 599:.\Generated_Source\PSoC5/ETH.c ****  * \brief Read the device's programmed IP address
 600:.\Generated_Source\PSoC5/ETH.c ****  * \returns The IPv4 address to which the device is set.
 601:.\Generated_Source\PSoC5/ETH.c ****  */
 602:.\Generated_Source\PSoC5/ETH.c **** uint32 ETH_GetSourceIP( void )
 603:.\Generated_Source\PSoC5/ETH.c **** {
 838              		.loc 1 603 0
 839              		.cfi_startproc
 840              		@ args = 0, pretend = 0, frame = 8
 841              		@ frame_needed = 1, uses_anonymous_args = 0
 842 0000 80B5     		push	{r7, lr}
 843              	.LCFI37:
 844              		.cfi_def_cfa_offset 8
 845              		.cfi_offset 7, -8
 846              		.cfi_offset 14, -4
 847 0002 82B0     		sub	sp, sp, #8
 848              	.LCFI38:
 849              		.cfi_def_cfa_offset 16
 850 0004 00AF     		add	r7, sp, #0
 851              	.LCFI39:
 852              		.cfi_def_cfa_register 7
 604:.\Generated_Source\PSoC5/ETH.c **** 	uint32 ip = 0xFFFFFFFF;
 853              		.loc 1 604 0
 854 0006 4FF0FF33 		mov	r3, #-1
 855 000a 7B60     		str	r3, [r7, #4]
 605:.\Generated_Source\PSoC5/ETH.c **** 	ETH_ChipRead( ETH_REG_SIPR, (uint8*)(ip), 4 );
 856              		.loc 1 605 0
 857 000c 7B68     		ldr	r3, [r7, #4]
 858 000e 4FF00F00 		mov	r0, #15
 859 0012 1946     		mov	r1, r3
 860 0014 4FF00402 		mov	r2, #4
 861 0018 FFF7FEFF 		bl	ETH_ChipRead
 606:.\Generated_Source\PSoC5/ETH.c **** 	return ip;
 862              		.loc 1 606 0
 863 001c 7B68     		ldr	r3, [r7, #4]
 607:.\Generated_Source\PSoC5/ETH.c **** }
 864              		.loc 1 607 0
 865 001e 1846     		mov	r0, r3
 866 0020 07F10807 		add	r7, r7, #8
 867 0024 BD46     		mov	sp, r7
 868 0026 80BD     		pop	{r7, pc}
 869              		.cfi_endproc
 870              	.LFE69:
ARM GAS  C:\Users\CHUCK~1.ERH\AppData\Local\Temp\cclfQUCJ.s 			page 27


 871              		.size	ETH_GetSourceIP, .-ETH_GetSourceIP
 872              		.section	.text.ETH_SetMode,"ax",%progbits
 873              		.align	2
 874              		.global	ETH_SetMode
 875              		.thumb
 876              		.thumb_func
 877              		.type	ETH_SetMode, %function
 878              	ETH_SetMode:
 879              	.LFB70:
 608:.\Generated_Source\PSoC5/ETH.c **** /* ------------------------------------------------------------------------ */
 609:.\Generated_Source\PSoC5/ETH.c **** /**
 610:.\Generated_Source\PSoC5/ETH.c ****  * \brief Write a value to the device internal MODE register
 611:.\Generated_Source\PSoC5/ETH.c ****  * \param mode the value to be written to the mode register.
 612:.\Generated_Source\PSoC5/ETH.c ****  */
 613:.\Generated_Source\PSoC5/ETH.c **** void ETH_SetMode( uint8 mode )
 614:.\Generated_Source\PSoC5/ETH.c **** {
 880              		.loc 1 614 0
 881              		.cfi_startproc
 882              		@ args = 0, pretend = 0, frame = 8
 883              		@ frame_needed = 1, uses_anonymous_args = 0
 884 0000 80B5     		push	{r7, lr}
 885              	.LCFI40:
 886              		.cfi_def_cfa_offset 8
 887              		.cfi_offset 7, -8
 888              		.cfi_offset 14, -4
 889 0002 82B0     		sub	sp, sp, #8
 890              	.LCFI41:
 891              		.cfi_def_cfa_offset 16
 892 0004 00AF     		add	r7, sp, #0
 893              	.LCFI42:
 894              		.cfi_def_cfa_register 7
 895 0006 0346     		mov	r3, r0
 896 0008 FB71     		strb	r3, [r7, #7]
 615:.\Generated_Source\PSoC5/ETH.c **** 	ETH_ChipWrite(ETH_REG_MODE, (uint8*)&(mode), 1);
 897              		.loc 1 615 0
 898 000a 07F10703 		add	r3, r7, #7
 899 000e 4FF00000 		mov	r0, #0
 900 0012 1946     		mov	r1, r3
 901 0014 4FF00102 		mov	r2, #1
 902 0018 FFF7FEFF 		bl	ETH_ChipWrite
 616:.\Generated_Source\PSoC5/ETH.c **** }
 903              		.loc 1 616 0
 904 001c 07F10807 		add	r7, r7, #8
 905 0020 BD46     		mov	sp, r7
 906 0022 80BD     		pop	{r7, pc}
 907              		.cfi_endproc
 908              	.LFE70:
 909              		.size	ETH_SetMode, .-ETH_SetMode
 910              		.section	.text.ETH_GetMode,"ax",%progbits
 911              		.align	2
 912              		.global	ETH_GetMode
 913              		.thumb
 914              		.thumb_func
 915              		.type	ETH_GetMode, %function
 916              	ETH_GetMode:
 917              	.LFB71:
 617:.\Generated_Source\PSoC5/ETH.c **** /* ------------------------------------------------------------------------ */
ARM GAS  C:\Users\CHUCK~1.ERH\AppData\Local\Temp\cclfQUCJ.s 			page 28


 618:.\Generated_Source\PSoC5/ETH.c **** /**
 619:.\Generated_Source\PSoC5/ETH.c ****  * \brief Read the present contents of the device internal mode register
 620:.\Generated_Source\PSoC5/ETH.c ****  * \returns the value of the mode register
 621:.\Generated_Source\PSoC5/ETH.c ****  */
 622:.\Generated_Source\PSoC5/ETH.c **** uint8 ETH_GetMode( void )
 623:.\Generated_Source\PSoC5/ETH.c **** {
 918              		.loc 1 623 0
 919              		.cfi_startproc
 920              		@ args = 0, pretend = 0, frame = 8
 921              		@ frame_needed = 1, uses_anonymous_args = 0
 922 0000 80B5     		push	{r7, lr}
 923              	.LCFI43:
 924              		.cfi_def_cfa_offset 8
 925              		.cfi_offset 7, -8
 926              		.cfi_offset 14, -4
 927 0002 82B0     		sub	sp, sp, #8
 928              	.LCFI44:
 929              		.cfi_def_cfa_offset 16
 930 0004 00AF     		add	r7, sp, #0
 931              	.LCFI45:
 932              		.cfi_def_cfa_register 7
 624:.\Generated_Source\PSoC5/ETH.c **** 	uint8 mode;
 625:.\Generated_Source\PSoC5/ETH.c **** 	ETH_ChipRead(ETH_REG_MODE, (uint8*)&(mode),1);
 933              		.loc 1 625 0
 934 0006 07F10703 		add	r3, r7, #7
 935 000a 4FF00000 		mov	r0, #0
 936 000e 1946     		mov	r1, r3
 937 0010 4FF00102 		mov	r2, #1
 938 0014 FFF7FEFF 		bl	ETH_ChipRead
 626:.\Generated_Source\PSoC5/ETH.c **** 	return mode;
 939              		.loc 1 626 0
 940 0018 FB79     		ldrb	r3, [r7, #7]	@ zero_extendqisi2
 627:.\Generated_Source\PSoC5/ETH.c **** }
 941              		.loc 1 627 0
 942 001a 1846     		mov	r0, r3
 943 001c 07F10807 		add	r7, r7, #8
 944 0020 BD46     		mov	sp, r7
 945 0022 80BD     		pop	{r7, pc}
 946              		.cfi_endproc
 947              	.LFE71:
 948              		.size	ETH_GetMode, .-ETH_GetMode
 949              		.section	.text.ETH_SetIR,"ax",%progbits
 950              		.align	2
 951              		.global	ETH_SetIR
 952              		.thumb
 953              		.thumb_func
 954              		.type	ETH_SetIR, %function
 955              	ETH_SetIR:
 956              	.LFB72:
 628:.\Generated_Source\PSoC5/ETH.c **** /* ------------------------------------------------------------------------ */
 629:.\Generated_Source\PSoC5/ETH.c **** /**
 630:.\Generated_Source\PSoC5/ETH.c ****  * \brief Write the value of the interrupt register
 631:.\Generated_Source\PSoC5/ETH.c ****  * \param ir the value to be written to the interrupt register
 632:.\Generated_Source\PSoC5/ETH.c ****  */
 633:.\Generated_Source\PSoC5/ETH.c **** void ETH_SetIR(uint8 ir )
 634:.\Generated_Source\PSoC5/ETH.c **** {
 957              		.loc 1 634 0
ARM GAS  C:\Users\CHUCK~1.ERH\AppData\Local\Temp\cclfQUCJ.s 			page 29


 958              		.cfi_startproc
 959              		@ args = 0, pretend = 0, frame = 8
 960              		@ frame_needed = 1, uses_anonymous_args = 0
 961 0000 80B5     		push	{r7, lr}
 962              	.LCFI46:
 963              		.cfi_def_cfa_offset 8
 964              		.cfi_offset 7, -8
 965              		.cfi_offset 14, -4
 966 0002 82B0     		sub	sp, sp, #8
 967              	.LCFI47:
 968              		.cfi_def_cfa_offset 16
 969 0004 00AF     		add	r7, sp, #0
 970              	.LCFI48:
 971              		.cfi_def_cfa_register 7
 972 0006 0346     		mov	r3, r0
 973 0008 FB71     		strb	r3, [r7, #7]
 635:.\Generated_Source\PSoC5/ETH.c **** 	ETH_ChipWrite(ETH_REG_IR,(uint8*)&(ir), 1);
 974              		.loc 1 635 0
 975 000a 07F10703 		add	r3, r7, #7
 976 000e 4FF01500 		mov	r0, #21
 977 0012 1946     		mov	r1, r3
 978 0014 4FF00102 		mov	r2, #1
 979 0018 FFF7FEFF 		bl	ETH_ChipWrite
 636:.\Generated_Source\PSoC5/ETH.c **** }
 980              		.loc 1 636 0
 981 001c 07F10807 		add	r7, r7, #8
 982 0020 BD46     		mov	sp, r7
 983 0022 80BD     		pop	{r7, pc}
 984              		.cfi_endproc
 985              	.LFE72:
 986              		.size	ETH_SetIR, .-ETH_SetIR
 987              		.section	.text.ETH_SetSocketRxMemSize,"ax",%progbits
 988              		.align	2
 989              		.global	ETH_SetSocketRxMemSize
 990              		.thumb
 991              		.thumb_func
 992              		.type	ETH_SetSocketRxMemSize, %function
 993              	ETH_SetSocketRxMemSize:
 994              	.LFB73:
 637:.\Generated_Source\PSoC5/ETH.c **** /* ------------------------------------------------------------------------ */
 638:.\Generated_Source\PSoC5/ETH.c **** /**
 639:.\Generated_Source\PSoC5/ETH.c ****  * \brief write a value to the Rx mem size register
 640:.\Generated_Source\PSoC5/ETH.c ****  * \param size the value to be written to the register
 641:.\Generated_Source\PSoC5/ETH.c ****  */
 642:.\Generated_Source\PSoC5/ETH.c **** void ETH_SetSocketRxMemSize( uint8 socket, uint8 size ) 
 643:.\Generated_Source\PSoC5/ETH.c **** {
 995              		.loc 1 643 0
 996              		.cfi_startproc
 997              		@ args = 0, pretend = 0, frame = 8
 998              		@ frame_needed = 1, uses_anonymous_args = 0
 999 0000 80B5     		push	{r7, lr}
 1000              	.LCFI49:
 1001              		.cfi_def_cfa_offset 8
 1002              		.cfi_offset 7, -8
 1003              		.cfi_offset 14, -4
 1004 0002 82B0     		sub	sp, sp, #8
 1005              	.LCFI50:
ARM GAS  C:\Users\CHUCK~1.ERH\AppData\Local\Temp\cclfQUCJ.s 			page 30


 1006              		.cfi_def_cfa_offset 16
 1007 0004 00AF     		add	r7, sp, #0
 1008              	.LCFI51:
 1009              		.cfi_def_cfa_register 7
 1010 0006 0246     		mov	r2, r0
 1011 0008 0B46     		mov	r3, r1
 1012 000a FA71     		strb	r2, [r7, #7]
 1013 000c BB71     		strb	r3, [r7, #6]
 644:.\Generated_Source\PSoC5/ETH.c **** 	
 645:.\Generated_Source\PSoC5/ETH.c **** #if (5 == 1)
 646:.\Generated_Source\PSoC5/ETH.c **** 	uint8 sz;
 647:.\Generated_Source\PSoC5/ETH.c **** 	/*
 648:.\Generated_Source\PSoC5/ETH.c **** 	 * The W5100 uses memory allocations within one register for all sockets.
 649:.\Generated_Source\PSoC5/ETH.c **** 	 * the options are set by a 2 bit code for 1, 2, 4, or 8 K
 650:.\Generated_Source\PSoC5/ETH.c **** 	 */
 651:.\Generated_Source\PSoC5/ETH.c **** 		ETH_ChipRead( ETH_REG_RMSR, &sz, 1);
 652:.\Generated_Source\PSoC5/ETH.c **** 		sz = sz & (~(3<<(socket<<1)));
 653:.\Generated_Source\PSoC5/ETH.c **** 		sz = sz | (size<<(socket<<1));
 654:.\Generated_Source\PSoC5/ETH.c **** 		ETH_ChipWrite( ETH_REG_RMSR, &sz, 1);
 655:.\Generated_Source\PSoC5/ETH.c **** #elif ((5 == 2) || (5 == 5))
 656:.\Generated_Source\PSoC5/ETH.c **** 	/*
 657:.\Generated_Source\PSoC5/ETH.c **** 	 * The W5200/W5500 interface uses memory size registers located within the socket
 658:.\Generated_Source\PSoC5/ETH.c **** 	 * register memory maps.
 659:.\Generated_Source\PSoC5/ETH.c **** 	 */
 660:.\Generated_Source\PSoC5/ETH.c **** 	ETH_ChipWrite( ETH_SOCKET_REG(socket,ETH_SOCK_RXMEM), &size, 1);
 1014              		.loc 1 660 0
 1015 000e FA79     		ldrb	r2, [r7, #7]	@ zero_extendqisi2
 1016 0010 40F20003 		movw	r3, #:lower16:ETH_W5500_BSB
 1017 0014 C0F20003 		movt	r3, #:upper16:ETH_W5500_BSB
 1018 0018 53F82230 		ldr	r3, [r3, r2, lsl #2]
 1019 001c 03F11E02 		add	r2, r3, #30
 1020 0020 07F10603 		add	r3, r7, #6
 1021 0024 1046     		mov	r0, r2
 1022 0026 1946     		mov	r1, r3
 1023 0028 4FF00102 		mov	r2, #1
 1024 002c FFF7FEFF 		bl	ETH_ChipWrite
 661:.\Generated_Source\PSoC5/ETH.c **** #endif
 662:.\Generated_Source\PSoC5/ETH.c **** }
 1025              		.loc 1 662 0
 1026 0030 07F10807 		add	r7, r7, #8
 1027 0034 BD46     		mov	sp, r7
 1028 0036 80BD     		pop	{r7, pc}
 1029              		.cfi_endproc
 1030              	.LFE73:
 1031              		.size	ETH_SetSocketRxMemSize, .-ETH_SetSocketRxMemSize
 1032              		.section	.text.ETH_GetSocketRxMemSize,"ax",%progbits
 1033              		.align	2
 1034              		.global	ETH_GetSocketRxMemSize
 1035              		.thumb
 1036              		.thumb_func
 1037              		.type	ETH_GetSocketRxMemSize, %function
 1038              	ETH_GetSocketRxMemSize:
 1039              	.LFB74:
 663:.\Generated_Source\PSoC5/ETH.c **** 
 664:.\Generated_Source\PSoC5/ETH.c **** /* ------------------------------------------------------------------------ */
 665:.\Generated_Source\PSoC5/ETH.c **** /**
 666:.\Generated_Source\PSoC5/ETH.c ****  * \brief Read the contents of hte rx mem size register
ARM GAS  C:\Users\CHUCK~1.ERH\AppData\Local\Temp\cclfQUCJ.s 			page 31


 667:.\Generated_Source\PSoC5/ETH.c ****  * \returns the value read from teh register
 668:.\Generated_Source\PSoC5/ETH.c ****  */
 669:.\Generated_Source\PSoC5/ETH.c **** uint8 ETH_GetSocketRxMemSize( uint8 socket )
 670:.\Generated_Source\PSoC5/ETH.c **** {
 1040              		.loc 1 670 0
 1041              		.cfi_startproc
 1042              		@ args = 0, pretend = 0, frame = 16
 1043              		@ frame_needed = 1, uses_anonymous_args = 0
 1044 0000 80B5     		push	{r7, lr}
 1045              	.LCFI52:
 1046              		.cfi_def_cfa_offset 8
 1047              		.cfi_offset 7, -8
 1048              		.cfi_offset 14, -4
 1049 0002 84B0     		sub	sp, sp, #16
 1050              	.LCFI53:
 1051              		.cfi_def_cfa_offset 24
 1052 0004 00AF     		add	r7, sp, #0
 1053              	.LCFI54:
 1054              		.cfi_def_cfa_register 7
 1055 0006 0346     		mov	r3, r0
 1056 0008 FB71     		strb	r3, [r7, #7]
 671:.\Generated_Source\PSoC5/ETH.c **** 	uint8 sz;
 672:.\Generated_Source\PSoC5/ETH.c **** 	
 673:.\Generated_Source\PSoC5/ETH.c **** 	sz = 0xFF;
 1057              		.loc 1 673 0
 1058 000a 4FF0FF03 		mov	r3, #255
 1059 000e FB73     		strb	r3, [r7, #15]
 674:.\Generated_Source\PSoC5/ETH.c **** #if (5 == 1)
 675:.\Generated_Source\PSoC5/ETH.c **** 	ETH_ChipRead(ETH_REG_RMSR, &sz, 1);
 676:.\Generated_Source\PSoC5/ETH.c **** 	sz = (sz >> (socket<<1)) & 0x03;
 677:.\Generated_Source\PSoC5/ETH.c **** #elif ((5 == 2)||(5 == 5))
 678:.\Generated_Source\PSoC5/ETH.c **** 	ETH_ChipRead( ETH_SOCKET_REG(socket,ETH_SOCK_RXMEM), &sz, 1);
 1060              		.loc 1 678 0
 1061 0010 FA79     		ldrb	r2, [r7, #7]	@ zero_extendqisi2
 1062 0012 40F20003 		movw	r3, #:lower16:ETH_W5500_BSB
 1063 0016 C0F20003 		movt	r3, #:upper16:ETH_W5500_BSB
 1064 001a 53F82230 		ldr	r3, [r3, r2, lsl #2]
 1065 001e 03F11E02 		add	r2, r3, #30
 1066 0022 07F10F03 		add	r3, r7, #15
 1067 0026 1046     		mov	r0, r2
 1068 0028 1946     		mov	r1, r3
 1069 002a 4FF00102 		mov	r2, #1
 1070 002e FFF7FEFF 		bl	ETH_ChipRead
 679:.\Generated_Source\PSoC5/ETH.c **** #endif
 680:.\Generated_Source\PSoC5/ETH.c **** 	return sz;
 1071              		.loc 1 680 0
 1072 0032 FB7B     		ldrb	r3, [r7, #15]	@ zero_extendqisi2
 681:.\Generated_Source\PSoC5/ETH.c **** }
 1073              		.loc 1 681 0
 1074 0034 1846     		mov	r0, r3
 1075 0036 07F11007 		add	r7, r7, #16
 1076 003a BD46     		mov	sp, r7
 1077 003c 80BD     		pop	{r7, pc}
 1078              		.cfi_endproc
 1079              	.LFE74:
 1080              		.size	ETH_GetSocketRxMemSize, .-ETH_GetSocketRxMemSize
 1081              		.section	.text.ETH_SetSocketTxMemSize,"ax",%progbits
ARM GAS  C:\Users\CHUCK~1.ERH\AppData\Local\Temp\cclfQUCJ.s 			page 32


 1082              		.align	2
 1083              		.global	ETH_SetSocketTxMemSize
 1084              		.thumb
 1085              		.thumb_func
 1086              		.type	ETH_SetSocketTxMemSize, %function
 1087              	ETH_SetSocketTxMemSize:
 1088              	.LFB75:
 682:.\Generated_Source\PSoC5/ETH.c **** /* ------------------------------------------------------------------------ */
 683:.\Generated_Source\PSoC5/ETH.c **** /**
 684:.\Generated_Source\PSoC5/ETH.c ****  * \brief write a value to the tx mem size register
 685:.\Generated_Source\PSoC5/ETH.c ****  * \param size The value to be written to the register
 686:.\Generated_Source\PSoC5/ETH.c ****  */
 687:.\Generated_Source\PSoC5/ETH.c **** void ETH_SetSocketTxMemSize( uint8 socket, uint8 size )
 688:.\Generated_Source\PSoC5/ETH.c **** {
 1089              		.loc 1 688 0
 1090              		.cfi_startproc
 1091              		@ args = 0, pretend = 0, frame = 8
 1092              		@ frame_needed = 1, uses_anonymous_args = 0
 1093 0000 80B5     		push	{r7, lr}
 1094              	.LCFI55:
 1095              		.cfi_def_cfa_offset 8
 1096              		.cfi_offset 7, -8
 1097              		.cfi_offset 14, -4
 1098 0002 82B0     		sub	sp, sp, #8
 1099              	.LCFI56:
 1100              		.cfi_def_cfa_offset 16
 1101 0004 00AF     		add	r7, sp, #0
 1102              	.LCFI57:
 1103              		.cfi_def_cfa_register 7
 1104 0006 0246     		mov	r2, r0
 1105 0008 0B46     		mov	r3, r1
 1106 000a FA71     		strb	r2, [r7, #7]
 1107 000c BB71     		strb	r3, [r7, #6]
 689:.\Generated_Source\PSoC5/ETH.c **** 	
 690:.\Generated_Source\PSoC5/ETH.c **** #if (5 == 1)
 691:.\Generated_Source\PSoC5/ETH.c **** 	uint8 sz;
 692:.\Generated_Source\PSoC5/ETH.c **** 	/*
 693:.\Generated_Source\PSoC5/ETH.c **** 	 * The W5100 uses memory allocations within one register for all sockets.
 694:.\Generated_Source\PSoC5/ETH.c **** 	 * the options are set by a 2 bit code for 1, 2, 4, or 8 K
 695:.\Generated_Source\PSoC5/ETH.c **** 	 */
 696:.\Generated_Source\PSoC5/ETH.c **** 		ETH_ChipRead( ETH_REG_TXSR, &sz, 1);
 697:.\Generated_Source\PSoC5/ETH.c **** 		sz = sz & (~(3<<(socket<<1)));
 698:.\Generated_Source\PSoC5/ETH.c **** 		sz = sz | (size<<(socket<<1));
 699:.\Generated_Source\PSoC5/ETH.c **** 		ETH_ChipWrite( ETH_REG_TXSR, &sz, 1);
 700:.\Generated_Source\PSoC5/ETH.c **** #elif ((5 == 2)||(5 == 5))
 701:.\Generated_Source\PSoC5/ETH.c **** 	/*
 702:.\Generated_Source\PSoC5/ETH.c **** 	 * The W5200/W5500 interface uses memory size registers located within the socket
 703:.\Generated_Source\PSoC5/ETH.c **** 	 * register memory maps.
 704:.\Generated_Source\PSoC5/ETH.c **** 	 */
 705:.\Generated_Source\PSoC5/ETH.c **** 	ETH_ChipWrite( ETH_SOCKET_REG(socket,ETH_SOCK_TXMEM), &size, 1);
 1108              		.loc 1 705 0
 1109 000e FA79     		ldrb	r2, [r7, #7]	@ zero_extendqisi2
 1110 0010 40F20003 		movw	r3, #:lower16:ETH_W5500_BSB
 1111 0014 C0F20003 		movt	r3, #:upper16:ETH_W5500_BSB
 1112 0018 53F82230 		ldr	r3, [r3, r2, lsl #2]
 1113 001c 03F11F02 		add	r2, r3, #31
 1114 0020 07F10603 		add	r3, r7, #6
ARM GAS  C:\Users\CHUCK~1.ERH\AppData\Local\Temp\cclfQUCJ.s 			page 33


 1115 0024 1046     		mov	r0, r2
 1116 0026 1946     		mov	r1, r3
 1117 0028 4FF00102 		mov	r2, #1
 1118 002c FFF7FEFF 		bl	ETH_ChipWrite
 706:.\Generated_Source\PSoC5/ETH.c **** #endif
 707:.\Generated_Source\PSoC5/ETH.c **** }
 1119              		.loc 1 707 0
 1120 0030 07F10807 		add	r7, r7, #8
 1121 0034 BD46     		mov	sp, r7
 1122 0036 80BD     		pop	{r7, pc}
 1123              		.cfi_endproc
 1124              	.LFE75:
 1125              		.size	ETH_SetSocketTxMemSize, .-ETH_SetSocketTxMemSize
 1126              		.section	.text.ETH_GetSocketTxMemSize,"ax",%progbits
 1127              		.align	2
 1128              		.global	ETH_GetSocketTxMemSize
 1129              		.thumb
 1130              		.thumb_func
 1131              		.type	ETH_GetSocketTxMemSize, %function
 1132              	ETH_GetSocketTxMemSize:
 1133              	.LFB76:
 708:.\Generated_Source\PSoC5/ETH.c **** /* ------------------------------------------------------------------------ */
 709:.\Generated_Source\PSoC5/ETH.c **** /**
 710:.\Generated_Source\PSoC5/ETH.c ****  * \brief read the contents of the tx mem size register
 711:.\Generated_Source\PSoC5/ETH.c ****  * \returns the value read from the register
 712:.\Generated_Source\PSoC5/ETH.c ****  */
 713:.\Generated_Source\PSoC5/ETH.c **** uint8 ETH_GetSocketTxMemSize( uint8 socket )
 714:.\Generated_Source\PSoC5/ETH.c **** {
 1134              		.loc 1 714 0
 1135              		.cfi_startproc
 1136              		@ args = 0, pretend = 0, frame = 16
 1137              		@ frame_needed = 1, uses_anonymous_args = 0
 1138 0000 80B5     		push	{r7, lr}
 1139              	.LCFI58:
 1140              		.cfi_def_cfa_offset 8
 1141              		.cfi_offset 7, -8
 1142              		.cfi_offset 14, -4
 1143 0002 84B0     		sub	sp, sp, #16
 1144              	.LCFI59:
 1145              		.cfi_def_cfa_offset 24
 1146 0004 00AF     		add	r7, sp, #0
 1147              	.LCFI60:
 1148              		.cfi_def_cfa_register 7
 1149 0006 0346     		mov	r3, r0
 1150 0008 FB71     		strb	r3, [r7, #7]
 715:.\Generated_Source\PSoC5/ETH.c **** 	uint8 sz;
 716:.\Generated_Source\PSoC5/ETH.c **** 	
 717:.\Generated_Source\PSoC5/ETH.c **** 	sz = 0xFF;
 1151              		.loc 1 717 0
 1152 000a 4FF0FF03 		mov	r3, #255
 1153 000e FB73     		strb	r3, [r7, #15]
 718:.\Generated_Source\PSoC5/ETH.c **** #if (5 == 1)
 719:.\Generated_Source\PSoC5/ETH.c **** 	ETH_ChipRead(ETH_REG_TXSR, &sz, 1);
 720:.\Generated_Source\PSoC5/ETH.c **** 	sz = (sz >> (socket<<1)) & 0x03;
 721:.\Generated_Source\PSoC5/ETH.c **** #elif ((5 == 2)||(5 == 5))
 722:.\Generated_Source\PSoC5/ETH.c **** 	ETH_ChipRead( ETH_SOCKET_REG(socket,ETH_SOCK_TXMEM), &sz, 1);
 1154              		.loc 1 722 0
ARM GAS  C:\Users\CHUCK~1.ERH\AppData\Local\Temp\cclfQUCJ.s 			page 34


 1155 0010 FA79     		ldrb	r2, [r7, #7]	@ zero_extendqisi2
 1156 0012 40F20003 		movw	r3, #:lower16:ETH_W5500_BSB
 1157 0016 C0F20003 		movt	r3, #:upper16:ETH_W5500_BSB
 1158 001a 53F82230 		ldr	r3, [r3, r2, lsl #2]
 1159 001e 03F11F02 		add	r2, r3, #31
 1160 0022 07F10F03 		add	r3, r7, #15
 1161 0026 1046     		mov	r0, r2
 1162 0028 1946     		mov	r1, r3
 1163 002a 4FF00102 		mov	r2, #1
 1164 002e FFF7FEFF 		bl	ETH_ChipRead
 723:.\Generated_Source\PSoC5/ETH.c **** #endif
 724:.\Generated_Source\PSoC5/ETH.c **** 	return sz;
 1165              		.loc 1 724 0
 1166 0032 FB7B     		ldrb	r3, [r7, #15]	@ zero_extendqisi2
 725:.\Generated_Source\PSoC5/ETH.c **** }
 1167              		.loc 1 725 0
 1168 0034 1846     		mov	r0, r3
 1169 0036 07F11007 		add	r7, r7, #16
 1170 003a BD46     		mov	sp, r7
 1171 003c 80BD     		pop	{r7, pc}
 1172              		.cfi_endproc
 1173              	.LFE76:
 1174              		.size	ETH_GetSocketTxMemSize, .-ETH_GetSocketTxMemSize
 1175              		.section	.text.ETH_SetSocketMode,"ax",%progbits
 1176              		.align	2
 1177              		.global	ETH_SetSocketMode
 1178              		.thumb
 1179              		.thumb_func
 1180              		.type	ETH_SetSocketMode, %function
 1181              	ETH_SetSocketMode:
 1182              	.LFB77:
 726:.\Generated_Source\PSoC5/ETH.c **** 
 727:.\Generated_Source\PSoC5/ETH.c **** /* ======================================================================== */
 728:.\Generated_Source\PSoC5/ETH.c **** /* End Section */
 729:.\Generated_Source\PSoC5/ETH.c **** #endif
 730:.\Generated_Source\PSoC5/ETH.c **** /* ======================================================================== */
 731:.\Generated_Source\PSoC5/ETH.c **** /* Socket Registers */
 732:.\Generated_Source\PSoC5/ETH.c **** #if (1)
 733:.\Generated_Source\PSoC5/ETH.c **** /* ------------------------------------------------------------------------ */
 734:.\Generated_Source\PSoC5/ETH.c **** /**
 735:.\Generated_Source\PSoC5/ETH.c ****  * \brief Write a value to the socket mode register
 736:.\Generated_Source\PSoC5/ETH.c ****  * \param socket the socket number for the addressed register
 737:.\Generated_Source\PSoC5/ETH.c ****  * \param mode the value to be written to the register
 738:.\Generated_Source\PSoC5/ETH.c ****  */
 739:.\Generated_Source\PSoC5/ETH.c **** void ETH_SetSocketMode(uint8 socket, uint8 mode)
 740:.\Generated_Source\PSoC5/ETH.c **** {
 1183              		.loc 1 740 0
 1184              		.cfi_startproc
 1185              		@ args = 0, pretend = 0, frame = 8
 1186              		@ frame_needed = 1, uses_anonymous_args = 0
 1187 0000 80B5     		push	{r7, lr}
 1188              	.LCFI61:
 1189              		.cfi_def_cfa_offset 8
 1190              		.cfi_offset 7, -8
 1191              		.cfi_offset 14, -4
 1192 0002 82B0     		sub	sp, sp, #8
 1193              	.LCFI62:
ARM GAS  C:\Users\CHUCK~1.ERH\AppData\Local\Temp\cclfQUCJ.s 			page 35


 1194              		.cfi_def_cfa_offset 16
 1195 0004 00AF     		add	r7, sp, #0
 1196              	.LCFI63:
 1197              		.cfi_def_cfa_register 7
 1198 0006 0246     		mov	r2, r0
 1199 0008 0B46     		mov	r3, r1
 1200 000a FA71     		strb	r2, [r7, #7]
 1201 000c BB71     		strb	r3, [r7, #6]
 741:.\Generated_Source\PSoC5/ETH.c **** 	ETH_ChipWrite((ETH_SOCKET_REG(socket, ETH_SOCK_MR)),(uint8*)&(mode), 1);
 1202              		.loc 1 741 0
 1203 000e FA79     		ldrb	r2, [r7, #7]	@ zero_extendqisi2
 1204 0010 40F20003 		movw	r3, #:lower16:ETH_W5500_BSB
 1205 0014 C0F20003 		movt	r3, #:upper16:ETH_W5500_BSB
 1206 0018 53F82220 		ldr	r2, [r3, r2, lsl #2]
 1207 001c 07F10603 		add	r3, r7, #6
 1208 0020 1046     		mov	r0, r2
 1209 0022 1946     		mov	r1, r3
 1210 0024 4FF00102 		mov	r2, #1
 1211 0028 FFF7FEFF 		bl	ETH_ChipWrite
 742:.\Generated_Source\PSoC5/ETH.c **** }
 1212              		.loc 1 742 0
 1213 002c 07F10807 		add	r7, r7, #8
 1214 0030 BD46     		mov	sp, r7
 1215 0032 80BD     		pop	{r7, pc}
 1216              		.cfi_endproc
 1217              	.LFE77:
 1218              		.size	ETH_SetSocketMode, .-ETH_SetSocketMode
 1219              		.section	.text.ETH_SetSocketCommand,"ax",%progbits
 1220              		.align	2
 1221              		.global	ETH_SetSocketCommand
 1222              		.thumb
 1223              		.thumb_func
 1224              		.type	ETH_SetSocketCommand, %function
 1225              	ETH_SetSocketCommand:
 1226              	.LFB78:
 743:.\Generated_Source\PSoC5/ETH.c **** /* ------------------------------------------------------------------------ */
 744:.\Generated_Source\PSoC5/ETH.c **** /**
 745:.\Generated_Source\PSoC5/ETH.c ****  * \brief Write a value to the socket command register
 746:.\Generated_Source\PSoC5/ETH.c ****  * \param socket the socket number for the addressed register
 747:.\Generated_Source\PSoC5/ETH.c ****  * \param cmd the value to be written to the register
 748:.\Generated_Source\PSoC5/ETH.c ****  */
 749:.\Generated_Source\PSoC5/ETH.c **** void ETH_SetSocketCommand(uint8 socket, uint8 cmd)
 750:.\Generated_Source\PSoC5/ETH.c **** {
 1227              		.loc 1 750 0
 1228              		.cfi_startproc
 1229              		@ args = 0, pretend = 0, frame = 8
 1230              		@ frame_needed = 1, uses_anonymous_args = 0
 1231 0000 80B5     		push	{r7, lr}
 1232              	.LCFI64:
 1233              		.cfi_def_cfa_offset 8
 1234              		.cfi_offset 7, -8
 1235              		.cfi_offset 14, -4
 1236 0002 82B0     		sub	sp, sp, #8
 1237              	.LCFI65:
 1238              		.cfi_def_cfa_offset 16
 1239 0004 00AF     		add	r7, sp, #0
 1240              	.LCFI66:
ARM GAS  C:\Users\CHUCK~1.ERH\AppData\Local\Temp\cclfQUCJ.s 			page 36


 1241              		.cfi_def_cfa_register 7
 1242 0006 0246     		mov	r2, r0
 1243 0008 0B46     		mov	r3, r1
 1244 000a FA71     		strb	r2, [r7, #7]
 1245 000c BB71     		strb	r3, [r7, #6]
 751:.\Generated_Source\PSoC5/ETH.c **** 	ETH_ChipWrite( (ETH_SOCKET_REG(socket, ETH_SOCK_CR)),(uint8*)&(cmd),1);
 1246              		.loc 1 751 0
 1247 000e FA79     		ldrb	r2, [r7, #7]	@ zero_extendqisi2
 1248 0010 40F20003 		movw	r3, #:lower16:ETH_W5500_BSB
 1249 0014 C0F20003 		movt	r3, #:upper16:ETH_W5500_BSB
 1250 0018 53F82230 		ldr	r3, [r3, r2, lsl #2]
 1251 001c 03F10102 		add	r2, r3, #1
 1252 0020 07F10603 		add	r3, r7, #6
 1253 0024 1046     		mov	r0, r2
 1254 0026 1946     		mov	r1, r3
 1255 0028 4FF00102 		mov	r2, #1
 1256 002c FFF7FEFF 		bl	ETH_ChipWrite
 752:.\Generated_Source\PSoC5/ETH.c **** }
 1257              		.loc 1 752 0
 1258 0030 07F10807 		add	r7, r7, #8
 1259 0034 BD46     		mov	sp, r7
 1260 0036 80BD     		pop	{r7, pc}
 1261              		.cfi_endproc
 1262              	.LFE78:
 1263              		.size	ETH_SetSocketCommand, .-ETH_SetSocketCommand
 1264              		.section	.text.ETH_GetSocketCommand,"ax",%progbits
 1265              		.align	2
 1266              		.global	ETH_GetSocketCommand
 1267              		.thumb
 1268              		.thumb_func
 1269              		.type	ETH_GetSocketCommand, %function
 1270              	ETH_GetSocketCommand:
 1271              	.LFB79:
 753:.\Generated_Source\PSoC5/ETH.c **** /* ------------------------------------------------------------------------ */
 754:.\Generated_Source\PSoC5/ETH.c **** /**
 755:.\Generated_Source\PSoC5/ETH.c ****  * \brief Read a value from the socket command register
 756:.\Generated_Source\PSoC5/ETH.c ****  * \param socket the socket number for the addressed register
 757:.\Generated_Source\PSoC5/ETH.c ****  * \returns the value read from the register
 758:.\Generated_Source\PSoC5/ETH.c ****  */
 759:.\Generated_Source\PSoC5/ETH.c **** uint8 ETH_GetSocketCommand(uint8 socket )
 760:.\Generated_Source\PSoC5/ETH.c **** {
 1272              		.loc 1 760 0
 1273              		.cfi_startproc
 1274              		@ args = 0, pretend = 0, frame = 16
 1275              		@ frame_needed = 1, uses_anonymous_args = 0
 1276 0000 80B5     		push	{r7, lr}
 1277              	.LCFI67:
 1278              		.cfi_def_cfa_offset 8
 1279              		.cfi_offset 7, -8
 1280              		.cfi_offset 14, -4
 1281 0002 84B0     		sub	sp, sp, #16
 1282              	.LCFI68:
 1283              		.cfi_def_cfa_offset 24
 1284 0004 00AF     		add	r7, sp, #0
 1285              	.LCFI69:
 1286              		.cfi_def_cfa_register 7
 1287 0006 0346     		mov	r3, r0
ARM GAS  C:\Users\CHUCK~1.ERH\AppData\Local\Temp\cclfQUCJ.s 			page 37


 1288 0008 FB71     		strb	r3, [r7, #7]
 761:.\Generated_Source\PSoC5/ETH.c **** 	uint8 cmd = 0xFF;
 1289              		.loc 1 761 0
 1290 000a 4FF0FF03 		mov	r3, #255
 1291 000e FB73     		strb	r3, [r7, #15]
 762:.\Generated_Source\PSoC5/ETH.c **** 	ETH_ChipRead( (ETH_SOCKET_REG(socket, ETH_SOCK_CR)),(uint8*)(&cmd),1);
 1292              		.loc 1 762 0
 1293 0010 FA79     		ldrb	r2, [r7, #7]	@ zero_extendqisi2
 1294 0012 40F20003 		movw	r3, #:lower16:ETH_W5500_BSB
 1295 0016 C0F20003 		movt	r3, #:upper16:ETH_W5500_BSB
 1296 001a 53F82230 		ldr	r3, [r3, r2, lsl #2]
 1297 001e 03F10102 		add	r2, r3, #1
 1298 0022 07F10F03 		add	r3, r7, #15
 1299 0026 1046     		mov	r0, r2
 1300 0028 1946     		mov	r1, r3
 1301 002a 4FF00102 		mov	r2, #1
 1302 002e FFF7FEFF 		bl	ETH_ChipRead
 763:.\Generated_Source\PSoC5/ETH.c **** 	return cmd;
 1303              		.loc 1 763 0
 1304 0032 FB7B     		ldrb	r3, [r7, #15]	@ zero_extendqisi2
 764:.\Generated_Source\PSoC5/ETH.c **** }
 1305              		.loc 1 764 0
 1306 0034 1846     		mov	r0, r3
 1307 0036 07F11007 		add	r7, r7, #16
 1308 003a BD46     		mov	sp, r7
 1309 003c 80BD     		pop	{r7, pc}
 1310              		.cfi_endproc
 1311              	.LFE79:
 1312              		.size	ETH_GetSocketCommand, .-ETH_GetSocketCommand
 1313              		.section	.text.ETH_SetSocketIR,"ax",%progbits
 1314              		.align	2
 1315              		.global	ETH_SetSocketIR
 1316              		.thumb
 1317              		.thumb_func
 1318              		.type	ETH_SetSocketIR, %function
 1319              	ETH_SetSocketIR:
 1320              	.LFB80:
 765:.\Generated_Source\PSoC5/ETH.c **** /* ------------------------------------------------------------------------ */
 766:.\Generated_Source\PSoC5/ETH.c **** /**
 767:.\Generated_Source\PSoC5/ETH.c ****  * \brief Write a value to the socket interrupt register
 768:.\Generated_Source\PSoC5/ETH.c ****  * \param socket the socket number for the addressed register
 769:.\Generated_Source\PSoC5/ETH.c ****  * \param ir the value to be written to the register
 770:.\Generated_Source\PSoC5/ETH.c ****  */
 771:.\Generated_Source\PSoC5/ETH.c **** void ETH_SetSocketIR(uint8 socket, uint8 ir)
 772:.\Generated_Source\PSoC5/ETH.c **** {
 1321              		.loc 1 772 0
 1322              		.cfi_startproc
 1323              		@ args = 0, pretend = 0, frame = 8
 1324              		@ frame_needed = 1, uses_anonymous_args = 0
 1325 0000 80B5     		push	{r7, lr}
 1326              	.LCFI70:
 1327              		.cfi_def_cfa_offset 8
 1328              		.cfi_offset 7, -8
 1329              		.cfi_offset 14, -4
 1330 0002 82B0     		sub	sp, sp, #8
 1331              	.LCFI71:
 1332              		.cfi_def_cfa_offset 16
ARM GAS  C:\Users\CHUCK~1.ERH\AppData\Local\Temp\cclfQUCJ.s 			page 38


 1333 0004 00AF     		add	r7, sp, #0
 1334              	.LCFI72:
 1335              		.cfi_def_cfa_register 7
 1336 0006 0246     		mov	r2, r0
 1337 0008 0B46     		mov	r3, r1
 1338 000a FA71     		strb	r2, [r7, #7]
 1339 000c BB71     		strb	r3, [r7, #6]
 773:.\Generated_Source\PSoC5/ETH.c **** 	ETH_ChipWrite( (ETH_SOCKET_REG(socket, ETH_SOCK_IR)), (uint8*)&(ir), 1);
 1340              		.loc 1 773 0
 1341 000e FA79     		ldrb	r2, [r7, #7]	@ zero_extendqisi2
 1342 0010 40F20003 		movw	r3, #:lower16:ETH_W5500_BSB
 1343 0014 C0F20003 		movt	r3, #:upper16:ETH_W5500_BSB
 1344 0018 53F82230 		ldr	r3, [r3, r2, lsl #2]
 1345 001c 03F10202 		add	r2, r3, #2
 1346 0020 07F10603 		add	r3, r7, #6
 1347 0024 1046     		mov	r0, r2
 1348 0026 1946     		mov	r1, r3
 1349 0028 4FF00102 		mov	r2, #1
 1350 002c FFF7FEFF 		bl	ETH_ChipWrite
 774:.\Generated_Source\PSoC5/ETH.c **** }
 1351              		.loc 1 774 0
 1352 0030 07F10807 		add	r7, r7, #8
 1353 0034 BD46     		mov	sp, r7
 1354 0036 80BD     		pop	{r7, pc}
 1355              		.cfi_endproc
 1356              	.LFE80:
 1357              		.size	ETH_SetSocketIR, .-ETH_SetSocketIR
 1358              		.section	.text.ETH_GetSocketIR,"ax",%progbits
 1359              		.align	2
 1360              		.global	ETH_GetSocketIR
 1361              		.thumb
 1362              		.thumb_func
 1363              		.type	ETH_GetSocketIR, %function
 1364              	ETH_GetSocketIR:
 1365              	.LFB81:
 775:.\Generated_Source\PSoC5/ETH.c **** /* ------------------------------------------------------------------------ */
 776:.\Generated_Source\PSoC5/ETH.c **** /**
 777:.\Generated_Source\PSoC5/ETH.c ****  * \brief Read a value from the socket interrupt register
 778:.\Generated_Source\PSoC5/ETH.c ****  * \param socket the socket number for the addressed register
 779:.\Generated_Source\PSoC5/ETH.c ****  * \returns the value read from the register
 780:.\Generated_Source\PSoC5/ETH.c ****  */
 781:.\Generated_Source\PSoC5/ETH.c **** uint8 ETH_GetSocketIR(uint8 socket)
 782:.\Generated_Source\PSoC5/ETH.c **** {	
 1366              		.loc 1 782 0
 1367              		.cfi_startproc
 1368              		@ args = 0, pretend = 0, frame = 16
 1369              		@ frame_needed = 1, uses_anonymous_args = 0
 1370 0000 80B5     		push	{r7, lr}
 1371              	.LCFI73:
 1372              		.cfi_def_cfa_offset 8
 1373              		.cfi_offset 7, -8
 1374              		.cfi_offset 14, -4
 1375 0002 84B0     		sub	sp, sp, #16
 1376              	.LCFI74:
 1377              		.cfi_def_cfa_offset 24
 1378 0004 00AF     		add	r7, sp, #0
 1379              	.LCFI75:
ARM GAS  C:\Users\CHUCK~1.ERH\AppData\Local\Temp\cclfQUCJ.s 			page 39


 1380              		.cfi_def_cfa_register 7
 1381 0006 0346     		mov	r3, r0
 1382 0008 FB71     		strb	r3, [r7, #7]
 783:.\Generated_Source\PSoC5/ETH.c **** 	uint8 ir = 0xFF;
 1383              		.loc 1 783 0
 1384 000a 4FF0FF03 		mov	r3, #255
 1385 000e FB73     		strb	r3, [r7, #15]
 784:.\Generated_Source\PSoC5/ETH.c **** 	ETH_ChipRead((ETH_SOCKET_REG(socket, ETH_SOCK_IR)), (uint8*)&(ir), 1);
 1386              		.loc 1 784 0
 1387 0010 FA79     		ldrb	r2, [r7, #7]	@ zero_extendqisi2
 1388 0012 40F20003 		movw	r3, #:lower16:ETH_W5500_BSB
 1389 0016 C0F20003 		movt	r3, #:upper16:ETH_W5500_BSB
 1390 001a 53F82230 		ldr	r3, [r3, r2, lsl #2]
 1391 001e 03F10202 		add	r2, r3, #2
 1392 0022 07F10F03 		add	r3, r7, #15
 1393 0026 1046     		mov	r0, r2
 1394 0028 1946     		mov	r1, r3
 1395 002a 4FF00102 		mov	r2, #1
 1396 002e FFF7FEFF 		bl	ETH_ChipRead
 785:.\Generated_Source\PSoC5/ETH.c **** 	return ir;
 1397              		.loc 1 785 0
 1398 0032 FB7B     		ldrb	r3, [r7, #15]	@ zero_extendqisi2
 786:.\Generated_Source\PSoC5/ETH.c **** }
 1399              		.loc 1 786 0
 1400 0034 1846     		mov	r0, r3
 1401 0036 07F11007 		add	r7, r7, #16
 1402 003a BD46     		mov	sp, r7
 1403 003c 80BD     		pop	{r7, pc}
 1404              		.cfi_endproc
 1405              	.LFE81:
 1406              		.size	ETH_GetSocketIR, .-ETH_GetSocketIR
 1407              		.section	.text.ETH_GetSocketStatus,"ax",%progbits
 1408              		.align	2
 1409              		.global	ETH_GetSocketStatus
 1410              		.thumb
 1411              		.thumb_func
 1412              		.type	ETH_GetSocketStatus, %function
 1413              	ETH_GetSocketStatus:
 1414              	.LFB82:
 787:.\Generated_Source\PSoC5/ETH.c **** /* ------------------------------------------------------------------------ */
 788:.\Generated_Source\PSoC5/ETH.c **** /**
 789:.\Generated_Source\PSoC5/ETH.c ****  * \brief Read a value from the socket status register
 790:.\Generated_Source\PSoC5/ETH.c ****  * \param socket the socket number for the addressed register
 791:.\Generated_Source\PSoC5/ETH.c ****  * \returns the value read from the register
 792:.\Generated_Source\PSoC5/ETH.c ****  */
 793:.\Generated_Source\PSoC5/ETH.c **** uint8 ETH_GetSocketStatus(uint8 socket)
 794:.\Generated_Source\PSoC5/ETH.c **** { 
 1415              		.loc 1 794 0
 1416              		.cfi_startproc
 1417              		@ args = 0, pretend = 0, frame = 16
 1418              		@ frame_needed = 1, uses_anonymous_args = 0
 1419 0000 80B5     		push	{r7, lr}
 1420              	.LCFI76:
 1421              		.cfi_def_cfa_offset 8
 1422              		.cfi_offset 7, -8
 1423              		.cfi_offset 14, -4
 1424 0002 84B0     		sub	sp, sp, #16
ARM GAS  C:\Users\CHUCK~1.ERH\AppData\Local\Temp\cclfQUCJ.s 			page 40


 1425              	.LCFI77:
 1426              		.cfi_def_cfa_offset 24
 1427 0004 00AF     		add	r7, sp, #0
 1428              	.LCFI78:
 1429              		.cfi_def_cfa_register 7
 1430 0006 0346     		mov	r3, r0
 1431 0008 FB71     		strb	r3, [r7, #7]
 795:.\Generated_Source\PSoC5/ETH.c **** 	uint8 status = 0xFF;
 1432              		.loc 1 795 0
 1433 000a 4FF0FF03 		mov	r3, #255
 1434 000e FB73     		strb	r3, [r7, #15]
 796:.\Generated_Source\PSoC5/ETH.c **** 	ETH_ChipRead(ETH_SOCKET_REG(socket, ETH_SOCK_SR), &status, 1);
 1435              		.loc 1 796 0
 1436 0010 FA79     		ldrb	r2, [r7, #7]	@ zero_extendqisi2
 1437 0012 40F20003 		movw	r3, #:lower16:ETH_W5500_BSB
 1438 0016 C0F20003 		movt	r3, #:upper16:ETH_W5500_BSB
 1439 001a 53F82230 		ldr	r3, [r3, r2, lsl #2]
 1440 001e 03F10302 		add	r2, r3, #3
 1441 0022 07F10F03 		add	r3, r7, #15
 1442 0026 1046     		mov	r0, r2
 1443 0028 1946     		mov	r1, r3
 1444 002a 4FF00102 		mov	r2, #1
 1445 002e FFF7FEFF 		bl	ETH_ChipRead
 797:.\Generated_Source\PSoC5/ETH.c **** 	return status;
 1446              		.loc 1 797 0
 1447 0032 FB7B     		ldrb	r3, [r7, #15]	@ zero_extendqisi2
 798:.\Generated_Source\PSoC5/ETH.c **** }
 1448              		.loc 1 798 0
 1449 0034 1846     		mov	r0, r3
 1450 0036 07F11007 		add	r7, r7, #16
 1451 003a BD46     		mov	sp, r7
 1452 003c 80BD     		pop	{r7, pc}
 1453              		.cfi_endproc
 1454              	.LFE82:
 1455              		.size	ETH_GetSocketStatus, .-ETH_GetSocketStatus
 1456              		.section	.text.ETH_SetSocketSourcePort,"ax",%progbits
 1457              		.align	2
 1458              		.global	ETH_SetSocketSourcePort
 1459              		.thumb
 1460              		.thumb_func
 1461              		.type	ETH_SetSocketSourcePort, %function
 1462              	ETH_SetSocketSourcePort:
 1463              	.LFB83:
 799:.\Generated_Source\PSoC5/ETH.c **** /* ------------------------------------------------------------------------ */
 800:.\Generated_Source\PSoC5/ETH.c **** /**
 801:.\Generated_Source\PSoC5/ETH.c ****  * \brief Write a value to the socket source port register
 802:.\Generated_Source\PSoC5/ETH.c ****  * \param socket the socket number for the addressed register
 803:.\Generated_Source\PSoC5/ETH.c ****  * \param port the value to be written to the register
 804:.\Generated_Source\PSoC5/ETH.c ****  */
 805:.\Generated_Source\PSoC5/ETH.c **** void ETH_SetSocketSourcePort(uint8 socket, uint16 port)
 806:.\Generated_Source\PSoC5/ETH.c **** {
 1464              		.loc 1 806 0
 1465              		.cfi_startproc
 1466              		@ args = 0, pretend = 0, frame = 8
 1467              		@ frame_needed = 1, uses_anonymous_args = 0
 1468 0000 80B5     		push	{r7, lr}
 1469              	.LCFI79:
ARM GAS  C:\Users\CHUCK~1.ERH\AppData\Local\Temp\cclfQUCJ.s 			page 41


 1470              		.cfi_def_cfa_offset 8
 1471              		.cfi_offset 7, -8
 1472              		.cfi_offset 14, -4
 1473 0002 82B0     		sub	sp, sp, #8
 1474              	.LCFI80:
 1475              		.cfi_def_cfa_offset 16
 1476 0004 00AF     		add	r7, sp, #0
 1477              	.LCFI81:
 1478              		.cfi_def_cfa_register 7
 1479 0006 0246     		mov	r2, r0
 1480 0008 0B46     		mov	r3, r1
 1481 000a FA71     		strb	r2, [r7, #7]
 1482 000c BB80     		strh	r3, [r7, #4]	@ movhi
 807:.\Generated_Source\PSoC5/ETH.c **** 	ETH_ChipWrite16(ETH_SOCKET_REG(socket, ETH_SOCK_PORT),port);
 1483              		.loc 1 807 0
 1484 000e FA79     		ldrb	r2, [r7, #7]	@ zero_extendqisi2
 1485 0010 40F20003 		movw	r3, #:lower16:ETH_W5500_BSB
 1486 0014 C0F20003 		movt	r3, #:upper16:ETH_W5500_BSB
 1487 0018 53F82230 		ldr	r3, [r3, r2, lsl #2]
 1488 001c 03F10402 		add	r2, r3, #4
 1489 0020 BB88     		ldrh	r3, [r7, #4]
 1490 0022 1046     		mov	r0, r2
 1491 0024 1946     		mov	r1, r3
 1492 0026 FFF7FEFF 		bl	ETH_ChipWrite16
 808:.\Generated_Source\PSoC5/ETH.c **** }
 1493              		.loc 1 808 0
 1494 002a 07F10807 		add	r7, r7, #8
 1495 002e BD46     		mov	sp, r7
 1496 0030 80BD     		pop	{r7, pc}
 1497              		.cfi_endproc
 1498              	.LFE83:
 1499              		.size	ETH_SetSocketSourcePort, .-ETH_SetSocketSourcePort
 1500 0032 00BF     		.section	.text.ETH_SetSocketDestMAC,"ax",%progbits
 1501              		.align	2
 1502              		.global	ETH_SetSocketDestMAC
 1503              		.thumb
 1504              		.thumb_func
 1505              		.type	ETH_SetSocketDestMAC, %function
 1506              	ETH_SetSocketDestMAC:
 1507              	.LFB84:
 809:.\Generated_Source\PSoC5/ETH.c **** /* ------------------------------------------------------------------------ */
 810:.\Generated_Source\PSoC5/ETH.c **** /**
 811:.\Generated_Source\PSoC5/ETH.c ****  * \brief Write a value to the socket Destination hardware address register
 812:.\Generated_Source\PSoC5/ETH.c ****  * \param socket the socket number for the addressed register
 813:.\Generated_Source\PSoC5/ETH.c ****  * \param *mac poitner to the array holding the values to be written to the register
 814:.\Generated_Source\PSoC5/ETH.c ****  */
 815:.\Generated_Source\PSoC5/ETH.c **** void ETH_SetSocketDestMAC(uint8 socket, uint8* mac)
 816:.\Generated_Source\PSoC5/ETH.c **** { 
 1508              		.loc 1 816 0
 1509              		.cfi_startproc
 1510              		@ args = 0, pretend = 0, frame = 8
 1511              		@ frame_needed = 1, uses_anonymous_args = 0
 1512 0000 80B5     		push	{r7, lr}
 1513              	.LCFI82:
 1514              		.cfi_def_cfa_offset 8
 1515              		.cfi_offset 7, -8
 1516              		.cfi_offset 14, -4
ARM GAS  C:\Users\CHUCK~1.ERH\AppData\Local\Temp\cclfQUCJ.s 			page 42


 1517 0002 82B0     		sub	sp, sp, #8
 1518              	.LCFI83:
 1519              		.cfi_def_cfa_offset 16
 1520 0004 00AF     		add	r7, sp, #0
 1521              	.LCFI84:
 1522              		.cfi_def_cfa_register 7
 1523 0006 0346     		mov	r3, r0
 1524 0008 3960     		str	r1, [r7, #0]
 1525 000a FB71     		strb	r3, [r7, #7]
 817:.\Generated_Source\PSoC5/ETH.c **** 	ETH_ChipWrite( ETH_SOCKET_REG(socket, ETH_SOCK_DHAR), &mac[0], 6);
 1526              		.loc 1 817 0
 1527 000c FA79     		ldrb	r2, [r7, #7]	@ zero_extendqisi2
 1528 000e 40F20003 		movw	r3, #:lower16:ETH_W5500_BSB
 1529 0012 C0F20003 		movt	r3, #:upper16:ETH_W5500_BSB
 1530 0016 53F82230 		ldr	r3, [r3, r2, lsl #2]
 1531 001a 03F10603 		add	r3, r3, #6
 1532 001e 1846     		mov	r0, r3
 1533 0020 3968     		ldr	r1, [r7, #0]
 1534 0022 4FF00602 		mov	r2, #6
 1535 0026 FFF7FEFF 		bl	ETH_ChipWrite
 818:.\Generated_Source\PSoC5/ETH.c **** }
 1536              		.loc 1 818 0
 1537 002a 07F10807 		add	r7, r7, #8
 1538 002e BD46     		mov	sp, r7
 1539 0030 80BD     		pop	{r7, pc}
 1540              		.cfi_endproc
 1541              	.LFE84:
 1542              		.size	ETH_SetSocketDestMAC, .-ETH_SetSocketDestMAC
 1543 0032 00BF     		.section	.text.ETH_SetSocketDestIP,"ax",%progbits
 1544              		.align	2
 1545              		.global	ETH_SetSocketDestIP
 1546              		.thumb
 1547              		.thumb_func
 1548              		.type	ETH_SetSocketDestIP, %function
 1549              	ETH_SetSocketDestIP:
 1550              	.LFB85:
 819:.\Generated_Source\PSoC5/ETH.c **** /* ------------------------------------------------------------------------ */
 820:.\Generated_Source\PSoC5/ETH.c **** /**
 821:.\Generated_Source\PSoC5/ETH.c ****  * \brief Write a value to the socket Destination IP address register
 822:.\Generated_Source\PSoC5/ETH.c ****  * \param socket the socket number for the addressed register
 823:.\Generated_Source\PSoC5/ETH.c ****  * \param ip the value to be written to the register
 824:.\Generated_Source\PSoC5/ETH.c ****  */
 825:.\Generated_Source\PSoC5/ETH.c **** void ETH_SetSocketDestIP(uint8 socket, uint32 ip)
 826:.\Generated_Source\PSoC5/ETH.c **** { 
 1551              		.loc 1 826 0
 1552              		.cfi_startproc
 1553              		@ args = 0, pretend = 0, frame = 8
 1554              		@ frame_needed = 1, uses_anonymous_args = 0
 1555 0000 80B5     		push	{r7, lr}
 1556              	.LCFI85:
 1557              		.cfi_def_cfa_offset 8
 1558              		.cfi_offset 7, -8
 1559              		.cfi_offset 14, -4
 1560 0002 82B0     		sub	sp, sp, #8
 1561              	.LCFI86:
 1562              		.cfi_def_cfa_offset 16
 1563 0004 00AF     		add	r7, sp, #0
ARM GAS  C:\Users\CHUCK~1.ERH\AppData\Local\Temp\cclfQUCJ.s 			page 43


 1564              	.LCFI87:
 1565              		.cfi_def_cfa_register 7
 1566 0006 0346     		mov	r3, r0
 1567 0008 3960     		str	r1, [r7, #0]
 1568 000a FB71     		strb	r3, [r7, #7]
 827:.\Generated_Source\PSoC5/ETH.c **** 	ETH_ChipWrite(ETH_SOCKET_REG(socket, ETH_SOCK_DIPR), (uint8*)&ip, 4);
 1569              		.loc 1 827 0
 1570 000c FA79     		ldrb	r2, [r7, #7]	@ zero_extendqisi2
 1571 000e 40F20003 		movw	r3, #:lower16:ETH_W5500_BSB
 1572 0012 C0F20003 		movt	r3, #:upper16:ETH_W5500_BSB
 1573 0016 53F82230 		ldr	r3, [r3, r2, lsl #2]
 1574 001a 03F10C02 		add	r2, r3, #12
 1575 001e 3B46     		mov	r3, r7
 1576 0020 1046     		mov	r0, r2
 1577 0022 1946     		mov	r1, r3
 1578 0024 4FF00402 		mov	r2, #4
 1579 0028 FFF7FEFF 		bl	ETH_ChipWrite
 828:.\Generated_Source\PSoC5/ETH.c **** }
 1580              		.loc 1 828 0
 1581 002c 07F10807 		add	r7, r7, #8
 1582 0030 BD46     		mov	sp, r7
 1583 0032 80BD     		pop	{r7, pc}
 1584              		.cfi_endproc
 1585              	.LFE85:
 1586              		.size	ETH_SetSocketDestIP, .-ETH_SetSocketDestIP
 1587              		.section	.text.ETH_SetSocketDestPort,"ax",%progbits
 1588              		.align	2
 1589              		.global	ETH_SetSocketDestPort
 1590              		.thumb
 1591              		.thumb_func
 1592              		.type	ETH_SetSocketDestPort, %function
 1593              	ETH_SetSocketDestPort:
 1594              	.LFB86:
 829:.\Generated_Source\PSoC5/ETH.c **** /* ------------------------------------------------------------------------ */
 830:.\Generated_Source\PSoC5/ETH.c **** /**
 831:.\Generated_Source\PSoC5/ETH.c ****  * \brief Write a value to the socket destination port register
 832:.\Generated_Source\PSoC5/ETH.c ****  * \param socket the socket number for the addressed register
 833:.\Generated_Source\PSoC5/ETH.c ****  * \param port the value to be written to the register
 834:.\Generated_Source\PSoC5/ETH.c ****  */
 835:.\Generated_Source\PSoC5/ETH.c **** void ETH_SetSocketDestPort(uint8 socket, uint16 port)
 836:.\Generated_Source\PSoC5/ETH.c **** { 
 1595              		.loc 1 836 0
 1596              		.cfi_startproc
 1597              		@ args = 0, pretend = 0, frame = 8
 1598              		@ frame_needed = 1, uses_anonymous_args = 0
 1599 0000 80B5     		push	{r7, lr}
 1600              	.LCFI88:
 1601              		.cfi_def_cfa_offset 8
 1602              		.cfi_offset 7, -8
 1603              		.cfi_offset 14, -4
 1604 0002 82B0     		sub	sp, sp, #8
 1605              	.LCFI89:
 1606              		.cfi_def_cfa_offset 16
 1607 0004 00AF     		add	r7, sp, #0
 1608              	.LCFI90:
 1609              		.cfi_def_cfa_register 7
 1610 0006 0246     		mov	r2, r0
ARM GAS  C:\Users\CHUCK~1.ERH\AppData\Local\Temp\cclfQUCJ.s 			page 44


 1611 0008 0B46     		mov	r3, r1
 1612 000a FA71     		strb	r2, [r7, #7]
 1613 000c BB80     		strh	r3, [r7, #4]	@ movhi
 837:.\Generated_Source\PSoC5/ETH.c **** 	ETH_ChipWrite16( ETH_SOCKET_REG(socket, ETH_SOCK_DPORT), port);
 1614              		.loc 1 837 0
 1615 000e FA79     		ldrb	r2, [r7, #7]	@ zero_extendqisi2
 1616 0010 40F20003 		movw	r3, #:lower16:ETH_W5500_BSB
 1617 0014 C0F20003 		movt	r3, #:upper16:ETH_W5500_BSB
 1618 0018 53F82230 		ldr	r3, [r3, r2, lsl #2]
 1619 001c 03F11002 		add	r2, r3, #16
 1620 0020 BB88     		ldrh	r3, [r7, #4]
 1621 0022 1046     		mov	r0, r2
 1622 0024 1946     		mov	r1, r3
 1623 0026 FFF7FEFF 		bl	ETH_ChipWrite16
 838:.\Generated_Source\PSoC5/ETH.c **** }
 1624              		.loc 1 838 0
 1625 002a 07F10807 		add	r7, r7, #8
 1626 002e BD46     		mov	sp, r7
 1627 0030 80BD     		pop	{r7, pc}
 1628              		.cfi_endproc
 1629              	.LFE86:
 1630              		.size	ETH_SetSocketDestPort, .-ETH_SetSocketDestPort
 1631 0032 00BF     		.section	.text.ETH_GetSocketTxFree,"ax",%progbits
 1632              		.align	2
 1633              		.global	ETH_GetSocketTxFree
 1634              		.thumb
 1635              		.thumb_func
 1636              		.type	ETH_GetSocketTxFree, %function
 1637              	ETH_GetSocketTxFree:
 1638              	.LFB87:
 839:.\Generated_Source\PSoC5/ETH.c **** /* ------------------------------------------------------------------------ */
 840:.\Generated_Source\PSoC5/ETH.c **** /**
 841:.\Generated_Source\PSoC5/ETH.c ****  * \brief Read a value from the socket Tx free size register
 842:.\Generated_Source\PSoC5/ETH.c ****  * \param socket the socket number for the addressed register
 843:.\Generated_Source\PSoC5/ETH.c ****  * \returns the value read from the register
 844:.\Generated_Source\PSoC5/ETH.c ****  */
 845:.\Generated_Source\PSoC5/ETH.c **** uint16 ETH_GetSocketTxFree(uint8 socket)
 846:.\Generated_Source\PSoC5/ETH.c **** { 
 1639              		.loc 1 846 0
 1640              		.cfi_startproc
 1641              		@ args = 0, pretend = 0, frame = 8
 1642              		@ frame_needed = 1, uses_anonymous_args = 0
 1643 0000 80B5     		push	{r7, lr}
 1644              	.LCFI91:
 1645              		.cfi_def_cfa_offset 8
 1646              		.cfi_offset 7, -8
 1647              		.cfi_offset 14, -4
 1648 0002 82B0     		sub	sp, sp, #8
 1649              	.LCFI92:
 1650              		.cfi_def_cfa_offset 16
 1651 0004 00AF     		add	r7, sp, #0
 1652              	.LCFI93:
 1653              		.cfi_def_cfa_register 7
 1654 0006 0346     		mov	r3, r0
 1655 0008 FB71     		strb	r3, [r7, #7]
 847:.\Generated_Source\PSoC5/ETH.c **** 	return ETH_ChipRead16(ETH_SOCKET_REG(socket, ETH_SOCK_TXFSR));
 1656              		.loc 1 847 0
ARM GAS  C:\Users\CHUCK~1.ERH\AppData\Local\Temp\cclfQUCJ.s 			page 45


 1657 000a FA79     		ldrb	r2, [r7, #7]	@ zero_extendqisi2
 1658 000c 40F20003 		movw	r3, #:lower16:ETH_W5500_BSB
 1659 0010 C0F20003 		movt	r3, #:upper16:ETH_W5500_BSB
 1660 0014 53F82230 		ldr	r3, [r3, r2, lsl #2]
 1661 0018 03F12003 		add	r3, r3, #32
 1662 001c 1846     		mov	r0, r3
 1663 001e FFF7FEFF 		bl	ETH_ChipRead16
 1664 0022 0346     		mov	r3, r0
 848:.\Generated_Source\PSoC5/ETH.c **** }
 1665              		.loc 1 848 0
 1666 0024 1846     		mov	r0, r3
 1667 0026 07F10807 		add	r7, r7, #8
 1668 002a BD46     		mov	sp, r7
 1669 002c 80BD     		pop	{r7, pc}
 1670              		.cfi_endproc
 1671              	.LFE87:
 1672              		.size	ETH_GetSocketTxFree, .-ETH_GetSocketTxFree
 1673 002e 00BF     		.section	.text.ETH_SetSocketTxWritePtr,"ax",%progbits
 1674              		.align	2
 1675              		.global	ETH_SetSocketTxWritePtr
 1676              		.thumb
 1677              		.thumb_func
 1678              		.type	ETH_SetSocketTxWritePtr, %function
 1679              	ETH_SetSocketTxWritePtr:
 1680              	.LFB88:
 849:.\Generated_Source\PSoC5/ETH.c **** /* ------------------------------------------------------------------------ */
 850:.\Generated_Source\PSoC5/ETH.c **** /**
 851:.\Generated_Source\PSoC5/ETH.c ****  * \brief Write a value to the socket tx write pointer register
 852:.\Generated_Source\PSoC5/ETH.c ****  * \param socket the socket number for the addressed register
 853:.\Generated_Source\PSoC5/ETH.c ****  * \param ptr the value to be written to the register
 854:.\Generated_Source\PSoC5/ETH.c ****  */
 855:.\Generated_Source\PSoC5/ETH.c **** void ETH_SetSocketTxWritePtr(uint8 socket, uint16 ptr)
 856:.\Generated_Source\PSoC5/ETH.c **** { 
 1681              		.loc 1 856 0
 1682              		.cfi_startproc
 1683              		@ args = 0, pretend = 0, frame = 8
 1684              		@ frame_needed = 1, uses_anonymous_args = 0
 1685 0000 80B5     		push	{r7, lr}
 1686              	.LCFI94:
 1687              		.cfi_def_cfa_offset 8
 1688              		.cfi_offset 7, -8
 1689              		.cfi_offset 14, -4
 1690 0002 82B0     		sub	sp, sp, #8
 1691              	.LCFI95:
 1692              		.cfi_def_cfa_offset 16
 1693 0004 00AF     		add	r7, sp, #0
 1694              	.LCFI96:
 1695              		.cfi_def_cfa_register 7
 1696 0006 0246     		mov	r2, r0
 1697 0008 0B46     		mov	r3, r1
 1698 000a FA71     		strb	r2, [r7, #7]
 1699 000c BB80     		strh	r3, [r7, #4]	@ movhi
 857:.\Generated_Source\PSoC5/ETH.c **** 	ETH_ChipWrite16(ETH_SOCKET_REG(socket, ETH_SOCK_TXWR),ptr);
 1700              		.loc 1 857 0
 1701 000e FA79     		ldrb	r2, [r7, #7]	@ zero_extendqisi2
 1702 0010 40F20003 		movw	r3, #:lower16:ETH_W5500_BSB
 1703 0014 C0F20003 		movt	r3, #:upper16:ETH_W5500_BSB
ARM GAS  C:\Users\CHUCK~1.ERH\AppData\Local\Temp\cclfQUCJ.s 			page 46


 1704 0018 53F82230 		ldr	r3, [r3, r2, lsl #2]
 1705 001c 03F12402 		add	r2, r3, #36
 1706 0020 BB88     		ldrh	r3, [r7, #4]
 1707 0022 1046     		mov	r0, r2
 1708 0024 1946     		mov	r1, r3
 1709 0026 FFF7FEFF 		bl	ETH_ChipWrite16
 858:.\Generated_Source\PSoC5/ETH.c **** }
 1710              		.loc 1 858 0
 1711 002a 07F10807 		add	r7, r7, #8
 1712 002e BD46     		mov	sp, r7
 1713 0030 80BD     		pop	{r7, pc}
 1714              		.cfi_endproc
 1715              	.LFE88:
 1716              		.size	ETH_SetSocketTxWritePtr, .-ETH_SetSocketTxWritePtr
 1717 0032 00BF     		.section	.text.ETH_GetSocketTxWritePtr,"ax",%progbits
 1718              		.align	2
 1719              		.global	ETH_GetSocketTxWritePtr
 1720              		.thumb
 1721              		.thumb_func
 1722              		.type	ETH_GetSocketTxWritePtr, %function
 1723              	ETH_GetSocketTxWritePtr:
 1724              	.LFB89:
 859:.\Generated_Source\PSoC5/ETH.c **** /* ------------------------------------------------------------------------ */
 860:.\Generated_Source\PSoC5/ETH.c **** /**
 861:.\Generated_Source\PSoC5/ETH.c ****  * \brief Read a value from the socket tx buffer write pointer register
 862:.\Generated_Source\PSoC5/ETH.c ****  * \param socket the socket number for the addressed register
 863:.\Generated_Source\PSoC5/ETH.c ****  * \returns the value read from the register
 864:.\Generated_Source\PSoC5/ETH.c ****  */
 865:.\Generated_Source\PSoC5/ETH.c **** uint16 ETH_GetSocketTxWritePtr(uint8 socket)
 866:.\Generated_Source\PSoC5/ETH.c **** { 
 1725              		.loc 1 866 0
 1726              		.cfi_startproc
 1727              		@ args = 0, pretend = 0, frame = 8
 1728              		@ frame_needed = 1, uses_anonymous_args = 0
 1729 0000 80B5     		push	{r7, lr}
 1730              	.LCFI97:
 1731              		.cfi_def_cfa_offset 8
 1732              		.cfi_offset 7, -8
 1733              		.cfi_offset 14, -4
 1734 0002 82B0     		sub	sp, sp, #8
 1735              	.LCFI98:
 1736              		.cfi_def_cfa_offset 16
 1737 0004 00AF     		add	r7, sp, #0
 1738              	.LCFI99:
 1739              		.cfi_def_cfa_register 7
 1740 0006 0346     		mov	r3, r0
 1741 0008 FB71     		strb	r3, [r7, #7]
 867:.\Generated_Source\PSoC5/ETH.c **** 	return ETH_ChipRead16(ETH_SOCKET_REG(socket, ETH_SOCK_TXWR));
 1742              		.loc 1 867 0
 1743 000a FA79     		ldrb	r2, [r7, #7]	@ zero_extendqisi2
 1744 000c 40F20003 		movw	r3, #:lower16:ETH_W5500_BSB
 1745 0010 C0F20003 		movt	r3, #:upper16:ETH_W5500_BSB
 1746 0014 53F82230 		ldr	r3, [r3, r2, lsl #2]
 1747 0018 03F12403 		add	r3, r3, #36
 1748 001c 1846     		mov	r0, r3
 1749 001e FFF7FEFF 		bl	ETH_ChipRead16
 1750 0022 0346     		mov	r3, r0
ARM GAS  C:\Users\CHUCK~1.ERH\AppData\Local\Temp\cclfQUCJ.s 			page 47


 868:.\Generated_Source\PSoC5/ETH.c **** }
 1751              		.loc 1 868 0
 1752 0024 1846     		mov	r0, r3
 1753 0026 07F10807 		add	r7, r7, #8
 1754 002a BD46     		mov	sp, r7
 1755 002c 80BD     		pop	{r7, pc}
 1756              		.cfi_endproc
 1757              	.LFE89:
 1758              		.size	ETH_GetSocketTxWritePtr, .-ETH_GetSocketTxWritePtr
 1759 002e 00BF     		.section	.text.ETH_GetSocketRxSize,"ax",%progbits
 1760              		.align	2
 1761              		.global	ETH_GetSocketRxSize
 1762              		.thumb
 1763              		.thumb_func
 1764              		.type	ETH_GetSocketRxSize, %function
 1765              	ETH_GetSocketRxSize:
 1766              	.LFB90:
 869:.\Generated_Source\PSoC5/ETH.c **** /* ------------------------------------------------------------------------ */
 870:.\Generated_Source\PSoC5/ETH.c **** /**
 871:.\Generated_Source\PSoC5/ETH.c ****  * \brief Read a value from the socket rx received data size register
 872:.\Generated_Source\PSoC5/ETH.c ****  * \param socket the socket number for the addressed register
 873:.\Generated_Source\PSoC5/ETH.c ****  * \returns the value read from the register
 874:.\Generated_Source\PSoC5/ETH.c ****  */
 875:.\Generated_Source\PSoC5/ETH.c **** uint16 ETH_GetSocketRxSize(uint8 socket)
 876:.\Generated_Source\PSoC5/ETH.c **** {
 1767              		.loc 1 876 0
 1768              		.cfi_startproc
 1769              		@ args = 0, pretend = 0, frame = 8
 1770              		@ frame_needed = 1, uses_anonymous_args = 0
 1771 0000 80B5     		push	{r7, lr}
 1772              	.LCFI100:
 1773              		.cfi_def_cfa_offset 8
 1774              		.cfi_offset 7, -8
 1775              		.cfi_offset 14, -4
 1776 0002 82B0     		sub	sp, sp, #8
 1777              	.LCFI101:
 1778              		.cfi_def_cfa_offset 16
 1779 0004 00AF     		add	r7, sp, #0
 1780              	.LCFI102:
 1781              		.cfi_def_cfa_register 7
 1782 0006 0346     		mov	r3, r0
 1783 0008 FB71     		strb	r3, [r7, #7]
 877:.\Generated_Source\PSoC5/ETH.c **** 	return ETH_ChipRead16(ETH_SOCKET_REG(socket, ETH_SOCK_RXRSR));
 1784              		.loc 1 877 0
 1785 000a FA79     		ldrb	r2, [r7, #7]	@ zero_extendqisi2
 1786 000c 40F20003 		movw	r3, #:lower16:ETH_W5500_BSB
 1787 0010 C0F20003 		movt	r3, #:upper16:ETH_W5500_BSB
 1788 0014 53F82230 		ldr	r3, [r3, r2, lsl #2]
 1789 0018 03F12603 		add	r3, r3, #38
 1790 001c 1846     		mov	r0, r3
 1791 001e FFF7FEFF 		bl	ETH_ChipRead16
 1792 0022 0346     		mov	r3, r0
 878:.\Generated_Source\PSoC5/ETH.c **** }
 1793              		.loc 1 878 0
 1794 0024 1846     		mov	r0, r3
 1795 0026 07F10807 		add	r7, r7, #8
 1796 002a BD46     		mov	sp, r7
ARM GAS  C:\Users\CHUCK~1.ERH\AppData\Local\Temp\cclfQUCJ.s 			page 48


 1797 002c 80BD     		pop	{r7, pc}
 1798              		.cfi_endproc
 1799              	.LFE90:
 1800              		.size	ETH_GetSocketRxSize, .-ETH_GetSocketRxSize
 1801 002e 00BF     		.section	.text.ETH_SetSocketRxReadPtr,"ax",%progbits
 1802              		.align	2
 1803              		.global	ETH_SetSocketRxReadPtr
 1804              		.thumb
 1805              		.thumb_func
 1806              		.type	ETH_SetSocketRxReadPtr, %function
 1807              	ETH_SetSocketRxReadPtr:
 1808              	.LFB91:
 879:.\Generated_Source\PSoC5/ETH.c **** /* ------------------------------------------------------------------------ */
 880:.\Generated_Source\PSoC5/ETH.c **** /**
 881:.\Generated_Source\PSoC5/ETH.c ****  * \brief Write a value to the socket rx read pointer register
 882:.\Generated_Source\PSoC5/ETH.c ****  * \param socket the socket number for the addressed register
 883:.\Generated_Source\PSoC5/ETH.c ****  * \param ptr the value to be written to the register
 884:.\Generated_Source\PSoC5/ETH.c ****  */
 885:.\Generated_Source\PSoC5/ETH.c **** void ETH_SetSocketRxReadPtr(uint8 socket, uint16 ptr)
 886:.\Generated_Source\PSoC5/ETH.c **** { 
 1809              		.loc 1 886 0
 1810              		.cfi_startproc
 1811              		@ args = 0, pretend = 0, frame = 8
 1812              		@ frame_needed = 1, uses_anonymous_args = 0
 1813 0000 80B5     		push	{r7, lr}
 1814              	.LCFI103:
 1815              		.cfi_def_cfa_offset 8
 1816              		.cfi_offset 7, -8
 1817              		.cfi_offset 14, -4
 1818 0002 82B0     		sub	sp, sp, #8
 1819              	.LCFI104:
 1820              		.cfi_def_cfa_offset 16
 1821 0004 00AF     		add	r7, sp, #0
 1822              	.LCFI105:
 1823              		.cfi_def_cfa_register 7
 1824 0006 0246     		mov	r2, r0
 1825 0008 0B46     		mov	r3, r1
 1826 000a FA71     		strb	r2, [r7, #7]
 1827 000c BB80     		strh	r3, [r7, #4]	@ movhi
 887:.\Generated_Source\PSoC5/ETH.c **** 	ETH_ChipWrite16(ETH_SOCKET_REG(socket, ETH_SOCK_RXRD),ptr);
 1828              		.loc 1 887 0
 1829 000e FA79     		ldrb	r2, [r7, #7]	@ zero_extendqisi2
 1830 0010 40F20003 		movw	r3, #:lower16:ETH_W5500_BSB
 1831 0014 C0F20003 		movt	r3, #:upper16:ETH_W5500_BSB
 1832 0018 53F82230 		ldr	r3, [r3, r2, lsl #2]
 1833 001c 03F12802 		add	r2, r3, #40
 1834 0020 BB88     		ldrh	r3, [r7, #4]
 1835 0022 1046     		mov	r0, r2
 1836 0024 1946     		mov	r1, r3
 1837 0026 FFF7FEFF 		bl	ETH_ChipWrite16
 888:.\Generated_Source\PSoC5/ETH.c **** }
 1838              		.loc 1 888 0
 1839 002a 07F10807 		add	r7, r7, #8
 1840 002e BD46     		mov	sp, r7
 1841 0030 80BD     		pop	{r7, pc}
 1842              		.cfi_endproc
 1843              	.LFE91:
ARM GAS  C:\Users\CHUCK~1.ERH\AppData\Local\Temp\cclfQUCJ.s 			page 49


 1844              		.size	ETH_SetSocketRxReadPtr, .-ETH_SetSocketRxReadPtr
 1845 0032 00BF     		.section	.text.ETH_GetSocketRxReadPtr,"ax",%progbits
 1846              		.align	2
 1847              		.global	ETH_GetSocketRxReadPtr
 1848              		.thumb
 1849              		.thumb_func
 1850              		.type	ETH_GetSocketRxReadPtr, %function
 1851              	ETH_GetSocketRxReadPtr:
 1852              	.LFB92:
 889:.\Generated_Source\PSoC5/ETH.c **** /* ------------------------------------------------------------------------ */
 890:.\Generated_Source\PSoC5/ETH.c **** /**
 891:.\Generated_Source\PSoC5/ETH.c ****  * \brief Read a value from the socket rx buffer read pointer register
 892:.\Generated_Source\PSoC5/ETH.c ****  * \param socket the socket number for the addressed register
 893:.\Generated_Source\PSoC5/ETH.c ****  * \returns the value read from the register
 894:.\Generated_Source\PSoC5/ETH.c ****  */
 895:.\Generated_Source\PSoC5/ETH.c **** uint16 ETH_GetSocketRxReadPtr(uint8 socket)
 896:.\Generated_Source\PSoC5/ETH.c **** { 
 1853              		.loc 1 896 0
 1854              		.cfi_startproc
 1855              		@ args = 0, pretend = 0, frame = 8
 1856              		@ frame_needed = 1, uses_anonymous_args = 0
 1857 0000 80B5     		push	{r7, lr}
 1858              	.LCFI106:
 1859              		.cfi_def_cfa_offset 8
 1860              		.cfi_offset 7, -8
 1861              		.cfi_offset 14, -4
 1862 0002 82B0     		sub	sp, sp, #8
 1863              	.LCFI107:
 1864              		.cfi_def_cfa_offset 16
 1865 0004 00AF     		add	r7, sp, #0
 1866              	.LCFI108:
 1867              		.cfi_def_cfa_register 7
 1868 0006 0346     		mov	r3, r0
 1869 0008 FB71     		strb	r3, [r7, #7]
 897:.\Generated_Source\PSoC5/ETH.c **** 	return ETH_ChipRead16(ETH_SOCKET_REG(socket, ETH_SOCK_RXRD));
 1870              		.loc 1 897 0
 1871 000a FA79     		ldrb	r2, [r7, #7]	@ zero_extendqisi2
 1872 000c 40F20003 		movw	r3, #:lower16:ETH_W5500_BSB
 1873 0010 C0F20003 		movt	r3, #:upper16:ETH_W5500_BSB
 1874 0014 53F82230 		ldr	r3, [r3, r2, lsl #2]
 1875 0018 03F12803 		add	r3, r3, #40
 1876 001c 1846     		mov	r0, r3
 1877 001e FFF7FEFF 		bl	ETH_ChipRead16
 1878 0022 0346     		mov	r3, r0
 898:.\Generated_Source\PSoC5/ETH.c **** }
 1879              		.loc 1 898 0
 1880 0024 1846     		mov	r0, r3
 1881 0026 07F10807 		add	r7, r7, #8
 1882 002a BD46     		mov	sp, r7
 1883 002c 80BD     		pop	{r7, pc}
 1884              		.cfi_endproc
 1885              	.LFE92:
 1886              		.size	ETH_GetSocketRxReadPtr, .-ETH_GetSocketRxReadPtr
 1887 002e 00BF     		.section	.text.ETH_SetSocketRxWritePtr,"ax",%progbits
 1888              		.align	2
 1889              		.global	ETH_SetSocketRxWritePtr
 1890              		.thumb
ARM GAS  C:\Users\CHUCK~1.ERH\AppData\Local\Temp\cclfQUCJ.s 			page 50


 1891              		.thumb_func
 1892              		.type	ETH_SetSocketRxWritePtr, %function
 1893              	ETH_SetSocketRxWritePtr:
 1894              	.LFB93:
 899:.\Generated_Source\PSoC5/ETH.c **** /* ------------------------------------------------------------------------ */
 900:.\Generated_Source\PSoC5/ETH.c **** /**
 901:.\Generated_Source\PSoC5/ETH.c ****  * \brief Set the write poitner starting address for a socket
 902:.\Generated_Source\PSoC5/ETH.c ****  * \param socket the socket number to modify
 903:.\Generated_Source\PSoC5/ETH.c ****  * \param ptr the address value to write in to the pointer register
 904:.\Generated_Source\PSoC5/ETH.c ****  */
 905:.\Generated_Source\PSoC5/ETH.c **** void ETH_SetSocketRxWritePtr( uint8 socket, uint16 ptr)
 906:.\Generated_Source\PSoC5/ETH.c **** {
 1895              		.loc 1 906 0
 1896              		.cfi_startproc
 1897              		@ args = 0, pretend = 0, frame = 8
 1898              		@ frame_needed = 1, uses_anonymous_args = 0
 1899              		@ link register save eliminated.
 1900 0000 80B4     		push	{r7}
 1901              	.LCFI109:
 1902              		.cfi_def_cfa_offset 4
 1903              		.cfi_offset 7, -4
 1904 0002 83B0     		sub	sp, sp, #12
 1905              	.LCFI110:
 1906              		.cfi_def_cfa_offset 16
 1907 0004 00AF     		add	r7, sp, #0
 1908              	.LCFI111:
 1909              		.cfi_def_cfa_register 7
 1910 0006 0246     		mov	r2, r0
 1911 0008 0B46     		mov	r3, r1
 1912 000a FA71     		strb	r2, [r7, #7]
 1913 000c BB80     		strh	r3, [r7, #4]	@ movhi
 907:.\Generated_Source\PSoC5/ETH.c **** 	/*
 908:.\Generated_Source\PSoC5/ETH.c **** 	 * This function is not used on the W5100, since there is no register
 909:.\Generated_Source\PSoC5/ETH.c **** 	 * defined in the memor map to provide this capability
 910:.\Generated_Source\PSoC5/ETH.c **** 	 */
 911:.\Generated_Source\PSoC5/ETH.c **** #if (5 == 2)
 912:.\Generated_Source\PSoC5/ETH.c **** 	/*
 913:.\Generated_Source\PSoC5/ETH.c **** 	 * for the W5200 device, write the pointer value to the register
 914:.\Generated_Source\PSoC5/ETH.c **** 	 */
 915:.\Generated_Source\PSoC5/ETH.c **** 	ETH_ChipWrite16( ETH_SOCKET_REG(socket, ETH_SOCK_RXWR), ptr);
 916:.\Generated_Source\PSoC5/ETH.c **** #endif
 917:.\Generated_Source\PSoC5/ETH.c **** }
 1914              		.loc 1 917 0
 1915 000e 07F10C07 		add	r7, r7, #12
 1916 0012 BD46     		mov	sp, r7
 1917 0014 80BC     		pop	{r7}
 1918 0016 7047     		bx	lr
 1919              		.cfi_endproc
 1920              	.LFE93:
 1921              		.size	ETH_SetSocketRxWritePtr, .-ETH_SetSocketRxWritePtr
 1922              		.section	.text.ETH_SetSocketTxReadPtr,"ax",%progbits
 1923              		.align	2
 1924              		.global	ETH_SetSocketTxReadPtr
 1925              		.thumb
 1926              		.thumb_func
 1927              		.type	ETH_SetSocketTxReadPtr, %function
 1928              	ETH_SetSocketTxReadPtr:
ARM GAS  C:\Users\CHUCK~1.ERH\AppData\Local\Temp\cclfQUCJ.s 			page 51


 1929              	.LFB94:
 918:.\Generated_Source\PSoC5/ETH.c **** /* ------------------------------------------------------------------------ */
 919:.\Generated_Source\PSoC5/ETH.c **** /**
 920:.\Generated_Source\PSoC5/ETH.c ****  * \brief Initialize the Tx buffer Read pointer register
 921:.\Generated_Source\PSoC5/ETH.c ****  * \param socket the sockt to be modified
 922:.\Generated_Source\PSoC5/ETH.c ****  * \param ptr the address to store in to the pointer register
 923:.\Generated_Source\PSoC5/ETH.c **** */
 924:.\Generated_Source\PSoC5/ETH.c **** void ETH_SetSocketTxReadPtr(uint8 socket, uint16 ptr )
 925:.\Generated_Source\PSoC5/ETH.c **** {
 1930              		.loc 1 925 0
 1931              		.cfi_startproc
 1932              		@ args = 0, pretend = 0, frame = 8
 1933              		@ frame_needed = 1, uses_anonymous_args = 0
 1934 0000 80B5     		push	{r7, lr}
 1935              	.LCFI112:
 1936              		.cfi_def_cfa_offset 8
 1937              		.cfi_offset 7, -8
 1938              		.cfi_offset 14, -4
 1939 0002 82B0     		sub	sp, sp, #8
 1940              	.LCFI113:
 1941              		.cfi_def_cfa_offset 16
 1942 0004 00AF     		add	r7, sp, #0
 1943              	.LCFI114:
 1944              		.cfi_def_cfa_register 7
 1945 0006 0246     		mov	r2, r0
 1946 0008 0B46     		mov	r3, r1
 1947 000a FA71     		strb	r2, [r7, #7]
 1948 000c BB80     		strh	r3, [r7, #4]	@ movhi
 926:.\Generated_Source\PSoC5/ETH.c **** 	ETH_ChipWrite16( ETH_SOCKET_REG(socket, ETH_SOCK_TXRD), ptr);
 1949              		.loc 1 926 0
 1950 000e FA79     		ldrb	r2, [r7, #7]	@ zero_extendqisi2
 1951 0010 40F20003 		movw	r3, #:lower16:ETH_W5500_BSB
 1952 0014 C0F20003 		movt	r3, #:upper16:ETH_W5500_BSB
 1953 0018 53F82230 		ldr	r3, [r3, r2, lsl #2]
 1954 001c 03F12202 		add	r2, r3, #34
 1955 0020 BB88     		ldrh	r3, [r7, #4]
 1956 0022 1046     		mov	r0, r2
 1957 0024 1946     		mov	r1, r3
 1958 0026 FFF7FEFF 		bl	ETH_ChipWrite16
 927:.\Generated_Source\PSoC5/ETH.c **** }
 1959              		.loc 1 927 0
 1960 002a 07F10807 		add	r7, r7, #8
 1961 002e BD46     		mov	sp, r7
 1962 0030 80BD     		pop	{r7, pc}
 1963              		.cfi_endproc
 1964              	.LFE94:
 1965              		.size	ETH_SetSocketTxReadPtr, .-ETH_SetSocketTxReadPtr
 1966 0032 00BF     		.section	.text.ETH_ExecuteSocketCommand,"ax",%progbits
 1967              		.align	2
 1968              		.global	ETH_ExecuteSocketCommand
 1969              		.thumb
 1970              		.thumb_func
 1971              		.type	ETH_ExecuteSocketCommand, %function
 1972              	ETH_ExecuteSocketCommand:
 1973              	.LFB95:
 928:.\Generated_Source\PSoC5/ETH.c **** /* ------------------------------------------------------------------------ */
 929:.\Generated_Source\PSoC5/ETH.c **** /**
ARM GAS  C:\Users\CHUCK~1.ERH\AppData\Local\Temp\cclfQUCJ.s 			page 52


 930:.\Generated_Source\PSoC5/ETH.c ****  * \brief Write a command to the socket command register and wait for completion
 931:.\Generated_Source\PSoC5/ETH.c ****  * \param socket the addressed socket for the command
 932:.\Generated_Source\PSoC5/ETH.c ****  * \param cmd the command to execute
 933:.\Generated_Source\PSoC5/ETH.c ****  */
 934:.\Generated_Source\PSoC5/ETH.c **** uint32 ETH_ExecuteSocketCommand( uint8 socket, int cmd)
 935:.\Generated_Source\PSoC5/ETH.c **** {
 1974              		.loc 1 935 0
 1975              		.cfi_startproc
 1976              		@ args = 0, pretend = 0, frame = 16
 1977              		@ frame_needed = 1, uses_anonymous_args = 0
 1978 0000 80B5     		push	{r7, lr}
 1979              	.LCFI115:
 1980              		.cfi_def_cfa_offset 8
 1981              		.cfi_offset 7, -8
 1982              		.cfi_offset 14, -4
 1983 0002 84B0     		sub	sp, sp, #16
 1984              	.LCFI116:
 1985              		.cfi_def_cfa_offset 24
 1986 0004 00AF     		add	r7, sp, #0
 1987              	.LCFI117:
 1988              		.cfi_def_cfa_register 7
 1989 0006 0346     		mov	r3, r0
 1990 0008 3960     		str	r1, [r7, #0]
 1991 000a FB71     		strb	r3, [r7, #7]
 936:.\Generated_Source\PSoC5/ETH.c **** 	uint32 timeout;
 937:.\Generated_Source\PSoC5/ETH.c **** 	timeout = 0;
 1992              		.loc 1 937 0
 1993 000c 4FF00003 		mov	r3, #0
 1994 0010 FB60     		str	r3, [r7, #12]
 938:.\Generated_Source\PSoC5/ETH.c **** 	
 939:.\Generated_Source\PSoC5/ETH.c **** 	ETH_SetSocketCommand(socket,cmd);
 1995              		.loc 1 939 0
 1996 0012 3B68     		ldr	r3, [r7, #0]
 1997 0014 DBB2     		uxtb	r3, r3
 1998 0016 FA79     		ldrb	r2, [r7, #7]	@ zero_extendqisi2
 1999 0018 1046     		mov	r0, r2
 2000 001a 1946     		mov	r1, r3
 2001 001c FFF7FEFF 		bl	ETH_SetSocketCommand
 940:.\Generated_Source\PSoC5/ETH.c **** 	while ( ( ETH_GetSocketCommand(socket) ) && (timeout < 125))
 2002              		.loc 1 940 0
 2003 0020 07E0     		b	.L74
 2004              	.L76:
 941:.\Generated_Source\PSoC5/ETH.c **** 	{
 942:.\Generated_Source\PSoC5/ETH.c **** 		++timeout;
 2005              		.loc 1 942 0
 2006 0022 FB68     		ldr	r3, [r7, #12]
 2007 0024 03F10103 		add	r3, r3, #1
 2008 0028 FB60     		str	r3, [r7, #12]
 943:.\Generated_Source\PSoC5/ETH.c **** 		CyDelay(1);
 2009              		.loc 1 943 0
 2010 002a 4FF00100 		mov	r0, #1
 2011 002e FFF7FEFF 		bl	CyDelay
 2012              	.L74:
 940:.\Generated_Source\PSoC5/ETH.c **** 	while ( ( ETH_GetSocketCommand(socket) ) && (timeout < 125))
 2013              		.loc 1 940 0 discriminator 1
 2014 0032 FB79     		ldrb	r3, [r7, #7]	@ zero_extendqisi2
 2015 0034 1846     		mov	r0, r3
ARM GAS  C:\Users\CHUCK~1.ERH\AppData\Local\Temp\cclfQUCJ.s 			page 53


 2016 0036 FFF7FEFF 		bl	ETH_GetSocketCommand
 2017 003a 0346     		mov	r3, r0
 2018 003c 002B     		cmp	r3, #0
 2019 003e 02D0     		beq	.L75
 940:.\Generated_Source\PSoC5/ETH.c **** 	while ( ( ETH_GetSocketCommand(socket) ) && (timeout < 125))
 2020              		.loc 1 940 0 is_stmt 0 discriminator 2
 2021 0040 FB68     		ldr	r3, [r7, #12]
 2022 0042 7C2B     		cmp	r3, #124
 2023 0044 EDD9     		bls	.L76
 2024              	.L75:
 944:.\Generated_Source\PSoC5/ETH.c **** 	}
 945:.\Generated_Source\PSoC5/ETH.c **** 	return( timeout );
 2025              		.loc 1 945 0 is_stmt 1
 2026 0046 FB68     		ldr	r3, [r7, #12]
 946:.\Generated_Source\PSoC5/ETH.c **** }
 2027              		.loc 1 946 0
 2028 0048 1846     		mov	r0, r3
 2029 004a 07F11007 		add	r7, r7, #16
 2030 004e BD46     		mov	sp, r7
 2031 0050 80BD     		pop	{r7, pc}
 2032              		.cfi_endproc
 2033              	.LFE95:
 2034              		.size	ETH_ExecuteSocketCommand, .-ETH_ExecuteSocketCommand
 2035 0052 00BF     		.section	.text.ETH_GetTxFreeSize,"ax",%progbits
 2036              		.align	2
 2037              		.global	ETH_GetTxFreeSize
 2038              		.thumb
 2039              		.thumb_func
 2040              		.type	ETH_GetTxFreeSize, %function
 2041              	ETH_GetTxFreeSize:
 2042              	.LFB96:
 947:.\Generated_Source\PSoC5/ETH.c **** /* ------------------------------------------------------------------------ */
 948:.\Generated_Source\PSoC5/ETH.c **** /**
 949:.\Generated_Source\PSoC5/ETH.c ****  * \brief Execute a safe read fo the Tx buffer free size register
 950:.\Generated_Source\PSoC5/ETH.c ****  * \param socket the addressed socket to read the available tx buffer
 951:.\Generated_Source\PSoC5/ETH.c ****  * \returns the number of bytes available in the transmit buffer for the socket
 952:.\Generated_Source\PSoC5/ETH.c ****  */
 953:.\Generated_Source\PSoC5/ETH.c **** uint16 ETH_GetTxFreeSize( uint8 socket )
 954:.\Generated_Source\PSoC5/ETH.c **** {
 2043              		.loc 1 954 0
 2044              		.cfi_startproc
 2045              		@ args = 0, pretend = 0, frame = 16
 2046              		@ frame_needed = 1, uses_anonymous_args = 0
 2047 0000 80B5     		push	{r7, lr}
 2048              	.LCFI118:
 2049              		.cfi_def_cfa_offset 8
 2050              		.cfi_offset 7, -8
 2051              		.cfi_offset 14, -4
 2052 0002 84B0     		sub	sp, sp, #16
 2053              	.LCFI119:
 2054              		.cfi_def_cfa_offset 24
 2055 0004 00AF     		add	r7, sp, #0
 2056              	.LCFI120:
 2057              		.cfi_def_cfa_register 7
 2058 0006 0346     		mov	r3, r0
 2059 0008 FB71     		strb	r3, [r7, #7]
 955:.\Generated_Source\PSoC5/ETH.c **** 	uint16 first, second;
ARM GAS  C:\Users\CHUCK~1.ERH\AppData\Local\Temp\cclfQUCJ.s 			page 54


 956:.\Generated_Source\PSoC5/ETH.c **** 	
 957:.\Generated_Source\PSoC5/ETH.c **** 	first = 0;
 2060              		.loc 1 957 0
 2061 000a 4FF00003 		mov	r3, #0
 2062 000e BB81     		strh	r3, [r7, #12]	@ movhi
 958:.\Generated_Source\PSoC5/ETH.c **** 	second = 0;
 2063              		.loc 1 958 0
 2064 0010 4FF00003 		mov	r3, #0
 2065 0014 FB81     		strh	r3, [r7, #14]	@ movhi
 2066              	.L80:
 959:.\Generated_Source\PSoC5/ETH.c **** 	do {
 960:.\Generated_Source\PSoC5/ETH.c **** 		first = ETH_GetSocketTxFree( socket );
 2067              		.loc 1 960 0
 2068 0016 FB79     		ldrb	r3, [r7, #7]	@ zero_extendqisi2
 2069 0018 1846     		mov	r0, r3
 2070 001a FFF7FEFF 		bl	ETH_GetSocketTxFree
 2071 001e 0346     		mov	r3, r0
 2072 0020 BB81     		strh	r3, [r7, #12]	@ movhi
 961:.\Generated_Source\PSoC5/ETH.c **** 		if (first != 0) {
 2073              		.loc 1 961 0
 2074 0022 BB89     		ldrh	r3, [r7, #12]
 2075 0024 002B     		cmp	r3, #0
 2076 0026 05D0     		beq	.L79
 962:.\Generated_Source\PSoC5/ETH.c **** 			second = ETH_GetSocketTxFree( socket );
 2077              		.loc 1 962 0
 2078 0028 FB79     		ldrb	r3, [r7, #7]	@ zero_extendqisi2
 2079 002a 1846     		mov	r0, r3
 2080 002c FFF7FEFF 		bl	ETH_GetSocketTxFree
 2081 0030 0346     		mov	r3, r0
 2082 0032 FB81     		strh	r3, [r7, #14]	@ movhi
 2083              	.L79:
 963:.\Generated_Source\PSoC5/ETH.c **** 		}
 964:.\Generated_Source\PSoC5/ETH.c **** 	}
 965:.\Generated_Source\PSoC5/ETH.c **** 	while (first != second );
 2084              		.loc 1 965 0
 2085 0034 BA89     		ldrh	r2, [r7, #12]
 2086 0036 FB89     		ldrh	r3, [r7, #14]
 2087 0038 9A42     		cmp	r2, r3
 2088 003a ECD1     		bne	.L80
 966:.\Generated_Source\PSoC5/ETH.c **** 	
 967:.\Generated_Source\PSoC5/ETH.c **** 	return( second );
 2089              		.loc 1 967 0
 2090 003c FB89     		ldrh	r3, [r7, #14]
 968:.\Generated_Source\PSoC5/ETH.c **** }
 2091              		.loc 1 968 0
 2092 003e 1846     		mov	r0, r3
 2093 0040 07F11007 		add	r7, r7, #16
 2094 0044 BD46     		mov	sp, r7
 2095 0046 80BD     		pop	{r7, pc}
 2096              		.cfi_endproc
 2097              	.LFE96:
 2098              		.size	ETH_GetTxFreeSize, .-ETH_GetTxFreeSize
 2099              		.section	.text.ETH_GetRxSize,"ax",%progbits
 2100              		.align	2
 2101              		.global	ETH_GetRxSize
 2102              		.thumb
 2103              		.thumb_func
ARM GAS  C:\Users\CHUCK~1.ERH\AppData\Local\Temp\cclfQUCJ.s 			page 55


 2104              		.type	ETH_GetRxSize, %function
 2105              	ETH_GetRxSize:
 2106              	.LFB97:
 969:.\Generated_Source\PSoC5/ETH.c **** /* ------------------------------------------------------------------------ */
 970:.\Generated_Source\PSoC5/ETH.c **** /**
 971:.\Generated_Source\PSoC5/ETH.c ****  * \brief Execute a safe read of the received data size
 972:.\Generated_Source\PSoC5/ETH.c ****  * \param socket the addressed socketfrom which the data will be read
 973:.\Generated_Source\PSoC5/ETH.c ****  * \returns the number of bytes waiting in the recieve buffer of the socket
 974:.\Generated_Source\PSoC5/ETH.c ****  */
 975:.\Generated_Source\PSoC5/ETH.c **** uint16 ETH_GetRxSize( uint8 socket )
 976:.\Generated_Source\PSoC5/ETH.c **** {
 2107              		.loc 1 976 0
 2108              		.cfi_startproc
 2109              		@ args = 0, pretend = 0, frame = 16
 2110              		@ frame_needed = 1, uses_anonymous_args = 0
 2111 0000 80B5     		push	{r7, lr}
 2112              	.LCFI121:
 2113              		.cfi_def_cfa_offset 8
 2114              		.cfi_offset 7, -8
 2115              		.cfi_offset 14, -4
 2116 0002 84B0     		sub	sp, sp, #16
 2117              	.LCFI122:
 2118              		.cfi_def_cfa_offset 24
 2119 0004 00AF     		add	r7, sp, #0
 2120              	.LCFI123:
 2121              		.cfi_def_cfa_register 7
 2122 0006 0346     		mov	r3, r0
 2123 0008 FB71     		strb	r3, [r7, #7]
 977:.\Generated_Source\PSoC5/ETH.c **** 	uint16 first, second;
 978:.\Generated_Source\PSoC5/ETH.c **** 	
 979:.\Generated_Source\PSoC5/ETH.c **** 	first = 0;
 2124              		.loc 1 979 0
 2125 000a 4FF00003 		mov	r3, #0
 2126 000e BB81     		strh	r3, [r7, #12]	@ movhi
 980:.\Generated_Source\PSoC5/ETH.c **** 	second = 0;
 2127              		.loc 1 980 0
 2128 0010 4FF00003 		mov	r3, #0
 2129 0014 FB81     		strh	r3, [r7, #14]	@ movhi
 2130              	.L84:
 981:.\Generated_Source\PSoC5/ETH.c **** 	do {
 982:.\Generated_Source\PSoC5/ETH.c **** 		first = ETH_GetSocketRxSize( socket );
 2131              		.loc 1 982 0
 2132 0016 FB79     		ldrb	r3, [r7, #7]	@ zero_extendqisi2
 2133 0018 1846     		mov	r0, r3
 2134 001a FFF7FEFF 		bl	ETH_GetSocketRxSize
 2135 001e 0346     		mov	r3, r0
 2136 0020 BB81     		strh	r3, [r7, #12]	@ movhi
 983:.\Generated_Source\PSoC5/ETH.c **** 		if (first != 0) {
 2137              		.loc 1 983 0
 2138 0022 BB89     		ldrh	r3, [r7, #12]
 2139 0024 002B     		cmp	r3, #0
 2140 0026 05D0     		beq	.L83
 984:.\Generated_Source\PSoC5/ETH.c **** 			second = ETH_GetSocketRxSize( socket );
 2141              		.loc 1 984 0
 2142 0028 FB79     		ldrb	r3, [r7, #7]	@ zero_extendqisi2
 2143 002a 1846     		mov	r0, r3
 2144 002c FFF7FEFF 		bl	ETH_GetSocketRxSize
ARM GAS  C:\Users\CHUCK~1.ERH\AppData\Local\Temp\cclfQUCJ.s 			page 56


 2145 0030 0346     		mov	r3, r0
 2146 0032 FB81     		strh	r3, [r7, #14]	@ movhi
 2147              	.L83:
 985:.\Generated_Source\PSoC5/ETH.c **** 		}
 986:.\Generated_Source\PSoC5/ETH.c **** 	}
 987:.\Generated_Source\PSoC5/ETH.c **** 	while (first != second );
 2148              		.loc 1 987 0
 2149 0034 BA89     		ldrh	r2, [r7, #12]
 2150 0036 FB89     		ldrh	r3, [r7, #14]
 2151 0038 9A42     		cmp	r2, r3
 2152 003a ECD1     		bne	.L84
 988:.\Generated_Source\PSoC5/ETH.c **** 	
 989:.\Generated_Source\PSoC5/ETH.c **** 	return second;
 2153              		.loc 1 989 0
 2154 003c FB89     		ldrh	r3, [r7, #14]
 990:.\Generated_Source\PSoC5/ETH.c **** }
 2155              		.loc 1 990 0
 2156 003e 1846     		mov	r0, r3
 2157 0040 07F11007 		add	r7, r7, #16
 2158 0044 BD46     		mov	sp, r7
 2159 0046 80BD     		pop	{r7, pc}
 2160              		.cfi_endproc
 2161              	.LFE97:
 2162              		.size	ETH_GetRxSize, .-ETH_GetRxSize
 2163              		.section	.text.ETH_ProcessTxData,"ax",%progbits
 2164              		.align	2
 2165              		.global	ETH_ProcessTxData
 2166              		.thumb
 2167              		.thumb_func
 2168              		.type	ETH_ProcessTxData, %function
 2169              	ETH_ProcessTxData:
 2170              	.LFB98:
 991:.\Generated_Source\PSoC5/ETH.c **** /* ------------------------------------------------------------------------ */
 992:.\Generated_Source\PSoC5/ETH.c **** 
 993:.\Generated_Source\PSoC5/ETH.c **** // END Socket Register access section
 994:.\Generated_Source\PSoC5/ETH.c **** #endif
 995:.\Generated_Source\PSoC5/ETH.c **** /* ======================================================================== */
 996:.\Generated_Source\PSoC5/ETH.c **** /* W5x00 Data Buffer Memory access primitives */
 997:.\Generated_Source\PSoC5/ETH.c **** #if (1)
 998:.\Generated_Source\PSoC5/ETH.c **** /* ------------------------------------------------------------------------ */
 999:.\Generated_Source\PSoC5/ETH.c **** /**
1000:.\Generated_Source\PSoC5/ETH.c ****  * \brief Transfer data from a local data buffer to the chip Tx fifo
1001:.\Generated_Source\PSoC5/ETH.c ****  * \param socket the socket buffer to which the data will be written
1002:.\Generated_Source\PSoC5/ETH.c ****  * \param offset The offest in to the socket buffer
1003:.\Generated_Source\PSoC5/ETH.c ****  * \param *buffer pointer to the local buffer to copy to the transmit fifo
1004:.\Generated_Source\PSoC5/ETH.c ****  * \param length the number of bytes to be copied to the transmit fifo
1005:.\Generated_Source\PSoC5/ETH.c ****  */
1006:.\Generated_Source\PSoC5/ETH.c **** void ETH_ProcessTxData(uint8 socket, uint16 offset, uint8* buffer, uint16 length)
1007:.\Generated_Source\PSoC5/ETH.c **** {
 2171              		.loc 1 1007 0
 2172              		.cfi_startproc
 2173              		@ args = 0, pretend = 0, frame = 24
 2174              		@ frame_needed = 1, uses_anonymous_args = 0
 2175 0000 80B5     		push	{r7, lr}
 2176              	.LCFI124:
 2177              		.cfi_def_cfa_offset 8
 2178              		.cfi_offset 7, -8
ARM GAS  C:\Users\CHUCK~1.ERH\AppData\Local\Temp\cclfQUCJ.s 			page 57


 2179              		.cfi_offset 14, -4
 2180 0002 86B0     		sub	sp, sp, #24
 2181              	.LCFI125:
 2182              		.cfi_def_cfa_offset 32
 2183 0004 00AF     		add	r7, sp, #0
 2184              	.LCFI126:
 2185              		.cfi_def_cfa_register 7
 2186 0006 BA60     		str	r2, [r7, #8]
 2187 0008 0246     		mov	r2, r0
 2188 000a FA73     		strb	r2, [r7, #15]
 2189 000c 0A46     		mov	r2, r1	@ movhi
 2190 000e BA81     		strh	r2, [r7, #12]	@ movhi
 2191 0010 FB80     		strh	r3, [r7, #6]	@ movhi
1008:.\Generated_Source\PSoC5/ETH.c **** 	uint16 addr;
1009:.\Generated_Source\PSoC5/ETH.c **** 	uint16 base;
1010:.\Generated_Source\PSoC5/ETH.c **** 	uint16 PointerOffset;
1011:.\Generated_Source\PSoC5/ETH.c **** 	uint16 size;
1012:.\Generated_Source\PSoC5/ETH.c **** 	
1013:.\Generated_Source\PSoC5/ETH.c **** 	/*
1014:.\Generated_Source\PSoC5/ETH.c **** 	 * Read the offset pointer, and calculate the base address for the start of write
1015:.\Generated_Source\PSoC5/ETH.c **** 	 * in to the chip buffers.  Written data will be offset by the offset byte count
1016:.\Generated_Source\PSoC5/ETH.c **** 	 * specified in the parameters.
1017:.\Generated_Source\PSoC5/ETH.c **** 	 */
1018:.\Generated_Source\PSoC5/ETH.c **** 	base = ETH_GetSocketTxWritePtr(socket) + offset;
 2192              		.loc 1 1018 0
 2193 0012 FB7B     		ldrb	r3, [r7, #15]	@ zero_extendqisi2
 2194 0014 1846     		mov	r0, r3
 2195 0016 FFF7FEFF 		bl	ETH_GetSocketTxWritePtr
 2196 001a 0346     		mov	r3, r0
 2197 001c 1A46     		mov	r2, r3
 2198 001e BB89     		ldrh	r3, [r7, #12]	@ movhi
 2199 0020 D318     		adds	r3, r2, r3
 2200 0022 FB82     		strh	r3, [r7, #22]	@ movhi
1019:.\Generated_Source\PSoC5/ETH.c **** 	PointerOffset = (base & 0x07FF);
 2201              		.loc 1 1019 0
 2202 0024 FB8A     		ldrh	r3, [r7, #22]	@ movhi
 2203 0026 4FEA4353 		lsl	r3, r3, #21
 2204 002a 4FEA5353 		lsr	r3, r3, #21
 2205 002e BB82     		strh	r3, [r7, #20]	@ movhi
1020:.\Generated_Source\PSoC5/ETH.c **** 	addr = PointerOffset + ETH_SOCKET_TX_BASE[socket];
 2206              		.loc 1 1020 0
 2207 0030 FA7B     		ldrb	r2, [r7, #15]	@ zero_extendqisi2
 2208 0032 40F20003 		movw	r3, #:lower16:ETH_SOCKET_TX_BASE
 2209 0036 C0F20003 		movt	r3, #:upper16:ETH_SOCKET_TX_BASE
 2210 003a 53F82230 		ldr	r3, [r3, r2, lsl #2]
 2211 003e 9AB2     		uxth	r2, r3
 2212 0040 BB8A     		ldrh	r3, [r7, #20]	@ movhi
 2213 0042 D318     		adds	r3, r2, r3
 2214 0044 7B82     		strh	r3, [r7, #18]	@ movhi
1021:.\Generated_Source\PSoC5/ETH.c **** 	/* calculate the number of bytes from the pointer to the end of the buffer */
1022:.\Generated_Source\PSoC5/ETH.c **** 	size = 0x0800 - PointerOffset;
 2215              		.loc 1 1022 0
 2216 0046 BB8A     		ldrh	r3, [r7, #20]	@ movhi
 2217 0048 C3F50063 		rsb	r3, r3, #2048
 2218 004c 3B82     		strh	r3, [r7, #16]	@ movhi
1023:.\Generated_Source\PSoC5/ETH.c **** 	
1024:.\Generated_Source\PSoC5/ETH.c **** 	/*
ARM GAS  C:\Users\CHUCK~1.ERH\AppData\Local\Temp\cclfQUCJ.s 			page 58


1025:.\Generated_Source\PSoC5/ETH.c **** 	 * is there enough space to write the complete packet
1026:.\Generated_Source\PSoC5/ETH.c **** 	 * or, shoudl the data be split in to two writes.
1027:.\Generated_Source\PSoC5/ETH.c **** 	 */
1028:.\Generated_Source\PSoC5/ETH.c **** 	if ( length > size) {
 2219              		.loc 1 1028 0
 2220 004e FA88     		ldrh	r2, [r7, #6]
 2221 0050 3B8A     		ldrh	r3, [r7, #16]
 2222 0052 9A42     		cmp	r2, r3
 2223 0054 1AD9     		bls	.L87
1029:.\Generated_Source\PSoC5/ETH.c **** 		/*
1030:.\Generated_Source\PSoC5/ETH.c **** 		 * There is more data to send than will fit from the pointer to the end
1031:.\Generated_Source\PSoC5/ETH.c **** 		 * of the memory, so we will write the data in two chunks.  First, write the
1032:.\Generated_Source\PSoC5/ETH.c **** 		 * data from the pointer to the end of the buffer, then write the portion
1033:.\Generated_Source\PSoC5/ETH.c **** 		 * remaining to the start (base ptr) of the socket buffer
1034:.\Generated_Source\PSoC5/ETH.c **** 		 */
1035:.\Generated_Source\PSoC5/ETH.c **** 		ETH_ChipWrite(addr, buffer, size);
 2224              		.loc 1 1035 0
 2225 0056 7A8A     		ldrh	r2, [r7, #18]
 2226 0058 3B8A     		ldrh	r3, [r7, #16]
 2227 005a 1046     		mov	r0, r2
 2228 005c B968     		ldr	r1, [r7, #8]
 2229 005e 1A46     		mov	r2, r3
 2230 0060 FFF7FEFF 		bl	ETH_ChipWrite
1036:.\Generated_Source\PSoC5/ETH.c **** 		ETH_ChipWrite(ETH_SOCKET_TX_BASE[socket], &buffer[size], length - size);
 2231              		.loc 1 1036 0
 2232 0064 FA7B     		ldrb	r2, [r7, #15]	@ zero_extendqisi2
 2233 0066 40F20003 		movw	r3, #:lower16:ETH_SOCKET_TX_BASE
 2234 006a C0F20003 		movt	r3, #:upper16:ETH_SOCKET_TX_BASE
 2235 006e 53F82210 		ldr	r1, [r3, r2, lsl #2]
 2236 0072 3B8A     		ldrh	r3, [r7, #16]
 2237 0074 BA68     		ldr	r2, [r7, #8]
 2238 0076 D218     		adds	r2, r2, r3
 2239 0078 F888     		ldrh	r0, [r7, #6]	@ movhi
 2240 007a 3B8A     		ldrh	r3, [r7, #16]	@ movhi
 2241 007c C31A     		subs	r3, r0, r3
 2242 007e 9BB2     		uxth	r3, r3
 2243 0080 0846     		mov	r0, r1
 2244 0082 1146     		mov	r1, r2
 2245 0084 1A46     		mov	r2, r3
 2246 0086 FFF7FEFF 		bl	ETH_ChipWrite
 2247 008a 06E0     		b	.L88
 2248              	.L87:
1037:.\Generated_Source\PSoC5/ETH.c **** 	}
1038:.\Generated_Source\PSoC5/ETH.c **** 	else {
1039:.\Generated_Source\PSoC5/ETH.c **** 		/* 
1040:.\Generated_Source\PSoC5/ETH.c **** 		 * there is enough available space from the write point to the end of buffer
1041:.\Generated_Source\PSoC5/ETH.c **** 		 * to hold the whole packe of information, so just write it to the memory
1042:.\Generated_Source\PSoC5/ETH.c **** 		 */
1043:.\Generated_Source\PSoC5/ETH.c **** 		ETH_ChipWrite(addr,buffer,length);
 2249              		.loc 1 1043 0
 2250 008c 7A8A     		ldrh	r2, [r7, #18]
 2251 008e FB88     		ldrh	r3, [r7, #6]
 2252 0090 1046     		mov	r0, r2
 2253 0092 B968     		ldr	r1, [r7, #8]
 2254 0094 1A46     		mov	r2, r3
 2255 0096 FFF7FEFF 		bl	ETH_ChipWrite
 2256              	.L88:
ARM GAS  C:\Users\CHUCK~1.ERH\AppData\Local\Temp\cclfQUCJ.s 			page 59


1044:.\Generated_Source\PSoC5/ETH.c **** 	}
1045:.\Generated_Source\PSoC5/ETH.c **** 	/* move the write pointer */
1046:.\Generated_Source\PSoC5/ETH.c **** 	base += length;
 2257              		.loc 1 1046 0
 2258 009a FA8A     		ldrh	r2, [r7, #22]	@ movhi
 2259 009c FB88     		ldrh	r3, [r7, #6]	@ movhi
 2260 009e D318     		adds	r3, r2, r3
 2261 00a0 FB82     		strh	r3, [r7, #22]	@ movhi
1047:.\Generated_Source\PSoC5/ETH.c **** 	/* 
1048:.\Generated_Source\PSoC5/ETH.c **** 	 * Store the new write pointer so that the device knows that there is data waiting
1049:.\Generated_Source\PSoC5/ETH.c **** 	 * to be transmitted over the link.
1050:.\Generated_Source\PSoC5/ETH.c **** 	 */
1051:.\Generated_Source\PSoC5/ETH.c **** 	ETH_SetSocketTxWritePtr(socket, base);
 2262              		.loc 1 1051 0
 2263 00a2 FA7B     		ldrb	r2, [r7, #15]	@ zero_extendqisi2
 2264 00a4 FB8A     		ldrh	r3, [r7, #22]
 2265 00a6 1046     		mov	r0, r2
 2266 00a8 1946     		mov	r1, r3
 2267 00aa FFF7FEFF 		bl	ETH_SetSocketTxWritePtr
1052:.\Generated_Source\PSoC5/ETH.c **** }
 2268              		.loc 1 1052 0
 2269 00ae 07F11807 		add	r7, r7, #24
 2270 00b2 BD46     		mov	sp, r7
 2271 00b4 80BD     		pop	{r7, pc}
 2272              		.cfi_endproc
 2273              	.LFE98:
 2274              		.size	ETH_ProcessTxData, .-ETH_ProcessTxData
 2275 00b6 00BF     		.section	.text.ETH_ProcessRxData,"ax",%progbits
 2276              		.align	2
 2277              		.global	ETH_ProcessRxData
 2278              		.thumb
 2279              		.thumb_func
 2280              		.type	ETH_ProcessRxData, %function
 2281              	ETH_ProcessRxData:
 2282              	.LFB99:
1053:.\Generated_Source\PSoC5/ETH.c **** /* ------------------------------------------------------------------------ */
1054:.\Generated_Source\PSoC5/ETH.c **** /**
1055:.\Generated_Source\PSoC5/ETH.c ****  * \brief Transfer data from the chip receive buffer to a local buffer
1056:.\Generated_Source\PSoC5/ETH.c ****  * \param socket the socket buffer from which the data will be read
1057:.\Generated_Source\PSoC5/ETH.c ****  * \param offset The offest in to the socket buffer
1058:.\Generated_Source\PSoC5/ETH.c ****  * \param *buffer pointer to the local buffer to hold the receive fifo data
1059:.\Generated_Source\PSoC5/ETH.c ****  * \param length the max number of bytes to be copied to the local buffer
1060:.\Generated_Source\PSoC5/ETH.c ****  * \param flags Flag settings to control read fifo options (lookahead)
1061:.\Generated_Source\PSoC5/ETH.c ****  */
1062:.\Generated_Source\PSoC5/ETH.c **** void ETH_ProcessRxData(uint8 socket, uint16 offset, uint8* buffer, uint16 length, uint8 flags)
1063:.\Generated_Source\PSoC5/ETH.c **** {
 2283              		.loc 1 1063 0
 2284              		.cfi_startproc
 2285              		@ args = 4, pretend = 0, frame = 24
 2286              		@ frame_needed = 1, uses_anonymous_args = 0
 2287 0000 80B5     		push	{r7, lr}
 2288              	.LCFI127:
 2289              		.cfi_def_cfa_offset 8
 2290              		.cfi_offset 7, -8
 2291              		.cfi_offset 14, -4
 2292 0002 86B0     		sub	sp, sp, #24
 2293              	.LCFI128:
ARM GAS  C:\Users\CHUCK~1.ERH\AppData\Local\Temp\cclfQUCJ.s 			page 60


 2294              		.cfi_def_cfa_offset 32
 2295 0004 00AF     		add	r7, sp, #0
 2296              	.LCFI129:
 2297              		.cfi_def_cfa_register 7
 2298 0006 BA60     		str	r2, [r7, #8]
 2299 0008 0246     		mov	r2, r0
 2300 000a FA73     		strb	r2, [r7, #15]
 2301 000c 0A46     		mov	r2, r1	@ movhi
 2302 000e BA81     		strh	r2, [r7, #12]	@ movhi
 2303 0010 FB80     		strh	r3, [r7, #6]	@ movhi
1064:.\Generated_Source\PSoC5/ETH.c **** 	uint16 addr;
1065:.\Generated_Source\PSoC5/ETH.c **** 	uint16 base;
1066:.\Generated_Source\PSoC5/ETH.c **** 	uint16 PointerOffset;
1067:.\Generated_Source\PSoC5/ETH.c **** 	uint16 size;
1068:.\Generated_Source\PSoC5/ETH.c **** 	
1069:.\Generated_Source\PSoC5/ETH.c **** 	/*
1070:.\Generated_Source\PSoC5/ETH.c **** 	 * Read the offset pointer, and calculate the base address for the start of read
1071:.\Generated_Source\PSoC5/ETH.c **** 	 * in to the chip buffers.  The data read will be offset by the offset byte count
1072:.\Generated_Source\PSoC5/ETH.c **** 	 * specified in the parameters.
1073:.\Generated_Source\PSoC5/ETH.c **** 	 */
1074:.\Generated_Source\PSoC5/ETH.c **** 	base = ETH_GetSocketRxReadPtr(socket) + offset;
 2304              		.loc 1 1074 0
 2305 0012 FB7B     		ldrb	r3, [r7, #15]	@ zero_extendqisi2
 2306 0014 1846     		mov	r0, r3
 2307 0016 FFF7FEFF 		bl	ETH_GetSocketRxReadPtr
 2308 001a 0346     		mov	r3, r0
 2309 001c 1A46     		mov	r2, r3
 2310 001e BB89     		ldrh	r3, [r7, #12]	@ movhi
 2311 0020 D318     		adds	r3, r2, r3
 2312 0022 FB82     		strh	r3, [r7, #22]	@ movhi
1075:.\Generated_Source\PSoC5/ETH.c **** 	PointerOffset = (base & 0x07FF);
 2313              		.loc 1 1075 0
 2314 0024 FB8A     		ldrh	r3, [r7, #22]	@ movhi
 2315 0026 4FEA4353 		lsl	r3, r3, #21
 2316 002a 4FEA5353 		lsr	r3, r3, #21
 2317 002e BB82     		strh	r3, [r7, #20]	@ movhi
1076:.\Generated_Source\PSoC5/ETH.c **** 	addr = PointerOffset + ETH_SOCKET_RX_BASE[socket];
 2318              		.loc 1 1076 0
 2319 0030 FA7B     		ldrb	r2, [r7, #15]	@ zero_extendqisi2
 2320 0032 40F20003 		movw	r3, #:lower16:ETH_SOCKET_RX_BASE
 2321 0036 C0F20003 		movt	r3, #:upper16:ETH_SOCKET_RX_BASE
 2322 003a 53F82230 		ldr	r3, [r3, r2, lsl #2]
 2323 003e 9AB2     		uxth	r2, r3
 2324 0040 BB8A     		ldrh	r3, [r7, #20]	@ movhi
 2325 0042 D318     		adds	r3, r2, r3
 2326 0044 7B82     		strh	r3, [r7, #18]	@ movhi
1077:.\Generated_Source\PSoC5/ETH.c **** 	/* calculate the number of bytes from the pointer to the end of the buffer */
1078:.\Generated_Source\PSoC5/ETH.c **** 	size = 0x0800 - PointerOffset;
 2327              		.loc 1 1078 0
 2328 0046 BB8A     		ldrh	r3, [r7, #20]	@ movhi
 2329 0048 C3F50063 		rsb	r3, r3, #2048
 2330 004c 3B82     		strh	r3, [r7, #16]	@ movhi
1079:.\Generated_Source\PSoC5/ETH.c **** 	/*
1080:.\Generated_Source\PSoC5/ETH.c **** 	 * is there enough space to read the complete packet
1081:.\Generated_Source\PSoC5/ETH.c **** 	 * or, should the data be split in to two reads.
1082:.\Generated_Source\PSoC5/ETH.c **** 	 */
1083:.\Generated_Source\PSoC5/ETH.c **** 	if ( length > size) {
ARM GAS  C:\Users\CHUCK~1.ERH\AppData\Local\Temp\cclfQUCJ.s 			page 61


 2331              		.loc 1 1083 0
 2332 004e FA88     		ldrh	r2, [r7, #6]
 2333 0050 3B8A     		ldrh	r3, [r7, #16]
 2334 0052 9A42     		cmp	r2, r3
 2335 0054 1AD9     		bls	.L90
1084:.\Generated_Source\PSoC5/ETH.c **** 		/*
1085:.\Generated_Source\PSoC5/ETH.c **** 		 * There is more data to send than will fit from the pointer to the end
1086:.\Generated_Source\PSoC5/ETH.c **** 		 * of the memory, so we will write the data in two chunks.  First, write the
1087:.\Generated_Source\PSoC5/ETH.c **** 		 * data from the pointer to the end of the buffer, then write the portion
1088:.\Generated_Source\PSoC5/ETH.c **** 		 * remaining to the start (base ptr) of the socket buffer
1089:.\Generated_Source\PSoC5/ETH.c **** 		 */
1090:.\Generated_Source\PSoC5/ETH.c **** 		ETH_ChipRead(addr, buffer, size);
 2336              		.loc 1 1090 0
 2337 0056 7A8A     		ldrh	r2, [r7, #18]
 2338 0058 3B8A     		ldrh	r3, [r7, #16]
 2339 005a 1046     		mov	r0, r2
 2340 005c B968     		ldr	r1, [r7, #8]
 2341 005e 1A46     		mov	r2, r3
 2342 0060 FFF7FEFF 		bl	ETH_ChipRead
1091:.\Generated_Source\PSoC5/ETH.c **** 		ETH_ChipRead(ETH_SOCKET_RX_BASE[socket], &buffer[size], length - size);
 2343              		.loc 1 1091 0
 2344 0064 FA7B     		ldrb	r2, [r7, #15]	@ zero_extendqisi2
 2345 0066 40F20003 		movw	r3, #:lower16:ETH_SOCKET_RX_BASE
 2346 006a C0F20003 		movt	r3, #:upper16:ETH_SOCKET_RX_BASE
 2347 006e 53F82210 		ldr	r1, [r3, r2, lsl #2]
 2348 0072 3B8A     		ldrh	r3, [r7, #16]
 2349 0074 BA68     		ldr	r2, [r7, #8]
 2350 0076 D218     		adds	r2, r2, r3
 2351 0078 F888     		ldrh	r0, [r7, #6]	@ movhi
 2352 007a 3B8A     		ldrh	r3, [r7, #16]	@ movhi
 2353 007c C31A     		subs	r3, r0, r3
 2354 007e 9BB2     		uxth	r3, r3
 2355 0080 0846     		mov	r0, r1
 2356 0082 1146     		mov	r1, r2
 2357 0084 1A46     		mov	r2, r3
 2358 0086 FFF7FEFF 		bl	ETH_ChipRead
 2359 008a 06E0     		b	.L91
 2360              	.L90:
1092:.\Generated_Source\PSoC5/ETH.c **** 	}
1093:.\Generated_Source\PSoC5/ETH.c **** 	else {
1094:.\Generated_Source\PSoC5/ETH.c **** 		/* 
1095:.\Generated_Source\PSoC5/ETH.c **** 		 * there is enough available space from the write point to the end of buffer
1096:.\Generated_Source\PSoC5/ETH.c **** 		 * to hold the whole packe of information, so just write it to the memory
1097:.\Generated_Source\PSoC5/ETH.c **** 		 */
1098:.\Generated_Source\PSoC5/ETH.c **** 		ETH_ChipRead(addr,buffer,length);
 2361              		.loc 1 1098 0
 2362 008c 7A8A     		ldrh	r2, [r7, #18]
 2363 008e FB88     		ldrh	r3, [r7, #6]
 2364 0090 1046     		mov	r0, r2
 2365 0092 B968     		ldr	r1, [r7, #8]
 2366 0094 1A46     		mov	r2, r3
 2367 0096 FFF7FEFF 		bl	ETH_ChipRead
 2368              	.L91:
1099:.\Generated_Source\PSoC5/ETH.c **** 	}
1100:.\Generated_Source\PSoC5/ETH.c **** 	if ( (flags & 0x01) == 0 ) { /* V1.1: Added ==0 condition to lookahead flag check */
 2369              		.loc 1 1100 0
 2370 009a 97F82030 		ldrb	r3, [r7, #32]	@ zero_extendqisi2
ARM GAS  C:\Users\CHUCK~1.ERH\AppData\Local\Temp\cclfQUCJ.s 			page 62


 2371 009e 03F00103 		and	r3, r3, #1
 2372 00a2 002B     		cmp	r3, #0
 2373 00a4 09D1     		bne	.L89
1101:.\Generated_Source\PSoC5/ETH.c **** 		/* move the write pointer */
1102:.\Generated_Source\PSoC5/ETH.c **** 		base += length;
 2374              		.loc 1 1102 0
 2375 00a6 FA8A     		ldrh	r2, [r7, #22]	@ movhi
 2376 00a8 FB88     		ldrh	r3, [r7, #6]	@ movhi
 2377 00aa D318     		adds	r3, r2, r3
 2378 00ac FB82     		strh	r3, [r7, #22]	@ movhi
1103:.\Generated_Source\PSoC5/ETH.c **** 		/* 
1104:.\Generated_Source\PSoC5/ETH.c **** 		 * Store the new write pointer so that the device knows that there is data waiting
1105:.\Generated_Source\PSoC5/ETH.c **** 		 * to be transmitted over the link.
1106:.\Generated_Source\PSoC5/ETH.c **** 		 */
1107:.\Generated_Source\PSoC5/ETH.c **** 		ETH_SetSocketRxReadPtr(socket, base);
 2379              		.loc 1 1107 0
 2380 00ae FA7B     		ldrb	r2, [r7, #15]	@ zero_extendqisi2
 2381 00b0 FB8A     		ldrh	r3, [r7, #22]
 2382 00b2 1046     		mov	r0, r2
 2383 00b4 1946     		mov	r1, r3
 2384 00b6 FFF7FEFF 		bl	ETH_SetSocketRxReadPtr
 2385              	.L89:
1108:.\Generated_Source\PSoC5/ETH.c **** 	}
1109:.\Generated_Source\PSoC5/ETH.c **** }
 2386              		.loc 1 1109 0
 2387 00ba 07F11807 		add	r7, r7, #24
 2388 00be BD46     		mov	sp, r7
 2389 00c0 80BD     		pop	{r7, pc}
 2390              		.cfi_endproc
 2391              	.LFE99:
 2392              		.size	ETH_ProcessRxData, .-ETH_ProcessRxData
 2393 00c2 00BF     		.section	.text.ETH_Init,"ax",%progbits
 2394              		.align	2
 2395              		.global	ETH_Init
 2396              		.thumb
 2397              		.thumb_func
 2398              		.type	ETH_Init, %function
 2399              	ETH_Init:
 2400              	.LFB100:
1110:.\Generated_Source\PSoC5/ETH.c **** #endif
1111:.\Generated_Source\PSoC5/ETH.c **** /* ======================================================================== */
1112:.\Generated_Source\PSoC5/ETH.c **** /* Driver Initialization */
1113:.\Generated_Source\PSoC5/ETH.c **** #if (1)
1114:.\Generated_Source\PSoC5/ETH.c **** /* ------------------------------------------------------------------------ */
1115:.\Generated_Source\PSoC5/ETH.c **** void
1116:.\Generated_Source\PSoC5/ETH.c **** ETH_Init(uint8* mac, uint32 ip, uint32 subnet, uint32 gateway)
1117:.\Generated_Source\PSoC5/ETH.c **** {
 2401              		.loc 1 1117 0
 2402              		.cfi_startproc
 2403              		@ args = 0, pretend = 0, frame = 24
 2404              		@ frame_needed = 1, uses_anonymous_args = 0
 2405 0000 80B5     		push	{r7, lr}
 2406              	.LCFI130:
 2407              		.cfi_def_cfa_offset 8
 2408              		.cfi_offset 7, -8
 2409              		.cfi_offset 14, -4
 2410 0002 86B0     		sub	sp, sp, #24
ARM GAS  C:\Users\CHUCK~1.ERH\AppData\Local\Temp\cclfQUCJ.s 			page 63


 2411              	.LCFI131:
 2412              		.cfi_def_cfa_offset 32
 2413 0004 00AF     		add	r7, sp, #0
 2414              	.LCFI132:
 2415              		.cfi_def_cfa_register 7
 2416 0006 F860     		str	r0, [r7, #12]
 2417 0008 B960     		str	r1, [r7, #8]
 2418 000a 7A60     		str	r2, [r7, #4]
 2419 000c 3B60     		str	r3, [r7, #0]
1118:.\Generated_Source\PSoC5/ETH.c **** 	/*
1119:.\Generated_Source\PSoC5/ETH.c **** 	 * Initialize the device and the address configuration, then
1120:.\Generated_Source\PSoC5/ETH.c **** 	 * execute socket memory initialization for the local allocation
1121:.\Generated_Source\PSoC5/ETH.c **** 	 * table.
1122:.\Generated_Source\PSoC5/ETH.c **** 	 */
1123:.\Generated_Source\PSoC5/ETH.c **** 	int index;
1124:.\Generated_Source\PSoC5/ETH.c **** 	
1125:.\Generated_Source\PSoC5/ETH.c **** 	CyDelay( 250 ); /* Fixed Boot Delay or chip inintialization will fail */
 2420              		.loc 1 1125 0
 2421 000e 4FF0FA00 		mov	r0, #250
 2422 0012 FFF7FEFF 		bl	CyDelay
1126:.\Generated_Source\PSoC5/ETH.c **** 	
1127:.\Generated_Source\PSoC5/ETH.c **** 	/* Reset the device */
1128:.\Generated_Source\PSoC5/ETH.c **** 	ETH_SetMode(0x80); /* Send Reset Command */
 2423              		.loc 1 1128 0
 2424 0016 4FF08000 		mov	r0, #128
 2425 001a FFF7FEFF 		bl	ETH_SetMode
1129:.\Generated_Source\PSoC5/ETH.c **** 	/* Wait for the chip initialization delay */
1130:.\Generated_Source\PSoC5/ETH.c **** 	CyDelay( 10 );
 2426              		.loc 1 1130 0
 2427 001e 4FF00A00 		mov	r0, #10
 2428 0022 FFF7FEFF 		bl	CyDelay
1131:.\Generated_Source\PSoC5/ETH.c **** 	
1132:.\Generated_Source\PSoC5/ETH.c **** 	/* Close all of the socket, and clear the memory to make them available. */
1133:.\Generated_Source\PSoC5/ETH.c **** 	for(index=0;index<ETH_MAX_SOCKET;++index) {
 2429              		.loc 1 1133 0
 2430 0026 4FF00003 		mov	r3, #0
 2431 002a 7B61     		str	r3, [r7, #20]
 2432 002c 4EE0     		b	.L94
 2433              	.L95:
1134:.\Generated_Source\PSoC5/ETH.c **** 		ETH_SocketClose( index );
 2434              		.loc 1 1134 0 discriminator 2
 2435 002e 7B69     		ldr	r3, [r7, #20]
 2436 0030 DBB2     		uxtb	r3, r3
 2437 0032 1846     		mov	r0, r3
 2438 0034 FFF7FEFF 		bl	ETH_SocketClose
1135:.\Generated_Source\PSoC5/ETH.c **** 		/* Set the socket memory size */
1136:.\Generated_Source\PSoC5/ETH.c **** 		ETH_SetSocketTxMemSize(index, ETH_MEM_2K); /* 2K each */
 2439              		.loc 1 1136 0 discriminator 2
 2440 0038 7B69     		ldr	r3, [r7, #20]
 2441 003a DBB2     		uxtb	r3, r3
 2442 003c 1846     		mov	r0, r3
 2443 003e 4FF00201 		mov	r1, #2
 2444 0042 FFF7FEFF 		bl	ETH_SetSocketTxMemSize
1137:.\Generated_Source\PSoC5/ETH.c **** 		ETH_SetSocketRxMemSize(index, ETH_MEM_2K); /* 2K Each */
 2445              		.loc 1 1137 0 discriminator 2
 2446 0046 7B69     		ldr	r3, [r7, #20]
 2447 0048 DBB2     		uxtb	r3, r3
ARM GAS  C:\Users\CHUCK~1.ERH\AppData\Local\Temp\cclfQUCJ.s 			page 64


 2448 004a 1846     		mov	r0, r3
 2449 004c 4FF00201 		mov	r1, #2
 2450 0050 FFF7FEFF 		bl	ETH_SetSocketRxMemSize
1138:.\Generated_Source\PSoC5/ETH.c **** 		// initialize memory buffer pointers
1139:.\Generated_Source\PSoC5/ETH.c **** 		ETH_SetSocketRxReadPtr( index, ETH_SOCKET_RX_BASE[index] );
 2451              		.loc 1 1139 0 discriminator 2
 2452 0054 7B69     		ldr	r3, [r7, #20]
 2453 0056 DAB2     		uxtb	r2, r3
 2454 0058 40F20003 		movw	r3, #:lower16:ETH_SOCKET_RX_BASE
 2455 005c C0F20003 		movt	r3, #:upper16:ETH_SOCKET_RX_BASE
 2456 0060 7969     		ldr	r1, [r7, #20]
 2457 0062 53F82130 		ldr	r3, [r3, r1, lsl #2]
 2458 0066 9BB2     		uxth	r3, r3
 2459 0068 1046     		mov	r0, r2
 2460 006a 1946     		mov	r1, r3
 2461 006c FFF7FEFF 		bl	ETH_SetSocketRxReadPtr
1140:.\Generated_Source\PSoC5/ETH.c **** 		ETH_SetSocketRxWritePtr( index, ETH_SOCKET_RX_BASE[index] );
 2462              		.loc 1 1140 0 discriminator 2
 2463 0070 7B69     		ldr	r3, [r7, #20]
 2464 0072 DAB2     		uxtb	r2, r3
 2465 0074 40F20003 		movw	r3, #:lower16:ETH_SOCKET_RX_BASE
 2466 0078 C0F20003 		movt	r3, #:upper16:ETH_SOCKET_RX_BASE
 2467 007c 7969     		ldr	r1, [r7, #20]
 2468 007e 53F82130 		ldr	r3, [r3, r1, lsl #2]
 2469 0082 9BB2     		uxth	r3, r3
 2470 0084 1046     		mov	r0, r2
 2471 0086 1946     		mov	r1, r3
 2472 0088 FFF7FEFF 		bl	ETH_SetSocketRxWritePtr
1141:.\Generated_Source\PSoC5/ETH.c **** 		ETH_SetSocketTxReadPtr( index, ETH_SOCKET_TX_BASE[index] );
 2473              		.loc 1 1141 0 discriminator 2
 2474 008c 7B69     		ldr	r3, [r7, #20]
 2475 008e DAB2     		uxtb	r2, r3
 2476 0090 40F20003 		movw	r3, #:lower16:ETH_SOCKET_TX_BASE
 2477 0094 C0F20003 		movt	r3, #:upper16:ETH_SOCKET_TX_BASE
 2478 0098 7969     		ldr	r1, [r7, #20]
 2479 009a 53F82130 		ldr	r3, [r3, r1, lsl #2]
 2480 009e 9BB2     		uxth	r3, r3
 2481 00a0 1046     		mov	r0, r2
 2482 00a2 1946     		mov	r1, r3
 2483 00a4 FFF7FEFF 		bl	ETH_SetSocketTxReadPtr
1142:.\Generated_Source\PSoC5/ETH.c **** 		ETH_SetSocketTxWritePtr( index, ETH_SOCKET_TX_BASE[index] );
 2484              		.loc 1 1142 0 discriminator 2
 2485 00a8 7B69     		ldr	r3, [r7, #20]
 2486 00aa DAB2     		uxtb	r2, r3
 2487 00ac 40F20003 		movw	r3, #:lower16:ETH_SOCKET_TX_BASE
 2488 00b0 C0F20003 		movt	r3, #:upper16:ETH_SOCKET_TX_BASE
 2489 00b4 7969     		ldr	r1, [r7, #20]
 2490 00b6 53F82130 		ldr	r3, [r3, r1, lsl #2]
 2491 00ba 9BB2     		uxth	r3, r3
 2492 00bc 1046     		mov	r0, r2
 2493 00be 1946     		mov	r1, r3
 2494 00c0 FFF7FEFF 		bl	ETH_SetSocketTxWritePtr
1133:.\Generated_Source\PSoC5/ETH.c **** 	for(index=0;index<ETH_MAX_SOCKET;++index) {
 2495              		.loc 1 1133 0 discriminator 2
 2496 00c4 7B69     		ldr	r3, [r7, #20]
 2497 00c6 03F10103 		add	r3, r3, #1
 2498 00ca 7B61     		str	r3, [r7, #20]
ARM GAS  C:\Users\CHUCK~1.ERH\AppData\Local\Temp\cclfQUCJ.s 			page 65


 2499              	.L94:
1133:.\Generated_Source\PSoC5/ETH.c **** 	for(index=0;index<ETH_MAX_SOCKET;++index) {
 2500              		.loc 1 1133 0 is_stmt 0 discriminator 1
 2501 00cc 7B69     		ldr	r3, [r7, #20]
 2502 00ce 072B     		cmp	r3, #7
 2503 00d0 ADDD     		ble	.L95
1143:.\Generated_Source\PSoC5/ETH.c **** 	}
1144:.\Generated_Source\PSoC5/ETH.c **** 	/* Set device gateway address */
1145:.\Generated_Source\PSoC5/ETH.c **** 	ETH_SetGatewayAddress(gateway);
 2504              		.loc 1 1145 0 is_stmt 1
 2505 00d2 3868     		ldr	r0, [r7, #0]
 2506 00d4 FFF7FEFF 		bl	ETH_SetGatewayAddress
1146:.\Generated_Source\PSoC5/ETH.c **** 	ETH_SetSubnetMask( subnet );
 2507              		.loc 1 1146 0
 2508 00d8 7868     		ldr	r0, [r7, #4]
 2509 00da FFF7FEFF 		bl	ETH_SetSubnetMask
1147:.\Generated_Source\PSoC5/ETH.c **** 	/* Store the subnet mask for later use, for ERRATA fix */
1148:.\Generated_Source\PSoC5/ETH.c **** 	ETH_SubnetMask = subnet;
 2510              		.loc 1 1148 0
 2511 00de 40F20003 		movw	r3, #:lower16:ETH_SubnetMask
 2512 00e2 C0F20003 		movt	r3, #:upper16:ETH_SubnetMask
 2513 00e6 7A68     		ldr	r2, [r7, #4]
 2514 00e8 1A60     		str	r2, [r3, #0]
1149:.\Generated_Source\PSoC5/ETH.c **** 	/* store the device mac */
1150:.\Generated_Source\PSoC5/ETH.c **** 	ETH_SetSourceMAC( mac );
 2515              		.loc 1 1150 0
 2516 00ea F868     		ldr	r0, [r7, #12]
 2517 00ec FFF7FEFF 		bl	ETH_SetSourceMAC
1151:.\Generated_Source\PSoC5/ETH.c **** 	/* store the IP address */
1152:.\Generated_Source\PSoC5/ETH.c **** 	ETH_SetSourceIP( ip );
 2518              		.loc 1 1152 0
 2519 00f0 B868     		ldr	r0, [r7, #8]
 2520 00f2 FFF7FEFF 		bl	ETH_SetSourceIP
1153:.\Generated_Source\PSoC5/ETH.c **** 	/* clear pending interrupts */
1154:.\Generated_Source\PSoC5/ETH.c **** 	ETH_SetIR(0xFF);
 2521              		.loc 1 1154 0
 2522 00f6 4FF0FF00 		mov	r0, #255
 2523 00fa FFF7FEFF 		bl	ETH_SetIR
1155:.\Generated_Source\PSoC5/ETH.c **** 	/* clear the subnet mask register (W5100 Errata Fix) */
1156:.\Generated_Source\PSoC5/ETH.c **** 	ETH_SetSubnetMask( 0 );
 2524              		.loc 1 1156 0
 2525 00fe 4FF00000 		mov	r0, #0
 2526 0102 FFF7FEFF 		bl	ETH_SetSubnetMask
1157:.\Generated_Source\PSoC5/ETH.c **** }
 2527              		.loc 1 1157 0
 2528 0106 07F11807 		add	r7, r7, #24
 2529 010a BD46     		mov	sp, r7
 2530 010c 80BD     		pop	{r7, pc}
 2531              		.cfi_endproc
 2532              	.LFE100:
 2533              		.size	ETH_Init, .-ETH_Init
 2534 010e 00BF     		.section	.rodata
 2535              		.align	2
 2536              	.LC0:
 2537 0060 30302D64 		.ascii	"00-de-ad-be-ef-00\000"
 2537      652D6164 
 2537      2D62652D 
ARM GAS  C:\Users\CHUCK~1.ERH\AppData\Local\Temp\cclfQUCJ.s 			page 66


 2537      65662D30 
 2537      3000
 2538 0072 0000     		.align	2
 2539              	.LC1:
 2540 0074 3139322E 		.ascii	"192.168.0.101\000"
 2540      3136382E 
 2540      302E3130 
 2540      3100
 2541 0082 0000     		.align	2
 2542              	.LC2:
 2543 0084 3235352E 		.ascii	"255.255.255.0\000"
 2543      3235352E 
 2543      3235352E 
 2543      3000
 2544 0092 0000     		.align	2
 2545              	.LC3:
 2546 0094 3139322E 		.ascii	"192.168.0.1\000"
 2546      3136382E 
 2546      302E3100 
 2547              		.section	.text.ETH_Start,"ax",%progbits
 2548              		.align	2
 2549              		.global	ETH_Start
 2550              		.thumb
 2551              		.thumb_func
 2552              		.type	ETH_Start, %function
 2553              	ETH_Start:
 2554              	.LFB101:
1158:.\Generated_Source\PSoC5/ETH.c **** /* ------------------------------------------------------------------------ */
1159:.\Generated_Source\PSoC5/ETH.c **** void
1160:.\Generated_Source\PSoC5/ETH.c **** ETH_Start( void )
1161:.\Generated_Source\PSoC5/ETH.c **** {
 2555              		.loc 1 1161 0
 2556              		.cfi_startproc
 2557              		@ args = 0, pretend = 0, frame = 16
 2558              		@ frame_needed = 1, uses_anonymous_args = 0
 2559 0000 80B5     		push	{r7, lr}
 2560              	.LCFI133:
 2561              		.cfi_def_cfa_offset 8
 2562              		.cfi_offset 7, -8
 2563              		.cfi_offset 14, -4
 2564 0002 84B0     		sub	sp, sp, #16
 2565              	.LCFI134:
 2566              		.cfi_def_cfa_offset 24
 2567 0004 00AF     		add	r7, sp, #0
 2568              	.LCFI135:
 2569              		.cfi_def_cfa_register 7
1162:.\Generated_Source\PSoC5/ETH.c **** 	uint32 ip;
1163:.\Generated_Source\PSoC5/ETH.c **** 	uint32 gateway;
1164:.\Generated_Source\PSoC5/ETH.c **** 	uint32 sub;
1165:.\Generated_Source\PSoC5/ETH.c **** 	
1166:.\Generated_Source\PSoC5/ETH.c **** 	/* Check for SPI initialization */
1167:.\Generated_Source\PSoC5/ETH.c **** 	if (SPI_initVar == 0) {
 2570              		.loc 1 1167 0
 2571 0006 40F20003 		movw	r3, #:lower16:SPI_initVar
 2572 000a C0F20003 		movt	r3, #:upper16:SPI_initVar
 2573 000e 1B78     		ldrb	r3, [r3, #0]	@ zero_extendqisi2
 2574 0010 002B     		cmp	r3, #0
ARM GAS  C:\Users\CHUCK~1.ERH\AppData\Local\Temp\cclfQUCJ.s 			page 67


 2575 0012 01D1     		bne	.L97
1168:.\Generated_Source\PSoC5/ETH.c **** 		/*
1169:.\Generated_Source\PSoC5/ETH.c **** 		 * the hardware has not yet been initialized.  Before anything can be
1170:.\Generated_Source\PSoC5/ETH.c **** 		 * initialized within the driver, the external hardware must be started
1171:.\Generated_Source\PSoC5/ETH.c **** 		 */
1172:.\Generated_Source\PSoC5/ETH.c **** 		SPI_Start();
 2576              		.loc 1 1172 0
 2577 0014 FFF7FEFF 		bl	SPI_Start
 2578              	.L97:
1173:.\Generated_Source\PSoC5/ETH.c **** 	}
1174:.\Generated_Source\PSoC5/ETH.c **** 		
1175:.\Generated_Source\PSoC5/ETH.c **** 	/* wait for power on PLL Lock */
1176:.\Generated_Source\PSoC5/ETH.c **** 	CyDelay( 10 );
 2579              		.loc 1 1176 0
 2580 0018 4FF00A00 		mov	r0, #10
 2581 001c FFF7FEFF 		bl	CyDelay
1177:.\Generated_Source\PSoC5/ETH.c **** 	/* V1.2 new -- Parse MAC Address string */
1178:.\Generated_Source\PSoC5/ETH.c **** 	if ( ETH_ParseMAC("00-de-ad-be-ef-00", &ETH_MAC[0]) == CYRET_BAD_DATA) {
 2582              		.loc 1 1178 0
 2583 0020 40F20000 		movw	r0, #:lower16:.LC0
 2584 0024 C0F20000 		movt	r0, #:upper16:.LC0
 2585 0028 40F20001 		movw	r1, #:lower16:ETH_MAC
 2586 002c C0F20001 		movt	r1, #:upper16:ETH_MAC
 2587 0030 FFF7FEFF 		bl	ETH_ParseMAC
 2588 0034 0346     		mov	r3, r0
 2589 0036 062B     		cmp	r3, #6
 2590 0038 29D1     		bne	.L98
1179:.\Generated_Source\PSoC5/ETH.c **** 		ETH_MAC[0] = 0;
 2591              		.loc 1 1179 0
 2592 003a 40F20003 		movw	r3, #:lower16:ETH_MAC
 2593 003e C0F20003 		movt	r3, #:upper16:ETH_MAC
 2594 0042 4FF00002 		mov	r2, #0
 2595 0046 1A70     		strb	r2, [r3, #0]
1180:.\Generated_Source\PSoC5/ETH.c **** 		ETH_MAC[1] = 0xDE;
 2596              		.loc 1 1180 0
 2597 0048 40F20003 		movw	r3, #:lower16:ETH_MAC
 2598 004c C0F20003 		movt	r3, #:upper16:ETH_MAC
 2599 0050 4FF0DE02 		mov	r2, #222
 2600 0054 5A70     		strb	r2, [r3, #1]
1181:.\Generated_Source\PSoC5/ETH.c **** 		ETH_MAC[2] = 0xAD;
 2601              		.loc 1 1181 0
 2602 0056 40F20003 		movw	r3, #:lower16:ETH_MAC
 2603 005a C0F20003 		movt	r3, #:upper16:ETH_MAC
 2604 005e 4FF0AD02 		mov	r2, #173
 2605 0062 9A70     		strb	r2, [r3, #2]
1182:.\Generated_Source\PSoC5/ETH.c **** 		ETH_MAC[3] = 0xC0;
 2606              		.loc 1 1182 0
 2607 0064 40F20003 		movw	r3, #:lower16:ETH_MAC
 2608 0068 C0F20003 		movt	r3, #:upper16:ETH_MAC
 2609 006c 4FF0C002 		mov	r2, #192
 2610 0070 DA70     		strb	r2, [r3, #3]
1183:.\Generated_Source\PSoC5/ETH.c **** 		ETH_MAC[4] = 0xDE;
 2611              		.loc 1 1183 0
 2612 0072 40F20003 		movw	r3, #:lower16:ETH_MAC
 2613 0076 C0F20003 		movt	r3, #:upper16:ETH_MAC
 2614 007a 4FF0DE02 		mov	r2, #222
 2615 007e 1A71     		strb	r2, [r3, #4]
ARM GAS  C:\Users\CHUCK~1.ERH\AppData\Local\Temp\cclfQUCJ.s 			page 68


1184:.\Generated_Source\PSoC5/ETH.c **** 		ETH_MAC[5] = 0;
 2616              		.loc 1 1184 0
 2617 0080 40F20003 		movw	r3, #:lower16:ETH_MAC
 2618 0084 C0F20003 		movt	r3, #:upper16:ETH_MAC
 2619 0088 4FF00002 		mov	r2, #0
 2620 008c 5A71     		strb	r2, [r3, #5]
 2621              	.L98:
1185:.\Generated_Source\PSoC5/ETH.c **** 	}
1186:.\Generated_Source\PSoC5/ETH.c **** 	/* END of V1.2 Update ------ */
1187:.\Generated_Source\PSoC5/ETH.c **** 	ip = ETH_ParseIP("192.168.0.101");
 2622              		.loc 1 1187 0
 2623 008e 40F20000 		movw	r0, #:lower16:.LC1
 2624 0092 C0F20000 		movt	r0, #:upper16:.LC1
 2625 0096 FFF7FEFF 		bl	ETH_ParseIP
 2626 009a F860     		str	r0, [r7, #12]
1188:.\Generated_Source\PSoC5/ETH.c **** 	sub = ETH_ParseIP("255.255.255.0");
 2627              		.loc 1 1188 0
 2628 009c 40F20000 		movw	r0, #:lower16:.LC2
 2629 00a0 C0F20000 		movt	r0, #:upper16:.LC2
 2630 00a4 FFF7FEFF 		bl	ETH_ParseIP
 2631 00a8 B860     		str	r0, [r7, #8]
1189:.\Generated_Source\PSoC5/ETH.c **** 	gateway = ETH_ParseIP("192.168.0.1");
 2632              		.loc 1 1189 0
 2633 00aa 40F20000 		movw	r0, #:lower16:.LC3
 2634 00ae C0F20000 		movt	r0, #:upper16:.LC3
 2635 00b2 FFF7FEFF 		bl	ETH_ParseIP
 2636 00b6 7860     		str	r0, [r7, #4]
1190:.\Generated_Source\PSoC5/ETH.c **** 	/* Initialize the device with the default data */
1191:.\Generated_Source\PSoC5/ETH.c **** 	ETH_Init( &ETH_MAC[0], ip, sub, gateway  );
 2637              		.loc 1 1191 0
 2638 00b8 40F20000 		movw	r0, #:lower16:ETH_MAC
 2639 00bc C0F20000 		movt	r0, #:upper16:ETH_MAC
 2640 00c0 F968     		ldr	r1, [r7, #12]
 2641 00c2 BA68     		ldr	r2, [r7, #8]
 2642 00c4 7B68     		ldr	r3, [r7, #4]
 2643 00c6 FFF7FEFF 		bl	ETH_Init
1192:.\Generated_Source\PSoC5/ETH.c **** }
 2644              		.loc 1 1192 0
 2645 00ca 07F11007 		add	r7, r7, #16
 2646 00ce BD46     		mov	sp, r7
 2647 00d0 80BD     		pop	{r7, pc}
 2648              		.cfi_endproc
 2649              	.LFE101:
 2650              		.size	ETH_Start, .-ETH_Start
 2651 00d2 00BF     		.section	.text.ETH_ParseIP,"ax",%progbits
 2652              		.align	2
 2653              		.global	ETH_ParseIP
 2654              		.thumb
 2655              		.thumb_func
 2656              		.type	ETH_ParseIP, %function
 2657              	ETH_ParseIP:
 2658              	.LFB102:
1193:.\Generated_Source\PSoC5/ETH.c **** /* ------------------------------------------------------------------------ */
1194:.\Generated_Source\PSoC5/ETH.c **** uint32
1195:.\Generated_Source\PSoC5/ETH.c **** ETH_ParseIP( const char* ipString )
1196:.\Generated_Source\PSoC5/ETH.c **** {
 2659              		.loc 1 1196 0
ARM GAS  C:\Users\CHUCK~1.ERH\AppData\Local\Temp\cclfQUCJ.s 			page 69


 2660              		.cfi_startproc
 2661              		@ args = 0, pretend = 0, frame = 32
 2662              		@ frame_needed = 1, uses_anonymous_args = 0
 2663 0000 90B5     		push	{r4, r7, lr}
 2664              	.LCFI136:
 2665              		.cfi_def_cfa_offset 12
 2666              		.cfi_offset 4, -12
 2667              		.cfi_offset 7, -8
 2668              		.cfi_offset 14, -4
 2669 0002 89B0     		sub	sp, sp, #36
 2670              	.LCFI137:
 2671              		.cfi_def_cfa_offset 48
 2672 0004 00AF     		add	r7, sp, #0
 2673              	.LCFI138:
 2674              		.cfi_def_cfa_register 7
 2675 0006 7860     		str	r0, [r7, #4]
1197:.\Generated_Source\PSoC5/ETH.c **** 	/*
1198:.\Generated_Source\PSoC5/ETH.c **** 	 * Parse a human readable string in to a IP address usable by the hardare
1199:.\Generated_Source\PSoC5/ETH.c **** 	 */
1200:.\Generated_Source\PSoC5/ETH.c **** 	int index;
1201:.\Generated_Source\PSoC5/ETH.c **** 	char digit[5];
1202:.\Generated_Source\PSoC5/ETH.c **** 	uint8 ip[4];
1203:.\Generated_Source\PSoC5/ETH.c **** 	int counter;
1204:.\Generated_Source\PSoC5/ETH.c **** 	int dindex;
1205:.\Generated_Source\PSoC5/ETH.c **** 	
1206:.\Generated_Source\PSoC5/ETH.c **** 	index = 0;
 2676              		.loc 1 1206 0
 2677 0008 4FF00003 		mov	r3, #0
 2678 000c FB61     		str	r3, [r7, #28]
1207:.\Generated_Source\PSoC5/ETH.c **** 	dindex = 0;
 2679              		.loc 1 1207 0
 2680 000e 4FF00003 		mov	r3, #0
 2681 0012 7B61     		str	r3, [r7, #20]
1208:.\Generated_Source\PSoC5/ETH.c **** 	counter = 0;
 2682              		.loc 1 1208 0
 2683 0014 4FF00003 		mov	r3, #0
 2684 0018 BB61     		str	r3, [r7, #24]
1209:.\Generated_Source\PSoC5/ETH.c **** 	
1210:.\Generated_Source\PSoC5/ETH.c **** 	while ( (counter < 4) && ((unsigned int)index < strlen(ipString) ) ) {
 2685              		.loc 1 1210 0
 2686 001a 6FE0     		b	.L100
 2687              	.L109:
1211:.\Generated_Source\PSoC5/ETH.c **** 		if ( (ipString[index] >= '0' ) && (ipString[index] <= '9') ) {
 2688              		.loc 1 1211 0
 2689 001c FB69     		ldr	r3, [r7, #28]
 2690 001e 7A68     		ldr	r2, [r7, #4]
 2691 0020 D318     		adds	r3, r2, r3
 2692 0022 1B78     		ldrb	r3, [r3, #0]	@ zero_extendqisi2
 2693 0024 2F2B     		cmp	r3, #47
 2694 0026 18D9     		bls	.L101
 2695              		.loc 1 1211 0 is_stmt 0 discriminator 1
 2696 0028 FB69     		ldr	r3, [r7, #28]
 2697 002a 7A68     		ldr	r2, [r7, #4]
 2698 002c D318     		adds	r3, r2, r3
 2699 002e 1B78     		ldrb	r3, [r3, #0]	@ zero_extendqisi2
 2700 0030 392B     		cmp	r3, #57
 2701 0032 12D8     		bhi	.L101
ARM GAS  C:\Users\CHUCK~1.ERH\AppData\Local\Temp\cclfQUCJ.s 			page 70


1212:.\Generated_Source\PSoC5/ETH.c **** 			if (dindex > 3) return( 0xFFFFFFFF );
 2702              		.loc 1 1212 0 is_stmt 1
 2703 0034 7B69     		ldr	r3, [r7, #20]
 2704 0036 032B     		cmp	r3, #3
 2705 0038 02DD     		ble	.L102
 2706              		.loc 1 1212 0 is_stmt 0 discriminator 1
 2707 003a 4FF0FF33 		mov	r3, #-1
 2708 003e 81E0     		b	.L111
 2709              	.L102:
1213:.\Generated_Source\PSoC5/ETH.c **** 			digit[dindex++] = ipString[index];
 2710              		.loc 1 1213 0 is_stmt 1
 2711 0040 FB69     		ldr	r3, [r7, #28]
 2712 0042 7A68     		ldr	r2, [r7, #4]
 2713 0044 D318     		adds	r3, r2, r3
 2714 0046 1A78     		ldrb	r2, [r3, #0]	@ zero_extendqisi2
 2715 0048 07F10C01 		add	r1, r7, #12
 2716 004c 7B69     		ldr	r3, [r7, #20]
 2717 004e CB18     		adds	r3, r1, r3
 2718 0050 1A70     		strb	r2, [r3, #0]
 2719 0052 7B69     		ldr	r3, [r7, #20]
 2720 0054 03F10103 		add	r3, r3, #1
 2721 0058 7B61     		str	r3, [r7, #20]
 2722              	.L101:
1214:.\Generated_Source\PSoC5/ETH.c **** 			
1215:.\Generated_Source\PSoC5/ETH.c **** 		}
1216:.\Generated_Source\PSoC5/ETH.c **** 		
1217:.\Generated_Source\PSoC5/ETH.c **** 		if ( (ipString[index] == '.') || (ipString[index+1] == 0) ) {
 2723              		.loc 1 1217 0
 2724 005a FB69     		ldr	r3, [r7, #28]
 2725 005c 7A68     		ldr	r2, [r7, #4]
 2726 005e D318     		adds	r3, r2, r3
 2727 0060 1B78     		ldrb	r3, [r3, #0]	@ zero_extendqisi2
 2728 0062 2E2B     		cmp	r3, #46
 2729 0064 07D0     		beq	.L104
 2730              		.loc 1 1217 0 is_stmt 0 discriminator 1
 2731 0066 FB69     		ldr	r3, [r7, #28]
 2732 0068 03F10103 		add	r3, r3, #1
 2733 006c 7A68     		ldr	r2, [r7, #4]
 2734 006e D318     		adds	r3, r2, r3
 2735 0070 1B78     		ldrb	r3, [r3, #0]	@ zero_extendqisi2
 2736 0072 002B     		cmp	r3, #0
 2737 0074 3ED1     		bne	.L105
 2738              	.L104:
1218:.\Generated_Source\PSoC5/ETH.c **** 			digit[dindex] = 0;
 2739              		.loc 1 1218 0 is_stmt 1
 2740 0076 07F10C02 		add	r2, r7, #12
 2741 007a 7B69     		ldr	r3, [r7, #20]
 2742 007c D318     		adds	r3, r2, r3
 2743 007e 4FF00002 		mov	r2, #0
 2744 0082 1A70     		strb	r2, [r3, #0]
1219:.\Generated_Source\PSoC5/ETH.c **** 			dindex = 0;
 2745              		.loc 1 1219 0
 2746 0084 4FF00003 		mov	r3, #0
 2747 0088 7B61     		str	r3, [r7, #20]
1220:.\Generated_Source\PSoC5/ETH.c **** 			/* convert the value and store in the buffer */
1221:.\Generated_Source\PSoC5/ETH.c **** 			ip[counter] = 0;
 2748              		.loc 1 1221 0
ARM GAS  C:\Users\CHUCK~1.ERH\AppData\Local\Temp\cclfQUCJ.s 			page 71


 2749 008a 07F10802 		add	r2, r7, #8
 2750 008e BB69     		ldr	r3, [r7, #24]
 2751 0090 D318     		adds	r3, r2, r3
 2752 0092 4FF00002 		mov	r2, #0
 2753 0096 1A70     		strb	r2, [r3, #0]
1222:.\Generated_Source\PSoC5/ETH.c **** 			while (digit[dindex] != 0) {
 2754              		.loc 1 1222 0
 2755 0098 1EE0     		b	.L106
 2756              	.L107:
1223:.\Generated_Source\PSoC5/ETH.c **** 				ip[counter] = (ip[counter]*10) + (digit[dindex]-'0');
 2757              		.loc 1 1223 0
 2758 009a 07F10802 		add	r2, r7, #8
 2759 009e BB69     		ldr	r3, [r7, #24]
 2760 00a0 D318     		adds	r3, r2, r3
 2761 00a2 1B78     		ldrb	r3, [r3, #0]	@ zero_extendqisi2
 2762 00a4 1A46     		mov	r2, r3
 2763 00a6 4FEA8202 		lsl	r2, r2, #2
 2764 00aa D318     		adds	r3, r2, r3
 2765 00ac 4FEA4303 		lsl	r3, r3, #1
 2766 00b0 DAB2     		uxtb	r2, r3
 2767 00b2 07F10C01 		add	r1, r7, #12
 2768 00b6 7B69     		ldr	r3, [r7, #20]
 2769 00b8 CB18     		adds	r3, r1, r3
 2770 00ba 1B78     		ldrb	r3, [r3, #0]	@ zero_extendqisi2
 2771 00bc D318     		adds	r3, r2, r3
 2772 00be DBB2     		uxtb	r3, r3
 2773 00c0 A3F13003 		sub	r3, r3, #48
 2774 00c4 DAB2     		uxtb	r2, r3
 2775 00c6 07F10801 		add	r1, r7, #8
 2776 00ca BB69     		ldr	r3, [r7, #24]
 2777 00cc CB18     		adds	r3, r1, r3
 2778 00ce 1A70     		strb	r2, [r3, #0]
1224:.\Generated_Source\PSoC5/ETH.c **** 				++dindex;
 2779              		.loc 1 1224 0
 2780 00d0 7B69     		ldr	r3, [r7, #20]
 2781 00d2 03F10103 		add	r3, r3, #1
 2782 00d6 7B61     		str	r3, [r7, #20]
 2783              	.L106:
1222:.\Generated_Source\PSoC5/ETH.c **** 			while (digit[dindex] != 0) {
 2784              		.loc 1 1222 0 discriminator 1
 2785 00d8 07F10C02 		add	r2, r7, #12
 2786 00dc 7B69     		ldr	r3, [r7, #20]
 2787 00de D318     		adds	r3, r2, r3
 2788 00e0 1B78     		ldrb	r3, [r3, #0]	@ zero_extendqisi2
 2789 00e2 002B     		cmp	r3, #0
 2790 00e4 D9D1     		bne	.L107
1225:.\Generated_Source\PSoC5/ETH.c **** 				// ip[counter] = ...
1226:.\Generated_Source\PSoC5/ETH.c **** 			}
1227:.\Generated_Source\PSoC5/ETH.c **** 			/* reset the digit index to start accumulating digits again*/
1228:.\Generated_Source\PSoC5/ETH.c **** 			dindex = 0;
 2791              		.loc 1 1228 0
 2792 00e6 4FF00003 		mov	r3, #0
 2793 00ea 7B61     		str	r3, [r7, #20]
1229:.\Generated_Source\PSoC5/ETH.c **** 			/* move to the next address byte */
1230:.\Generated_Source\PSoC5/ETH.c **** 			++counter;
 2794              		.loc 1 1230 0
 2795 00ec BB69     		ldr	r3, [r7, #24]
ARM GAS  C:\Users\CHUCK~1.ERH\AppData\Local\Temp\cclfQUCJ.s 			page 72


 2796 00ee 03F10103 		add	r3, r3, #1
 2797 00f2 BB61     		str	r3, [r7, #24]
 2798              	.L105:
1231:.\Generated_Source\PSoC5/ETH.c **** 		}
1232:.\Generated_Source\PSoC5/ETH.c **** 		++index;
 2799              		.loc 1 1232 0
 2800 00f4 FB69     		ldr	r3, [r7, #28]
 2801 00f6 03F10103 		add	r3, r3, #1
 2802 00fa FB61     		str	r3, [r7, #28]
 2803              	.L100:
1210:.\Generated_Source\PSoC5/ETH.c **** 	while ( (counter < 4) && ((unsigned int)index < strlen(ipString) ) ) {
 2804              		.loc 1 1210 0 discriminator 1
 2805 00fc BB69     		ldr	r3, [r7, #24]
 2806 00fe 032B     		cmp	r3, #3
 2807 0100 06DC     		bgt	.L108
1210:.\Generated_Source\PSoC5/ETH.c **** 	while ( (counter < 4) && ((unsigned int)index < strlen(ipString) ) ) {
 2808              		.loc 1 1210 0 is_stmt 0 discriminator 2
 2809 0102 FC69     		ldr	r4, [r7, #28]
 2810 0104 7868     		ldr	r0, [r7, #4]
 2811 0106 FFF7FEFF 		bl	strlen
 2812 010a 0346     		mov	r3, r0
 2813 010c 9C42     		cmp	r4, r3
 2814 010e 85D3     		bcc	.L109
 2815              	.L108:
1233:.\Generated_Source\PSoC5/ETH.c **** 	}
1234:.\Generated_Source\PSoC5/ETH.c **** 	
1235:.\Generated_Source\PSoC5/ETH.c **** 	if (counter != 4) {
 2816              		.loc 1 1235 0 is_stmt 1
 2817 0110 BB69     		ldr	r3, [r7, #24]
 2818 0112 042B     		cmp	r3, #4
 2819 0114 02D0     		beq	.L110
1236:.\Generated_Source\PSoC5/ETH.c **** 		return( 0xFFFFFFFF );
 2820              		.loc 1 1236 0
 2821 0116 4FF0FF33 		mov	r3, #-1
 2822 011a 13E0     		b	.L111
 2823              	.L110:
1237:.\Generated_Source\PSoC5/ETH.c **** 	}
1238:.\Generated_Source\PSoC5/ETH.c **** 	else {
1239:.\Generated_Source\PSoC5/ETH.c **** 		return( ETH_IPADDRESS(ip[0], ip[1], ip[2], ip[3]) );
 2824              		.loc 1 1239 0
 2825 011c 3B7A     		ldrb	r3, [r7, #8]	@ zero_extendqisi2
 2826 011e 1A46     		mov	r2, r3
 2827 0120 7B7A     		ldrb	r3, [r7, #9]	@ zero_extendqisi2
 2828 0122 4FEA0323 		lsl	r3, r3, #8
 2829 0126 4FEA0343 		lsl	r3, r3, #16
 2830 012a 4FEA1343 		lsr	r3, r3, #16
 2831 012e D218     		adds	r2, r2, r3
 2832 0130 BB7A     		ldrb	r3, [r7, #10]	@ zero_extendqisi2
 2833 0132 4FEA0343 		lsl	r3, r3, #16
 2834 0136 03F47F03 		and	r3, r3, #16711680
 2835 013a D218     		adds	r2, r2, r3
 2836 013c FB7A     		ldrb	r3, [r7, #11]	@ zero_extendqisi2
 2837 013e 4FEA0363 		lsl	r3, r3, #24
 2838 0142 D318     		adds	r3, r2, r3
 2839              	.L111:
1240:.\Generated_Source\PSoC5/ETH.c **** 	}
1241:.\Generated_Source\PSoC5/ETH.c **** }
ARM GAS  C:\Users\CHUCK~1.ERH\AppData\Local\Temp\cclfQUCJ.s 			page 73


 2840              		.loc 1 1241 0
 2841 0144 1846     		mov	r0, r3
 2842 0146 07F12407 		add	r7, r7, #36
 2843 014a BD46     		mov	sp, r7
 2844 014c 90BD     		pop	{r4, r7, pc}
 2845              		.cfi_endproc
 2846              	.LFE102:
 2847              		.size	ETH_ParseIP, .-ETH_ParseIP
 2848 014e 00BF     		.section	.text.ETH_ParseMAC,"ax",%progbits
 2849              		.align	2
 2850              		.global	ETH_ParseMAC
 2851              		.thumb
 2852              		.thumb_func
 2853              		.type	ETH_ParseMAC, %function
 2854              	ETH_ParseMAC:
 2855              	.LFB103:
1242:.\Generated_Source\PSoC5/ETH.c **** /* ------------------------------------------------------------------------ */
1243:.\Generated_Source\PSoC5/ETH.c **** /**
1244:.\Generated_Source\PSoC5/ETH.c ****  * /brief Parse a MAC Address string in to a 6-byte mac address
1245:.\Generated_Source\PSoC5/ETH.c ****  * /param *macString Pointer to the ASCII-Z String containing the MAC address
1246:.\Generated_Source\PSoC5/ETH.c ****  * /param *mac Pointer to the 6-byte array to hold the output mac addres
1247:.\Generated_Source\PSoC5/ETH.c ****  */
1248:.\Generated_Source\PSoC5/ETH.c **** cystatus ETH_ParseMAC(const char *macString, uint8 *mac)
1249:.\Generated_Source\PSoC5/ETH.c **** {
 2856              		.loc 1 1249 0
 2857              		.cfi_startproc
 2858              		@ args = 0, pretend = 0, frame = 24
 2859              		@ frame_needed = 1, uses_anonymous_args = 0
 2860              		@ link register save eliminated.
 2861 0000 80B4     		push	{r7}
 2862              	.LCFI139:
 2863              		.cfi_def_cfa_offset 4
 2864              		.cfi_offset 7, -4
 2865 0002 87B0     		sub	sp, sp, #28
 2866              	.LCFI140:
 2867              		.cfi_def_cfa_offset 32
 2868 0004 00AF     		add	r7, sp, #0
 2869              	.LCFI141:
 2870              		.cfi_def_cfa_register 7
 2871 0006 7860     		str	r0, [r7, #4]
 2872 0008 3960     		str	r1, [r7, #0]
1250:.\Generated_Source\PSoC5/ETH.c **** 	/* 
1251:.\Generated_Source\PSoC5/ETH.c **** 	 * a mac address is specified as a string of 6 hex bytes with
1252:.\Generated_Source\PSoC5/ETH.c **** 	 * dashes ('-') seperating the bytes.  An invalidly formed
1253:.\Generated_Source\PSoC5/ETH.c **** 	 * address will only process the values up the error and return BAD_DATA
1254:.\Generated_Source\PSoC5/ETH.c **** 	 * otherwise, SUCESS is returned.
1255:.\Generated_Source\PSoC5/ETH.c **** 	 */
1256:.\Generated_Source\PSoC5/ETH.c **** 	int digit;
1257:.\Generated_Source\PSoC5/ETH.c **** 	int index;
1258:.\Generated_Source\PSoC5/ETH.c **** 	cystatus result;
1259:.\Generated_Source\PSoC5/ETH.c **** 	
1260:.\Generated_Source\PSoC5/ETH.c **** 	result = CYRET_SUCCESS;
 2873              		.loc 1 1260 0
 2874 000a 4FF00003 		mov	r3, #0
 2875 000e FB60     		str	r3, [r7, #12]
1261:.\Generated_Source\PSoC5/ETH.c **** 	index = 0;
 2876              		.loc 1 1261 0
ARM GAS  C:\Users\CHUCK~1.ERH\AppData\Local\Temp\cclfQUCJ.s 			page 74


 2877 0010 4FF00003 		mov	r3, #0
 2878 0014 3B61     		str	r3, [r7, #16]
1262:.\Generated_Source\PSoC5/ETH.c **** 	for(digit = 0;(digit<6) && (result == CYRET_SUCCESS)&&(macString[index] != 0);++digit) {
 2879              		.loc 1 1262 0
 2880 0016 4FF00003 		mov	r3, #0
 2881 001a 7B61     		str	r3, [r7, #20]
 2882 001c 09E1     		b	.L113
 2883              	.L139:
1263:.\Generated_Source\PSoC5/ETH.c **** 		// process the first nibble
1264:.\Generated_Source\PSoC5/ETH.c **** 		if (ETH_ISXDIGIT(macString[index]) ) {
 2884              		.loc 1 1264 0
 2885 001e 3B69     		ldr	r3, [r7, #16]
 2886 0020 7A68     		ldr	r2, [r7, #4]
 2887 0022 D318     		adds	r3, r2, r3
 2888 0024 1B78     		ldrb	r3, [r3, #0]	@ zero_extendqisi2
 2889 0026 2F2B     		cmp	r3, #47
 2890 0028 05D9     		bls	.L114
 2891              		.loc 1 1264 0 is_stmt 0 discriminator 1
 2892 002a 3B69     		ldr	r3, [r7, #16]
 2893 002c 7A68     		ldr	r2, [r7, #4]
 2894 002e D318     		adds	r3, r2, r3
 2895 0030 1B78     		ldrb	r3, [r3, #0]	@ zero_extendqisi2
 2896 0032 392B     		cmp	r3, #57
 2897 0034 19D9     		bls	.L115
 2898              	.L114:
 2899              		.loc 1 1264 0 discriminator 2
 2900 0036 3B69     		ldr	r3, [r7, #16]
 2901 0038 7A68     		ldr	r2, [r7, #4]
 2902 003a D318     		adds	r3, r2, r3
 2903 003c 1B78     		ldrb	r3, [r3, #0]	@ zero_extendqisi2
 2904 003e 602B     		cmp	r3, #96
 2905 0040 05D9     		bls	.L116
 2906              		.loc 1 1264 0 discriminator 1
 2907 0042 3B69     		ldr	r3, [r7, #16]
 2908 0044 7A68     		ldr	r2, [r7, #4]
 2909 0046 D318     		adds	r3, r2, r3
 2910 0048 1B78     		ldrb	r3, [r3, #0]	@ zero_extendqisi2
 2911 004a 662B     		cmp	r3, #102
 2912 004c 0DD9     		bls	.L115
 2913              	.L116:
 2914              		.loc 1 1264 0 discriminator 2
 2915 004e 3B69     		ldr	r3, [r7, #16]
 2916 0050 7A68     		ldr	r2, [r7, #4]
 2917 0052 D318     		adds	r3, r2, r3
 2918 0054 1B78     		ldrb	r3, [r3, #0]	@ zero_extendqisi2
 2919 0056 402B     		cmp	r3, #64
 2920 0058 40F2E480 		bls	.L117
 2921              		.loc 1 1264 0 discriminator 3
 2922 005c 3B69     		ldr	r3, [r7, #16]
 2923 005e 7A68     		ldr	r2, [r7, #4]
 2924 0060 D318     		adds	r3, r2, r3
 2925 0062 1B78     		ldrb	r3, [r3, #0]	@ zero_extendqisi2
 2926 0064 462B     		cmp	r3, #70
 2927 0066 00F2DD80 		bhi	.L117
 2928              	.L115:
1265:.\Generated_Source\PSoC5/ETH.c **** 			mac[digit] = ETH_HEX2BIN(macString[index]);
 2929              		.loc 1 1265 0 is_stmt 1
ARM GAS  C:\Users\CHUCK~1.ERH\AppData\Local\Temp\cclfQUCJ.s 			page 75


 2930 006a 7B69     		ldr	r3, [r7, #20]
 2931 006c 3A68     		ldr	r2, [r7, #0]
 2932 006e D218     		adds	r2, r2, r3
 2933 0070 3B69     		ldr	r3, [r7, #16]
 2934 0072 7968     		ldr	r1, [r7, #4]
 2935 0074 CB18     		adds	r3, r1, r3
 2936 0076 1B78     		ldrb	r3, [r3, #0]	@ zero_extendqisi2
 2937 0078 2F2B     		cmp	r3, #47
 2938 007a 0DD9     		bls	.L118
 2939              		.loc 1 1265 0 is_stmt 0 discriminator 1
 2940 007c 3B69     		ldr	r3, [r7, #16]
 2941 007e 7968     		ldr	r1, [r7, #4]
 2942 0080 CB18     		adds	r3, r1, r3
 2943 0082 1B78     		ldrb	r3, [r3, #0]	@ zero_extendqisi2
 2944 0084 392B     		cmp	r3, #57
 2945 0086 07D8     		bhi	.L118
 2946 0088 3B69     		ldr	r3, [r7, #16]
 2947 008a 7968     		ldr	r1, [r7, #4]
 2948 008c CB18     		adds	r3, r1, r3
 2949 008e 1B78     		ldrb	r3, [r3, #0]	@ zero_extendqisi2
 2950 0090 A3F13003 		sub	r3, r3, #48
 2951 0094 DBB2     		uxtb	r3, r3
 2952 0096 29E0     		b	.L119
 2953              	.L118:
 2954              		.loc 1 1265 0 discriminator 2
 2955 0098 3B69     		ldr	r3, [r7, #16]
 2956 009a 7968     		ldr	r1, [r7, #4]
 2957 009c CB18     		adds	r3, r1, r3
 2958 009e 1B78     		ldrb	r3, [r3, #0]	@ zero_extendqisi2
 2959 00a0 602B     		cmp	r3, #96
 2960 00a2 0DD9     		bls	.L120
 2961              		.loc 1 1265 0 discriminator 4
 2962 00a4 3B69     		ldr	r3, [r7, #16]
 2963 00a6 7968     		ldr	r1, [r7, #4]
 2964 00a8 CB18     		adds	r3, r1, r3
 2965 00aa 1B78     		ldrb	r3, [r3, #0]	@ zero_extendqisi2
 2966 00ac 662B     		cmp	r3, #102
 2967 00ae 07D8     		bhi	.L120
 2968              		.loc 1 1265 0 discriminator 2
 2969 00b0 3B69     		ldr	r3, [r7, #16]
 2970 00b2 7968     		ldr	r1, [r7, #4]
 2971 00b4 CB18     		adds	r3, r1, r3
 2972 00b6 1B78     		ldrb	r3, [r3, #0]	@ zero_extendqisi2
 2973 00b8 A3F15703 		sub	r3, r3, #87
 2974 00bc DBB2     		uxtb	r3, r3
 2975 00be 15E0     		b	.L121
 2976              	.L120:
 2977              		.loc 1 1265 0 discriminator 5
 2978 00c0 3B69     		ldr	r3, [r7, #16]
 2979 00c2 7968     		ldr	r1, [r7, #4]
 2980 00c4 CB18     		adds	r3, r1, r3
 2981 00c6 1B78     		ldrb	r3, [r3, #0]	@ zero_extendqisi2
 2982 00c8 402B     		cmp	r3, #64
 2983 00ca 0DD9     		bls	.L122
 2984              		.loc 1 1265 0 discriminator 7
 2985 00cc 3B69     		ldr	r3, [r7, #16]
 2986 00ce 7968     		ldr	r1, [r7, #4]
ARM GAS  C:\Users\CHUCK~1.ERH\AppData\Local\Temp\cclfQUCJ.s 			page 76


 2987 00d0 CB18     		adds	r3, r1, r3
 2988 00d2 1B78     		ldrb	r3, [r3, #0]	@ zero_extendqisi2
 2989 00d4 462B     		cmp	r3, #70
 2990 00d6 07D8     		bhi	.L122
 2991              		.loc 1 1265 0 discriminator 3
 2992 00d8 3B69     		ldr	r3, [r7, #16]
 2993 00da 7968     		ldr	r1, [r7, #4]
 2994 00dc CB18     		adds	r3, r1, r3
 2995 00de 1B78     		ldrb	r3, [r3, #0]	@ zero_extendqisi2
 2996 00e0 A3F13703 		sub	r3, r3, #55
 2997 00e4 DBB2     		uxtb	r3, r3
 2998 00e6 01E0     		b	.L123
 2999              	.L122:
 3000              		.loc 1 1265 0 discriminator 8
 3001 00e8 4FF00003 		mov	r3, #0
 3002              	.L123:
 3003              	.L121:
 3004              	.L119:
 3005              		.loc 1 1265 0 discriminator 3
 3006 00ec 1370     		strb	r3, [r2, #0]
1266:.\Generated_Source\PSoC5/ETH.c **** 			++index;
 3007              		.loc 1 1266 0 is_stmt 1 discriminator 3
 3008 00ee 3B69     		ldr	r3, [r7, #16]
 3009 00f0 03F10103 		add	r3, r3, #1
 3010 00f4 3B61     		str	r3, [r7, #16]
1267:.\Generated_Source\PSoC5/ETH.c **** 			mac[digit] <<= 4;
 3011              		.loc 1 1267 0 discriminator 3
 3012 00f6 7B69     		ldr	r3, [r7, #20]
 3013 00f8 3A68     		ldr	r2, [r7, #0]
 3014 00fa D318     		adds	r3, r2, r3
 3015 00fc 7A69     		ldr	r2, [r7, #20]
 3016 00fe 3968     		ldr	r1, [r7, #0]
 3017 0100 8A18     		adds	r2, r1, r2
 3018 0102 1278     		ldrb	r2, [r2, #0]	@ zero_extendqisi2
 3019 0104 4FEA0212 		lsl	r2, r2, #4
 3020 0108 D2B2     		uxtb	r2, r2
 3021 010a 1A70     		strb	r2, [r3, #0]
1268:.\Generated_Source\PSoC5/ETH.c **** 			if (ETH_ISXDIGIT(macString[index])) {
 3022              		.loc 1 1268 0 discriminator 3
 3023 010c 3B69     		ldr	r3, [r7, #16]
 3024 010e 7A68     		ldr	r2, [r7, #4]
 3025 0110 D318     		adds	r3, r2, r3
 3026 0112 1B78     		ldrb	r3, [r3, #0]	@ zero_extendqisi2
 3027 0114 2F2B     		cmp	r3, #47
 3028 0116 05D9     		bls	.L124
 3029              		.loc 1 1268 0 is_stmt 0 discriminator 1
 3030 0118 3B69     		ldr	r3, [r7, #16]
 3031 011a 7A68     		ldr	r2, [r7, #4]
 3032 011c D318     		adds	r3, r2, r3
 3033 011e 1B78     		ldrb	r3, [r3, #0]	@ zero_extendqisi2
 3034 0120 392B     		cmp	r3, #57
 3035 0122 17D9     		bls	.L125
 3036              	.L124:
 3037              		.loc 1 1268 0 discriminator 2
 3038 0124 3B69     		ldr	r3, [r7, #16]
 3039 0126 7A68     		ldr	r2, [r7, #4]
 3040 0128 D318     		adds	r3, r2, r3
ARM GAS  C:\Users\CHUCK~1.ERH\AppData\Local\Temp\cclfQUCJ.s 			page 77


 3041 012a 1B78     		ldrb	r3, [r3, #0]	@ zero_extendqisi2
 3042 012c 602B     		cmp	r3, #96
 3043 012e 05D9     		bls	.L126
 3044              		.loc 1 1268 0 discriminator 1
 3045 0130 3B69     		ldr	r3, [r7, #16]
 3046 0132 7A68     		ldr	r2, [r7, #4]
 3047 0134 D318     		adds	r3, r2, r3
 3048 0136 1B78     		ldrb	r3, [r3, #0]	@ zero_extendqisi2
 3049 0138 662B     		cmp	r3, #102
 3050 013a 0BD9     		bls	.L125
 3051              	.L126:
 3052              		.loc 1 1268 0 discriminator 2
 3053 013c 3B69     		ldr	r3, [r7, #16]
 3054 013e 7A68     		ldr	r2, [r7, #4]
 3055 0140 D318     		adds	r3, r2, r3
 3056 0142 1B78     		ldrb	r3, [r3, #0]	@ zero_extendqisi2
 3057 0144 402B     		cmp	r3, #64
 3058 0146 68D9     		bls	.L127
 3059              		.loc 1 1268 0 discriminator 3
 3060 0148 3B69     		ldr	r3, [r7, #16]
 3061 014a 7A68     		ldr	r2, [r7, #4]
 3062 014c D318     		adds	r3, r2, r3
 3063 014e 1B78     		ldrb	r3, [r3, #0]	@ zero_extendqisi2
 3064 0150 462B     		cmp	r3, #70
 3065 0152 62D8     		bhi	.L127
 3066              	.L125:
1269:.\Generated_Source\PSoC5/ETH.c **** 				mac[digit] += ETH_HEX2BIN(macString[index]);
 3067              		.loc 1 1269 0 is_stmt 1
 3068 0154 7B69     		ldr	r3, [r7, #20]
 3069 0156 3A68     		ldr	r2, [r7, #0]
 3070 0158 D218     		adds	r2, r2, r3
 3071 015a 7B69     		ldr	r3, [r7, #20]
 3072 015c 3968     		ldr	r1, [r7, #0]
 3073 015e CB18     		adds	r3, r1, r3
 3074 0160 1978     		ldrb	r1, [r3, #0]	@ zero_extendqisi2
 3075 0162 3B69     		ldr	r3, [r7, #16]
 3076 0164 7868     		ldr	r0, [r7, #4]
 3077 0166 C318     		adds	r3, r0, r3
 3078 0168 1B78     		ldrb	r3, [r3, #0]	@ zero_extendqisi2
 3079 016a 2F2B     		cmp	r3, #47
 3080 016c 0DD9     		bls	.L128
 3081              		.loc 1 1269 0 is_stmt 0 discriminator 1
 3082 016e 3B69     		ldr	r3, [r7, #16]
 3083 0170 7868     		ldr	r0, [r7, #4]
 3084 0172 C318     		adds	r3, r0, r3
 3085 0174 1B78     		ldrb	r3, [r3, #0]	@ zero_extendqisi2
 3086 0176 392B     		cmp	r3, #57
 3087 0178 07D8     		bhi	.L128
 3088 017a 3B69     		ldr	r3, [r7, #16]
 3089 017c 7868     		ldr	r0, [r7, #4]
 3090 017e C318     		adds	r3, r0, r3
 3091 0180 1B78     		ldrb	r3, [r3, #0]	@ zero_extendqisi2
 3092 0182 A3F13003 		sub	r3, r3, #48
 3093 0186 DBB2     		uxtb	r3, r3
 3094 0188 29E0     		b	.L129
 3095              	.L128:
 3096              		.loc 1 1269 0 discriminator 2
ARM GAS  C:\Users\CHUCK~1.ERH\AppData\Local\Temp\cclfQUCJ.s 			page 78


 3097 018a 3B69     		ldr	r3, [r7, #16]
 3098 018c 7868     		ldr	r0, [r7, #4]
 3099 018e C318     		adds	r3, r0, r3
 3100 0190 1B78     		ldrb	r3, [r3, #0]	@ zero_extendqisi2
 3101 0192 602B     		cmp	r3, #96
 3102 0194 0DD9     		bls	.L130
 3103              		.loc 1 1269 0 discriminator 4
 3104 0196 3B69     		ldr	r3, [r7, #16]
 3105 0198 7868     		ldr	r0, [r7, #4]
 3106 019a C318     		adds	r3, r0, r3
 3107 019c 1B78     		ldrb	r3, [r3, #0]	@ zero_extendqisi2
 3108 019e 662B     		cmp	r3, #102
 3109 01a0 07D8     		bhi	.L130
 3110              		.loc 1 1269 0 discriminator 2
 3111 01a2 3B69     		ldr	r3, [r7, #16]
 3112 01a4 7868     		ldr	r0, [r7, #4]
 3113 01a6 C318     		adds	r3, r0, r3
 3114 01a8 1B78     		ldrb	r3, [r3, #0]	@ zero_extendqisi2
 3115 01aa A3F15703 		sub	r3, r3, #87
 3116 01ae DBB2     		uxtb	r3, r3
 3117 01b0 15E0     		b	.L131
 3118              	.L130:
 3119              		.loc 1 1269 0 discriminator 5
 3120 01b2 3B69     		ldr	r3, [r7, #16]
 3121 01b4 7868     		ldr	r0, [r7, #4]
 3122 01b6 C318     		adds	r3, r0, r3
 3123 01b8 1B78     		ldrb	r3, [r3, #0]	@ zero_extendqisi2
 3124 01ba 402B     		cmp	r3, #64
 3125 01bc 0DD9     		bls	.L132
 3126              		.loc 1 1269 0 discriminator 7
 3127 01be 3B69     		ldr	r3, [r7, #16]
 3128 01c0 7868     		ldr	r0, [r7, #4]
 3129 01c2 C318     		adds	r3, r0, r3
 3130 01c4 1B78     		ldrb	r3, [r3, #0]	@ zero_extendqisi2
 3131 01c6 462B     		cmp	r3, #70
 3132 01c8 07D8     		bhi	.L132
 3133              		.loc 1 1269 0 discriminator 3
 3134 01ca 3B69     		ldr	r3, [r7, #16]
 3135 01cc 7868     		ldr	r0, [r7, #4]
 3136 01ce C318     		adds	r3, r0, r3
 3137 01d0 1B78     		ldrb	r3, [r3, #0]	@ zero_extendqisi2
 3138 01d2 A3F13703 		sub	r3, r3, #55
 3139 01d6 DBB2     		uxtb	r3, r3
 3140 01d8 01E0     		b	.L133
 3141              	.L132:
 3142              		.loc 1 1269 0 discriminator 8
 3143 01da 4FF00003 		mov	r3, #0
 3144              	.L133:
 3145              	.L131:
 3146              	.L129:
 3147              		.loc 1 1269 0 discriminator 3
 3148 01de CB18     		adds	r3, r1, r3
 3149 01e0 DBB2     		uxtb	r3, r3
 3150 01e2 1370     		strb	r3, [r2, #0]
1270:.\Generated_Source\PSoC5/ETH.c **** 				++index;
 3151              		.loc 1 1270 0 is_stmt 1 discriminator 3
 3152 01e4 3B69     		ldr	r3, [r7, #16]
ARM GAS  C:\Users\CHUCK~1.ERH\AppData\Local\Temp\cclfQUCJ.s 			page 79


 3153 01e6 03F10103 		add	r3, r3, #1
 3154 01ea 3B61     		str	r3, [r7, #16]
1271:.\Generated_Source\PSoC5/ETH.c **** 				/*
1272:.\Generated_Source\PSoC5/ETH.c **** 				 * now for digits other than digit 5 (the last one) look for
1273:.\Generated_Source\PSoC5/ETH.c **** 				 * the dash seperator.  If there is no dash, return bad data
1274:.\Generated_Source\PSoC5/ETH.c **** 				 */
1275:.\Generated_Source\PSoC5/ETH.c **** 				if (digit<5) {
 3155              		.loc 1 1275 0 discriminator 3
 3156 01ec 7B69     		ldr	r3, [r7, #20]
 3157 01ee 042B     		cmp	r3, #4
 3158 01f0 17DC     		bgt	.L136
1276:.\Generated_Source\PSoC5/ETH.c **** 					if( (macString[index]!='-') && (macString[index]!= ':') ){
 3159              		.loc 1 1276 0
 3160 01f2 3B69     		ldr	r3, [r7, #16]
 3161 01f4 7A68     		ldr	r2, [r7, #4]
 3162 01f6 D318     		adds	r3, r2, r3
 3163 01f8 1B78     		ldrb	r3, [r3, #0]	@ zero_extendqisi2
 3164 01fa 2D2B     		cmp	r3, #45
 3165 01fc 08D0     		beq	.L135
 3166              		.loc 1 1276 0 is_stmt 0 discriminator 1
 3167 01fe 3B69     		ldr	r3, [r7, #16]
 3168 0200 7A68     		ldr	r2, [r7, #4]
 3169 0202 D318     		adds	r3, r2, r3
 3170 0204 1B78     		ldrb	r3, [r3, #0]	@ zero_extendqisi2
 3171 0206 3A2B     		cmp	r3, #58
 3172 0208 02D0     		beq	.L135
1277:.\Generated_Source\PSoC5/ETH.c **** 						result = CYRET_BAD_DATA;
 3173              		.loc 1 1277 0 is_stmt 1
 3174 020a 4FF00603 		mov	r3, #6
 3175 020e FB60     		str	r3, [r7, #12]
 3176              	.L135:
1278:.\Generated_Source\PSoC5/ETH.c **** 					}
1279:.\Generated_Source\PSoC5/ETH.c **** 					++index; // move conversion pointer to the next value
 3177              		.loc 1 1279 0
 3178 0210 3B69     		ldr	r3, [r7, #16]
 3179 0212 03F10103 		add	r3, r3, #1
 3180 0216 3B61     		str	r3, [r7, #16]
1275:.\Generated_Source\PSoC5/ETH.c **** 				if (digit<5) {
 3181              		.loc 1 1275 0
 3182 0218 03E0     		b	.L136
 3183              	.L127:
1280:.\Generated_Source\PSoC5/ETH.c **** 				}
1281:.\Generated_Source\PSoC5/ETH.c **** 			}
1282:.\Generated_Source\PSoC5/ETH.c **** 			else {
1283:.\Generated_Source\PSoC5/ETH.c **** 				result = CYRET_BAD_DATA;
 3184              		.loc 1 1283 0
 3185 021a 4FF00603 		mov	r3, #6
 3186 021e FB60     		str	r3, [r7, #12]
1268:.\Generated_Source\PSoC5/ETH.c **** 			if (ETH_ISXDIGIT(macString[index])) {
 3187              		.loc 1 1268 0
 3188 0220 03E0     		b	.L137
 3189              	.L136:
 3190 0222 02E0     		b	.L137
 3191              	.L117:
1284:.\Generated_Source\PSoC5/ETH.c **** 			}
1285:.\Generated_Source\PSoC5/ETH.c **** 		}
1286:.\Generated_Source\PSoC5/ETH.c **** 		else {
ARM GAS  C:\Users\CHUCK~1.ERH\AppData\Local\Temp\cclfQUCJ.s 			page 80


1287:.\Generated_Source\PSoC5/ETH.c **** 			result = CYRET_BAD_DATA;
 3192              		.loc 1 1287 0
 3193 0224 4FF00603 		mov	r3, #6
 3194 0228 FB60     		str	r3, [r7, #12]
 3195              	.L137:
1262:.\Generated_Source\PSoC5/ETH.c **** 	for(digit = 0;(digit<6) && (result == CYRET_SUCCESS)&&(macString[index] != 0);++digit) {
 3196              		.loc 1 1262 0
 3197 022a 7B69     		ldr	r3, [r7, #20]
 3198 022c 03F10103 		add	r3, r3, #1
 3199 0230 7B61     		str	r3, [r7, #20]
 3200              	.L113:
1262:.\Generated_Source\PSoC5/ETH.c **** 	for(digit = 0;(digit<6) && (result == CYRET_SUCCESS)&&(macString[index] != 0);++digit) {
 3201              		.loc 1 1262 0 is_stmt 0 discriminator 1
 3202 0232 7B69     		ldr	r3, [r7, #20]
 3203 0234 052B     		cmp	r3, #5
 3204 0236 09DC     		bgt	.L138
1262:.\Generated_Source\PSoC5/ETH.c **** 	for(digit = 0;(digit<6) && (result == CYRET_SUCCESS)&&(macString[index] != 0);++digit) {
 3205              		.loc 1 1262 0 discriminator 2
 3206 0238 FB68     		ldr	r3, [r7, #12]
 3207 023a 002B     		cmp	r3, #0
 3208 023c 06D1     		bne	.L138
1262:.\Generated_Source\PSoC5/ETH.c **** 	for(digit = 0;(digit<6) && (result == CYRET_SUCCESS)&&(macString[index] != 0);++digit) {
 3209              		.loc 1 1262 0 discriminator 1
 3210 023e 3B69     		ldr	r3, [r7, #16]
 3211 0240 7A68     		ldr	r2, [r7, #4]
 3212 0242 D318     		adds	r3, r2, r3
 3213 0244 1B78     		ldrb	r3, [r3, #0]	@ zero_extendqisi2
 3214 0246 002B     		cmp	r3, #0
 3215 0248 7FF4E9AE 		bne	.L139
 3216              	.L138:
1288:.\Generated_Source\PSoC5/ETH.c **** 		}
1289:.\Generated_Source\PSoC5/ETH.c **** 	}
1290:.\Generated_Source\PSoC5/ETH.c **** 	return( result );
 3217              		.loc 1 1290 0 is_stmt 1
 3218 024c FB68     		ldr	r3, [r7, #12]
1291:.\Generated_Source\PSoC5/ETH.c **** }
 3219              		.loc 1 1291 0
 3220 024e 1846     		mov	r0, r3
 3221 0250 07F11C07 		add	r7, r7, #28
 3222 0254 BD46     		mov	sp, r7
 3223 0256 80BC     		pop	{r7}
 3224 0258 7047     		bx	lr
 3225              		.cfi_endproc
 3226              	.LFE103:
 3227              		.size	ETH_ParseMAC, .-ETH_ParseMAC
 3228 025a 00BF     		.section	.text.ETH_StringMAC,"ax",%progbits
 3229              		.align	2
 3230              		.global	ETH_StringMAC
 3231              		.thumb
 3232              		.thumb_func
 3233              		.type	ETH_StringMAC, %function
 3234              	ETH_StringMAC:
 3235              	.LFB104:
1292:.\Generated_Source\PSoC5/ETH.c **** /* ------------------------------------------------------------------------ */
1293:.\Generated_Source\PSoC5/ETH.c **** void ETH_StringMAC(uint8 *mac, char *macString)
1294:.\Generated_Source\PSoC5/ETH.c **** {
 3236              		.loc 1 1294 0
ARM GAS  C:\Users\CHUCK~1.ERH\AppData\Local\Temp\cclfQUCJ.s 			page 81


 3237              		.cfi_startproc
 3238              		@ args = 0, pretend = 0, frame = 16
 3239              		@ frame_needed = 1, uses_anonymous_args = 0
 3240              		@ link register save eliminated.
 3241 0000 80B4     		push	{r7}
 3242              	.LCFI142:
 3243              		.cfi_def_cfa_offset 4
 3244              		.cfi_offset 7, -4
 3245 0002 85B0     		sub	sp, sp, #20
 3246              	.LCFI143:
 3247              		.cfi_def_cfa_offset 24
 3248 0004 00AF     		add	r7, sp, #0
 3249              	.LCFI144:
 3250              		.cfi_def_cfa_register 7
 3251 0006 7860     		str	r0, [r7, #4]
 3252 0008 3960     		str	r1, [r7, #0]
1295:.\Generated_Source\PSoC5/ETH.c **** 	int digit;
1296:.\Generated_Source\PSoC5/ETH.c **** 	int index;
1297:.\Generated_Source\PSoC5/ETH.c **** 	
1298:.\Generated_Source\PSoC5/ETH.c **** 	/*
1299:.\Generated_Source\PSoC5/ETH.c **** 	 * Convert the MAC address specified in to a string
1300:.\Generated_Source\PSoC5/ETH.c **** 	 */
1301:.\Generated_Source\PSoC5/ETH.c **** 	index = 0;
 3253              		.loc 1 1301 0
 3254 000a 4FF00003 		mov	r3, #0
 3255 000e BB60     		str	r3, [r7, #8]
1302:.\Generated_Source\PSoC5/ETH.c **** 	for(digit=0;digit<6;++digit) {
 3256              		.loc 1 1302 0
 3257 0010 4FF00003 		mov	r3, #0
 3258 0014 FB60     		str	r3, [r7, #12]
 3259 0016 64E0     		b	.L142
 3260              	.L149:
1303:.\Generated_Source\PSoC5/ETH.c **** 		// convert the first nibble
1304:.\Generated_Source\PSoC5/ETH.c **** 		macString[index++] = ETH_BIN2HEX(((mac[digit]>>4)&0x0F));
 3261              		.loc 1 1304 0
 3262 0018 BB68     		ldr	r3, [r7, #8]
 3263 001a 3A68     		ldr	r2, [r7, #0]
 3264 001c D218     		adds	r2, r2, r3
 3265 001e FB68     		ldr	r3, [r7, #12]
 3266 0020 7968     		ldr	r1, [r7, #4]
 3267 0022 CB18     		adds	r3, r1, r3
 3268 0024 1B78     		ldrb	r3, [r3, #0]	@ zero_extendqisi2
 3269 0026 4FEA1313 		lsr	r3, r3, #4
 3270 002a DBB2     		uxtb	r3, r3
 3271 002c 03F00F03 		and	r3, r3, #15
 3272 0030 092B     		cmp	r3, #9
 3273 0032 0ADD     		ble	.L143
 3274              		.loc 1 1304 0 is_stmt 0 discriminator 1
 3275 0034 FB68     		ldr	r3, [r7, #12]
 3276 0036 7968     		ldr	r1, [r7, #4]
 3277 0038 CB18     		adds	r3, r1, r3
 3278 003a 1B78     		ldrb	r3, [r3, #0]	@ zero_extendqisi2
 3279 003c 4FEA1313 		lsr	r3, r3, #4
 3280 0040 DBB2     		uxtb	r3, r3
 3281 0042 03F13703 		add	r3, r3, #55
 3282 0046 DBB2     		uxtb	r3, r3
 3283 0048 09E0     		b	.L144
ARM GAS  C:\Users\CHUCK~1.ERH\AppData\Local\Temp\cclfQUCJ.s 			page 82


 3284              	.L143:
 3285              		.loc 1 1304 0 discriminator 2
 3286 004a FB68     		ldr	r3, [r7, #12]
 3287 004c 7968     		ldr	r1, [r7, #4]
 3288 004e CB18     		adds	r3, r1, r3
 3289 0050 1B78     		ldrb	r3, [r3, #0]	@ zero_extendqisi2
 3290 0052 4FEA1313 		lsr	r3, r3, #4
 3291 0056 DBB2     		uxtb	r3, r3
 3292 0058 03F13003 		add	r3, r3, #48
 3293 005c DBB2     		uxtb	r3, r3
 3294              	.L144:
 3295              		.loc 1 1304 0 discriminator 3
 3296 005e 1370     		strb	r3, [r2, #0]
 3297 0060 BB68     		ldr	r3, [r7, #8]
 3298 0062 03F10103 		add	r3, r3, #1
 3299 0066 BB60     		str	r3, [r7, #8]
1305:.\Generated_Source\PSoC5/ETH.c **** 		macString[index++] = ETH_BIN2HEX((mac[digit]&0x0F));
 3300              		.loc 1 1305 0 is_stmt 1 discriminator 3
 3301 0068 BB68     		ldr	r3, [r7, #8]
 3302 006a 3A68     		ldr	r2, [r7, #0]
 3303 006c D218     		adds	r2, r2, r3
 3304 006e FB68     		ldr	r3, [r7, #12]
 3305 0070 7968     		ldr	r1, [r7, #4]
 3306 0072 CB18     		adds	r3, r1, r3
 3307 0074 1B78     		ldrb	r3, [r3, #0]	@ zero_extendqisi2
 3308 0076 03F00F03 		and	r3, r3, #15
 3309 007a 092B     		cmp	r3, #9
 3310 007c 0ADD     		ble	.L145
 3311              		.loc 1 1305 0 is_stmt 0 discriminator 1
 3312 007e FB68     		ldr	r3, [r7, #12]
 3313 0080 7968     		ldr	r1, [r7, #4]
 3314 0082 CB18     		adds	r3, r1, r3
 3315 0084 1B78     		ldrb	r3, [r3, #0]	@ zero_extendqisi2
 3316 0086 03F00F03 		and	r3, r3, #15
 3317 008a DBB2     		uxtb	r3, r3
 3318 008c 03F13703 		add	r3, r3, #55
 3319 0090 DBB2     		uxtb	r3, r3
 3320 0092 09E0     		b	.L146
 3321              	.L145:
 3322              		.loc 1 1305 0 discriminator 2
 3323 0094 FB68     		ldr	r3, [r7, #12]
 3324 0096 7968     		ldr	r1, [r7, #4]
 3325 0098 CB18     		adds	r3, r1, r3
 3326 009a 1B78     		ldrb	r3, [r3, #0]	@ zero_extendqisi2
 3327 009c 03F00F03 		and	r3, r3, #15
 3328 00a0 DBB2     		uxtb	r3, r3
 3329 00a2 03F13003 		add	r3, r3, #48
 3330 00a6 DBB2     		uxtb	r3, r3
 3331              	.L146:
 3332              		.loc 1 1305 0 discriminator 3
 3333 00a8 1370     		strb	r3, [r2, #0]
 3334 00aa BB68     		ldr	r3, [r7, #8]
 3335 00ac 03F10103 		add	r3, r3, #1
 3336 00b0 BB60     		str	r3, [r7, #8]
1306:.\Generated_Source\PSoC5/ETH.c **** 		if (digit<5) {
 3337              		.loc 1 1306 0 is_stmt 1 discriminator 3
 3338 00b2 FB68     		ldr	r3, [r7, #12]
ARM GAS  C:\Users\CHUCK~1.ERH\AppData\Local\Temp\cclfQUCJ.s 			page 83


 3339 00b4 042B     		cmp	r3, #4
 3340 00b6 0ADC     		bgt	.L147
1307:.\Generated_Source\PSoC5/ETH.c **** 			macString[index++] = '-';
 3341              		.loc 1 1307 0
 3342 00b8 BB68     		ldr	r3, [r7, #8]
 3343 00ba 3A68     		ldr	r2, [r7, #0]
 3344 00bc D318     		adds	r3, r2, r3
 3345 00be 4FF02D02 		mov	r2, #45
 3346 00c2 1A70     		strb	r2, [r3, #0]
 3347 00c4 BB68     		ldr	r3, [r7, #8]
 3348 00c6 03F10103 		add	r3, r3, #1
 3349 00ca BB60     		str	r3, [r7, #8]
 3350 00cc 05E0     		b	.L148
 3351              	.L147:
1308:.\Generated_Source\PSoC5/ETH.c **** 		}
1309:.\Generated_Source\PSoC5/ETH.c **** 		else {
1310:.\Generated_Source\PSoC5/ETH.c **** 			macString[index] = 0;
 3352              		.loc 1 1310 0
 3353 00ce BB68     		ldr	r3, [r7, #8]
 3354 00d0 3A68     		ldr	r2, [r7, #0]
 3355 00d2 D318     		adds	r3, r2, r3
 3356 00d4 4FF00002 		mov	r2, #0
 3357 00d8 1A70     		strb	r2, [r3, #0]
 3358              	.L148:
1302:.\Generated_Source\PSoC5/ETH.c **** 	for(digit=0;digit<6;++digit) {
 3359              		.loc 1 1302 0
 3360 00da FB68     		ldr	r3, [r7, #12]
 3361 00dc 03F10103 		add	r3, r3, #1
 3362 00e0 FB60     		str	r3, [r7, #12]
 3363              	.L142:
1302:.\Generated_Source\PSoC5/ETH.c **** 	for(digit=0;digit<6;++digit) {
 3364              		.loc 1 1302 0 is_stmt 0 discriminator 1
 3365 00e2 FB68     		ldr	r3, [r7, #12]
 3366 00e4 052B     		cmp	r3, #5
 3367 00e6 97DD     		ble	.L149
1311:.\Generated_Source\PSoC5/ETH.c **** 		}
1312:.\Generated_Source\PSoC5/ETH.c **** 	}
1313:.\Generated_Source\PSoC5/ETH.c **** }
 3368              		.loc 1 1313 0 is_stmt 1
 3369 00e8 07F11407 		add	r7, r7, #20
 3370 00ec BD46     		mov	sp, r7
 3371 00ee 80BC     		pop	{r7}
 3372 00f0 7047     		bx	lr
 3373              		.cfi_endproc
 3374              	.LFE104:
 3375              		.size	ETH_StringMAC, .-ETH_StringMAC
 3376 00f2 00BF     		.section	.text.ETH_StringIP,"ax",%progbits
 3377              		.align	2
 3378              		.global	ETH_StringIP
 3379              		.thumb
 3380              		.thumb_func
 3381              		.type	ETH_StringIP, %function
 3382              	ETH_StringIP:
 3383              	.LFB105:
1314:.\Generated_Source\PSoC5/ETH.c **** /* ------------------------------------------------------------------------ */
1315:.\Generated_Source\PSoC5/ETH.c **** void ETH_StringIP( uint32 ip, char *ipString )
1316:.\Generated_Source\PSoC5/ETH.c **** {
ARM GAS  C:\Users\CHUCK~1.ERH\AppData\Local\Temp\cclfQUCJ.s 			page 84


 3384              		.loc 1 1316 0
 3385              		.cfi_startproc
 3386              		@ args = 0, pretend = 0, frame = 32
 3387              		@ frame_needed = 1, uses_anonymous_args = 0
 3388              		@ link register save eliminated.
 3389 0000 80B4     		push	{r7}
 3390              	.LCFI145:
 3391              		.cfi_def_cfa_offset 4
 3392              		.cfi_offset 7, -4
 3393 0002 89B0     		sub	sp, sp, #36
 3394              	.LCFI146:
 3395              		.cfi_def_cfa_offset 40
 3396 0004 00AF     		add	r7, sp, #0
 3397              	.LCFI147:
 3398              		.cfi_def_cfa_register 7
 3399 0006 7860     		str	r0, [r7, #4]
 3400 0008 3960     		str	r1, [r7, #0]
1317:.\Generated_Source\PSoC5/ETH.c **** 	uint8 *ipBytes;
1318:.\Generated_Source\PSoC5/ETH.c **** 	int index;
1319:.\Generated_Source\PSoC5/ETH.c **** 	int digit;
1320:.\Generated_Source\PSoC5/ETH.c **** 	int work, temp;
1321:.\Generated_Source\PSoC5/ETH.c **** 	
1322:.\Generated_Source\PSoC5/ETH.c **** 	ipBytes = (uint8*)&ip;
 3401              		.loc 1 1322 0
 3402 000a 07F10403 		add	r3, r7, #4
 3403 000e 3B61     		str	r3, [r7, #16]
1323:.\Generated_Source\PSoC5/ETH.c **** 	index = 0;
 3404              		.loc 1 1323 0
 3405 0010 4FF00003 		mov	r3, #0
 3406 0014 FB61     		str	r3, [r7, #28]
1324:.\Generated_Source\PSoC5/ETH.c **** 	for(digit=0;digit<4;++digit) {
 3407              		.loc 1 1324 0
 3408 0016 4FF00003 		mov	r3, #0
 3409 001a BB61     		str	r3, [r7, #24]
 3410 001c 73E0     		b	.L151
 3411              	.L156:
1325:.\Generated_Source\PSoC5/ETH.c **** 		work = ipBytes[digit];
 3412              		.loc 1 1325 0
 3413 001e BB69     		ldr	r3, [r7, #24]
 3414 0020 3A69     		ldr	r2, [r7, #16]
 3415 0022 D318     		adds	r3, r2, r3
 3416 0024 1B78     		ldrb	r3, [r3, #0]	@ zero_extendqisi2
 3417 0026 7B61     		str	r3, [r7, #20]
1326:.\Generated_Source\PSoC5/ETH.c **** 		if (work >= 100) {
 3418              		.loc 1 1326 0
 3419 0028 7B69     		ldr	r3, [r7, #20]
 3420 002a 632B     		cmp	r3, #99
 3421 002c 21DD     		ble	.L152
1327:.\Generated_Source\PSoC5/ETH.c **** 			temp = work/100;
 3422              		.loc 1 1327 0
 3423 002e 7A69     		ldr	r2, [r7, #20]
 3424 0030 48F21F53 		movw	r3, #34079
 3425 0034 C5F2EB13 		movt	r3, 20971
 3426 0038 83FB0213 		smull	r1, r3, r3, r2
 3427 003c 4FEA6311 		asr	r1, r3, #5
 3428 0040 4FEAE273 		asr	r3, r2, #31
 3429 0044 CB1A     		subs	r3, r1, r3
ARM GAS  C:\Users\CHUCK~1.ERH\AppData\Local\Temp\cclfQUCJ.s 			page 85


 3430 0046 FB60     		str	r3, [r7, #12]
1328:.\Generated_Source\PSoC5/ETH.c **** 			work -= (temp*100);
 3431              		.loc 1 1328 0
 3432 0048 FB68     		ldr	r3, [r7, #12]
 3433 004a 6FF06302 		mvn	r2, #99
 3434 004e 02FB03F3 		mul	r3, r2, r3
 3435 0052 7A69     		ldr	r2, [r7, #20]
 3436 0054 D318     		adds	r3, r2, r3
 3437 0056 7B61     		str	r3, [r7, #20]
1329:.\Generated_Source\PSoC5/ETH.c **** 			ipString[index++] = '0' + temp;
 3438              		.loc 1 1329 0
 3439 0058 FB69     		ldr	r3, [r7, #28]
 3440 005a 3A68     		ldr	r2, [r7, #0]
 3441 005c D318     		adds	r3, r2, r3
 3442 005e FA68     		ldr	r2, [r7, #12]
 3443 0060 D2B2     		uxtb	r2, r2
 3444 0062 02F13002 		add	r2, r2, #48
 3445 0066 D2B2     		uxtb	r2, r2
 3446 0068 1A70     		strb	r2, [r3, #0]
 3447 006a FB69     		ldr	r3, [r7, #28]
 3448 006c 03F10103 		add	r3, r3, #1
 3449 0070 FB61     		str	r3, [r7, #28]
 3450              	.L152:
1330:.\Generated_Source\PSoC5/ETH.c **** 		}
1331:.\Generated_Source\PSoC5/ETH.c **** 		if (work >= 10) {
 3451              		.loc 1 1331 0
 3452 0072 7B69     		ldr	r3, [r7, #20]
 3453 0074 092B     		cmp	r3, #9
 3454 0076 21DD     		ble	.L153
1332:.\Generated_Source\PSoC5/ETH.c **** 			temp = work /10;
 3455              		.loc 1 1332 0
 3456 0078 7A69     		ldr	r2, [r7, #20]
 3457 007a 46F26763 		movw	r3, #26215
 3458 007e C6F26663 		movt	r3, 26214
 3459 0082 83FB0213 		smull	r1, r3, r3, r2
 3460 0086 4FEAA301 		asr	r1, r3, #2
 3461 008a 4FEAE273 		asr	r3, r2, #31
 3462 008e CB1A     		subs	r3, r1, r3
 3463 0090 FB60     		str	r3, [r7, #12]
1333:.\Generated_Source\PSoC5/ETH.c **** 			work -= (temp*10);
 3464              		.loc 1 1333 0
 3465 0092 FB68     		ldr	r3, [r7, #12]
 3466 0094 6FF00902 		mvn	r2, #9
 3467 0098 02FB03F3 		mul	r3, r2, r3
 3468 009c 7A69     		ldr	r2, [r7, #20]
 3469 009e D318     		adds	r3, r2, r3
 3470 00a0 7B61     		str	r3, [r7, #20]
1334:.\Generated_Source\PSoC5/ETH.c **** 			ipString[index++] = '0'+temp;
 3471              		.loc 1 1334 0
 3472 00a2 FB69     		ldr	r3, [r7, #28]
 3473 00a4 3A68     		ldr	r2, [r7, #0]
 3474 00a6 D318     		adds	r3, r2, r3
 3475 00a8 FA68     		ldr	r2, [r7, #12]
 3476 00aa D2B2     		uxtb	r2, r2
 3477 00ac 02F13002 		add	r2, r2, #48
 3478 00b0 D2B2     		uxtb	r2, r2
 3479 00b2 1A70     		strb	r2, [r3, #0]
ARM GAS  C:\Users\CHUCK~1.ERH\AppData\Local\Temp\cclfQUCJ.s 			page 86


 3480 00b4 FB69     		ldr	r3, [r7, #28]
 3481 00b6 03F10103 		add	r3, r3, #1
 3482 00ba FB61     		str	r3, [r7, #28]
 3483              	.L153:
1335:.\Generated_Source\PSoC5/ETH.c **** 		}
1336:.\Generated_Source\PSoC5/ETH.c **** 		ipString[index++] = '0'+work;
 3484              		.loc 1 1336 0
 3485 00bc FB69     		ldr	r3, [r7, #28]
 3486 00be 3A68     		ldr	r2, [r7, #0]
 3487 00c0 D318     		adds	r3, r2, r3
 3488 00c2 7A69     		ldr	r2, [r7, #20]
 3489 00c4 D2B2     		uxtb	r2, r2
 3490 00c6 02F13002 		add	r2, r2, #48
 3491 00ca D2B2     		uxtb	r2, r2
 3492 00cc 1A70     		strb	r2, [r3, #0]
 3493 00ce FB69     		ldr	r3, [r7, #28]
 3494 00d0 03F10103 		add	r3, r3, #1
 3495 00d4 FB61     		str	r3, [r7, #28]
1337:.\Generated_Source\PSoC5/ETH.c **** 		if (digit <3) {
 3496              		.loc 1 1337 0
 3497 00d6 BB69     		ldr	r3, [r7, #24]
 3498 00d8 022B     		cmp	r3, #2
 3499 00da 0ADC     		bgt	.L154
1338:.\Generated_Source\PSoC5/ETH.c **** 			ipString[index++] = '.';
 3500              		.loc 1 1338 0
 3501 00dc FB69     		ldr	r3, [r7, #28]
 3502 00de 3A68     		ldr	r2, [r7, #0]
 3503 00e0 D318     		adds	r3, r2, r3
 3504 00e2 4FF02E02 		mov	r2, #46
 3505 00e6 1A70     		strb	r2, [r3, #0]
 3506 00e8 FB69     		ldr	r3, [r7, #28]
 3507 00ea 03F10103 		add	r3, r3, #1
 3508 00ee FB61     		str	r3, [r7, #28]
 3509 00f0 05E0     		b	.L155
 3510              	.L154:
1339:.\Generated_Source\PSoC5/ETH.c **** 		}
1340:.\Generated_Source\PSoC5/ETH.c **** 		else {
1341:.\Generated_Source\PSoC5/ETH.c **** 			ipString[index] = 0;
 3511              		.loc 1 1341 0
 3512 00f2 FB69     		ldr	r3, [r7, #28]
 3513 00f4 3A68     		ldr	r2, [r7, #0]
 3514 00f6 D318     		adds	r3, r2, r3
 3515 00f8 4FF00002 		mov	r2, #0
 3516 00fc 1A70     		strb	r2, [r3, #0]
 3517              	.L155:
1324:.\Generated_Source\PSoC5/ETH.c **** 	for(digit=0;digit<4;++digit) {
 3518              		.loc 1 1324 0
 3519 00fe BB69     		ldr	r3, [r7, #24]
 3520 0100 03F10103 		add	r3, r3, #1
 3521 0104 BB61     		str	r3, [r7, #24]
 3522              	.L151:
1324:.\Generated_Source\PSoC5/ETH.c **** 	for(digit=0;digit<4;++digit) {
 3523              		.loc 1 1324 0 is_stmt 0 discriminator 1
 3524 0106 BB69     		ldr	r3, [r7, #24]
 3525 0108 032B     		cmp	r3, #3
 3526 010a 88DD     		ble	.L156
1342:.\Generated_Source\PSoC5/ETH.c **** 		}
ARM GAS  C:\Users\CHUCK~1.ERH\AppData\Local\Temp\cclfQUCJ.s 			page 87


1343:.\Generated_Source\PSoC5/ETH.c **** 	}
1344:.\Generated_Source\PSoC5/ETH.c **** }
 3527              		.loc 1 1344 0 is_stmt 1
 3528 010c 07F12407 		add	r7, r7, #36
 3529 0110 BD46     		mov	sp, r7
 3530 0112 80BC     		pop	{r7}
 3531 0114 7047     		bx	lr
 3532              		.cfi_endproc
 3533              	.LFE105:
 3534              		.size	ETH_StringIP, .-ETH_StringIP
 3535 0116 00BF     		.section	.text.ETH_SetIP,"ax",%progbits
 3536              		.align	2
 3537              		.global	ETH_SetIP
 3538              		.thumb
 3539              		.thumb_func
 3540              		.type	ETH_SetIP, %function
 3541              	ETH_SetIP:
 3542              	.LFB106:
1345:.\Generated_Source\PSoC5/ETH.c **** 
1346:.\Generated_Source\PSoC5/ETH.c **** /* ------------------------------------------------------------------------ */
1347:.\Generated_Source\PSoC5/ETH.c **** uint8
1348:.\Generated_Source\PSoC5/ETH.c **** ETH_SetIP( uint32 ip )
1349:.\Generated_Source\PSoC5/ETH.c **** {
 3543              		.loc 1 1349 0
 3544              		.cfi_startproc
 3545              		@ args = 0, pretend = 0, frame = 16
 3546              		@ frame_needed = 1, uses_anonymous_args = 0
 3547 0000 80B5     		push	{r7, lr}
 3548              	.LCFI148:
 3549              		.cfi_def_cfa_offset 8
 3550              		.cfi_offset 7, -8
 3551              		.cfi_offset 14, -4
 3552 0002 84B0     		sub	sp, sp, #16
 3553              	.LCFI149:
 3554              		.cfi_def_cfa_offset 24
 3555 0004 00AF     		add	r7, sp, #0
 3556              	.LCFI150:
 3557              		.cfi_def_cfa_register 7
 3558 0006 7860     		str	r0, [r7, #4]
1350:.\Generated_Source\PSoC5/ETH.c **** 	uint8 ok = 0;
 3559              		.loc 1 1350 0
 3560 0008 4FF00003 		mov	r3, #0
 3561 000c FB73     		strb	r3, [r7, #15]
1351:.\Generated_Source\PSoC5/ETH.c **** 	
1352:.\Generated_Source\PSoC5/ETH.c **** 	if ( ( ip != 0) && (ip != 0xFFFFFFFF) ) {
 3562              		.loc 1 1352 0
 3563 000e 7B68     		ldr	r3, [r7, #4]
 3564 0010 002B     		cmp	r3, #0
 3565 0012 09D0     		beq	.L158
 3566              		.loc 1 1352 0 is_stmt 0 discriminator 1
 3567 0014 7B68     		ldr	r3, [r7, #4]
 3568 0016 B3F1FF3F 		cmp	r3, #-1
 3569 001a 05D0     		beq	.L158
1353:.\Generated_Source\PSoC5/ETH.c **** 		ETH_SetSourceIP( ip );
 3570              		.loc 1 1353 0 is_stmt 1
 3571 001c 7868     		ldr	r0, [r7, #4]
 3572 001e FFF7FEFF 		bl	ETH_SetSourceIP
ARM GAS  C:\Users\CHUCK~1.ERH\AppData\Local\Temp\cclfQUCJ.s 			page 88


1354:.\Generated_Source\PSoC5/ETH.c **** 		ok = 0xFF;
 3573              		.loc 1 1354 0
 3574 0022 4FF0FF03 		mov	r3, #255
 3575 0026 FB73     		strb	r3, [r7, #15]
 3576              	.L158:
1355:.\Generated_Source\PSoC5/ETH.c **** 	}
1356:.\Generated_Source\PSoC5/ETH.c **** 	
1357:.\Generated_Source\PSoC5/ETH.c **** 	return ok;
 3577              		.loc 1 1357 0
 3578 0028 FB7B     		ldrb	r3, [r7, #15]	@ zero_extendqisi2
1358:.\Generated_Source\PSoC5/ETH.c **** }
 3579              		.loc 1 1358 0
 3580 002a 1846     		mov	r0, r3
 3581 002c 07F11007 		add	r7, r7, #16
 3582 0030 BD46     		mov	sp, r7
 3583 0032 80BD     		pop	{r7, pc}
 3584              		.cfi_endproc
 3585              	.LFE106:
 3586              		.size	ETH_SetIP, .-ETH_SetIP
 3587              		.section	.text.ETH_GetIP,"ax",%progbits
 3588              		.align	2
 3589              		.global	ETH_GetIP
 3590              		.thumb
 3591              		.thumb_func
 3592              		.type	ETH_GetIP, %function
 3593              	ETH_GetIP:
 3594              	.LFB107:
1359:.\Generated_Source\PSoC5/ETH.c **** /* ------------------------------------------------------------------------ */
1360:.\Generated_Source\PSoC5/ETH.c **** uint32
1361:.\Generated_Source\PSoC5/ETH.c **** ETH_GetIP( void )
1362:.\Generated_Source\PSoC5/ETH.c **** {
 3595              		.loc 1 1362 0
 3596              		.cfi_startproc
 3597              		@ args = 0, pretend = 0, frame = 0
 3598              		@ frame_needed = 1, uses_anonymous_args = 0
 3599 0000 80B5     		push	{r7, lr}
 3600              	.LCFI151:
 3601              		.cfi_def_cfa_offset 8
 3602              		.cfi_offset 7, -8
 3603              		.cfi_offset 14, -4
 3604 0002 00AF     		add	r7, sp, #0
 3605              	.LCFI152:
 3606              		.cfi_def_cfa_register 7
1363:.\Generated_Source\PSoC5/ETH.c **** 	return ETH_GetSourceIP();
 3607              		.loc 1 1363 0
 3608 0004 FFF7FEFF 		bl	ETH_GetSourceIP
 3609 0008 0346     		mov	r3, r0
1364:.\Generated_Source\PSoC5/ETH.c **** }
 3610              		.loc 1 1364 0
 3611 000a 1846     		mov	r0, r3
 3612 000c 80BD     		pop	{r7, pc}
 3613              		.cfi_endproc
 3614              	.LFE107:
 3615              		.size	ETH_GetIP, .-ETH_GetIP
 3616 000e 00BF     		.section	.text.ETH_SetMAC,"ax",%progbits
 3617              		.align	2
 3618              		.global	ETH_SetMAC
ARM GAS  C:\Users\CHUCK~1.ERH\AppData\Local\Temp\cclfQUCJ.s 			page 89


 3619              		.thumb
 3620              		.thumb_func
 3621              		.type	ETH_SetMAC, %function
 3622              	ETH_SetMAC:
 3623              	.LFB108:
1365:.\Generated_Source\PSoC5/ETH.c **** /* ------------------------------------------------------------------------ */
1366:.\Generated_Source\PSoC5/ETH.c **** void
1367:.\Generated_Source\PSoC5/ETH.c **** ETH_SetMAC( uint8* mac )
1368:.\Generated_Source\PSoC5/ETH.c **** {
 3624              		.loc 1 1368 0
 3625              		.cfi_startproc
 3626              		@ args = 0, pretend = 0, frame = 8
 3627              		@ frame_needed = 1, uses_anonymous_args = 0
 3628 0000 80B5     		push	{r7, lr}
 3629              	.LCFI153:
 3630              		.cfi_def_cfa_offset 8
 3631              		.cfi_offset 7, -8
 3632              		.cfi_offset 14, -4
 3633 0002 82B0     		sub	sp, sp, #8
 3634              	.LCFI154:
 3635              		.cfi_def_cfa_offset 16
 3636 0004 00AF     		add	r7, sp, #0
 3637              	.LCFI155:
 3638              		.cfi_def_cfa_register 7
 3639 0006 7860     		str	r0, [r7, #4]
1369:.\Generated_Source\PSoC5/ETH.c **** 	ETH_SetSourceMAC( mac );
 3640              		.loc 1 1369 0
 3641 0008 7868     		ldr	r0, [r7, #4]
 3642 000a FFF7FEFF 		bl	ETH_SetSourceMAC
1370:.\Generated_Source\PSoC5/ETH.c **** }
 3643              		.loc 1 1370 0
 3644 000e 07F10807 		add	r7, r7, #8
 3645 0012 BD46     		mov	sp, r7
 3646 0014 80BD     		pop	{r7, pc}
 3647              		.cfi_endproc
 3648              	.LFE108:
 3649              		.size	ETH_SetMAC, .-ETH_SetMAC
 3650 0016 00BF     		.section	.text.ETH_GetMAC,"ax",%progbits
 3651              		.align	2
 3652              		.global	ETH_GetMAC
 3653              		.thumb
 3654              		.thumb_func
 3655              		.type	ETH_GetMAC, %function
 3656              	ETH_GetMAC:
 3657              	.LFB109:
1371:.\Generated_Source\PSoC5/ETH.c **** /* ------------------------------------------------------------------------ */
1372:.\Generated_Source\PSoC5/ETH.c **** void
1373:.\Generated_Source\PSoC5/ETH.c **** ETH_GetMAC( uint8* mac )
1374:.\Generated_Source\PSoC5/ETH.c **** {
 3658              		.loc 1 1374 0
 3659              		.cfi_startproc
 3660              		@ args = 0, pretend = 0, frame = 8
 3661              		@ frame_needed = 1, uses_anonymous_args = 0
 3662 0000 80B5     		push	{r7, lr}
 3663              	.LCFI156:
 3664              		.cfi_def_cfa_offset 8
 3665              		.cfi_offset 7, -8
ARM GAS  C:\Users\CHUCK~1.ERH\AppData\Local\Temp\cclfQUCJ.s 			page 90


 3666              		.cfi_offset 14, -4
 3667 0002 82B0     		sub	sp, sp, #8
 3668              	.LCFI157:
 3669              		.cfi_def_cfa_offset 16
 3670 0004 00AF     		add	r7, sp, #0
 3671              	.LCFI158:
 3672              		.cfi_def_cfa_register 7
 3673 0006 7860     		str	r0, [r7, #4]
1375:.\Generated_Source\PSoC5/ETH.c **** 	ETH_GetSourceMAC( mac );
 3674              		.loc 1 1375 0
 3675 0008 7868     		ldr	r0, [r7, #4]
 3676 000a FFF7FEFF 		bl	ETH_GetSourceMAC
1376:.\Generated_Source\PSoC5/ETH.c **** }
 3677              		.loc 1 1376 0
 3678 000e 07F10807 		add	r7, r7, #8
 3679 0012 BD46     		mov	sp, r7
 3680 0014 80BD     		pop	{r7, pc}
 3681              		.cfi_endproc
 3682              	.LFE109:
 3683              		.size	ETH_GetMAC, .-ETH_GetMAC
 3684 0016 00BF     		.section	.text.ETH_SocketOpen,"ax",%progbits
 3685              		.align	2
 3686              		.global	ETH_SocketOpen
 3687              		.thumb
 3688              		.thumb_func
 3689              		.type	ETH_SocketOpen, %function
 3690              	ETH_SocketOpen:
 3691              	.LFB110:
1377:.\Generated_Source\PSoC5/ETH.c **** #endif
1378:.\Generated_Source\PSoC5/ETH.c **** /* ======================================================================== */
1379:.\Generated_Source\PSoC5/ETH.c **** /* Socket Controls */
1380:.\Generated_Source\PSoC5/ETH.c **** #if (1)
1381:.\Generated_Source\PSoC5/ETH.c **** /* ------------------------------------------------------------------------ */
1382:.\Generated_Source\PSoC5/ETH.c **** uint8
1383:.\Generated_Source\PSoC5/ETH.c **** ETH_SocketOpen( uint8 Protocol, uint16 port, uint8 flags )
1384:.\Generated_Source\PSoC5/ETH.c **** {
 3692              		.loc 1 1384 0
 3693              		.cfi_startproc
 3694              		@ args = 0, pretend = 0, frame = 16
 3695              		@ frame_needed = 1, uses_anonymous_args = 0
 3696 0000 80B5     		push	{r7, lr}
 3697              	.LCFI159:
 3698              		.cfi_def_cfa_offset 8
 3699              		.cfi_offset 7, -8
 3700              		.cfi_offset 14, -4
 3701 0002 84B0     		sub	sp, sp, #16
 3702              	.LCFI160:
 3703              		.cfi_def_cfa_offset 24
 3704 0004 00AF     		add	r7, sp, #0
 3705              	.LCFI161:
 3706              		.cfi_def_cfa_register 7
 3707 0006 1346     		mov	r3, r2
 3708 0008 0246     		mov	r2, r0
 3709 000a FA71     		strb	r2, [r7, #7]
 3710 000c 0A46     		mov	r2, r1	@ movhi
 3711 000e BA80     		strh	r2, [r7, #4]	@ movhi
 3712 0010 BB71     		strb	r3, [r7, #6]
ARM GAS  C:\Users\CHUCK~1.ERH\AppData\Local\Temp\cclfQUCJ.s 			page 91


1385:.\Generated_Source\PSoC5/ETH.c **** 	uint8 socket;
1386:.\Generated_Source\PSoC5/ETH.c **** 	int index;
1387:.\Generated_Source\PSoC5/ETH.c **** 	
1388:.\Generated_Source\PSoC5/ETH.c **** 	/*
1389:.\Generated_Source\PSoC5/ETH.c **** 	 * This function will look for the first available socket for allocation
1390:.\Generated_Source\PSoC5/ETH.c **** 	 * using the defined protocol.  The socket configuration will then be
1391:.\Generated_Source\PSoC5/ETH.c **** 	 * initialized and saved in the allocation table. If the requested socket
1392:.\Generated_Source\PSoC5/ETH.c **** 	 * can not be initialized, 0xFF is returned
1393:.\Generated_Source\PSoC5/ETH.c **** 	 */
1394:.\Generated_Source\PSoC5/ETH.c **** 	socket = 0xFF;
 3713              		.loc 1 1394 0
 3714 0012 4FF0FF03 		mov	r3, #255
 3715 0016 FB73     		strb	r3, [r7, #15]
1395:.\Generated_Source\PSoC5/ETH.c **** 	/* find the first available socket to open, and how much memory is available */
1396:.\Generated_Source\PSoC5/ETH.c **** 	for( index = 0;index<ETH_MAX_SOCKET;++index) {
 3716              		.loc 1 1396 0
 3717 0018 4FF00003 		mov	r3, #0
 3718 001c BB60     		str	r3, [r7, #8]
 3719 001e 17E0     		b	.L165
 3720              	.L168:
1397:.\Generated_Source\PSoC5/ETH.c **** 		if ( (socket == 0xFF) && (ETH_SocketConfig[index].Protocol == 0) ) {
 3721              		.loc 1 1397 0
 3722 0020 FB7B     		ldrb	r3, [r7, #15]	@ zero_extendqisi2
 3723 0022 FF2B     		cmp	r3, #255
 3724 0024 10D1     		bne	.L166
 3725              		.loc 1 1397 0 is_stmt 0 discriminator 1
 3726 0026 40F20003 		movw	r3, #:lower16:ETH_SocketConfig
 3727 002a C0F20003 		movt	r3, #:upper16:ETH_SocketConfig
 3728 002e BA68     		ldr	r2, [r7, #8]
 3729 0030 13F83230 		ldrb	r3, [r3, r2, lsl #3]	@ zero_extendqisi2
 3730 0034 002B     		cmp	r3, #0
 3731 0036 07D1     		bne	.L166
1398:.\Generated_Source\PSoC5/ETH.c **** 			/*
1399:.\Generated_Source\PSoC5/ETH.c **** 			 * Since the W5100 does not support MAC mode commucications, check to see
1400:.\Generated_Source\PSoC5/ETH.c **** 			 * if the socket that is free was socket 0.  If the mac protocol was
1401:.\Generated_Source\PSoC5/ETH.c **** 			 * selected, ignore socket 0
1402:.\Generated_Source\PSoC5/ETH.c **** 			 */
1403:.\Generated_Source\PSoC5/ETH.c **** 			if ( (Protocol != ETH_PROTO_MAC) || (index != 0) ) {
 3732              		.loc 1 1403 0 is_stmt 1
 3733 0038 FB79     		ldrb	r3, [r7, #7]	@ zero_extendqisi2
 3734 003a 042B     		cmp	r3, #4
 3735 003c 02D1     		bne	.L167
 3736              		.loc 1 1403 0 is_stmt 0 discriminator 1
 3737 003e BB68     		ldr	r3, [r7, #8]
 3738 0040 002B     		cmp	r3, #0
 3739 0042 01D0     		beq	.L166
 3740              	.L167:
1404:.\Generated_Source\PSoC5/ETH.c **** 				/* store this socket number for allocation */
1405:.\Generated_Source\PSoC5/ETH.c **** 				socket = index;
 3741              		.loc 1 1405 0 is_stmt 1
 3742 0044 BB68     		ldr	r3, [r7, #8]
 3743 0046 FB73     		strb	r3, [r7, #15]
 3744              	.L166:
1396:.\Generated_Source\PSoC5/ETH.c **** 	for( index = 0;index<ETH_MAX_SOCKET;++index) {
 3745              		.loc 1 1396 0
 3746 0048 BB68     		ldr	r3, [r7, #8]
 3747 004a 03F10103 		add	r3, r3, #1
ARM GAS  C:\Users\CHUCK~1.ERH\AppData\Local\Temp\cclfQUCJ.s 			page 92


 3748 004e BB60     		str	r3, [r7, #8]
 3749              	.L165:
1396:.\Generated_Source\PSoC5/ETH.c **** 	for( index = 0;index<ETH_MAX_SOCKET;++index) {
 3750              		.loc 1 1396 0 is_stmt 0 discriminator 1
 3751 0050 BB68     		ldr	r3, [r7, #8]
 3752 0052 072B     		cmp	r3, #7
 3753 0054 E4DD     		ble	.L168
1406:.\Generated_Source\PSoC5/ETH.c **** 			}
1407:.\Generated_Source\PSoC5/ETH.c **** 		}
1408:.\Generated_Source\PSoC5/ETH.c **** 	}
1409:.\Generated_Source\PSoC5/ETH.c **** 	if (socket != 0xFF ) {
 3754              		.loc 1 1409 0 is_stmt 1
 3755 0056 FB7B     		ldrb	r3, [r7, #15]	@ zero_extendqisi2
 3756 0058 FF2B     		cmp	r3, #255
 3757 005a 7BD0     		beq	.L169
1410:.\Generated_Source\PSoC5/ETH.c **** 		/* Store the socket information in the allocation table */
1411:.\Generated_Source\PSoC5/ETH.c **** 		ETH_SocketConfig[socket].Protocol = Protocol;
 3758              		.loc 1 1411 0
 3759 005c FA7B     		ldrb	r2, [r7, #15]	@ zero_extendqisi2
 3760 005e 40F20003 		movw	r3, #:lower16:ETH_SocketConfig
 3761 0062 C0F20003 		movt	r3, #:upper16:ETH_SocketConfig
 3762 0066 F979     		ldrb	r1, [r7, #7]
 3763 0068 03F83210 		strb	r1, [r3, r2, lsl #3]
1412:.\Generated_Source\PSoC5/ETH.c **** 		ETH_SocketConfig[socket].SocketFlags = flags;
 3764              		.loc 1 1412 0
 3765 006c FB7B     		ldrb	r3, [r7, #15]	@ zero_extendqisi2
 3766 006e 40F20002 		movw	r2, #:lower16:ETH_SocketConfig
 3767 0072 C0F20002 		movt	r2, #:upper16:ETH_SocketConfig
 3768 0076 4FEAC303 		lsl	r3, r3, #3
 3769 007a D318     		adds	r3, r2, r3
 3770 007c BA79     		ldrb	r2, [r7, #6]
 3771 007e 5A70     		strb	r2, [r3, #1]
1413:.\Generated_Source\PSoC5/ETH.c **** 		ETH_SocketConfig[socket].SourcePort = port;
 3772              		.loc 1 1413 0
 3773 0080 FB7B     		ldrb	r3, [r7, #15]	@ zero_extendqisi2
 3774 0082 40F20002 		movw	r2, #:lower16:ETH_SocketConfig
 3775 0086 C0F20002 		movt	r2, #:upper16:ETH_SocketConfig
 3776 008a 4FEAC303 		lsl	r3, r3, #3
 3777 008e D318     		adds	r3, r2, r3
 3778 0090 BA88     		ldrh	r2, [r7, #4]	@ movhi
 3779 0092 5A80     		strh	r2, [r3, #2]	@ movhi
1414:.\Generated_Source\PSoC5/ETH.c **** 		ETH_SocketConfig[socket].ServerFlag = 0;
 3780              		.loc 1 1414 0
 3781 0094 FB7B     		ldrb	r3, [r7, #15]	@ zero_extendqisi2
 3782 0096 40F20002 		movw	r2, #:lower16:ETH_SocketConfig
 3783 009a C0F20002 		movt	r2, #:upper16:ETH_SocketConfig
 3784 009e 4FEAC303 		lsl	r3, r3, #3
 3785 00a2 D318     		adds	r3, r2, r3
 3786 00a4 4FF00002 		mov	r2, #0
 3787 00a8 1A71     		strb	r2, [r3, #4]
1415:.\Generated_Source\PSoC5/ETH.c **** 
1416:.\Generated_Source\PSoC5/ETH.c **** 		/* Set the socket memory size */
1417:.\Generated_Source\PSoC5/ETH.c **** 		ETH_SetSocketTxMemSize(socket, ETH_MEM_2K); /* 2K each */
 3788              		.loc 1 1417 0
 3789 00aa FB7B     		ldrb	r3, [r7, #15]	@ zero_extendqisi2
 3790 00ac 1846     		mov	r0, r3
 3791 00ae 4FF00201 		mov	r1, #2
ARM GAS  C:\Users\CHUCK~1.ERH\AppData\Local\Temp\cclfQUCJ.s 			page 93


 3792 00b2 FFF7FEFF 		bl	ETH_SetSocketTxMemSize
1418:.\Generated_Source\PSoC5/ETH.c **** 		ETH_SetSocketRxMemSize(socket, ETH_MEM_2K); /* 2K Each */
 3793              		.loc 1 1418 0
 3794 00b6 FB7B     		ldrb	r3, [r7, #15]	@ zero_extendqisi2
 3795 00b8 1846     		mov	r0, r3
 3796 00ba 4FF00201 		mov	r1, #2
 3797 00be FFF7FEFF 		bl	ETH_SetSocketRxMemSize
1419:.\Generated_Source\PSoC5/ETH.c **** 		/* Initialize the socket memeory pointers */
1420:.\Generated_Source\PSoC5/ETH.c **** 		ETH_SetSocketRxReadPtr( socket, ETH_SOCKET_RX_BASE[index] );
 3798              		.loc 1 1420 0
 3799 00c2 40F20003 		movw	r3, #:lower16:ETH_SOCKET_RX_BASE
 3800 00c6 C0F20003 		movt	r3, #:upper16:ETH_SOCKET_RX_BASE
 3801 00ca BA68     		ldr	r2, [r7, #8]
 3802 00cc 53F82230 		ldr	r3, [r3, r2, lsl #2]
 3803 00d0 9BB2     		uxth	r3, r3
 3804 00d2 FA7B     		ldrb	r2, [r7, #15]	@ zero_extendqisi2
 3805 00d4 1046     		mov	r0, r2
 3806 00d6 1946     		mov	r1, r3
 3807 00d8 FFF7FEFF 		bl	ETH_SetSocketRxReadPtr
1421:.\Generated_Source\PSoC5/ETH.c **** 		ETH_SetSocketRxWritePtr( socket, ETH_SOCKET_RX_BASE[index] );
 3808              		.loc 1 1421 0
 3809 00dc 40F20003 		movw	r3, #:lower16:ETH_SOCKET_RX_BASE
 3810 00e0 C0F20003 		movt	r3, #:upper16:ETH_SOCKET_RX_BASE
 3811 00e4 BA68     		ldr	r2, [r7, #8]
 3812 00e6 53F82230 		ldr	r3, [r3, r2, lsl #2]
 3813 00ea 9BB2     		uxth	r3, r3
 3814 00ec FA7B     		ldrb	r2, [r7, #15]	@ zero_extendqisi2
 3815 00ee 1046     		mov	r0, r2
 3816 00f0 1946     		mov	r1, r3
 3817 00f2 FFF7FEFF 		bl	ETH_SetSocketRxWritePtr
1422:.\Generated_Source\PSoC5/ETH.c **** 		ETH_SetSocketTxReadPtr( socket, ETH_SOCKET_TX_BASE[index] );
 3818              		.loc 1 1422 0
 3819 00f6 40F20003 		movw	r3, #:lower16:ETH_SOCKET_TX_BASE
 3820 00fa C0F20003 		movt	r3, #:upper16:ETH_SOCKET_TX_BASE
 3821 00fe BA68     		ldr	r2, [r7, #8]
 3822 0100 53F82230 		ldr	r3, [r3, r2, lsl #2]
 3823 0104 9BB2     		uxth	r3, r3
 3824 0106 FA7B     		ldrb	r2, [r7, #15]	@ zero_extendqisi2
 3825 0108 1046     		mov	r0, r2
 3826 010a 1946     		mov	r1, r3
 3827 010c FFF7FEFF 		bl	ETH_SetSocketTxReadPtr
1423:.\Generated_Source\PSoC5/ETH.c **** 		ETH_SetSocketTxWritePtr( socket, ETH_SOCKET_TX_BASE[index] );
 3828              		.loc 1 1423 0
 3829 0110 40F20003 		movw	r3, #:lower16:ETH_SOCKET_TX_BASE
 3830 0114 C0F20003 		movt	r3, #:upper16:ETH_SOCKET_TX_BASE
 3831 0118 BA68     		ldr	r2, [r7, #8]
 3832 011a 53F82230 		ldr	r3, [r3, r2, lsl #2]
 3833 011e 9BB2     		uxth	r3, r3
 3834 0120 FA7B     		ldrb	r2, [r7, #15]	@ zero_extendqisi2
 3835 0122 1046     		mov	r0, r2
 3836 0124 1946     		mov	r1, r3
 3837 0126 FFF7FEFF 		bl	ETH_SetSocketTxWritePtr
1424:.\Generated_Source\PSoC5/ETH.c **** 
1425:.\Generated_Source\PSoC5/ETH.c **** 		/* Send the socket open with the correct protocol information */
1426:.\Generated_Source\PSoC5/ETH.c **** 		ETH_SetSocketSourcePort( socket, port );
 3838              		.loc 1 1426 0
 3839 012a FA7B     		ldrb	r2, [r7, #15]	@ zero_extendqisi2
ARM GAS  C:\Users\CHUCK~1.ERH\AppData\Local\Temp\cclfQUCJ.s 			page 94


 3840 012c BB88     		ldrh	r3, [r7, #4]
 3841 012e 1046     		mov	r0, r2
 3842 0130 1946     		mov	r1, r3
 3843 0132 FFF7FEFF 		bl	ETH_SetSocketSourcePort
1427:.\Generated_Source\PSoC5/ETH.c **** 		ETH_SetSocketMode( socket, Protocol | flags );
 3844              		.loc 1 1427 0
 3845 0136 FA79     		ldrb	r2, [r7, #7]
 3846 0138 BB79     		ldrb	r3, [r7, #6]
 3847 013a 1343     		orrs	r3, r3, r2
 3848 013c DBB2     		uxtb	r3, r3
 3849 013e FA7B     		ldrb	r2, [r7, #15]	@ zero_extendqisi2
 3850 0140 1046     		mov	r0, r2
 3851 0142 1946     		mov	r1, r3
 3852 0144 FFF7FEFF 		bl	ETH_SetSocketMode
1428:.\Generated_Source\PSoC5/ETH.c **** 		ETH_ExecuteSocketCommand( socket, 1 );
 3853              		.loc 1 1428 0
 3854 0148 FB7B     		ldrb	r3, [r7, #15]	@ zero_extendqisi2
 3855 014a 1846     		mov	r0, r3
 3856 014c 4FF00101 		mov	r1, #1
 3857 0150 FFF7FEFF 		bl	ETH_ExecuteSocketCommand
 3858              	.L169:
1429:.\Generated_Source\PSoC5/ETH.c **** 		
1430:.\Generated_Source\PSoC5/ETH.c **** 	}
1431:.\Generated_Source\PSoC5/ETH.c **** 	return socket;
 3859              		.loc 1 1431 0
 3860 0154 FB7B     		ldrb	r3, [r7, #15]	@ zero_extendqisi2
1432:.\Generated_Source\PSoC5/ETH.c **** }
 3861              		.loc 1 1432 0
 3862 0156 1846     		mov	r0, r3
 3863 0158 07F11007 		add	r7, r7, #16
 3864 015c BD46     		mov	sp, r7
 3865 015e 80BD     		pop	{r7, pc}
 3866              		.cfi_endproc
 3867              	.LFE110:
 3868              		.size	ETH_SocketOpen, .-ETH_SocketOpen
 3869              		.section	.text.ETH_SocketClose,"ax",%progbits
 3870              		.align	2
 3871              		.global	ETH_SocketClose
 3872              		.thumb
 3873              		.thumb_func
 3874              		.type	ETH_SocketClose, %function
 3875              	ETH_SocketClose:
 3876              	.LFB111:
1433:.\Generated_Source\PSoC5/ETH.c **** /* ------------------------------------------------------------------------ */
1434:.\Generated_Source\PSoC5/ETH.c **** void
1435:.\Generated_Source\PSoC5/ETH.c **** ETH_SocketClose( uint8 socket )
1436:.\Generated_Source\PSoC5/ETH.c **** {
 3877              		.loc 1 1436 0
 3878              		.cfi_startproc
 3879              		@ args = 0, pretend = 0, frame = 8
 3880              		@ frame_needed = 1, uses_anonymous_args = 0
 3881 0000 80B5     		push	{r7, lr}
 3882              	.LCFI162:
 3883              		.cfi_def_cfa_offset 8
 3884              		.cfi_offset 7, -8
 3885              		.cfi_offset 14, -4
 3886 0002 82B0     		sub	sp, sp, #8
ARM GAS  C:\Users\CHUCK~1.ERH\AppData\Local\Temp\cclfQUCJ.s 			page 95


 3887              	.LCFI163:
 3888              		.cfi_def_cfa_offset 16
 3889 0004 00AF     		add	r7, sp, #0
 3890              	.LCFI164:
 3891              		.cfi_def_cfa_register 7
 3892 0006 0346     		mov	r3, r0
 3893 0008 FB71     		strb	r3, [r7, #7]
1437:.\Generated_Source\PSoC5/ETH.c **** 	/*
1438:.\Generated_Source\PSoC5/ETH.c **** 	 * Set the socket allocation to empty, and issue the close command
1439:.\Generated_Source\PSoC5/ETH.c **** 	 * to the socket
1440:.\Generated_Source\PSoC5/ETH.c **** 	 */
1441:.\Generated_Source\PSoC5/ETH.c **** 	if (socket < ETH_MAX_SOCKET) {
 3894              		.loc 1 1441 0
 3895 000a FB79     		ldrb	r3, [r7, #7]	@ zero_extendqisi2
 3896 000c 072B     		cmp	r3, #7
 3897 000e 1FD8     		bhi	.L171
1442:.\Generated_Source\PSoC5/ETH.c **** 		/* clear the socket memory allocations */
1443:.\Generated_Source\PSoC5/ETH.c **** 		ETH_SocketConfig[socket].Protocol = 0;
 3898              		.loc 1 1443 0
 3899 0010 FA79     		ldrb	r2, [r7, #7]	@ zero_extendqisi2
 3900 0012 40F20003 		movw	r3, #:lower16:ETH_SocketConfig
 3901 0016 C0F20003 		movt	r3, #:upper16:ETH_SocketConfig
 3902 001a 4FF00001 		mov	r1, #0
 3903 001e 03F83210 		strb	r1, [r3, r2, lsl #3]
1444:.\Generated_Source\PSoC5/ETH.c **** 		ETH_SocketConfig[socket].SocketFlags = 0;
 3904              		.loc 1 1444 0
 3905 0022 FB79     		ldrb	r3, [r7, #7]	@ zero_extendqisi2
 3906 0024 40F20002 		movw	r2, #:lower16:ETH_SocketConfig
 3907 0028 C0F20002 		movt	r2, #:upper16:ETH_SocketConfig
 3908 002c 4FEAC303 		lsl	r3, r3, #3
 3909 0030 D318     		adds	r3, r2, r3
 3910 0032 4FF00002 		mov	r2, #0
 3911 0036 5A70     		strb	r2, [r3, #1]
1445:.\Generated_Source\PSoC5/ETH.c **** 		/* close the socket */
1446:.\Generated_Source\PSoC5/ETH.c **** 		ETH_ExecuteSocketCommand( socket, 0x10 );
 3912              		.loc 1 1446 0
 3913 0038 FB79     		ldrb	r3, [r7, #7]	@ zero_extendqisi2
 3914 003a 1846     		mov	r0, r3
 3915 003c 4FF01001 		mov	r1, #16
 3916 0040 FFF7FEFF 		bl	ETH_ExecuteSocketCommand
1447:.\Generated_Source\PSoC5/ETH.c **** 		/* Clear pending Interrupts */
1448:.\Generated_Source\PSoC5/ETH.c **** 		ETH_SetSocketIR( socket, 0xFF);
 3917              		.loc 1 1448 0
 3918 0044 FB79     		ldrb	r3, [r7, #7]	@ zero_extendqisi2
 3919 0046 1846     		mov	r0, r3
 3920 0048 4FF0FF01 		mov	r1, #255
 3921 004c FFF7FEFF 		bl	ETH_SetSocketIR
 3922              	.L171:
1449:.\Generated_Source\PSoC5/ETH.c **** 	}
1450:.\Generated_Source\PSoC5/ETH.c **** }
 3923              		.loc 1 1450 0
 3924 0050 07F10807 		add	r7, r7, #8
 3925 0054 BD46     		mov	sp, r7
 3926 0056 80BD     		pop	{r7, pc}
 3927              		.cfi_endproc
 3928              	.LFE111:
 3929              		.size	ETH_SocketClose, .-ETH_SocketClose
ARM GAS  C:\Users\CHUCK~1.ERH\AppData\Local\Temp\cclfQUCJ.s 			page 96


 3930              		.section	.text.ETH_SocketProcessConnections,"ax",%progbits
 3931              		.align	2
 3932              		.global	ETH_SocketProcessConnections
 3933              		.thumb
 3934              		.thumb_func
 3935              		.type	ETH_SocketProcessConnections, %function
 3936              	ETH_SocketProcessConnections:
 3937              	.LFB112:
1451:.\Generated_Source\PSoC5/ETH.c **** /* ------------------------------------------------------------------------ */
1452:.\Generated_Source\PSoC5/ETH.c **** uint8
1453:.\Generated_Source\PSoC5/ETH.c **** ETH_SocketProcessConnections( uint8 socket )
1454:.\Generated_Source\PSoC5/ETH.c **** {
 3938              		.loc 1 1454 0
 3939              		.cfi_startproc
 3940              		@ args = 0, pretend = 0, frame = 16
 3941              		@ frame_needed = 1, uses_anonymous_args = 0
 3942 0000 80B5     		push	{r7, lr}
 3943              	.LCFI165:
 3944              		.cfi_def_cfa_offset 8
 3945              		.cfi_offset 7, -8
 3946              		.cfi_offset 14, -4
 3947 0002 84B0     		sub	sp, sp, #16
 3948              	.LCFI166:
 3949              		.cfi_def_cfa_offset 24
 3950 0004 00AF     		add	r7, sp, #0
 3951              	.LCFI167:
 3952              		.cfi_def_cfa_register 7
 3953 0006 0346     		mov	r3, r0
 3954 0008 FB71     		strb	r3, [r7, #7]
1455:.\Generated_Source\PSoC5/ETH.c **** 	uint8 status;
1456:.\Generated_Source\PSoC5/ETH.c **** 	
1457:.\Generated_Source\PSoC5/ETH.c **** 	status = ETH_GetSocketStatus(socket);
 3955              		.loc 1 1457 0
 3956 000a FB79     		ldrb	r3, [r7, #7]	@ zero_extendqisi2
 3957 000c 1846     		mov	r0, r3
 3958 000e FFF7FEFF 		bl	ETH_GetSocketStatus
 3959 0012 0346     		mov	r3, r0
 3960 0014 FB73     		strb	r3, [r7, #15]
1458:.\Generated_Source\PSoC5/ETH.c **** 	/* has a connection termination been requested by remote system */
1459:.\Generated_Source\PSoC5/ETH.c **** 	if (status == 0x1C) {
 3961              		.loc 1 1459 0
 3962 0016 FB7B     		ldrb	r3, [r7, #15]	@ zero_extendqisi2
 3963 0018 1C2B     		cmp	r3, #28
 3964 001a 03D1     		bne	.L174
1460:.\Generated_Source\PSoC5/ETH.c **** 		/* Close the socket on this end */
1461:.\Generated_Source\PSoC5/ETH.c **** 		ETH_SocketClose(socket);
 3965              		.loc 1 1461 0
 3966 001c FB79     		ldrb	r3, [r7, #7]	@ zero_extendqisi2
 3967 001e 1846     		mov	r0, r3
 3968 0020 FFF7FEFF 		bl	ETH_SocketClose
 3969              	.L174:
1462:.\Generated_Source\PSoC5/ETH.c **** 	}
1463:.\Generated_Source\PSoC5/ETH.c **** 	return (ETH_GetSocketStatus(socket) == 0x00);
 3970              		.loc 1 1463 0
 3971 0024 FB79     		ldrb	r3, [r7, #7]	@ zero_extendqisi2
 3972 0026 1846     		mov	r0, r3
 3973 0028 FFF7FEFF 		bl	ETH_GetSocketStatus
ARM GAS  C:\Users\CHUCK~1.ERH\AppData\Local\Temp\cclfQUCJ.s 			page 97


 3974 002c 0346     		mov	r3, r0
 3975 002e 002B     		cmp	r3, #0
 3976 0030 14BF     		ite	ne
 3977 0032 0023     		movne	r3, #0
 3978 0034 0123     		moveq	r3, #1
 3979 0036 DBB2     		uxtb	r3, r3
1464:.\Generated_Source\PSoC5/ETH.c **** }
 3980              		.loc 1 1464 0
 3981 0038 1846     		mov	r0, r3
 3982 003a 07F11007 		add	r7, r7, #16
 3983 003e BD46     		mov	sp, r7
 3984 0040 80BD     		pop	{r7, pc}
 3985              		.cfi_endproc
 3986              	.LFE112:
 3987              		.size	ETH_SocketProcessConnections, .-ETH_SocketProcessConnections
 3988 0042 00BF     		.section	.text.ETH_SocketEstablished,"ax",%progbits
 3989              		.align	2
 3990              		.global	ETH_SocketEstablished
 3991              		.thumb
 3992              		.thumb_func
 3993              		.type	ETH_SocketEstablished, %function
 3994              	ETH_SocketEstablished:
 3995              	.LFB113:
1465:.\Generated_Source\PSoC5/ETH.c **** /* ------------------------------------------------------------------------ */
1466:.\Generated_Source\PSoC5/ETH.c **** uint8
1467:.\Generated_Source\PSoC5/ETH.c **** ETH_SocketEstablished( uint8 socket )
1468:.\Generated_Source\PSoC5/ETH.c **** {
 3996              		.loc 1 1468 0
 3997              		.cfi_startproc
 3998              		@ args = 0, pretend = 0, frame = 16
 3999              		@ frame_needed = 1, uses_anonymous_args = 0
 4000 0000 80B5     		push	{r7, lr}
 4001              	.LCFI168:
 4002              		.cfi_def_cfa_offset 8
 4003              		.cfi_offset 7, -8
 4004              		.cfi_offset 14, -4
 4005 0002 84B0     		sub	sp, sp, #16
 4006              	.LCFI169:
 4007              		.cfi_def_cfa_offset 24
 4008 0004 00AF     		add	r7, sp, #0
 4009              	.LCFI170:
 4010              		.cfi_def_cfa_register 7
 4011 0006 0346     		mov	r3, r0
 4012 0008 FB71     		strb	r3, [r7, #7]
1469:.\Generated_Source\PSoC5/ETH.c **** 	uint8 result;
1470:.\Generated_Source\PSoC5/ETH.c **** 	
1471:.\Generated_Source\PSoC5/ETH.c **** 	result = 0;
 4013              		.loc 1 1471 0
 4014 000a 4FF00003 		mov	r3, #0
 4015 000e FB73     		strb	r3, [r7, #15]
1472:.\Generated_Source\PSoC5/ETH.c **** 	if (socket < ETH_MAX_SOCKET) {
 4016              		.loc 1 1472 0
 4017 0010 FB79     		ldrb	r3, [r7, #7]	@ zero_extendqisi2
 4018 0012 072B     		cmp	r3, #7
 4019 0014 05D8     		bhi	.L177
1473:.\Generated_Source\PSoC5/ETH.c **** 		result = ETH_GetSocketStatus( socket );
 4020              		.loc 1 1473 0
ARM GAS  C:\Users\CHUCK~1.ERH\AppData\Local\Temp\cclfQUCJ.s 			page 98


 4021 0016 FB79     		ldrb	r3, [r7, #7]	@ zero_extendqisi2
 4022 0018 1846     		mov	r0, r3
 4023 001a FFF7FEFF 		bl	ETH_GetSocketStatus
 4024 001e 0346     		mov	r3, r0
 4025 0020 FB73     		strb	r3, [r7, #15]
 4026              	.L177:
1474:.\Generated_Source\PSoC5/ETH.c **** 	}
1475:.\Generated_Source\PSoC5/ETH.c **** 	return( result == 0x17);
 4027              		.loc 1 1475 0
 4028 0022 FB7B     		ldrb	r3, [r7, #15]	@ zero_extendqisi2
 4029 0024 172B     		cmp	r3, #23
 4030 0026 14BF     		ite	ne
 4031 0028 0023     		movne	r3, #0
 4032 002a 0123     		moveq	r3, #1
 4033 002c DBB2     		uxtb	r3, r3
1476:.\Generated_Source\PSoC5/ETH.c **** }
 4034              		.loc 1 1476 0
 4035 002e 1846     		mov	r0, r3
 4036 0030 07F11007 		add	r7, r7, #16
 4037 0034 BD46     		mov	sp, r7
 4038 0036 80BD     		pop	{r7, pc}
 4039              		.cfi_endproc
 4040              	.LFE113:
 4041              		.size	ETH_SocketEstablished, .-ETH_SocketEstablished
 4042              		.section	.text.ETH_SocketSend,"ax",%progbits
 4043              		.align	2
 4044              		.global	ETH_SocketSend
 4045              		.thumb
 4046              		.thumb_func
 4047              		.type	ETH_SocketSend, %function
 4048              	ETH_SocketSend:
 4049              	.LFB114:
1477:.\Generated_Source\PSoC5/ETH.c **** /* ------------------------------------------------------------------------ */
1478:.\Generated_Source\PSoC5/ETH.c **** /**
1479:.\Generated_Source\PSoC5/ETH.c ****  * \brief Transmit a SEND operation over a socket
1480:.\Generated_Source\PSoC5/ETH.c ****  * \param socket the socket to which the send command will be sent
1481:.\Generated_Source\PSoC5/ETH.c ****  */
1482:.\Generated_Source\PSoC5/ETH.c **** void
1483:.\Generated_Source\PSoC5/ETH.c **** ETH_SocketSend(uint8 socket )
1484:.\Generated_Source\PSoC5/ETH.c **** {
 4050              		.loc 1 1484 0
 4051              		.cfi_startproc
 4052              		@ args = 0, pretend = 0, frame = 16
 4053              		@ frame_needed = 1, uses_anonymous_args = 0
 4054 0000 80B5     		push	{r7, lr}
 4055              	.LCFI171:
 4056              		.cfi_def_cfa_offset 8
 4057              		.cfi_offset 7, -8
 4058              		.cfi_offset 14, -4
 4059 0002 84B0     		sub	sp, sp, #16
 4060              	.LCFI172:
 4061              		.cfi_def_cfa_offset 24
 4062 0004 00AF     		add	r7, sp, #0
 4063              	.LCFI173:
 4064              		.cfi_def_cfa_register 7
 4065 0006 0346     		mov	r3, r0
 4066 0008 FB71     		strb	r3, [r7, #7]
ARM GAS  C:\Users\CHUCK~1.ERH\AppData\Local\Temp\cclfQUCJ.s 			page 99


1485:.\Generated_Source\PSoC5/ETH.c **** 	uint8 ir;
1486:.\Generated_Source\PSoC5/ETH.c **** 	
1487:.\Generated_Source\PSoC5/ETH.c **** 	if (socket < ETH_MAX_SOCKET) {
 4067              		.loc 1 1487 0
 4068 000a FB79     		ldrb	r3, [r7, #7]	@ zero_extendqisi2
 4069 000c 072B     		cmp	r3, #7
 4070 000e 32D8     		bhi	.L179
1488:.\Generated_Source\PSoC5/ETH.c **** 		/* initialize the subnet mask register : ERRATA FIX */
1489:.\Generated_Source\PSoC5/ETH.c **** 		ETH_SetSubnetMask( ETH_SubnetMask );
 4071              		.loc 1 1489 0
 4072 0010 40F20003 		movw	r3, #:lower16:ETH_SubnetMask
 4073 0014 C0F20003 		movt	r3, #:upper16:ETH_SubnetMask
 4074 0018 1B68     		ldr	r3, [r3, #0]
 4075 001a 1846     		mov	r0, r3
 4076 001c FFF7FEFF 		bl	ETH_SetSubnetMask
1490:.\Generated_Source\PSoC5/ETH.c **** 		/* Issue the SEND command */
1491:.\Generated_Source\PSoC5/ETH.c **** 		ETH_ExecuteSocketCommand( socket, 0x20 );
 4077              		.loc 1 1491 0
 4078 0020 FB79     		ldrb	r3, [r7, #7]	@ zero_extendqisi2
 4079 0022 1846     		mov	r0, r3
 4080 0024 4FF02001 		mov	r1, #32
 4081 0028 FFF7FEFF 		bl	ETH_ExecuteSocketCommand
1492:.\Generated_Source\PSoC5/ETH.c **** 		/* wait for the SEND to complete, or for a timeout */
1493:.\Generated_Source\PSoC5/ETH.c **** 		ir = ETH_GetSocketIR( socket );
 4082              		.loc 1 1493 0
 4083 002c FB79     		ldrb	r3, [r7, #7]	@ zero_extendqisi2
 4084 002e 1846     		mov	r0, r3
 4085 0030 FFF7FEFF 		bl	ETH_GetSocketIR
 4086 0034 0346     		mov	r3, r0
 4087 0036 FB73     		strb	r3, [r7, #15]
1494:.\Generated_Source\PSoC5/ETH.c **** 		/* while SEND is not done, and the socket hasnot timed out or been dsconnected */
1495:.\Generated_Source\PSoC5/ETH.c **** 		while ( ((ir & 0x10) == 0) && (!(ir&0x0A)) ) {
 4088              		.loc 1 1495 0
 4089 0038 09E0     		b	.L181
 4090              	.L183:
1496:.\Generated_Source\PSoC5/ETH.c **** 			CyDelay(1);
 4091              		.loc 1 1496 0
 4092 003a 4FF00100 		mov	r0, #1
 4093 003e FFF7FEFF 		bl	CyDelay
1497:.\Generated_Source\PSoC5/ETH.c **** 			ir = ETH_GetSocketIR( socket );
 4094              		.loc 1 1497 0
 4095 0042 FB79     		ldrb	r3, [r7, #7]	@ zero_extendqisi2
 4096 0044 1846     		mov	r0, r3
 4097 0046 FFF7FEFF 		bl	ETH_GetSocketIR
 4098 004a 0346     		mov	r3, r0
 4099 004c FB73     		strb	r3, [r7, #15]
 4100              	.L181:
1495:.\Generated_Source\PSoC5/ETH.c **** 		while ( ((ir & 0x10) == 0) && (!(ir&0x0A)) ) {
 4101              		.loc 1 1495 0 discriminator 1
 4102 004e FB7B     		ldrb	r3, [r7, #15]	@ zero_extendqisi2
 4103 0050 03F01003 		and	r3, r3, #16
 4104 0054 002B     		cmp	r3, #0
 4105 0056 04D1     		bne	.L182
1495:.\Generated_Source\PSoC5/ETH.c **** 		while ( ((ir & 0x10) == 0) && (!(ir&0x0A)) ) {
 4106              		.loc 1 1495 0 is_stmt 0 discriminator 2
 4107 0058 FB7B     		ldrb	r3, [r7, #15]	@ zero_extendqisi2
 4108 005a 03F00A03 		and	r3, r3, #10
ARM GAS  C:\Users\CHUCK~1.ERH\AppData\Local\Temp\cclfQUCJ.s 			page 100


 4109 005e 002B     		cmp	r3, #0
 4110 0060 EBD0     		beq	.L183
 4111              	.L182:
1498:.\Generated_Source\PSoC5/ETH.c **** 			
1499:.\Generated_Source\PSoC5/ETH.c **** 		}
1500:.\Generated_Source\PSoC5/ETH.c **** 		/* clear the SEND_OK flag from the register */
1501:.\Generated_Source\PSoC5/ETH.c **** 		ETH_SetSocketIR( socket, 0x10 );
 4112              		.loc 1 1501 0 is_stmt 1
 4113 0062 FB79     		ldrb	r3, [r7, #7]	@ zero_extendqisi2
 4114 0064 1846     		mov	r0, r3
 4115 0066 4FF01001 		mov	r1, #16
 4116 006a FFF7FEFF 		bl	ETH_SetSocketIR
1502:.\Generated_Source\PSoC5/ETH.c **** 		/* reset the subnet mask : ERRATA FIX */
1503:.\Generated_Source\PSoC5/ETH.c **** 		ETH_SetSubnetMask( 0 );
 4117              		.loc 1 1503 0
 4118 006e 4FF00000 		mov	r0, #0
 4119 0072 FFF7FEFF 		bl	ETH_SetSubnetMask
 4120              	.L179:
1504:.\Generated_Source\PSoC5/ETH.c **** 	}
1505:.\Generated_Source\PSoC5/ETH.c **** }
 4121              		.loc 1 1505 0
 4122 0076 07F11007 		add	r7, r7, #16
 4123 007a BD46     		mov	sp, r7
 4124 007c 80BD     		pop	{r7, pc}
 4125              		.cfi_endproc
 4126              	.LFE114:
 4127              		.size	ETH_SocketSend, .-ETH_SocketSend
 4128 007e 00BF     		.section	.text.ETH_SocketSendMac,"ax",%progbits
 4129              		.align	2
 4130              		.global	ETH_SocketSendMac
 4131              		.thumb
 4132              		.thumb_func
 4133              		.type	ETH_SocketSendMac, %function
 4134              	ETH_SocketSendMac:
 4135              	.LFB115:
1506:.\Generated_Source\PSoC5/ETH.c **** /* ------------------------------------------------------------------------ */
1507:.\Generated_Source\PSoC5/ETH.c **** /**
1508:.\Generated_Source\PSoC5/ETH.c ****  * \brief Execute a SEND without an ARP.
1509:.\Generated_Source\PSoC5/ETH.c ****  * \param socket the socket to which the SEND will be executed.
1510:.\Generated_Source\PSoC5/ETH.c ****  */
1511:.\Generated_Source\PSoC5/ETH.c **** void
1512:.\Generated_Source\PSoC5/ETH.c **** ETH_SocketSendMac(uint8 socket )
1513:.\Generated_Source\PSoC5/ETH.c **** {
 4136              		.loc 1 1513 0
 4137              		.cfi_startproc
 4138              		@ args = 0, pretend = 0, frame = 16
 4139              		@ frame_needed = 1, uses_anonymous_args = 0
 4140 0000 80B5     		push	{r7, lr}
 4141              	.LCFI174:
 4142              		.cfi_def_cfa_offset 8
 4143              		.cfi_offset 7, -8
 4144              		.cfi_offset 14, -4
 4145 0002 84B0     		sub	sp, sp, #16
 4146              	.LCFI175:
 4147              		.cfi_def_cfa_offset 24
 4148 0004 00AF     		add	r7, sp, #0
 4149              	.LCFI176:
ARM GAS  C:\Users\CHUCK~1.ERH\AppData\Local\Temp\cclfQUCJ.s 			page 101


 4150              		.cfi_def_cfa_register 7
 4151 0006 0346     		mov	r3, r0
 4152 0008 FB71     		strb	r3, [r7, #7]
1514:.\Generated_Source\PSoC5/ETH.c **** 	uint8 ir;
1515:.\Generated_Source\PSoC5/ETH.c **** 	
1516:.\Generated_Source\PSoC5/ETH.c **** 	/* initialize the subnet mask register : ERRATA FIX */
1517:.\Generated_Source\PSoC5/ETH.c **** 	ETH_SetSubnetMask( ETH_SubnetMask );
 4153              		.loc 1 1517 0
 4154 000a 40F20003 		movw	r3, #:lower16:ETH_SubnetMask
 4155 000e C0F20003 		movt	r3, #:upper16:ETH_SubnetMask
 4156 0012 1B68     		ldr	r3, [r3, #0]
 4157 0014 1846     		mov	r0, r3
 4158 0016 FFF7FEFF 		bl	ETH_SetSubnetMask
1518:.\Generated_Source\PSoC5/ETH.c **** 	/* Issue the SEND command */
1519:.\Generated_Source\PSoC5/ETH.c **** 	ETH_ExecuteSocketCommand( socket, 0x21 );
 4159              		.loc 1 1519 0
 4160 001a FB79     		ldrb	r3, [r7, #7]	@ zero_extendqisi2
 4161 001c 1846     		mov	r0, r3
 4162 001e 4FF02101 		mov	r1, #33
 4163 0022 FFF7FEFF 		bl	ETH_ExecuteSocketCommand
1520:.\Generated_Source\PSoC5/ETH.c **** 	/* wait for the SEND to complete, or for a timeout */
1521:.\Generated_Source\PSoC5/ETH.c **** 	ir = ETH_GetSocketIR( socket );
 4164              		.loc 1 1521 0
 4165 0026 FB79     		ldrb	r3, [r7, #7]	@ zero_extendqisi2
 4166 0028 1846     		mov	r0, r3
 4167 002a FFF7FEFF 		bl	ETH_GetSocketIR
 4168 002e 0346     		mov	r3, r0
 4169 0030 FB73     		strb	r3, [r7, #15]
1522:.\Generated_Source\PSoC5/ETH.c **** 	/* while SEND is not done, and the socket hasnot timed out or been dsconnected */
1523:.\Generated_Source\PSoC5/ETH.c **** 	while ( ((ir & 0x10) == 0) && (!(ir&0x0A)) ) {
 4170              		.loc 1 1523 0
 4171 0032 09E0     		b	.L185
 4172              	.L187:
1524:.\Generated_Source\PSoC5/ETH.c **** 		CyDelay(1);
 4173              		.loc 1 1524 0
 4174 0034 4FF00100 		mov	r0, #1
 4175 0038 FFF7FEFF 		bl	CyDelay
1525:.\Generated_Source\PSoC5/ETH.c **** 		ir = ETH_GetSocketIR( socket );
 4176              		.loc 1 1525 0
 4177 003c FB79     		ldrb	r3, [r7, #7]	@ zero_extendqisi2
 4178 003e 1846     		mov	r0, r3
 4179 0040 FFF7FEFF 		bl	ETH_GetSocketIR
 4180 0044 0346     		mov	r3, r0
 4181 0046 FB73     		strb	r3, [r7, #15]
 4182              	.L185:
1523:.\Generated_Source\PSoC5/ETH.c **** 	while ( ((ir & 0x10) == 0) && (!(ir&0x0A)) ) {
 4183              		.loc 1 1523 0 discriminator 1
 4184 0048 FB7B     		ldrb	r3, [r7, #15]	@ zero_extendqisi2
 4185 004a 03F01003 		and	r3, r3, #16
 4186 004e 002B     		cmp	r3, #0
 4187 0050 04D1     		bne	.L186
1523:.\Generated_Source\PSoC5/ETH.c **** 	while ( ((ir & 0x10) == 0) && (!(ir&0x0A)) ) {
 4188              		.loc 1 1523 0 is_stmt 0 discriminator 2
 4189 0052 FB7B     		ldrb	r3, [r7, #15]	@ zero_extendqisi2
 4190 0054 03F00A03 		and	r3, r3, #10
 4191 0058 002B     		cmp	r3, #0
 4192 005a EBD0     		beq	.L187
ARM GAS  C:\Users\CHUCK~1.ERH\AppData\Local\Temp\cclfQUCJ.s 			page 102


 4193              	.L186:
1526:.\Generated_Source\PSoC5/ETH.c **** 		
1527:.\Generated_Source\PSoC5/ETH.c **** 	}
1528:.\Generated_Source\PSoC5/ETH.c **** 	/* clear the SEND_OK flag from the register */
1529:.\Generated_Source\PSoC5/ETH.c **** 	ETH_SetSocketIR( socket, 0x10 );
 4194              		.loc 1 1529 0 is_stmt 1
 4195 005c FB79     		ldrb	r3, [r7, #7]	@ zero_extendqisi2
 4196 005e 1846     		mov	r0, r3
 4197 0060 4FF01001 		mov	r1, #16
 4198 0064 FFF7FEFF 		bl	ETH_SetSocketIR
1530:.\Generated_Source\PSoC5/ETH.c **** 	/* reset the subnet mask : ERRATA FIX */
1531:.\Generated_Source\PSoC5/ETH.c **** 	ETH_SetSubnetMask( 0 );
 4199              		.loc 1 1531 0
 4200 0068 4FF00000 		mov	r0, #0
 4201 006c FFF7FEFF 		bl	ETH_SetSubnetMask
1532:.\Generated_Source\PSoC5/ETH.c **** }
 4202              		.loc 1 1532 0
 4203 0070 07F11007 		add	r7, r7, #16
 4204 0074 BD46     		mov	sp, r7
 4205 0076 80BD     		pop	{r7, pc}
 4206              		.cfi_endproc
 4207              	.LFE115:
 4208              		.size	ETH_SocketSendMac, .-ETH_SocketSendMac
 4209              		.section	.text.ETH_SocketRxDataWaiting,"ax",%progbits
 4210              		.align	2
 4211              		.global	ETH_SocketRxDataWaiting
 4212              		.thumb
 4213              		.thumb_func
 4214              		.type	ETH_SocketRxDataWaiting, %function
 4215              	ETH_SocketRxDataWaiting:
 4216              	.LFB116:
1533:.\Generated_Source\PSoC5/ETH.c **** /* ------------------------------------------------------------------------ */
1534:.\Generated_Source\PSoC5/ETH.c **** uint16
1535:.\Generated_Source\PSoC5/ETH.c **** ETH_SocketRxDataWaiting( uint8 socket )
1536:.\Generated_Source\PSoC5/ETH.c **** {
 4217              		.loc 1 1536 0
 4218              		.cfi_startproc
 4219              		@ args = 0, pretend = 0, frame = 8
 4220              		@ frame_needed = 1, uses_anonymous_args = 0
 4221 0000 80B5     		push	{r7, lr}
 4222              	.LCFI177:
 4223              		.cfi_def_cfa_offset 8
 4224              		.cfi_offset 7, -8
 4225              		.cfi_offset 14, -4
 4226 0002 82B0     		sub	sp, sp, #8
 4227              	.LCFI178:
 4228              		.cfi_def_cfa_offset 16
 4229 0004 00AF     		add	r7, sp, #0
 4230              	.LCFI179:
 4231              		.cfi_def_cfa_register 7
 4232 0006 0346     		mov	r3, r0
 4233 0008 FB71     		strb	r3, [r7, #7]
1537:.\Generated_Source\PSoC5/ETH.c **** 	return ETH_GetRxSize( socket );
 4234              		.loc 1 1537 0
 4235 000a FB79     		ldrb	r3, [r7, #7]	@ zero_extendqisi2
 4236 000c 1846     		mov	r0, r3
 4237 000e FFF7FEFF 		bl	ETH_GetRxSize
ARM GAS  C:\Users\CHUCK~1.ERH\AppData\Local\Temp\cclfQUCJ.s 			page 103


 4238 0012 0346     		mov	r3, r0
1538:.\Generated_Source\PSoC5/ETH.c **** }
 4239              		.loc 1 1538 0
 4240 0014 1846     		mov	r0, r3
 4241 0016 07F10807 		add	r7, r7, #8
 4242 001a BD46     		mov	sp, r7
 4243 001c 80BD     		pop	{r7, pc}
 4244              		.cfi_endproc
 4245              	.LFE116:
 4246              		.size	ETH_SocketRxDataWaiting, .-ETH_SocketRxDataWaiting
 4247 001e 00BF     		.section	.text.ETH_TcpOpen,"ax",%progbits
 4248              		.align	2
 4249              		.global	ETH_TcpOpen
 4250              		.thumb
 4251              		.thumb_func
 4252              		.type	ETH_TcpOpen, %function
 4253              	ETH_TcpOpen:
 4254              	.LFB117:
1539:.\Generated_Source\PSoC5/ETH.c **** #endif
1540:.\Generated_Source\PSoC5/ETH.c **** /* ======================================================================== */
1541:.\Generated_Source\PSoC5/ETH.c **** /* TCP/IP */
1542:.\Generated_Source\PSoC5/ETH.c **** #if (1)
1543:.\Generated_Source\PSoC5/ETH.c **** /* ------------------------------------------------------------------------ */
1544:.\Generated_Source\PSoC5/ETH.c **** uint8
1545:.\Generated_Source\PSoC5/ETH.c **** ETH_TcpOpen(uint16 port)
1546:.\Generated_Source\PSoC5/ETH.c **** {
 4255              		.loc 1 1546 0
 4256              		.cfi_startproc
 4257              		@ args = 0, pretend = 0, frame = 8
 4258              		@ frame_needed = 1, uses_anonymous_args = 0
 4259 0000 80B5     		push	{r7, lr}
 4260              	.LCFI180:
 4261              		.cfi_def_cfa_offset 8
 4262              		.cfi_offset 7, -8
 4263              		.cfi_offset 14, -4
 4264 0002 82B0     		sub	sp, sp, #8
 4265              	.LCFI181:
 4266              		.cfi_def_cfa_offset 16
 4267 0004 00AF     		add	r7, sp, #0
 4268              	.LCFI182:
 4269              		.cfi_def_cfa_register 7
 4270 0006 0346     		mov	r3, r0
 4271 0008 FB80     		strh	r3, [r7, #6]	@ movhi
1547:.\Generated_Source\PSoC5/ETH.c **** 	return ETH_SocketOpen(ETH_PROTO_TCP, port, 0);
 4272              		.loc 1 1547 0
 4273 000a FB88     		ldrh	r3, [r7, #6]
 4274 000c 4FF00100 		mov	r0, #1
 4275 0010 1946     		mov	r1, r3
 4276 0012 4FF00002 		mov	r2, #0
 4277 0016 FFF7FEFF 		bl	ETH_SocketOpen
 4278 001a 0346     		mov	r3, r0
1548:.\Generated_Source\PSoC5/ETH.c **** }
 4279              		.loc 1 1548 0
 4280 001c 1846     		mov	r0, r3
 4281 001e 07F10807 		add	r7, r7, #8
 4282 0022 BD46     		mov	sp, r7
 4283 0024 80BD     		pop	{r7, pc}
ARM GAS  C:\Users\CHUCK~1.ERH\AppData\Local\Temp\cclfQUCJ.s 			page 104


 4284              		.cfi_endproc
 4285              	.LFE117:
 4286              		.size	ETH_TcpOpen, .-ETH_TcpOpen
 4287 0026 00BF     		.section	.text.ETH_TcpStartServer,"ax",%progbits
 4288              		.align	2
 4289              		.global	ETH_TcpStartServer
 4290              		.thumb
 4291              		.thumb_func
 4292              		.type	ETH_TcpStartServer, %function
 4293              	ETH_TcpStartServer:
 4294              	.LFB118:
1549:.\Generated_Source\PSoC5/ETH.c **** /* ------------------------------------------------------------------------ */
1550:.\Generated_Source\PSoC5/ETH.c **** void
1551:.\Generated_Source\PSoC5/ETH.c **** ETH_TcpStartServer( uint8 socket )
1552:.\Generated_Source\PSoC5/ETH.c **** {
 4295              		.loc 1 1552 0
 4296              		.cfi_startproc
 4297              		@ args = 0, pretend = 0, frame = 8
 4298              		@ frame_needed = 1, uses_anonymous_args = 0
 4299 0000 80B5     		push	{r7, lr}
 4300              	.LCFI183:
 4301              		.cfi_def_cfa_offset 8
 4302              		.cfi_offset 7, -8
 4303              		.cfi_offset 14, -4
 4304 0002 82B0     		sub	sp, sp, #8
 4305              	.LCFI184:
 4306              		.cfi_def_cfa_offset 16
 4307 0004 00AF     		add	r7, sp, #0
 4308              	.LCFI185:
 4309              		.cfi_def_cfa_register 7
 4310 0006 0346     		mov	r3, r0
 4311 0008 FB71     		strb	r3, [r7, #7]
1553:.\Generated_Source\PSoC5/ETH.c **** 	/*
1554:.\Generated_Source\PSoC5/ETH.c **** 	 * Start a open socket listening for a connection
1555:.\Generated_Source\PSoC5/ETH.c **** 	 */
1556:.\Generated_Source\PSoC5/ETH.c **** 	/* was this a valid socket? */
1557:.\Generated_Source\PSoC5/ETH.c **** 	if (socket < ETH_MAX_SOCKET) {
 4312              		.loc 1 1557 0
 4313 000a FB79     		ldrb	r3, [r7, #7]	@ zero_extendqisi2
 4314 000c 072B     		cmp	r3, #7
 4315 000e 05D8     		bhi	.L192
1558:.\Generated_Source\PSoC5/ETH.c **** 		/* Execute the listen command */
1559:.\Generated_Source\PSoC5/ETH.c **** 		ETH_ExecuteSocketCommand( socket, 0x02 );
 4316              		.loc 1 1559 0
 4317 0010 FB79     		ldrb	r3, [r7, #7]	@ zero_extendqisi2
 4318 0012 1846     		mov	r0, r3
 4319 0014 4FF00201 		mov	r1, #2
 4320 0018 FFF7FEFF 		bl	ETH_ExecuteSocketCommand
 4321              	.L192:
1560:.\Generated_Source\PSoC5/ETH.c **** 	}
1561:.\Generated_Source\PSoC5/ETH.c **** }
 4322              		.loc 1 1561 0
 4323 001c 07F10807 		add	r7, r7, #8
 4324 0020 BD46     		mov	sp, r7
 4325 0022 80BD     		pop	{r7, pc}
 4326              		.cfi_endproc
 4327              	.LFE118:
ARM GAS  C:\Users\CHUCK~1.ERH\AppData\Local\Temp\cclfQUCJ.s 			page 105


 4328              		.size	ETH_TcpStartServer, .-ETH_TcpStartServer
 4329              		.section	.text.ETH_TcpStartServerWait,"ax",%progbits
 4330              		.align	2
 4331              		.global	ETH_TcpStartServerWait
 4332              		.thumb
 4333              		.thumb_func
 4334              		.type	ETH_TcpStartServerWait, %function
 4335              	ETH_TcpStartServerWait:
 4336              	.LFB119:
1562:.\Generated_Source\PSoC5/ETH.c **** /* ------------------------------------------------------------------------ */
1563:.\Generated_Source\PSoC5/ETH.c **** void
1564:.\Generated_Source\PSoC5/ETH.c **** ETH_TcpStartServerWait( uint8 socket )
1565:.\Generated_Source\PSoC5/ETH.c **** {
 4337              		.loc 1 1565 0
 4338              		.cfi_startproc
 4339              		@ args = 0, pretend = 0, frame = 16
 4340              		@ frame_needed = 1, uses_anonymous_args = 0
 4341 0000 80B5     		push	{r7, lr}
 4342              	.LCFI186:
 4343              		.cfi_def_cfa_offset 8
 4344              		.cfi_offset 7, -8
 4345              		.cfi_offset 14, -4
 4346 0002 84B0     		sub	sp, sp, #16
 4347              	.LCFI187:
 4348              		.cfi_def_cfa_offset 24
 4349 0004 00AF     		add	r7, sp, #0
 4350              	.LCFI188:
 4351              		.cfi_def_cfa_register 7
 4352 0006 0346     		mov	r3, r0
 4353 0008 FB71     		strb	r3, [r7, #7]
1566:.\Generated_Source\PSoC5/ETH.c **** 	uint8 status;
1567:.\Generated_Source\PSoC5/ETH.c **** 	
1568:.\Generated_Source\PSoC5/ETH.c **** 	/*
1569:.\Generated_Source\PSoC5/ETH.c **** 	 * Bug Patch: Exit Waiting for server when an invalid socket is passed
1570:.\Generated_Source\PSoC5/ETH.c **** 	 */
1571:.\Generated_Source\PSoC5/ETH.c **** 	if (socket >= ETH_MAX_SOCKET) return;
 4354              		.loc 1 1571 0
 4355 000a FB79     		ldrb	r3, [r7, #7]	@ zero_extendqisi2
 4356 000c 072B     		cmp	r3, #7
 4357 000e 1FD8     		bhi	.L199
 4358              	.L195:
1572:.\Generated_Source\PSoC5/ETH.c **** 	ETH_TcpStartServer(socket);
 4359              		.loc 1 1572 0
 4360 0010 FB79     		ldrb	r3, [r7, #7]	@ zero_extendqisi2
 4361 0012 1846     		mov	r0, r3
 4362 0014 FFF7FEFF 		bl	ETH_TcpStartServer
1573:.\Generated_Source\PSoC5/ETH.c **** 	/* wait for socket establishment */
1574:.\Generated_Source\PSoC5/ETH.c **** 	/* Update Patch: Loop calls process connections to exit on a closed socket */
1575:.\Generated_Source\PSoC5/ETH.c **** 	status = ETH_GetSocketStatus(socket);
 4363              		.loc 1 1575 0
 4364 0018 FB79     		ldrb	r3, [r7, #7]	@ zero_extendqisi2
 4365 001a 1846     		mov	r0, r3
 4366 001c FFF7FEFF 		bl	ETH_GetSocketStatus
 4367 0020 0346     		mov	r3, r0
 4368 0022 FB73     		strb	r3, [r7, #15]
1576:.\Generated_Source\PSoC5/ETH.c **** 	while ( (status != 0x17 ) && (status != 0 ) ) {
 4369              		.loc 1 1576 0
ARM GAS  C:\Users\CHUCK~1.ERH\AppData\Local\Temp\cclfQUCJ.s 			page 106


 4370 0024 0DE0     		b	.L197
 4371              	.L198:
1577:.\Generated_Source\PSoC5/ETH.c **** 		CyDelay(1);
 4372              		.loc 1 1577 0
 4373 0026 4FF00100 		mov	r0, #1
 4374 002a FFF7FEFF 		bl	CyDelay
1578:.\Generated_Source\PSoC5/ETH.c **** 		ETH_SocketProcessConnections( socket );
 4375              		.loc 1 1578 0
 4376 002e FB79     		ldrb	r3, [r7, #7]	@ zero_extendqisi2
 4377 0030 1846     		mov	r0, r3
 4378 0032 FFF7FEFF 		bl	ETH_SocketProcessConnections
1579:.\Generated_Source\PSoC5/ETH.c **** 		status = ETH_GetSocketStatus( socket );
 4379              		.loc 1 1579 0
 4380 0036 FB79     		ldrb	r3, [r7, #7]	@ zero_extendqisi2
 4381 0038 1846     		mov	r0, r3
 4382 003a FFF7FEFF 		bl	ETH_GetSocketStatus
 4383 003e 0346     		mov	r3, r0
 4384 0040 FB73     		strb	r3, [r7, #15]
 4385              	.L197:
1576:.\Generated_Source\PSoC5/ETH.c **** 	while ( (status != 0x17 ) && (status != 0 ) ) {
 4386              		.loc 1 1576 0 discriminator 1
 4387 0042 FB7B     		ldrb	r3, [r7, #15]	@ zero_extendqisi2
 4388 0044 172B     		cmp	r3, #23
 4389 0046 04D0     		beq	.L194
1576:.\Generated_Source\PSoC5/ETH.c **** 	while ( (status != 0x17 ) && (status != 0 ) ) {
 4390              		.loc 1 1576 0 is_stmt 0 discriminator 2
 4391 0048 FB7B     		ldrb	r3, [r7, #15]	@ zero_extendqisi2
 4392 004a 002B     		cmp	r3, #0
 4393 004c EBD1     		bne	.L198
 4394 004e 00E0     		b	.L194
 4395              	.L199:
1571:.\Generated_Source\PSoC5/ETH.c **** 	if (socket >= ETH_MAX_SOCKET) return;
 4396              		.loc 1 1571 0 is_stmt 1
 4397 0050 00BF     		nop
 4398              	.L194:
1580:.\Generated_Source\PSoC5/ETH.c **** 	}
1581:.\Generated_Source\PSoC5/ETH.c **** }
 4399              		.loc 1 1581 0
 4400 0052 07F11007 		add	r7, r7, #16
 4401 0056 BD46     		mov	sp, r7
 4402 0058 80BD     		pop	{r7, pc}
 4403              		.cfi_endproc
 4404              	.LFE119:
 4405              		.size	ETH_TcpStartServerWait, .-ETH_TcpStartServerWait
 4406 005a 00BF     		.section	.text.ETH_TcpConnect,"ax",%progbits
 4407              		.align	2
 4408              		.global	ETH_TcpConnect
 4409              		.thumb
 4410              		.thumb_func
 4411              		.type	ETH_TcpConnect, %function
 4412              	ETH_TcpConnect:
 4413              	.LFB120:
1582:.\Generated_Source\PSoC5/ETH.c **** /* ------------------------------------------------------------------------ */
1583:.\Generated_Source\PSoC5/ETH.c **** void
1584:.\Generated_Source\PSoC5/ETH.c **** ETH_TcpConnect( uint8 socket, uint32 ip, uint16 port )
1585:.\Generated_Source\PSoC5/ETH.c **** {
 4414              		.loc 1 1585 0
ARM GAS  C:\Users\CHUCK~1.ERH\AppData\Local\Temp\cclfQUCJ.s 			page 107


 4415              		.cfi_startproc
 4416              		@ args = 0, pretend = 0, frame = 16
 4417              		@ frame_needed = 1, uses_anonymous_args = 0
 4418 0000 80B5     		push	{r7, lr}
 4419              	.LCFI189:
 4420              		.cfi_def_cfa_offset 8
 4421              		.cfi_offset 7, -8
 4422              		.cfi_offset 14, -4
 4423 0002 84B0     		sub	sp, sp, #16
 4424              	.LCFI190:
 4425              		.cfi_def_cfa_offset 24
 4426 0004 00AF     		add	r7, sp, #0
 4427              	.LCFI191:
 4428              		.cfi_def_cfa_register 7
 4429 0006 3960     		str	r1, [r7, #0]
 4430 0008 1346     		mov	r3, r2
 4431 000a 0246     		mov	r2, r0
 4432 000c FA71     		strb	r2, [r7, #7]
 4433 000e BB80     		strh	r3, [r7, #4]	@ movhi
1586:.\Generated_Source\PSoC5/ETH.c **** 	uint32 timeout;
1587:.\Generated_Source\PSoC5/ETH.c **** 	uint8 ir;
1588:.\Generated_Source\PSoC5/ETH.c **** 	
1589:.\Generated_Source\PSoC5/ETH.c **** 	/* Exit when passed a closed or invalid socket */
1590:.\Generated_Source\PSoC5/ETH.c **** 	if ( socket >= ETH_MAX_SOCKET) return;
 4434              		.loc 1 1590 0
 4435 0010 FB79     		ldrb	r3, [r7, #7]	@ zero_extendqisi2
 4436 0012 072B     		cmp	r3, #7
 4437 0014 47D8     		bhi	.L206
 4438              	.L201:
1591:.\Generated_Source\PSoC5/ETH.c **** 	/* Check for a valid IP address */
1592:.\Generated_Source\PSoC5/ETH.c **** 	if ( (ip != 0xFFFFFFFF) && (ip != 0) ) {
 4439              		.loc 1 1592 0
 4440 0016 3B68     		ldr	r3, [r7, #0]
 4441 0018 B3F1FF3F 		cmp	r3, #-1
 4442 001c 44D0     		beq	.L200
 4443              		.loc 1 1592 0 is_stmt 0 discriminator 1
 4444 001e 3B68     		ldr	r3, [r7, #0]
 4445 0020 002B     		cmp	r3, #0
 4446 0022 41D0     		beq	.L200
1593:.\Generated_Source\PSoC5/ETH.c **** 		ETH_SetSocketDestIP( socket, ip );
 4447              		.loc 1 1593 0 is_stmt 1
 4448 0024 FB79     		ldrb	r3, [r7, #7]	@ zero_extendqisi2
 4449 0026 1846     		mov	r0, r3
 4450 0028 3968     		ldr	r1, [r7, #0]
 4451 002a FFF7FEFF 		bl	ETH_SetSocketDestIP
1594:.\Generated_Source\PSoC5/ETH.c **** 		ETH_SetSocketDestPort( socket, port );
 4452              		.loc 1 1594 0
 4453 002e FA79     		ldrb	r2, [r7, #7]	@ zero_extendqisi2
 4454 0030 BB88     		ldrh	r3, [r7, #4]
 4455 0032 1046     		mov	r0, r2
 4456 0034 1946     		mov	r1, r3
 4457 0036 FFF7FEFF 		bl	ETH_SetSocketDestPort
1595:.\Generated_Source\PSoC5/ETH.c **** 		/* set socket subnet mask */
1596:.\Generated_Source\PSoC5/ETH.c **** 		ETH_SetSubnetMask( ETH_SubnetMask );
 4458              		.loc 1 1596 0
 4459 003a 40F20003 		movw	r3, #:lower16:ETH_SubnetMask
 4460 003e C0F20003 		movt	r3, #:upper16:ETH_SubnetMask
ARM GAS  C:\Users\CHUCK~1.ERH\AppData\Local\Temp\cclfQUCJ.s 			page 108


 4461 0042 1B68     		ldr	r3, [r3, #0]
 4462 0044 1846     		mov	r0, r3
 4463 0046 FFF7FEFF 		bl	ETH_SetSubnetMask
1597:.\Generated_Source\PSoC5/ETH.c **** 		ETH_ExecuteSocketCommand( socket, 0x04);
 4464              		.loc 1 1597 0
 4465 004a FB79     		ldrb	r3, [r7, #7]	@ zero_extendqisi2
 4466 004c 1846     		mov	r0, r3
 4467 004e 4FF00401 		mov	r1, #4
 4468 0052 FFF7FEFF 		bl	ETH_ExecuteSocketCommand
1598:.\Generated_Source\PSoC5/ETH.c **** 		/* wait for the socket connection to the remote host is established */
1599:.\Generated_Source\PSoC5/ETH.c **** 		while ( (!ETH_SocketEstablished(socket))  && (timeout < 3000) ) {
 4469              		.loc 1 1599 0
 4470 0056 15E0     		b	.L203
 4471              	.L205:
1600:.\Generated_Source\PSoC5/ETH.c **** 			CyDelay(1);
 4472              		.loc 1 1600 0
 4473 0058 4FF00100 		mov	r0, #1
 4474 005c FFF7FEFF 		bl	CyDelay
1601:.\Generated_Source\PSoC5/ETH.c **** 			++timeout;
 4475              		.loc 1 1601 0
 4476 0060 FB68     		ldr	r3, [r7, #12]
 4477 0062 03F10103 		add	r3, r3, #1
 4478 0066 FB60     		str	r3, [r7, #12]
1602:.\Generated_Source\PSoC5/ETH.c **** 			ir = ETH_GetSocketIR( socket );
 4479              		.loc 1 1602 0
 4480 0068 FB79     		ldrb	r3, [r7, #7]	@ zero_extendqisi2
 4481 006a 1846     		mov	r0, r3
 4482 006c FFF7FEFF 		bl	ETH_GetSocketIR
 4483 0070 0346     		mov	r3, r0
 4484 0072 FB72     		strb	r3, [r7, #11]
1603:.\Generated_Source\PSoC5/ETH.c **** 			if ( (ir & 0x08) != 0 ) {
 4485              		.loc 1 1603 0
 4486 0074 FB7A     		ldrb	r3, [r7, #11]	@ zero_extendqisi2
 4487 0076 03F00803 		and	r3, r3, #8
 4488 007a 002B     		cmp	r3, #0
 4489 007c 02D0     		beq	.L203
1604:.\Generated_Source\PSoC5/ETH.c **** 				/* internal chip timeout occured */
1605:.\Generated_Source\PSoC5/ETH.c **** 				timeout = 3000;
 4490              		.loc 1 1605 0
 4491 007e 40F6B833 		movw	r3, #3000
 4492 0082 FB60     		str	r3, [r7, #12]
 4493              	.L203:
1599:.\Generated_Source\PSoC5/ETH.c **** 		while ( (!ETH_SocketEstablished(socket))  && (timeout < 3000) ) {
 4494              		.loc 1 1599 0 discriminator 1
 4495 0084 FB79     		ldrb	r3, [r7, #7]	@ zero_extendqisi2
 4496 0086 1846     		mov	r0, r3
 4497 0088 FFF7FEFF 		bl	ETH_SocketEstablished
 4498 008c 0346     		mov	r3, r0
 4499 008e 002B     		cmp	r3, #0
 4500 0090 04D1     		bne	.L204
1599:.\Generated_Source\PSoC5/ETH.c **** 		while ( (!ETH_SocketEstablished(socket))  && (timeout < 3000) ) {
 4501              		.loc 1 1599 0 is_stmt 0 discriminator 2
 4502 0092 FA68     		ldr	r2, [r7, #12]
 4503 0094 40F6B733 		movw	r3, #2999
 4504 0098 9A42     		cmp	r2, r3
 4505 009a DDD9     		bls	.L205
 4506              	.L204:
ARM GAS  C:\Users\CHUCK~1.ERH\AppData\Local\Temp\cclfQUCJ.s 			page 109


1606:.\Generated_Source\PSoC5/ETH.c **** 			}
1607:.\Generated_Source\PSoC5/ETH.c **** 		}
1608:.\Generated_Source\PSoC5/ETH.c **** 		/* clear the Subnet mask register */
1609:.\Generated_Source\PSoC5/ETH.c **** 		ETH_SetSubnetMask(0);
 4507              		.loc 1 1609 0 is_stmt 1
 4508 009c 4FF00000 		mov	r0, #0
 4509 00a0 FFF7FEFF 		bl	ETH_SetSubnetMask
 4510 00a4 00E0     		b	.L200
 4511              	.L206:
1590:.\Generated_Source\PSoC5/ETH.c **** 	if ( socket >= ETH_MAX_SOCKET) return;
 4512              		.loc 1 1590 0
 4513 00a6 00BF     		nop
 4514              	.L200:
1610:.\Generated_Source\PSoC5/ETH.c **** 	}
1611:.\Generated_Source\PSoC5/ETH.c **** }
 4515              		.loc 1 1611 0
 4516 00a8 07F11007 		add	r7, r7, #16
 4517 00ac BD46     		mov	sp, r7
 4518 00ae 80BD     		pop	{r7, pc}
 4519              		.cfi_endproc
 4520              	.LFE120:
 4521              		.size	ETH_TcpConnect, .-ETH_TcpConnect
 4522              		.section	.text.ETH_TcpConnected,"ax",%progbits
 4523              		.align	2
 4524              		.global	ETH_TcpConnected
 4525              		.thumb
 4526              		.thumb_func
 4527              		.type	ETH_TcpConnected, %function
 4528              	ETH_TcpConnected:
 4529              	.LFB121:
1612:.\Generated_Source\PSoC5/ETH.c **** /* ------------------------------------------------------------------------ */
1613:.\Generated_Source\PSoC5/ETH.c **** uint8
1614:.\Generated_Source\PSoC5/ETH.c **** ETH_TcpConnected( uint8 socket )
1615:.\Generated_Source\PSoC5/ETH.c **** { return ETH_SocketEstablished(socket); }
 4530              		.loc 1 1615 0
 4531              		.cfi_startproc
 4532              		@ args = 0, pretend = 0, frame = 8
 4533              		@ frame_needed = 1, uses_anonymous_args = 0
 4534 0000 80B5     		push	{r7, lr}
 4535              	.LCFI192:
 4536              		.cfi_def_cfa_offset 8
 4537              		.cfi_offset 7, -8
 4538              		.cfi_offset 14, -4
 4539 0002 82B0     		sub	sp, sp, #8
 4540              	.LCFI193:
 4541              		.cfi_def_cfa_offset 16
 4542 0004 00AF     		add	r7, sp, #0
 4543              	.LCFI194:
 4544              		.cfi_def_cfa_register 7
 4545 0006 0346     		mov	r3, r0
 4546 0008 FB71     		strb	r3, [r7, #7]
 4547              		.loc 1 1615 0
 4548 000a FB79     		ldrb	r3, [r7, #7]	@ zero_extendqisi2
 4549 000c 1846     		mov	r0, r3
 4550 000e FFF7FEFF 		bl	ETH_SocketEstablished
 4551 0012 0346     		mov	r3, r0
 4552 0014 1846     		mov	r0, r3
ARM GAS  C:\Users\CHUCK~1.ERH\AppData\Local\Temp\cclfQUCJ.s 			page 110


 4553 0016 07F10807 		add	r7, r7, #8
 4554 001a BD46     		mov	sp, r7
 4555 001c 80BD     		pop	{r7, pc}
 4556              		.cfi_endproc
 4557              	.LFE121:
 4558              		.size	ETH_TcpConnected, .-ETH_TcpConnected
 4559 001e 00BF     		.section	.text.ETH_TcpDisconnect,"ax",%progbits
 4560              		.align	2
 4561              		.global	ETH_TcpDisconnect
 4562              		.thumb
 4563              		.thumb_func
 4564              		.type	ETH_TcpDisconnect, %function
 4565              	ETH_TcpDisconnect:
 4566              	.LFB122:
1616:.\Generated_Source\PSoC5/ETH.c **** /* ------------------------------------------------------------------------ */
1617:.\Generated_Source\PSoC5/ETH.c **** void
1618:.\Generated_Source\PSoC5/ETH.c **** ETH_TcpDisconnect( uint8 socket )
1619:.\Generated_Source\PSoC5/ETH.c **** {
 4567              		.loc 1 1619 0
 4568              		.cfi_startproc
 4569              		@ args = 0, pretend = 0, frame = 8
 4570              		@ frame_needed = 1, uses_anonymous_args = 0
 4571 0000 80B5     		push	{r7, lr}
 4572              	.LCFI195:
 4573              		.cfi_def_cfa_offset 8
 4574              		.cfi_offset 7, -8
 4575              		.cfi_offset 14, -4
 4576 0002 82B0     		sub	sp, sp, #8
 4577              	.LCFI196:
 4578              		.cfi_def_cfa_offset 16
 4579 0004 00AF     		add	r7, sp, #0
 4580              	.LCFI197:
 4581              		.cfi_def_cfa_register 7
 4582 0006 0346     		mov	r3, r0
 4583 0008 FB71     		strb	r3, [r7, #7]
1620:.\Generated_Source\PSoC5/ETH.c **** 	ETH_ExecuteSocketCommand(socket, 0x08);
 4584              		.loc 1 1620 0
 4585 000a FB79     		ldrb	r3, [r7, #7]	@ zero_extendqisi2
 4586 000c 1846     		mov	r0, r3
 4587 000e 4FF00801 		mov	r1, #8
 4588 0012 FFF7FEFF 		bl	ETH_ExecuteSocketCommand
1621:.\Generated_Source\PSoC5/ETH.c **** }
 4589              		.loc 1 1621 0
 4590 0016 07F10807 		add	r7, r7, #8
 4591 001a BD46     		mov	sp, r7
 4592 001c 80BD     		pop	{r7, pc}
 4593              		.cfi_endproc
 4594              	.LFE122:
 4595              		.size	ETH_TcpDisconnect, .-ETH_TcpDisconnect
 4596 001e 00BF     		.section	.text.ETH_TcpSend,"ax",%progbits
 4597              		.align	2
 4598              		.global	ETH_TcpSend
 4599              		.thumb
 4600              		.thumb_func
 4601              		.type	ETH_TcpSend, %function
 4602              	ETH_TcpSend:
 4603              	.LFB123:
ARM GAS  C:\Users\CHUCK~1.ERH\AppData\Local\Temp\cclfQUCJ.s 			page 111


1622:.\Generated_Source\PSoC5/ETH.c **** /* ------------------------------------------------------------------------ */
1623:.\Generated_Source\PSoC5/ETH.c **** uint16
1624:.\Generated_Source\PSoC5/ETH.c **** ETH_TcpSend(uint8 socket, uint8* buffer, uint16 len)
1625:.\Generated_Source\PSoC5/ETH.c **** {
 4604              		.loc 1 1625 0
 4605              		.cfi_startproc
 4606              		@ args = 0, pretend = 0, frame = 16
 4607              		@ frame_needed = 1, uses_anonymous_args = 0
 4608 0000 80B5     		push	{r7, lr}
 4609              	.LCFI198:
 4610              		.cfi_def_cfa_offset 8
 4611              		.cfi_offset 7, -8
 4612              		.cfi_offset 14, -4
 4613 0002 84B0     		sub	sp, sp, #16
 4614              	.LCFI199:
 4615              		.cfi_def_cfa_offset 24
 4616 0004 00AF     		add	r7, sp, #0
 4617              	.LCFI200:
 4618              		.cfi_def_cfa_register 7
 4619 0006 3960     		str	r1, [r7, #0]
 4620 0008 1346     		mov	r3, r2
 4621 000a 0246     		mov	r2, r0
 4622 000c FA71     		strb	r2, [r7, #7]
 4623 000e BB80     		strh	r3, [r7, #4]	@ movhi
1626:.\Generated_Source\PSoC5/ETH.c **** 	uint16 TxSize;
1627:.\Generated_Source\PSoC5/ETH.c **** 	uint16 FreeSpace;
1628:.\Generated_Source\PSoC5/ETH.c **** 	uint8 status;
1629:.\Generated_Source\PSoC5/ETH.c **** 	
1630:.\Generated_Source\PSoC5/ETH.c **** 	/* Update Patch: Exit immediately with 0 data tx on bad socket */
1631:.\Generated_Source\PSoC5/ETH.c **** 	if (socket >= ETH_MAX_SOCKET) return 0;
 4624              		.loc 1 1631 0
 4625 0010 FB79     		ldrb	r3, [r7, #7]	@ zero_extendqisi2
 4626 0012 072B     		cmp	r3, #7
 4627 0014 02D9     		bls	.L211
 4628              		.loc 1 1631 0 is_stmt 0 discriminator 1
 4629 0016 4FF00003 		mov	r3, #0
 4630 001a 46E0     		b	.L212
 4631              	.L211:
1632:.\Generated_Source\PSoC5/ETH.c **** 	TxSize =  (len > 0x0800) ? 0x0800 : len;
 4632              		.loc 1 1632 0 is_stmt 1
 4633 001c BB88     		ldrh	r3, [r7, #4]
 4634 001e B3F5006F 		cmp	r3, #2048
 4635 0022 28BF     		it	cs
 4636 0024 4FF40063 		movcs	r3, #2048
 4637 0028 FB81     		strh	r3, [r7, #14]	@ movhi
1633:.\Generated_Source\PSoC5/ETH.c **** 	/* check the connection status, and protocol of the socket */
1634:.\Generated_Source\PSoC5/ETH.c **** 	status = ETH_GetSocketStatus(socket);
 4638              		.loc 1 1634 0
 4639 002a FB79     		ldrb	r3, [r7, #7]	@ zero_extendqisi2
 4640 002c 1846     		mov	r0, r3
 4641 002e FFF7FEFF 		bl	ETH_GetSocketStatus
 4642 0032 0346     		mov	r3, r0
 4643 0034 FB72     		strb	r3, [r7, #11]
1635:.\Generated_Source\PSoC5/ETH.c **** 	if ( ( status == 0x17) && (ETH_SocketConfig[socket].Protocol == ETH_PROTO_TCP) ) {
 4644              		.loc 1 1635 0
 4645 0036 FB7A     		ldrb	r3, [r7, #11]	@ zero_extendqisi2
 4646 0038 172B     		cmp	r3, #23
ARM GAS  C:\Users\CHUCK~1.ERH\AppData\Local\Temp\cclfQUCJ.s 			page 112


 4647 003a 32D1     		bne	.L213
 4648              		.loc 1 1635 0 is_stmt 0 discriminator 1
 4649 003c FA79     		ldrb	r2, [r7, #7]	@ zero_extendqisi2
 4650 003e 40F20003 		movw	r3, #:lower16:ETH_SocketConfig
 4651 0042 C0F20003 		movt	r3, #:upper16:ETH_SocketConfig
 4652 0046 13F83230 		ldrb	r3, [r3, r2, lsl #3]	@ zero_extendqisi2
 4653 004a 012B     		cmp	r3, #1
 4654 004c 29D1     		bne	.L213
1636:.\Generated_Source\PSoC5/ETH.c **** 		/* 
1637:.\Generated_Source\PSoC5/ETH.c **** 		 * The socket was open with the correct protocol and is connected to
1638:.\Generated_Source\PSoC5/ETH.c **** 		 * a valid remote system. In order to send the requested packet data,
1639:.\Generated_Source\PSoC5/ETH.c **** 		 * first, we must wait for the available buffer memory to be free
1640:.\Generated_Source\PSoC5/ETH.c **** 		 * in the transmit buffer fifo.
1641:.\Generated_Source\PSoC5/ETH.c **** 		 */
1642:.\Generated_Source\PSoC5/ETH.c **** 		FreeSpace = 0;
 4655              		.loc 1 1642 0 is_stmt 1
 4656 004e 4FF00003 		mov	r3, #0
 4657 0052 BB81     		strh	r3, [r7, #12]	@ movhi
1643:.\Generated_Source\PSoC5/ETH.c **** 		status = 0x17;
 4658              		.loc 1 1643 0
 4659 0054 4FF01703 		mov	r3, #23
 4660 0058 FB72     		strb	r3, [r7, #11]
1644:.\Generated_Source\PSoC5/ETH.c **** 		while ( (FreeSpace < TxSize) && ( (status == 0x17) && (status != 0x1C) ) ) {
 4661              		.loc 1 1644 0
 4662 005a 0BE0     		b	.L214
 4663              	.L216:
1645:.\Generated_Source\PSoC5/ETH.c **** 			FreeSpace = ETH_GetTxFreeSize( socket );
 4664              		.loc 1 1645 0
 4665 005c FB79     		ldrb	r3, [r7, #7]	@ zero_extendqisi2
 4666 005e 1846     		mov	r0, r3
 4667 0060 FFF7FEFF 		bl	ETH_GetTxFreeSize
 4668 0064 0346     		mov	r3, r0
 4669 0066 BB81     		strh	r3, [r7, #12]	@ movhi
1646:.\Generated_Source\PSoC5/ETH.c **** 			status = ETH_GetSocketStatus( socket );
 4670              		.loc 1 1646 0
 4671 0068 FB79     		ldrb	r3, [r7, #7]	@ zero_extendqisi2
 4672 006a 1846     		mov	r0, r3
 4673 006c FFF7FEFF 		bl	ETH_GetSocketStatus
 4674 0070 0346     		mov	r3, r0
 4675 0072 FB72     		strb	r3, [r7, #11]
 4676              	.L214:
1644:.\Generated_Source\PSoC5/ETH.c **** 		while ( (FreeSpace < TxSize) && ( (status == 0x17) && (status != 0x1C) ) ) {
 4677              		.loc 1 1644 0 discriminator 1
 4678 0074 BA89     		ldrh	r2, [r7, #12]
 4679 0076 FB89     		ldrh	r3, [r7, #14]
 4680 0078 9A42     		cmp	r2, r3
 4681 007a 05D2     		bcs	.L215
1644:.\Generated_Source\PSoC5/ETH.c **** 		while ( (FreeSpace < TxSize) && ( (status == 0x17) && (status != 0x1C) ) ) {
 4682              		.loc 1 1644 0 is_stmt 0 discriminator 2
 4683 007c FB7A     		ldrb	r3, [r7, #11]	@ zero_extendqisi2
 4684 007e 172B     		cmp	r3, #23
 4685 0080 02D1     		bne	.L215
1644:.\Generated_Source\PSoC5/ETH.c **** 		while ( (FreeSpace < TxSize) && ( (status == 0x17) && (status != 0x1C) ) ) {
 4686              		.loc 1 1644 0 discriminator 1
 4687 0082 FB7A     		ldrb	r3, [r7, #11]	@ zero_extendqisi2
 4688 0084 1C2B     		cmp	r3, #28
 4689 0086 E9D1     		bne	.L216
ARM GAS  C:\Users\CHUCK~1.ERH\AppData\Local\Temp\cclfQUCJ.s 			page 113


 4690              	.L215:
1647:.\Generated_Source\PSoC5/ETH.c **** 		}
1648:.\Generated_Source\PSoC5/ETH.c **** 		/*
1649:.\Generated_Source\PSoC5/ETH.c **** 		 * Write the data buffer to the chip Tx Buffer, then issue
1650:.\Generated_Source\PSoC5/ETH.c **** 		 * the chip SEND command
1651:.\Generated_Source\PSoC5/ETH.c **** 		 */
1652:.\Generated_Source\PSoC5/ETH.c **** 		ETH_ProcessTxData(socket, 0, buffer, TxSize);
 4691              		.loc 1 1652 0 is_stmt 1
 4692 0088 FA79     		ldrb	r2, [r7, #7]	@ zero_extendqisi2
 4693 008a FB89     		ldrh	r3, [r7, #14]
 4694 008c 1046     		mov	r0, r2
 4695 008e 4FF00001 		mov	r1, #0
 4696 0092 3A68     		ldr	r2, [r7, #0]
 4697 0094 FFF7FEFF 		bl	ETH_ProcessTxData
1653:.\Generated_Source\PSoC5/ETH.c **** 		ETH_SocketSend( socket );
 4698              		.loc 1 1653 0
 4699 0098 FB79     		ldrb	r3, [r7, #7]	@ zero_extendqisi2
 4700 009a 1846     		mov	r0, r3
 4701 009c FFF7FEFF 		bl	ETH_SocketSend
 4702 00a0 02E0     		b	.L217
 4703              	.L213:
1654:.\Generated_Source\PSoC5/ETH.c **** 	}
1655:.\Generated_Source\PSoC5/ETH.c **** 	else {
1656:.\Generated_Source\PSoC5/ETH.c **** 		/*
1657:.\Generated_Source\PSoC5/ETH.c **** 		 * the socket was not establised, or there was an error, so clear
1658:.\Generated_Source\PSoC5/ETH.c **** 		 * the TxSize to signal that no data has bee sent
1659:.\Generated_Source\PSoC5/ETH.c **** 		 */
1660:.\Generated_Source\PSoC5/ETH.c **** 		TxSize = 0;
 4704              		.loc 1 1660 0
 4705 00a2 4FF00003 		mov	r3, #0
 4706 00a6 FB81     		strh	r3, [r7, #14]	@ movhi
 4707              	.L217:
1661:.\Generated_Source\PSoC5/ETH.c **** 	}
1662:.\Generated_Source\PSoC5/ETH.c **** 	return TxSize;
 4708              		.loc 1 1662 0
 4709 00a8 FB89     		ldrh	r3, [r7, #14]
 4710              	.L212:
1663:.\Generated_Source\PSoC5/ETH.c **** }
 4711              		.loc 1 1663 0
 4712 00aa 1846     		mov	r0, r3
 4713 00ac 07F11007 		add	r7, r7, #16
 4714 00b0 BD46     		mov	sp, r7
 4715 00b2 80BD     		pop	{r7, pc}
 4716              		.cfi_endproc
 4717              	.LFE123:
 4718              		.size	ETH_TcpSend, .-ETH_TcpSend
 4719              		.section	.text.ETH_TcpReceive,"ax",%progbits
 4720              		.align	2
 4721              		.global	ETH_TcpReceive
 4722              		.thumb
 4723              		.thumb_func
 4724              		.type	ETH_TcpReceive, %function
 4725              	ETH_TcpReceive:
 4726              	.LFB124:
1664:.\Generated_Source\PSoC5/ETH.c **** /* ------------------------------------------------------------------------ */
1665:.\Generated_Source\PSoC5/ETH.c **** uint16
1666:.\Generated_Source\PSoC5/ETH.c **** ETH_TcpReceive( uint8 socket, uint8* buffer, uint16 length )
ARM GAS  C:\Users\CHUCK~1.ERH\AppData\Local\Temp\cclfQUCJ.s 			page 114


1667:.\Generated_Source\PSoC5/ETH.c **** {
 4727              		.loc 1 1667 0
 4728              		.cfi_startproc
 4729              		@ args = 0, pretend = 0, frame = 16
 4730              		@ frame_needed = 1, uses_anonymous_args = 0
 4731 0000 80B5     		push	{r7, lr}
 4732              	.LCFI201:
 4733              		.cfi_def_cfa_offset 8
 4734              		.cfi_offset 7, -8
 4735              		.cfi_offset 14, -4
 4736 0002 86B0     		sub	sp, sp, #24
 4737              	.LCFI202:
 4738              		.cfi_def_cfa_offset 32
 4739 0004 02AF     		add	r7, sp, #8
 4740              	.LCFI203:
 4741              		.cfi_def_cfa 7, 24
 4742 0006 3960     		str	r1, [r7, #0]
 4743 0008 1346     		mov	r3, r2
 4744 000a 0246     		mov	r2, r0
 4745 000c FA71     		strb	r2, [r7, #7]
 4746 000e BB80     		strh	r3, [r7, #4]	@ movhi
1668:.\Generated_Source\PSoC5/ETH.c **** 	uint16 RxSize;
1669:.\Generated_Source\PSoC5/ETH.c **** 
1670:.\Generated_Source\PSoC5/ETH.c **** 	/*
1671:.\Generated_Source\PSoC5/ETH.c **** 	 * Revision Update:
1672:.\Generated_Source\PSoC5/ETH.c **** 	 * Removed dead code, added exit when there is an invlaid socket specified
1673:.\Generated_Source\PSoC5/ETH.c **** 	 */
1674:.\Generated_Source\PSoC5/ETH.c **** 	if (socket >= ETH_MAX_SOCKET) return 0;
 4747              		.loc 1 1674 0
 4748 0010 FB79     		ldrb	r3, [r7, #7]	@ zero_extendqisi2
 4749 0012 072B     		cmp	r3, #7
 4750 0014 02D9     		bls	.L219
 4751              		.loc 1 1674 0 is_stmt 0 discriminator 1
 4752 0016 4FF00003 		mov	r3, #0
 4753 001a 20E0     		b	.L220
 4754              	.L219:
1675:.\Generated_Source\PSoC5/ETH.c **** 	/*
1676:.\Generated_Source\PSoC5/ETH.c **** 	 * read the number of waiting bytes in the buffer memory
1677:.\Generated_Source\PSoC5/ETH.c **** 	 * but, clip the length of data read to the requested
1678:.\Generated_Source\PSoC5/ETH.c **** 	 * length of data.
1679:.\Generated_Source\PSoC5/ETH.c **** 	 */
1680:.\Generated_Source\PSoC5/ETH.c **** 	RxSize = ETH_GetRxSize( socket );
 4755              		.loc 1 1680 0 is_stmt 1
 4756 001c FB79     		ldrb	r3, [r7, #7]	@ zero_extendqisi2
 4757 001e 1846     		mov	r0, r3
 4758 0020 FFF7FEFF 		bl	ETH_GetRxSize
 4759 0024 0346     		mov	r3, r0
 4760 0026 FB81     		strh	r3, [r7, #14]	@ movhi
1681:.\Generated_Source\PSoC5/ETH.c **** 	RxSize = (RxSize > length) ? length : RxSize;
 4761              		.loc 1 1681 0
 4762 0028 FA89     		ldrh	r2, [r7, #14]
 4763 002a BB88     		ldrh	r3, [r7, #4]
 4764 002c 9A42     		cmp	r2, r3
 4765 002e 38BF     		it	cc
 4766 0030 1346     		movcc	r3, r2
 4767 0032 FB81     		strh	r3, [r7, #14]	@ movhi
1682:.\Generated_Source\PSoC5/ETH.c **** 	/* If there was waiting data, read it from the buffer */
ARM GAS  C:\Users\CHUCK~1.ERH\AppData\Local\Temp\cclfQUCJ.s 			page 115


1683:.\Generated_Source\PSoC5/ETH.c **** 	if (RxSize > 0) {
 4768              		.loc 1 1683 0
 4769 0034 FB89     		ldrh	r3, [r7, #14]
 4770 0036 002B     		cmp	r3, #0
 4771 0038 10D0     		beq	.L221
1684:.\Generated_Source\PSoC5/ETH.c **** 		ETH_ProcessRxData( socket, 0, buffer, RxSize, 0);
 4772              		.loc 1 1684 0
 4773 003a FA79     		ldrb	r2, [r7, #7]	@ zero_extendqisi2
 4774 003c FB89     		ldrh	r3, [r7, #14]
 4775 003e 4FF00001 		mov	r1, #0
 4776 0042 0091     		str	r1, [sp, #0]
 4777 0044 1046     		mov	r0, r2
 4778 0046 4FF00001 		mov	r1, #0
 4779 004a 3A68     		ldr	r2, [r7, #0]
 4780 004c FFF7FEFF 		bl	ETH_ProcessRxData
1685:.\Generated_Source\PSoC5/ETH.c **** 		/* 
1686:.\Generated_Source\PSoC5/ETH.c **** 		 * after reading the buffer data, send the receive command
1687:.\Generated_Source\PSoC5/ETH.c **** 		 * to the socket so that the W5100 completes the read
1688:.\Generated_Source\PSoC5/ETH.c **** 		 */
1689:.\Generated_Source\PSoC5/ETH.c **** 		ETH_ExecuteSocketCommand(socket, 0x40);
 4781              		.loc 1 1689 0
 4782 0050 FB79     		ldrb	r3, [r7, #7]	@ zero_extendqisi2
 4783 0052 1846     		mov	r0, r3
 4784 0054 4FF04001 		mov	r1, #64
 4785 0058 FFF7FEFF 		bl	ETH_ExecuteSocketCommand
 4786              	.L221:
1690:.\Generated_Source\PSoC5/ETH.c **** 	}
1691:.\Generated_Source\PSoC5/ETH.c **** 	
1692:.\Generated_Source\PSoC5/ETH.c **** 	/* return the number of read bytes from the buffer memory */
1693:.\Generated_Source\PSoC5/ETH.c **** 	return RxSize;
 4787              		.loc 1 1693 0
 4788 005c FB89     		ldrh	r3, [r7, #14]
 4789              	.L220:
1694:.\Generated_Source\PSoC5/ETH.c **** }
 4790              		.loc 1 1694 0
 4791 005e 1846     		mov	r0, r3
 4792 0060 07F11007 		add	r7, r7, #16
 4793 0064 BD46     		mov	sp, r7
 4794 0066 80BD     		pop	{r7, pc}
 4795              		.cfi_endproc
 4796              	.LFE124:
 4797              		.size	ETH_TcpReceive, .-ETH_TcpReceive
 4798              		.section	.text.ETH_TcpPrint,"ax",%progbits
 4799              		.align	2
 4800              		.global	ETH_TcpPrint
 4801              		.thumb
 4802              		.thumb_func
 4803              		.type	ETH_TcpPrint, %function
 4804              	ETH_TcpPrint:
 4805              	.LFB125:
1695:.\Generated_Source\PSoC5/ETH.c **** /* ------------------------------------------------------------------------ */
1696:.\Generated_Source\PSoC5/ETH.c **** void
1697:.\Generated_Source\PSoC5/ETH.c **** ETH_TcpPrint( uint8 socket, const char* str )
1698:.\Generated_Source\PSoC5/ETH.c **** {
 4806              		.loc 1 1698 0
 4807              		.cfi_startproc
 4808              		@ args = 0, pretend = 0, frame = 8
ARM GAS  C:\Users\CHUCK~1.ERH\AppData\Local\Temp\cclfQUCJ.s 			page 116


 4809              		@ frame_needed = 1, uses_anonymous_args = 0
 4810 0000 80B5     		push	{r7, lr}
 4811              	.LCFI204:
 4812              		.cfi_def_cfa_offset 8
 4813              		.cfi_offset 7, -8
 4814              		.cfi_offset 14, -4
 4815 0002 82B0     		sub	sp, sp, #8
 4816              	.LCFI205:
 4817              		.cfi_def_cfa_offset 16
 4818 0004 00AF     		add	r7, sp, #0
 4819              	.LCFI206:
 4820              		.cfi_def_cfa_register 7
 4821 0006 0346     		mov	r3, r0
 4822 0008 3960     		str	r1, [r7, #0]
 4823 000a FB71     		strb	r3, [r7, #7]
1699:.\Generated_Source\PSoC5/ETH.c **** 	ETH_TcpSend(socket, (uint8*)str, strlen(str));
 4824              		.loc 1 1699 0
 4825 000c 3868     		ldr	r0, [r7, #0]
 4826 000e FFF7FEFF 		bl	strlen
 4827 0012 0346     		mov	r3, r0
 4828 0014 9BB2     		uxth	r3, r3
 4829 0016 FA79     		ldrb	r2, [r7, #7]	@ zero_extendqisi2
 4830 0018 1046     		mov	r0, r2
 4831 001a 3968     		ldr	r1, [r7, #0]
 4832 001c 1A46     		mov	r2, r3
 4833 001e FFF7FEFF 		bl	ETH_TcpSend
1700:.\Generated_Source\PSoC5/ETH.c **** }
 4834              		.loc 1 1700 0
 4835 0022 07F10807 		add	r7, r7, #8
 4836 0026 BD46     		mov	sp, r7
 4837 0028 80BD     		pop	{r7, pc}
 4838              		.cfi_endproc
 4839              	.LFE125:
 4840              		.size	ETH_TcpPrint, .-ETH_TcpPrint
 4841 002a 00BF     		.section	.text.ETH_UdpOpen,"ax",%progbits
 4842              		.align	2
 4843              		.global	ETH_UdpOpen
 4844              		.thumb
 4845              		.thumb_func
 4846              		.type	ETH_UdpOpen, %function
 4847              	ETH_UdpOpen:
 4848              	.LFB126:
1701:.\Generated_Source\PSoC5/ETH.c **** #endif
1702:.\Generated_Source\PSoC5/ETH.c **** /* ======================================================================== */
1703:.\Generated_Source\PSoC5/ETH.c **** /* UDP */
1704:.\Generated_Source\PSoC5/ETH.c **** #if (1)
1705:.\Generated_Source\PSoC5/ETH.c **** /* ------------------------------------------------------------------------ */
1706:.\Generated_Source\PSoC5/ETH.c **** uint8
1707:.\Generated_Source\PSoC5/ETH.c **** ETH_UdpOpen(uint16 port)
1708:.\Generated_Source\PSoC5/ETH.c **** {
 4849              		.loc 1 1708 0
 4850              		.cfi_startproc
 4851              		@ args = 0, pretend = 0, frame = 8
 4852              		@ frame_needed = 1, uses_anonymous_args = 0
 4853 0000 80B5     		push	{r7, lr}
 4854              	.LCFI207:
 4855              		.cfi_def_cfa_offset 8
ARM GAS  C:\Users\CHUCK~1.ERH\AppData\Local\Temp\cclfQUCJ.s 			page 117


 4856              		.cfi_offset 7, -8
 4857              		.cfi_offset 14, -4
 4858 0002 82B0     		sub	sp, sp, #8
 4859              	.LCFI208:
 4860              		.cfi_def_cfa_offset 16
 4861 0004 00AF     		add	r7, sp, #0
 4862              	.LCFI209:
 4863              		.cfi_def_cfa_register 7
 4864 0006 0346     		mov	r3, r0
 4865 0008 FB80     		strh	r3, [r7, #6]	@ movhi
1709:.\Generated_Source\PSoC5/ETH.c **** 	return ETH_SocketOpen(ETH_PROTO_UDP, port, 0);
 4866              		.loc 1 1709 0
 4867 000a FB88     		ldrh	r3, [r7, #6]
 4868 000c 4FF00200 		mov	r0, #2
 4869 0010 1946     		mov	r1, r3
 4870 0012 4FF00002 		mov	r2, #0
 4871 0016 FFF7FEFF 		bl	ETH_SocketOpen
 4872 001a 0346     		mov	r3, r0
1710:.\Generated_Source\PSoC5/ETH.c **** }
 4873              		.loc 1 1710 0
 4874 001c 1846     		mov	r0, r3
 4875 001e 07F10807 		add	r7, r7, #8
 4876 0022 BD46     		mov	sp, r7
 4877 0024 80BD     		pop	{r7, pc}
 4878              		.cfi_endproc
 4879              	.LFE126:
 4880              		.size	ETH_UdpOpen, .-ETH_UdpOpen
 4881 0026 00BF     		.section	.text.ETH_UdpSend,"ax",%progbits
 4882              		.align	2
 4883              		.global	ETH_UdpSend
 4884              		.thumb
 4885              		.thumb_func
 4886              		.type	ETH_UdpSend, %function
 4887              	ETH_UdpSend:
 4888              	.LFB127:
1711:.\Generated_Source\PSoC5/ETH.c **** /* ------------------------------------------------------------------------ */	
1712:.\Generated_Source\PSoC5/ETH.c **** uint16
1713:.\Generated_Source\PSoC5/ETH.c **** ETH_UdpSend(uint8 socket, uint32 ip, uint16 port, uint8* buffer, uint16 length)
1714:.\Generated_Source\PSoC5/ETH.c **** {
 4889              		.loc 1 1714 0
 4890              		.cfi_startproc
 4891              		@ args = 4, pretend = 0, frame = 24
 4892              		@ frame_needed = 1, uses_anonymous_args = 0
 4893 0000 80B5     		push	{r7, lr}
 4894              	.LCFI210:
 4895              		.cfi_def_cfa_offset 8
 4896              		.cfi_offset 7, -8
 4897              		.cfi_offset 14, -4
 4898 0002 86B0     		sub	sp, sp, #24
 4899              	.LCFI211:
 4900              		.cfi_def_cfa_offset 32
 4901 0004 00AF     		add	r7, sp, #0
 4902              	.LCFI212:
 4903              		.cfi_def_cfa_register 7
 4904 0006 B960     		str	r1, [r7, #8]
 4905 0008 7B60     		str	r3, [r7, #4]
 4906 000a 0346     		mov	r3, r0
ARM GAS  C:\Users\CHUCK~1.ERH\AppData\Local\Temp\cclfQUCJ.s 			page 118


 4907 000c FB73     		strb	r3, [r7, #15]
 4908 000e 1346     		mov	r3, r2	@ movhi
 4909 0010 BB81     		strh	r3, [r7, #12]	@ movhi
1715:.\Generated_Source\PSoC5/ETH.c **** 	uint16 TxSize;
1716:.\Generated_Source\PSoC5/ETH.c **** 	
1717:.\Generated_Source\PSoC5/ETH.c **** 	/*
1718:.\Generated_Source\PSoC5/ETH.c **** 	 * 2.0 Patch: retun immediately upon the detection of a socket that is not open
1719:.\Generated_Source\PSoC5/ETH.c **** 	 */
1720:.\Generated_Source\PSoC5/ETH.c **** 	if (socket >= ETH_MAX_SOCKET) return 0;
 4910              		.loc 1 1720 0
 4911 0012 FB7B     		ldrb	r3, [r7, #15]	@ zero_extendqisi2
 4912 0014 072B     		cmp	r3, #7
 4913 0016 02D9     		bls	.L226
 4914              		.loc 1 1720 0 is_stmt 0 discriminator 1
 4915 0018 4FF00003 		mov	r3, #0
 4916 001c 30E0     		b	.L227
 4917              	.L226:
1721:.\Generated_Source\PSoC5/ETH.c **** 	/*
1722:.\Generated_Source\PSoC5/ETH.c **** 	 * Transmit a buffer of data to a specified remote system using UDP.
1723:.\Generated_Source\PSoC5/ETH.c **** 	 */
1724:.\Generated_Source\PSoC5/ETH.c **** 	if (ETH_GetSocketStatus(socket) == 0x17) {
 4918              		.loc 1 1724 0 is_stmt 1
 4919 001e FB7B     		ldrb	r3, [r7, #15]	@ zero_extendqisi2
 4920 0020 1846     		mov	r0, r3
 4921 0022 FFF7FEFF 		bl	ETH_GetSocketStatus
 4922 0026 0346     		mov	r3, r0
 4923 0028 172B     		cmp	r3, #23
 4924 002a 28D1     		bne	.L228
1725:.\Generated_Source\PSoC5/ETH.c **** 		/*
1726:.\Generated_Source\PSoC5/ETH.c **** 		 * The socket has been established, so wait for available
1727:.\Generated_Source\PSoC5/ETH.c **** 		 * room in the transmit buffer of the socket, but, trim the
1728:.\Generated_Source\PSoC5/ETH.c **** 		 * transmitted data length to no more than the available
1729:.\Generated_Source\PSoC5/ETH.c **** 		 * buffer size in the device. (2K)
1730:.\Generated_Source\PSoC5/ETH.c **** 		 */
1731:.\Generated_Source\PSoC5/ETH.c **** 		TxSize = (length > 0x0800) ? 0x0800 : length;
 4925              		.loc 1 1731 0
 4926 002c 3B8C     		ldrh	r3, [r7, #32]
 4927 002e B3F5006F 		cmp	r3, #2048
 4928 0032 28BF     		it	cs
 4929 0034 4FF40063 		movcs	r3, #2048
 4930 0038 FB82     		strh	r3, [r7, #22]	@ movhi
1732:.\Generated_Source\PSoC5/ETH.c **** 		if ( (ip != 0) && (ip != 0xFFFFFFFF) ) {
 4931              		.loc 1 1732 0
 4932 003a BB68     		ldr	r3, [r7, #8]
 4933 003c 002B     		cmp	r3, #0
 4934 003e 1BD0     		beq	.L229
 4935              		.loc 1 1732 0 is_stmt 0 discriminator 1
 4936 0040 BB68     		ldr	r3, [r7, #8]
 4937 0042 B3F1FF3F 		cmp	r3, #-1
 4938 0046 17D0     		beq	.L229
1733:.\Generated_Source\PSoC5/ETH.c **** 			/*
1734:.\Generated_Source\PSoC5/ETH.c **** 			 * Store the destination IP and port in the chip
1735:.\Generated_Source\PSoC5/ETH.c **** 			 * socket registers.
1736:.\Generated_Source\PSoC5/ETH.c **** 			 */
1737:.\Generated_Source\PSoC5/ETH.c **** 			ETH_SetSocketDestIP( socket, ip );
 4939              		.loc 1 1737 0 is_stmt 1
 4940 0048 FB7B     		ldrb	r3, [r7, #15]	@ zero_extendqisi2
ARM GAS  C:\Users\CHUCK~1.ERH\AppData\Local\Temp\cclfQUCJ.s 			page 119


 4941 004a 1846     		mov	r0, r3
 4942 004c B968     		ldr	r1, [r7, #8]
 4943 004e FFF7FEFF 		bl	ETH_SetSocketDestIP
1738:.\Generated_Source\PSoC5/ETH.c **** 			ETH_SetSocketDestPort( socket, port );
 4944              		.loc 1 1738 0
 4945 0052 FA7B     		ldrb	r2, [r7, #15]	@ zero_extendqisi2
 4946 0054 BB89     		ldrh	r3, [r7, #12]
 4947 0056 1046     		mov	r0, r2
 4948 0058 1946     		mov	r1, r3
 4949 005a FFF7FEFF 		bl	ETH_SetSocketDestPort
1739:.\Generated_Source\PSoC5/ETH.c **** 			/*
1740:.\Generated_Source\PSoC5/ETH.c **** 			 * process the transmission buffer, and write it in to
1741:.\Generated_Source\PSoC5/ETH.c **** 			 * the chip buffer memory.
1742:.\Generated_Source\PSoC5/ETH.c **** 			 */
1743:.\Generated_Source\PSoC5/ETH.c **** 			ETH_ProcessTxData(socket,0,buffer,TxSize);
 4950              		.loc 1 1743 0
 4951 005e FA7B     		ldrb	r2, [r7, #15]	@ zero_extendqisi2
 4952 0060 FB8A     		ldrh	r3, [r7, #22]
 4953 0062 1046     		mov	r0, r2
 4954 0064 4FF00001 		mov	r1, #0
 4955 0068 7A68     		ldr	r2, [r7, #4]
 4956 006a FFF7FEFF 		bl	ETH_ProcessTxData
1744:.\Generated_Source\PSoC5/ETH.c **** 			/*
1745:.\Generated_Source\PSoC5/ETH.c **** 			 * Issue the send command to transmit the buffer.
1746:.\Generated_Source\PSoC5/ETH.c **** 			 */
1747:.\Generated_Source\PSoC5/ETH.c **** 			ETH_SocketSend( socket ); 
 4957              		.loc 1 1747 0
 4958 006e FB7B     		ldrb	r3, [r7, #15]	@ zero_extendqisi2
 4959 0070 1846     		mov	r0, r3
 4960 0072 FFF7FEFF 		bl	ETH_SocketSend
 4961 0076 02E0     		b	.L228
 4962              	.L229:
1748:.\Generated_Source\PSoC5/ETH.c **** 		}
1749:.\Generated_Source\PSoC5/ETH.c **** 		else {
1750:.\Generated_Source\PSoC5/ETH.c **** 			/* an invalid IP address was issued, so return that no data was sent. */
1751:.\Generated_Source\PSoC5/ETH.c **** 			TxSize = 0;
 4963              		.loc 1 1751 0
 4964 0078 4FF00003 		mov	r3, #0
 4965 007c FB82     		strh	r3, [r7, #22]	@ movhi
 4966              	.L228:
1752:.\Generated_Source\PSoC5/ETH.c **** 		}
1753:.\Generated_Source\PSoC5/ETH.c **** 	}
1754:.\Generated_Source\PSoC5/ETH.c **** 	return TxSize;
 4967              		.loc 1 1754 0
 4968 007e FB8A     		ldrh	r3, [r7, #22]
 4969              	.L227:
1755:.\Generated_Source\PSoC5/ETH.c **** }
 4970              		.loc 1 1755 0
 4971 0080 1846     		mov	r0, r3
 4972 0082 07F11807 		add	r7, r7, #24
 4973 0086 BD46     		mov	sp, r7
 4974 0088 80BD     		pop	{r7, pc}
 4975              		.cfi_endproc
 4976              	.LFE127:
 4977              		.size	ETH_UdpSend, .-ETH_UdpSend
 4978 008a 00BF     		.section	.text.ETH_UdpReceive,"ax",%progbits
 4979              		.align	2
ARM GAS  C:\Users\CHUCK~1.ERH\AppData\Local\Temp\cclfQUCJ.s 			page 120


 4980              		.global	ETH_UdpReceive
 4981              		.thumb
 4982              		.thumb_func
 4983              		.type	ETH_UdpReceive, %function
 4984              	ETH_UdpReceive:
 4985              	.LFB128:
1756:.\Generated_Source\PSoC5/ETH.c **** /* ------------------------------------------------------------------------ */
1757:.\Generated_Source\PSoC5/ETH.c **** uint16
1758:.\Generated_Source\PSoC5/ETH.c **** ETH_UdpReceive(uint8 socket, uint32 *ip, uint16 *port, uint8* buffer, uint16 length)
1759:.\Generated_Source\PSoC5/ETH.c **** {
 4986              		.loc 1 1759 0
 4987              		.cfi_startproc
 4988              		@ args = 4, pretend = 0, frame = 32
 4989              		@ frame_needed = 1, uses_anonymous_args = 0
 4990 0000 80B5     		push	{r7, lr}
 4991              	.LCFI213:
 4992              		.cfi_def_cfa_offset 8
 4993              		.cfi_offset 7, -8
 4994              		.cfi_offset 14, -4
 4995 0002 8AB0     		sub	sp, sp, #40
 4996              	.LCFI214:
 4997              		.cfi_def_cfa_offset 48
 4998 0004 02AF     		add	r7, sp, #8
 4999              	.LCFI215:
 5000              		.cfi_def_cfa 7, 40
 5001 0006 B960     		str	r1, [r7, #8]
 5002 0008 7A60     		str	r2, [r7, #4]
 5003 000a 3B60     		str	r3, [r7, #0]
 5004 000c 0346     		mov	r3, r0
 5005 000e FB73     		strb	r3, [r7, #15]
1760:.\Generated_Source\PSoC5/ETH.c **** 	uint16 RxSize;
1761:.\Generated_Source\PSoC5/ETH.c **** 	uint16 PacketSize;
1762:.\Generated_Source\PSoC5/ETH.c **** 	uint8  PacketHeader[8];
1763:.\Generated_Source\PSoC5/ETH.c **** 	
1764:.\Generated_Source\PSoC5/ETH.c **** 	/*
1765:.\Generated_Source\PSoC5/ETH.c **** 	 * 2.0 Patch: retun immediately upon the detection of a socket that is not open
1766:.\Generated_Source\PSoC5/ETH.c **** 	 */
1767:.\Generated_Source\PSoC5/ETH.c **** 	if (socket >= ETH_MAX_SOCKET) return 0;
 5006              		.loc 1 1767 0
 5007 0010 FB7B     		ldrb	r3, [r7, #15]	@ zero_extendqisi2
 5008 0012 072B     		cmp	r3, #7
 5009 0014 02D9     		bls	.L231
 5010              		.loc 1 1767 0 is_stmt 0 discriminator 1
 5011 0016 4FF00003 		mov	r3, #0
 5012 001a 6CE0     		b	.L237
 5013              	.L231:
1768:.\Generated_Source\PSoC5/ETH.c **** 	/*
1769:.\Generated_Source\PSoC5/ETH.c **** 	 * read the number of waiting bytes in the buffer memory
1770:.\Generated_Source\PSoC5/ETH.c **** 	 * but, clip the length of data read to the requested
1771:.\Generated_Source\PSoC5/ETH.c **** 	 * length of data.
1772:.\Generated_Source\PSoC5/ETH.c **** 	 */
1773:.\Generated_Source\PSoC5/ETH.c **** 	RxSize = ETH_GetRxSize( socket );
 5014              		.loc 1 1773 0 is_stmt 1
 5015 001c FB7B     		ldrb	r3, [r7, #15]	@ zero_extendqisi2
 5016 001e 1846     		mov	r0, r3
 5017 0020 FFF7FEFF 		bl	ETH_GetRxSize
 5018 0024 0346     		mov	r3, r0
ARM GAS  C:\Users\CHUCK~1.ERH\AppData\Local\Temp\cclfQUCJ.s 			page 121


 5019 0026 FB83     		strh	r3, [r7, #30]	@ movhi
1774:.\Generated_Source\PSoC5/ETH.c **** 	RxSize = (RxSize > length+8) ? length : RxSize;
 5020              		.loc 1 1774 0
 5021 0028 FA8B     		ldrh	r2, [r7, #30]
 5022 002a 3B8D     		ldrh	r3, [r7, #40]
 5023 002c 03F10803 		add	r3, r3, #8
 5024 0030 9A42     		cmp	r2, r3
 5025 0032 01DD     		ble	.L233
 5026              		.loc 1 1774 0 is_stmt 0 discriminator 1
 5027 0034 3B8D     		ldrh	r3, [r7, #40]
 5028 0036 00E0     		b	.L234
 5029              	.L233:
 5030              		.loc 1 1774 0 discriminator 2
 5031 0038 FB8B     		ldrh	r3, [r7, #30]
 5032              	.L234:
 5033              		.loc 1 1774 0 discriminator 3
 5034 003a FB83     		strh	r3, [r7, #30]	@ movhi
1775:.\Generated_Source\PSoC5/ETH.c **** 	/* If there was waiting data, read it from the buffer */
1776:.\Generated_Source\PSoC5/ETH.c **** 	if (RxSize > 0) {
 5035              		.loc 1 1776 0 is_stmt 1 discriminator 3
 5036 003c FB8B     		ldrh	r3, [r7, #30]
 5037 003e 002B     		cmp	r3, #0
 5038 0040 58D0     		beq	.L235
1777:.\Generated_Source\PSoC5/ETH.c **** 		/*
1778:.\Generated_Source\PSoC5/ETH.c **** 		 * the UDP packet is stored in the buffer memory as an 8-byte
1779:.\Generated_Source\PSoC5/ETH.c **** 		 * packet header followed by the packet data.
1780:.\Generated_Source\PSoC5/ETH.c **** 		*/
1781:.\Generated_Source\PSoC5/ETH.c **** 		ETH_ProcessRxData( socket, 0, &PacketHeader[0], 8, 0);
 5039              		.loc 1 1781 0
 5040 0042 FA7B     		ldrb	r2, [r7, #15]	@ zero_extendqisi2
 5041 0044 07F11403 		add	r3, r7, #20
 5042 0048 4FF00001 		mov	r1, #0
 5043 004c 0091     		str	r1, [sp, #0]
 5044 004e 1046     		mov	r0, r2
 5045 0050 4FF00001 		mov	r1, #0
 5046 0054 1A46     		mov	r2, r3
 5047 0056 4FF00803 		mov	r3, #8
 5048 005a FFF7FEFF 		bl	ETH_ProcessRxData
1782:.\Generated_Source\PSoC5/ETH.c **** 		/*
1783:.\Generated_Source\PSoC5/ETH.c **** 		 * The packet header contains the 4-byte IP address followed by the
1784:.\Generated_Source\PSoC5/ETH.c **** 		 * 2-byte port number and the 2-byte packet data length
1785:.\Generated_Source\PSoC5/ETH.c **** 		 */
1786:.\Generated_Source\PSoC5/ETH.c **** 		*ip = ETH_IPADDRESS(PacketHeader[0], PacketHeader[1], PacketHeader[2], PacketHeader[3]);
 5049              		.loc 1 1786 0
 5050 005e 3B7D     		ldrb	r3, [r7, #20]	@ zero_extendqisi2
 5051 0060 1A46     		mov	r2, r3
 5052 0062 7B7D     		ldrb	r3, [r7, #21]	@ zero_extendqisi2
 5053 0064 4FEA0323 		lsl	r3, r3, #8
 5054 0068 4FEA0343 		lsl	r3, r3, #16
 5055 006c 4FEA1343 		lsr	r3, r3, #16
 5056 0070 D218     		adds	r2, r2, r3
 5057 0072 BB7D     		ldrb	r3, [r7, #22]	@ zero_extendqisi2
 5058 0074 4FEA0343 		lsl	r3, r3, #16
 5059 0078 03F47F03 		and	r3, r3, #16711680
 5060 007c D218     		adds	r2, r2, r3
 5061 007e FB7D     		ldrb	r3, [r7, #23]	@ zero_extendqisi2
 5062 0080 4FEA0363 		lsl	r3, r3, #24
ARM GAS  C:\Users\CHUCK~1.ERH\AppData\Local\Temp\cclfQUCJ.s 			page 122


 5063 0084 D218     		adds	r2, r2, r3
 5064 0086 BB68     		ldr	r3, [r7, #8]
 5065 0088 1A60     		str	r2, [r3, #0]
1787:.\Generated_Source\PSoC5/ETH.c **** 		*port = (uint16)((PacketHeader[4]<<8)&0xFF00) | (PacketHeader[5]&0x00FF);
 5066              		.loc 1 1787 0
 5067 008a 3B7E     		ldrb	r3, [r7, #24]	@ zero_extendqisi2
 5068 008c 4FEA0323 		lsl	r3, r3, #8
 5069 0090 9BB2     		uxth	r3, r3
 5070 0092 23F0FF03 		bic	r3, r3, #255
 5071 0096 9AB2     		uxth	r2, r3
 5072 0098 7B7E     		ldrb	r3, [r7, #25]	@ zero_extendqisi2
 5073 009a 1343     		orrs	r3, r3, r2
 5074 009c 9BB2     		uxth	r3, r3
 5075 009e 9AB2     		uxth	r2, r3
 5076 00a0 7B68     		ldr	r3, [r7, #4]
 5077 00a2 1A80     		strh	r2, [r3, #0]	@ movhi
1788:.\Generated_Source\PSoC5/ETH.c **** 		PacketSize = (uint16)((PacketHeader[6]<<8)&0xFF00) | (PacketHeader[7]&0x00FF);
 5078              		.loc 1 1788 0
 5079 00a4 BB7E     		ldrb	r3, [r7, #26]	@ zero_extendqisi2
 5080 00a6 4FEA0323 		lsl	r3, r3, #8
 5081 00aa 9BB2     		uxth	r3, r3
 5082 00ac 23F0FF03 		bic	r3, r3, #255
 5083 00b0 9AB2     		uxth	r2, r3
 5084 00b2 FB7E     		ldrb	r3, [r7, #27]	@ zero_extendqisi2
 5085 00b4 1343     		orrs	r3, r3, r2
 5086 00b6 9BB2     		uxth	r3, r3
 5087 00b8 BB83     		strh	r3, [r7, #28]	@ movhi
1789:.\Generated_Source\PSoC5/ETH.c **** 		/*
1790:.\Generated_Source\PSoC5/ETH.c **** 		 * Check to make sure that the packet data has been received completely
1791:.\Generated_Source\PSoC5/ETH.c **** 		 */
1792:.\Generated_Source\PSoC5/ETH.c **** 		if (RxSize >= (PacketSize+8) ) {
 5088              		.loc 1 1792 0
 5089 00ba FA8B     		ldrh	r2, [r7, #30]
 5090 00bc BB8B     		ldrh	r3, [r7, #28]
 5091 00be 03F10803 		add	r3, r3, #8
 5092 00c2 9A42     		cmp	r2, r3
 5093 00c4 13DB     		blt	.L236
1793:.\Generated_Source\PSoC5/ETH.c **** 		
1794:.\Generated_Source\PSoC5/ETH.c **** 			ETH_ProcessRxData( socket, 8, buffer, PacketSize, 0);
 5094              		.loc 1 1794 0
 5095 00c6 FA7B     		ldrb	r2, [r7, #15]	@ zero_extendqisi2
 5096 00c8 BB8B     		ldrh	r3, [r7, #28]
 5097 00ca 4FF00001 		mov	r1, #0
 5098 00ce 0091     		str	r1, [sp, #0]
 5099 00d0 1046     		mov	r0, r2
 5100 00d2 4FF00801 		mov	r1, #8
 5101 00d6 3A68     		ldr	r2, [r7, #0]
 5102 00d8 FFF7FEFF 		bl	ETH_ProcessRxData
1795:.\Generated_Source\PSoC5/ETH.c **** 			/* 
1796:.\Generated_Source\PSoC5/ETH.c **** 			 * after reading the buffer data, send the receive command
1797:.\Generated_Source\PSoC5/ETH.c **** 			 * to the socket so that the W5100 completes the read
1798:.\Generated_Source\PSoC5/ETH.c **** 			 */
1799:.\Generated_Source\PSoC5/ETH.c **** 			ETH_ExecuteSocketCommand(socket, 0x40);
 5103              		.loc 1 1799 0
 5104 00dc FB7B     		ldrb	r3, [r7, #15]	@ zero_extendqisi2
 5105 00de 1846     		mov	r0, r3
 5106 00e0 4FF04001 		mov	r1, #64
ARM GAS  C:\Users\CHUCK~1.ERH\AppData\Local\Temp\cclfQUCJ.s 			page 123


 5107 00e4 FFF7FEFF 		bl	ETH_ExecuteSocketCommand
1800:.\Generated_Source\PSoC5/ETH.c **** 			RxSize = PacketSize;
 5108              		.loc 1 1800 0
 5109 00e8 BB8B     		ldrh	r3, [r7, #28]	@ movhi
 5110 00ea FB83     		strh	r3, [r7, #30]	@ movhi
 5111 00ec 02E0     		b	.L235
 5112              	.L236:
1801:.\Generated_Source\PSoC5/ETH.c **** 		}
1802:.\Generated_Source\PSoC5/ETH.c **** 		else {
1803:.\Generated_Source\PSoC5/ETH.c **** 			RxSize = 8;
 5113              		.loc 1 1803 0
 5114 00ee 4FF00803 		mov	r3, #8
 5115 00f2 FB83     		strh	r3, [r7, #30]	@ movhi
 5116              	.L235:
1804:.\Generated_Source\PSoC5/ETH.c **** 		}
1805:.\Generated_Source\PSoC5/ETH.c **** 	}
1806:.\Generated_Source\PSoC5/ETH.c **** 	
1807:.\Generated_Source\PSoC5/ETH.c **** 	/* return the number of read bytes from the buffer memory */
1808:.\Generated_Source\PSoC5/ETH.c **** 	return RxSize;
 5117              		.loc 1 1808 0
 5118 00f4 FB8B     		ldrh	r3, [r7, #30]
 5119              	.L237:
1809:.\Generated_Source\PSoC5/ETH.c **** }
 5120              		.loc 1 1809 0
 5121 00f6 1846     		mov	r0, r3
 5122 00f8 07F12007 		add	r7, r7, #32
 5123 00fc BD46     		mov	sp, r7
 5124 00fe 80BD     		pop	{r7, pc}
 5125              		.cfi_endproc
 5126              	.LFE128:
 5127              		.size	ETH_UdpReceive, .-ETH_UdpReceive
 5128              		.text
 5129              	.Letext0:
 5130              		.file 2 "c:\\program files (x86)\\cypress\\psoc creator\\3.0\\psoc creator\\import\\gnu_cs\\arm\\4
 5131              		.file 3 "./Generated_Source/PSoC5/cytypes.h"
 5132              		.file 4 "./Generated_Source/PSoC5/core_cm3.h"
 5133              		.section	.debug_info,"",%progbits
 5134              	.Ldebug_info0:
 5135 0000 93150000 		.4byte	0x1593
 5136 0004 0200     		.2byte	0x2
 5137 0006 00000000 		.4byte	.Ldebug_abbrev0
 5138 000a 04       		.byte	0x4
 5139 000b 01       		.uleb128 0x1
 5140 000c AA070000 		.4byte	.LASF147
 5141 0010 01       		.byte	0x1
 5142 0011 2F020000 		.4byte	.LASF148
 5143 0015 C4020000 		.4byte	.LASF149
 5144 0019 00000000 		.4byte	.Ldebug_ranges0+0
 5145 001d 00000000 		.4byte	0
 5146 0021 00000000 		.4byte	0
 5147 0025 00000000 		.4byte	.Ldebug_line0
 5148 0029 02       		.uleb128 0x2
 5149 002a 01       		.byte	0x1
 5150 002b 06       		.byte	0x6
 5151 002c 84070000 		.4byte	.LASF0
 5152 0030 02       		.uleb128 0x2
 5153 0031 01       		.byte	0x1
ARM GAS  C:\Users\CHUCK~1.ERH\AppData\Local\Temp\cclfQUCJ.s 			page 124


 5154 0032 08       		.byte	0x8
 5155 0033 E5060000 		.4byte	.LASF1
 5156 0037 02       		.uleb128 0x2
 5157 0038 02       		.byte	0x2
 5158 0039 05       		.byte	0x5
 5159 003a 56050000 		.4byte	.LASF2
 5160 003e 02       		.uleb128 0x2
 5161 003f 02       		.byte	0x2
 5162 0040 07       		.byte	0x7
 5163 0041 90070000 		.4byte	.LASF3
 5164 0045 03       		.uleb128 0x3
 5165 0046 8F060000 		.4byte	.LASF9
 5166 004a 02       		.byte	0x2
 5167 004b 4F       		.byte	0x4f
 5168 004c 50000000 		.4byte	0x50
 5169 0050 02       		.uleb128 0x2
 5170 0051 04       		.byte	0x4
 5171 0052 05       		.byte	0x5
 5172 0053 77050000 		.4byte	.LASF4
 5173 0057 02       		.uleb128 0x2
 5174 0058 04       		.byte	0x4
 5175 0059 07       		.byte	0x7
 5176 005a 75060000 		.4byte	.LASF5
 5177 005e 02       		.uleb128 0x2
 5178 005f 08       		.byte	0x8
 5179 0060 05       		.byte	0x5
 5180 0061 48040000 		.4byte	.LASF6
 5181 0065 02       		.uleb128 0x2
 5182 0066 08       		.byte	0x8
 5183 0067 07       		.byte	0x7
 5184 0068 E3010000 		.4byte	.LASF7
 5185 006c 04       		.uleb128 0x4
 5186 006d 04       		.byte	0x4
 5187 006e 05       		.byte	0x5
 5188 006f 696E7400 		.ascii	"int\000"
 5189 0073 02       		.uleb128 0x2
 5190 0074 04       		.byte	0x4
 5191 0075 07       		.byte	0x7
 5192 0076 7B000000 		.4byte	.LASF8
 5193 007a 03       		.uleb128 0x3
 5194 007b 0D080000 		.4byte	.LASF10
 5195 007f 03       		.byte	0x3
 5196 0080 5B       		.byte	0x5b
 5197 0081 30000000 		.4byte	0x30
 5198 0085 03       		.uleb128 0x3
 5199 0086 C9030000 		.4byte	.LASF11
 5200 008a 03       		.byte	0x3
 5201 008b 5C       		.byte	0x5c
 5202 008c 3E000000 		.4byte	0x3e
 5203 0090 03       		.uleb128 0x3
 5204 0091 B6040000 		.4byte	.LASF12
 5205 0095 03       		.byte	0x3
 5206 0096 5D       		.byte	0x5d
 5207 0097 57000000 		.4byte	0x57
 5208 009b 02       		.uleb128 0x2
 5209 009c 04       		.byte	0x4
 5210 009d 04       		.byte	0x4
ARM GAS  C:\Users\CHUCK~1.ERH\AppData\Local\Temp\cclfQUCJ.s 			page 125


 5211 009e 98010000 		.4byte	.LASF13
 5212 00a2 02       		.uleb128 0x2
 5213 00a3 08       		.byte	0x8
 5214 00a4 04       		.byte	0x4
 5215 00a5 13080000 		.4byte	.LASF14
 5216 00a9 02       		.uleb128 0x2
 5217 00aa 01       		.byte	0x1
 5218 00ab 08       		.byte	0x8
 5219 00ac 99030000 		.4byte	.LASF15
 5220 00b0 03       		.uleb128 0x3
 5221 00b1 DC060000 		.4byte	.LASF16
 5222 00b5 03       		.byte	0x3
 5223 00b6 E8       		.byte	0xe8
 5224 00b7 57000000 		.4byte	0x57
 5225 00bb 02       		.uleb128 0x2
 5226 00bc 04       		.byte	0x4
 5227 00bd 07       		.byte	0x7
 5228 00be 5A060000 		.4byte	.LASF17
 5229 00c2 05       		.uleb128 0x5
 5230 00c3 04       		.byte	0x4
 5231 00c4 A9000000 		.4byte	0xa9
 5232 00c8 05       		.uleb128 0x5
 5233 00c9 04       		.byte	0x4
 5234 00ca CE000000 		.4byte	0xce
 5235 00ce 06       		.uleb128 0x6
 5236 00cf A9000000 		.4byte	0xa9
 5237 00d3 07       		.uleb128 0x7
 5238 00d4 7A000000 		.4byte	0x7a
 5239 00d8 E3000000 		.4byte	0xe3
 5240 00dc 08       		.uleb128 0x8
 5241 00dd BB000000 		.4byte	0xbb
 5242 00e1 03       		.byte	0x3
 5243 00e2 00       		.byte	0
 5244 00e3 09       		.uleb128 0x9
 5245 00e4 08       		.byte	0x8
 5246 00e5 01       		.byte	0x1
 5247 00e6 34       		.byte	0x34
 5248 00e7 40010000 		.4byte	0x140
 5249 00eb 0A       		.uleb128 0xa
 5250 00ec A8040000 		.4byte	.LASF18
 5251 00f0 01       		.byte	0x1
 5252 00f1 36       		.byte	0x36
 5253 00f2 7A000000 		.4byte	0x7a
 5254 00f6 02       		.byte	0x2
 5255 00f7 23       		.byte	0x23
 5256 00f8 00       		.uleb128 0
 5257 00f9 0A       		.uleb128 0xa
 5258 00fa BE060000 		.4byte	.LASF19
 5259 00fe 01       		.byte	0x1
 5260 00ff 37       		.byte	0x37
 5261 0100 7A000000 		.4byte	0x7a
 5262 0104 02       		.byte	0x2
 5263 0105 23       		.byte	0x23
 5264 0106 01       		.uleb128 0x1
 5265 0107 0A       		.uleb128 0xa
 5266 0108 37030000 		.4byte	.LASF20
 5267 010c 01       		.byte	0x1
ARM GAS  C:\Users\CHUCK~1.ERH\AppData\Local\Temp\cclfQUCJ.s 			page 126


 5268 010d 38       		.byte	0x38
 5269 010e 85000000 		.4byte	0x85
 5270 0112 02       		.byte	0x2
 5271 0113 23       		.byte	0x23
 5272 0114 02       		.uleb128 0x2
 5273 0115 0A       		.uleb128 0xa
 5274 0116 39010000 		.4byte	.LASF21
 5275 011a 01       		.byte	0x1
 5276 011b 39       		.byte	0x39
 5277 011c 7A000000 		.4byte	0x7a
 5278 0120 02       		.byte	0x2
 5279 0121 23       		.byte	0x23
 5280 0122 04       		.uleb128 0x4
 5281 0123 0A       		.uleb128 0xa
 5282 0124 56000000 		.4byte	.LASF22
 5283 0128 01       		.byte	0x1
 5284 0129 3A       		.byte	0x3a
 5285 012a 7A000000 		.4byte	0x7a
 5286 012e 02       		.byte	0x2
 5287 012f 23       		.byte	0x23
 5288 0130 05       		.uleb128 0x5
 5289 0131 0A       		.uleb128 0xa
 5290 0132 6F030000 		.4byte	.LASF23
 5291 0136 01       		.byte	0x1
 5292 0137 3B       		.byte	0x3b
 5293 0138 7A000000 		.4byte	0x7a
 5294 013c 02       		.byte	0x2
 5295 013d 23       		.byte	0x23
 5296 013e 06       		.uleb128 0x6
 5297 013f 00       		.byte	0
 5298 0140 03       		.uleb128 0x3
 5299 0141 E7040000 		.4byte	.LASF24
 5300 0145 01       		.byte	0x1
 5301 0146 3C       		.byte	0x3c
 5302 0147 E3000000 		.4byte	0xe3
 5303 014b 0B       		.uleb128 0xb
 5304 014c 01       		.byte	0x1
 5305 014d 9C060000 		.4byte	.LASF25
 5306 0151 01       		.byte	0x1
 5307 0152 9E       		.byte	0x9e
 5308 0153 01       		.byte	0x1
 5309 0154 00000000 		.4byte	.LFB56
 5310 0158 0E000000 		.4byte	.LFE56
 5311 015c 00000000 		.4byte	.LLST0
 5312 0160 01       		.byte	0x1
 5313 0161 0B       		.uleb128 0xb
 5314 0162 01       		.byte	0x1
 5315 0163 91040000 		.4byte	.LASF26
 5316 0167 01       		.byte	0x1
 5317 0168 BB       		.byte	0xbb
 5318 0169 01       		.byte	0x1
 5319 016a 00000000 		.4byte	.LFB57
 5320 016e 26000000 		.4byte	.LFE57
 5321 0172 2C000000 		.4byte	.LLST1
 5322 0176 01       		.byte	0x1
 5323 0177 0C       		.uleb128 0xc
 5324 0178 01       		.byte	0x1
ARM GAS  C:\Users\CHUCK~1.ERH\AppData\Local\Temp\cclfQUCJ.s 			page 127


 5325 0179 50010000 		.4byte	.LASF32
 5326 017d 01       		.byte	0x1
 5327 017e D7       		.byte	0xd7
 5328 017f 01       		.byte	0x1
 5329 0180 00000000 		.4byte	.LFB58
 5330 0184 00010000 		.4byte	.LFE58
 5331 0188 58000000 		.4byte	.LLST2
 5332 018c 01       		.byte	0x1
 5333 018d 02020000 		.4byte	0x202
 5334 0191 0D       		.uleb128 0xd
 5335 0192 1E070000 		.4byte	.LASF27
 5336 0196 01       		.byte	0x1
 5337 0197 D7       		.byte	0xd7
 5338 0198 90000000 		.4byte	0x90
 5339 019c 02       		.byte	0x2
 5340 019d 91       		.byte	0x91
 5341 019e 6C       		.sleb128 -20
 5342 019f 0E       		.uleb128 0xe
 5343 01a0 64617400 		.ascii	"dat\000"
 5344 01a4 01       		.byte	0x1
 5345 01a5 D7       		.byte	0xd7
 5346 01a6 02020000 		.4byte	0x202
 5347 01aa 02       		.byte	0x2
 5348 01ab 91       		.byte	0x91
 5349 01ac 68       		.sleb128 -24
 5350 01ad 0D       		.uleb128 0xd
 5351 01ae A6050000 		.4byte	.LASF28
 5352 01b2 01       		.byte	0x1
 5353 01b3 D7       		.byte	0xd7
 5354 01b4 85000000 		.4byte	0x85
 5355 01b8 02       		.byte	0x2
 5356 01b9 91       		.byte	0x91
 5357 01ba 66       		.sleb128 -26
 5358 01bb 0F       		.uleb128 0xf
 5359 01bc 8B040000 		.4byte	.LASF29
 5360 01c0 01       		.byte	0x1
 5361 01c1 D9       		.byte	0xd9
 5362 01c2 85000000 		.4byte	0x85
 5363 01c6 02       		.byte	0x2
 5364 01c7 91       		.byte	0x91
 5365 01c8 76       		.sleb128 -10
 5366 01c9 0F       		.uleb128 0xf
 5367 01ca C1010000 		.4byte	.LASF30
 5368 01ce 01       		.byte	0x1
 5369 01cf DA       		.byte	0xda
 5370 01d0 85000000 		.4byte	0x85
 5371 01d4 02       		.byte	0x2
 5372 01d5 91       		.byte	0x91
 5373 01d6 74       		.sleb128 -12
 5374 01d7 10       		.uleb128 0x10
 5375 01d8 61647200 		.ascii	"adr\000"
 5376 01dc 01       		.byte	0x1
 5377 01dd DB       		.byte	0xdb
 5378 01de 85000000 		.4byte	0x85
 5379 01e2 02       		.byte	0x2
 5380 01e3 91       		.byte	0x91
 5381 01e4 72       		.sleb128 -14
ARM GAS  C:\Users\CHUCK~1.ERH\AppData\Local\Temp\cclfQUCJ.s 			page 128


 5382 01e5 0F       		.uleb128 0xf
 5383 01e6 7F070000 		.4byte	.LASF31
 5384 01ea 01       		.byte	0x1
 5385 01eb DC       		.byte	0xdc
 5386 01ec 7A000000 		.4byte	0x7a
 5387 01f0 02       		.byte	0x2
 5388 01f1 91       		.byte	0x91
 5389 01f2 70       		.sleb128 -16
 5390 01f3 10       		.uleb128 0x10
 5391 01f4 62736200 		.ascii	"bsb\000"
 5392 01f8 01       		.byte	0x1
 5393 01f9 DE       		.byte	0xde
 5394 01fa 7A000000 		.4byte	0x7a
 5395 01fe 02       		.byte	0x2
 5396 01ff 91       		.byte	0x91
 5397 0200 71       		.sleb128 -15
 5398 0201 00       		.byte	0
 5399 0202 05       		.uleb128 0x5
 5400 0203 04       		.byte	0x4
 5401 0204 7A000000 		.4byte	0x7a
 5402 0208 11       		.uleb128 0x11
 5403 0209 01       		.byte	0x1
 5404 020a 2C080000 		.4byte	.LASF33
 5405 020e 01       		.byte	0x1
 5406 020f 4101     		.2byte	0x141
 5407 0211 01       		.byte	0x1
 5408 0212 00000000 		.4byte	.LFB59
 5409 0216 1A010000 		.4byte	.LFE59
 5410 021a 90000000 		.4byte	.LLST3
 5411 021e 01       		.byte	0x1
 5412 021f C9020000 		.4byte	0x2c9
 5413 0223 12       		.uleb128 0x12
 5414 0224 1E070000 		.4byte	.LASF27
 5415 0228 01       		.byte	0x1
 5416 0229 4101     		.2byte	0x141
 5417 022b 90000000 		.4byte	0x90
 5418 022f 02       		.byte	0x2
 5419 0230 91       		.byte	0x91
 5420 0231 64       		.sleb128 -28
 5421 0232 13       		.uleb128 0x13
 5422 0233 64617400 		.ascii	"dat\000"
 5423 0237 01       		.byte	0x1
 5424 0238 4101     		.2byte	0x141
 5425 023a 02020000 		.4byte	0x202
 5426 023e 02       		.byte	0x2
 5427 023f 91       		.byte	0x91
 5428 0240 60       		.sleb128 -32
 5429 0241 12       		.uleb128 0x12
 5430 0242 A6050000 		.4byte	.LASF28
 5431 0246 01       		.byte	0x1
 5432 0247 4101     		.2byte	0x141
 5433 0249 85000000 		.4byte	0x85
 5434 024d 02       		.byte	0x2
 5435 024e 91       		.byte	0x91
 5436 024f 5E       		.sleb128 -34
 5437 0250 14       		.uleb128 0x14
 5438 0251 C6000000 		.4byte	.LASF34
ARM GAS  C:\Users\CHUCK~1.ERH\AppData\Local\Temp\cclfQUCJ.s 			page 129


 5439 0255 01       		.byte	0x1
 5440 0256 4301     		.2byte	0x143
 5441 0258 85000000 		.4byte	0x85
 5442 025c 02       		.byte	0x2
 5443 025d 91       		.byte	0x91
 5444 025e 76       		.sleb128 -10
 5445 025f 14       		.uleb128 0x14
 5446 0260 87060000 		.4byte	.LASF35
 5447 0264 01       		.byte	0x1
 5448 0265 4401     		.2byte	0x144
 5449 0267 85000000 		.4byte	0x85
 5450 026b 02       		.byte	0x2
 5451 026c 91       		.byte	0x91
 5452 026d 74       		.sleb128 -12
 5453 026e 14       		.uleb128 0x14
 5454 026f B0010000 		.4byte	.LASF36
 5455 0273 01       		.byte	0x1
 5456 0274 4501     		.2byte	0x145
 5457 0276 85000000 		.4byte	0x85
 5458 027a 02       		.byte	0x2
 5459 027b 91       		.byte	0x91
 5460 027c 6A       		.sleb128 -22
 5461 027d 14       		.uleb128 0x14
 5462 027e 2F030000 		.4byte	.LASF37
 5463 0282 01       		.byte	0x1
 5464 0283 4601     		.2byte	0x146
 5465 0285 85000000 		.4byte	0x85
 5466 0289 02       		.byte	0x2
 5467 028a 91       		.byte	0x91
 5468 028b 72       		.sleb128 -14
 5469 028c 14       		.uleb128 0x14
 5470 028d F3070000 		.4byte	.LASF38
 5471 0291 01       		.byte	0x1
 5472 0292 4701     		.2byte	0x147
 5473 0294 7A000000 		.4byte	0x7a
 5474 0298 02       		.byte	0x2
 5475 0299 91       		.byte	0x91
 5476 029a 71       		.sleb128 -15
 5477 029b 14       		.uleb128 0x14
 5478 029c BE000000 		.4byte	.LASF39
 5479 02a0 01       		.byte	0x1
 5480 02a1 4801     		.2byte	0x148
 5481 02a3 85000000 		.4byte	0x85
 5482 02a7 02       		.byte	0x2
 5483 02a8 91       		.byte	0x91
 5484 02a9 6E       		.sleb128 -18
 5485 02aa 15       		.uleb128 0x15
 5486 02ab 72786200 		.ascii	"rxb\000"
 5487 02af 01       		.byte	0x1
 5488 02b0 4901     		.2byte	0x149
 5489 02b2 7A000000 		.4byte	0x7a
 5490 02b6 02       		.byte	0x2
 5491 02b7 91       		.byte	0x91
 5492 02b8 69       		.sleb128 -23
 5493 02b9 15       		.uleb128 0x15
 5494 02ba 62736200 		.ascii	"bsb\000"
 5495 02be 01       		.byte	0x1
ARM GAS  C:\Users\CHUCK~1.ERH\AppData\Local\Temp\cclfQUCJ.s 			page 130


 5496 02bf 4B01     		.2byte	0x14b
 5497 02c1 7A000000 		.4byte	0x7a
 5498 02c5 02       		.byte	0x2
 5499 02c6 91       		.byte	0x91
 5500 02c7 6D       		.sleb128 -19
 5501 02c8 00       		.byte	0
 5502 02c9 11       		.uleb128 0x11
 5503 02ca 01       		.byte	0x1
 5504 02cb 1F020000 		.4byte	.LASF40
 5505 02cf 01       		.byte	0x1
 5506 02d0 ED01     		.2byte	0x1ed
 5507 02d2 01       		.byte	0x1
 5508 02d3 00000000 		.4byte	.LFB60
 5509 02d7 3E000000 		.4byte	.LFE60
 5510 02db C8000000 		.4byte	.LLST4
 5511 02df 01       		.byte	0x1
 5512 02e0 12030000 		.4byte	0x312
 5513 02e4 12       		.uleb128 0x12
 5514 02e5 1E070000 		.4byte	.LASF27
 5515 02e9 01       		.byte	0x1
 5516 02ea ED01     		.2byte	0x1ed
 5517 02ec 90000000 		.4byte	0x90
 5518 02f0 02       		.byte	0x2
 5519 02f1 91       		.byte	0x91
 5520 02f2 6C       		.sleb128 -20
 5521 02f3 13       		.uleb128 0x13
 5522 02f4 76616C00 		.ascii	"val\000"
 5523 02f8 01       		.byte	0x1
 5524 02f9 ED01     		.2byte	0x1ed
 5525 02fb 85000000 		.4byte	0x85
 5526 02ff 02       		.byte	0x2
 5527 0300 91       		.byte	0x91
 5528 0301 6A       		.sleb128 -22
 5529 0302 14       		.uleb128 0x14
 5530 0303 65010000 		.4byte	.LASF41
 5531 0307 01       		.byte	0x1
 5532 0308 EF01     		.2byte	0x1ef
 5533 030a 85000000 		.4byte	0x85
 5534 030e 02       		.byte	0x2
 5535 030f 91       		.byte	0x91
 5536 0310 76       		.sleb128 -10
 5537 0311 00       		.byte	0
 5538 0312 16       		.uleb128 0x16
 5539 0313 01       		.byte	0x1
 5540 0314 AF000000 		.4byte	.LASF45
 5541 0318 01       		.byte	0x1
 5542 0319 FE01     		.2byte	0x1fe
 5543 031b 01       		.byte	0x1
 5544 031c 85000000 		.4byte	0x85
 5545 0320 00000000 		.4byte	.LFB61
 5546 0324 3E000000 		.4byte	.LFE61
 5547 0328 00010000 		.4byte	.LLST5
 5548 032c 01       		.byte	0x1
 5549 032d 50030000 		.4byte	0x350
 5550 0331 12       		.uleb128 0x12
 5551 0332 1E070000 		.4byte	.LASF27
 5552 0336 01       		.byte	0x1
ARM GAS  C:\Users\CHUCK~1.ERH\AppData\Local\Temp\cclfQUCJ.s 			page 131


 5553 0337 FE01     		.2byte	0x1fe
 5554 0339 90000000 		.4byte	0x90
 5555 033d 02       		.byte	0x2
 5556 033e 91       		.byte	0x91
 5557 033f 6C       		.sleb128 -20
 5558 0340 15       		.uleb128 0x15
 5559 0341 76616C00 		.ascii	"val\000"
 5560 0345 01       		.byte	0x1
 5561 0346 0002     		.2byte	0x200
 5562 0348 85000000 		.4byte	0x85
 5563 034c 02       		.byte	0x2
 5564 034d 91       		.byte	0x91
 5565 034e 76       		.sleb128 -10
 5566 034f 00       		.byte	0
 5567 0350 11       		.uleb128 0x11
 5568 0351 01       		.byte	0x1
 5569 0352 29000000 		.4byte	.LASF42
 5570 0356 01       		.byte	0x1
 5571 0357 1502     		.2byte	0x215
 5572 0359 01       		.byte	0x1
 5573 035a 00000000 		.4byte	.LFB62
 5574 035e 1E000000 		.4byte	.LFE62
 5575 0362 38010000 		.4byte	.LLST6
 5576 0366 01       		.byte	0x1
 5577 0367 7B030000 		.4byte	0x37b
 5578 036b 13       		.uleb128 0x13
 5579 036c 6D616300 		.ascii	"mac\000"
 5580 0370 01       		.byte	0x1
 5581 0371 1502     		.2byte	0x215
 5582 0373 02020000 		.4byte	0x202
 5583 0377 02       		.byte	0x2
 5584 0378 91       		.byte	0x91
 5585 0379 74       		.sleb128 -12
 5586 037a 00       		.byte	0
 5587 037b 11       		.uleb128 0x11
 5588 037c 01       		.byte	0x1
 5589 037d 40070000 		.4byte	.LASF43
 5590 0381 01       		.byte	0x1
 5591 0382 1E02     		.2byte	0x21e
 5592 0384 01       		.byte	0x1
 5593 0385 00000000 		.4byte	.LFB63
 5594 0389 1E000000 		.4byte	.LFE63
 5595 038d 70010000 		.4byte	.LLST7
 5596 0391 01       		.byte	0x1
 5597 0392 A6030000 		.4byte	0x3a6
 5598 0396 13       		.uleb128 0x13
 5599 0397 6D616300 		.ascii	"mac\000"
 5600 039b 01       		.byte	0x1
 5601 039c 1E02     		.2byte	0x21e
 5602 039e 02020000 		.4byte	0x202
 5603 03a2 02       		.byte	0x2
 5604 03a3 91       		.byte	0x91
 5605 03a4 74       		.sleb128 -12
 5606 03a5 00       		.byte	0
 5607 03a6 11       		.uleb128 0x11
 5608 03a7 01       		.byte	0x1
 5609 03a8 BD040000 		.4byte	.LASF44
ARM GAS  C:\Users\CHUCK~1.ERH\AppData\Local\Temp\cclfQUCJ.s 			page 132


 5610 03ac 01       		.byte	0x1
 5611 03ad 2702     		.2byte	0x227
 5612 03af 01       		.byte	0x1
 5613 03b0 00000000 		.4byte	.LFB64
 5614 03b4 22000000 		.4byte	.LFE64
 5615 03b8 A8010000 		.4byte	.LLST8
 5616 03bc 01       		.byte	0x1
 5617 03bd D0030000 		.4byte	0x3d0
 5618 03c1 13       		.uleb128 0x13
 5619 03c2 697000   		.ascii	"ip\000"
 5620 03c5 01       		.byte	0x1
 5621 03c6 2702     		.2byte	0x227
 5622 03c8 90000000 		.4byte	0x90
 5623 03cc 02       		.byte	0x2
 5624 03cd 91       		.byte	0x91
 5625 03ce 74       		.sleb128 -12
 5626 03cf 00       		.byte	0
 5627 03d0 16       		.uleb128 0x16
 5628 03d1 01       		.byte	0x1
 5629 03d2 69070000 		.4byte	.LASF46
 5630 03d6 01       		.byte	0x1
 5631 03d7 3002     		.2byte	0x230
 5632 03d9 01       		.byte	0x1
 5633 03da 90000000 		.4byte	0x90
 5634 03de 00000000 		.4byte	.LFB65
 5635 03e2 28000000 		.4byte	.LFE65
 5636 03e6 E0010000 		.4byte	.LLST9
 5637 03ea 01       		.byte	0x1
 5638 03eb FE030000 		.4byte	0x3fe
 5639 03ef 15       		.uleb128 0x15
 5640 03f0 697000   		.ascii	"ip\000"
 5641 03f3 01       		.byte	0x1
 5642 03f4 3202     		.2byte	0x232
 5643 03f6 90000000 		.4byte	0x90
 5644 03fa 02       		.byte	0x2
 5645 03fb 91       		.byte	0x91
 5646 03fc 74       		.sleb128 -12
 5647 03fd 00       		.byte	0
 5648 03fe 11       		.uleb128 0x11
 5649 03ff 01       		.byte	0x1
 5650 0400 FE050000 		.4byte	.LASF47
 5651 0404 01       		.byte	0x1
 5652 0405 3D02     		.2byte	0x23d
 5653 0407 01       		.byte	0x1
 5654 0408 00000000 		.4byte	.LFB66
 5655 040c 22000000 		.4byte	.LFE66
 5656 0410 18020000 		.4byte	.LLST10
 5657 0414 01       		.byte	0x1
 5658 0415 28040000 		.4byte	0x428
 5659 0419 13       		.uleb128 0x13
 5660 041a 697000   		.ascii	"ip\000"
 5661 041d 01       		.byte	0x1
 5662 041e 3D02     		.2byte	0x23d
 5663 0420 90000000 		.4byte	0x90
 5664 0424 02       		.byte	0x2
 5665 0425 91       		.byte	0x91
 5666 0426 74       		.sleb128 -12
ARM GAS  C:\Users\CHUCK~1.ERH\AppData\Local\Temp\cclfQUCJ.s 			page 133


 5667 0427 00       		.byte	0
 5668 0428 16       		.uleb128 0x16
 5669 0429 01       		.byte	0x1
 5670 042a CA060000 		.4byte	.LASF48
 5671 042e 01       		.byte	0x1
 5672 042f 4602     		.2byte	0x246
 5673 0431 01       		.byte	0x1
 5674 0432 90000000 		.4byte	0x90
 5675 0436 00000000 		.4byte	.LFB67
 5676 043a 28000000 		.4byte	.LFE67
 5677 043e 50020000 		.4byte	.LLST11
 5678 0442 01       		.byte	0x1
 5679 0443 56040000 		.4byte	0x456
 5680 0447 15       		.uleb128 0x15
 5681 0448 697000   		.ascii	"ip\000"
 5682 044b 01       		.byte	0x1
 5683 044c 4802     		.2byte	0x248
 5684 044e 90000000 		.4byte	0x90
 5685 0452 02       		.byte	0x2
 5686 0453 91       		.byte	0x91
 5687 0454 74       		.sleb128 -12
 5688 0455 00       		.byte	0
 5689 0456 11       		.uleb128 0x11
 5690 0457 01       		.byte	0x1
 5691 0458 4E020000 		.4byte	.LASF49
 5692 045c 01       		.byte	0x1
 5693 045d 5102     		.2byte	0x251
 5694 045f 01       		.byte	0x1
 5695 0460 00000000 		.4byte	.LFB68
 5696 0464 22000000 		.4byte	.LFE68
 5697 0468 88020000 		.4byte	.LLST12
 5698 046c 01       		.byte	0x1
 5699 046d 80040000 		.4byte	0x480
 5700 0471 13       		.uleb128 0x13
 5701 0472 697000   		.ascii	"ip\000"
 5702 0475 01       		.byte	0x1
 5703 0476 5102     		.2byte	0x251
 5704 0478 90000000 		.4byte	0x90
 5705 047c 02       		.byte	0x2
 5706 047d 91       		.byte	0x91
 5707 047e 74       		.sleb128 -12
 5708 047f 00       		.byte	0
 5709 0480 16       		.uleb128 0x16
 5710 0481 01       		.byte	0x1
 5711 0482 5F030000 		.4byte	.LASF50
 5712 0486 01       		.byte	0x1
 5713 0487 5A02     		.2byte	0x25a
 5714 0489 01       		.byte	0x1
 5715 048a 90000000 		.4byte	0x90
 5716 048e 00000000 		.4byte	.LFB69
 5717 0492 28000000 		.4byte	.LFE69
 5718 0496 C0020000 		.4byte	.LLST13
 5719 049a 01       		.byte	0x1
 5720 049b AE040000 		.4byte	0x4ae
 5721 049f 15       		.uleb128 0x15
 5722 04a0 697000   		.ascii	"ip\000"
 5723 04a3 01       		.byte	0x1
ARM GAS  C:\Users\CHUCK~1.ERH\AppData\Local\Temp\cclfQUCJ.s 			page 134


 5724 04a4 5C02     		.2byte	0x25c
 5725 04a6 90000000 		.4byte	0x90
 5726 04aa 02       		.byte	0x2
 5727 04ab 91       		.byte	0x91
 5728 04ac 74       		.sleb128 -12
 5729 04ad 00       		.byte	0
 5730 04ae 11       		.uleb128 0x11
 5731 04af 01       		.byte	0x1
 5732 04b0 3A000000 		.4byte	.LASF51
 5733 04b4 01       		.byte	0x1
 5734 04b5 6502     		.2byte	0x265
 5735 04b7 01       		.byte	0x1
 5736 04b8 00000000 		.4byte	.LFB70
 5737 04bc 24000000 		.4byte	.LFE70
 5738 04c0 F8020000 		.4byte	.LLST14
 5739 04c4 01       		.byte	0x1
 5740 04c5 D9040000 		.4byte	0x4d9
 5741 04c9 12       		.uleb128 0x12
 5742 04ca 06010000 		.4byte	.LASF52
 5743 04ce 01       		.byte	0x1
 5744 04cf 6502     		.2byte	0x265
 5745 04d1 7A000000 		.4byte	0x7a
 5746 04d5 02       		.byte	0x2
 5747 04d6 91       		.byte	0x91
 5748 04d7 77       		.sleb128 -9
 5749 04d8 00       		.byte	0
 5750 04d9 16       		.uleb128 0x16
 5751 04da 01       		.byte	0x1
 5752 04db 49030000 		.4byte	.LASF53
 5753 04df 01       		.byte	0x1
 5754 04e0 6E02     		.2byte	0x26e
 5755 04e2 01       		.byte	0x1
 5756 04e3 7A000000 		.4byte	0x7a
 5757 04e7 00000000 		.4byte	.LFB71
 5758 04eb 24000000 		.4byte	.LFE71
 5759 04ef 30030000 		.4byte	.LLST15
 5760 04f3 01       		.byte	0x1
 5761 04f4 08050000 		.4byte	0x508
 5762 04f8 14       		.uleb128 0x14
 5763 04f9 06010000 		.4byte	.LASF52
 5764 04fd 01       		.byte	0x1
 5765 04fe 7002     		.2byte	0x270
 5766 0500 7A000000 		.4byte	0x7a
 5767 0504 02       		.byte	0x2
 5768 0505 91       		.byte	0x91
 5769 0506 77       		.sleb128 -9
 5770 0507 00       		.byte	0
 5771 0508 11       		.uleb128 0x11
 5772 0509 01       		.byte	0x1
 5773 050a 76010000 		.4byte	.LASF54
 5774 050e 01       		.byte	0x1
 5775 050f 7902     		.2byte	0x279
 5776 0511 01       		.byte	0x1
 5777 0512 00000000 		.4byte	.LFB72
 5778 0516 24000000 		.4byte	.LFE72
 5779 051a 68030000 		.4byte	.LLST16
 5780 051e 01       		.byte	0x1
ARM GAS  C:\Users\CHUCK~1.ERH\AppData\Local\Temp\cclfQUCJ.s 			page 135


 5781 051f 32050000 		.4byte	0x532
 5782 0523 13       		.uleb128 0x13
 5783 0524 697200   		.ascii	"ir\000"
 5784 0527 01       		.byte	0x1
 5785 0528 7902     		.2byte	0x279
 5786 052a 7A000000 		.4byte	0x7a
 5787 052e 02       		.byte	0x2
 5788 052f 91       		.byte	0x91
 5789 0530 77       		.sleb128 -9
 5790 0531 00       		.byte	0
 5791 0532 11       		.uleb128 0x11
 5792 0533 01       		.byte	0x1
 5793 0534 60050000 		.4byte	.LASF55
 5794 0538 01       		.byte	0x1
 5795 0539 8202     		.2byte	0x282
 5796 053b 01       		.byte	0x1
 5797 053c 00000000 		.4byte	.LFB73
 5798 0540 38000000 		.4byte	.LFE73
 5799 0544 A0030000 		.4byte	.LLST17
 5800 0548 01       		.byte	0x1
 5801 0549 6C050000 		.4byte	0x56c
 5802 054d 12       		.uleb128 0x12
 5803 054e BE050000 		.4byte	.LASF56
 5804 0552 01       		.byte	0x1
 5805 0553 8202     		.2byte	0x282
 5806 0555 7A000000 		.4byte	0x7a
 5807 0559 02       		.byte	0x2
 5808 055a 91       		.byte	0x91
 5809 055b 77       		.sleb128 -9
 5810 055c 12       		.uleb128 0x12
 5811 055d B1040000 		.4byte	.LASF57
 5812 0561 01       		.byte	0x1
 5813 0562 8202     		.2byte	0x282
 5814 0564 7A000000 		.4byte	0x7a
 5815 0568 02       		.byte	0x2
 5816 0569 91       		.byte	0x91
 5817 056a 76       		.sleb128 -10
 5818 056b 00       		.byte	0
 5819 056c 16       		.uleb128 0x16
 5820 056d 01       		.byte	0x1
 5821 056e 00000000 		.4byte	.LASF58
 5822 0572 01       		.byte	0x1
 5823 0573 9D02     		.2byte	0x29d
 5824 0575 01       		.byte	0x1
 5825 0576 7A000000 		.4byte	0x7a
 5826 057a 00000000 		.4byte	.LFB74
 5827 057e 3E000000 		.4byte	.LFE74
 5828 0582 D8030000 		.4byte	.LLST18
 5829 0586 01       		.byte	0x1
 5830 0587 A9050000 		.4byte	0x5a9
 5831 058b 12       		.uleb128 0x12
 5832 058c BE050000 		.4byte	.LASF56
 5833 0590 01       		.byte	0x1
 5834 0591 9D02     		.2byte	0x29d
 5835 0593 7A000000 		.4byte	0x7a
 5836 0597 02       		.byte	0x2
 5837 0598 91       		.byte	0x91
ARM GAS  C:\Users\CHUCK~1.ERH\AppData\Local\Temp\cclfQUCJ.s 			page 136


 5838 0599 6F       		.sleb128 -17
 5839 059a 15       		.uleb128 0x15
 5840 059b 737A00   		.ascii	"sz\000"
 5841 059e 01       		.byte	0x1
 5842 059f 9F02     		.2byte	0x29f
 5843 05a1 7A000000 		.4byte	0x7a
 5844 05a5 02       		.byte	0x2
 5845 05a6 91       		.byte	0x91
 5846 05a7 77       		.sleb128 -9
 5847 05a8 00       		.byte	0
 5848 05a9 11       		.uleb128 0x11
 5849 05aa 01       		.byte	0x1
 5850 05ab 01020000 		.4byte	.LASF59
 5851 05af 01       		.byte	0x1
 5852 05b0 AF02     		.2byte	0x2af
 5853 05b2 01       		.byte	0x1
 5854 05b3 00000000 		.4byte	.LFB75
 5855 05b7 38000000 		.4byte	.LFE75
 5856 05bb 10040000 		.4byte	.LLST19
 5857 05bf 01       		.byte	0x1
 5858 05c0 E3050000 		.4byte	0x5e3
 5859 05c4 12       		.uleb128 0x12
 5860 05c5 BE050000 		.4byte	.LASF56
 5861 05c9 01       		.byte	0x1
 5862 05ca AF02     		.2byte	0x2af
 5863 05cc 7A000000 		.4byte	0x7a
 5864 05d0 02       		.byte	0x2
 5865 05d1 91       		.byte	0x91
 5866 05d2 77       		.sleb128 -9
 5867 05d3 12       		.uleb128 0x12
 5868 05d4 B1040000 		.4byte	.LASF57
 5869 05d8 01       		.byte	0x1
 5870 05d9 AF02     		.2byte	0x2af
 5871 05db 7A000000 		.4byte	0x7a
 5872 05df 02       		.byte	0x2
 5873 05e0 91       		.byte	0x91
 5874 05e1 76       		.sleb128 -10
 5875 05e2 00       		.byte	0
 5876 05e3 16       		.uleb128 0x16
 5877 05e4 01       		.byte	0x1
 5878 05e5 5E020000 		.4byte	.LASF60
 5879 05e9 01       		.byte	0x1
 5880 05ea C902     		.2byte	0x2c9
 5881 05ec 01       		.byte	0x1
 5882 05ed 7A000000 		.4byte	0x7a
 5883 05f1 00000000 		.4byte	.LFB76
 5884 05f5 3E000000 		.4byte	.LFE76
 5885 05f9 48040000 		.4byte	.LLST20
 5886 05fd 01       		.byte	0x1
 5887 05fe 20060000 		.4byte	0x620
 5888 0602 12       		.uleb128 0x12
 5889 0603 BE050000 		.4byte	.LASF56
 5890 0607 01       		.byte	0x1
 5891 0608 C902     		.2byte	0x2c9
 5892 060a 7A000000 		.4byte	0x7a
 5893 060e 02       		.byte	0x2
 5894 060f 91       		.byte	0x91
ARM GAS  C:\Users\CHUCK~1.ERH\AppData\Local\Temp\cclfQUCJ.s 			page 137


 5895 0610 6F       		.sleb128 -17
 5896 0611 15       		.uleb128 0x15
 5897 0612 737A00   		.ascii	"sz\000"
 5898 0615 01       		.byte	0x1
 5899 0616 CB02     		.2byte	0x2cb
 5900 0618 7A000000 		.4byte	0x7a
 5901 061c 02       		.byte	0x2
 5902 061d 91       		.byte	0x91
 5903 061e 77       		.sleb128 -9
 5904 061f 00       		.byte	0
 5905 0620 11       		.uleb128 0x11
 5906 0621 01       		.byte	0x1
 5907 0622 9E010000 		.4byte	.LASF61
 5908 0626 01       		.byte	0x1
 5909 0627 E302     		.2byte	0x2e3
 5910 0629 01       		.byte	0x1
 5911 062a 00000000 		.4byte	.LFB77
 5912 062e 34000000 		.4byte	.LFE77
 5913 0632 80040000 		.4byte	.LLST21
 5914 0636 01       		.byte	0x1
 5915 0637 5A060000 		.4byte	0x65a
 5916 063b 12       		.uleb128 0x12
 5917 063c BE050000 		.4byte	.LASF56
 5918 0640 01       		.byte	0x1
 5919 0641 E302     		.2byte	0x2e3
 5920 0643 7A000000 		.4byte	0x7a
 5921 0647 02       		.byte	0x2
 5922 0648 91       		.byte	0x91
 5923 0649 77       		.sleb128 -9
 5924 064a 12       		.uleb128 0x12
 5925 064b 06010000 		.4byte	.LASF52
 5926 064f 01       		.byte	0x1
 5927 0650 E302     		.2byte	0x2e3
 5928 0652 7A000000 		.4byte	0x7a
 5929 0656 02       		.byte	0x2
 5930 0657 91       		.byte	0x91
 5931 0658 76       		.sleb128 -10
 5932 0659 00       		.byte	0
 5933 065a 11       		.uleb128 0x11
 5934 065b 01       		.byte	0x1
 5935 065c 9E030000 		.4byte	.LASF62
 5936 0660 01       		.byte	0x1
 5937 0661 ED02     		.2byte	0x2ed
 5938 0663 01       		.byte	0x1
 5939 0664 00000000 		.4byte	.LFB78
 5940 0668 38000000 		.4byte	.LFE78
 5941 066c B8040000 		.4byte	.LLST22
 5942 0670 01       		.byte	0x1
 5943 0671 94060000 		.4byte	0x694
 5944 0675 12       		.uleb128 0x12
 5945 0676 BE050000 		.4byte	.LASF56
 5946 067a 01       		.byte	0x1
 5947 067b ED02     		.2byte	0x2ed
 5948 067d 7A000000 		.4byte	0x7a
 5949 0681 02       		.byte	0x2
 5950 0682 91       		.byte	0x91
 5951 0683 77       		.sleb128 -9
ARM GAS  C:\Users\CHUCK~1.ERH\AppData\Local\Temp\cclfQUCJ.s 			page 138


 5952 0684 13       		.uleb128 0x13
 5953 0685 636D6400 		.ascii	"cmd\000"
 5954 0689 01       		.byte	0x1
 5955 068a ED02     		.2byte	0x2ed
 5956 068c 7A000000 		.4byte	0x7a
 5957 0690 02       		.byte	0x2
 5958 0691 91       		.byte	0x91
 5959 0692 76       		.sleb128 -10
 5960 0693 00       		.byte	0
 5961 0694 16       		.uleb128 0x16
 5962 0695 01       		.byte	0x1
 5963 0696 FB040000 		.4byte	.LASF63
 5964 069a 01       		.byte	0x1
 5965 069b F702     		.2byte	0x2f7
 5966 069d 01       		.byte	0x1
 5967 069e 7A000000 		.4byte	0x7a
 5968 06a2 00000000 		.4byte	.LFB79
 5969 06a6 3E000000 		.4byte	.LFE79
 5970 06aa F0040000 		.4byte	.LLST23
 5971 06ae 01       		.byte	0x1
 5972 06af D2060000 		.4byte	0x6d2
 5973 06b3 12       		.uleb128 0x12
 5974 06b4 BE050000 		.4byte	.LASF56
 5975 06b8 01       		.byte	0x1
 5976 06b9 F702     		.2byte	0x2f7
 5977 06bb 7A000000 		.4byte	0x7a
 5978 06bf 02       		.byte	0x2
 5979 06c0 91       		.byte	0x91
 5980 06c1 6F       		.sleb128 -17
 5981 06c2 15       		.uleb128 0x15
 5982 06c3 636D6400 		.ascii	"cmd\000"
 5983 06c7 01       		.byte	0x1
 5984 06c8 F902     		.2byte	0x2f9
 5985 06ca 7A000000 		.4byte	0x7a
 5986 06ce 02       		.byte	0x2
 5987 06cf 91       		.byte	0x91
 5988 06d0 77       		.sleb128 -9
 5989 06d1 00       		.byte	0
 5990 06d2 11       		.uleb128 0x11
 5991 06d3 01       		.byte	0x1
 5992 06d4 39080000 		.4byte	.LASF64
 5993 06d8 01       		.byte	0x1
 5994 06d9 0303     		.2byte	0x303
 5995 06db 01       		.byte	0x1
 5996 06dc 00000000 		.4byte	.LFB80
 5997 06e0 38000000 		.4byte	.LFE80
 5998 06e4 28050000 		.4byte	.LLST24
 5999 06e8 01       		.byte	0x1
 6000 06e9 0B070000 		.4byte	0x70b
 6001 06ed 12       		.uleb128 0x12
 6002 06ee BE050000 		.4byte	.LASF56
 6003 06f2 01       		.byte	0x1
 6004 06f3 0303     		.2byte	0x303
 6005 06f5 7A000000 		.4byte	0x7a
 6006 06f9 02       		.byte	0x2
 6007 06fa 91       		.byte	0x91
 6008 06fb 77       		.sleb128 -9
ARM GAS  C:\Users\CHUCK~1.ERH\AppData\Local\Temp\cclfQUCJ.s 			page 139


 6009 06fc 13       		.uleb128 0x13
 6010 06fd 697200   		.ascii	"ir\000"
 6011 0700 01       		.byte	0x1
 6012 0701 0303     		.2byte	0x303
 6013 0703 7A000000 		.4byte	0x7a
 6014 0707 02       		.byte	0x2
 6015 0708 91       		.byte	0x91
 6016 0709 76       		.sleb128 -10
 6017 070a 00       		.byte	0
 6018 070b 16       		.uleb128 0x16
 6019 070c 01       		.byte	0x1
 6020 070d 88000000 		.4byte	.LASF65
 6021 0711 01       		.byte	0x1
 6022 0712 0D03     		.2byte	0x30d
 6023 0714 01       		.byte	0x1
 6024 0715 7A000000 		.4byte	0x7a
 6025 0719 00000000 		.4byte	.LFB81
 6026 071d 3E000000 		.4byte	.LFE81
 6027 0721 60050000 		.4byte	.LLST25
 6028 0725 01       		.byte	0x1
 6029 0726 48070000 		.4byte	0x748
 6030 072a 12       		.uleb128 0x12
 6031 072b BE050000 		.4byte	.LASF56
 6032 072f 01       		.byte	0x1
 6033 0730 0D03     		.2byte	0x30d
 6034 0732 7A000000 		.4byte	0x7a
 6035 0736 02       		.byte	0x2
 6036 0737 91       		.byte	0x91
 6037 0738 6F       		.sleb128 -17
 6038 0739 15       		.uleb128 0x15
 6039 073a 697200   		.ascii	"ir\000"
 6040 073d 01       		.byte	0x1
 6041 073e 0F03     		.2byte	0x30f
 6042 0740 7A000000 		.4byte	0x7a
 6043 0744 02       		.byte	0x2
 6044 0745 91       		.byte	0x91
 6045 0746 77       		.sleb128 -9
 6046 0747 00       		.byte	0
 6047 0748 16       		.uleb128 0x16
 6048 0749 01       		.byte	0x1
 6049 074a 20050000 		.4byte	.LASF66
 6050 074e 01       		.byte	0x1
 6051 074f 1903     		.2byte	0x319
 6052 0751 01       		.byte	0x1
 6053 0752 7A000000 		.4byte	0x7a
 6054 0756 00000000 		.4byte	.LFB82
 6055 075a 3E000000 		.4byte	.LFE82
 6056 075e 98050000 		.4byte	.LLST26
 6057 0762 01       		.byte	0x1
 6058 0763 86070000 		.4byte	0x786
 6059 0767 12       		.uleb128 0x12
 6060 0768 BE050000 		.4byte	.LASF56
 6061 076c 01       		.byte	0x1
 6062 076d 1903     		.2byte	0x319
 6063 076f 7A000000 		.4byte	0x7a
 6064 0773 02       		.byte	0x2
 6065 0774 91       		.byte	0x91
ARM GAS  C:\Users\CHUCK~1.ERH\AppData\Local\Temp\cclfQUCJ.s 			page 140


 6066 0775 6F       		.sleb128 -17
 6067 0776 14       		.uleb128 0x14
 6068 0777 AD050000 		.4byte	.LASF67
 6069 077b 01       		.byte	0x1
 6070 077c 1B03     		.2byte	0x31b
 6071 077e 7A000000 		.4byte	0x7a
 6072 0782 02       		.byte	0x2
 6073 0783 91       		.byte	0x91
 6074 0784 77       		.sleb128 -9
 6075 0785 00       		.byte	0
 6076 0786 11       		.uleb128 0x11
 6077 0787 01       		.byte	0x1
 6078 0788 51070000 		.4byte	.LASF68
 6079 078c 01       		.byte	0x1
 6080 078d 2503     		.2byte	0x325
 6081 078f 01       		.byte	0x1
 6082 0790 00000000 		.4byte	.LFB83
 6083 0794 32000000 		.4byte	.LFE83
 6084 0798 D0050000 		.4byte	.LLST27
 6085 079c 01       		.byte	0x1
 6086 079d C0070000 		.4byte	0x7c0
 6087 07a1 12       		.uleb128 0x12
 6088 07a2 BE050000 		.4byte	.LASF56
 6089 07a6 01       		.byte	0x1
 6090 07a7 2503     		.2byte	0x325
 6091 07a9 7A000000 		.4byte	0x7a
 6092 07ad 02       		.byte	0x2
 6093 07ae 91       		.byte	0x91
 6094 07af 77       		.sleb128 -9
 6095 07b0 12       		.uleb128 0x12
 6096 07b1 97060000 		.4byte	.LASF69
 6097 07b5 01       		.byte	0x1
 6098 07b6 2503     		.2byte	0x325
 6099 07b8 85000000 		.4byte	0x85
 6100 07bc 02       		.byte	0x2
 6101 07bd 91       		.byte	0x91
 6102 07be 74       		.sleb128 -12
 6103 07bf 00       		.byte	0
 6104 07c0 11       		.uleb128 0x11
 6105 07c1 01       		.byte	0x1
 6106 07c2 F8070000 		.4byte	.LASF70
 6107 07c6 01       		.byte	0x1
 6108 07c7 2F03     		.2byte	0x32f
 6109 07c9 01       		.byte	0x1
 6110 07ca 00000000 		.4byte	.LFB84
 6111 07ce 32000000 		.4byte	.LFE84
 6112 07d2 08060000 		.4byte	.LLST28
 6113 07d6 01       		.byte	0x1
 6114 07d7 FA070000 		.4byte	0x7fa
 6115 07db 12       		.uleb128 0x12
 6116 07dc BE050000 		.4byte	.LASF56
 6117 07e0 01       		.byte	0x1
 6118 07e1 2F03     		.2byte	0x32f
 6119 07e3 7A000000 		.4byte	0x7a
 6120 07e7 02       		.byte	0x2
 6121 07e8 91       		.byte	0x91
 6122 07e9 77       		.sleb128 -9
ARM GAS  C:\Users\CHUCK~1.ERH\AppData\Local\Temp\cclfQUCJ.s 			page 141


 6123 07ea 13       		.uleb128 0x13
 6124 07eb 6D616300 		.ascii	"mac\000"
 6125 07ef 01       		.byte	0x1
 6126 07f0 2F03     		.2byte	0x32f
 6127 07f2 02020000 		.4byte	0x202
 6128 07f6 02       		.byte	0x2
 6129 07f7 91       		.byte	0x91
 6130 07f8 70       		.sleb128 -16
 6131 07f9 00       		.byte	0
 6132 07fa 11       		.uleb128 0x11
 6133 07fb 01       		.byte	0x1
 6134 07fc D3040000 		.4byte	.LASF71
 6135 0800 01       		.byte	0x1
 6136 0801 3903     		.2byte	0x339
 6137 0803 01       		.byte	0x1
 6138 0804 00000000 		.4byte	.LFB85
 6139 0808 34000000 		.4byte	.LFE85
 6140 080c 40060000 		.4byte	.LLST29
 6141 0810 01       		.byte	0x1
 6142 0811 33080000 		.4byte	0x833
 6143 0815 12       		.uleb128 0x12
 6144 0816 BE050000 		.4byte	.LASF56
 6145 081a 01       		.byte	0x1
 6146 081b 3903     		.2byte	0x339
 6147 081d 7A000000 		.4byte	0x7a
 6148 0821 02       		.byte	0x2
 6149 0822 91       		.byte	0x91
 6150 0823 77       		.sleb128 -9
 6151 0824 13       		.uleb128 0x13
 6152 0825 697000   		.ascii	"ip\000"
 6153 0828 01       		.byte	0x1
 6154 0829 3903     		.2byte	0x339
 6155 082b 90000000 		.4byte	0x90
 6156 082f 02       		.byte	0x2
 6157 0830 91       		.byte	0x91
 6158 0831 70       		.sleb128 -16
 6159 0832 00       		.byte	0
 6160 0833 11       		.uleb128 0x11
 6161 0834 01       		.byte	0x1
 6162 0835 F0000000 		.4byte	.LASF72
 6163 0839 01       		.byte	0x1
 6164 083a 4303     		.2byte	0x343
 6165 083c 01       		.byte	0x1
 6166 083d 00000000 		.4byte	.LFB86
 6167 0841 32000000 		.4byte	.LFE86
 6168 0845 78060000 		.4byte	.LLST30
 6169 0849 01       		.byte	0x1
 6170 084a 6D080000 		.4byte	0x86d
 6171 084e 12       		.uleb128 0x12
 6172 084f BE050000 		.4byte	.LASF56
 6173 0853 01       		.byte	0x1
 6174 0854 4303     		.2byte	0x343
 6175 0856 7A000000 		.4byte	0x7a
 6176 085a 02       		.byte	0x2
 6177 085b 91       		.byte	0x91
 6178 085c 77       		.sleb128 -9
 6179 085d 12       		.uleb128 0x12
ARM GAS  C:\Users\CHUCK~1.ERH\AppData\Local\Temp\cclfQUCJ.s 			page 142


 6180 085e 97060000 		.4byte	.LASF69
 6181 0862 01       		.byte	0x1
 6182 0863 4303     		.2byte	0x343
 6183 0865 85000000 		.4byte	0x85
 6184 0869 02       		.byte	0x2
 6185 086a 91       		.byte	0x91
 6186 086b 74       		.sleb128 -12
 6187 086c 00       		.byte	0
 6188 086d 16       		.uleb128 0x16
 6189 086e 01       		.byte	0x1
 6190 086f B0020000 		.4byte	.LASF73
 6191 0873 01       		.byte	0x1
 6192 0874 4D03     		.2byte	0x34d
 6193 0876 01       		.byte	0x1
 6194 0877 85000000 		.4byte	0x85
 6195 087b 00000000 		.4byte	.LFB87
 6196 087f 2E000000 		.4byte	.LFE87
 6197 0883 B0060000 		.4byte	.LLST31
 6198 0887 01       		.byte	0x1
 6199 0888 9C080000 		.4byte	0x89c
 6200 088c 12       		.uleb128 0x12
 6201 088d BE050000 		.4byte	.LASF56
 6202 0891 01       		.byte	0x1
 6203 0892 4D03     		.2byte	0x34d
 6204 0894 7A000000 		.4byte	0x7a
 6205 0898 02       		.byte	0x2
 6206 0899 91       		.byte	0x91
 6207 089a 77       		.sleb128 -9
 6208 089b 00       		.byte	0
 6209 089c 11       		.uleb128 0x11
 6210 089d 01       		.byte	0x1
 6211 089e 80010000 		.4byte	.LASF74
 6212 08a2 01       		.byte	0x1
 6213 08a3 5703     		.2byte	0x357
 6214 08a5 01       		.byte	0x1
 6215 08a6 00000000 		.4byte	.LFB88
 6216 08aa 32000000 		.4byte	.LFE88
 6217 08ae E8060000 		.4byte	.LLST32
 6218 08b2 01       		.byte	0x1
 6219 08b3 D6080000 		.4byte	0x8d6
 6220 08b7 12       		.uleb128 0x12
 6221 08b8 BE050000 		.4byte	.LASF56
 6222 08bc 01       		.byte	0x1
 6223 08bd 5703     		.2byte	0x357
 6224 08bf 7A000000 		.4byte	0x7a
 6225 08c3 02       		.byte	0x2
 6226 08c4 91       		.byte	0x91
 6227 08c5 77       		.sleb128 -9
 6228 08c6 13       		.uleb128 0x13
 6229 08c7 70747200 		.ascii	"ptr\000"
 6230 08cb 01       		.byte	0x1
 6231 08cc 5703     		.2byte	0x357
 6232 08ce 85000000 		.4byte	0x85
 6233 08d2 02       		.byte	0x2
 6234 08d3 91       		.byte	0x91
 6235 08d4 74       		.sleb128 -12
 6236 08d5 00       		.byte	0
ARM GAS  C:\Users\CHUCK~1.ERH\AppData\Local\Temp\cclfQUCJ.s 			page 143


 6237 08d6 16       		.uleb128 0x16
 6238 08d7 01       		.byte	0x1
 6239 08d8 13010000 		.4byte	.LASF75
 6240 08dc 01       		.byte	0x1
 6241 08dd 6103     		.2byte	0x361
 6242 08df 01       		.byte	0x1
 6243 08e0 85000000 		.4byte	0x85
 6244 08e4 00000000 		.4byte	.LFB89
 6245 08e8 2E000000 		.4byte	.LFE89
 6246 08ec 20070000 		.4byte	.LLST33
 6247 08f0 01       		.byte	0x1
 6248 08f1 05090000 		.4byte	0x905
 6249 08f5 12       		.uleb128 0x12
 6250 08f6 BE050000 		.4byte	.LASF56
 6251 08fa 01       		.byte	0x1
 6252 08fb 6103     		.2byte	0x361
 6253 08fd 7A000000 		.4byte	0x7a
 6254 0901 02       		.byte	0x2
 6255 0902 91       		.byte	0x91
 6256 0903 77       		.sleb128 -9
 6257 0904 00       		.byte	0
 6258 0905 16       		.uleb128 0x16
 6259 0906 01       		.byte	0x1
 6260 0907 F4030000 		.4byte	.LASF76
 6261 090b 01       		.byte	0x1
 6262 090c 6B03     		.2byte	0x36b
 6263 090e 01       		.byte	0x1
 6264 090f 85000000 		.4byte	0x85
 6265 0913 00000000 		.4byte	.LFB90
 6266 0917 2E000000 		.4byte	.LFE90
 6267 091b 58070000 		.4byte	.LLST34
 6268 091f 01       		.byte	0x1
 6269 0920 34090000 		.4byte	0x934
 6270 0924 12       		.uleb128 0x12
 6271 0925 BE050000 		.4byte	.LASF56
 6272 0929 01       		.byte	0x1
 6273 092a 6B03     		.2byte	0x36b
 6274 092c 7A000000 		.4byte	0x7a
 6275 0930 02       		.byte	0x2
 6276 0931 91       		.byte	0x91
 6277 0932 77       		.sleb128 -9
 6278 0933 00       		.byte	0
 6279 0934 11       		.uleb128 0x11
 6280 0935 01       		.byte	0x1
 6281 0936 98000000 		.4byte	.LASF77
 6282 093a 01       		.byte	0x1
 6283 093b 7503     		.2byte	0x375
 6284 093d 01       		.byte	0x1
 6285 093e 00000000 		.4byte	.LFB91
 6286 0942 32000000 		.4byte	.LFE91
 6287 0946 90070000 		.4byte	.LLST35
 6288 094a 01       		.byte	0x1
 6289 094b 6E090000 		.4byte	0x96e
 6290 094f 12       		.uleb128 0x12
 6291 0950 BE050000 		.4byte	.LASF56
 6292 0954 01       		.byte	0x1
 6293 0955 7503     		.2byte	0x375
ARM GAS  C:\Users\CHUCK~1.ERH\AppData\Local\Temp\cclfQUCJ.s 			page 144


 6294 0957 7A000000 		.4byte	0x7a
 6295 095b 02       		.byte	0x2
 6296 095c 91       		.byte	0x91
 6297 095d 77       		.sleb128 -9
 6298 095e 13       		.uleb128 0x13
 6299 095f 70747200 		.ascii	"ptr\000"
 6300 0963 01       		.byte	0x1
 6301 0964 7503     		.2byte	0x375
 6302 0966 85000000 		.4byte	0x85
 6303 096a 02       		.byte	0x2
 6304 096b 91       		.byte	0x91
 6305 096c 74       		.sleb128 -12
 6306 096d 00       		.byte	0
 6307 096e 16       		.uleb128 0x16
 6308 096f 01       		.byte	0x1
 6309 0970 74040000 		.4byte	.LASF78
 6310 0974 01       		.byte	0x1
 6311 0975 7F03     		.2byte	0x37f
 6312 0977 01       		.byte	0x1
 6313 0978 85000000 		.4byte	0x85
 6314 097c 00000000 		.4byte	.LFB92
 6315 0980 2E000000 		.4byte	.LFE92
 6316 0984 C8070000 		.4byte	.LLST36
 6317 0988 01       		.byte	0x1
 6318 0989 9D090000 		.4byte	0x99d
 6319 098d 12       		.uleb128 0x12
 6320 098e BE050000 		.4byte	.LASF56
 6321 0992 01       		.byte	0x1
 6322 0993 7F03     		.2byte	0x37f
 6323 0995 7A000000 		.4byte	0x7a
 6324 0999 02       		.byte	0x2
 6325 099a 91       		.byte	0x91
 6326 099b 77       		.sleb128 -9
 6327 099c 00       		.byte	0
 6328 099d 17       		.uleb128 0x17
 6329 099e 01       		.byte	0x1
 6330 099f 10060000 		.4byte	.LASF79
 6331 09a3 01       		.byte	0x1
 6332 09a4 8903     		.2byte	0x389
 6333 09a6 01       		.byte	0x1
 6334 09a7 00000000 		.4byte	.LFB93
 6335 09ab 18000000 		.4byte	.LFE93
 6336 09af 00080000 		.4byte	.LLST37
 6337 09b3 01       		.byte	0x1
 6338 09b4 D7090000 		.4byte	0x9d7
 6339 09b8 12       		.uleb128 0x12
 6340 09b9 BE050000 		.4byte	.LASF56
 6341 09bd 01       		.byte	0x1
 6342 09be 8903     		.2byte	0x389
 6343 09c0 7A000000 		.4byte	0x7a
 6344 09c4 02       		.byte	0x2
 6345 09c5 91       		.byte	0x91
 6346 09c6 77       		.sleb128 -9
 6347 09c7 13       		.uleb128 0x13
 6348 09c8 70747200 		.ascii	"ptr\000"
 6349 09cc 01       		.byte	0x1
 6350 09cd 8903     		.2byte	0x389
ARM GAS  C:\Users\CHUCK~1.ERH\AppData\Local\Temp\cclfQUCJ.s 			page 145


 6351 09cf 85000000 		.4byte	0x85
 6352 09d3 02       		.byte	0x2
 6353 09d4 91       		.byte	0x91
 6354 09d5 74       		.sleb128 -12
 6355 09d6 00       		.byte	0
 6356 09d7 11       		.uleb128 0x11
 6357 09d8 01       		.byte	0x1
 6358 09d9 36060000 		.4byte	.LASF80
 6359 09dd 01       		.byte	0x1
 6360 09de 9C03     		.2byte	0x39c
 6361 09e0 01       		.byte	0x1
 6362 09e1 00000000 		.4byte	.LFB94
 6363 09e5 32000000 		.4byte	.LFE94
 6364 09e9 38080000 		.4byte	.LLST38
 6365 09ed 01       		.byte	0x1
 6366 09ee 110A0000 		.4byte	0xa11
 6367 09f2 12       		.uleb128 0x12
 6368 09f3 BE050000 		.4byte	.LASF56
 6369 09f7 01       		.byte	0x1
 6370 09f8 9C03     		.2byte	0x39c
 6371 09fa 7A000000 		.4byte	0x7a
 6372 09fe 02       		.byte	0x2
 6373 09ff 91       		.byte	0x91
 6374 0a00 77       		.sleb128 -9
 6375 0a01 13       		.uleb128 0x13
 6376 0a02 70747200 		.ascii	"ptr\000"
 6377 0a06 01       		.byte	0x1
 6378 0a07 9C03     		.2byte	0x39c
 6379 0a09 85000000 		.4byte	0x85
 6380 0a0d 02       		.byte	0x2
 6381 0a0e 91       		.byte	0x91
 6382 0a0f 74       		.sleb128 -12
 6383 0a10 00       		.byte	0
 6384 0a11 16       		.uleb128 0x16
 6385 0a12 01       		.byte	0x1
 6386 0a13 80050000 		.4byte	.LASF81
 6387 0a17 01       		.byte	0x1
 6388 0a18 A603     		.2byte	0x3a6
 6389 0a1a 01       		.byte	0x1
 6390 0a1b 90000000 		.4byte	0x90
 6391 0a1f 00000000 		.4byte	.LFB95
 6392 0a23 52000000 		.4byte	.LFE95
 6393 0a27 70080000 		.4byte	.LLST39
 6394 0a2b 01       		.byte	0x1
 6395 0a2c 5E0A0000 		.4byte	0xa5e
 6396 0a30 12       		.uleb128 0x12
 6397 0a31 BE050000 		.4byte	.LASF56
 6398 0a35 01       		.byte	0x1
 6399 0a36 A603     		.2byte	0x3a6
 6400 0a38 7A000000 		.4byte	0x7a
 6401 0a3c 02       		.byte	0x2
 6402 0a3d 91       		.byte	0x91
 6403 0a3e 6F       		.sleb128 -17
 6404 0a3f 13       		.uleb128 0x13
 6405 0a40 636D6400 		.ascii	"cmd\000"
 6406 0a44 01       		.byte	0x1
 6407 0a45 A603     		.2byte	0x3a6
ARM GAS  C:\Users\CHUCK~1.ERH\AppData\Local\Temp\cclfQUCJ.s 			page 146


 6408 0a47 6C000000 		.4byte	0x6c
 6409 0a4b 02       		.byte	0x2
 6410 0a4c 91       		.byte	0x91
 6411 0a4d 68       		.sleb128 -24
 6412 0a4e 14       		.uleb128 0x14
 6413 0a4f 02070000 		.4byte	.LASF82
 6414 0a53 01       		.byte	0x1
 6415 0a54 A803     		.2byte	0x3a8
 6416 0a56 90000000 		.4byte	0x90
 6417 0a5a 02       		.byte	0x2
 6418 0a5b 91       		.byte	0x91
 6419 0a5c 74       		.sleb128 -12
 6420 0a5d 00       		.byte	0
 6421 0a5e 16       		.uleb128 0x16
 6422 0a5f 01       		.byte	0x1
 6423 0a60 75020000 		.4byte	.LASF83
 6424 0a64 01       		.byte	0x1
 6425 0a65 B903     		.2byte	0x3b9
 6426 0a67 01       		.byte	0x1
 6427 0a68 85000000 		.4byte	0x85
 6428 0a6c 00000000 		.4byte	.LFB96
 6429 0a70 48000000 		.4byte	.LFE96
 6430 0a74 A8080000 		.4byte	.LLST40
 6431 0a78 01       		.byte	0x1
 6432 0a79 AB0A0000 		.4byte	0xaab
 6433 0a7d 12       		.uleb128 0x12
 6434 0a7e BE050000 		.4byte	.LASF56
 6435 0a82 01       		.byte	0x1
 6436 0a83 B903     		.2byte	0x3b9
 6437 0a85 7A000000 		.4byte	0x7a
 6438 0a89 02       		.byte	0x2
 6439 0a8a 91       		.byte	0x91
 6440 0a8b 6F       		.sleb128 -17
 6441 0a8c 14       		.uleb128 0x14
 6442 0a8d 18070000 		.4byte	.LASF84
 6443 0a91 01       		.byte	0x1
 6444 0a92 BB03     		.2byte	0x3bb
 6445 0a94 85000000 		.4byte	0x85
 6446 0a98 02       		.byte	0x2
 6447 0a99 91       		.byte	0x91
 6448 0a9a 74       		.sleb128 -12
 6449 0a9b 14       		.uleb128 0x14
 6450 0a9c 42030000 		.4byte	.LASF85
 6451 0aa0 01       		.byte	0x1
 6452 0aa1 BB03     		.2byte	0x3bb
 6453 0aa3 85000000 		.4byte	0x85
 6454 0aa7 02       		.byte	0x2
 6455 0aa8 91       		.byte	0x91
 6456 0aa9 76       		.sleb128 -10
 6457 0aaa 00       		.byte	0
 6458 0aab 16       		.uleb128 0x16
 6459 0aac 01       		.byte	0x1
 6460 0aad 2B010000 		.4byte	.LASF86
 6461 0ab1 01       		.byte	0x1
 6462 0ab2 CF03     		.2byte	0x3cf
 6463 0ab4 01       		.byte	0x1
 6464 0ab5 85000000 		.4byte	0x85
ARM GAS  C:\Users\CHUCK~1.ERH\AppData\Local\Temp\cclfQUCJ.s 			page 147


 6465 0ab9 00000000 		.4byte	.LFB97
 6466 0abd 48000000 		.4byte	.LFE97
 6467 0ac1 E0080000 		.4byte	.LLST41
 6468 0ac5 01       		.byte	0x1
 6469 0ac6 F80A0000 		.4byte	0xaf8
 6470 0aca 12       		.uleb128 0x12
 6471 0acb BE050000 		.4byte	.LASF56
 6472 0acf 01       		.byte	0x1
 6473 0ad0 CF03     		.2byte	0x3cf
 6474 0ad2 7A000000 		.4byte	0x7a
 6475 0ad6 02       		.byte	0x2
 6476 0ad7 91       		.byte	0x91
 6477 0ad8 6F       		.sleb128 -17
 6478 0ad9 14       		.uleb128 0x14
 6479 0ada 18070000 		.4byte	.LASF84
 6480 0ade 01       		.byte	0x1
 6481 0adf D103     		.2byte	0x3d1
 6482 0ae1 85000000 		.4byte	0x85
 6483 0ae5 02       		.byte	0x2
 6484 0ae6 91       		.byte	0x91
 6485 0ae7 74       		.sleb128 -12
 6486 0ae8 14       		.uleb128 0x14
 6487 0ae9 42030000 		.4byte	.LASF85
 6488 0aed 01       		.byte	0x1
 6489 0aee D103     		.2byte	0x3d1
 6490 0af0 85000000 		.4byte	0x85
 6491 0af4 02       		.byte	0x2
 6492 0af5 91       		.byte	0x91
 6493 0af6 76       		.sleb128 -10
 6494 0af7 00       		.byte	0
 6495 0af8 11       		.uleb128 0x11
 6496 0af9 01       		.byte	0x1
 6497 0afa 1A080000 		.4byte	.LASF87
 6498 0afe 01       		.byte	0x1
 6499 0aff EE03     		.2byte	0x3ee
 6500 0b01 01       		.byte	0x1
 6501 0b02 00000000 		.4byte	.LFB98
 6502 0b06 B6000000 		.4byte	.LFE98
 6503 0b0a 18090000 		.4byte	.LLST42
 6504 0b0e 01       		.byte	0x1
 6505 0b0f 8C0B0000 		.4byte	0xb8c
 6506 0b13 12       		.uleb128 0x12
 6507 0b14 BE050000 		.4byte	.LASF56
 6508 0b18 01       		.byte	0x1
 6509 0b19 EE03     		.2byte	0x3ee
 6510 0b1b 7A000000 		.4byte	0x7a
 6511 0b1f 02       		.byte	0x2
 6512 0b20 91       		.byte	0x91
 6513 0b21 6F       		.sleb128 -17
 6514 0b22 12       		.uleb128 0x12
 6515 0b23 FA010000 		.4byte	.LASF88
 6516 0b27 01       		.byte	0x1
 6517 0b28 EE03     		.2byte	0x3ee
 6518 0b2a 85000000 		.4byte	0x85
 6519 0b2e 02       		.byte	0x2
 6520 0b2f 91       		.byte	0x91
 6521 0b30 6C       		.sleb128 -20
ARM GAS  C:\Users\CHUCK~1.ERH\AppData\Local\Temp\cclfQUCJ.s 			page 148


 6522 0b31 12       		.uleb128 0x12
 6523 0b32 63000000 		.4byte	.LASF89
 6524 0b36 01       		.byte	0x1
 6525 0b37 EE03     		.2byte	0x3ee
 6526 0b39 02020000 		.4byte	0x202
 6527 0b3d 02       		.byte	0x2
 6528 0b3e 91       		.byte	0x91
 6529 0b3f 68       		.sleb128 -24
 6530 0b40 12       		.uleb128 0x12
 6531 0b41 A6050000 		.4byte	.LASF28
 6532 0b45 01       		.byte	0x1
 6533 0b46 EE03     		.2byte	0x3ee
 6534 0b48 85000000 		.4byte	0x85
 6535 0b4c 02       		.byte	0x2
 6536 0b4d 91       		.byte	0x91
 6537 0b4e 66       		.sleb128 -26
 6538 0b4f 14       		.uleb128 0x14
 6539 0b50 1E070000 		.4byte	.LASF27
 6540 0b54 01       		.byte	0x1
 6541 0b55 F003     		.2byte	0x3f0
 6542 0b57 85000000 		.4byte	0x85
 6543 0b5b 02       		.byte	0x2
 6544 0b5c 91       		.byte	0x91
 6545 0b5d 72       		.sleb128 -14
 6546 0b5e 14       		.uleb128 0x14
 6547 0b5f B6010000 		.4byte	.LASF90
 6548 0b63 01       		.byte	0x1
 6549 0b64 F103     		.2byte	0x3f1
 6550 0b66 85000000 		.4byte	0x85
 6551 0b6a 02       		.byte	0x2
 6552 0b6b 91       		.byte	0x91
 6553 0b6c 76       		.sleb128 -10
 6554 0b6d 14       		.uleb128 0x14
 6555 0b6e 28060000 		.4byte	.LASF91
 6556 0b72 01       		.byte	0x1
 6557 0b73 F203     		.2byte	0x3f2
 6558 0b75 85000000 		.4byte	0x85
 6559 0b79 02       		.byte	0x2
 6560 0b7a 91       		.byte	0x91
 6561 0b7b 74       		.sleb128 -12
 6562 0b7c 14       		.uleb128 0x14
 6563 0b7d B1040000 		.4byte	.LASF57
 6564 0b81 01       		.byte	0x1
 6565 0b82 F303     		.2byte	0x3f3
 6566 0b84 85000000 		.4byte	0x85
 6567 0b88 02       		.byte	0x2
 6568 0b89 91       		.byte	0x91
 6569 0b8a 70       		.sleb128 -16
 6570 0b8b 00       		.byte	0
 6571 0b8c 11       		.uleb128 0x11
 6572 0b8d 01       		.byte	0x1
 6573 0b8e 63060000 		.4byte	.LASF92
 6574 0b92 01       		.byte	0x1
 6575 0b93 2604     		.2byte	0x426
 6576 0b95 01       		.byte	0x1
 6577 0b96 00000000 		.4byte	.LFB99
 6578 0b9a C2000000 		.4byte	.LFE99
ARM GAS  C:\Users\CHUCK~1.ERH\AppData\Local\Temp\cclfQUCJ.s 			page 149


 6579 0b9e 50090000 		.4byte	.LLST43
 6580 0ba2 01       		.byte	0x1
 6581 0ba3 2F0C0000 		.4byte	0xc2f
 6582 0ba7 12       		.uleb128 0x12
 6583 0ba8 BE050000 		.4byte	.LASF56
 6584 0bac 01       		.byte	0x1
 6585 0bad 2604     		.2byte	0x426
 6586 0baf 7A000000 		.4byte	0x7a
 6587 0bb3 02       		.byte	0x2
 6588 0bb4 91       		.byte	0x91
 6589 0bb5 6F       		.sleb128 -17
 6590 0bb6 12       		.uleb128 0x12
 6591 0bb7 FA010000 		.4byte	.LASF88
 6592 0bbb 01       		.byte	0x1
 6593 0bbc 2604     		.2byte	0x426
 6594 0bbe 85000000 		.4byte	0x85
 6595 0bc2 02       		.byte	0x2
 6596 0bc3 91       		.byte	0x91
 6597 0bc4 6C       		.sleb128 -20
 6598 0bc5 12       		.uleb128 0x12
 6599 0bc6 63000000 		.4byte	.LASF89
 6600 0bca 01       		.byte	0x1
 6601 0bcb 2604     		.2byte	0x426
 6602 0bcd 02020000 		.4byte	0x202
 6603 0bd1 02       		.byte	0x2
 6604 0bd2 91       		.byte	0x91
 6605 0bd3 68       		.sleb128 -24
 6606 0bd4 12       		.uleb128 0x12
 6607 0bd5 A6050000 		.4byte	.LASF28
 6608 0bd9 01       		.byte	0x1
 6609 0bda 2604     		.2byte	0x426
 6610 0bdc 85000000 		.4byte	0x85
 6611 0be0 02       		.byte	0x2
 6612 0be1 91       		.byte	0x91
 6613 0be2 66       		.sleb128 -26
 6614 0be3 12       		.uleb128 0x12
 6615 0be4 50000000 		.4byte	.LASF93
 6616 0be8 01       		.byte	0x1
 6617 0be9 2604     		.2byte	0x426
 6618 0beb 7A000000 		.4byte	0x7a
 6619 0bef 02       		.byte	0x2
 6620 0bf0 91       		.byte	0x91
 6621 0bf1 00       		.sleb128 0
 6622 0bf2 14       		.uleb128 0x14
 6623 0bf3 1E070000 		.4byte	.LASF27
 6624 0bf7 01       		.byte	0x1
 6625 0bf8 2804     		.2byte	0x428
 6626 0bfa 85000000 		.4byte	0x85
 6627 0bfe 02       		.byte	0x2
 6628 0bff 91       		.byte	0x91
 6629 0c00 72       		.sleb128 -14
 6630 0c01 14       		.uleb128 0x14
 6631 0c02 B6010000 		.4byte	.LASF90
 6632 0c06 01       		.byte	0x1
 6633 0c07 2904     		.2byte	0x429
 6634 0c09 85000000 		.4byte	0x85
 6635 0c0d 02       		.byte	0x2
ARM GAS  C:\Users\CHUCK~1.ERH\AppData\Local\Temp\cclfQUCJ.s 			page 150


 6636 0c0e 91       		.byte	0x91
 6637 0c0f 76       		.sleb128 -10
 6638 0c10 14       		.uleb128 0x14
 6639 0c11 28060000 		.4byte	.LASF91
 6640 0c15 01       		.byte	0x1
 6641 0c16 2A04     		.2byte	0x42a
 6642 0c18 85000000 		.4byte	0x85
 6643 0c1c 02       		.byte	0x2
 6644 0c1d 91       		.byte	0x91
 6645 0c1e 74       		.sleb128 -12
 6646 0c1f 14       		.uleb128 0x14
 6647 0c20 B1040000 		.4byte	.LASF57
 6648 0c24 01       		.byte	0x1
 6649 0c25 2B04     		.2byte	0x42b
 6650 0c27 85000000 		.4byte	0x85
 6651 0c2b 02       		.byte	0x2
 6652 0c2c 91       		.byte	0x91
 6653 0c2d 70       		.sleb128 -16
 6654 0c2e 00       		.byte	0
 6655 0c2f 11       		.uleb128 0x11
 6656 0c30 01       		.byte	0x1
 6657 0c31 41050000 		.4byte	.LASF94
 6658 0c35 01       		.byte	0x1
 6659 0c36 5C04     		.2byte	0x45c
 6660 0c38 01       		.byte	0x1
 6661 0c39 00000000 		.4byte	.LFB100
 6662 0c3d 0E010000 		.4byte	.LFE100
 6663 0c41 88090000 		.4byte	.LLST44
 6664 0c45 01       		.byte	0x1
 6665 0c46 950C0000 		.4byte	0xc95
 6666 0c4a 13       		.uleb128 0x13
 6667 0c4b 6D616300 		.ascii	"mac\000"
 6668 0c4f 01       		.byte	0x1
 6669 0c50 5C04     		.2byte	0x45c
 6670 0c52 02020000 		.4byte	0x202
 6671 0c56 02       		.byte	0x2
 6672 0c57 91       		.byte	0x91
 6673 0c58 6C       		.sleb128 -20
 6674 0c59 13       		.uleb128 0x13
 6675 0c5a 697000   		.ascii	"ip\000"
 6676 0c5d 01       		.byte	0x1
 6677 0c5e 5C04     		.2byte	0x45c
 6678 0c60 90000000 		.4byte	0x90
 6679 0c64 02       		.byte	0x2
 6680 0c65 91       		.byte	0x91
 6681 0c66 68       		.sleb128 -24
 6682 0c67 12       		.uleb128 0x12
 6683 0c68 18020000 		.4byte	.LASF95
 6684 0c6c 01       		.byte	0x1
 6685 0c6d 5C04     		.2byte	0x45c
 6686 0c6f 90000000 		.4byte	0x90
 6687 0c73 02       		.byte	0x2
 6688 0c74 91       		.byte	0x91
 6689 0c75 64       		.sleb128 -28
 6690 0c76 12       		.uleb128 0x12
 6691 0c77 0B010000 		.4byte	.LASF96
 6692 0c7b 01       		.byte	0x1
ARM GAS  C:\Users\CHUCK~1.ERH\AppData\Local\Temp\cclfQUCJ.s 			page 151


 6693 0c7c 5C04     		.2byte	0x45c
 6694 0c7e 90000000 		.4byte	0x90
 6695 0c82 02       		.byte	0x2
 6696 0c83 91       		.byte	0x91
 6697 0c84 60       		.sleb128 -32
 6698 0c85 14       		.uleb128 0x14
 6699 0c86 BB010000 		.4byte	.LASF97
 6700 0c8a 01       		.byte	0x1
 6701 0c8b 6304     		.2byte	0x463
 6702 0c8d 6C000000 		.4byte	0x6c
 6703 0c91 02       		.byte	0x2
 6704 0c92 91       		.byte	0x91
 6705 0c93 74       		.sleb128 -12
 6706 0c94 00       		.byte	0
 6707 0c95 11       		.uleb128 0x11
 6708 0c96 01       		.byte	0x1
 6709 0c97 46000000 		.4byte	.LASF98
 6710 0c9b 01       		.byte	0x1
 6711 0c9c 8804     		.2byte	0x488
 6712 0c9e 01       		.byte	0x1
 6713 0c9f 00000000 		.4byte	.LFB101
 6714 0ca3 D2000000 		.4byte	.LFE101
 6715 0ca7 C0090000 		.4byte	.LLST45
 6716 0cab 01       		.byte	0x1
 6717 0cac DD0C0000 		.4byte	0xcdd
 6718 0cb0 15       		.uleb128 0x15
 6719 0cb1 697000   		.ascii	"ip\000"
 6720 0cb4 01       		.byte	0x1
 6721 0cb5 8A04     		.2byte	0x48a
 6722 0cb7 90000000 		.4byte	0x90
 6723 0cbb 02       		.byte	0x2
 6724 0cbc 91       		.byte	0x91
 6725 0cbd 74       		.sleb128 -12
 6726 0cbe 14       		.uleb128 0x14
 6727 0cbf 0B010000 		.4byte	.LASF96
 6728 0cc3 01       		.byte	0x1
 6729 0cc4 8B04     		.2byte	0x48b
 6730 0cc6 90000000 		.4byte	0x90
 6731 0cca 02       		.byte	0x2
 6732 0ccb 91       		.byte	0x91
 6733 0ccc 6C       		.sleb128 -20
 6734 0ccd 15       		.uleb128 0x15
 6735 0cce 73756200 		.ascii	"sub\000"
 6736 0cd2 01       		.byte	0x1
 6737 0cd3 8C04     		.2byte	0x48c
 6738 0cd5 90000000 		.4byte	0x90
 6739 0cd9 02       		.byte	0x2
 6740 0cda 91       		.byte	0x91
 6741 0cdb 70       		.sleb128 -16
 6742 0cdc 00       		.byte	0
 6743 0cdd 16       		.uleb128 0x16
 6744 0cde 01       		.byte	0x1
 6745 0cdf 23070000 		.4byte	.LASF99
 6746 0ce3 01       		.byte	0x1
 6747 0ce4 AB04     		.2byte	0x4ab
 6748 0ce6 01       		.byte	0x1
 6749 0ce7 90000000 		.4byte	0x90
ARM GAS  C:\Users\CHUCK~1.ERH\AppData\Local\Temp\cclfQUCJ.s 			page 152


 6750 0ceb 00000000 		.4byte	.LFB102
 6751 0cef 4E010000 		.4byte	.LFE102
 6752 0cf3 F8090000 		.4byte	.LLST46
 6753 0cf7 01       		.byte	0x1
 6754 0cf8 560D0000 		.4byte	0xd56
 6755 0cfc 12       		.uleb128 0x12
 6756 0cfd F2040000 		.4byte	.LASF100
 6757 0d01 01       		.byte	0x1
 6758 0d02 AB04     		.2byte	0x4ab
 6759 0d04 C8000000 		.4byte	0xc8
 6760 0d08 02       		.byte	0x2
 6761 0d09 91       		.byte	0x91
 6762 0d0a 54       		.sleb128 -44
 6763 0d0b 14       		.uleb128 0x14
 6764 0d0c BB010000 		.4byte	.LASF97
 6765 0d10 01       		.byte	0x1
 6766 0d11 B004     		.2byte	0x4b0
 6767 0d13 6C000000 		.4byte	0x6c
 6768 0d17 02       		.byte	0x2
 6769 0d18 91       		.byte	0x91
 6770 0d19 6C       		.sleb128 -20
 6771 0d1a 14       		.uleb128 0x14
 6772 0d1b A2040000 		.4byte	.LASF101
 6773 0d1f 01       		.byte	0x1
 6774 0d20 B104     		.2byte	0x4b1
 6775 0d22 560D0000 		.4byte	0xd56
 6776 0d26 02       		.byte	0x2
 6777 0d27 91       		.byte	0x91
 6778 0d28 5C       		.sleb128 -36
 6779 0d29 15       		.uleb128 0x15
 6780 0d2a 697000   		.ascii	"ip\000"
 6781 0d2d 01       		.byte	0x1
 6782 0d2e B204     		.2byte	0x4b2
 6783 0d30 D3000000 		.4byte	0xd3
 6784 0d34 02       		.byte	0x2
 6785 0d35 91       		.byte	0x91
 6786 0d36 58       		.sleb128 -40
 6787 0d37 14       		.uleb128 0x14
 6788 0d38 9E020000 		.4byte	.LASF102
 6789 0d3c 01       		.byte	0x1
 6790 0d3d B304     		.2byte	0x4b3
 6791 0d3f 6C000000 		.4byte	0x6c
 6792 0d43 02       		.byte	0x2
 6793 0d44 91       		.byte	0x91
 6794 0d45 68       		.sleb128 -24
 6795 0d46 14       		.uleb128 0x14
 6796 0d47 28030000 		.4byte	.LASF103
 6797 0d4b 01       		.byte	0x1
 6798 0d4c B404     		.2byte	0x4b4
 6799 0d4e 6C000000 		.4byte	0x6c
 6800 0d52 02       		.byte	0x2
 6801 0d53 91       		.byte	0x91
 6802 0d54 64       		.sleb128 -28
 6803 0d55 00       		.byte	0
 6804 0d56 07       		.uleb128 0x7
 6805 0d57 A9000000 		.4byte	0xa9
 6806 0d5b 660D0000 		.4byte	0xd66
ARM GAS  C:\Users\CHUCK~1.ERH\AppData\Local\Temp\cclfQUCJ.s 			page 153


 6807 0d5f 08       		.uleb128 0x8
 6808 0d60 BB000000 		.4byte	0xbb
 6809 0d64 04       		.byte	0x4
 6810 0d65 00       		.byte	0
 6811 0d66 18       		.uleb128 0x18
 6812 0d67 01       		.byte	0x1
 6813 0d68 23040000 		.4byte	.LASF104
 6814 0d6c 01       		.byte	0x1
 6815 0d6d E004     		.2byte	0x4e0
 6816 0d6f 01       		.byte	0x1
 6817 0d70 B0000000 		.4byte	0xb0
 6818 0d74 00000000 		.4byte	.LFB103
 6819 0d78 5A020000 		.4byte	.LFE103
 6820 0d7c 300A0000 		.4byte	.LLST47
 6821 0d80 01       		.byte	0x1
 6822 0d81 D10D0000 		.4byte	0xdd1
 6823 0d85 12       		.uleb128 0x12
 6824 0d86 A6020000 		.4byte	.LASF105
 6825 0d8a 01       		.byte	0x1
 6826 0d8b E004     		.2byte	0x4e0
 6827 0d8d C8000000 		.4byte	0xc8
 6828 0d91 02       		.byte	0x2
 6829 0d92 91       		.byte	0x91
 6830 0d93 64       		.sleb128 -28
 6831 0d94 13       		.uleb128 0x13
 6832 0d95 6D616300 		.ascii	"mac\000"
 6833 0d99 01       		.byte	0x1
 6834 0d9a E004     		.2byte	0x4e0
 6835 0d9c 02020000 		.4byte	0x202
 6836 0da0 02       		.byte	0x2
 6837 0da1 91       		.byte	0x91
 6838 0da2 60       		.sleb128 -32
 6839 0da3 14       		.uleb128 0x14
 6840 0da4 A2040000 		.4byte	.LASF101
 6841 0da8 01       		.byte	0x1
 6842 0da9 E804     		.2byte	0x4e8
 6843 0dab 6C000000 		.4byte	0x6c
 6844 0daf 02       		.byte	0x2
 6845 0db0 91       		.byte	0x91
 6846 0db1 74       		.sleb128 -12
 6847 0db2 14       		.uleb128 0x14
 6848 0db3 BB010000 		.4byte	.LASF97
 6849 0db7 01       		.byte	0x1
 6850 0db8 E904     		.2byte	0x4e9
 6851 0dba 6C000000 		.4byte	0x6c
 6852 0dbe 02       		.byte	0x2
 6853 0dbf 91       		.byte	0x91
 6854 0dc0 70       		.sleb128 -16
 6855 0dc1 14       		.uleb128 0x14
 6856 0dc2 DC010000 		.4byte	.LASF106
 6857 0dc6 01       		.byte	0x1
 6858 0dc7 EA04     		.2byte	0x4ea
 6859 0dc9 B0000000 		.4byte	0xb0
 6860 0dcd 02       		.byte	0x2
 6861 0dce 91       		.byte	0x91
 6862 0dcf 6C       		.sleb128 -20
 6863 0dd0 00       		.byte	0
ARM GAS  C:\Users\CHUCK~1.ERH\AppData\Local\Temp\cclfQUCJ.s 			page 154


 6864 0dd1 17       		.uleb128 0x17
 6865 0dd2 01       		.byte	0x1
 6866 0dd3 0A070000 		.4byte	.LASF107
 6867 0dd7 01       		.byte	0x1
 6868 0dd8 0D05     		.2byte	0x50d
 6869 0dda 01       		.byte	0x1
 6870 0ddb 00000000 		.4byte	.LFB104
 6871 0ddf F2000000 		.4byte	.LFE104
 6872 0de3 680A0000 		.4byte	.LLST48
 6873 0de7 01       		.byte	0x1
 6874 0de8 290E0000 		.4byte	0xe29
 6875 0dec 13       		.uleb128 0x13
 6876 0ded 6D616300 		.ascii	"mac\000"
 6877 0df1 01       		.byte	0x1
 6878 0df2 0D05     		.2byte	0x50d
 6879 0df4 02020000 		.4byte	0x202
 6880 0df8 02       		.byte	0x2
 6881 0df9 91       		.byte	0x91
 6882 0dfa 6C       		.sleb128 -20
 6883 0dfb 12       		.uleb128 0x12
 6884 0dfc A6020000 		.4byte	.LASF105
 6885 0e00 01       		.byte	0x1
 6886 0e01 0D05     		.2byte	0x50d
 6887 0e03 C2000000 		.4byte	0xc2
 6888 0e07 02       		.byte	0x2
 6889 0e08 91       		.byte	0x91
 6890 0e09 68       		.sleb128 -24
 6891 0e0a 14       		.uleb128 0x14
 6892 0e0b A2040000 		.4byte	.LASF101
 6893 0e0f 01       		.byte	0x1
 6894 0e10 0F05     		.2byte	0x50f
 6895 0e12 6C000000 		.4byte	0x6c
 6896 0e16 02       		.byte	0x2
 6897 0e17 91       		.byte	0x91
 6898 0e18 74       		.sleb128 -12
 6899 0e19 14       		.uleb128 0x14
 6900 0e1a BB010000 		.4byte	.LASF97
 6901 0e1e 01       		.byte	0x1
 6902 0e1f 1005     		.2byte	0x510
 6903 0e21 6C000000 		.4byte	0x6c
 6904 0e25 02       		.byte	0x2
 6905 0e26 91       		.byte	0x91
 6906 0e27 70       		.sleb128 -16
 6907 0e28 00       		.byte	0
 6908 0e29 17       		.uleb128 0x17
 6909 0e2a 01       		.byte	0x1
 6910 0e2b 34050000 		.4byte	.LASF108
 6911 0e2f 01       		.byte	0x1
 6912 0e30 2305     		.2byte	0x523
 6913 0e32 01       		.byte	0x1
 6914 0e33 00000000 		.4byte	.LFB105
 6915 0e37 16010000 		.4byte	.LFE105
 6916 0e3b A00A0000 		.4byte	.LLST49
 6917 0e3f 01       		.byte	0x1
 6918 0e40 AD0E0000 		.4byte	0xead
 6919 0e44 13       		.uleb128 0x13
 6920 0e45 697000   		.ascii	"ip\000"
ARM GAS  C:\Users\CHUCK~1.ERH\AppData\Local\Temp\cclfQUCJ.s 			page 155


 6921 0e48 01       		.byte	0x1
 6922 0e49 2305     		.2byte	0x523
 6923 0e4b 90000000 		.4byte	0x90
 6924 0e4f 02       		.byte	0x2
 6925 0e50 91       		.byte	0x91
 6926 0e51 5C       		.sleb128 -36
 6927 0e52 12       		.uleb128 0x12
 6928 0e53 F2040000 		.4byte	.LASF100
 6929 0e57 01       		.byte	0x1
 6930 0e58 2305     		.2byte	0x523
 6931 0e5a C2000000 		.4byte	0xc2
 6932 0e5e 02       		.byte	0x2
 6933 0e5f 91       		.byte	0x91
 6934 0e60 58       		.sleb128 -40
 6935 0e61 14       		.uleb128 0x14
 6936 0e62 08040000 		.4byte	.LASF109
 6937 0e66 01       		.byte	0x1
 6938 0e67 2505     		.2byte	0x525
 6939 0e69 02020000 		.4byte	0x202
 6940 0e6d 02       		.byte	0x2
 6941 0e6e 91       		.byte	0x91
 6942 0e6f 68       		.sleb128 -24
 6943 0e70 14       		.uleb128 0x14
 6944 0e71 BB010000 		.4byte	.LASF97
 6945 0e75 01       		.byte	0x1
 6946 0e76 2605     		.2byte	0x526
 6947 0e78 6C000000 		.4byte	0x6c
 6948 0e7c 02       		.byte	0x2
 6949 0e7d 91       		.byte	0x91
 6950 0e7e 74       		.sleb128 -12
 6951 0e7f 14       		.uleb128 0x14
 6952 0e80 A2040000 		.4byte	.LASF101
 6953 0e84 01       		.byte	0x1
 6954 0e85 2705     		.2byte	0x527
 6955 0e87 6C000000 		.4byte	0x6c
 6956 0e8b 02       		.byte	0x2
 6957 0e8c 91       		.byte	0x91
 6958 0e8d 70       		.sleb128 -16
 6959 0e8e 14       		.uleb128 0x14
 6960 0e8f B9050000 		.4byte	.LASF110
 6961 0e93 01       		.byte	0x1
 6962 0e94 2805     		.2byte	0x528
 6963 0e96 6C000000 		.4byte	0x6c
 6964 0e9a 02       		.byte	0x2
 6965 0e9b 91       		.byte	0x91
 6966 0e9c 6C       		.sleb128 -20
 6967 0e9d 14       		.uleb128 0x14
 6968 0e9e B4050000 		.4byte	.LASF111
 6969 0ea2 01       		.byte	0x1
 6970 0ea3 2805     		.2byte	0x528
 6971 0ea5 6C000000 		.4byte	0x6c
 6972 0ea9 02       		.byte	0x2
 6973 0eaa 91       		.byte	0x91
 6974 0eab 64       		.sleb128 -28
 6975 0eac 00       		.byte	0
 6976 0ead 16       		.uleb128 0x16
 6977 0eae 01       		.byte	0x1
ARM GAS  C:\Users\CHUCK~1.ERH\AppData\Local\Temp\cclfQUCJ.s 			page 156


 6978 0eaf 6C010000 		.4byte	.LASF112
 6979 0eb3 01       		.byte	0x1
 6980 0eb4 4405     		.2byte	0x544
 6981 0eb6 01       		.byte	0x1
 6982 0eb7 7A000000 		.4byte	0x7a
 6983 0ebb 00000000 		.4byte	.LFB106
 6984 0ebf 34000000 		.4byte	.LFE106
 6985 0ec3 D80A0000 		.4byte	.LLST50
 6986 0ec7 01       		.byte	0x1
 6987 0ec8 E90E0000 		.4byte	0xee9
 6988 0ecc 13       		.uleb128 0x13
 6989 0ecd 697000   		.ascii	"ip\000"
 6990 0ed0 01       		.byte	0x1
 6991 0ed1 4405     		.2byte	0x544
 6992 0ed3 90000000 		.4byte	0x90
 6993 0ed7 02       		.byte	0x2
 6994 0ed8 91       		.byte	0x91
 6995 0ed9 6C       		.sleb128 -20
 6996 0eda 15       		.uleb128 0x15
 6997 0edb 6F6B00   		.ascii	"ok\000"
 6998 0ede 01       		.byte	0x1
 6999 0edf 4605     		.2byte	0x546
 7000 0ee1 7A000000 		.4byte	0x7a
 7001 0ee5 02       		.byte	0x2
 7002 0ee6 91       		.byte	0x91
 7003 0ee7 77       		.sleb128 -9
 7004 0ee8 00       		.byte	0
 7005 0ee9 19       		.uleb128 0x19
 7006 0eea 01       		.byte	0x1
 7007 0eeb 55030000 		.4byte	.LASF150
 7008 0eef 01       		.byte	0x1
 7009 0ef0 5105     		.2byte	0x551
 7010 0ef2 01       		.byte	0x1
 7011 0ef3 90000000 		.4byte	0x90
 7012 0ef7 00000000 		.4byte	.LFB107
 7013 0efb 0E000000 		.4byte	.LFE107
 7014 0eff 100B0000 		.4byte	.LLST51
 7015 0f03 01       		.byte	0x1
 7016 0f04 11       		.uleb128 0x11
 7017 0f05 01       		.byte	0x1
 7018 0f06 18040000 		.4byte	.LASF113
 7019 0f0a 01       		.byte	0x1
 7020 0f0b 5705     		.2byte	0x557
 7021 0f0d 01       		.byte	0x1
 7022 0f0e 00000000 		.4byte	.LFB108
 7023 0f12 16000000 		.4byte	.LFE108
 7024 0f16 3C0B0000 		.4byte	.LLST52
 7025 0f1a 01       		.byte	0x1
 7026 0f1b 2F0F0000 		.4byte	0xf2f
 7027 0f1f 13       		.uleb128 0x13
 7028 0f20 6D616300 		.ascii	"mac\000"
 7029 0f24 01       		.byte	0x1
 7030 0f25 5705     		.2byte	0x557
 7031 0f27 02020000 		.4byte	0x202
 7032 0f2b 02       		.byte	0x2
 7033 0f2c 91       		.byte	0x91
 7034 0f2d 74       		.sleb128 -12
ARM GAS  C:\Users\CHUCK~1.ERH\AppData\Local\Temp\cclfQUCJ.s 			page 157


 7035 0f2e 00       		.byte	0
 7036 0f2f 11       		.uleb128 0x11
 7037 0f30 01       		.byte	0x1
 7038 0f31 DD030000 		.4byte	.LASF114
 7039 0f35 01       		.byte	0x1
 7040 0f36 5D05     		.2byte	0x55d
 7041 0f38 01       		.byte	0x1
 7042 0f39 00000000 		.4byte	.LFB109
 7043 0f3d 16000000 		.4byte	.LFE109
 7044 0f41 740B0000 		.4byte	.LLST53
 7045 0f45 01       		.byte	0x1
 7046 0f46 5A0F0000 		.4byte	0xf5a
 7047 0f4a 13       		.uleb128 0x13
 7048 0f4b 6D616300 		.ascii	"mac\000"
 7049 0f4f 01       		.byte	0x1
 7050 0f50 5D05     		.2byte	0x55d
 7051 0f52 02020000 		.4byte	0x202
 7052 0f56 02       		.byte	0x2
 7053 0f57 91       		.byte	0x91
 7054 0f58 74       		.sleb128 -12
 7055 0f59 00       		.byte	0
 7056 0f5a 16       		.uleb128 0x16
 7057 0f5b 01       		.byte	0x1
 7058 0f5c 60080000 		.4byte	.LASF115
 7059 0f60 01       		.byte	0x1
 7060 0f61 6705     		.2byte	0x567
 7061 0f63 01       		.byte	0x1
 7062 0f64 7A000000 		.4byte	0x7a
 7063 0f68 00000000 		.4byte	.LFB110
 7064 0f6c 60010000 		.4byte	.LFE110
 7065 0f70 AC0B0000 		.4byte	.LLST54
 7066 0f74 01       		.byte	0x1
 7067 0f75 C50F0000 		.4byte	0xfc5
 7068 0f79 12       		.uleb128 0x12
 7069 0f7a A8040000 		.4byte	.LASF18
 7070 0f7e 01       		.byte	0x1
 7071 0f7f 6705     		.2byte	0x567
 7072 0f81 7A000000 		.4byte	0x7a
 7073 0f85 02       		.byte	0x2
 7074 0f86 91       		.byte	0x91
 7075 0f87 6F       		.sleb128 -17
 7076 0f88 12       		.uleb128 0x12
 7077 0f89 97060000 		.4byte	.LASF69
 7078 0f8d 01       		.byte	0x1
 7079 0f8e 6705     		.2byte	0x567
 7080 0f90 85000000 		.4byte	0x85
 7081 0f94 02       		.byte	0x2
 7082 0f95 91       		.byte	0x91
 7083 0f96 6C       		.sleb128 -20
 7084 0f97 12       		.uleb128 0x12
 7085 0f98 50000000 		.4byte	.LASF93
 7086 0f9c 01       		.byte	0x1
 7087 0f9d 6705     		.2byte	0x567
 7088 0f9f 7A000000 		.4byte	0x7a
 7089 0fa3 02       		.byte	0x2
 7090 0fa4 91       		.byte	0x91
 7091 0fa5 6E       		.sleb128 -18
ARM GAS  C:\Users\CHUCK~1.ERH\AppData\Local\Temp\cclfQUCJ.s 			page 158


 7092 0fa6 14       		.uleb128 0x14
 7093 0fa7 BE050000 		.4byte	.LASF56
 7094 0fab 01       		.byte	0x1
 7095 0fac 6905     		.2byte	0x569
 7096 0fae 7A000000 		.4byte	0x7a
 7097 0fb2 02       		.byte	0x2
 7098 0fb3 91       		.byte	0x91
 7099 0fb4 77       		.sleb128 -9
 7100 0fb5 14       		.uleb128 0x14
 7101 0fb6 BB010000 		.4byte	.LASF97
 7102 0fba 01       		.byte	0x1
 7103 0fbb 6A05     		.2byte	0x56a
 7104 0fbd 6C000000 		.4byte	0x6c
 7105 0fc1 02       		.byte	0x2
 7106 0fc2 91       		.byte	0x91
 7107 0fc3 70       		.sleb128 -16
 7108 0fc4 00       		.byte	0
 7109 0fc5 11       		.uleb128 0x11
 7110 0fc6 01       		.byte	0x1
 7111 0fc7 10050000 		.4byte	.LASF116
 7112 0fcb 01       		.byte	0x1
 7113 0fcc 9B05     		.2byte	0x59b
 7114 0fce 01       		.byte	0x1
 7115 0fcf 00000000 		.4byte	.LFB111
 7116 0fd3 58000000 		.4byte	.LFE111
 7117 0fd7 E40B0000 		.4byte	.LLST55
 7118 0fdb 01       		.byte	0x1
 7119 0fdc F00F0000 		.4byte	0xff0
 7120 0fe0 12       		.uleb128 0x12
 7121 0fe1 BE050000 		.4byte	.LASF56
 7122 0fe5 01       		.byte	0x1
 7123 0fe6 9B05     		.2byte	0x59b
 7124 0fe8 7A000000 		.4byte	0x7a
 7125 0fec 02       		.byte	0x2
 7126 0fed 91       		.byte	0x91
 7127 0fee 77       		.sleb128 -9
 7128 0fef 00       		.byte	0
 7129 0ff0 16       		.uleb128 0x16
 7130 0ff1 01       		.byte	0x1
 7131 0ff2 7C030000 		.4byte	.LASF117
 7132 0ff6 01       		.byte	0x1
 7133 0ff7 AD05     		.2byte	0x5ad
 7134 0ff9 01       		.byte	0x1
 7135 0ffa 7A000000 		.4byte	0x7a
 7136 0ffe 00000000 		.4byte	.LFB112
 7137 1002 42000000 		.4byte	.LFE112
 7138 1006 1C0C0000 		.4byte	.LLST56
 7139 100a 01       		.byte	0x1
 7140 100b 2E100000 		.4byte	0x102e
 7141 100f 12       		.uleb128 0x12
 7142 1010 BE050000 		.4byte	.LASF56
 7143 1014 01       		.byte	0x1
 7144 1015 AD05     		.2byte	0x5ad
 7145 1017 7A000000 		.4byte	0x7a
 7146 101b 02       		.byte	0x2
 7147 101c 91       		.byte	0x91
 7148 101d 6F       		.sleb128 -17
ARM GAS  C:\Users\CHUCK~1.ERH\AppData\Local\Temp\cclfQUCJ.s 			page 159


 7149 101e 14       		.uleb128 0x14
 7150 101f AD050000 		.4byte	.LASF67
 7151 1023 01       		.byte	0x1
 7152 1024 AF05     		.2byte	0x5af
 7153 1026 7A000000 		.4byte	0x7a
 7154 102a 02       		.byte	0x2
 7155 102b 91       		.byte	0x91
 7156 102c 77       		.sleb128 -9
 7157 102d 00       		.byte	0
 7158 102e 16       		.uleb128 0x16
 7159 102f 01       		.byte	0x1
 7160 1030 B3030000 		.4byte	.LASF118
 7161 1034 01       		.byte	0x1
 7162 1035 BB05     		.2byte	0x5bb
 7163 1037 01       		.byte	0x1
 7164 1038 7A000000 		.4byte	0x7a
 7165 103c 00000000 		.4byte	.LFB113
 7166 1040 38000000 		.4byte	.LFE113
 7167 1044 540C0000 		.4byte	.LLST57
 7168 1048 01       		.byte	0x1
 7169 1049 6C100000 		.4byte	0x106c
 7170 104d 12       		.uleb128 0x12
 7171 104e BE050000 		.4byte	.LASF56
 7172 1052 01       		.byte	0x1
 7173 1053 BB05     		.2byte	0x5bb
 7174 1055 7A000000 		.4byte	0x7a
 7175 1059 02       		.byte	0x2
 7176 105a 91       		.byte	0x91
 7177 105b 6F       		.sleb128 -17
 7178 105c 14       		.uleb128 0x14
 7179 105d DC010000 		.4byte	.LASF106
 7180 1061 01       		.byte	0x1
 7181 1062 BD05     		.2byte	0x5bd
 7182 1064 7A000000 		.4byte	0x7a
 7183 1068 02       		.byte	0x2
 7184 1069 91       		.byte	0x91
 7185 106a 77       		.sleb128 -9
 7186 106b 00       		.byte	0
 7187 106c 11       		.uleb128 0x11
 7188 106d 01       		.byte	0x1
 7189 106e 65040000 		.4byte	.LASF119
 7190 1072 01       		.byte	0x1
 7191 1073 CB05     		.2byte	0x5cb
 7192 1075 01       		.byte	0x1
 7193 1076 00000000 		.4byte	.LFB114
 7194 107a 7E000000 		.4byte	.LFE114
 7195 107e 8C0C0000 		.4byte	.LLST58
 7196 1082 01       		.byte	0x1
 7197 1083 A5100000 		.4byte	0x10a5
 7198 1087 12       		.uleb128 0x12
 7199 1088 BE050000 		.4byte	.LASF56
 7200 108c 01       		.byte	0x1
 7201 108d CB05     		.2byte	0x5cb
 7202 108f 7A000000 		.4byte	0x7a
 7203 1093 02       		.byte	0x2
 7204 1094 91       		.byte	0x91
 7205 1095 6F       		.sleb128 -17
ARM GAS  C:\Users\CHUCK~1.ERH\AppData\Local\Temp\cclfQUCJ.s 			page 160


 7206 1096 15       		.uleb128 0x15
 7207 1097 697200   		.ascii	"ir\000"
 7208 109a 01       		.byte	0x1
 7209 109b CD05     		.2byte	0x5cd
 7210 109d 7A000000 		.4byte	0x7a
 7211 10a1 02       		.byte	0x2
 7212 10a2 91       		.byte	0x91
 7213 10a3 77       		.sleb128 -9
 7214 10a4 00       		.byte	0
 7215 10a5 11       		.uleb128 0x11
 7216 10a6 01       		.byte	0x1
 7217 10a7 17000000 		.4byte	.LASF120
 7218 10ab 01       		.byte	0x1
 7219 10ac E805     		.2byte	0x5e8
 7220 10ae 01       		.byte	0x1
 7221 10af 00000000 		.4byte	.LFB115
 7222 10b3 78000000 		.4byte	.LFE115
 7223 10b7 C40C0000 		.4byte	.LLST59
 7224 10bb 01       		.byte	0x1
 7225 10bc DE100000 		.4byte	0x10de
 7226 10c0 12       		.uleb128 0x12
 7227 10c1 BE050000 		.4byte	.LASF56
 7228 10c5 01       		.byte	0x1
 7229 10c6 E805     		.2byte	0x5e8
 7230 10c8 7A000000 		.4byte	0x7a
 7231 10cc 02       		.byte	0x2
 7232 10cd 91       		.byte	0x91
 7233 10ce 6F       		.sleb128 -17
 7234 10cf 15       		.uleb128 0x15
 7235 10d0 697200   		.ascii	"ir\000"
 7236 10d3 01       		.byte	0x1
 7237 10d4 EA05     		.2byte	0x5ea
 7238 10d6 7A000000 		.4byte	0x7a
 7239 10da 02       		.byte	0x2
 7240 10db 91       		.byte	0x91
 7241 10dc 77       		.sleb128 -9
 7242 10dd 00       		.byte	0
 7243 10de 16       		.uleb128 0x16
 7244 10df 01       		.byte	0x1
 7245 10e0 30040000 		.4byte	.LASF121
 7246 10e4 01       		.byte	0x1
 7247 10e5 FF05     		.2byte	0x5ff
 7248 10e7 01       		.byte	0x1
 7249 10e8 85000000 		.4byte	0x85
 7250 10ec 00000000 		.4byte	.LFB116
 7251 10f0 1E000000 		.4byte	.LFE116
 7252 10f4 FC0C0000 		.4byte	.LLST60
 7253 10f8 01       		.byte	0x1
 7254 10f9 0D110000 		.4byte	0x110d
 7255 10fd 12       		.uleb128 0x12
 7256 10fe BE050000 		.4byte	.LASF56
 7257 1102 01       		.byte	0x1
 7258 1103 FF05     		.2byte	0x5ff
 7259 1105 7A000000 		.4byte	0x7a
 7260 1109 02       		.byte	0x2
 7261 110a 91       		.byte	0x91
 7262 110b 77       		.sleb128 -9
ARM GAS  C:\Users\CHUCK~1.ERH\AppData\Local\Temp\cclfQUCJ.s 			page 161


 7263 110c 00       		.byte	0
 7264 110d 16       		.uleb128 0x16
 7265 110e 01       		.byte	0x1
 7266 110f E8030000 		.4byte	.LASF122
 7267 1113 01       		.byte	0x1
 7268 1114 0906     		.2byte	0x609
 7269 1116 01       		.byte	0x1
 7270 1117 7A000000 		.4byte	0x7a
 7271 111b 00000000 		.4byte	.LFB117
 7272 111f 26000000 		.4byte	.LFE117
 7273 1123 340D0000 		.4byte	.LLST61
 7274 1127 01       		.byte	0x1
 7275 1128 3C110000 		.4byte	0x113c
 7276 112c 12       		.uleb128 0x12
 7277 112d 97060000 		.4byte	.LASF69
 7278 1131 01       		.byte	0x1
 7279 1132 0906     		.2byte	0x609
 7280 1134 85000000 		.4byte	0x85
 7281 1138 02       		.byte	0x2
 7282 1139 91       		.byte	0x91
 7283 113a 76       		.sleb128 -10
 7284 113b 00       		.byte	0
 7285 113c 11       		.uleb128 0x11
 7286 113d 01       		.byte	0x1
 7287 113e AB060000 		.4byte	.LASF123
 7288 1142 01       		.byte	0x1
 7289 1143 0F06     		.2byte	0x60f
 7290 1145 01       		.byte	0x1
 7291 1146 00000000 		.4byte	.LFB118
 7292 114a 24000000 		.4byte	.LFE118
 7293 114e 6C0D0000 		.4byte	.LLST62
 7294 1152 01       		.byte	0x1
 7295 1153 67110000 		.4byte	0x1167
 7296 1157 12       		.uleb128 0x12
 7297 1158 BE050000 		.4byte	.LASF56
 7298 115c 01       		.byte	0x1
 7299 115d 0F06     		.2byte	0x60f
 7300 115f 7A000000 		.4byte	0x7a
 7301 1163 02       		.byte	0x2
 7302 1164 91       		.byte	0x91
 7303 1165 77       		.sleb128 -9
 7304 1166 00       		.byte	0
 7305 1167 11       		.uleb128 0x11
 7306 1168 01       		.byte	0x1
 7307 1169 87020000 		.4byte	.LASF124
 7308 116d 01       		.byte	0x1
 7309 116e 1C06     		.2byte	0x61c
 7310 1170 01       		.byte	0x1
 7311 1171 00000000 		.4byte	.LFB119
 7312 1175 5A000000 		.4byte	.LFE119
 7313 1179 A40D0000 		.4byte	.LLST63
 7314 117d 01       		.byte	0x1
 7315 117e A1110000 		.4byte	0x11a1
 7316 1182 12       		.uleb128 0x12
 7317 1183 BE050000 		.4byte	.LASF56
 7318 1187 01       		.byte	0x1
 7319 1188 1C06     		.2byte	0x61c
ARM GAS  C:\Users\CHUCK~1.ERH\AppData\Local\Temp\cclfQUCJ.s 			page 162


 7320 118a 7A000000 		.4byte	0x7a
 7321 118e 02       		.byte	0x2
 7322 118f 91       		.byte	0x91
 7323 1190 6F       		.sleb128 -17
 7324 1191 14       		.uleb128 0x14
 7325 1192 AD050000 		.4byte	.LASF67
 7326 1196 01       		.byte	0x1
 7327 1197 1E06     		.2byte	0x61e
 7328 1199 7A000000 		.4byte	0x7a
 7329 119d 02       		.byte	0x2
 7330 119e 91       		.byte	0x91
 7331 119f 77       		.sleb128 -9
 7332 11a0 00       		.byte	0
 7333 11a1 11       		.uleb128 0x11
 7334 11a2 01       		.byte	0x1
 7335 11a3 DD050000 		.4byte	.LASF125
 7336 11a7 01       		.byte	0x1
 7337 11a8 3006     		.2byte	0x630
 7338 11aa 01       		.byte	0x1
 7339 11ab 00000000 		.4byte	.LFB120
 7340 11af B0000000 		.4byte	.LFE120
 7341 11b3 DC0D0000 		.4byte	.LLST64
 7342 11b7 01       		.byte	0x1
 7343 11b8 06120000 		.4byte	0x1206
 7344 11bc 12       		.uleb128 0x12
 7345 11bd BE050000 		.4byte	.LASF56
 7346 11c1 01       		.byte	0x1
 7347 11c2 3006     		.2byte	0x630
 7348 11c4 7A000000 		.4byte	0x7a
 7349 11c8 02       		.byte	0x2
 7350 11c9 91       		.byte	0x91
 7351 11ca 6F       		.sleb128 -17
 7352 11cb 13       		.uleb128 0x13
 7353 11cc 697000   		.ascii	"ip\000"
 7354 11cf 01       		.byte	0x1
 7355 11d0 3006     		.2byte	0x630
 7356 11d2 90000000 		.4byte	0x90
 7357 11d6 02       		.byte	0x2
 7358 11d7 91       		.byte	0x91
 7359 11d8 68       		.sleb128 -24
 7360 11d9 12       		.uleb128 0x12
 7361 11da 97060000 		.4byte	.LASF69
 7362 11de 01       		.byte	0x1
 7363 11df 3006     		.2byte	0x630
 7364 11e1 85000000 		.4byte	0x85
 7365 11e5 02       		.byte	0x2
 7366 11e6 91       		.byte	0x91
 7367 11e7 6C       		.sleb128 -20
 7368 11e8 14       		.uleb128 0x14
 7369 11e9 02070000 		.4byte	.LASF82
 7370 11ed 01       		.byte	0x1
 7371 11ee 3206     		.2byte	0x632
 7372 11f0 90000000 		.4byte	0x90
 7373 11f4 02       		.byte	0x2
 7374 11f5 91       		.byte	0x91
 7375 11f6 74       		.sleb128 -12
 7376 11f7 15       		.uleb128 0x15
ARM GAS  C:\Users\CHUCK~1.ERH\AppData\Local\Temp\cclfQUCJ.s 			page 163


 7377 11f8 697200   		.ascii	"ir\000"
 7378 11fb 01       		.byte	0x1
 7379 11fc 3306     		.2byte	0x633
 7380 11fe 7A000000 		.4byte	0x7a
 7381 1202 02       		.byte	0x2
 7382 1203 91       		.byte	0x91
 7383 1204 73       		.sleb128 -13
 7384 1205 00       		.byte	0
 7385 1206 16       		.uleb128 0x16
 7386 1207 01       		.byte	0x1
 7387 1208 2F070000 		.4byte	.LASF126
 7388 120c 01       		.byte	0x1
 7389 120d 4E06     		.2byte	0x64e
 7390 120f 01       		.byte	0x1
 7391 1210 7A000000 		.4byte	0x7a
 7392 1214 00000000 		.4byte	.LFB121
 7393 1218 1E000000 		.4byte	.LFE121
 7394 121c 140E0000 		.4byte	.LLST65
 7395 1220 01       		.byte	0x1
 7396 1221 35120000 		.4byte	0x1235
 7397 1225 12       		.uleb128 0x12
 7398 1226 BE050000 		.4byte	.LASF56
 7399 122a 01       		.byte	0x1
 7400 122b 4E06     		.2byte	0x64e
 7401 122d 7A000000 		.4byte	0x7a
 7402 1231 02       		.byte	0x2
 7403 1232 91       		.byte	0x91
 7404 1233 77       		.sleb128 -9
 7405 1234 00       		.byte	0
 7406 1235 11       		.uleb128 0x11
 7407 1236 01       		.byte	0x1
 7408 1237 EC050000 		.4byte	.LASF127
 7409 123b 01       		.byte	0x1
 7410 123c 5206     		.2byte	0x652
 7411 123e 01       		.byte	0x1
 7412 123f 00000000 		.4byte	.LFB122
 7413 1243 1E000000 		.4byte	.LFE122
 7414 1247 4C0E0000 		.4byte	.LLST66
 7415 124b 01       		.byte	0x1
 7416 124c 60120000 		.4byte	0x1260
 7417 1250 12       		.uleb128 0x12
 7418 1251 BE050000 		.4byte	.LASF56
 7419 1255 01       		.byte	0x1
 7420 1256 5206     		.2byte	0x652
 7421 1258 7A000000 		.4byte	0x7a
 7422 125c 02       		.byte	0x2
 7423 125d 91       		.byte	0x91
 7424 125e 77       		.sleb128 -9
 7425 125f 00       		.byte	0
 7426 1260 16       		.uleb128 0x16
 7427 1261 01       		.byte	0x1
 7428 1262 54080000 		.4byte	.LASF128
 7429 1266 01       		.byte	0x1
 7430 1267 5806     		.2byte	0x658
 7431 1269 01       		.byte	0x1
 7432 126a 85000000 		.4byte	0x85
 7433 126e 00000000 		.4byte	.LFB123
ARM GAS  C:\Users\CHUCK~1.ERH\AppData\Local\Temp\cclfQUCJ.s 			page 164


 7434 1272 B4000000 		.4byte	.LFE123
 7435 1276 840E0000 		.4byte	.LLST67
 7436 127a 01       		.byte	0x1
 7437 127b DA120000 		.4byte	0x12da
 7438 127f 12       		.uleb128 0x12
 7439 1280 BE050000 		.4byte	.LASF56
 7440 1284 01       		.byte	0x1
 7441 1285 5806     		.2byte	0x658
 7442 1287 7A000000 		.4byte	0x7a
 7443 128b 02       		.byte	0x2
 7444 128c 91       		.byte	0x91
 7445 128d 6F       		.sleb128 -17
 7446 128e 12       		.uleb128 0x12
 7447 128f 63000000 		.4byte	.LASF89
 7448 1293 01       		.byte	0x1
 7449 1294 5806     		.2byte	0x658
 7450 1296 02020000 		.4byte	0x202
 7451 129a 02       		.byte	0x2
 7452 129b 91       		.byte	0x91
 7453 129c 68       		.sleb128 -24
 7454 129d 13       		.uleb128 0x13
 7455 129e 6C656E00 		.ascii	"len\000"
 7456 12a2 01       		.byte	0x1
 7457 12a3 5806     		.2byte	0x658
 7458 12a5 85000000 		.4byte	0x85
 7459 12a9 02       		.byte	0x2
 7460 12aa 91       		.byte	0x91
 7461 12ab 6C       		.sleb128 -20
 7462 12ac 14       		.uleb128 0x14
 7463 12ad 5E010000 		.4byte	.LASF129
 7464 12b1 01       		.byte	0x1
 7465 12b2 5A06     		.2byte	0x65a
 7466 12b4 85000000 		.4byte	0x85
 7467 12b8 02       		.byte	0x2
 7468 12b9 91       		.byte	0x91
 7469 12ba 76       		.sleb128 -10
 7470 12bb 14       		.uleb128 0x14
 7471 12bc D3050000 		.4byte	.LASF130
 7472 12c0 01       		.byte	0x1
 7473 12c1 5B06     		.2byte	0x65b
 7474 12c3 85000000 		.4byte	0x85
 7475 12c7 02       		.byte	0x2
 7476 12c8 91       		.byte	0x91
 7477 12c9 74       		.sleb128 -12
 7478 12ca 14       		.uleb128 0x14
 7479 12cb AD050000 		.4byte	.LASF67
 7480 12cf 01       		.byte	0x1
 7481 12d0 5C06     		.2byte	0x65c
 7482 12d2 7A000000 		.4byte	0x7a
 7483 12d6 02       		.byte	0x2
 7484 12d7 91       		.byte	0x91
 7485 12d8 73       		.sleb128 -13
 7486 12d9 00       		.byte	0
 7487 12da 16       		.uleb128 0x16
 7488 12db 01       		.byte	0x1
 7489 12dc 56040000 		.4byte	.LASF131
 7490 12e0 01       		.byte	0x1
ARM GAS  C:\Users\CHUCK~1.ERH\AppData\Local\Temp\cclfQUCJ.s 			page 165


 7491 12e1 8206     		.2byte	0x682
 7492 12e3 01       		.byte	0x1
 7493 12e4 85000000 		.4byte	0x85
 7494 12e8 00000000 		.4byte	.LFB124
 7495 12ec 68000000 		.4byte	.LFE124
 7496 12f0 BC0E0000 		.4byte	.LLST68
 7497 12f4 01       		.byte	0x1
 7498 12f5 36130000 		.4byte	0x1336
 7499 12f9 12       		.uleb128 0x12
 7500 12fa BE050000 		.4byte	.LASF56
 7501 12fe 01       		.byte	0x1
 7502 12ff 8206     		.2byte	0x682
 7503 1301 7A000000 		.4byte	0x7a
 7504 1305 02       		.byte	0x2
 7505 1306 91       		.byte	0x91
 7506 1307 6F       		.sleb128 -17
 7507 1308 12       		.uleb128 0x12
 7508 1309 63000000 		.4byte	.LASF89
 7509 130d 01       		.byte	0x1
 7510 130e 8206     		.2byte	0x682
 7511 1310 02020000 		.4byte	0x202
 7512 1314 02       		.byte	0x2
 7513 1315 91       		.byte	0x91
 7514 1316 68       		.sleb128 -24
 7515 1317 12       		.uleb128 0x12
 7516 1318 A6050000 		.4byte	.LASF28
 7517 131c 01       		.byte	0x1
 7518 131d 8206     		.2byte	0x682
 7519 131f 85000000 		.4byte	0x85
 7520 1323 02       		.byte	0x2
 7521 1324 91       		.byte	0x91
 7522 1325 6C       		.sleb128 -20
 7523 1326 14       		.uleb128 0x14
 7524 1327 A3070000 		.4byte	.LASF132
 7525 132b 01       		.byte	0x1
 7526 132c 8406     		.2byte	0x684
 7527 132e 85000000 		.4byte	0x85
 7528 1332 02       		.byte	0x2
 7529 1333 91       		.byte	0x91
 7530 1334 76       		.sleb128 -10
 7531 1335 00       		.byte	0
 7532 1336 11       		.uleb128 0x11
 7533 1337 01       		.byte	0x1
 7534 1338 D0030000 		.4byte	.LASF133
 7535 133c 01       		.byte	0x1
 7536 133d A106     		.2byte	0x6a1
 7537 133f 01       		.byte	0x1
 7538 1340 00000000 		.4byte	.LFB125
 7539 1344 2A000000 		.4byte	.LFE125
 7540 1348 F40E0000 		.4byte	.LLST69
 7541 134c 01       		.byte	0x1
 7542 134d 70130000 		.4byte	0x1370
 7543 1351 12       		.uleb128 0x12
 7544 1352 BE050000 		.4byte	.LASF56
 7545 1356 01       		.byte	0x1
 7546 1357 A106     		.2byte	0x6a1
 7547 1359 7A000000 		.4byte	0x7a
ARM GAS  C:\Users\CHUCK~1.ERH\AppData\Local\Temp\cclfQUCJ.s 			page 166


 7548 135d 02       		.byte	0x2
 7549 135e 91       		.byte	0x91
 7550 135f 77       		.sleb128 -9
 7551 1360 13       		.uleb128 0x13
 7552 1361 73747200 		.ascii	"str\000"
 7553 1365 01       		.byte	0x1
 7554 1366 A106     		.2byte	0x6a1
 7555 1368 C8000000 		.4byte	0xc8
 7556 136c 02       		.byte	0x2
 7557 136d 91       		.byte	0x91
 7558 136e 70       		.sleb128 -16
 7559 136f 00       		.byte	0
 7560 1370 16       		.uleb128 0x16
 7561 1371 01       		.byte	0x1
 7562 1372 4A050000 		.4byte	.LASF134
 7563 1376 01       		.byte	0x1
 7564 1377 AB06     		.2byte	0x6ab
 7565 1379 01       		.byte	0x1
 7566 137a 7A000000 		.4byte	0x7a
 7567 137e 00000000 		.4byte	.LFB126
 7568 1382 26000000 		.4byte	.LFE126
 7569 1386 2C0F0000 		.4byte	.LLST70
 7570 138a 01       		.byte	0x1
 7571 138b 9F130000 		.4byte	0x139f
 7572 138f 12       		.uleb128 0x12
 7573 1390 97060000 		.4byte	.LASF69
 7574 1394 01       		.byte	0x1
 7575 1395 AB06     		.2byte	0x6ab
 7576 1397 85000000 		.4byte	0x85
 7577 139b 02       		.byte	0x2
 7578 139c 91       		.byte	0x91
 7579 139d 76       		.sleb128 -10
 7580 139e 00       		.byte	0
 7581 139f 16       		.uleb128 0x16
 7582 13a0 01       		.byte	0x1
 7583 13a1 44010000 		.4byte	.LASF135
 7584 13a5 01       		.byte	0x1
 7585 13a6 B106     		.2byte	0x6b1
 7586 13a8 01       		.byte	0x1
 7587 13a9 85000000 		.4byte	0x85
 7588 13ad 00000000 		.4byte	.LFB127
 7589 13b1 8A000000 		.4byte	.LFE127
 7590 13b5 640F0000 		.4byte	.LLST71
 7591 13b9 01       		.byte	0x1
 7592 13ba 18140000 		.4byte	0x1418
 7593 13be 12       		.uleb128 0x12
 7594 13bf BE050000 		.4byte	.LASF56
 7595 13c3 01       		.byte	0x1
 7596 13c4 B106     		.2byte	0x6b1
 7597 13c6 7A000000 		.4byte	0x7a
 7598 13ca 02       		.byte	0x2
 7599 13cb 91       		.byte	0x91
 7600 13cc 6F       		.sleb128 -17
 7601 13cd 13       		.uleb128 0x13
 7602 13ce 697000   		.ascii	"ip\000"
 7603 13d1 01       		.byte	0x1
 7604 13d2 B106     		.2byte	0x6b1
ARM GAS  C:\Users\CHUCK~1.ERH\AppData\Local\Temp\cclfQUCJ.s 			page 167


 7605 13d4 90000000 		.4byte	0x90
 7606 13d8 02       		.byte	0x2
 7607 13d9 91       		.byte	0x91
 7608 13da 68       		.sleb128 -24
 7609 13db 12       		.uleb128 0x12
 7610 13dc 97060000 		.4byte	.LASF69
 7611 13e0 01       		.byte	0x1
 7612 13e1 B106     		.2byte	0x6b1
 7613 13e3 85000000 		.4byte	0x85
 7614 13e7 02       		.byte	0x2
 7615 13e8 91       		.byte	0x91
 7616 13e9 6C       		.sleb128 -20
 7617 13ea 12       		.uleb128 0x12
 7618 13eb 63000000 		.4byte	.LASF89
 7619 13ef 01       		.byte	0x1
 7620 13f0 B106     		.2byte	0x6b1
 7621 13f2 02020000 		.4byte	0x202
 7622 13f6 02       		.byte	0x2
 7623 13f7 91       		.byte	0x91
 7624 13f8 64       		.sleb128 -28
 7625 13f9 12       		.uleb128 0x12
 7626 13fa A6050000 		.4byte	.LASF28
 7627 13fe 01       		.byte	0x1
 7628 13ff B106     		.2byte	0x6b1
 7629 1401 85000000 		.4byte	0x85
 7630 1405 02       		.byte	0x2
 7631 1406 91       		.byte	0x91
 7632 1407 00       		.sleb128 0
 7633 1408 14       		.uleb128 0x14
 7634 1409 5E010000 		.4byte	.LASF129
 7635 140d 01       		.byte	0x1
 7636 140e B306     		.2byte	0x6b3
 7637 1410 85000000 		.4byte	0x85
 7638 1414 02       		.byte	0x2
 7639 1415 91       		.byte	0x91
 7640 1416 76       		.sleb128 -10
 7641 1417 00       		.byte	0
 7642 1418 16       		.uleb128 0x16
 7643 1419 01       		.byte	0x1
 7644 141a CE000000 		.4byte	.LASF136
 7645 141e 01       		.byte	0x1
 7646 141f DE06     		.2byte	0x6de
 7647 1421 01       		.byte	0x1
 7648 1422 85000000 		.4byte	0x85
 7649 1426 00000000 		.4byte	.LFB128
 7650 142a 00010000 		.4byte	.LFE128
 7651 142e 9C0F0000 		.4byte	.LLST72
 7652 1432 01       		.byte	0x1
 7653 1433 AF140000 		.4byte	0x14af
 7654 1437 12       		.uleb128 0x12
 7655 1438 BE050000 		.4byte	.LASF56
 7656 143c 01       		.byte	0x1
 7657 143d DE06     		.2byte	0x6de
 7658 143f 7A000000 		.4byte	0x7a
 7659 1443 02       		.byte	0x2
 7660 1444 91       		.byte	0x91
 7661 1445 67       		.sleb128 -25
ARM GAS  C:\Users\CHUCK~1.ERH\AppData\Local\Temp\cclfQUCJ.s 			page 168


 7662 1446 13       		.uleb128 0x13
 7663 1447 697000   		.ascii	"ip\000"
 7664 144a 01       		.byte	0x1
 7665 144b DE06     		.2byte	0x6de
 7666 144d AF140000 		.4byte	0x14af
 7667 1451 02       		.byte	0x2
 7668 1452 91       		.byte	0x91
 7669 1453 60       		.sleb128 -32
 7670 1454 12       		.uleb128 0x12
 7671 1455 97060000 		.4byte	.LASF69
 7672 1459 01       		.byte	0x1
 7673 145a DE06     		.2byte	0x6de
 7674 145c B5140000 		.4byte	0x14b5
 7675 1460 02       		.byte	0x2
 7676 1461 91       		.byte	0x91
 7677 1462 5C       		.sleb128 -36
 7678 1463 12       		.uleb128 0x12
 7679 1464 63000000 		.4byte	.LASF89
 7680 1468 01       		.byte	0x1
 7681 1469 DE06     		.2byte	0x6de
 7682 146b 02020000 		.4byte	0x202
 7683 146f 02       		.byte	0x2
 7684 1470 91       		.byte	0x91
 7685 1471 58       		.sleb128 -40
 7686 1472 12       		.uleb128 0x12
 7687 1473 A6050000 		.4byte	.LASF28
 7688 1477 01       		.byte	0x1
 7689 1478 DE06     		.2byte	0x6de
 7690 147a 85000000 		.4byte	0x85
 7691 147e 02       		.byte	0x2
 7692 147f 91       		.byte	0x91
 7693 1480 00       		.sleb128 0
 7694 1481 14       		.uleb128 0x14
 7695 1482 A3070000 		.4byte	.LASF132
 7696 1486 01       		.byte	0x1
 7697 1487 E006     		.2byte	0x6e0
 7698 1489 85000000 		.4byte	0x85
 7699 148d 02       		.byte	0x2
 7700 148e 91       		.byte	0x91
 7701 148f 76       		.sleb128 -10
 7702 1490 14       		.uleb128 0x14
 7703 1491 49080000 		.4byte	.LASF137
 7704 1495 01       		.byte	0x1
 7705 1496 E106     		.2byte	0x6e1
 7706 1498 85000000 		.4byte	0x85
 7707 149c 02       		.byte	0x2
 7708 149d 91       		.byte	0x91
 7709 149e 74       		.sleb128 -12
 7710 149f 14       		.uleb128 0x14
 7711 14a0 4D060000 		.4byte	.LASF138
 7712 14a4 01       		.byte	0x1
 7713 14a5 E206     		.2byte	0x6e2
 7714 14a7 BB140000 		.4byte	0x14bb
 7715 14ab 02       		.byte	0x2
 7716 14ac 91       		.byte	0x91
 7717 14ad 6C       		.sleb128 -20
 7718 14ae 00       		.byte	0
ARM GAS  C:\Users\CHUCK~1.ERH\AppData\Local\Temp\cclfQUCJ.s 			page 169


 7719 14af 05       		.uleb128 0x5
 7720 14b0 04       		.byte	0x4
 7721 14b1 90000000 		.4byte	0x90
 7722 14b5 05       		.uleb128 0x5
 7723 14b6 04       		.byte	0x4
 7724 14b7 85000000 		.4byte	0x85
 7725 14bb 07       		.uleb128 0x7
 7726 14bc 7A000000 		.4byte	0x7a
 7727 14c0 CB140000 		.4byte	0x14cb
 7728 14c4 08       		.uleb128 0x8
 7729 14c5 BB000000 		.4byte	0xbb
 7730 14c9 07       		.byte	0x7
 7731 14ca 00       		.byte	0
 7732 14cb 1A       		.uleb128 0x1a
 7733 14cc 6F080000 		.4byte	.LASF139
 7734 14d0 01       		.byte	0x1
 7735 14d1 32       		.byte	0x32
 7736 14d2 7A000000 		.4byte	0x7a
 7737 14d6 01       		.byte	0x1
 7738 14d7 01       		.byte	0x1
 7739 14d8 1B       		.uleb128 0x1b
 7740 14d9 99050000 		.4byte	.LASF140
 7741 14dd 04       		.byte	0x4
 7742 14de 1606     		.2byte	0x616
 7743 14e0 E6140000 		.4byte	0x14e6
 7744 14e4 01       		.byte	0x1
 7745 14e5 01       		.byte	0x1
 7746 14e6 1C       		.uleb128 0x1c
 7747 14e7 45000000 		.4byte	0x45
 7748 14eb 07       		.uleb128 0x7
 7749 14ec 90000000 		.4byte	0x90
 7750 14f0 FB140000 		.4byte	0x14fb
 7751 14f4 08       		.uleb128 0x8
 7752 14f5 BB000000 		.4byte	0xbb
 7753 14f9 07       		.byte	0x7
 7754 14fa 00       		.byte	0
 7755 14fb 1D       		.uleb128 0x1d
 7756 14fc C9010000 		.4byte	.LASF141
 7757 1500 01       		.byte	0x1
 7758 1501 5A       		.byte	0x5a
 7759 1502 0D150000 		.4byte	0x150d
 7760 1506 01       		.byte	0x1
 7761 1507 05       		.byte	0x5
 7762 1508 03       		.byte	0x3
 7763 1509 00000000 		.4byte	ETH_SOCKET_TX_BASE
 7764 150d 06       		.uleb128 0x6
 7765 150e EB140000 		.4byte	0x14eb
 7766 1512 1D       		.uleb128 0x1d
 7767 1513 DD000000 		.4byte	.LASF142
 7768 1517 01       		.byte	0x1
 7769 1518 5B       		.byte	0x5b
 7770 1519 24150000 		.4byte	0x1524
 7771 151d 01       		.byte	0x1
 7772 151e 05       		.byte	0x5
 7773 151f 03       		.byte	0x3
 7774 1520 00000000 		.4byte	ETH_SOCKET_RX_BASE
 7775 1524 06       		.uleb128 0x6
ARM GAS  C:\Users\CHUCK~1.ERH\AppData\Local\Temp\cclfQUCJ.s 			page 170


 7776 1525 EB140000 		.4byte	0x14eb
 7777 1529 1D       		.uleb128 0x1d
 7778 152a C5050000 		.4byte	.LASF143
 7779 152e 01       		.byte	0x1
 7780 152f 60       		.byte	0x60
 7781 1530 3B150000 		.4byte	0x153b
 7782 1534 01       		.byte	0x1
 7783 1535 05       		.byte	0x5
 7784 1536 03       		.byte	0x3
 7785 1537 00000000 		.4byte	ETH_W5500_BSB
 7786 153b 06       		.uleb128 0x6
 7787 153c EB140000 		.4byte	0x14eb
 7788 1540 07       		.uleb128 0x7
 7789 1541 40010000 		.4byte	0x140
 7790 1545 50150000 		.4byte	0x1550
 7791 1549 08       		.uleb128 0x8
 7792 154a BB000000 		.4byte	0xbb
 7793 154e 07       		.byte	0x7
 7794 154f 00       		.byte	0
 7795 1550 1D       		.uleb128 0x1d
 7796 1551 6A000000 		.4byte	.LASF144
 7797 1555 01       		.byte	0x1
 7798 1556 6B       		.byte	0x6b
 7799 1557 40150000 		.4byte	0x1540
 7800 155b 01       		.byte	0x1
 7801 155c 05       		.byte	0x5
 7802 155d 03       		.byte	0x3
 7803 155e 00000000 		.4byte	ETH_SocketConfig
 7804 1562 1D       		.uleb128 0x1d
 7805 1563 F3060000 		.4byte	.LASF145
 7806 1567 01       		.byte	0x1
 7807 1568 6C       		.byte	0x6c
 7808 1569 90000000 		.4byte	0x90
 7809 156d 01       		.byte	0x1
 7810 156e 05       		.byte	0x5
 7811 156f 03       		.byte	0x3
 7812 1570 00000000 		.4byte	ETH_SubnetMask
 7813 1574 07       		.uleb128 0x7
 7814 1575 7A000000 		.4byte	0x7a
 7815 1579 84150000 		.4byte	0x1584
 7816 157d 08       		.uleb128 0x8
 7817 157e BB000000 		.4byte	0xbb
 7818 1582 05       		.byte	0x5
 7819 1583 00       		.byte	0
 7820 1584 1D       		.uleb128 0x1d
 7821 1585 10040000 		.4byte	.LASF146
 7822 1589 01       		.byte	0x1
 7823 158a 6E       		.byte	0x6e
 7824 158b 74150000 		.4byte	0x1574
 7825 158f 01       		.byte	0x1
 7826 1590 05       		.byte	0x5
 7827 1591 03       		.byte	0x3
 7828 1592 00000000 		.4byte	ETH_MAC
 7829 1596 00       		.byte	0
 7830              		.section	.debug_abbrev,"",%progbits
 7831              	.Ldebug_abbrev0:
 7832 0000 01       		.uleb128 0x1
ARM GAS  C:\Users\CHUCK~1.ERH\AppData\Local\Temp\cclfQUCJ.s 			page 171


 7833 0001 11       		.uleb128 0x11
 7834 0002 01       		.byte	0x1
 7835 0003 25       		.uleb128 0x25
 7836 0004 0E       		.uleb128 0xe
 7837 0005 13       		.uleb128 0x13
 7838 0006 0B       		.uleb128 0xb
 7839 0007 03       		.uleb128 0x3
 7840 0008 0E       		.uleb128 0xe
 7841 0009 1B       		.uleb128 0x1b
 7842 000a 0E       		.uleb128 0xe
 7843 000b 55       		.uleb128 0x55
 7844 000c 06       		.uleb128 0x6
 7845 000d 11       		.uleb128 0x11
 7846 000e 01       		.uleb128 0x1
 7847 000f 52       		.uleb128 0x52
 7848 0010 01       		.uleb128 0x1
 7849 0011 10       		.uleb128 0x10
 7850 0012 06       		.uleb128 0x6
 7851 0013 00       		.byte	0
 7852 0014 00       		.byte	0
 7853 0015 02       		.uleb128 0x2
 7854 0016 24       		.uleb128 0x24
 7855 0017 00       		.byte	0
 7856 0018 0B       		.uleb128 0xb
 7857 0019 0B       		.uleb128 0xb
 7858 001a 3E       		.uleb128 0x3e
 7859 001b 0B       		.uleb128 0xb
 7860 001c 03       		.uleb128 0x3
 7861 001d 0E       		.uleb128 0xe
 7862 001e 00       		.byte	0
 7863 001f 00       		.byte	0
 7864 0020 03       		.uleb128 0x3
 7865 0021 16       		.uleb128 0x16
 7866 0022 00       		.byte	0
 7867 0023 03       		.uleb128 0x3
 7868 0024 0E       		.uleb128 0xe
 7869 0025 3A       		.uleb128 0x3a
 7870 0026 0B       		.uleb128 0xb
 7871 0027 3B       		.uleb128 0x3b
 7872 0028 0B       		.uleb128 0xb
 7873 0029 49       		.uleb128 0x49
 7874 002a 13       		.uleb128 0x13
 7875 002b 00       		.byte	0
 7876 002c 00       		.byte	0
 7877 002d 04       		.uleb128 0x4
 7878 002e 24       		.uleb128 0x24
 7879 002f 00       		.byte	0
 7880 0030 0B       		.uleb128 0xb
 7881 0031 0B       		.uleb128 0xb
 7882 0032 3E       		.uleb128 0x3e
 7883 0033 0B       		.uleb128 0xb
 7884 0034 03       		.uleb128 0x3
 7885 0035 08       		.uleb128 0x8
 7886 0036 00       		.byte	0
 7887 0037 00       		.byte	0
 7888 0038 05       		.uleb128 0x5
 7889 0039 0F       		.uleb128 0xf
ARM GAS  C:\Users\CHUCK~1.ERH\AppData\Local\Temp\cclfQUCJ.s 			page 172


 7890 003a 00       		.byte	0
 7891 003b 0B       		.uleb128 0xb
 7892 003c 0B       		.uleb128 0xb
 7893 003d 49       		.uleb128 0x49
 7894 003e 13       		.uleb128 0x13
 7895 003f 00       		.byte	0
 7896 0040 00       		.byte	0
 7897 0041 06       		.uleb128 0x6
 7898 0042 26       		.uleb128 0x26
 7899 0043 00       		.byte	0
 7900 0044 49       		.uleb128 0x49
 7901 0045 13       		.uleb128 0x13
 7902 0046 00       		.byte	0
 7903 0047 00       		.byte	0
 7904 0048 07       		.uleb128 0x7
 7905 0049 01       		.uleb128 0x1
 7906 004a 01       		.byte	0x1
 7907 004b 49       		.uleb128 0x49
 7908 004c 13       		.uleb128 0x13
 7909 004d 01       		.uleb128 0x1
 7910 004e 13       		.uleb128 0x13
 7911 004f 00       		.byte	0
 7912 0050 00       		.byte	0
 7913 0051 08       		.uleb128 0x8
 7914 0052 21       		.uleb128 0x21
 7915 0053 00       		.byte	0
 7916 0054 49       		.uleb128 0x49
 7917 0055 13       		.uleb128 0x13
 7918 0056 2F       		.uleb128 0x2f
 7919 0057 0B       		.uleb128 0xb
 7920 0058 00       		.byte	0
 7921 0059 00       		.byte	0
 7922 005a 09       		.uleb128 0x9
 7923 005b 13       		.uleb128 0x13
 7924 005c 01       		.byte	0x1
 7925 005d 0B       		.uleb128 0xb
 7926 005e 0B       		.uleb128 0xb
 7927 005f 3A       		.uleb128 0x3a
 7928 0060 0B       		.uleb128 0xb
 7929 0061 3B       		.uleb128 0x3b
 7930 0062 0B       		.uleb128 0xb
 7931 0063 01       		.uleb128 0x1
 7932 0064 13       		.uleb128 0x13
 7933 0065 00       		.byte	0
 7934 0066 00       		.byte	0
 7935 0067 0A       		.uleb128 0xa
 7936 0068 0D       		.uleb128 0xd
 7937 0069 00       		.byte	0
 7938 006a 03       		.uleb128 0x3
 7939 006b 0E       		.uleb128 0xe
 7940 006c 3A       		.uleb128 0x3a
 7941 006d 0B       		.uleb128 0xb
 7942 006e 3B       		.uleb128 0x3b
 7943 006f 0B       		.uleb128 0xb
 7944 0070 49       		.uleb128 0x49
 7945 0071 13       		.uleb128 0x13
 7946 0072 38       		.uleb128 0x38
ARM GAS  C:\Users\CHUCK~1.ERH\AppData\Local\Temp\cclfQUCJ.s 			page 173


 7947 0073 0A       		.uleb128 0xa
 7948 0074 00       		.byte	0
 7949 0075 00       		.byte	0
 7950 0076 0B       		.uleb128 0xb
 7951 0077 2E       		.uleb128 0x2e
 7952 0078 00       		.byte	0
 7953 0079 3F       		.uleb128 0x3f
 7954 007a 0C       		.uleb128 0xc
 7955 007b 03       		.uleb128 0x3
 7956 007c 0E       		.uleb128 0xe
 7957 007d 3A       		.uleb128 0x3a
 7958 007e 0B       		.uleb128 0xb
 7959 007f 3B       		.uleb128 0x3b
 7960 0080 0B       		.uleb128 0xb
 7961 0081 27       		.uleb128 0x27
 7962 0082 0C       		.uleb128 0xc
 7963 0083 11       		.uleb128 0x11
 7964 0084 01       		.uleb128 0x1
 7965 0085 12       		.uleb128 0x12
 7966 0086 01       		.uleb128 0x1
 7967 0087 40       		.uleb128 0x40
 7968 0088 06       		.uleb128 0x6
 7969 0089 9642     		.uleb128 0x2116
 7970 008b 0C       		.uleb128 0xc
 7971 008c 00       		.byte	0
 7972 008d 00       		.byte	0
 7973 008e 0C       		.uleb128 0xc
 7974 008f 2E       		.uleb128 0x2e
 7975 0090 01       		.byte	0x1
 7976 0091 3F       		.uleb128 0x3f
 7977 0092 0C       		.uleb128 0xc
 7978 0093 03       		.uleb128 0x3
 7979 0094 0E       		.uleb128 0xe
 7980 0095 3A       		.uleb128 0x3a
 7981 0096 0B       		.uleb128 0xb
 7982 0097 3B       		.uleb128 0x3b
 7983 0098 0B       		.uleb128 0xb
 7984 0099 27       		.uleb128 0x27
 7985 009a 0C       		.uleb128 0xc
 7986 009b 11       		.uleb128 0x11
 7987 009c 01       		.uleb128 0x1
 7988 009d 12       		.uleb128 0x12
 7989 009e 01       		.uleb128 0x1
 7990 009f 40       		.uleb128 0x40
 7991 00a0 06       		.uleb128 0x6
 7992 00a1 9642     		.uleb128 0x2116
 7993 00a3 0C       		.uleb128 0xc
 7994 00a4 01       		.uleb128 0x1
 7995 00a5 13       		.uleb128 0x13
 7996 00a6 00       		.byte	0
 7997 00a7 00       		.byte	0
 7998 00a8 0D       		.uleb128 0xd
 7999 00a9 05       		.uleb128 0x5
 8000 00aa 00       		.byte	0
 8001 00ab 03       		.uleb128 0x3
 8002 00ac 0E       		.uleb128 0xe
 8003 00ad 3A       		.uleb128 0x3a
ARM GAS  C:\Users\CHUCK~1.ERH\AppData\Local\Temp\cclfQUCJ.s 			page 174


 8004 00ae 0B       		.uleb128 0xb
 8005 00af 3B       		.uleb128 0x3b
 8006 00b0 0B       		.uleb128 0xb
 8007 00b1 49       		.uleb128 0x49
 8008 00b2 13       		.uleb128 0x13
 8009 00b3 02       		.uleb128 0x2
 8010 00b4 0A       		.uleb128 0xa
 8011 00b5 00       		.byte	0
 8012 00b6 00       		.byte	0
 8013 00b7 0E       		.uleb128 0xe
 8014 00b8 05       		.uleb128 0x5
 8015 00b9 00       		.byte	0
 8016 00ba 03       		.uleb128 0x3
 8017 00bb 08       		.uleb128 0x8
 8018 00bc 3A       		.uleb128 0x3a
 8019 00bd 0B       		.uleb128 0xb
 8020 00be 3B       		.uleb128 0x3b
 8021 00bf 0B       		.uleb128 0xb
 8022 00c0 49       		.uleb128 0x49
 8023 00c1 13       		.uleb128 0x13
 8024 00c2 02       		.uleb128 0x2
 8025 00c3 0A       		.uleb128 0xa
 8026 00c4 00       		.byte	0
 8027 00c5 00       		.byte	0
 8028 00c6 0F       		.uleb128 0xf
 8029 00c7 34       		.uleb128 0x34
 8030 00c8 00       		.byte	0
 8031 00c9 03       		.uleb128 0x3
 8032 00ca 0E       		.uleb128 0xe
 8033 00cb 3A       		.uleb128 0x3a
 8034 00cc 0B       		.uleb128 0xb
 8035 00cd 3B       		.uleb128 0x3b
 8036 00ce 0B       		.uleb128 0xb
 8037 00cf 49       		.uleb128 0x49
 8038 00d0 13       		.uleb128 0x13
 8039 00d1 02       		.uleb128 0x2
 8040 00d2 0A       		.uleb128 0xa
 8041 00d3 00       		.byte	0
 8042 00d4 00       		.byte	0
 8043 00d5 10       		.uleb128 0x10
 8044 00d6 34       		.uleb128 0x34
 8045 00d7 00       		.byte	0
 8046 00d8 03       		.uleb128 0x3
 8047 00d9 08       		.uleb128 0x8
 8048 00da 3A       		.uleb128 0x3a
 8049 00db 0B       		.uleb128 0xb
 8050 00dc 3B       		.uleb128 0x3b
 8051 00dd 0B       		.uleb128 0xb
 8052 00de 49       		.uleb128 0x49
 8053 00df 13       		.uleb128 0x13
 8054 00e0 02       		.uleb128 0x2
 8055 00e1 0A       		.uleb128 0xa
 8056 00e2 00       		.byte	0
 8057 00e3 00       		.byte	0
 8058 00e4 11       		.uleb128 0x11
 8059 00e5 2E       		.uleb128 0x2e
 8060 00e6 01       		.byte	0x1
ARM GAS  C:\Users\CHUCK~1.ERH\AppData\Local\Temp\cclfQUCJ.s 			page 175


 8061 00e7 3F       		.uleb128 0x3f
 8062 00e8 0C       		.uleb128 0xc
 8063 00e9 03       		.uleb128 0x3
 8064 00ea 0E       		.uleb128 0xe
 8065 00eb 3A       		.uleb128 0x3a
 8066 00ec 0B       		.uleb128 0xb
 8067 00ed 3B       		.uleb128 0x3b
 8068 00ee 05       		.uleb128 0x5
 8069 00ef 27       		.uleb128 0x27
 8070 00f0 0C       		.uleb128 0xc
 8071 00f1 11       		.uleb128 0x11
 8072 00f2 01       		.uleb128 0x1
 8073 00f3 12       		.uleb128 0x12
 8074 00f4 01       		.uleb128 0x1
 8075 00f5 40       		.uleb128 0x40
 8076 00f6 06       		.uleb128 0x6
 8077 00f7 9642     		.uleb128 0x2116
 8078 00f9 0C       		.uleb128 0xc
 8079 00fa 01       		.uleb128 0x1
 8080 00fb 13       		.uleb128 0x13
 8081 00fc 00       		.byte	0
 8082 00fd 00       		.byte	0
 8083 00fe 12       		.uleb128 0x12
 8084 00ff 05       		.uleb128 0x5
 8085 0100 00       		.byte	0
 8086 0101 03       		.uleb128 0x3
 8087 0102 0E       		.uleb128 0xe
 8088 0103 3A       		.uleb128 0x3a
 8089 0104 0B       		.uleb128 0xb
 8090 0105 3B       		.uleb128 0x3b
 8091 0106 05       		.uleb128 0x5
 8092 0107 49       		.uleb128 0x49
 8093 0108 13       		.uleb128 0x13
 8094 0109 02       		.uleb128 0x2
 8095 010a 0A       		.uleb128 0xa
 8096 010b 00       		.byte	0
 8097 010c 00       		.byte	0
 8098 010d 13       		.uleb128 0x13
 8099 010e 05       		.uleb128 0x5
 8100 010f 00       		.byte	0
 8101 0110 03       		.uleb128 0x3
 8102 0111 08       		.uleb128 0x8
 8103 0112 3A       		.uleb128 0x3a
 8104 0113 0B       		.uleb128 0xb
 8105 0114 3B       		.uleb128 0x3b
 8106 0115 05       		.uleb128 0x5
 8107 0116 49       		.uleb128 0x49
 8108 0117 13       		.uleb128 0x13
 8109 0118 02       		.uleb128 0x2
 8110 0119 0A       		.uleb128 0xa
 8111 011a 00       		.byte	0
 8112 011b 00       		.byte	0
 8113 011c 14       		.uleb128 0x14
 8114 011d 34       		.uleb128 0x34
 8115 011e 00       		.byte	0
 8116 011f 03       		.uleb128 0x3
 8117 0120 0E       		.uleb128 0xe
ARM GAS  C:\Users\CHUCK~1.ERH\AppData\Local\Temp\cclfQUCJ.s 			page 176


 8118 0121 3A       		.uleb128 0x3a
 8119 0122 0B       		.uleb128 0xb
 8120 0123 3B       		.uleb128 0x3b
 8121 0124 05       		.uleb128 0x5
 8122 0125 49       		.uleb128 0x49
 8123 0126 13       		.uleb128 0x13
 8124 0127 02       		.uleb128 0x2
 8125 0128 0A       		.uleb128 0xa
 8126 0129 00       		.byte	0
 8127 012a 00       		.byte	0
 8128 012b 15       		.uleb128 0x15
 8129 012c 34       		.uleb128 0x34
 8130 012d 00       		.byte	0
 8131 012e 03       		.uleb128 0x3
 8132 012f 08       		.uleb128 0x8
 8133 0130 3A       		.uleb128 0x3a
 8134 0131 0B       		.uleb128 0xb
 8135 0132 3B       		.uleb128 0x3b
 8136 0133 05       		.uleb128 0x5
 8137 0134 49       		.uleb128 0x49
 8138 0135 13       		.uleb128 0x13
 8139 0136 02       		.uleb128 0x2
 8140 0137 0A       		.uleb128 0xa
 8141 0138 00       		.byte	0
 8142 0139 00       		.byte	0
 8143 013a 16       		.uleb128 0x16
 8144 013b 2E       		.uleb128 0x2e
 8145 013c 01       		.byte	0x1
 8146 013d 3F       		.uleb128 0x3f
 8147 013e 0C       		.uleb128 0xc
 8148 013f 03       		.uleb128 0x3
 8149 0140 0E       		.uleb128 0xe
 8150 0141 3A       		.uleb128 0x3a
 8151 0142 0B       		.uleb128 0xb
 8152 0143 3B       		.uleb128 0x3b
 8153 0144 05       		.uleb128 0x5
 8154 0145 27       		.uleb128 0x27
 8155 0146 0C       		.uleb128 0xc
 8156 0147 49       		.uleb128 0x49
 8157 0148 13       		.uleb128 0x13
 8158 0149 11       		.uleb128 0x11
 8159 014a 01       		.uleb128 0x1
 8160 014b 12       		.uleb128 0x12
 8161 014c 01       		.uleb128 0x1
 8162 014d 40       		.uleb128 0x40
 8163 014e 06       		.uleb128 0x6
 8164 014f 9642     		.uleb128 0x2116
 8165 0151 0C       		.uleb128 0xc
 8166 0152 01       		.uleb128 0x1
 8167 0153 13       		.uleb128 0x13
 8168 0154 00       		.byte	0
 8169 0155 00       		.byte	0
 8170 0156 17       		.uleb128 0x17
 8171 0157 2E       		.uleb128 0x2e
 8172 0158 01       		.byte	0x1
 8173 0159 3F       		.uleb128 0x3f
 8174 015a 0C       		.uleb128 0xc
ARM GAS  C:\Users\CHUCK~1.ERH\AppData\Local\Temp\cclfQUCJ.s 			page 177


 8175 015b 03       		.uleb128 0x3
 8176 015c 0E       		.uleb128 0xe
 8177 015d 3A       		.uleb128 0x3a
 8178 015e 0B       		.uleb128 0xb
 8179 015f 3B       		.uleb128 0x3b
 8180 0160 05       		.uleb128 0x5
 8181 0161 27       		.uleb128 0x27
 8182 0162 0C       		.uleb128 0xc
 8183 0163 11       		.uleb128 0x11
 8184 0164 01       		.uleb128 0x1
 8185 0165 12       		.uleb128 0x12
 8186 0166 01       		.uleb128 0x1
 8187 0167 40       		.uleb128 0x40
 8188 0168 06       		.uleb128 0x6
 8189 0169 9742     		.uleb128 0x2117
 8190 016b 0C       		.uleb128 0xc
 8191 016c 01       		.uleb128 0x1
 8192 016d 13       		.uleb128 0x13
 8193 016e 00       		.byte	0
 8194 016f 00       		.byte	0
 8195 0170 18       		.uleb128 0x18
 8196 0171 2E       		.uleb128 0x2e
 8197 0172 01       		.byte	0x1
 8198 0173 3F       		.uleb128 0x3f
 8199 0174 0C       		.uleb128 0xc
 8200 0175 03       		.uleb128 0x3
 8201 0176 0E       		.uleb128 0xe
 8202 0177 3A       		.uleb128 0x3a
 8203 0178 0B       		.uleb128 0xb
 8204 0179 3B       		.uleb128 0x3b
 8205 017a 05       		.uleb128 0x5
 8206 017b 27       		.uleb128 0x27
 8207 017c 0C       		.uleb128 0xc
 8208 017d 49       		.uleb128 0x49
 8209 017e 13       		.uleb128 0x13
 8210 017f 11       		.uleb128 0x11
 8211 0180 01       		.uleb128 0x1
 8212 0181 12       		.uleb128 0x12
 8213 0182 01       		.uleb128 0x1
 8214 0183 40       		.uleb128 0x40
 8215 0184 06       		.uleb128 0x6
 8216 0185 9742     		.uleb128 0x2117
 8217 0187 0C       		.uleb128 0xc
 8218 0188 01       		.uleb128 0x1
 8219 0189 13       		.uleb128 0x13
 8220 018a 00       		.byte	0
 8221 018b 00       		.byte	0
 8222 018c 19       		.uleb128 0x19
 8223 018d 2E       		.uleb128 0x2e
 8224 018e 00       		.byte	0
 8225 018f 3F       		.uleb128 0x3f
 8226 0190 0C       		.uleb128 0xc
 8227 0191 03       		.uleb128 0x3
 8228 0192 0E       		.uleb128 0xe
 8229 0193 3A       		.uleb128 0x3a
 8230 0194 0B       		.uleb128 0xb
 8231 0195 3B       		.uleb128 0x3b
ARM GAS  C:\Users\CHUCK~1.ERH\AppData\Local\Temp\cclfQUCJ.s 			page 178


 8232 0196 05       		.uleb128 0x5
 8233 0197 27       		.uleb128 0x27
 8234 0198 0C       		.uleb128 0xc
 8235 0199 49       		.uleb128 0x49
 8236 019a 13       		.uleb128 0x13
 8237 019b 11       		.uleb128 0x11
 8238 019c 01       		.uleb128 0x1
 8239 019d 12       		.uleb128 0x12
 8240 019e 01       		.uleb128 0x1
 8241 019f 40       		.uleb128 0x40
 8242 01a0 06       		.uleb128 0x6
 8243 01a1 9642     		.uleb128 0x2116
 8244 01a3 0C       		.uleb128 0xc
 8245 01a4 00       		.byte	0
 8246 01a5 00       		.byte	0
 8247 01a6 1A       		.uleb128 0x1a
 8248 01a7 34       		.uleb128 0x34
 8249 01a8 00       		.byte	0
 8250 01a9 03       		.uleb128 0x3
 8251 01aa 0E       		.uleb128 0xe
 8252 01ab 3A       		.uleb128 0x3a
 8253 01ac 0B       		.uleb128 0xb
 8254 01ad 3B       		.uleb128 0x3b
 8255 01ae 0B       		.uleb128 0xb
 8256 01af 49       		.uleb128 0x49
 8257 01b0 13       		.uleb128 0x13
 8258 01b1 3F       		.uleb128 0x3f
 8259 01b2 0C       		.uleb128 0xc
 8260 01b3 3C       		.uleb128 0x3c
 8261 01b4 0C       		.uleb128 0xc
 8262 01b5 00       		.byte	0
 8263 01b6 00       		.byte	0
 8264 01b7 1B       		.uleb128 0x1b
 8265 01b8 34       		.uleb128 0x34
 8266 01b9 00       		.byte	0
 8267 01ba 03       		.uleb128 0x3
 8268 01bb 0E       		.uleb128 0xe
 8269 01bc 3A       		.uleb128 0x3a
 8270 01bd 0B       		.uleb128 0xb
 8271 01be 3B       		.uleb128 0x3b
 8272 01bf 05       		.uleb128 0x5
 8273 01c0 49       		.uleb128 0x49
 8274 01c1 13       		.uleb128 0x13
 8275 01c2 3F       		.uleb128 0x3f
 8276 01c3 0C       		.uleb128 0xc
 8277 01c4 3C       		.uleb128 0x3c
 8278 01c5 0C       		.uleb128 0xc
 8279 01c6 00       		.byte	0
 8280 01c7 00       		.byte	0
 8281 01c8 1C       		.uleb128 0x1c
 8282 01c9 35       		.uleb128 0x35
 8283 01ca 00       		.byte	0
 8284 01cb 49       		.uleb128 0x49
 8285 01cc 13       		.uleb128 0x13
 8286 01cd 00       		.byte	0
 8287 01ce 00       		.byte	0
 8288 01cf 1D       		.uleb128 0x1d
ARM GAS  C:\Users\CHUCK~1.ERH\AppData\Local\Temp\cclfQUCJ.s 			page 179


 8289 01d0 34       		.uleb128 0x34
 8290 01d1 00       		.byte	0
 8291 01d2 03       		.uleb128 0x3
 8292 01d3 0E       		.uleb128 0xe
 8293 01d4 3A       		.uleb128 0x3a
 8294 01d5 0B       		.uleb128 0xb
 8295 01d6 3B       		.uleb128 0x3b
 8296 01d7 0B       		.uleb128 0xb
 8297 01d8 49       		.uleb128 0x49
 8298 01d9 13       		.uleb128 0x13
 8299 01da 3F       		.uleb128 0x3f
 8300 01db 0C       		.uleb128 0xc
 8301 01dc 02       		.uleb128 0x2
 8302 01dd 0A       		.uleb128 0xa
 8303 01de 00       		.byte	0
 8304 01df 00       		.byte	0
 8305 01e0 00       		.byte	0
 8306              		.section	.debug_loc,"",%progbits
 8307              	.Ldebug_loc0:
 8308              	.LLST0:
 8309 0000 00000000 		.4byte	.LFB56
 8310 0004 02000000 		.4byte	.LCFI0
 8311 0008 0200     		.2byte	0x2
 8312 000a 7D       		.byte	0x7d
 8313 000b 00       		.sleb128 0
 8314 000c 02000000 		.4byte	.LCFI0
 8315 0010 04000000 		.4byte	.LCFI1
 8316 0014 0200     		.2byte	0x2
 8317 0016 7D       		.byte	0x7d
 8318 0017 08       		.sleb128 8
 8319 0018 04000000 		.4byte	.LCFI1
 8320 001c 0E000000 		.4byte	.LFE56
 8321 0020 0200     		.2byte	0x2
 8322 0022 77       		.byte	0x77
 8323 0023 08       		.sleb128 8
 8324 0024 00000000 		.4byte	0
 8325 0028 00000000 		.4byte	0
 8326              	.LLST1:
 8327 002c 00000000 		.4byte	.LFB57
 8328 0030 02000000 		.4byte	.LCFI2
 8329 0034 0200     		.2byte	0x2
 8330 0036 7D       		.byte	0x7d
 8331 0037 00       		.sleb128 0
 8332 0038 02000000 		.4byte	.LCFI2
 8333 003c 04000000 		.4byte	.LCFI3
 8334 0040 0200     		.2byte	0x2
 8335 0042 7D       		.byte	0x7d
 8336 0043 08       		.sleb128 8
 8337 0044 04000000 		.4byte	.LCFI3
 8338 0048 26000000 		.4byte	.LFE57
 8339 004c 0200     		.2byte	0x2
 8340 004e 77       		.byte	0x77
 8341 004f 08       		.sleb128 8
 8342 0050 00000000 		.4byte	0
 8343 0054 00000000 		.4byte	0
 8344              	.LLST2:
 8345 0058 00000000 		.4byte	.LFB58
ARM GAS  C:\Users\CHUCK~1.ERH\AppData\Local\Temp\cclfQUCJ.s 			page 180


 8346 005c 02000000 		.4byte	.LCFI4
 8347 0060 0200     		.2byte	0x2
 8348 0062 7D       		.byte	0x7d
 8349 0063 00       		.sleb128 0
 8350 0064 02000000 		.4byte	.LCFI4
 8351 0068 04000000 		.4byte	.LCFI5
 8352 006c 0200     		.2byte	0x2
 8353 006e 7D       		.byte	0x7d
 8354 006f 08       		.sleb128 8
 8355 0070 04000000 		.4byte	.LCFI5
 8356 0074 06000000 		.4byte	.LCFI6
 8357 0078 0200     		.2byte	0x2
 8358 007a 7D       		.byte	0x7d
 8359 007b 20       		.sleb128 32
 8360 007c 06000000 		.4byte	.LCFI6
 8361 0080 00010000 		.4byte	.LFE58
 8362 0084 0200     		.2byte	0x2
 8363 0086 77       		.byte	0x77
 8364 0087 20       		.sleb128 32
 8365 0088 00000000 		.4byte	0
 8366 008c 00000000 		.4byte	0
 8367              	.LLST3:
 8368 0090 00000000 		.4byte	.LFB59
 8369 0094 02000000 		.4byte	.LCFI7
 8370 0098 0200     		.2byte	0x2
 8371 009a 7D       		.byte	0x7d
 8372 009b 00       		.sleb128 0
 8373 009c 02000000 		.4byte	.LCFI7
 8374 00a0 04000000 		.4byte	.LCFI8
 8375 00a4 0200     		.2byte	0x2
 8376 00a6 7D       		.byte	0x7d
 8377 00a7 08       		.sleb128 8
 8378 00a8 04000000 		.4byte	.LCFI8
 8379 00ac 06000000 		.4byte	.LCFI9
 8380 00b0 0200     		.2byte	0x2
 8381 00b2 7D       		.byte	0x7d
 8382 00b3 28       		.sleb128 40
 8383 00b4 06000000 		.4byte	.LCFI9
 8384 00b8 1A010000 		.4byte	.LFE59
 8385 00bc 0200     		.2byte	0x2
 8386 00be 77       		.byte	0x77
 8387 00bf 28       		.sleb128 40
 8388 00c0 00000000 		.4byte	0
 8389 00c4 00000000 		.4byte	0
 8390              	.LLST4:
 8391 00c8 00000000 		.4byte	.LFB60
 8392 00cc 02000000 		.4byte	.LCFI10
 8393 00d0 0200     		.2byte	0x2
 8394 00d2 7D       		.byte	0x7d
 8395 00d3 00       		.sleb128 0
 8396 00d4 02000000 		.4byte	.LCFI10
 8397 00d8 04000000 		.4byte	.LCFI11
 8398 00dc 0200     		.2byte	0x2
 8399 00de 7D       		.byte	0x7d
 8400 00df 08       		.sleb128 8
 8401 00e0 04000000 		.4byte	.LCFI11
 8402 00e4 06000000 		.4byte	.LCFI12
ARM GAS  C:\Users\CHUCK~1.ERH\AppData\Local\Temp\cclfQUCJ.s 			page 181


 8403 00e8 0200     		.2byte	0x2
 8404 00ea 7D       		.byte	0x7d
 8405 00eb 18       		.sleb128 24
 8406 00ec 06000000 		.4byte	.LCFI12
 8407 00f0 3E000000 		.4byte	.LFE60
 8408 00f4 0200     		.2byte	0x2
 8409 00f6 77       		.byte	0x77
 8410 00f7 18       		.sleb128 24
 8411 00f8 00000000 		.4byte	0
 8412 00fc 00000000 		.4byte	0
 8413              	.LLST5:
 8414 0100 00000000 		.4byte	.LFB61
 8415 0104 02000000 		.4byte	.LCFI13
 8416 0108 0200     		.2byte	0x2
 8417 010a 7D       		.byte	0x7d
 8418 010b 00       		.sleb128 0
 8419 010c 02000000 		.4byte	.LCFI13
 8420 0110 04000000 		.4byte	.LCFI14
 8421 0114 0200     		.2byte	0x2
 8422 0116 7D       		.byte	0x7d
 8423 0117 08       		.sleb128 8
 8424 0118 04000000 		.4byte	.LCFI14
 8425 011c 06000000 		.4byte	.LCFI15
 8426 0120 0200     		.2byte	0x2
 8427 0122 7D       		.byte	0x7d
 8428 0123 18       		.sleb128 24
 8429 0124 06000000 		.4byte	.LCFI15
 8430 0128 3E000000 		.4byte	.LFE61
 8431 012c 0200     		.2byte	0x2
 8432 012e 77       		.byte	0x77
 8433 012f 18       		.sleb128 24
 8434 0130 00000000 		.4byte	0
 8435 0134 00000000 		.4byte	0
 8436              	.LLST6:
 8437 0138 00000000 		.4byte	.LFB62
 8438 013c 02000000 		.4byte	.LCFI16
 8439 0140 0200     		.2byte	0x2
 8440 0142 7D       		.byte	0x7d
 8441 0143 00       		.sleb128 0
 8442 0144 02000000 		.4byte	.LCFI16
 8443 0148 04000000 		.4byte	.LCFI17
 8444 014c 0200     		.2byte	0x2
 8445 014e 7D       		.byte	0x7d
 8446 014f 08       		.sleb128 8
 8447 0150 04000000 		.4byte	.LCFI17
 8448 0154 06000000 		.4byte	.LCFI18
 8449 0158 0200     		.2byte	0x2
 8450 015a 7D       		.byte	0x7d
 8451 015b 10       		.sleb128 16
 8452 015c 06000000 		.4byte	.LCFI18
 8453 0160 1E000000 		.4byte	.LFE62
 8454 0164 0200     		.2byte	0x2
 8455 0166 77       		.byte	0x77
 8456 0167 10       		.sleb128 16
 8457 0168 00000000 		.4byte	0
 8458 016c 00000000 		.4byte	0
 8459              	.LLST7:
ARM GAS  C:\Users\CHUCK~1.ERH\AppData\Local\Temp\cclfQUCJ.s 			page 182


 8460 0170 00000000 		.4byte	.LFB63
 8461 0174 02000000 		.4byte	.LCFI19
 8462 0178 0200     		.2byte	0x2
 8463 017a 7D       		.byte	0x7d
 8464 017b 00       		.sleb128 0
 8465 017c 02000000 		.4byte	.LCFI19
 8466 0180 04000000 		.4byte	.LCFI20
 8467 0184 0200     		.2byte	0x2
 8468 0186 7D       		.byte	0x7d
 8469 0187 08       		.sleb128 8
 8470 0188 04000000 		.4byte	.LCFI20
 8471 018c 06000000 		.4byte	.LCFI21
 8472 0190 0200     		.2byte	0x2
 8473 0192 7D       		.byte	0x7d
 8474 0193 10       		.sleb128 16
 8475 0194 06000000 		.4byte	.LCFI21
 8476 0198 1E000000 		.4byte	.LFE63
 8477 019c 0200     		.2byte	0x2
 8478 019e 77       		.byte	0x77
 8479 019f 10       		.sleb128 16
 8480 01a0 00000000 		.4byte	0
 8481 01a4 00000000 		.4byte	0
 8482              	.LLST8:
 8483 01a8 00000000 		.4byte	.LFB64
 8484 01ac 02000000 		.4byte	.LCFI22
 8485 01b0 0200     		.2byte	0x2
 8486 01b2 7D       		.byte	0x7d
 8487 01b3 00       		.sleb128 0
 8488 01b4 02000000 		.4byte	.LCFI22
 8489 01b8 04000000 		.4byte	.LCFI23
 8490 01bc 0200     		.2byte	0x2
 8491 01be 7D       		.byte	0x7d
 8492 01bf 08       		.sleb128 8
 8493 01c0 04000000 		.4byte	.LCFI23
 8494 01c4 06000000 		.4byte	.LCFI24
 8495 01c8 0200     		.2byte	0x2
 8496 01ca 7D       		.byte	0x7d
 8497 01cb 10       		.sleb128 16
 8498 01cc 06000000 		.4byte	.LCFI24
 8499 01d0 22000000 		.4byte	.LFE64
 8500 01d4 0200     		.2byte	0x2
 8501 01d6 77       		.byte	0x77
 8502 01d7 10       		.sleb128 16
 8503 01d8 00000000 		.4byte	0
 8504 01dc 00000000 		.4byte	0
 8505              	.LLST9:
 8506 01e0 00000000 		.4byte	.LFB65
 8507 01e4 02000000 		.4byte	.LCFI25
 8508 01e8 0200     		.2byte	0x2
 8509 01ea 7D       		.byte	0x7d
 8510 01eb 00       		.sleb128 0
 8511 01ec 02000000 		.4byte	.LCFI25
 8512 01f0 04000000 		.4byte	.LCFI26
 8513 01f4 0200     		.2byte	0x2
 8514 01f6 7D       		.byte	0x7d
 8515 01f7 08       		.sleb128 8
 8516 01f8 04000000 		.4byte	.LCFI26
ARM GAS  C:\Users\CHUCK~1.ERH\AppData\Local\Temp\cclfQUCJ.s 			page 183


 8517 01fc 06000000 		.4byte	.LCFI27
 8518 0200 0200     		.2byte	0x2
 8519 0202 7D       		.byte	0x7d
 8520 0203 10       		.sleb128 16
 8521 0204 06000000 		.4byte	.LCFI27
 8522 0208 28000000 		.4byte	.LFE65
 8523 020c 0200     		.2byte	0x2
 8524 020e 77       		.byte	0x77
 8525 020f 10       		.sleb128 16
 8526 0210 00000000 		.4byte	0
 8527 0214 00000000 		.4byte	0
 8528              	.LLST10:
 8529 0218 00000000 		.4byte	.LFB66
 8530 021c 02000000 		.4byte	.LCFI28
 8531 0220 0200     		.2byte	0x2
 8532 0222 7D       		.byte	0x7d
 8533 0223 00       		.sleb128 0
 8534 0224 02000000 		.4byte	.LCFI28
 8535 0228 04000000 		.4byte	.LCFI29
 8536 022c 0200     		.2byte	0x2
 8537 022e 7D       		.byte	0x7d
 8538 022f 08       		.sleb128 8
 8539 0230 04000000 		.4byte	.LCFI29
 8540 0234 06000000 		.4byte	.LCFI30
 8541 0238 0200     		.2byte	0x2
 8542 023a 7D       		.byte	0x7d
 8543 023b 10       		.sleb128 16
 8544 023c 06000000 		.4byte	.LCFI30
 8545 0240 22000000 		.4byte	.LFE66
 8546 0244 0200     		.2byte	0x2
 8547 0246 77       		.byte	0x77
 8548 0247 10       		.sleb128 16
 8549 0248 00000000 		.4byte	0
 8550 024c 00000000 		.4byte	0
 8551              	.LLST11:
 8552 0250 00000000 		.4byte	.LFB67
 8553 0254 02000000 		.4byte	.LCFI31
 8554 0258 0200     		.2byte	0x2
 8555 025a 7D       		.byte	0x7d
 8556 025b 00       		.sleb128 0
 8557 025c 02000000 		.4byte	.LCFI31
 8558 0260 04000000 		.4byte	.LCFI32
 8559 0264 0200     		.2byte	0x2
 8560 0266 7D       		.byte	0x7d
 8561 0267 08       		.sleb128 8
 8562 0268 04000000 		.4byte	.LCFI32
 8563 026c 06000000 		.4byte	.LCFI33
 8564 0270 0200     		.2byte	0x2
 8565 0272 7D       		.byte	0x7d
 8566 0273 10       		.sleb128 16
 8567 0274 06000000 		.4byte	.LCFI33
 8568 0278 28000000 		.4byte	.LFE67
 8569 027c 0200     		.2byte	0x2
 8570 027e 77       		.byte	0x77
 8571 027f 10       		.sleb128 16
 8572 0280 00000000 		.4byte	0
 8573 0284 00000000 		.4byte	0
ARM GAS  C:\Users\CHUCK~1.ERH\AppData\Local\Temp\cclfQUCJ.s 			page 184


 8574              	.LLST12:
 8575 0288 00000000 		.4byte	.LFB68
 8576 028c 02000000 		.4byte	.LCFI34
 8577 0290 0200     		.2byte	0x2
 8578 0292 7D       		.byte	0x7d
 8579 0293 00       		.sleb128 0
 8580 0294 02000000 		.4byte	.LCFI34
 8581 0298 04000000 		.4byte	.LCFI35
 8582 029c 0200     		.2byte	0x2
 8583 029e 7D       		.byte	0x7d
 8584 029f 08       		.sleb128 8
 8585 02a0 04000000 		.4byte	.LCFI35
 8586 02a4 06000000 		.4byte	.LCFI36
 8587 02a8 0200     		.2byte	0x2
 8588 02aa 7D       		.byte	0x7d
 8589 02ab 10       		.sleb128 16
 8590 02ac 06000000 		.4byte	.LCFI36
 8591 02b0 22000000 		.4byte	.LFE68
 8592 02b4 0200     		.2byte	0x2
 8593 02b6 77       		.byte	0x77
 8594 02b7 10       		.sleb128 16
 8595 02b8 00000000 		.4byte	0
 8596 02bc 00000000 		.4byte	0
 8597              	.LLST13:
 8598 02c0 00000000 		.4byte	.LFB69
 8599 02c4 02000000 		.4byte	.LCFI37
 8600 02c8 0200     		.2byte	0x2
 8601 02ca 7D       		.byte	0x7d
 8602 02cb 00       		.sleb128 0
 8603 02cc 02000000 		.4byte	.LCFI37
 8604 02d0 04000000 		.4byte	.LCFI38
 8605 02d4 0200     		.2byte	0x2
 8606 02d6 7D       		.byte	0x7d
 8607 02d7 08       		.sleb128 8
 8608 02d8 04000000 		.4byte	.LCFI38
 8609 02dc 06000000 		.4byte	.LCFI39
 8610 02e0 0200     		.2byte	0x2
 8611 02e2 7D       		.byte	0x7d
 8612 02e3 10       		.sleb128 16
 8613 02e4 06000000 		.4byte	.LCFI39
 8614 02e8 28000000 		.4byte	.LFE69
 8615 02ec 0200     		.2byte	0x2
 8616 02ee 77       		.byte	0x77
 8617 02ef 10       		.sleb128 16
 8618 02f0 00000000 		.4byte	0
 8619 02f4 00000000 		.4byte	0
 8620              	.LLST14:
 8621 02f8 00000000 		.4byte	.LFB70
 8622 02fc 02000000 		.4byte	.LCFI40
 8623 0300 0200     		.2byte	0x2
 8624 0302 7D       		.byte	0x7d
 8625 0303 00       		.sleb128 0
 8626 0304 02000000 		.4byte	.LCFI40
 8627 0308 04000000 		.4byte	.LCFI41
 8628 030c 0200     		.2byte	0x2
 8629 030e 7D       		.byte	0x7d
 8630 030f 08       		.sleb128 8
ARM GAS  C:\Users\CHUCK~1.ERH\AppData\Local\Temp\cclfQUCJ.s 			page 185


 8631 0310 04000000 		.4byte	.LCFI41
 8632 0314 06000000 		.4byte	.LCFI42
 8633 0318 0200     		.2byte	0x2
 8634 031a 7D       		.byte	0x7d
 8635 031b 10       		.sleb128 16
 8636 031c 06000000 		.4byte	.LCFI42
 8637 0320 24000000 		.4byte	.LFE70
 8638 0324 0200     		.2byte	0x2
 8639 0326 77       		.byte	0x77
 8640 0327 10       		.sleb128 16
 8641 0328 00000000 		.4byte	0
 8642 032c 00000000 		.4byte	0
 8643              	.LLST15:
 8644 0330 00000000 		.4byte	.LFB71
 8645 0334 02000000 		.4byte	.LCFI43
 8646 0338 0200     		.2byte	0x2
 8647 033a 7D       		.byte	0x7d
 8648 033b 00       		.sleb128 0
 8649 033c 02000000 		.4byte	.LCFI43
 8650 0340 04000000 		.4byte	.LCFI44
 8651 0344 0200     		.2byte	0x2
 8652 0346 7D       		.byte	0x7d
 8653 0347 08       		.sleb128 8
 8654 0348 04000000 		.4byte	.LCFI44
 8655 034c 06000000 		.4byte	.LCFI45
 8656 0350 0200     		.2byte	0x2
 8657 0352 7D       		.byte	0x7d
 8658 0353 10       		.sleb128 16
 8659 0354 06000000 		.4byte	.LCFI45
 8660 0358 24000000 		.4byte	.LFE71
 8661 035c 0200     		.2byte	0x2
 8662 035e 77       		.byte	0x77
 8663 035f 10       		.sleb128 16
 8664 0360 00000000 		.4byte	0
 8665 0364 00000000 		.4byte	0
 8666              	.LLST16:
 8667 0368 00000000 		.4byte	.LFB72
 8668 036c 02000000 		.4byte	.LCFI46
 8669 0370 0200     		.2byte	0x2
 8670 0372 7D       		.byte	0x7d
 8671 0373 00       		.sleb128 0
 8672 0374 02000000 		.4byte	.LCFI46
 8673 0378 04000000 		.4byte	.LCFI47
 8674 037c 0200     		.2byte	0x2
 8675 037e 7D       		.byte	0x7d
 8676 037f 08       		.sleb128 8
 8677 0380 04000000 		.4byte	.LCFI47
 8678 0384 06000000 		.4byte	.LCFI48
 8679 0388 0200     		.2byte	0x2
 8680 038a 7D       		.byte	0x7d
 8681 038b 10       		.sleb128 16
 8682 038c 06000000 		.4byte	.LCFI48
 8683 0390 24000000 		.4byte	.LFE72
 8684 0394 0200     		.2byte	0x2
 8685 0396 77       		.byte	0x77
 8686 0397 10       		.sleb128 16
 8687 0398 00000000 		.4byte	0
ARM GAS  C:\Users\CHUCK~1.ERH\AppData\Local\Temp\cclfQUCJ.s 			page 186


 8688 039c 00000000 		.4byte	0
 8689              	.LLST17:
 8690 03a0 00000000 		.4byte	.LFB73
 8691 03a4 02000000 		.4byte	.LCFI49
 8692 03a8 0200     		.2byte	0x2
 8693 03aa 7D       		.byte	0x7d
 8694 03ab 00       		.sleb128 0
 8695 03ac 02000000 		.4byte	.LCFI49
 8696 03b0 04000000 		.4byte	.LCFI50
 8697 03b4 0200     		.2byte	0x2
 8698 03b6 7D       		.byte	0x7d
 8699 03b7 08       		.sleb128 8
 8700 03b8 04000000 		.4byte	.LCFI50
 8701 03bc 06000000 		.4byte	.LCFI51
 8702 03c0 0200     		.2byte	0x2
 8703 03c2 7D       		.byte	0x7d
 8704 03c3 10       		.sleb128 16
 8705 03c4 06000000 		.4byte	.LCFI51
 8706 03c8 38000000 		.4byte	.LFE73
 8707 03cc 0200     		.2byte	0x2
 8708 03ce 77       		.byte	0x77
 8709 03cf 10       		.sleb128 16
 8710 03d0 00000000 		.4byte	0
 8711 03d4 00000000 		.4byte	0
 8712              	.LLST18:
 8713 03d8 00000000 		.4byte	.LFB74
 8714 03dc 02000000 		.4byte	.LCFI52
 8715 03e0 0200     		.2byte	0x2
 8716 03e2 7D       		.byte	0x7d
 8717 03e3 00       		.sleb128 0
 8718 03e4 02000000 		.4byte	.LCFI52
 8719 03e8 04000000 		.4byte	.LCFI53
 8720 03ec 0200     		.2byte	0x2
 8721 03ee 7D       		.byte	0x7d
 8722 03ef 08       		.sleb128 8
 8723 03f0 04000000 		.4byte	.LCFI53
 8724 03f4 06000000 		.4byte	.LCFI54
 8725 03f8 0200     		.2byte	0x2
 8726 03fa 7D       		.byte	0x7d
 8727 03fb 18       		.sleb128 24
 8728 03fc 06000000 		.4byte	.LCFI54
 8729 0400 3E000000 		.4byte	.LFE74
 8730 0404 0200     		.2byte	0x2
 8731 0406 77       		.byte	0x77
 8732 0407 18       		.sleb128 24
 8733 0408 00000000 		.4byte	0
 8734 040c 00000000 		.4byte	0
 8735              	.LLST19:
 8736 0410 00000000 		.4byte	.LFB75
 8737 0414 02000000 		.4byte	.LCFI55
 8738 0418 0200     		.2byte	0x2
 8739 041a 7D       		.byte	0x7d
 8740 041b 00       		.sleb128 0
 8741 041c 02000000 		.4byte	.LCFI55
 8742 0420 04000000 		.4byte	.LCFI56
 8743 0424 0200     		.2byte	0x2
 8744 0426 7D       		.byte	0x7d
ARM GAS  C:\Users\CHUCK~1.ERH\AppData\Local\Temp\cclfQUCJ.s 			page 187


 8745 0427 08       		.sleb128 8
 8746 0428 04000000 		.4byte	.LCFI56
 8747 042c 06000000 		.4byte	.LCFI57
 8748 0430 0200     		.2byte	0x2
 8749 0432 7D       		.byte	0x7d
 8750 0433 10       		.sleb128 16
 8751 0434 06000000 		.4byte	.LCFI57
 8752 0438 38000000 		.4byte	.LFE75
 8753 043c 0200     		.2byte	0x2
 8754 043e 77       		.byte	0x77
 8755 043f 10       		.sleb128 16
 8756 0440 00000000 		.4byte	0
 8757 0444 00000000 		.4byte	0
 8758              	.LLST20:
 8759 0448 00000000 		.4byte	.LFB76
 8760 044c 02000000 		.4byte	.LCFI58
 8761 0450 0200     		.2byte	0x2
 8762 0452 7D       		.byte	0x7d
 8763 0453 00       		.sleb128 0
 8764 0454 02000000 		.4byte	.LCFI58
 8765 0458 04000000 		.4byte	.LCFI59
 8766 045c 0200     		.2byte	0x2
 8767 045e 7D       		.byte	0x7d
 8768 045f 08       		.sleb128 8
 8769 0460 04000000 		.4byte	.LCFI59
 8770 0464 06000000 		.4byte	.LCFI60
 8771 0468 0200     		.2byte	0x2
 8772 046a 7D       		.byte	0x7d
 8773 046b 18       		.sleb128 24
 8774 046c 06000000 		.4byte	.LCFI60
 8775 0470 3E000000 		.4byte	.LFE76
 8776 0474 0200     		.2byte	0x2
 8777 0476 77       		.byte	0x77
 8778 0477 18       		.sleb128 24
 8779 0478 00000000 		.4byte	0
 8780 047c 00000000 		.4byte	0
 8781              	.LLST21:
 8782 0480 00000000 		.4byte	.LFB77
 8783 0484 02000000 		.4byte	.LCFI61
 8784 0488 0200     		.2byte	0x2
 8785 048a 7D       		.byte	0x7d
 8786 048b 00       		.sleb128 0
 8787 048c 02000000 		.4byte	.LCFI61
 8788 0490 04000000 		.4byte	.LCFI62
 8789 0494 0200     		.2byte	0x2
 8790 0496 7D       		.byte	0x7d
 8791 0497 08       		.sleb128 8
 8792 0498 04000000 		.4byte	.LCFI62
 8793 049c 06000000 		.4byte	.LCFI63
 8794 04a0 0200     		.2byte	0x2
 8795 04a2 7D       		.byte	0x7d
 8796 04a3 10       		.sleb128 16
 8797 04a4 06000000 		.4byte	.LCFI63
 8798 04a8 34000000 		.4byte	.LFE77
 8799 04ac 0200     		.2byte	0x2
 8800 04ae 77       		.byte	0x77
 8801 04af 10       		.sleb128 16
ARM GAS  C:\Users\CHUCK~1.ERH\AppData\Local\Temp\cclfQUCJ.s 			page 188


 8802 04b0 00000000 		.4byte	0
 8803 04b4 00000000 		.4byte	0
 8804              	.LLST22:
 8805 04b8 00000000 		.4byte	.LFB78
 8806 04bc 02000000 		.4byte	.LCFI64
 8807 04c0 0200     		.2byte	0x2
 8808 04c2 7D       		.byte	0x7d
 8809 04c3 00       		.sleb128 0
 8810 04c4 02000000 		.4byte	.LCFI64
 8811 04c8 04000000 		.4byte	.LCFI65
 8812 04cc 0200     		.2byte	0x2
 8813 04ce 7D       		.byte	0x7d
 8814 04cf 08       		.sleb128 8
 8815 04d0 04000000 		.4byte	.LCFI65
 8816 04d4 06000000 		.4byte	.LCFI66
 8817 04d8 0200     		.2byte	0x2
 8818 04da 7D       		.byte	0x7d
 8819 04db 10       		.sleb128 16
 8820 04dc 06000000 		.4byte	.LCFI66
 8821 04e0 38000000 		.4byte	.LFE78
 8822 04e4 0200     		.2byte	0x2
 8823 04e6 77       		.byte	0x77
 8824 04e7 10       		.sleb128 16
 8825 04e8 00000000 		.4byte	0
 8826 04ec 00000000 		.4byte	0
 8827              	.LLST23:
 8828 04f0 00000000 		.4byte	.LFB79
 8829 04f4 02000000 		.4byte	.LCFI67
 8830 04f8 0200     		.2byte	0x2
 8831 04fa 7D       		.byte	0x7d
 8832 04fb 00       		.sleb128 0
 8833 04fc 02000000 		.4byte	.LCFI67
 8834 0500 04000000 		.4byte	.LCFI68
 8835 0504 0200     		.2byte	0x2
 8836 0506 7D       		.byte	0x7d
 8837 0507 08       		.sleb128 8
 8838 0508 04000000 		.4byte	.LCFI68
 8839 050c 06000000 		.4byte	.LCFI69
 8840 0510 0200     		.2byte	0x2
 8841 0512 7D       		.byte	0x7d
 8842 0513 18       		.sleb128 24
 8843 0514 06000000 		.4byte	.LCFI69
 8844 0518 3E000000 		.4byte	.LFE79
 8845 051c 0200     		.2byte	0x2
 8846 051e 77       		.byte	0x77
 8847 051f 18       		.sleb128 24
 8848 0520 00000000 		.4byte	0
 8849 0524 00000000 		.4byte	0
 8850              	.LLST24:
 8851 0528 00000000 		.4byte	.LFB80
 8852 052c 02000000 		.4byte	.LCFI70
 8853 0530 0200     		.2byte	0x2
 8854 0532 7D       		.byte	0x7d
 8855 0533 00       		.sleb128 0
 8856 0534 02000000 		.4byte	.LCFI70
 8857 0538 04000000 		.4byte	.LCFI71
 8858 053c 0200     		.2byte	0x2
ARM GAS  C:\Users\CHUCK~1.ERH\AppData\Local\Temp\cclfQUCJ.s 			page 189


 8859 053e 7D       		.byte	0x7d
 8860 053f 08       		.sleb128 8
 8861 0540 04000000 		.4byte	.LCFI71
 8862 0544 06000000 		.4byte	.LCFI72
 8863 0548 0200     		.2byte	0x2
 8864 054a 7D       		.byte	0x7d
 8865 054b 10       		.sleb128 16
 8866 054c 06000000 		.4byte	.LCFI72
 8867 0550 38000000 		.4byte	.LFE80
 8868 0554 0200     		.2byte	0x2
 8869 0556 77       		.byte	0x77
 8870 0557 10       		.sleb128 16
 8871 0558 00000000 		.4byte	0
 8872 055c 00000000 		.4byte	0
 8873              	.LLST25:
 8874 0560 00000000 		.4byte	.LFB81
 8875 0564 02000000 		.4byte	.LCFI73
 8876 0568 0200     		.2byte	0x2
 8877 056a 7D       		.byte	0x7d
 8878 056b 00       		.sleb128 0
 8879 056c 02000000 		.4byte	.LCFI73
 8880 0570 04000000 		.4byte	.LCFI74
 8881 0574 0200     		.2byte	0x2
 8882 0576 7D       		.byte	0x7d
 8883 0577 08       		.sleb128 8
 8884 0578 04000000 		.4byte	.LCFI74
 8885 057c 06000000 		.4byte	.LCFI75
 8886 0580 0200     		.2byte	0x2
 8887 0582 7D       		.byte	0x7d
 8888 0583 18       		.sleb128 24
 8889 0584 06000000 		.4byte	.LCFI75
 8890 0588 3E000000 		.4byte	.LFE81
 8891 058c 0200     		.2byte	0x2
 8892 058e 77       		.byte	0x77
 8893 058f 18       		.sleb128 24
 8894 0590 00000000 		.4byte	0
 8895 0594 00000000 		.4byte	0
 8896              	.LLST26:
 8897 0598 00000000 		.4byte	.LFB82
 8898 059c 02000000 		.4byte	.LCFI76
 8899 05a0 0200     		.2byte	0x2
 8900 05a2 7D       		.byte	0x7d
 8901 05a3 00       		.sleb128 0
 8902 05a4 02000000 		.4byte	.LCFI76
 8903 05a8 04000000 		.4byte	.LCFI77
 8904 05ac 0200     		.2byte	0x2
 8905 05ae 7D       		.byte	0x7d
 8906 05af 08       		.sleb128 8
 8907 05b0 04000000 		.4byte	.LCFI77
 8908 05b4 06000000 		.4byte	.LCFI78
 8909 05b8 0200     		.2byte	0x2
 8910 05ba 7D       		.byte	0x7d
 8911 05bb 18       		.sleb128 24
 8912 05bc 06000000 		.4byte	.LCFI78
 8913 05c0 3E000000 		.4byte	.LFE82
 8914 05c4 0200     		.2byte	0x2
 8915 05c6 77       		.byte	0x77
ARM GAS  C:\Users\CHUCK~1.ERH\AppData\Local\Temp\cclfQUCJ.s 			page 190


 8916 05c7 18       		.sleb128 24
 8917 05c8 00000000 		.4byte	0
 8918 05cc 00000000 		.4byte	0
 8919              	.LLST27:
 8920 05d0 00000000 		.4byte	.LFB83
 8921 05d4 02000000 		.4byte	.LCFI79
 8922 05d8 0200     		.2byte	0x2
 8923 05da 7D       		.byte	0x7d
 8924 05db 00       		.sleb128 0
 8925 05dc 02000000 		.4byte	.LCFI79
 8926 05e0 04000000 		.4byte	.LCFI80
 8927 05e4 0200     		.2byte	0x2
 8928 05e6 7D       		.byte	0x7d
 8929 05e7 08       		.sleb128 8
 8930 05e8 04000000 		.4byte	.LCFI80
 8931 05ec 06000000 		.4byte	.LCFI81
 8932 05f0 0200     		.2byte	0x2
 8933 05f2 7D       		.byte	0x7d
 8934 05f3 10       		.sleb128 16
 8935 05f4 06000000 		.4byte	.LCFI81
 8936 05f8 32000000 		.4byte	.LFE83
 8937 05fc 0200     		.2byte	0x2
 8938 05fe 77       		.byte	0x77
 8939 05ff 10       		.sleb128 16
 8940 0600 00000000 		.4byte	0
 8941 0604 00000000 		.4byte	0
 8942              	.LLST28:
 8943 0608 00000000 		.4byte	.LFB84
 8944 060c 02000000 		.4byte	.LCFI82
 8945 0610 0200     		.2byte	0x2
 8946 0612 7D       		.byte	0x7d
 8947 0613 00       		.sleb128 0
 8948 0614 02000000 		.4byte	.LCFI82
 8949 0618 04000000 		.4byte	.LCFI83
 8950 061c 0200     		.2byte	0x2
 8951 061e 7D       		.byte	0x7d
 8952 061f 08       		.sleb128 8
 8953 0620 04000000 		.4byte	.LCFI83
 8954 0624 06000000 		.4byte	.LCFI84
 8955 0628 0200     		.2byte	0x2
 8956 062a 7D       		.byte	0x7d
 8957 062b 10       		.sleb128 16
 8958 062c 06000000 		.4byte	.LCFI84
 8959 0630 32000000 		.4byte	.LFE84
 8960 0634 0200     		.2byte	0x2
 8961 0636 77       		.byte	0x77
 8962 0637 10       		.sleb128 16
 8963 0638 00000000 		.4byte	0
 8964 063c 00000000 		.4byte	0
 8965              	.LLST29:
 8966 0640 00000000 		.4byte	.LFB85
 8967 0644 02000000 		.4byte	.LCFI85
 8968 0648 0200     		.2byte	0x2
 8969 064a 7D       		.byte	0x7d
 8970 064b 00       		.sleb128 0
 8971 064c 02000000 		.4byte	.LCFI85
 8972 0650 04000000 		.4byte	.LCFI86
ARM GAS  C:\Users\CHUCK~1.ERH\AppData\Local\Temp\cclfQUCJ.s 			page 191


 8973 0654 0200     		.2byte	0x2
 8974 0656 7D       		.byte	0x7d
 8975 0657 08       		.sleb128 8
 8976 0658 04000000 		.4byte	.LCFI86
 8977 065c 06000000 		.4byte	.LCFI87
 8978 0660 0200     		.2byte	0x2
 8979 0662 7D       		.byte	0x7d
 8980 0663 10       		.sleb128 16
 8981 0664 06000000 		.4byte	.LCFI87
 8982 0668 34000000 		.4byte	.LFE85
 8983 066c 0200     		.2byte	0x2
 8984 066e 77       		.byte	0x77
 8985 066f 10       		.sleb128 16
 8986 0670 00000000 		.4byte	0
 8987 0674 00000000 		.4byte	0
 8988              	.LLST30:
 8989 0678 00000000 		.4byte	.LFB86
 8990 067c 02000000 		.4byte	.LCFI88
 8991 0680 0200     		.2byte	0x2
 8992 0682 7D       		.byte	0x7d
 8993 0683 00       		.sleb128 0
 8994 0684 02000000 		.4byte	.LCFI88
 8995 0688 04000000 		.4byte	.LCFI89
 8996 068c 0200     		.2byte	0x2
 8997 068e 7D       		.byte	0x7d
 8998 068f 08       		.sleb128 8
 8999 0690 04000000 		.4byte	.LCFI89
 9000 0694 06000000 		.4byte	.LCFI90
 9001 0698 0200     		.2byte	0x2
 9002 069a 7D       		.byte	0x7d
 9003 069b 10       		.sleb128 16
 9004 069c 06000000 		.4byte	.LCFI90
 9005 06a0 32000000 		.4byte	.LFE86
 9006 06a4 0200     		.2byte	0x2
 9007 06a6 77       		.byte	0x77
 9008 06a7 10       		.sleb128 16
 9009 06a8 00000000 		.4byte	0
 9010 06ac 00000000 		.4byte	0
 9011              	.LLST31:
 9012 06b0 00000000 		.4byte	.LFB87
 9013 06b4 02000000 		.4byte	.LCFI91
 9014 06b8 0200     		.2byte	0x2
 9015 06ba 7D       		.byte	0x7d
 9016 06bb 00       		.sleb128 0
 9017 06bc 02000000 		.4byte	.LCFI91
 9018 06c0 04000000 		.4byte	.LCFI92
 9019 06c4 0200     		.2byte	0x2
 9020 06c6 7D       		.byte	0x7d
 9021 06c7 08       		.sleb128 8
 9022 06c8 04000000 		.4byte	.LCFI92
 9023 06cc 06000000 		.4byte	.LCFI93
 9024 06d0 0200     		.2byte	0x2
 9025 06d2 7D       		.byte	0x7d
 9026 06d3 10       		.sleb128 16
 9027 06d4 06000000 		.4byte	.LCFI93
 9028 06d8 2E000000 		.4byte	.LFE87
 9029 06dc 0200     		.2byte	0x2
ARM GAS  C:\Users\CHUCK~1.ERH\AppData\Local\Temp\cclfQUCJ.s 			page 192


 9030 06de 77       		.byte	0x77
 9031 06df 10       		.sleb128 16
 9032 06e0 00000000 		.4byte	0
 9033 06e4 00000000 		.4byte	0
 9034              	.LLST32:
 9035 06e8 00000000 		.4byte	.LFB88
 9036 06ec 02000000 		.4byte	.LCFI94
 9037 06f0 0200     		.2byte	0x2
 9038 06f2 7D       		.byte	0x7d
 9039 06f3 00       		.sleb128 0
 9040 06f4 02000000 		.4byte	.LCFI94
 9041 06f8 04000000 		.4byte	.LCFI95
 9042 06fc 0200     		.2byte	0x2
 9043 06fe 7D       		.byte	0x7d
 9044 06ff 08       		.sleb128 8
 9045 0700 04000000 		.4byte	.LCFI95
 9046 0704 06000000 		.4byte	.LCFI96
 9047 0708 0200     		.2byte	0x2
 9048 070a 7D       		.byte	0x7d
 9049 070b 10       		.sleb128 16
 9050 070c 06000000 		.4byte	.LCFI96
 9051 0710 32000000 		.4byte	.LFE88
 9052 0714 0200     		.2byte	0x2
 9053 0716 77       		.byte	0x77
 9054 0717 10       		.sleb128 16
 9055 0718 00000000 		.4byte	0
 9056 071c 00000000 		.4byte	0
 9057              	.LLST33:
 9058 0720 00000000 		.4byte	.LFB89
 9059 0724 02000000 		.4byte	.LCFI97
 9060 0728 0200     		.2byte	0x2
 9061 072a 7D       		.byte	0x7d
 9062 072b 00       		.sleb128 0
 9063 072c 02000000 		.4byte	.LCFI97
 9064 0730 04000000 		.4byte	.LCFI98
 9065 0734 0200     		.2byte	0x2
 9066 0736 7D       		.byte	0x7d
 9067 0737 08       		.sleb128 8
 9068 0738 04000000 		.4byte	.LCFI98
 9069 073c 06000000 		.4byte	.LCFI99
 9070 0740 0200     		.2byte	0x2
 9071 0742 7D       		.byte	0x7d
 9072 0743 10       		.sleb128 16
 9073 0744 06000000 		.4byte	.LCFI99
 9074 0748 2E000000 		.4byte	.LFE89
 9075 074c 0200     		.2byte	0x2
 9076 074e 77       		.byte	0x77
 9077 074f 10       		.sleb128 16
 9078 0750 00000000 		.4byte	0
 9079 0754 00000000 		.4byte	0
 9080              	.LLST34:
 9081 0758 00000000 		.4byte	.LFB90
 9082 075c 02000000 		.4byte	.LCFI100
 9083 0760 0200     		.2byte	0x2
 9084 0762 7D       		.byte	0x7d
 9085 0763 00       		.sleb128 0
 9086 0764 02000000 		.4byte	.LCFI100
ARM GAS  C:\Users\CHUCK~1.ERH\AppData\Local\Temp\cclfQUCJ.s 			page 193


 9087 0768 04000000 		.4byte	.LCFI101
 9088 076c 0200     		.2byte	0x2
 9089 076e 7D       		.byte	0x7d
 9090 076f 08       		.sleb128 8
 9091 0770 04000000 		.4byte	.LCFI101
 9092 0774 06000000 		.4byte	.LCFI102
 9093 0778 0200     		.2byte	0x2
 9094 077a 7D       		.byte	0x7d
 9095 077b 10       		.sleb128 16
 9096 077c 06000000 		.4byte	.LCFI102
 9097 0780 2E000000 		.4byte	.LFE90
 9098 0784 0200     		.2byte	0x2
 9099 0786 77       		.byte	0x77
 9100 0787 10       		.sleb128 16
 9101 0788 00000000 		.4byte	0
 9102 078c 00000000 		.4byte	0
 9103              	.LLST35:
 9104 0790 00000000 		.4byte	.LFB91
 9105 0794 02000000 		.4byte	.LCFI103
 9106 0798 0200     		.2byte	0x2
 9107 079a 7D       		.byte	0x7d
 9108 079b 00       		.sleb128 0
 9109 079c 02000000 		.4byte	.LCFI103
 9110 07a0 04000000 		.4byte	.LCFI104
 9111 07a4 0200     		.2byte	0x2
 9112 07a6 7D       		.byte	0x7d
 9113 07a7 08       		.sleb128 8
 9114 07a8 04000000 		.4byte	.LCFI104
 9115 07ac 06000000 		.4byte	.LCFI105
 9116 07b0 0200     		.2byte	0x2
 9117 07b2 7D       		.byte	0x7d
 9118 07b3 10       		.sleb128 16
 9119 07b4 06000000 		.4byte	.LCFI105
 9120 07b8 32000000 		.4byte	.LFE91
 9121 07bc 0200     		.2byte	0x2
 9122 07be 77       		.byte	0x77
 9123 07bf 10       		.sleb128 16
 9124 07c0 00000000 		.4byte	0
 9125 07c4 00000000 		.4byte	0
 9126              	.LLST36:
 9127 07c8 00000000 		.4byte	.LFB92
 9128 07cc 02000000 		.4byte	.LCFI106
 9129 07d0 0200     		.2byte	0x2
 9130 07d2 7D       		.byte	0x7d
 9131 07d3 00       		.sleb128 0
 9132 07d4 02000000 		.4byte	.LCFI106
 9133 07d8 04000000 		.4byte	.LCFI107
 9134 07dc 0200     		.2byte	0x2
 9135 07de 7D       		.byte	0x7d
 9136 07df 08       		.sleb128 8
 9137 07e0 04000000 		.4byte	.LCFI107
 9138 07e4 06000000 		.4byte	.LCFI108
 9139 07e8 0200     		.2byte	0x2
 9140 07ea 7D       		.byte	0x7d
 9141 07eb 10       		.sleb128 16
 9142 07ec 06000000 		.4byte	.LCFI108
 9143 07f0 2E000000 		.4byte	.LFE92
ARM GAS  C:\Users\CHUCK~1.ERH\AppData\Local\Temp\cclfQUCJ.s 			page 194


 9144 07f4 0200     		.2byte	0x2
 9145 07f6 77       		.byte	0x77
 9146 07f7 10       		.sleb128 16
 9147 07f8 00000000 		.4byte	0
 9148 07fc 00000000 		.4byte	0
 9149              	.LLST37:
 9150 0800 00000000 		.4byte	.LFB93
 9151 0804 02000000 		.4byte	.LCFI109
 9152 0808 0200     		.2byte	0x2
 9153 080a 7D       		.byte	0x7d
 9154 080b 00       		.sleb128 0
 9155 080c 02000000 		.4byte	.LCFI109
 9156 0810 04000000 		.4byte	.LCFI110
 9157 0814 0200     		.2byte	0x2
 9158 0816 7D       		.byte	0x7d
 9159 0817 04       		.sleb128 4
 9160 0818 04000000 		.4byte	.LCFI110
 9161 081c 06000000 		.4byte	.LCFI111
 9162 0820 0200     		.2byte	0x2
 9163 0822 7D       		.byte	0x7d
 9164 0823 10       		.sleb128 16
 9165 0824 06000000 		.4byte	.LCFI111
 9166 0828 18000000 		.4byte	.LFE93
 9167 082c 0200     		.2byte	0x2
 9168 082e 77       		.byte	0x77
 9169 082f 10       		.sleb128 16
 9170 0830 00000000 		.4byte	0
 9171 0834 00000000 		.4byte	0
 9172              	.LLST38:
 9173 0838 00000000 		.4byte	.LFB94
 9174 083c 02000000 		.4byte	.LCFI112
 9175 0840 0200     		.2byte	0x2
 9176 0842 7D       		.byte	0x7d
 9177 0843 00       		.sleb128 0
 9178 0844 02000000 		.4byte	.LCFI112
 9179 0848 04000000 		.4byte	.LCFI113
 9180 084c 0200     		.2byte	0x2
 9181 084e 7D       		.byte	0x7d
 9182 084f 08       		.sleb128 8
 9183 0850 04000000 		.4byte	.LCFI113
 9184 0854 06000000 		.4byte	.LCFI114
 9185 0858 0200     		.2byte	0x2
 9186 085a 7D       		.byte	0x7d
 9187 085b 10       		.sleb128 16
 9188 085c 06000000 		.4byte	.LCFI114
 9189 0860 32000000 		.4byte	.LFE94
 9190 0864 0200     		.2byte	0x2
 9191 0866 77       		.byte	0x77
 9192 0867 10       		.sleb128 16
 9193 0868 00000000 		.4byte	0
 9194 086c 00000000 		.4byte	0
 9195              	.LLST39:
 9196 0870 00000000 		.4byte	.LFB95
 9197 0874 02000000 		.4byte	.LCFI115
 9198 0878 0200     		.2byte	0x2
 9199 087a 7D       		.byte	0x7d
 9200 087b 00       		.sleb128 0
ARM GAS  C:\Users\CHUCK~1.ERH\AppData\Local\Temp\cclfQUCJ.s 			page 195


 9201 087c 02000000 		.4byte	.LCFI115
 9202 0880 04000000 		.4byte	.LCFI116
 9203 0884 0200     		.2byte	0x2
 9204 0886 7D       		.byte	0x7d
 9205 0887 08       		.sleb128 8
 9206 0888 04000000 		.4byte	.LCFI116
 9207 088c 06000000 		.4byte	.LCFI117
 9208 0890 0200     		.2byte	0x2
 9209 0892 7D       		.byte	0x7d
 9210 0893 18       		.sleb128 24
 9211 0894 06000000 		.4byte	.LCFI117
 9212 0898 52000000 		.4byte	.LFE95
 9213 089c 0200     		.2byte	0x2
 9214 089e 77       		.byte	0x77
 9215 089f 18       		.sleb128 24
 9216 08a0 00000000 		.4byte	0
 9217 08a4 00000000 		.4byte	0
 9218              	.LLST40:
 9219 08a8 00000000 		.4byte	.LFB96
 9220 08ac 02000000 		.4byte	.LCFI118
 9221 08b0 0200     		.2byte	0x2
 9222 08b2 7D       		.byte	0x7d
 9223 08b3 00       		.sleb128 0
 9224 08b4 02000000 		.4byte	.LCFI118
 9225 08b8 04000000 		.4byte	.LCFI119
 9226 08bc 0200     		.2byte	0x2
 9227 08be 7D       		.byte	0x7d
 9228 08bf 08       		.sleb128 8
 9229 08c0 04000000 		.4byte	.LCFI119
 9230 08c4 06000000 		.4byte	.LCFI120
 9231 08c8 0200     		.2byte	0x2
 9232 08ca 7D       		.byte	0x7d
 9233 08cb 18       		.sleb128 24
 9234 08cc 06000000 		.4byte	.LCFI120
 9235 08d0 48000000 		.4byte	.LFE96
 9236 08d4 0200     		.2byte	0x2
 9237 08d6 77       		.byte	0x77
 9238 08d7 18       		.sleb128 24
 9239 08d8 00000000 		.4byte	0
 9240 08dc 00000000 		.4byte	0
 9241              	.LLST41:
 9242 08e0 00000000 		.4byte	.LFB97
 9243 08e4 02000000 		.4byte	.LCFI121
 9244 08e8 0200     		.2byte	0x2
 9245 08ea 7D       		.byte	0x7d
 9246 08eb 00       		.sleb128 0
 9247 08ec 02000000 		.4byte	.LCFI121
 9248 08f0 04000000 		.4byte	.LCFI122
 9249 08f4 0200     		.2byte	0x2
 9250 08f6 7D       		.byte	0x7d
 9251 08f7 08       		.sleb128 8
 9252 08f8 04000000 		.4byte	.LCFI122
 9253 08fc 06000000 		.4byte	.LCFI123
 9254 0900 0200     		.2byte	0x2
 9255 0902 7D       		.byte	0x7d
 9256 0903 18       		.sleb128 24
 9257 0904 06000000 		.4byte	.LCFI123
ARM GAS  C:\Users\CHUCK~1.ERH\AppData\Local\Temp\cclfQUCJ.s 			page 196


 9258 0908 48000000 		.4byte	.LFE97
 9259 090c 0200     		.2byte	0x2
 9260 090e 77       		.byte	0x77
 9261 090f 18       		.sleb128 24
 9262 0910 00000000 		.4byte	0
 9263 0914 00000000 		.4byte	0
 9264              	.LLST42:
 9265 0918 00000000 		.4byte	.LFB98
 9266 091c 02000000 		.4byte	.LCFI124
 9267 0920 0200     		.2byte	0x2
 9268 0922 7D       		.byte	0x7d
 9269 0923 00       		.sleb128 0
 9270 0924 02000000 		.4byte	.LCFI124
 9271 0928 04000000 		.4byte	.LCFI125
 9272 092c 0200     		.2byte	0x2
 9273 092e 7D       		.byte	0x7d
 9274 092f 08       		.sleb128 8
 9275 0930 04000000 		.4byte	.LCFI125
 9276 0934 06000000 		.4byte	.LCFI126
 9277 0938 0200     		.2byte	0x2
 9278 093a 7D       		.byte	0x7d
 9279 093b 20       		.sleb128 32
 9280 093c 06000000 		.4byte	.LCFI126
 9281 0940 B6000000 		.4byte	.LFE98
 9282 0944 0200     		.2byte	0x2
 9283 0946 77       		.byte	0x77
 9284 0947 20       		.sleb128 32
 9285 0948 00000000 		.4byte	0
 9286 094c 00000000 		.4byte	0
 9287              	.LLST43:
 9288 0950 00000000 		.4byte	.LFB99
 9289 0954 02000000 		.4byte	.LCFI127
 9290 0958 0200     		.2byte	0x2
 9291 095a 7D       		.byte	0x7d
 9292 095b 00       		.sleb128 0
 9293 095c 02000000 		.4byte	.LCFI127
 9294 0960 04000000 		.4byte	.LCFI128
 9295 0964 0200     		.2byte	0x2
 9296 0966 7D       		.byte	0x7d
 9297 0967 08       		.sleb128 8
 9298 0968 04000000 		.4byte	.LCFI128
 9299 096c 06000000 		.4byte	.LCFI129
 9300 0970 0200     		.2byte	0x2
 9301 0972 7D       		.byte	0x7d
 9302 0973 20       		.sleb128 32
 9303 0974 06000000 		.4byte	.LCFI129
 9304 0978 C2000000 		.4byte	.LFE99
 9305 097c 0200     		.2byte	0x2
 9306 097e 77       		.byte	0x77
 9307 097f 20       		.sleb128 32
 9308 0980 00000000 		.4byte	0
 9309 0984 00000000 		.4byte	0
 9310              	.LLST44:
 9311 0988 00000000 		.4byte	.LFB100
 9312 098c 02000000 		.4byte	.LCFI130
 9313 0990 0200     		.2byte	0x2
 9314 0992 7D       		.byte	0x7d
ARM GAS  C:\Users\CHUCK~1.ERH\AppData\Local\Temp\cclfQUCJ.s 			page 197


 9315 0993 00       		.sleb128 0
 9316 0994 02000000 		.4byte	.LCFI130
 9317 0998 04000000 		.4byte	.LCFI131
 9318 099c 0200     		.2byte	0x2
 9319 099e 7D       		.byte	0x7d
 9320 099f 08       		.sleb128 8
 9321 09a0 04000000 		.4byte	.LCFI131
 9322 09a4 06000000 		.4byte	.LCFI132
 9323 09a8 0200     		.2byte	0x2
 9324 09aa 7D       		.byte	0x7d
 9325 09ab 20       		.sleb128 32
 9326 09ac 06000000 		.4byte	.LCFI132
 9327 09b0 0E010000 		.4byte	.LFE100
 9328 09b4 0200     		.2byte	0x2
 9329 09b6 77       		.byte	0x77
 9330 09b7 20       		.sleb128 32
 9331 09b8 00000000 		.4byte	0
 9332 09bc 00000000 		.4byte	0
 9333              	.LLST45:
 9334 09c0 00000000 		.4byte	.LFB101
 9335 09c4 02000000 		.4byte	.LCFI133
 9336 09c8 0200     		.2byte	0x2
 9337 09ca 7D       		.byte	0x7d
 9338 09cb 00       		.sleb128 0
 9339 09cc 02000000 		.4byte	.LCFI133
 9340 09d0 04000000 		.4byte	.LCFI134
 9341 09d4 0200     		.2byte	0x2
 9342 09d6 7D       		.byte	0x7d
 9343 09d7 08       		.sleb128 8
 9344 09d8 04000000 		.4byte	.LCFI134
 9345 09dc 06000000 		.4byte	.LCFI135
 9346 09e0 0200     		.2byte	0x2
 9347 09e2 7D       		.byte	0x7d
 9348 09e3 18       		.sleb128 24
 9349 09e4 06000000 		.4byte	.LCFI135
 9350 09e8 D2000000 		.4byte	.LFE101
 9351 09ec 0200     		.2byte	0x2
 9352 09ee 77       		.byte	0x77
 9353 09ef 18       		.sleb128 24
 9354 09f0 00000000 		.4byte	0
 9355 09f4 00000000 		.4byte	0
 9356              	.LLST46:
 9357 09f8 00000000 		.4byte	.LFB102
 9358 09fc 02000000 		.4byte	.LCFI136
 9359 0a00 0200     		.2byte	0x2
 9360 0a02 7D       		.byte	0x7d
 9361 0a03 00       		.sleb128 0
 9362 0a04 02000000 		.4byte	.LCFI136
 9363 0a08 04000000 		.4byte	.LCFI137
 9364 0a0c 0200     		.2byte	0x2
 9365 0a0e 7D       		.byte	0x7d
 9366 0a0f 0C       		.sleb128 12
 9367 0a10 04000000 		.4byte	.LCFI137
 9368 0a14 06000000 		.4byte	.LCFI138
 9369 0a18 0200     		.2byte	0x2
 9370 0a1a 7D       		.byte	0x7d
 9371 0a1b 30       		.sleb128 48
ARM GAS  C:\Users\CHUCK~1.ERH\AppData\Local\Temp\cclfQUCJ.s 			page 198


 9372 0a1c 06000000 		.4byte	.LCFI138
 9373 0a20 4E010000 		.4byte	.LFE102
 9374 0a24 0200     		.2byte	0x2
 9375 0a26 77       		.byte	0x77
 9376 0a27 30       		.sleb128 48
 9377 0a28 00000000 		.4byte	0
 9378 0a2c 00000000 		.4byte	0
 9379              	.LLST47:
 9380 0a30 00000000 		.4byte	.LFB103
 9381 0a34 02000000 		.4byte	.LCFI139
 9382 0a38 0200     		.2byte	0x2
 9383 0a3a 7D       		.byte	0x7d
 9384 0a3b 00       		.sleb128 0
 9385 0a3c 02000000 		.4byte	.LCFI139
 9386 0a40 04000000 		.4byte	.LCFI140
 9387 0a44 0200     		.2byte	0x2
 9388 0a46 7D       		.byte	0x7d
 9389 0a47 04       		.sleb128 4
 9390 0a48 04000000 		.4byte	.LCFI140
 9391 0a4c 06000000 		.4byte	.LCFI141
 9392 0a50 0200     		.2byte	0x2
 9393 0a52 7D       		.byte	0x7d
 9394 0a53 20       		.sleb128 32
 9395 0a54 06000000 		.4byte	.LCFI141
 9396 0a58 5A020000 		.4byte	.LFE103
 9397 0a5c 0200     		.2byte	0x2
 9398 0a5e 77       		.byte	0x77
 9399 0a5f 20       		.sleb128 32
 9400 0a60 00000000 		.4byte	0
 9401 0a64 00000000 		.4byte	0
 9402              	.LLST48:
 9403 0a68 00000000 		.4byte	.LFB104
 9404 0a6c 02000000 		.4byte	.LCFI142
 9405 0a70 0200     		.2byte	0x2
 9406 0a72 7D       		.byte	0x7d
 9407 0a73 00       		.sleb128 0
 9408 0a74 02000000 		.4byte	.LCFI142
 9409 0a78 04000000 		.4byte	.LCFI143
 9410 0a7c 0200     		.2byte	0x2
 9411 0a7e 7D       		.byte	0x7d
 9412 0a7f 04       		.sleb128 4
 9413 0a80 04000000 		.4byte	.LCFI143
 9414 0a84 06000000 		.4byte	.LCFI144
 9415 0a88 0200     		.2byte	0x2
 9416 0a8a 7D       		.byte	0x7d
 9417 0a8b 18       		.sleb128 24
 9418 0a8c 06000000 		.4byte	.LCFI144
 9419 0a90 F2000000 		.4byte	.LFE104
 9420 0a94 0200     		.2byte	0x2
 9421 0a96 77       		.byte	0x77
 9422 0a97 18       		.sleb128 24
 9423 0a98 00000000 		.4byte	0
 9424 0a9c 00000000 		.4byte	0
 9425              	.LLST49:
 9426 0aa0 00000000 		.4byte	.LFB105
 9427 0aa4 02000000 		.4byte	.LCFI145
 9428 0aa8 0200     		.2byte	0x2
ARM GAS  C:\Users\CHUCK~1.ERH\AppData\Local\Temp\cclfQUCJ.s 			page 199


 9429 0aaa 7D       		.byte	0x7d
 9430 0aab 00       		.sleb128 0
 9431 0aac 02000000 		.4byte	.LCFI145
 9432 0ab0 04000000 		.4byte	.LCFI146
 9433 0ab4 0200     		.2byte	0x2
 9434 0ab6 7D       		.byte	0x7d
 9435 0ab7 04       		.sleb128 4
 9436 0ab8 04000000 		.4byte	.LCFI146
 9437 0abc 06000000 		.4byte	.LCFI147
 9438 0ac0 0200     		.2byte	0x2
 9439 0ac2 7D       		.byte	0x7d
 9440 0ac3 28       		.sleb128 40
 9441 0ac4 06000000 		.4byte	.LCFI147
 9442 0ac8 16010000 		.4byte	.LFE105
 9443 0acc 0200     		.2byte	0x2
 9444 0ace 77       		.byte	0x77
 9445 0acf 28       		.sleb128 40
 9446 0ad0 00000000 		.4byte	0
 9447 0ad4 00000000 		.4byte	0
 9448              	.LLST50:
 9449 0ad8 00000000 		.4byte	.LFB106
 9450 0adc 02000000 		.4byte	.LCFI148
 9451 0ae0 0200     		.2byte	0x2
 9452 0ae2 7D       		.byte	0x7d
 9453 0ae3 00       		.sleb128 0
 9454 0ae4 02000000 		.4byte	.LCFI148
 9455 0ae8 04000000 		.4byte	.LCFI149
 9456 0aec 0200     		.2byte	0x2
 9457 0aee 7D       		.byte	0x7d
 9458 0aef 08       		.sleb128 8
 9459 0af0 04000000 		.4byte	.LCFI149
 9460 0af4 06000000 		.4byte	.LCFI150
 9461 0af8 0200     		.2byte	0x2
 9462 0afa 7D       		.byte	0x7d
 9463 0afb 18       		.sleb128 24
 9464 0afc 06000000 		.4byte	.LCFI150
 9465 0b00 34000000 		.4byte	.LFE106
 9466 0b04 0200     		.2byte	0x2
 9467 0b06 77       		.byte	0x77
 9468 0b07 18       		.sleb128 24
 9469 0b08 00000000 		.4byte	0
 9470 0b0c 00000000 		.4byte	0
 9471              	.LLST51:
 9472 0b10 00000000 		.4byte	.LFB107
 9473 0b14 02000000 		.4byte	.LCFI151
 9474 0b18 0200     		.2byte	0x2
 9475 0b1a 7D       		.byte	0x7d
 9476 0b1b 00       		.sleb128 0
 9477 0b1c 02000000 		.4byte	.LCFI151
 9478 0b20 04000000 		.4byte	.LCFI152
 9479 0b24 0200     		.2byte	0x2
 9480 0b26 7D       		.byte	0x7d
 9481 0b27 08       		.sleb128 8
 9482 0b28 04000000 		.4byte	.LCFI152
 9483 0b2c 0E000000 		.4byte	.LFE107
 9484 0b30 0200     		.2byte	0x2
 9485 0b32 77       		.byte	0x77
ARM GAS  C:\Users\CHUCK~1.ERH\AppData\Local\Temp\cclfQUCJ.s 			page 200


 9486 0b33 08       		.sleb128 8
 9487 0b34 00000000 		.4byte	0
 9488 0b38 00000000 		.4byte	0
 9489              	.LLST52:
 9490 0b3c 00000000 		.4byte	.LFB108
 9491 0b40 02000000 		.4byte	.LCFI153
 9492 0b44 0200     		.2byte	0x2
 9493 0b46 7D       		.byte	0x7d
 9494 0b47 00       		.sleb128 0
 9495 0b48 02000000 		.4byte	.LCFI153
 9496 0b4c 04000000 		.4byte	.LCFI154
 9497 0b50 0200     		.2byte	0x2
 9498 0b52 7D       		.byte	0x7d
 9499 0b53 08       		.sleb128 8
 9500 0b54 04000000 		.4byte	.LCFI154
 9501 0b58 06000000 		.4byte	.LCFI155
 9502 0b5c 0200     		.2byte	0x2
 9503 0b5e 7D       		.byte	0x7d
 9504 0b5f 10       		.sleb128 16
 9505 0b60 06000000 		.4byte	.LCFI155
 9506 0b64 16000000 		.4byte	.LFE108
 9507 0b68 0200     		.2byte	0x2
 9508 0b6a 77       		.byte	0x77
 9509 0b6b 10       		.sleb128 16
 9510 0b6c 00000000 		.4byte	0
 9511 0b70 00000000 		.4byte	0
 9512              	.LLST53:
 9513 0b74 00000000 		.4byte	.LFB109
 9514 0b78 02000000 		.4byte	.LCFI156
 9515 0b7c 0200     		.2byte	0x2
 9516 0b7e 7D       		.byte	0x7d
 9517 0b7f 00       		.sleb128 0
 9518 0b80 02000000 		.4byte	.LCFI156
 9519 0b84 04000000 		.4byte	.LCFI157
 9520 0b88 0200     		.2byte	0x2
 9521 0b8a 7D       		.byte	0x7d
 9522 0b8b 08       		.sleb128 8
 9523 0b8c 04000000 		.4byte	.LCFI157
 9524 0b90 06000000 		.4byte	.LCFI158
 9525 0b94 0200     		.2byte	0x2
 9526 0b96 7D       		.byte	0x7d
 9527 0b97 10       		.sleb128 16
 9528 0b98 06000000 		.4byte	.LCFI158
 9529 0b9c 16000000 		.4byte	.LFE109
 9530 0ba0 0200     		.2byte	0x2
 9531 0ba2 77       		.byte	0x77
 9532 0ba3 10       		.sleb128 16
 9533 0ba4 00000000 		.4byte	0
 9534 0ba8 00000000 		.4byte	0
 9535              	.LLST54:
 9536 0bac 00000000 		.4byte	.LFB110
 9537 0bb0 02000000 		.4byte	.LCFI159
 9538 0bb4 0200     		.2byte	0x2
 9539 0bb6 7D       		.byte	0x7d
 9540 0bb7 00       		.sleb128 0
 9541 0bb8 02000000 		.4byte	.LCFI159
 9542 0bbc 04000000 		.4byte	.LCFI160
ARM GAS  C:\Users\CHUCK~1.ERH\AppData\Local\Temp\cclfQUCJ.s 			page 201


 9543 0bc0 0200     		.2byte	0x2
 9544 0bc2 7D       		.byte	0x7d
 9545 0bc3 08       		.sleb128 8
 9546 0bc4 04000000 		.4byte	.LCFI160
 9547 0bc8 06000000 		.4byte	.LCFI161
 9548 0bcc 0200     		.2byte	0x2
 9549 0bce 7D       		.byte	0x7d
 9550 0bcf 18       		.sleb128 24
 9551 0bd0 06000000 		.4byte	.LCFI161
 9552 0bd4 60010000 		.4byte	.LFE110
 9553 0bd8 0200     		.2byte	0x2
 9554 0bda 77       		.byte	0x77
 9555 0bdb 18       		.sleb128 24
 9556 0bdc 00000000 		.4byte	0
 9557 0be0 00000000 		.4byte	0
 9558              	.LLST55:
 9559 0be4 00000000 		.4byte	.LFB111
 9560 0be8 02000000 		.4byte	.LCFI162
 9561 0bec 0200     		.2byte	0x2
 9562 0bee 7D       		.byte	0x7d
 9563 0bef 00       		.sleb128 0
 9564 0bf0 02000000 		.4byte	.LCFI162
 9565 0bf4 04000000 		.4byte	.LCFI163
 9566 0bf8 0200     		.2byte	0x2
 9567 0bfa 7D       		.byte	0x7d
 9568 0bfb 08       		.sleb128 8
 9569 0bfc 04000000 		.4byte	.LCFI163
 9570 0c00 06000000 		.4byte	.LCFI164
 9571 0c04 0200     		.2byte	0x2
 9572 0c06 7D       		.byte	0x7d
 9573 0c07 10       		.sleb128 16
 9574 0c08 06000000 		.4byte	.LCFI164
 9575 0c0c 58000000 		.4byte	.LFE111
 9576 0c10 0200     		.2byte	0x2
 9577 0c12 77       		.byte	0x77
 9578 0c13 10       		.sleb128 16
 9579 0c14 00000000 		.4byte	0
 9580 0c18 00000000 		.4byte	0
 9581              	.LLST56:
 9582 0c1c 00000000 		.4byte	.LFB112
 9583 0c20 02000000 		.4byte	.LCFI165
 9584 0c24 0200     		.2byte	0x2
 9585 0c26 7D       		.byte	0x7d
 9586 0c27 00       		.sleb128 0
 9587 0c28 02000000 		.4byte	.LCFI165
 9588 0c2c 04000000 		.4byte	.LCFI166
 9589 0c30 0200     		.2byte	0x2
 9590 0c32 7D       		.byte	0x7d
 9591 0c33 08       		.sleb128 8
 9592 0c34 04000000 		.4byte	.LCFI166
 9593 0c38 06000000 		.4byte	.LCFI167
 9594 0c3c 0200     		.2byte	0x2
 9595 0c3e 7D       		.byte	0x7d
 9596 0c3f 18       		.sleb128 24
 9597 0c40 06000000 		.4byte	.LCFI167
 9598 0c44 42000000 		.4byte	.LFE112
 9599 0c48 0200     		.2byte	0x2
ARM GAS  C:\Users\CHUCK~1.ERH\AppData\Local\Temp\cclfQUCJ.s 			page 202


 9600 0c4a 77       		.byte	0x77
 9601 0c4b 18       		.sleb128 24
 9602 0c4c 00000000 		.4byte	0
 9603 0c50 00000000 		.4byte	0
 9604              	.LLST57:
 9605 0c54 00000000 		.4byte	.LFB113
 9606 0c58 02000000 		.4byte	.LCFI168
 9607 0c5c 0200     		.2byte	0x2
 9608 0c5e 7D       		.byte	0x7d
 9609 0c5f 00       		.sleb128 0
 9610 0c60 02000000 		.4byte	.LCFI168
 9611 0c64 04000000 		.4byte	.LCFI169
 9612 0c68 0200     		.2byte	0x2
 9613 0c6a 7D       		.byte	0x7d
 9614 0c6b 08       		.sleb128 8
 9615 0c6c 04000000 		.4byte	.LCFI169
 9616 0c70 06000000 		.4byte	.LCFI170
 9617 0c74 0200     		.2byte	0x2
 9618 0c76 7D       		.byte	0x7d
 9619 0c77 18       		.sleb128 24
 9620 0c78 06000000 		.4byte	.LCFI170
 9621 0c7c 38000000 		.4byte	.LFE113
 9622 0c80 0200     		.2byte	0x2
 9623 0c82 77       		.byte	0x77
 9624 0c83 18       		.sleb128 24
 9625 0c84 00000000 		.4byte	0
 9626 0c88 00000000 		.4byte	0
 9627              	.LLST58:
 9628 0c8c 00000000 		.4byte	.LFB114
 9629 0c90 02000000 		.4byte	.LCFI171
 9630 0c94 0200     		.2byte	0x2
 9631 0c96 7D       		.byte	0x7d
 9632 0c97 00       		.sleb128 0
 9633 0c98 02000000 		.4byte	.LCFI171
 9634 0c9c 04000000 		.4byte	.LCFI172
 9635 0ca0 0200     		.2byte	0x2
 9636 0ca2 7D       		.byte	0x7d
 9637 0ca3 08       		.sleb128 8
 9638 0ca4 04000000 		.4byte	.LCFI172
 9639 0ca8 06000000 		.4byte	.LCFI173
 9640 0cac 0200     		.2byte	0x2
 9641 0cae 7D       		.byte	0x7d
 9642 0caf 18       		.sleb128 24
 9643 0cb0 06000000 		.4byte	.LCFI173
 9644 0cb4 7E000000 		.4byte	.LFE114
 9645 0cb8 0200     		.2byte	0x2
 9646 0cba 77       		.byte	0x77
 9647 0cbb 18       		.sleb128 24
 9648 0cbc 00000000 		.4byte	0
 9649 0cc0 00000000 		.4byte	0
 9650              	.LLST59:
 9651 0cc4 00000000 		.4byte	.LFB115
 9652 0cc8 02000000 		.4byte	.LCFI174
 9653 0ccc 0200     		.2byte	0x2
 9654 0cce 7D       		.byte	0x7d
 9655 0ccf 00       		.sleb128 0
 9656 0cd0 02000000 		.4byte	.LCFI174
ARM GAS  C:\Users\CHUCK~1.ERH\AppData\Local\Temp\cclfQUCJ.s 			page 203


 9657 0cd4 04000000 		.4byte	.LCFI175
 9658 0cd8 0200     		.2byte	0x2
 9659 0cda 7D       		.byte	0x7d
 9660 0cdb 08       		.sleb128 8
 9661 0cdc 04000000 		.4byte	.LCFI175
 9662 0ce0 06000000 		.4byte	.LCFI176
 9663 0ce4 0200     		.2byte	0x2
 9664 0ce6 7D       		.byte	0x7d
 9665 0ce7 18       		.sleb128 24
 9666 0ce8 06000000 		.4byte	.LCFI176
 9667 0cec 78000000 		.4byte	.LFE115
 9668 0cf0 0200     		.2byte	0x2
 9669 0cf2 77       		.byte	0x77
 9670 0cf3 18       		.sleb128 24
 9671 0cf4 00000000 		.4byte	0
 9672 0cf8 00000000 		.4byte	0
 9673              	.LLST60:
 9674 0cfc 00000000 		.4byte	.LFB116
 9675 0d00 02000000 		.4byte	.LCFI177
 9676 0d04 0200     		.2byte	0x2
 9677 0d06 7D       		.byte	0x7d
 9678 0d07 00       		.sleb128 0
 9679 0d08 02000000 		.4byte	.LCFI177
 9680 0d0c 04000000 		.4byte	.LCFI178
 9681 0d10 0200     		.2byte	0x2
 9682 0d12 7D       		.byte	0x7d
 9683 0d13 08       		.sleb128 8
 9684 0d14 04000000 		.4byte	.LCFI178
 9685 0d18 06000000 		.4byte	.LCFI179
 9686 0d1c 0200     		.2byte	0x2
 9687 0d1e 7D       		.byte	0x7d
 9688 0d1f 10       		.sleb128 16
 9689 0d20 06000000 		.4byte	.LCFI179
 9690 0d24 1E000000 		.4byte	.LFE116
 9691 0d28 0200     		.2byte	0x2
 9692 0d2a 77       		.byte	0x77
 9693 0d2b 10       		.sleb128 16
 9694 0d2c 00000000 		.4byte	0
 9695 0d30 00000000 		.4byte	0
 9696              	.LLST61:
 9697 0d34 00000000 		.4byte	.LFB117
 9698 0d38 02000000 		.4byte	.LCFI180
 9699 0d3c 0200     		.2byte	0x2
 9700 0d3e 7D       		.byte	0x7d
 9701 0d3f 00       		.sleb128 0
 9702 0d40 02000000 		.4byte	.LCFI180
 9703 0d44 04000000 		.4byte	.LCFI181
 9704 0d48 0200     		.2byte	0x2
 9705 0d4a 7D       		.byte	0x7d
 9706 0d4b 08       		.sleb128 8
 9707 0d4c 04000000 		.4byte	.LCFI181
 9708 0d50 06000000 		.4byte	.LCFI182
 9709 0d54 0200     		.2byte	0x2
 9710 0d56 7D       		.byte	0x7d
 9711 0d57 10       		.sleb128 16
 9712 0d58 06000000 		.4byte	.LCFI182
 9713 0d5c 26000000 		.4byte	.LFE117
ARM GAS  C:\Users\CHUCK~1.ERH\AppData\Local\Temp\cclfQUCJ.s 			page 204


 9714 0d60 0200     		.2byte	0x2
 9715 0d62 77       		.byte	0x77
 9716 0d63 10       		.sleb128 16
 9717 0d64 00000000 		.4byte	0
 9718 0d68 00000000 		.4byte	0
 9719              	.LLST62:
 9720 0d6c 00000000 		.4byte	.LFB118
 9721 0d70 02000000 		.4byte	.LCFI183
 9722 0d74 0200     		.2byte	0x2
 9723 0d76 7D       		.byte	0x7d
 9724 0d77 00       		.sleb128 0
 9725 0d78 02000000 		.4byte	.LCFI183
 9726 0d7c 04000000 		.4byte	.LCFI184
 9727 0d80 0200     		.2byte	0x2
 9728 0d82 7D       		.byte	0x7d
 9729 0d83 08       		.sleb128 8
 9730 0d84 04000000 		.4byte	.LCFI184
 9731 0d88 06000000 		.4byte	.LCFI185
 9732 0d8c 0200     		.2byte	0x2
 9733 0d8e 7D       		.byte	0x7d
 9734 0d8f 10       		.sleb128 16
 9735 0d90 06000000 		.4byte	.LCFI185
 9736 0d94 24000000 		.4byte	.LFE118
 9737 0d98 0200     		.2byte	0x2
 9738 0d9a 77       		.byte	0x77
 9739 0d9b 10       		.sleb128 16
 9740 0d9c 00000000 		.4byte	0
 9741 0da0 00000000 		.4byte	0
 9742              	.LLST63:
 9743 0da4 00000000 		.4byte	.LFB119
 9744 0da8 02000000 		.4byte	.LCFI186
 9745 0dac 0200     		.2byte	0x2
 9746 0dae 7D       		.byte	0x7d
 9747 0daf 00       		.sleb128 0
 9748 0db0 02000000 		.4byte	.LCFI186
 9749 0db4 04000000 		.4byte	.LCFI187
 9750 0db8 0200     		.2byte	0x2
 9751 0dba 7D       		.byte	0x7d
 9752 0dbb 08       		.sleb128 8
 9753 0dbc 04000000 		.4byte	.LCFI187
 9754 0dc0 06000000 		.4byte	.LCFI188
 9755 0dc4 0200     		.2byte	0x2
 9756 0dc6 7D       		.byte	0x7d
 9757 0dc7 18       		.sleb128 24
 9758 0dc8 06000000 		.4byte	.LCFI188
 9759 0dcc 5A000000 		.4byte	.LFE119
 9760 0dd0 0200     		.2byte	0x2
 9761 0dd2 77       		.byte	0x77
 9762 0dd3 18       		.sleb128 24
 9763 0dd4 00000000 		.4byte	0
 9764 0dd8 00000000 		.4byte	0
 9765              	.LLST64:
 9766 0ddc 00000000 		.4byte	.LFB120
 9767 0de0 02000000 		.4byte	.LCFI189
 9768 0de4 0200     		.2byte	0x2
 9769 0de6 7D       		.byte	0x7d
 9770 0de7 00       		.sleb128 0
ARM GAS  C:\Users\CHUCK~1.ERH\AppData\Local\Temp\cclfQUCJ.s 			page 205


 9771 0de8 02000000 		.4byte	.LCFI189
 9772 0dec 04000000 		.4byte	.LCFI190
 9773 0df0 0200     		.2byte	0x2
 9774 0df2 7D       		.byte	0x7d
 9775 0df3 08       		.sleb128 8
 9776 0df4 04000000 		.4byte	.LCFI190
 9777 0df8 06000000 		.4byte	.LCFI191
 9778 0dfc 0200     		.2byte	0x2
 9779 0dfe 7D       		.byte	0x7d
 9780 0dff 18       		.sleb128 24
 9781 0e00 06000000 		.4byte	.LCFI191
 9782 0e04 B0000000 		.4byte	.LFE120
 9783 0e08 0200     		.2byte	0x2
 9784 0e0a 77       		.byte	0x77
 9785 0e0b 18       		.sleb128 24
 9786 0e0c 00000000 		.4byte	0
 9787 0e10 00000000 		.4byte	0
 9788              	.LLST65:
 9789 0e14 00000000 		.4byte	.LFB121
 9790 0e18 02000000 		.4byte	.LCFI192
 9791 0e1c 0200     		.2byte	0x2
 9792 0e1e 7D       		.byte	0x7d
 9793 0e1f 00       		.sleb128 0
 9794 0e20 02000000 		.4byte	.LCFI192
 9795 0e24 04000000 		.4byte	.LCFI193
 9796 0e28 0200     		.2byte	0x2
 9797 0e2a 7D       		.byte	0x7d
 9798 0e2b 08       		.sleb128 8
 9799 0e2c 04000000 		.4byte	.LCFI193
 9800 0e30 06000000 		.4byte	.LCFI194
 9801 0e34 0200     		.2byte	0x2
 9802 0e36 7D       		.byte	0x7d
 9803 0e37 10       		.sleb128 16
 9804 0e38 06000000 		.4byte	.LCFI194
 9805 0e3c 1E000000 		.4byte	.LFE121
 9806 0e40 0200     		.2byte	0x2
 9807 0e42 77       		.byte	0x77
 9808 0e43 10       		.sleb128 16
 9809 0e44 00000000 		.4byte	0
 9810 0e48 00000000 		.4byte	0
 9811              	.LLST66:
 9812 0e4c 00000000 		.4byte	.LFB122
 9813 0e50 02000000 		.4byte	.LCFI195
 9814 0e54 0200     		.2byte	0x2
 9815 0e56 7D       		.byte	0x7d
 9816 0e57 00       		.sleb128 0
 9817 0e58 02000000 		.4byte	.LCFI195
 9818 0e5c 04000000 		.4byte	.LCFI196
 9819 0e60 0200     		.2byte	0x2
 9820 0e62 7D       		.byte	0x7d
 9821 0e63 08       		.sleb128 8
 9822 0e64 04000000 		.4byte	.LCFI196
 9823 0e68 06000000 		.4byte	.LCFI197
 9824 0e6c 0200     		.2byte	0x2
 9825 0e6e 7D       		.byte	0x7d
 9826 0e6f 10       		.sleb128 16
 9827 0e70 06000000 		.4byte	.LCFI197
ARM GAS  C:\Users\CHUCK~1.ERH\AppData\Local\Temp\cclfQUCJ.s 			page 206


 9828 0e74 1E000000 		.4byte	.LFE122
 9829 0e78 0200     		.2byte	0x2
 9830 0e7a 77       		.byte	0x77
 9831 0e7b 10       		.sleb128 16
 9832 0e7c 00000000 		.4byte	0
 9833 0e80 00000000 		.4byte	0
 9834              	.LLST67:
 9835 0e84 00000000 		.4byte	.LFB123
 9836 0e88 02000000 		.4byte	.LCFI198
 9837 0e8c 0200     		.2byte	0x2
 9838 0e8e 7D       		.byte	0x7d
 9839 0e8f 00       		.sleb128 0
 9840 0e90 02000000 		.4byte	.LCFI198
 9841 0e94 04000000 		.4byte	.LCFI199
 9842 0e98 0200     		.2byte	0x2
 9843 0e9a 7D       		.byte	0x7d
 9844 0e9b 08       		.sleb128 8
 9845 0e9c 04000000 		.4byte	.LCFI199
 9846 0ea0 06000000 		.4byte	.LCFI200
 9847 0ea4 0200     		.2byte	0x2
 9848 0ea6 7D       		.byte	0x7d
 9849 0ea7 18       		.sleb128 24
 9850 0ea8 06000000 		.4byte	.LCFI200
 9851 0eac B4000000 		.4byte	.LFE123
 9852 0eb0 0200     		.2byte	0x2
 9853 0eb2 77       		.byte	0x77
 9854 0eb3 18       		.sleb128 24
 9855 0eb4 00000000 		.4byte	0
 9856 0eb8 00000000 		.4byte	0
 9857              	.LLST68:
 9858 0ebc 00000000 		.4byte	.LFB124
 9859 0ec0 02000000 		.4byte	.LCFI201
 9860 0ec4 0200     		.2byte	0x2
 9861 0ec6 7D       		.byte	0x7d
 9862 0ec7 00       		.sleb128 0
 9863 0ec8 02000000 		.4byte	.LCFI201
 9864 0ecc 04000000 		.4byte	.LCFI202
 9865 0ed0 0200     		.2byte	0x2
 9866 0ed2 7D       		.byte	0x7d
 9867 0ed3 08       		.sleb128 8
 9868 0ed4 04000000 		.4byte	.LCFI202
 9869 0ed8 06000000 		.4byte	.LCFI203
 9870 0edc 0200     		.2byte	0x2
 9871 0ede 7D       		.byte	0x7d
 9872 0edf 20       		.sleb128 32
 9873 0ee0 06000000 		.4byte	.LCFI203
 9874 0ee4 68000000 		.4byte	.LFE124
 9875 0ee8 0200     		.2byte	0x2
 9876 0eea 77       		.byte	0x77
 9877 0eeb 18       		.sleb128 24
 9878 0eec 00000000 		.4byte	0
 9879 0ef0 00000000 		.4byte	0
 9880              	.LLST69:
 9881 0ef4 00000000 		.4byte	.LFB125
 9882 0ef8 02000000 		.4byte	.LCFI204
 9883 0efc 0200     		.2byte	0x2
 9884 0efe 7D       		.byte	0x7d
ARM GAS  C:\Users\CHUCK~1.ERH\AppData\Local\Temp\cclfQUCJ.s 			page 207


 9885 0eff 00       		.sleb128 0
 9886 0f00 02000000 		.4byte	.LCFI204
 9887 0f04 04000000 		.4byte	.LCFI205
 9888 0f08 0200     		.2byte	0x2
 9889 0f0a 7D       		.byte	0x7d
 9890 0f0b 08       		.sleb128 8
 9891 0f0c 04000000 		.4byte	.LCFI205
 9892 0f10 06000000 		.4byte	.LCFI206
 9893 0f14 0200     		.2byte	0x2
 9894 0f16 7D       		.byte	0x7d
 9895 0f17 10       		.sleb128 16
 9896 0f18 06000000 		.4byte	.LCFI206
 9897 0f1c 2A000000 		.4byte	.LFE125
 9898 0f20 0200     		.2byte	0x2
 9899 0f22 77       		.byte	0x77
 9900 0f23 10       		.sleb128 16
 9901 0f24 00000000 		.4byte	0
 9902 0f28 00000000 		.4byte	0
 9903              	.LLST70:
 9904 0f2c 00000000 		.4byte	.LFB126
 9905 0f30 02000000 		.4byte	.LCFI207
 9906 0f34 0200     		.2byte	0x2
 9907 0f36 7D       		.byte	0x7d
 9908 0f37 00       		.sleb128 0
 9909 0f38 02000000 		.4byte	.LCFI207
 9910 0f3c 04000000 		.4byte	.LCFI208
 9911 0f40 0200     		.2byte	0x2
 9912 0f42 7D       		.byte	0x7d
 9913 0f43 08       		.sleb128 8
 9914 0f44 04000000 		.4byte	.LCFI208
 9915 0f48 06000000 		.4byte	.LCFI209
 9916 0f4c 0200     		.2byte	0x2
 9917 0f4e 7D       		.byte	0x7d
 9918 0f4f 10       		.sleb128 16
 9919 0f50 06000000 		.4byte	.LCFI209
 9920 0f54 26000000 		.4byte	.LFE126
 9921 0f58 0200     		.2byte	0x2
 9922 0f5a 77       		.byte	0x77
 9923 0f5b 10       		.sleb128 16
 9924 0f5c 00000000 		.4byte	0
 9925 0f60 00000000 		.4byte	0
 9926              	.LLST71:
 9927 0f64 00000000 		.4byte	.LFB127
 9928 0f68 02000000 		.4byte	.LCFI210
 9929 0f6c 0200     		.2byte	0x2
 9930 0f6e 7D       		.byte	0x7d
 9931 0f6f 00       		.sleb128 0
 9932 0f70 02000000 		.4byte	.LCFI210
 9933 0f74 04000000 		.4byte	.LCFI211
 9934 0f78 0200     		.2byte	0x2
 9935 0f7a 7D       		.byte	0x7d
 9936 0f7b 08       		.sleb128 8
 9937 0f7c 04000000 		.4byte	.LCFI211
 9938 0f80 06000000 		.4byte	.LCFI212
 9939 0f84 0200     		.2byte	0x2
 9940 0f86 7D       		.byte	0x7d
 9941 0f87 20       		.sleb128 32
ARM GAS  C:\Users\CHUCK~1.ERH\AppData\Local\Temp\cclfQUCJ.s 			page 208


 9942 0f88 06000000 		.4byte	.LCFI212
 9943 0f8c 8A000000 		.4byte	.LFE127
 9944 0f90 0200     		.2byte	0x2
 9945 0f92 77       		.byte	0x77
 9946 0f93 20       		.sleb128 32
 9947 0f94 00000000 		.4byte	0
 9948 0f98 00000000 		.4byte	0
 9949              	.LLST72:
 9950 0f9c 00000000 		.4byte	.LFB128
 9951 0fa0 02000000 		.4byte	.LCFI213
 9952 0fa4 0200     		.2byte	0x2
 9953 0fa6 7D       		.byte	0x7d
 9954 0fa7 00       		.sleb128 0
 9955 0fa8 02000000 		.4byte	.LCFI213
 9956 0fac 04000000 		.4byte	.LCFI214
 9957 0fb0 0200     		.2byte	0x2
 9958 0fb2 7D       		.byte	0x7d
 9959 0fb3 08       		.sleb128 8
 9960 0fb4 04000000 		.4byte	.LCFI214
 9961 0fb8 06000000 		.4byte	.LCFI215
 9962 0fbc 0200     		.2byte	0x2
 9963 0fbe 7D       		.byte	0x7d
 9964 0fbf 30       		.sleb128 48
 9965 0fc0 06000000 		.4byte	.LCFI215
 9966 0fc4 00010000 		.4byte	.LFE128
 9967 0fc8 0200     		.2byte	0x2
 9968 0fca 77       		.byte	0x77
 9969 0fcb 28       		.sleb128 40
 9970 0fcc 00000000 		.4byte	0
 9971 0fd0 00000000 		.4byte	0
 9972              		.section	.debug_aranges,"",%progbits
 9973 0000 5C020000 		.4byte	0x25c
 9974 0004 0200     		.2byte	0x2
 9975 0006 00000000 		.4byte	.Ldebug_info0
 9976 000a 04       		.byte	0x4
 9977 000b 00       		.byte	0
 9978 000c 0000     		.2byte	0
 9979 000e 0000     		.2byte	0
 9980 0010 00000000 		.4byte	.LFB56
 9981 0014 0E000000 		.4byte	.LFE56-.LFB56
 9982 0018 00000000 		.4byte	.LFB57
 9983 001c 26000000 		.4byte	.LFE57-.LFB57
 9984 0020 00000000 		.4byte	.LFB58
 9985 0024 00010000 		.4byte	.LFE58-.LFB58
 9986 0028 00000000 		.4byte	.LFB59
 9987 002c 1A010000 		.4byte	.LFE59-.LFB59
 9988 0030 00000000 		.4byte	.LFB60
 9989 0034 3E000000 		.4byte	.LFE60-.LFB60
 9990 0038 00000000 		.4byte	.LFB61
 9991 003c 3E000000 		.4byte	.LFE61-.LFB61
 9992 0040 00000000 		.4byte	.LFB62
 9993 0044 1E000000 		.4byte	.LFE62-.LFB62
 9994 0048 00000000 		.4byte	.LFB63
 9995 004c 1E000000 		.4byte	.LFE63-.LFB63
 9996 0050 00000000 		.4byte	.LFB64
 9997 0054 22000000 		.4byte	.LFE64-.LFB64
 9998 0058 00000000 		.4byte	.LFB65
ARM GAS  C:\Users\CHUCK~1.ERH\AppData\Local\Temp\cclfQUCJ.s 			page 209


 9999 005c 28000000 		.4byte	.LFE65-.LFB65
 10000 0060 00000000 		.4byte	.LFB66
 10001 0064 22000000 		.4byte	.LFE66-.LFB66
 10002 0068 00000000 		.4byte	.LFB67
 10003 006c 28000000 		.4byte	.LFE67-.LFB67
 10004 0070 00000000 		.4byte	.LFB68
 10005 0074 22000000 		.4byte	.LFE68-.LFB68
 10006 0078 00000000 		.4byte	.LFB69
 10007 007c 28000000 		.4byte	.LFE69-.LFB69
 10008 0080 00000000 		.4byte	.LFB70
 10009 0084 24000000 		.4byte	.LFE70-.LFB70
 10010 0088 00000000 		.4byte	.LFB71
 10011 008c 24000000 		.4byte	.LFE71-.LFB71
 10012 0090 00000000 		.4byte	.LFB72
 10013 0094 24000000 		.4byte	.LFE72-.LFB72
 10014 0098 00000000 		.4byte	.LFB73
 10015 009c 38000000 		.4byte	.LFE73-.LFB73
 10016 00a0 00000000 		.4byte	.LFB74
 10017 00a4 3E000000 		.4byte	.LFE74-.LFB74
 10018 00a8 00000000 		.4byte	.LFB75
 10019 00ac 38000000 		.4byte	.LFE75-.LFB75
 10020 00b0 00000000 		.4byte	.LFB76
 10021 00b4 3E000000 		.4byte	.LFE76-.LFB76
 10022 00b8 00000000 		.4byte	.LFB77
 10023 00bc 34000000 		.4byte	.LFE77-.LFB77
 10024 00c0 00000000 		.4byte	.LFB78
 10025 00c4 38000000 		.4byte	.LFE78-.LFB78
 10026 00c8 00000000 		.4byte	.LFB79
 10027 00cc 3E000000 		.4byte	.LFE79-.LFB79
 10028 00d0 00000000 		.4byte	.LFB80
 10029 00d4 38000000 		.4byte	.LFE80-.LFB80
 10030 00d8 00000000 		.4byte	.LFB81
 10031 00dc 3E000000 		.4byte	.LFE81-.LFB81
 10032 00e0 00000000 		.4byte	.LFB82
 10033 00e4 3E000000 		.4byte	.LFE82-.LFB82
 10034 00e8 00000000 		.4byte	.LFB83
 10035 00ec 32000000 		.4byte	.LFE83-.LFB83
 10036 00f0 00000000 		.4byte	.LFB84
 10037 00f4 32000000 		.4byte	.LFE84-.LFB84
 10038 00f8 00000000 		.4byte	.LFB85
 10039 00fc 34000000 		.4byte	.LFE85-.LFB85
 10040 0100 00000000 		.4byte	.LFB86
 10041 0104 32000000 		.4byte	.LFE86-.LFB86
 10042 0108 00000000 		.4byte	.LFB87
 10043 010c 2E000000 		.4byte	.LFE87-.LFB87
 10044 0110 00000000 		.4byte	.LFB88
 10045 0114 32000000 		.4byte	.LFE88-.LFB88
 10046 0118 00000000 		.4byte	.LFB89
 10047 011c 2E000000 		.4byte	.LFE89-.LFB89
 10048 0120 00000000 		.4byte	.LFB90
 10049 0124 2E000000 		.4byte	.LFE90-.LFB90
 10050 0128 00000000 		.4byte	.LFB91
 10051 012c 32000000 		.4byte	.LFE91-.LFB91
 10052 0130 00000000 		.4byte	.LFB92
 10053 0134 2E000000 		.4byte	.LFE92-.LFB92
 10054 0138 00000000 		.4byte	.LFB93
 10055 013c 18000000 		.4byte	.LFE93-.LFB93
ARM GAS  C:\Users\CHUCK~1.ERH\AppData\Local\Temp\cclfQUCJ.s 			page 210


 10056 0140 00000000 		.4byte	.LFB94
 10057 0144 32000000 		.4byte	.LFE94-.LFB94
 10058 0148 00000000 		.4byte	.LFB95
 10059 014c 52000000 		.4byte	.LFE95-.LFB95
 10060 0150 00000000 		.4byte	.LFB96
 10061 0154 48000000 		.4byte	.LFE96-.LFB96
 10062 0158 00000000 		.4byte	.LFB97
 10063 015c 48000000 		.4byte	.LFE97-.LFB97
 10064 0160 00000000 		.4byte	.LFB98
 10065 0164 B6000000 		.4byte	.LFE98-.LFB98
 10066 0168 00000000 		.4byte	.LFB99
 10067 016c C2000000 		.4byte	.LFE99-.LFB99
 10068 0170 00000000 		.4byte	.LFB100
 10069 0174 0E010000 		.4byte	.LFE100-.LFB100
 10070 0178 00000000 		.4byte	.LFB101
 10071 017c D2000000 		.4byte	.LFE101-.LFB101
 10072 0180 00000000 		.4byte	.LFB102
 10073 0184 4E010000 		.4byte	.LFE102-.LFB102
 10074 0188 00000000 		.4byte	.LFB103
 10075 018c 5A020000 		.4byte	.LFE103-.LFB103
 10076 0190 00000000 		.4byte	.LFB104
 10077 0194 F2000000 		.4byte	.LFE104-.LFB104
 10078 0198 00000000 		.4byte	.LFB105
 10079 019c 16010000 		.4byte	.LFE105-.LFB105
 10080 01a0 00000000 		.4byte	.LFB106
 10081 01a4 34000000 		.4byte	.LFE106-.LFB106
 10082 01a8 00000000 		.4byte	.LFB107
 10083 01ac 0E000000 		.4byte	.LFE107-.LFB107
 10084 01b0 00000000 		.4byte	.LFB108
 10085 01b4 16000000 		.4byte	.LFE108-.LFB108
 10086 01b8 00000000 		.4byte	.LFB109
 10087 01bc 16000000 		.4byte	.LFE109-.LFB109
 10088 01c0 00000000 		.4byte	.LFB110
 10089 01c4 60010000 		.4byte	.LFE110-.LFB110
 10090 01c8 00000000 		.4byte	.LFB111
 10091 01cc 58000000 		.4byte	.LFE111-.LFB111
 10092 01d0 00000000 		.4byte	.LFB112
 10093 01d4 42000000 		.4byte	.LFE112-.LFB112
 10094 01d8 00000000 		.4byte	.LFB113
 10095 01dc 38000000 		.4byte	.LFE113-.LFB113
 10096 01e0 00000000 		.4byte	.LFB114
 10097 01e4 7E000000 		.4byte	.LFE114-.LFB114
 10098 01e8 00000000 		.4byte	.LFB115
 10099 01ec 78000000 		.4byte	.LFE115-.LFB115
 10100 01f0 00000000 		.4byte	.LFB116
 10101 01f4 1E000000 		.4byte	.LFE116-.LFB116
 10102 01f8 00000000 		.4byte	.LFB117
 10103 01fc 26000000 		.4byte	.LFE117-.LFB117
 10104 0200 00000000 		.4byte	.LFB118
 10105 0204 24000000 		.4byte	.LFE118-.LFB118
 10106 0208 00000000 		.4byte	.LFB119
 10107 020c 5A000000 		.4byte	.LFE119-.LFB119
 10108 0210 00000000 		.4byte	.LFB120
 10109 0214 B0000000 		.4byte	.LFE120-.LFB120
 10110 0218 00000000 		.4byte	.LFB121
 10111 021c 1E000000 		.4byte	.LFE121-.LFB121
 10112 0220 00000000 		.4byte	.LFB122
ARM GAS  C:\Users\CHUCK~1.ERH\AppData\Local\Temp\cclfQUCJ.s 			page 211


 10113 0224 1E000000 		.4byte	.LFE122-.LFB122
 10114 0228 00000000 		.4byte	.LFB123
 10115 022c B4000000 		.4byte	.LFE123-.LFB123
 10116 0230 00000000 		.4byte	.LFB124
 10117 0234 68000000 		.4byte	.LFE124-.LFB124
 10118 0238 00000000 		.4byte	.LFB125
 10119 023c 2A000000 		.4byte	.LFE125-.LFB125
 10120 0240 00000000 		.4byte	.LFB126
 10121 0244 26000000 		.4byte	.LFE126-.LFB126
 10122 0248 00000000 		.4byte	.LFB127
 10123 024c 8A000000 		.4byte	.LFE127-.LFB127
 10124 0250 00000000 		.4byte	.LFB128
 10125 0254 00010000 		.4byte	.LFE128-.LFB128
 10126 0258 00000000 		.4byte	0
 10127 025c 00000000 		.4byte	0
 10128              		.section	.debug_ranges,"",%progbits
 10129              	.Ldebug_ranges0:
 10130 0000 00000000 		.4byte	.LFB56
 10131 0004 0E000000 		.4byte	.LFE56
 10132 0008 00000000 		.4byte	.LFB57
 10133 000c 26000000 		.4byte	.LFE57
 10134 0010 00000000 		.4byte	.LFB58
 10135 0014 00010000 		.4byte	.LFE58
 10136 0018 00000000 		.4byte	.LFB59
 10137 001c 1A010000 		.4byte	.LFE59
 10138 0020 00000000 		.4byte	.LFB60
 10139 0024 3E000000 		.4byte	.LFE60
 10140 0028 00000000 		.4byte	.LFB61
 10141 002c 3E000000 		.4byte	.LFE61
 10142 0030 00000000 		.4byte	.LFB62
 10143 0034 1E000000 		.4byte	.LFE62
 10144 0038 00000000 		.4byte	.LFB63
 10145 003c 1E000000 		.4byte	.LFE63
 10146 0040 00000000 		.4byte	.LFB64
 10147 0044 22000000 		.4byte	.LFE64
 10148 0048 00000000 		.4byte	.LFB65
 10149 004c 28000000 		.4byte	.LFE65
 10150 0050 00000000 		.4byte	.LFB66
 10151 0054 22000000 		.4byte	.LFE66
 10152 0058 00000000 		.4byte	.LFB67
 10153 005c 28000000 		.4byte	.LFE67
 10154 0060 00000000 		.4byte	.LFB68
 10155 0064 22000000 		.4byte	.LFE68
 10156 0068 00000000 		.4byte	.LFB69
 10157 006c 28000000 		.4byte	.LFE69
 10158 0070 00000000 		.4byte	.LFB70
 10159 0074 24000000 		.4byte	.LFE70
 10160 0078 00000000 		.4byte	.LFB71
 10161 007c 24000000 		.4byte	.LFE71
 10162 0080 00000000 		.4byte	.LFB72
 10163 0084 24000000 		.4byte	.LFE72
 10164 0088 00000000 		.4byte	.LFB73
 10165 008c 38000000 		.4byte	.LFE73
 10166 0090 00000000 		.4byte	.LFB74
 10167 0094 3E000000 		.4byte	.LFE74
 10168 0098 00000000 		.4byte	.LFB75
 10169 009c 38000000 		.4byte	.LFE75
ARM GAS  C:\Users\CHUCK~1.ERH\AppData\Local\Temp\cclfQUCJ.s 			page 212


 10170 00a0 00000000 		.4byte	.LFB76
 10171 00a4 3E000000 		.4byte	.LFE76
 10172 00a8 00000000 		.4byte	.LFB77
 10173 00ac 34000000 		.4byte	.LFE77
 10174 00b0 00000000 		.4byte	.LFB78
 10175 00b4 38000000 		.4byte	.LFE78
 10176 00b8 00000000 		.4byte	.LFB79
 10177 00bc 3E000000 		.4byte	.LFE79
 10178 00c0 00000000 		.4byte	.LFB80
 10179 00c4 38000000 		.4byte	.LFE80
 10180 00c8 00000000 		.4byte	.LFB81
 10181 00cc 3E000000 		.4byte	.LFE81
 10182 00d0 00000000 		.4byte	.LFB82
 10183 00d4 3E000000 		.4byte	.LFE82
 10184 00d8 00000000 		.4byte	.LFB83
 10185 00dc 32000000 		.4byte	.LFE83
 10186 00e0 00000000 		.4byte	.LFB84
 10187 00e4 32000000 		.4byte	.LFE84
 10188 00e8 00000000 		.4byte	.LFB85
 10189 00ec 34000000 		.4byte	.LFE85
 10190 00f0 00000000 		.4byte	.LFB86
 10191 00f4 32000000 		.4byte	.LFE86
 10192 00f8 00000000 		.4byte	.LFB87
 10193 00fc 2E000000 		.4byte	.LFE87
 10194 0100 00000000 		.4byte	.LFB88
 10195 0104 32000000 		.4byte	.LFE88
 10196 0108 00000000 		.4byte	.LFB89
 10197 010c 2E000000 		.4byte	.LFE89
 10198 0110 00000000 		.4byte	.LFB90
 10199 0114 2E000000 		.4byte	.LFE90
 10200 0118 00000000 		.4byte	.LFB91
 10201 011c 32000000 		.4byte	.LFE91
 10202 0120 00000000 		.4byte	.LFB92
 10203 0124 2E000000 		.4byte	.LFE92
 10204 0128 00000000 		.4byte	.LFB93
 10205 012c 18000000 		.4byte	.LFE93
 10206 0130 00000000 		.4byte	.LFB94
 10207 0134 32000000 		.4byte	.LFE94
 10208 0138 00000000 		.4byte	.LFB95
 10209 013c 52000000 		.4byte	.LFE95
 10210 0140 00000000 		.4byte	.LFB96
 10211 0144 48000000 		.4byte	.LFE96
 10212 0148 00000000 		.4byte	.LFB97
 10213 014c 48000000 		.4byte	.LFE97
 10214 0150 00000000 		.4byte	.LFB98
 10215 0154 B6000000 		.4byte	.LFE98
 10216 0158 00000000 		.4byte	.LFB99
 10217 015c C2000000 		.4byte	.LFE99
 10218 0160 00000000 		.4byte	.LFB100
 10219 0164 0E010000 		.4byte	.LFE100
 10220 0168 00000000 		.4byte	.LFB101
 10221 016c D2000000 		.4byte	.LFE101
 10222 0170 00000000 		.4byte	.LFB102
 10223 0174 4E010000 		.4byte	.LFE102
 10224 0178 00000000 		.4byte	.LFB103
 10225 017c 5A020000 		.4byte	.LFE103
 10226 0180 00000000 		.4byte	.LFB104
ARM GAS  C:\Users\CHUCK~1.ERH\AppData\Local\Temp\cclfQUCJ.s 			page 213


 10227 0184 F2000000 		.4byte	.LFE104
 10228 0188 00000000 		.4byte	.LFB105
 10229 018c 16010000 		.4byte	.LFE105
 10230 0190 00000000 		.4byte	.LFB106
 10231 0194 34000000 		.4byte	.LFE106
 10232 0198 00000000 		.4byte	.LFB107
 10233 019c 0E000000 		.4byte	.LFE107
 10234 01a0 00000000 		.4byte	.LFB108
 10235 01a4 16000000 		.4byte	.LFE108
 10236 01a8 00000000 		.4byte	.LFB109
 10237 01ac 16000000 		.4byte	.LFE109
 10238 01b0 00000000 		.4byte	.LFB110
 10239 01b4 60010000 		.4byte	.LFE110
 10240 01b8 00000000 		.4byte	.LFB111
 10241 01bc 58000000 		.4byte	.LFE111
 10242 01c0 00000000 		.4byte	.LFB112
 10243 01c4 42000000 		.4byte	.LFE112
 10244 01c8 00000000 		.4byte	.LFB113
 10245 01cc 38000000 		.4byte	.LFE113
 10246 01d0 00000000 		.4byte	.LFB114
 10247 01d4 7E000000 		.4byte	.LFE114
 10248 01d8 00000000 		.4byte	.LFB115
 10249 01dc 78000000 		.4byte	.LFE115
 10250 01e0 00000000 		.4byte	.LFB116
 10251 01e4 1E000000 		.4byte	.LFE116
 10252 01e8 00000000 		.4byte	.LFB117
 10253 01ec 26000000 		.4byte	.LFE117
 10254 01f0 00000000 		.4byte	.LFB118
 10255 01f4 24000000 		.4byte	.LFE118
 10256 01f8 00000000 		.4byte	.LFB119
 10257 01fc 5A000000 		.4byte	.LFE119
 10258 0200 00000000 		.4byte	.LFB120
 10259 0204 B0000000 		.4byte	.LFE120
 10260 0208 00000000 		.4byte	.LFB121
 10261 020c 1E000000 		.4byte	.LFE121
 10262 0210 00000000 		.4byte	.LFB122
 10263 0214 1E000000 		.4byte	.LFE122
 10264 0218 00000000 		.4byte	.LFB123
 10265 021c B4000000 		.4byte	.LFE123
 10266 0220 00000000 		.4byte	.LFB124
 10267 0224 68000000 		.4byte	.LFE124
 10268 0228 00000000 		.4byte	.LFB125
 10269 022c 2A000000 		.4byte	.LFE125
 10270 0230 00000000 		.4byte	.LFB126
 10271 0234 26000000 		.4byte	.LFE126
 10272 0238 00000000 		.4byte	.LFB127
 10273 023c 8A000000 		.4byte	.LFE127
 10274 0240 00000000 		.4byte	.LFB128
 10275 0244 00010000 		.4byte	.LFE128
 10276 0248 00000000 		.4byte	0
 10277 024c 00000000 		.4byte	0
 10278              		.section	.debug_line,"",%progbits
 10279              	.Ldebug_line0:
 10280 0000 C5090000 		.section	.debug_str,"MS",%progbits,1
 10280      0200F600 
 10280      00000201 
 10280      FB0E0D00 
ARM GAS  C:\Users\CHUCK~1.ERH\AppData\Local\Temp\cclfQUCJ.s 			page 214


 10280      01010101 
 10281              	.LASF58:
 10282 0000 4554485F 		.ascii	"ETH_GetSocketRxMemSize\000"
 10282      47657453 
 10282      6F636B65 
 10282      7452784D 
 10282      656D5369 
 10283              	.LASF120:
 10284 0017 4554485F 		.ascii	"ETH_SocketSendMac\000"
 10284      536F636B 
 10284      65745365 
 10284      6E644D61 
 10284      6300
 10285              	.LASF42:
 10286 0029 4554485F 		.ascii	"ETH_SetSourceMAC\000"
 10286      53657453 
 10286      6F757263 
 10286      654D4143 
 10286      00
 10287              	.LASF51:
 10288 003a 4554485F 		.ascii	"ETH_SetMode\000"
 10288      5365744D 
 10288      6F646500 
 10289              	.LASF98:
 10290 0046 4554485F 		.ascii	"ETH_Start\000"
 10290      53746172 
 10290      7400
 10291              	.LASF93:
 10292 0050 666C6167 		.ascii	"flags\000"
 10292      7300
 10293              	.LASF22:
 10294 0056 54784275 		.ascii	"TxBufferSize\000"
 10294      66666572 
 10294      53697A65 
 10294      00
 10295              	.LASF89:
 10296 0063 62756666 		.ascii	"buffer\000"
 10296      657200
 10297              	.LASF144:
 10298 006a 4554485F 		.ascii	"ETH_SocketConfig\000"
 10298      536F636B 
 10298      6574436F 
 10298      6E666967 
 10298      00
 10299              	.LASF8:
 10300 007b 756E7369 		.ascii	"unsigned int\000"
 10300      676E6564 
 10300      20696E74 
 10300      00
 10301              	.LASF65:
 10302 0088 4554485F 		.ascii	"ETH_GetSocketIR\000"
 10302      47657453 
 10302      6F636B65 
 10302      74495200 
 10303              	.LASF77:
 10304 0098 4554485F 		.ascii	"ETH_SetSocketRxReadPtr\000"
 10304      53657453 
ARM GAS  C:\Users\CHUCK~1.ERH\AppData\Local\Temp\cclfQUCJ.s 			page 215


 10304      6F636B65 
 10304      74527852 
 10304      65616450 
 10305              	.LASF45:
 10306 00af 4554485F 		.ascii	"ETH_ChipRead16\000"
 10306      43686970 
 10306      52656164 
 10306      313600
 10307              	.LASF39:
 10308 00be 7278436F 		.ascii	"rxCount\000"
 10308      756E7400 
 10309              	.LASF34:
 10310 00c6 7278496E 		.ascii	"rxIndex\000"
 10310      64657800 
 10311              	.LASF136:
 10312 00ce 4554485F 		.ascii	"ETH_UdpReceive\000"
 10312      55647052 
 10312      65636569 
 10312      766500
 10313              	.LASF142:
 10314 00dd 4554485F 		.ascii	"ETH_SOCKET_RX_BASE\000"
 10314      534F434B 
 10314      45545F52 
 10314      585F4241 
 10314      534500
 10315              	.LASF72:
 10316 00f0 4554485F 		.ascii	"ETH_SetSocketDestPort\000"
 10316      53657453 
 10316      6F636B65 
 10316      74446573 
 10316      74506F72 
 10317              	.LASF52:
 10318 0106 6D6F6465 		.ascii	"mode\000"
 10318      00
 10319              	.LASF96:
 10320 010b 67617465 		.ascii	"gateway\000"
 10320      77617900 
 10321              	.LASF75:
 10322 0113 4554485F 		.ascii	"ETH_GetSocketTxWritePtr\000"
 10322      47657453 
 10322      6F636B65 
 10322      74547857 
 10322      72697465 
 10323              	.LASF86:
 10324 012b 4554485F 		.ascii	"ETH_GetRxSize\000"
 10324      47657452 
 10324      7853697A 
 10324      6500
 10325              	.LASF21:
 10326 0139 53657276 		.ascii	"ServerFlag\000"
 10326      6572466C 
 10326      616700
 10327              	.LASF135:
 10328 0144 4554485F 		.ascii	"ETH_UdpSend\000"
 10328      55647053 
 10328      656E6400 
 10329              	.LASF32:
ARM GAS  C:\Users\CHUCK~1.ERH\AppData\Local\Temp\cclfQUCJ.s 			page 216


 10330 0150 4554485F 		.ascii	"ETH_ChipWrite\000"
 10330      43686970 
 10330      57726974 
 10330      6500
 10331              	.LASF129:
 10332 015e 54785369 		.ascii	"TxSize\000"
 10332      7A6500
 10333              	.LASF41:
 10334 0165 62696756 		.ascii	"bigVal\000"
 10334      616C00
 10335              	.LASF112:
 10336 016c 4554485F 		.ascii	"ETH_SetIP\000"
 10336      53657449 
 10336      5000
 10337              	.LASF54:
 10338 0176 4554485F 		.ascii	"ETH_SetIR\000"
 10338      53657449 
 10338      5200
 10339              	.LASF74:
 10340 0180 4554485F 		.ascii	"ETH_SetSocketTxWritePtr\000"
 10340      53657453 
 10340      6F636B65 
 10340      74547857 
 10340      72697465 
 10341              	.LASF13:
 10342 0198 666C6F61 		.ascii	"float\000"
 10342      7400
 10343              	.LASF61:
 10344 019e 4554485F 		.ascii	"ETH_SetSocketMode\000"
 10344      53657453 
 10344      6F636B65 
 10344      744D6F64 
 10344      6500
 10345              	.LASF36:
 10346 01b0 72784C65 		.ascii	"rxLen\000"
 10346      6E00
 10347              	.LASF90:
 10348 01b6 62617365 		.ascii	"base\000"
 10348      00
 10349              	.LASF97:
 10350 01bb 696E6465 		.ascii	"index\000"
 10350      7800
 10351              	.LASF30:
 10352 01c1 7478436F 		.ascii	"txCount\000"
 10352      756E7400 
 10353              	.LASF141:
 10354 01c9 4554485F 		.ascii	"ETH_SOCKET_TX_BASE\000"
 10354      534F434B 
 10354      45545F54 
 10354      585F4241 
 10354      534500
 10355              	.LASF106:
 10356 01dc 72657375 		.ascii	"result\000"
 10356      6C7400
 10357              	.LASF7:
 10358 01e3 6C6F6E67 		.ascii	"long long unsigned int\000"
 10358      206C6F6E 
ARM GAS  C:\Users\CHUCK~1.ERH\AppData\Local\Temp\cclfQUCJ.s 			page 217


 10358      6720756E 
 10358      7369676E 
 10358      65642069 
 10359              	.LASF88:
 10360 01fa 6F666673 		.ascii	"offset\000"
 10360      657400
 10361              	.LASF59:
 10362 0201 4554485F 		.ascii	"ETH_SetSocketTxMemSize\000"
 10362      53657453 
 10362      6F636B65 
 10362      7454784D 
 10362      656D5369 
 10363              	.LASF95:
 10364 0218 7375626E 		.ascii	"subnet\000"
 10364      657400
 10365              	.LASF40:
 10366 021f 4554485F 		.ascii	"ETH_ChipWrite16\000"
 10366      43686970 
 10366      57726974 
 10366      65313600 
 10367              	.LASF148:
 10368 022f 2E5C4765 		.ascii	".\\Generated_Source\\PSoC5\\ETH.c\000"
 10368      6E657261 
 10368      7465645F 
 10368      536F7572 
 10368      63655C50 
 10369              	.LASF49:
 10370 024e 4554485F 		.ascii	"ETH_SetSourceIP\000"
 10370      53657453 
 10370      6F757263 
 10370      65495000 
 10371              	.LASF60:
 10372 025e 4554485F 		.ascii	"ETH_GetSocketTxMemSize\000"
 10372      47657453 
 10372      6F636B65 
 10372      7454784D 
 10372      656D5369 
 10373              	.LASF83:
 10374 0275 4554485F 		.ascii	"ETH_GetTxFreeSize\000"
 10374      47657454 
 10374      78467265 
 10374      6553697A 
 10374      6500
 10375              	.LASF124:
 10376 0287 4554485F 		.ascii	"ETH_TcpStartServerWait\000"
 10376      54637053 
 10376      74617274 
 10376      53657276 
 10376      65725761 
 10377              	.LASF102:
 10378 029e 636F756E 		.ascii	"counter\000"
 10378      74657200 
 10379              	.LASF105:
 10380 02a6 6D616353 		.ascii	"macString\000"
 10380      7472696E 
 10380      6700
 10381              	.LASF73:
ARM GAS  C:\Users\CHUCK~1.ERH\AppData\Local\Temp\cclfQUCJ.s 			page 218


 10382 02b0 4554485F 		.ascii	"ETH_GetSocketTxFree\000"
 10382      47657453 
 10382      6F636B65 
 10382      74547846 
 10382      72656500 
 10383              	.LASF149:
 10384 02c4 433A5C55 		.ascii	"C:\\Users\\chuck.erhardt\\Documents\\GitHub\\PSoC-W"
 10384      73657273 
 10384      5C636875 
 10384      636B2E65 
 10384      72686172 
 10385 02f2 35313030 		.ascii	"5100-Driver\\FreeSoC Explorer - W5500 ioShield-A.cy"
 10385      2D447269 
 10385      7665725C 
 10385      46726565 
 10385      536F4320 
 10386 0324 64736E00 		.ascii	"dsn\000"
 10387              	.LASF103:
 10388 0328 64696E64 		.ascii	"dindex\000"
 10388      657800
 10389              	.LASF37:
 10390 032f 74784279 		.ascii	"txBytes\000"
 10390      74657300 
 10391              	.LASF20:
 10392 0337 536F7572 		.ascii	"SourcePort\000"
 10392      6365506F 
 10392      727400
 10393              	.LASF85:
 10394 0342 7365636F 		.ascii	"second\000"
 10394      6E6400
 10395              	.LASF53:
 10396 0349 4554485F 		.ascii	"ETH_GetMode\000"
 10396      4765744D 
 10396      6F646500 
 10397              	.LASF150:
 10398 0355 4554485F 		.ascii	"ETH_GetIP\000"
 10398      47657449 
 10398      5000
 10399              	.LASF50:
 10400 035f 4554485F 		.ascii	"ETH_GetSourceIP\000"
 10400      47657453 
 10400      6F757263 
 10400      65495000 
 10401              	.LASF23:
 10402 036f 52784275 		.ascii	"RxBufferSize\000"
 10402      66666572 
 10402      53697A65 
 10402      00
 10403              	.LASF117:
 10404 037c 4554485F 		.ascii	"ETH_SocketProcessConnections\000"
 10404      536F636B 
 10404      65745072 
 10404      6F636573 
 10404      73436F6E 
 10405              	.LASF15:
 10406 0399 63686172 		.ascii	"char\000"
 10406      00
ARM GAS  C:\Users\CHUCK~1.ERH\AppData\Local\Temp\cclfQUCJ.s 			page 219


 10407              	.LASF62:
 10408 039e 4554485F 		.ascii	"ETH_SetSocketCommand\000"
 10408      53657453 
 10408      6F636B65 
 10408      74436F6D 
 10408      6D616E64 
 10409              	.LASF118:
 10410 03b3 4554485F 		.ascii	"ETH_SocketEstablished\000"
 10410      536F636B 
 10410      65744573 
 10410      7461626C 
 10410      69736865 
 10411              	.LASF11:
 10412 03c9 75696E74 		.ascii	"uint16\000"
 10412      313600
 10413              	.LASF133:
 10414 03d0 4554485F 		.ascii	"ETH_TcpPrint\000"
 10414      54637050 
 10414      72696E74 
 10414      00
 10415              	.LASF114:
 10416 03dd 4554485F 		.ascii	"ETH_GetMAC\000"
 10416      4765744D 
 10416      414300
 10417              	.LASF122:
 10418 03e8 4554485F 		.ascii	"ETH_TcpOpen\000"
 10418      5463704F 
 10418      70656E00 
 10419              	.LASF76:
 10420 03f4 4554485F 		.ascii	"ETH_GetSocketRxSize\000"
 10420      47657453 
 10420      6F636B65 
 10420      74527853 
 10420      697A6500 
 10421              	.LASF109:
 10422 0408 69704279 		.ascii	"ipBytes\000"
 10422      74657300 
 10423              	.LASF146:
 10424 0410 4554485F 		.ascii	"ETH_MAC\000"
 10424      4D414300 
 10425              	.LASF113:
 10426 0418 4554485F 		.ascii	"ETH_SetMAC\000"
 10426      5365744D 
 10426      414300
 10427              	.LASF104:
 10428 0423 4554485F 		.ascii	"ETH_ParseMAC\000"
 10428      50617273 
 10428      654D4143 
 10428      00
 10429              	.LASF121:
 10430 0430 4554485F 		.ascii	"ETH_SocketRxDataWaiting\000"
 10430      536F636B 
 10430      65745278 
 10430      44617461 
 10430      57616974 
 10431              	.LASF6:
 10432 0448 6C6F6E67 		.ascii	"long long int\000"
ARM GAS  C:\Users\CHUCK~1.ERH\AppData\Local\Temp\cclfQUCJ.s 			page 220


 10432      206C6F6E 
 10432      6720696E 
 10432      7400
 10433              	.LASF131:
 10434 0456 4554485F 		.ascii	"ETH_TcpReceive\000"
 10434      54637052 
 10434      65636569 
 10434      766500
 10435              	.LASF119:
 10436 0465 4554485F 		.ascii	"ETH_SocketSend\000"
 10436      536F636B 
 10436      65745365 
 10436      6E6400
 10437              	.LASF78:
 10438 0474 4554485F 		.ascii	"ETH_GetSocketRxReadPtr\000"
 10438      47657453 
 10438      6F636B65 
 10438      74527852 
 10438      65616450 
 10439              	.LASF29:
 10440 048b 74784C65 		.ascii	"txLen\000"
 10440      6E00
 10441              	.LASF26:
 10442 0491 4554485F 		.ascii	"ETH_ChipDeSelect\000"
 10442      43686970 
 10442      44655365 
 10442      6C656374 
 10442      00
 10443              	.LASF101:
 10444 04a2 64696769 		.ascii	"digit\000"
 10444      7400
 10445              	.LASF18:
 10446 04a8 50726F74 		.ascii	"Protocol\000"
 10446      6F636F6C 
 10446      00
 10447              	.LASF57:
 10448 04b1 73697A65 		.ascii	"size\000"
 10448      00
 10449              	.LASF12:
 10450 04b6 75696E74 		.ascii	"uint32\000"
 10450      333200
 10451              	.LASF44:
 10452 04bd 4554485F 		.ascii	"ETH_SetGatewayAddress\000"
 10452      53657447 
 10452      61746577 
 10452      61794164 
 10452      64726573 
 10453              	.LASF71:
 10454 04d3 4554485F 		.ascii	"ETH_SetSocketDestIP\000"
 10454      53657453 
 10454      6F636B65 
 10454      74446573 
 10454      74495000 
 10455              	.LASF24:
 10456 04e7 4554485F 		.ascii	"ETH_SOCKET\000"
 10456      534F434B 
 10456      455400
ARM GAS  C:\Users\CHUCK~1.ERH\AppData\Local\Temp\cclfQUCJ.s 			page 221


 10457              	.LASF100:
 10458 04f2 69705374 		.ascii	"ipString\000"
 10458      72696E67 
 10458      00
 10459              	.LASF63:
 10460 04fb 4554485F 		.ascii	"ETH_GetSocketCommand\000"
 10460      47657453 
 10460      6F636B65 
 10460      74436F6D 
 10460      6D616E64 
 10461              	.LASF116:
 10462 0510 4554485F 		.ascii	"ETH_SocketClose\000"
 10462      536F636B 
 10462      6574436C 
 10462      6F736500 
 10463              	.LASF66:
 10464 0520 4554485F 		.ascii	"ETH_GetSocketStatus\000"
 10464      47657453 
 10464      6F636B65 
 10464      74537461 
 10464      74757300 
 10465              	.LASF108:
 10466 0534 4554485F 		.ascii	"ETH_StringIP\000"
 10466      53747269 
 10466      6E674950 
 10466      00
 10467              	.LASF94:
 10468 0541 4554485F 		.ascii	"ETH_Init\000"
 10468      496E6974 
 10468      00
 10469              	.LASF134:
 10470 054a 4554485F 		.ascii	"ETH_UdpOpen\000"
 10470      5564704F 
 10470      70656E00 
 10471              	.LASF2:
 10472 0556 73686F72 		.ascii	"short int\000"
 10472      7420696E 
 10472      7400
 10473              	.LASF55:
 10474 0560 4554485F 		.ascii	"ETH_SetSocketRxMemSize\000"
 10474      53657453 
 10474      6F636B65 
 10474      7452784D 
 10474      656D5369 
 10475              	.LASF4:
 10476 0577 6C6F6E67 		.ascii	"long int\000"
 10476      20696E74 
 10476      00
 10477              	.LASF81:
 10478 0580 4554485F 		.ascii	"ETH_ExecuteSocketCommand\000"
 10478      45786563 
 10478      75746553 
 10478      6F636B65 
 10478      74436F6D 
 10479              	.LASF140:
 10480 0599 49544D5F 		.ascii	"ITM_RxBuffer\000"
 10480      52784275 
ARM GAS  C:\Users\CHUCK~1.ERH\AppData\Local\Temp\cclfQUCJ.s 			page 222


 10480      66666572 
 10480      00
 10481              	.LASF28:
 10482 05a6 6C656E67 		.ascii	"length\000"
 10482      746800
 10483              	.LASF67:
 10484 05ad 73746174 		.ascii	"status\000"
 10484      757300
 10485              	.LASF111:
 10486 05b4 74656D70 		.ascii	"temp\000"
 10486      00
 10487              	.LASF110:
 10488 05b9 776F726B 		.ascii	"work\000"
 10488      00
 10489              	.LASF56:
 10490 05be 736F636B 		.ascii	"socket\000"
 10490      657400
 10491              	.LASF143:
 10492 05c5 4554485F 		.ascii	"ETH_W5500_BSB\000"
 10492      57353530 
 10492      305F4253 
 10492      4200
 10493              	.LASF130:
 10494 05d3 46726565 		.ascii	"FreeSpace\000"
 10494      53706163 
 10494      6500
 10495              	.LASF125:
 10496 05dd 4554485F 		.ascii	"ETH_TcpConnect\000"
 10496      54637043 
 10496      6F6E6E65 
 10496      637400
 10497              	.LASF127:
 10498 05ec 4554485F 		.ascii	"ETH_TcpDisconnect\000"
 10498      54637044 
 10498      6973636F 
 10498      6E6E6563 
 10498      7400
 10499              	.LASF47:
 10500 05fe 4554485F 		.ascii	"ETH_SetSubnetMask\000"
 10500      53657453 
 10500      75626E65 
 10500      744D6173 
 10500      6B00
 10501              	.LASF79:
 10502 0610 4554485F 		.ascii	"ETH_SetSocketRxWritePtr\000"
 10502      53657453 
 10502      6F636B65 
 10502      74527857 
 10502      72697465 
 10503              	.LASF91:
 10504 0628 506F696E 		.ascii	"PointerOffset\000"
 10504      7465724F 
 10504      66667365 
 10504      7400
 10505              	.LASF80:
 10506 0636 4554485F 		.ascii	"ETH_SetSocketTxReadPtr\000"
 10506      53657453 
ARM GAS  C:\Users\CHUCK~1.ERH\AppData\Local\Temp\cclfQUCJ.s 			page 223


 10506      6F636B65 
 10506      74547852 
 10506      65616450 
 10507              	.LASF138:
 10508 064d 5061636B 		.ascii	"PacketHeader\000"
 10508      65744865 
 10508      61646572 
 10508      00
 10509              	.LASF17:
 10510 065a 73697A65 		.ascii	"sizetype\000"
 10510      74797065 
 10510      00
 10511              	.LASF92:
 10512 0663 4554485F 		.ascii	"ETH_ProcessRxData\000"
 10512      50726F63 
 10512      65737352 
 10512      78446174 
 10512      6100
 10513              	.LASF5:
 10514 0675 6C6F6E67 		.ascii	"long unsigned int\000"
 10514      20756E73 
 10514      69676E65 
 10514      6420696E 
 10514      7400
 10515              	.LASF35:
 10516 0687 61646472 		.ascii	"address\000"
 10516      65737300 
 10517              	.LASF9:
 10518 068f 696E7433 		.ascii	"int32_t\000"
 10518      325F7400 
 10519              	.LASF69:
 10520 0697 706F7274 		.ascii	"port\000"
 10520      00
 10521              	.LASF25:
 10522 069c 4554485F 		.ascii	"ETH_ChipSelect\000"
 10522      43686970 
 10522      53656C65 
 10522      637400
 10523              	.LASF123:
 10524 06ab 4554485F 		.ascii	"ETH_TcpStartServer\000"
 10524      54637053 
 10524      74617274 
 10524      53657276 
 10524      657200
 10525              	.LASF19:
 10526 06be 536F636B 		.ascii	"SocketFlags\000"
 10526      6574466C 
 10526      61677300 
 10527              	.LASF48:
 10528 06ca 4554485F 		.ascii	"ETH_GetSubnetMask\000"
 10528      47657453 
 10528      75626E65 
 10528      744D6173 
 10528      6B00
 10529              	.LASF16:
 10530 06dc 63797374 		.ascii	"cystatus\000"
 10530      61747573 
ARM GAS  C:\Users\CHUCK~1.ERH\AppData\Local\Temp\cclfQUCJ.s 			page 224


 10530      00
 10531              	.LASF1:
 10532 06e5 756E7369 		.ascii	"unsigned char\000"
 10532      676E6564 
 10532      20636861 
 10532      7200
 10533              	.LASF145:
 10534 06f3 4554485F 		.ascii	"ETH_SubnetMask\000"
 10534      5375626E 
 10534      65744D61 
 10534      736B00
 10535              	.LASF82:
 10536 0702 74696D65 		.ascii	"timeout\000"
 10536      6F757400 
 10537              	.LASF107:
 10538 070a 4554485F 		.ascii	"ETH_StringMAC\000"
 10538      53747269 
 10538      6E674D41 
 10538      4300
 10539              	.LASF84:
 10540 0718 66697273 		.ascii	"first\000"
 10540      7400
 10541              	.LASF27:
 10542 071e 61646472 		.ascii	"addr\000"
 10542      00
 10543              	.LASF99:
 10544 0723 4554485F 		.ascii	"ETH_ParseIP\000"
 10544      50617273 
 10544      65495000 
 10545              	.LASF126:
 10546 072f 4554485F 		.ascii	"ETH_TcpConnected\000"
 10546      54637043 
 10546      6F6E6E65 
 10546      63746564 
 10546      00
 10547              	.LASF43:
 10548 0740 4554485F 		.ascii	"ETH_GetSourceMAC\000"
 10548      47657453 
 10548      6F757263 
 10548      654D4143 
 10548      00
 10549              	.LASF68:
 10550 0751 4554485F 		.ascii	"ETH_SetSocketSourcePort\000"
 10550      53657453 
 10550      6F636B65 
 10550      74536F75 
 10550      72636550 
 10551              	.LASF46:
 10552 0769 4554485F 		.ascii	"ETH_GetGatewayAddress\000"
 10552      47657447 
 10552      61746577 
 10552      61794164 
 10552      64726573 
 10553              	.LASF31:
 10554 077f 63726974 		.ascii	"crit\000"
 10554      00
 10555              	.LASF0:
ARM GAS  C:\Users\CHUCK~1.ERH\AppData\Local\Temp\cclfQUCJ.s 			page 225


 10556 0784 7369676E 		.ascii	"signed char\000"
 10556      65642063 
 10556      68617200 
 10557              	.LASF3:
 10558 0790 73686F72 		.ascii	"short unsigned int\000"
 10558      7420756E 
 10558      7369676E 
 10558      65642069 
 10558      6E7400
 10559              	.LASF132:
 10560 07a3 52785369 		.ascii	"RxSize\000"
 10560      7A6500
 10561              	.LASF147:
 10562 07aa 474E5520 		.ascii	"GNU C 4.7.3 20130312 (release) [ARM/embedded-4_7-br"
 10562      4320342E 
 10562      372E3320 
 10562      32303133 
 10562      30333132 
 10563 07dd 616E6368 		.ascii	"anch revision 196615]\000"
 10563      20726576 
 10563      6973696F 
 10563      6E203139 
 10563      36363135 
 10564              	.LASF38:
 10565 07f3 64756D70 		.ascii	"dump\000"
 10565      00
 10566              	.LASF70:
 10567 07f8 4554485F 		.ascii	"ETH_SetSocketDestMAC\000"
 10567      53657453 
 10567      6F636B65 
 10567      74446573 
 10567      744D4143 
 10568              	.LASF10:
 10569 080d 75696E74 		.ascii	"uint8\000"
 10569      3800
 10570              	.LASF14:
 10571 0813 646F7562 		.ascii	"double\000"
 10571      6C6500
 10572              	.LASF87:
 10573 081a 4554485F 		.ascii	"ETH_ProcessTxData\000"
 10573      50726F63 
 10573      65737354 
 10573      78446174 
 10573      6100
 10574              	.LASF33:
 10575 082c 4554485F 		.ascii	"ETH_ChipRead\000"
 10575      43686970 
 10575      52656164 
 10575      00
 10576              	.LASF64:
 10577 0839 4554485F 		.ascii	"ETH_SetSocketIR\000"
 10577      53657453 
 10577      6F636B65 
 10577      74495200 
 10578              	.LASF137:
 10579 0849 5061636B 		.ascii	"PacketSize\000"
 10579      65745369 
ARM GAS  C:\Users\CHUCK~1.ERH\AppData\Local\Temp\cclfQUCJ.s 			page 226


 10579      7A6500
 10580              	.LASF128:
 10581 0854 4554485F 		.ascii	"ETH_TcpSend\000"
 10581      54637053 
 10581      656E6400 
 10582              	.LASF115:
 10583 0860 4554485F 		.ascii	"ETH_SocketOpen\000"
 10583      536F636B 
 10583      65744F70 
 10583      656E00
 10584              	.LASF139:
 10585 086f 5350495F 		.ascii	"SPI_initVar\000"
 10585      696E6974 
 10585      56617200 
 10586              		.ident	"GCC: (GNU Tools for ARM Embedded Processors) 4.7.3 20130312 (release) [ARM/embedded-4_7-br
