ARM GAS  C:\Users\CHUCK~1.ERH\AppData\Local\Temp\ccWRPeSc.s 			page 1


   1              		.syntax unified
   2              		.cpu cortex-m3
   3              		.fpu softvfp
   4              		.eabi_attribute 20, 1
   5              		.eabi_attribute 21, 1
   6              		.eabi_attribute 23, 3
   7              		.eabi_attribute 24, 1
   8              		.eabi_attribute 25, 1
   9              		.eabi_attribute 26, 1
  10              		.eabi_attribute 30, 6
  11              		.eabi_attribute 34, 1
  12              		.eabi_attribute 18, 4
  13              		.thumb
  14              		.file	"ETH.c"
  15              		.text
  16              	.Ltext0:
  17              		.cfi_sections	.debug_frame
  18              		.global	ETH_SOCKET_TX_BASE
  19              		.section	.rodata
  20              		.align	2
  21              		.type	ETH_SOCKET_TX_BASE, %object
  22              		.size	ETH_SOCKET_TX_BASE, 32
  23              	ETH_SOCKET_TX_BASE:
  24 0000 00000200 		.word	131072
  25 0004 00000600 		.word	393216
  26 0008 00000A00 		.word	655360
  27 000c 00000E00 		.word	917504
  28 0010 00001200 		.word	1179648
  29 0014 00001600 		.word	1441792
  30 0018 00001A00 		.word	1703936
  31 001c 00001E00 		.word	1966080
  32              		.global	ETH_SOCKET_RX_BASE
  33              		.align	2
  34              		.type	ETH_SOCKET_RX_BASE, %object
  35              		.size	ETH_SOCKET_RX_BASE, 32
  36              	ETH_SOCKET_RX_BASE:
  37 0020 00000300 		.word	196608
  38 0024 00000700 		.word	458752
  39 0028 00000B00 		.word	720896
  40 002c 00000F00 		.word	983040
  41 0030 00001300 		.word	1245184
  42 0034 00001700 		.word	1507328
  43 0038 00001B00 		.word	1769472
  44 003c 00001F00 		.word	2031616
  45              		.global	ETH_W5500_BSB
  46              		.align	2
  47              		.type	ETH_W5500_BSB, %object
  48              		.size	ETH_W5500_BSB, 32
  49              	ETH_W5500_BSB:
  50 0040 00000100 		.word	65536
  51 0044 00000500 		.word	327680
  52 0048 00000900 		.word	589824
  53 004c 00000D00 		.word	851968
  54 0050 00001100 		.word	1114112
  55 0054 00001500 		.word	1376256
  56 0058 00001900 		.word	1638400
  57 005c 00001E00 		.word	1966080
ARM GAS  C:\Users\CHUCK~1.ERH\AppData\Local\Temp\ccWRPeSc.s 			page 2


  58              		.comm	ETH_SocketConfig,64,4
  59              		.comm	ETH_SubnetMask,4,4
  60              		.comm	ETH_MAC,6,4
  61              		.section	.text.ETH_ChipSelect,"ax",%progbits
  62              		.align	2
  63              		.global	ETH_ChipSelect
  64              		.thumb
  65              		.thumb_func
  66              		.type	ETH_ChipSelect, %function
  67              	ETH_ChipSelect:
  68              	.LFB0:
  69              		.file 1 ".\\Generated_Source\\PSoC5\\ETH.c"
   1:.\Generated_Source\PSoC5/ETH.c **** /**
   2:.\Generated_Source\PSoC5/ETH.c ****  * \addtogroup w5x00
   3:.\Generated_Source\PSoC5/ETH.c ****  * @{
   4:.\Generated_Source\PSoC5/ETH.c ****  */
   5:.\Generated_Source\PSoC5/ETH.c **** 
   6:.\Generated_Source\PSoC5/ETH.c **** /**
   7:.\Generated_Source\PSoC5/ETH.c ****  * \file Driver implementation for interfacing with the W5x00 device
   8:.\Generated_Source\PSoC5/ETH.c ****  * \author Chuck Erhardt (chuck@e2forlife.com)
   9:.\Generated_Source\PSoC5/ETH.c ****  *
  10:.\Generated_Source\PSoC5/ETH.c ****  * This file contains the main driver implementation for control
  11:.\Generated_Source\PSoC5/ETH.c ****  * of the W5x00 device.
  12:.\Generated_Source\PSoC5/ETH.c **** */
  13:.\Generated_Source\PSoC5/ETH.c **** 
  14:.\Generated_Source\PSoC5/ETH.c **** /*
  15:.\Generated_Source\PSoC5/ETH.c ****  * Change Log:
  16:.\Generated_Source\PSoC5/ETH.c ****  * 
  17:.\Generated_Source\PSoC5/ETH.c ****  * V1.1
  18:.\Generated_Source\PSoC5/ETH.c ****  * - Modified the SPI access function to remove hard wait for READ_WRITE_DELAY  <CE>
  19:.\Generated_Source\PSoC5/ETH.c ****  * - Removed READ_WRITE_DELAY Parameter <CE>
  20:.\Generated_Source\PSoC5/ETH.c ****  * - Added validator to SS_NUM parameter to ensure that the value is the range 0-3 <CE>
  21:.\Generated_Source\PSoC5/ETH.c ****  * - Removed "inline" keywords from interal register access function to promote
  22:.\Generated_Source\PSoC5/ETH.c ****  *   compatibility with Keil PSoC3 compilers that don't support them. <CE>
  23:.\Generated_Source\PSoC5/ETH.c ****  * - Fixed bug in _ProcessRxData() that caused the read pointer not to be updated without
  24:.\Generated_Source\PSoC5/ETH.c ****  *   the lookahead flag being set. <CE>
  25:.\Generated_Source\PSoC5/ETH.c ****  * V1.2
  26:.\Generated_Source\PSoC5/ETH.c ****  * - Added _STS_SPI_IDLE flag to _SpiDone conditions to prevent deadlocking that
  27:.\Generated_Source\PSoC5/ETH.c ****  *   was occuring during the first read or write using the SPI device (SPIM moded) <CE>
  28:.\Generated_Source\PSoC5/ETH.c ****  * - Removed the check for SOCKET_ESTABLISHED at the start of the TcpReceive
  29:.\Generated_Source\PSoC5/ETH.c ****  *   function to allow for reading received socket data after the socket was dropped
  30:.\Generated_Source\PSoC5/ETH.c ****  *   by the remote server.  It was brought to my attention that this occurs when
  31:.\Generated_Source\PSoC5/ETH.c ****  *   operating with client connection to HTTP servers. <CE>
  32:.\Generated_Source\PSoC5/ETH.c ****  * - Added a MAC address parser and MAC to String Converter. <CE>
  33:.\Generated_Source\PSoC5/ETH.c ****  */
  34:.\Generated_Source\PSoC5/ETH.c **** 
  35:.\Generated_Source\PSoC5/ETH.c **** /* Cypress library includes */
  36:.\Generated_Source\PSoC5/ETH.c **** #include <cytypes.h>
  37:.\Generated_Source\PSoC5/ETH.c **** #include <cylib.h>
  38:.\Generated_Source\PSoC5/ETH.c **** 
  39:.\Generated_Source\PSoC5/ETH.c **** /*  include functions and types for the driver */
  40:.\Generated_Source\PSoC5/ETH.c **** #include "ETH.h"
  41:.\Generated_Source\PSoC5/ETH.c **** /* Include register address constants */
  42:.\Generated_Source\PSoC5/ETH.c **** #include "ETH_reg55.h"
  43:.\Generated_Source\PSoC5/ETH.c **** 
  44:.\Generated_Source\PSoC5/ETH.c **** /* include the serial interface functions */
  45:.\Generated_Source\PSoC5/ETH.c **** #include <SPI.h>
ARM GAS  C:\Users\CHUCK~1.ERH\AppData\Local\Temp\ccWRPeSc.s 			page 3


  46:.\Generated_Source\PSoC5/ETH.c **** #include <CSN.h>
  47:.\Generated_Source\PSoC5/ETH.c **** 
  48:.\Generated_Source\PSoC5/ETH.c **** extern uint8 SPI_initVar;
  49:.\Generated_Source\PSoC5/ETH.c **** 
  50:.\Generated_Source\PSoC5/ETH.c **** typedef struct
  51:.\Generated_Source\PSoC5/ETH.c **** {
  52:.\Generated_Source\PSoC5/ETH.c **** 	uint8  Protocol;
  53:.\Generated_Source\PSoC5/ETH.c **** 	uint8  SocketFlags;
  54:.\Generated_Source\PSoC5/ETH.c **** 	uint16 SourcePort;
  55:.\Generated_Source\PSoC5/ETH.c **** 	uint8  ServerFlag;
  56:.\Generated_Source\PSoC5/ETH.c **** 	uint8  TxBufferSize;
  57:.\Generated_Source\PSoC5/ETH.c **** 	uint8  RxBufferSize;
  58:.\Generated_Source\PSoC5/ETH.c **** } ETH_SOCKET;
  59:.\Generated_Source\PSoC5/ETH.c **** 
  60:.\Generated_Source\PSoC5/ETH.c **** #if (5 == 1) // W5100 Specific
  61:.\Generated_Source\PSoC5/ETH.c **** const uint32 ETH_SOCKET_TX_BASE[4] = { 0x4000, 0x4800, 0x5000, 0x5800 };
  62:.\Generated_Source\PSoC5/ETH.c **** const uint32 ETH_SOCKET_RX_BASE[4] = { 0x6000, 0x6800, 0x7000, 0x7800 };
  63:.\Generated_Source\PSoC5/ETH.c **** 
  64:.\Generated_Source\PSoC5/ETH.c **** #define ETH_MAX_SOCKET   ( 4 )
  65:.\Generated_Source\PSoC5/ETH.c **** #define ETH_BURST_MAX    ( 1 )
  66:.\Generated_Source\PSoC5/ETH.c **** 
  67:.\Generated_Source\PSoC5/ETH.c **** /**
  68:.\Generated_Source\PSoC5/ETH.c ****  * \def ETH_SOCKET REG(s,r)
  69:.\Generated_Source\PSoC5/ETH.c ****  * \brief Convert the socket number to a base address within the W5100
  70:.\Generated_Source\PSoC5/ETH.c ****  */
  71:.\Generated_Source\PSoC5/ETH.c **** #define ETH_SOCKET_REG(s,r)           ( (((uint32)s<<8)+0x0400) + r )
  72:.\Generated_Source\PSoC5/ETH.c **** 
  73:.\Generated_Source\PSoC5/ETH.c **** #elif (5 == 2) // W5200 Specific
  74:.\Generated_Source\PSoC5/ETH.c **** 	
  75:.\Generated_Source\PSoC5/ETH.c **** const uint32 ETH_SOCKET_TX_BASE[8] = { 0x8000, 0x8800, 0x9000, 0x9800, 0xA000, 0xA800, 0xB000, 0xB8
  76:.\Generated_Source\PSoC5/ETH.c **** const uint32 ETH_SOCKET_RX_BASE[8] = { 0xC000, 0xC800, 0xD000, 0xD800, 0xE000, 0xE800, 0xF000, 0xF8
  77:.\Generated_Source\PSoC5/ETH.c **** 
  78:.\Generated_Source\PSoC5/ETH.c **** #define ETH_MAX_SOCKET   ( 8 )
  79:.\Generated_Source\PSoC5/ETH.c **** #define ETH_BURST_MAX    ( 0x7FFF )
  80:.\Generated_Source\PSoC5/ETH.c **** 
  81:.\Generated_Source\PSoC5/ETH.c **** /**
  82:.\Generated_Source\PSoC5/ETH.c ****  * \def ETH_SOCKET REG(s,r)
  83:.\Generated_Source\PSoC5/ETH.c ****  * \brief Convert the socket number and register to a base address within the W5200
  84:.\Generated_Source\PSoC5/ETH.c ****  */
  85:.\Generated_Source\PSoC5/ETH.c **** #define ETH_SOCKET_REG(s,r)           ( ((uint32)s<<8) + r )
  86:.\Generated_Source\PSoC5/ETH.c **** #elif (5 == 5) // W5500 Specific
  87:.\Generated_Source\PSoC5/ETH.c **** 
  88:.\Generated_Source\PSoC5/ETH.c **** 	const uint32 ETH_SOCKET_TX_BASE[8] = { 0x00020000, 0x00060000, 0x000A0000, 0x000E0000, 0x00120000,
  89:.\Generated_Source\PSoC5/ETH.c **** 	const uint32 ETH_SOCKET_RX_BASE[8] = { 0x00030000, 0x00070000, 0x000B0000, 0x000F0000, 0x00130000,
  90:.\Generated_Source\PSoC5/ETH.c **** 
  91:.\Generated_Source\PSoC5/ETH.c **** 	#define ETH_MAX_SOCKET   ( 8 )
  92:.\Generated_Source\PSoC5/ETH.c **** 	#define ETH_BURST_MAX    ( 0xFFFF )
  93:.\Generated_Source\PSoC5/ETH.c **** 
  94:.\Generated_Source\PSoC5/ETH.c **** 	const uint32 ETH_W5500_BSB[8] = { 0x00010000, 0x00050000, 0x00090000, 0x000D0000, 0x00110000, 0x00
  95:.\Generated_Source\PSoC5/ETH.c **** 	/**
  96:.\Generated_Source\PSoC5/ETH.c **** 	 * \def ETH_SOCKET REG(s,r)
  97:.\Generated_Source\PSoC5/ETH.c **** 	 * \brief Convert the socket number and register to a base address within the W5500
  98:.\Generated_Source\PSoC5/ETH.c **** 	 */
  99:.\Generated_Source\PSoC5/ETH.c **** 	#define ETH_SOCKET_REG(s,r)           ( ETH_W5500_BSB[s] + r )
 100:.\Generated_Source\PSoC5/ETH.c **** 
 101:.\Generated_Source\PSoC5/ETH.c **** #else
 102:.\Generated_Source\PSoC5/ETH.c **** 	#error "W5x00 components other than W5100, W5200 and W5500 are not currently supported"
ARM GAS  C:\Users\CHUCK~1.ERH\AppData\Local\Temp\ccWRPeSc.s 			page 4


 103:.\Generated_Source\PSoC5/ETH.c **** #endif
 104:.\Generated_Source\PSoC5/ETH.c **** 
 105:.\Generated_Source\PSoC5/ETH.c **** ETH_SOCKET ETH_SocketConfig[ETH_MAX_SOCKET];
 106:.\Generated_Source\PSoC5/ETH.c **** uint32 ETH_SubnetMask;
 107:.\Generated_Source\PSoC5/ETH.c **** 
 108:.\Generated_Source\PSoC5/ETH.c **** uint8 ETH_MAC[6]; /* V1.2: removed = {00-de-ad-be-ef-00}; */
 109:.\Generated_Source\PSoC5/ETH.c **** 
 110:.\Generated_Source\PSoC5/ETH.c **** /* ------------------------------------------------------------------------ */
 111:.\Generated_Source\PSoC5/ETH.c **** /* V1.2 HEX digit conversion tools for MAC Address parsing */
 112:.\Generated_Source\PSoC5/ETH.c **** #define ETH_ISXDIGIT(x) \
 113:.\Generated_Source\PSoC5/ETH.c **** ( ((x>='0')&&(x<='9'))||((x>='a')&&(x<='f'))||((x>='A')&&(x<='F')) )
 114:.\Generated_Source\PSoC5/ETH.c **** /* ------------------------------------------------------------------------ */
 115:.\Generated_Source\PSoC5/ETH.c **** #define ETH_HEX2BIN(x) \
 116:.\Generated_Source\PSoC5/ETH.c **** ( ((x>='0')&&(x<='9'))? (x-'0') : \
 117:.\Generated_Source\PSoC5/ETH.c ****   ((x>='a')&&(x<='f'))? ((x-'a')+10) : \
 118:.\Generated_Source\PSoC5/ETH.c ****   ((x>='A')&&(x<='F'))? ((x-'A')+10) : 0 )
 119:.\Generated_Source\PSoC5/ETH.c **** /* ------------------------------------------------------------------------ */
 120:.\Generated_Source\PSoC5/ETH.c **** #define ETH_BIN2HEX(x) \
 121:.\Generated_Source\PSoC5/ETH.c **** ( (x>9)? ((x-10)+'A') : (x + '0'))
 122:.\Generated_Source\PSoC5/ETH.c **** /* END V1.2 defines */
 123:.\Generated_Source\PSoC5/ETH.c **** /* ------------------------------------------------------------------------ */
 124:.\Generated_Source\PSoC5/ETH.c **** #if !defined(CY_SCB_SPI_H)
 125:.\Generated_Source\PSoC5/ETH.c **** 	/* SPIM Code */
 126:.\Generated_Source\PSoC5/ETH.c **** /* ------------------------------------------------------------------------ */	
 127:.\Generated_Source\PSoC5/ETH.c **** /* V1.1 : Macro definition for the SpiDone flag. */
 128:.\Generated_Source\PSoC5/ETH.c **** /*  
 129:.\Generated_Source\PSoC5/ETH.c **** 	V1.2 : Added SPI_IDLE flag to the condition for done to eliminate
 130:.\Generated_Source\PSoC5/ETH.c **** 	deadlocking when IDLE but not done.  This seems to occur during the
 131:.\Generated_Source\PSoC5/ETH.c **** 	initial write/read to/from the SPI port.
 132:.\Generated_Source\PSoC5/ETH.c **** */
 133:.\Generated_Source\PSoC5/ETH.c **** /**
 134:.\Generated_Source\PSoC5/ETH.c ****  * \brief Macro to determine the state of the spi done
 135:.\Generated_Source\PSoC5/ETH.c ****  * This macro reads the status register of the transmitter and masks off the doen bit.
 136:.\Generated_Source\PSoC5/ETH.c ****  */
 137:.\Generated_Source\PSoC5/ETH.c **** #define ETH_SpiDone     (SPI_ReadTxStatus() & (SPI_STS_SPI_DONE | SPI_STS_SPI_IDLE))
 138:.\Generated_Source\PSoC5/ETH.c **** #else
 139:.\Generated_Source\PSoC5/ETH.c **** /* include SPI function header for the SCB */
 140:.\Generated_Source\PSoC5/ETH.c **** #include <SPI_SPI_UART.h>
 141:.\Generated_Source\PSoC5/ETH.c **** 
 142:.\Generated_Source\PSoC5/ETH.c **** /* V1.1 : Include the header for the select pin used. */
 143:.\Generated_Source\PSoC5/ETH.c **** #define ETH_SpiDone    ((SPI_SpiUartGetTxBufferSize()==0)?1:0)
 144:.\Generated_Source\PSoC5/ETH.c **** #endif
 145:.\Generated_Source\PSoC5/ETH.c **** 
 146:.\Generated_Source\PSoC5/ETH.c **** /* ------------------------------------------------------------------------ */
 147:.\Generated_Source\PSoC5/ETH.c **** /**
 148:.\Generated_Source\PSoC5/ETH.c ****  * \brief Select the active SCB chip select connected to the W51
 149:.\Generated_Source\PSoC5/ETH.c ****  *
 150:.\Generated_Source\PSoC5/ETH.c ****  * this fucntion will set the active SS line within the SCB to select and
 151:.\Generated_Source\PSoC5/ETH.c ****  * communicate with the W5100 device.
 152:.\Generated_Source\PSoC5/ETH.c ****  * \note this functions requires that the device chip select is originating
 153:.\Generated_Source\PSoC5/ETH.c ****  *  from the SPI device.
 154:.\Generated_Source\PSoC5/ETH.c ****  */
 155:.\Generated_Source\PSoC5/ETH.c **** void
 156:.\Generated_Source\PSoC5/ETH.c **** ETH_ChipSelect( void )
 157:.\Generated_Source\PSoC5/ETH.c **** {
  70              		.loc 1 157 0
  71              		.cfi_startproc
ARM GAS  C:\Users\CHUCK~1.ERH\AppData\Local\Temp\ccWRPeSc.s 			page 5


  72              		@ args = 0, pretend = 0, frame = 0
  73              		@ frame_needed = 1, uses_anonymous_args = 0
  74 0000 80B5     		push	{r7, lr}
  75              	.LCFI0:
  76              		.cfi_def_cfa_offset 8
  77              		.cfi_offset 7, -8
  78              		.cfi_offset 14, -4
  79 0002 00AF     		add	r7, sp, #0
  80              	.LCFI1:
  81              		.cfi_def_cfa_register 7
 158:.\Generated_Source\PSoC5/ETH.c **** 	/*
 159:.\Generated_Source\PSoC5/ETH.c **** 	 * User code for setting the chip select enable.  This is called once
 160:.\Generated_Source\PSoC5/ETH.c **** 	 * at the beginning of each tranfer to/from the W5100, so we recommend
 161:.\Generated_Source\PSoC5/ETH.c **** 	 * either doing nothing (SPIM SS straight out), or to switch the demux
 162:.\Generated_Source\PSoC5/ETH.c **** 	 * component to select the correct output for the SS routing.  This
 163:.\Generated_Source\PSoC5/ETH.c **** 	 * should probably not drive a pin directly since there is no return
 164:.\Generated_Source\PSoC5/ETH.c **** 	 * call from the driver that would allow an enable/disable type of
 165:.\Generated_Source\PSoC5/ETH.c **** 	 * implementation for CSN control.
 166:.\Generated_Source\PSoC5/ETH.c **** 	 */
 167:.\Generated_Source\PSoC5/ETH.c **** 	CSN_Write( ~(1<<0) );
  82              		.loc 1 167 0
  83 0004 4FF0FE00 		mov	r0, #254
  84 0008 FFF7FEFF 		bl	CSN_Write
 168:.\Generated_Source\PSoC5/ETH.c **** 	/* `#START CHIP_SELECT_GENERATION` */
 169:.\Generated_Source\PSoC5/ETH.c **** 
 170:.\Generated_Source\PSoC5/ETH.c **** 	/* `#END` */
 171:.\Generated_Source\PSoC5/ETH.c **** }
  85              		.loc 1 171 0
  86 000c 80BD     		pop	{r7, pc}
  87              		.cfi_endproc
  88              	.LFE0:
  89              		.size	ETH_ChipSelect, .-ETH_ChipSelect
  90 000e 00BF     		.section	.text.ETH_ChipDeSelect,"ax",%progbits
  91              		.align	2
  92              		.global	ETH_ChipDeSelect
  93              		.thumb
  94              		.thumb_func
  95              		.type	ETH_ChipDeSelect, %function
  96              	ETH_ChipDeSelect:
  97              	.LFB1:
 172:.\Generated_Source\PSoC5/ETH.c **** /* ------------------------------------------------------------------------ */
 173:.\Generated_Source\PSoC5/ETH.c **** /**
 174:.\Generated_Source\PSoC5/ETH.c ****  * \brief Called at the end of a transfer to deselect the device
 175:.\Generated_Source\PSoC5/ETH.c ****  *
 176:.\Generated_Source\PSoC5/ETH.c ****  * This function is called by the chip access functions from the core
 177:.\Generated_Source\PSoC5/ETH.c ****  * interface code to de-select the device after the read/write operation
 178:.\Generated_Source\PSoC5/ETH.c ****  * has been completed. This was changed from the "old way" of doing things
 179:.\Generated_Source\PSoC5/ETH.c ****  * using the hardware SS pin because the FIFO will empty too quickly
 180:.\Generated_Source\PSoC5/ETH.c ****  * causing interruptions in the transfer during burst writes at high
 181:.\Generated_Source\PSoC5/ETH.c ****  * speed. This allows bursting without having to have a huge software
 182:.\Generated_Source\PSoC5/ETH.c ****  * FIFO and using DMA to keep the buffer loaded.
 183:.\Generated_Source\PSoC5/ETH.c ****  */
 184:.\Generated_Source\PSoC5/ETH.c **** void
 185:.\Generated_Source\PSoC5/ETH.c **** ETH_ChipDeSelect( void )
 186:.\Generated_Source\PSoC5/ETH.c **** {
  98              		.loc 1 186 0
  99              		.cfi_startproc
ARM GAS  C:\Users\CHUCK~1.ERH\AppData\Local\Temp\ccWRPeSc.s 			page 6


 100              		@ args = 0, pretend = 0, frame = 0
 101              		@ frame_needed = 1, uses_anonymous_args = 0
 102 0000 80B5     		push	{r7, lr}
 103              	.LCFI2:
 104              		.cfi_def_cfa_offset 8
 105              		.cfi_offset 7, -8
 106              		.cfi_offset 14, -4
 107 0002 00AF     		add	r7, sp, #0
 108              	.LCFI3:
 109              		.cfi_def_cfa_register 7
 187:.\Generated_Source\PSoC5/ETH.c **** 	/* V1.1: Wait for SPI operation to complete */
 188:.\Generated_Source\PSoC5/ETH.c **** 	while( ETH_SpiDone == 0) {
 110              		.loc 1 188 0
 111 0004 03E0     		b	.L3
 112              	.L4:
 189:.\Generated_Source\PSoC5/ETH.c **** 		CyDelayUs(1);
 113              		.loc 1 189 0
 114 0006 4FF00100 		mov	r0, #1
 115 000a FFF7FEFF 		bl	CyDelayUs
 116              	.L3:
 188:.\Generated_Source\PSoC5/ETH.c **** 	while( ETH_SpiDone == 0) {
 117              		.loc 1 188 0 discriminator 1
 118 000e FFF7FEFF 		bl	SPI_ReadTxStatus
 119 0012 0346     		mov	r3, r0
 120 0014 03F01103 		and	r3, r3, #17
 121 0018 002B     		cmp	r3, #0
 122 001a F4D0     		beq	.L4
 190:.\Generated_Source\PSoC5/ETH.c **** 	}
 191:.\Generated_Source\PSoC5/ETH.c **** 	CSN_Write(0xFF);
 123              		.loc 1 191 0
 124 001c 4FF0FF00 		mov	r0, #255
 125 0020 FFF7FEFF 		bl	CSN_Write
 192:.\Generated_Source\PSoC5/ETH.c **** }
 126              		.loc 1 192 0
 127 0024 80BD     		pop	{r7, pc}
 128              		.cfi_endproc
 129              	.LFE1:
 130              		.size	ETH_ChipDeSelect, .-ETH_ChipDeSelect
 131 0026 00BF     		.section	.text.ETH_ChipWrite,"ax",%progbits
 132              		.align	2
 133              		.global	ETH_ChipWrite
 134              		.thumb
 135              		.thumb_func
 136              		.type	ETH_ChipWrite, %function
 137              	ETH_ChipWrite:
 138              	.LFB2:
 193:.\Generated_Source\PSoC5/ETH.c **** 
 194:.\Generated_Source\PSoC5/ETH.c **** /* ======================================================================== */
 195:.\Generated_Source\PSoC5/ETH.c **** /* Generic SPI Functions */
 196:.\Generated_Source\PSoC5/ETH.c **** /*
 197:.\Generated_Source\PSoC5/ETH.c ****  * NOTE: when using the SPIM, there must be a buffer length of at least 4
 198:.\Generated_Source\PSoC5/ETH.c ****  * bytes to allow the transfer/receive cycle for each read/write operation
 199:.\Generated_Source\PSoC5/ETH.c ****  * to be contained within the FIFO buffer.
 200:.\Generated_Source\PSoC5/ETH.c ****  */
 201:.\Generated_Source\PSoC5/ETH.c **** #if !defined(CY_SCB_SPI_H)
 202:.\Generated_Source\PSoC5/ETH.c **** 	/* SPIM Code */
 203:.\Generated_Source\PSoC5/ETH.c **** /* ------------------------------------------------------------------------ */
ARM GAS  C:\Users\CHUCK~1.ERH\AppData\Local\Temp\ccWRPeSc.s 			page 7


 204:.\Generated_Source\PSoC5/ETH.c **** /**
 205:.\Generated_Source\PSoC5/ETH.c ****  * \brief write Data to the W5100 at the specified address
 206:.\Generated_Source\PSoC5/ETH.c ****  * \param addr Address of register or memory buffer
 207:.\Generated_Source\PSoC5/ETH.c ****  * \param dat Data to write to the device
 208:.\Generated_Source\PSoC5/ETH.c ****  *
 209:.\Generated_Source\PSoC5/ETH.c ****  * This function will send the WRITE opcode, address and data to the W5100
 210:.\Generated_Source\PSoC5/ETH.c ****  * in order to write the data to the specified register.
 211:.\Generated_Source\PSoC5/ETH.c ****  */
 212:.\Generated_Source\PSoC5/ETH.c **** void 
 213:.\Generated_Source\PSoC5/ETH.c **** ETH_ChipWrite(uint32 addr, uint8 *dat, uint16 length)
 214:.\Generated_Source\PSoC5/ETH.c **** {
 139              		.loc 1 214 0
 140              		.cfi_startproc
 141              		@ args = 0, pretend = 0, frame = 24
 142              		@ frame_needed = 1, uses_anonymous_args = 0
 143 0000 80B5     		push	{r7, lr}
 144              	.LCFI4:
 145              		.cfi_def_cfa_offset 8
 146              		.cfi_offset 7, -8
 147              		.cfi_offset 14, -4
 148 0002 86B0     		sub	sp, sp, #24
 149              	.LCFI5:
 150              		.cfi_def_cfa_offset 32
 151 0004 00AF     		add	r7, sp, #0
 152              	.LCFI6:
 153              		.cfi_def_cfa_register 7
 154 0006 F860     		str	r0, [r7, #12]
 155 0008 B960     		str	r1, [r7, #8]
 156 000a 1346     		mov	r3, r2
 157 000c FB80     		strh	r3, [r7, #6]	@ movhi
 215:.\Generated_Source\PSoC5/ETH.c **** 	uint16 txLen;
 216:.\Generated_Source\PSoC5/ETH.c **** 	uint16 txCount;
 217:.\Generated_Source\PSoC5/ETH.c **** 	uint16 adr;
 218:.\Generated_Source\PSoC5/ETH.c **** 	uint8 crit;
 219:.\Generated_Source\PSoC5/ETH.c **** 	/* V2.0 W5500 block select bits, stripped from the upper 16 bits of the address */
 220:.\Generated_Source\PSoC5/ETH.c **** 	uint8 bsb;
 221:.\Generated_Source\PSoC5/ETH.c **** 	
 222:.\Generated_Source\PSoC5/ETH.c **** 	/* V1.1: Wait for SPI operation to complete */
 223:.\Generated_Source\PSoC5/ETH.c **** 	while( ETH_SpiDone == 0) {
 158              		.loc 1 223 0
 159 000e 03E0     		b	.L6
 160              	.L7:
 224:.\Generated_Source\PSoC5/ETH.c **** 		CyDelayUs(1);
 161              		.loc 1 224 0
 162 0010 4FF00100 		mov	r0, #1
 163 0014 FFF7FEFF 		bl	CyDelayUs
 164              	.L6:
 223:.\Generated_Source\PSoC5/ETH.c **** 	while( ETH_SpiDone == 0) {
 165              		.loc 1 223 0 discriminator 1
 166 0018 FFF7FEFF 		bl	SPI_ReadTxStatus
 167 001c 0346     		mov	r3, r0
 168 001e 03F01103 		and	r3, r3, #17
 169 0022 002B     		cmp	r3, #0
 170 0024 F4D0     		beq	.L7
 225:.\Generated_Source\PSoC5/ETH.c **** 	}
 226:.\Generated_Source\PSoC5/ETH.c **** 	/* V1.1: End change */
 227:.\Generated_Source\PSoC5/ETH.c **** 	
ARM GAS  C:\Users\CHUCK~1.ERH\AppData\Local\Temp\ccWRPeSc.s 			page 8


 228:.\Generated_Source\PSoC5/ETH.c **** 	crit = CyEnterCriticalSection();
 171              		.loc 1 228 0
 172 0026 FFF7FEFF 		bl	CyEnterCriticalSection
 173 002a 0346     		mov	r3, r0
 174 002c 3B74     		strb	r3, [r7, #16]
 229:.\Generated_Source\PSoC5/ETH.c **** 	
 230:.\Generated_Source\PSoC5/ETH.c **** 	adr = (addr&0x0000FFFF);
 175              		.loc 1 230 0
 176 002e FB68     		ldr	r3, [r7, #12]
 177 0030 7B82     		strh	r3, [r7, #18]	@ movhi
 231:.\Generated_Source\PSoC5/ETH.c **** 	bsb = (addr>>16)&0x001F; /* remove the block-select bits from the address */
 178              		.loc 1 231 0
 179 0032 FB68     		ldr	r3, [r7, #12]
 180 0034 4FEA1343 		lsr	r3, r3, #16
 181 0038 DBB2     		uxtb	r3, r3
 182 003a 03F01F03 		and	r3, r3, #31
 183 003e 7B74     		strb	r3, [r7, #17]
 232:.\Generated_Source\PSoC5/ETH.c **** 	
 233:.\Generated_Source\PSoC5/ETH.c **** 	txLen = 0;
 184              		.loc 1 233 0
 185 0040 4FF00003 		mov	r3, #0
 186 0044 FB82     		strh	r3, [r7, #22]	@ movhi
 234:.\Generated_Source\PSoC5/ETH.c **** 	txCount = 0;
 187              		.loc 1 234 0
 188 0046 4FF00003 		mov	r3, #0
 189 004a BB82     		strh	r3, [r7, #20]	@ movhi
 190              	.L12:
 235:.\Generated_Source\PSoC5/ETH.c **** 	do {
 236:.\Generated_Source\PSoC5/ETH.c **** 		/* Using internal device SS generation */
 237:.\Generated_Source\PSoC5/ETH.c **** 		ETH_ChipSelect();
 191              		.loc 1 237 0
 192 004c FFF7FEFF 		bl	ETH_ChipSelect
 238:.\Generated_Source\PSoC5/ETH.c **** 		/*
 239:.\Generated_Source\PSoC5/ETH.c **** 		 * The first thing to do is to clear the Rx Buffer of any lingering
 240:.\Generated_Source\PSoC5/ETH.c **** 		 * data left from other transfers.  Then send the data per the W5100
 241:.\Generated_Source\PSoC5/ETH.c **** 		 * datasheet p.62
 242:.\Generated_Source\PSoC5/ETH.c **** 		 */
 243:.\Generated_Source\PSoC5/ETH.c **** 		SPI_ClearRxBuffer();
 193              		.loc 1 243 0
 194 0050 FFF7FEFF 		bl	SPI_ClearRxBuffer
 244:.\Generated_Source\PSoC5/ETH.c **** 		/* Begin transfer of data to device */
 245:.\Generated_Source\PSoC5/ETH.c **** #if (5 == 1)
 246:.\Generated_Source\PSoC5/ETH.c **** 		/*
 247:.\Generated_Source\PSoC5/ETH.c **** 	     * The W5100 uses an opcode followed by the register/buffer
 248:.\Generated_Source\PSoC5/ETH.c **** 	     * address for each data element transfered.
 249:.\Generated_Source\PSoC5/ETH.c **** 	     */
 250:.\Generated_Source\PSoC5/ETH.c **** 		txLen = 1;
 251:.\Generated_Source\PSoC5/ETH.c **** 		SPI_WriteTxData(ETH_WRITE_OP);
 252:.\Generated_Source\PSoC5/ETH.c **** 		SPI_WriteTxData((adr>>8)&0x00FF);
 253:.\Generated_Source\PSoC5/ETH.c **** 		SPI_WriteTxData(adr&0x00FF);
 254:.\Generated_Source\PSoC5/ETH.c **** #elif (5 == 2)
 255:.\Generated_Source\PSoC5/ETH.c **** 	    /*
 256:.\Generated_Source\PSoC5/ETH.c **** 	     * The Header block for the W5200 uses the address, plus
 257:.\Generated_Source\PSoC5/ETH.c **** 	     * a length word which contains a read/write bit.  Setting
 258:.\Generated_Source\PSoC5/ETH.c **** 	     * the bit to a 1 (0x80) will enable write mode
 259:.\Generated_Source\PSoC5/ETH.c **** 	     */
 260:.\Generated_Source\PSoC5/ETH.c **** 		txLen = (length > ETH_BURST_MAX)? ETH_BURST_MAX : length;
ARM GAS  C:\Users\CHUCK~1.ERH\AppData\Local\Temp\ccWRPeSc.s 			page 9


 261:.\Generated_Source\PSoC5/ETH.c **** 		SPI_WriteTxData( (adr>>8) & 0x00FF);
 262:.\Generated_Source\PSoC5/ETH.c **** 		SPI_WriteTxData( adr & 0x00FF );
 263:.\Generated_Source\PSoC5/ETH.c **** 		SPI_WriteTxData( 0x80 | ((txLen>>8)&0x007F) );
 264:.\Generated_Source\PSoC5/ETH.c **** 		SPI_WriteTxData( txLen & 0x00FF );
 265:.\Generated_Source\PSoC5/ETH.c **** #elif (5 == 5)
 266:.\Generated_Source\PSoC5/ETH.c **** 		/*
 267:.\Generated_Source\PSoC5/ETH.c **** 	 	 * Build the header block for the W5500, using the length to
 268:.\Generated_Source\PSoC5/ETH.c **** 	     * added the command length (1, 2, 4 or n) to the set.
 269:.\Generated_Source\PSoC5/ETH.c **** 		 */
 270:.\Generated_Source\PSoC5/ETH.c **** 		txLen = length; /* default to the length, since there is N-length data */
 195              		.loc 1 270 0
 196 0054 FB88     		ldrh	r3, [r7, #6]	@ movhi
 197 0056 FB82     		strh	r3, [r7, #22]	@ movhi
 271:.\Generated_Source\PSoC5/ETH.c **** 		/* 
 272:.\Generated_Source\PSoC5/ETH.c **** 	     * configure the BSB byte to contain the write bit set.
 273:.\Generated_Source\PSoC5/ETH.c **** 	     * note/todo : enable SPi-less usage and fixed mode transfer data for
 274:.\Generated_Source\PSoC5/ETH.c **** 	     * the use without having SPI.
 275:.\Generated_Source\PSoC5/ETH.c **** 	     */
 276:.\Generated_Source\PSoC5/ETH.c **** 		bsb = (bsb << 3) | 4;
 198              		.loc 1 276 0
 199 0058 7B7C     		ldrb	r3, [r7, #17]	@ zero_extendqisi2
 200 005a 4FEAC303 		lsl	r3, r3, #3
 201 005e DBB2     		uxtb	r3, r3
 202 0060 43F00403 		orr	r3, r3, #4
 203 0064 DBB2     		uxtb	r3, r3
 204 0066 7B74     		strb	r3, [r7, #17]
 277:.\Generated_Source\PSoC5/ETH.c **** 		
 278:.\Generated_Source\PSoC5/ETH.c **** 		SPI_WriteTxData( (adr>>8) & 0x00FF);
 205              		.loc 1 278 0
 206 0068 7B8A     		ldrh	r3, [r7, #18]
 207 006a 4FEA1323 		lsr	r3, r3, #8
 208 006e 9BB2     		uxth	r3, r3
 209 0070 DBB2     		uxtb	r3, r3
 210 0072 1846     		mov	r0, r3
 211 0074 FFF7FEFF 		bl	SPI_WriteTxData
 279:.\Generated_Source\PSoC5/ETH.c **** 		SPI_WriteTxData( adr & 0x00FF );
 212              		.loc 1 279 0
 213 0078 7B8A     		ldrh	r3, [r7, #18]	@ movhi
 214 007a DBB2     		uxtb	r3, r3
 215 007c 1846     		mov	r0, r3
 216 007e FFF7FEFF 		bl	SPI_WriteTxData
 280:.\Generated_Source\PSoC5/ETH.c **** 		SPI_WriteTxData( bsb );
 217              		.loc 1 280 0
 218 0082 7B7C     		ldrb	r3, [r7, #17]	@ zero_extendqisi2
 219 0084 1846     		mov	r0, r3
 220 0086 FFF7FEFF 		bl	SPI_WriteTxData
 221              	.L13:
 281:.\Generated_Source\PSoC5/ETH.c **** 		
 282:.\Generated_Source\PSoC5/ETH.c **** #endif
 283:.\Generated_Source\PSoC5/ETH.c **** 		/*
 284:.\Generated_Source\PSoC5/ETH.c ****          * send the sequence of bytes to the device following the 
 285:.\Generated_Source\PSoC5/ETH.c ****          * header data transfer.  This will wait for the FIFO to  have
 286:.\Generated_Source\PSoC5/ETH.c ****          * available memory prior to writing the data to the part.
 287:.\Generated_Source\PSoC5/ETH.c ****          * at the end of the block the loop exits and ends the operation
 288:.\Generated_Source\PSoC5/ETH.c ****          * by setting the chip select high.
 289:.\Generated_Source\PSoC5/ETH.c ****          */
 290:.\Generated_Source\PSoC5/ETH.c **** 		// Transmit data block
ARM GAS  C:\Users\CHUCK~1.ERH\AppData\Local\Temp\ccWRPeSc.s 			page 10


 291:.\Generated_Source\PSoC5/ETH.c **** 		do {
 292:.\Generated_Source\PSoC5/ETH.c **** 			while ( (SPI_ReadTxStatus() & SPI_STS_TX_FIFO_NOT_FULL) == 0);
 222              		.loc 1 292 0
 223 008a 00BF     		nop
 224              	.L8:
 225              		.loc 1 292 0 is_stmt 0 discriminator 1
 226 008c FFF7FEFF 		bl	SPI_ReadTxStatus
 227 0090 0346     		mov	r3, r0
 228 0092 03F00403 		and	r3, r3, #4
 229 0096 002B     		cmp	r3, #0
 230 0098 F8D0     		beq	.L8
 293:.\Generated_Source\PSoC5/ETH.c **** 			SPI_WriteTxData(dat[txCount++]);
 231              		.loc 1 293 0 is_stmt 1
 232 009a BB8A     		ldrh	r3, [r7, #20]
 233 009c BA68     		ldr	r2, [r7, #8]
 234 009e D318     		adds	r3, r2, r3
 235 00a0 1B78     		ldrb	r3, [r3, #0]	@ zero_extendqisi2
 236 00a2 BA8A     		ldrh	r2, [r7, #20]	@ movhi
 237 00a4 02F10102 		add	r2, r2, #1
 238 00a8 BA82     		strh	r2, [r7, #20]	@ movhi
 239 00aa 1846     		mov	r0, r3
 240 00ac FFF7FEFF 		bl	SPI_WriteTxData
 294:.\Generated_Source\PSoC5/ETH.c **** 			--length;
 241              		.loc 1 294 0
 242 00b0 FB88     		ldrh	r3, [r7, #6]	@ movhi
 243 00b2 03F1FF33 		add	r3, r3, #-1
 244 00b6 FB80     		strh	r3, [r7, #6]	@ movhi
 295:.\Generated_Source\PSoC5/ETH.c **** 			--txLen;
 245              		.loc 1 295 0
 246 00b8 FB8A     		ldrh	r3, [r7, #22]	@ movhi
 247 00ba 03F1FF33 		add	r3, r3, #-1
 248 00be FB82     		strh	r3, [r7, #22]	@ movhi
 296:.\Generated_Source\PSoC5/ETH.c **** 			++adr;
 249              		.loc 1 296 0
 250 00c0 7B8A     		ldrh	r3, [r7, #18]	@ movhi
 251 00c2 03F10103 		add	r3, r3, #1
 252 00c6 7B82     		strh	r3, [r7, #18]	@ movhi
 297:.\Generated_Source\PSoC5/ETH.c **** 		} while ( txLen > 0 );
 253              		.loc 1 297 0
 254 00c8 FB8A     		ldrh	r3, [r7, #22]
 255 00ca 002B     		cmp	r3, #0
 256 00cc DDD1     		bne	.L13
 298:.\Generated_Source\PSoC5/ETH.c **** 
 299:.\Generated_Source\PSoC5/ETH.c **** 		while( ETH_SpiDone == 0) {
 257              		.loc 1 299 0
 258 00ce 03E0     		b	.L10
 259              	.L11:
 300:.\Generated_Source\PSoC5/ETH.c **** 			CyDelayUs(1);
 260              		.loc 1 300 0
 261 00d0 4FF00100 		mov	r0, #1
 262 00d4 FFF7FEFF 		bl	CyDelayUs
 263              	.L10:
 299:.\Generated_Source\PSoC5/ETH.c **** 		while( ETH_SpiDone == 0) {
 264              		.loc 1 299 0 discriminator 1
 265 00d8 FFF7FEFF 		bl	SPI_ReadTxStatus
 266 00dc 0346     		mov	r3, r0
 267 00de 03F01103 		and	r3, r3, #17
ARM GAS  C:\Users\CHUCK~1.ERH\AppData\Local\Temp\ccWRPeSc.s 			page 11


 268 00e2 002B     		cmp	r3, #0
 269 00e4 F4D0     		beq	.L11
 301:.\Generated_Source\PSoC5/ETH.c **** 		}
 302:.\Generated_Source\PSoC5/ETH.c **** 		// End operation
 303:.\Generated_Source\PSoC5/ETH.c **** 		ETH_ChipDeSelect();
 270              		.loc 1 303 0
 271 00e6 FFF7FEFF 		bl	ETH_ChipDeSelect
 304:.\Generated_Source\PSoC5/ETH.c **** 	} while (length > 0);
 272              		.loc 1 304 0
 273 00ea FB88     		ldrh	r3, [r7, #6]
 274 00ec 002B     		cmp	r3, #0
 275 00ee ADD1     		bne	.L12
 305:.\Generated_Source\PSoC5/ETH.c **** 	
 306:.\Generated_Source\PSoC5/ETH.c **** 	CyExitCriticalSection( crit );
 276              		.loc 1 306 0
 277 00f0 3B7C     		ldrb	r3, [r7, #16]	@ zero_extendqisi2
 278 00f2 1846     		mov	r0, r3
 279 00f4 FFF7FEFF 		bl	CyExitCriticalSection
 307:.\Generated_Source\PSoC5/ETH.c **** }
 280              		.loc 1 307 0
 281 00f8 07F11807 		add	r7, r7, #24
 282 00fc BD46     		mov	sp, r7
 283 00fe 80BD     		pop	{r7, pc}
 284              		.cfi_endproc
 285              	.LFE2:
 286              		.size	ETH_ChipWrite, .-ETH_ChipWrite
 287              		.section	.text.ETH_ChipRead,"ax",%progbits
 288              		.align	2
 289              		.global	ETH_ChipRead
 290              		.thumb
 291              		.thumb_func
 292              		.type	ETH_ChipRead, %function
 293              	ETH_ChipRead:
 294              	.LFB3:
 308:.\Generated_Source\PSoC5/ETH.c **** 
 309:.\Generated_Source\PSoC5/ETH.c **** /* ------------------------------------------------------------------------ */
 310:.\Generated_Source\PSoC5/ETH.c **** /**
 311:.\Generated_Source\PSoC5/ETH.c ****  * \brief Read data from the W5100 at the spsecified address
 312:.\Generated_Source\PSoC5/ETH.c ****  * \param addr Address from which to read
 313:.\Generated_Source\PSoC5/ETH.c ****  * \returns the data read from the address
 314:.\Generated_Source\PSoC5/ETH.c ****  *
 315:.\Generated_Source\PSoC5/ETH.c ****  * this fucntion will access a W5100 memory location and read the contents
 316:.\Generated_Source\PSoC5/ETH.c ****  * using the serial protocol specified on P.61 of the datasheet.
 317:.\Generated_Source\PSoC5/ETH.c ****  */
 318:.\Generated_Source\PSoC5/ETH.c **** void
 319:.\Generated_Source\PSoC5/ETH.c **** ETH_ChipRead(uint32 addr, uint8 *dat, uint16 length)
 320:.\Generated_Source\PSoC5/ETH.c **** {
 295              		.loc 1 320 0
 296              		.cfi_startproc
 297              		@ args = 0, pretend = 0, frame = 32
 298              		@ frame_needed = 1, uses_anonymous_args = 0
 299 0000 80B5     		push	{r7, lr}
 300              	.LCFI7:
 301              		.cfi_def_cfa_offset 8
 302              		.cfi_offset 7, -8
 303              		.cfi_offset 14, -4
 304 0002 88B0     		sub	sp, sp, #32
ARM GAS  C:\Users\CHUCK~1.ERH\AppData\Local\Temp\ccWRPeSc.s 			page 12


 305              	.LCFI8:
 306              		.cfi_def_cfa_offset 40
 307 0004 00AF     		add	r7, sp, #0
 308              	.LCFI9:
 309              		.cfi_def_cfa_register 7
 310 0006 F860     		str	r0, [r7, #12]
 311 0008 B960     		str	r1, [r7, #8]
 312 000a 1346     		mov	r3, r2
 313 000c FB80     		strh	r3, [r7, #6]	@ movhi
 321:.\Generated_Source\PSoC5/ETH.c **** 	uint16 rxIndex; /* the data index in to the receive buffer */
 322:.\Generated_Source\PSoC5/ETH.c **** 	uint16 address; /* the current chip address */
 323:.\Generated_Source\PSoC5/ETH.c **** 	uint16 rxLen;   /* the number of bytes to read durning the burst */
 324:.\Generated_Source\PSoC5/ETH.c **** 	uint16 txBytes; /* the number of dummy bytes send during th read */
 325:.\Generated_Source\PSoC5/ETH.c **** 	uint8 dump;     /* the number of bytes to ignore from the data stream readback */
 326:.\Generated_Source\PSoC5/ETH.c **** 	uint16 rxCount; /* the number of bytes read from the chip */
 327:.\Generated_Source\PSoC5/ETH.c **** 	uint8 rxb;      /* the byte within the SPI buffer read from the chip */
 328:.\Generated_Source\PSoC5/ETH.c **** 	/* V2.0 W5500 block select bits, stripped from the upper 16 bits of the address */
 329:.\Generated_Source\PSoC5/ETH.c **** 	uint8 bsb;
 330:.\Generated_Source\PSoC5/ETH.c **** 	
 331:.\Generated_Source\PSoC5/ETH.c **** 	/* V1.1: Wait for SPI operation to complete */
 332:.\Generated_Source\PSoC5/ETH.c **** 	while( ETH_SpiDone == 0) {
 314              		.loc 1 332 0
 315 000e 03E0     		b	.L15
 316              	.L16:
 333:.\Generated_Source\PSoC5/ETH.c **** 		CyDelayUs(1);
 317              		.loc 1 333 0
 318 0010 4FF00100 		mov	r0, #1
 319 0014 FFF7FEFF 		bl	CyDelayUs
 320              	.L15:
 332:.\Generated_Source\PSoC5/ETH.c **** 	while( ETH_SpiDone == 0) {
 321              		.loc 1 332 0 discriminator 1
 322 0018 FFF7FEFF 		bl	SPI_ReadTxStatus
 323 001c 0346     		mov	r3, r0
 324 001e 03F01103 		and	r3, r3, #17
 325 0022 002B     		cmp	r3, #0
 326 0024 F4D0     		beq	.L16
 334:.\Generated_Source\PSoC5/ETH.c **** 	}
 335:.\Generated_Source\PSoC5/ETH.c **** 	/* V1.1: End change */
 336:.\Generated_Source\PSoC5/ETH.c **** 
 337:.\Generated_Source\PSoC5/ETH.c **** 	address = (addr & 0x0000FFFF); // assign base pointer address
 327              		.loc 1 337 0
 328 0026 FB68     		ldr	r3, [r7, #12]
 329 0028 BB83     		strh	r3, [r7, #28]	@ movhi
 338:.\Generated_Source\PSoC5/ETH.c **** 	bsb = (addr>>16)&0x001F; /* remove the block-select bits from the address */
 330              		.loc 1 338 0
 331 002a FB68     		ldr	r3, [r7, #12]
 332 002c 4FEA1343 		lsr	r3, r3, #16
 333 0030 DBB2     		uxtb	r3, r3
 334 0032 03F01F03 		and	r3, r3, #31
 335 0036 7B75     		strb	r3, [r7, #21]
 339:.\Generated_Source\PSoC5/ETH.c **** 	rxIndex = 0;    // default the starting index for the receive to zero
 336              		.loc 1 339 0
 337 0038 4FF00003 		mov	r3, #0
 338 003c FB83     		strh	r3, [r7, #30]	@ movhi
 339              	.L22:
 340:.\Generated_Source\PSoC5/ETH.c **** 	
 341:.\Generated_Source\PSoC5/ETH.c **** 	do {
ARM GAS  C:\Users\CHUCK~1.ERH\AppData\Local\Temp\ccWRPeSc.s 			page 13


 342:.\Generated_Source\PSoC5/ETH.c **** 		/* Write the chip select instance to select the device */
 343:.\Generated_Source\PSoC5/ETH.c **** 		ETH_ChipSelect();
 340              		.loc 1 343 0
 341 003e FFF7FEFF 		bl	ETH_ChipSelect
 344:.\Generated_Source\PSoC5/ETH.c **** 		/*
 345:.\Generated_Source\PSoC5/ETH.c **** 		 * First, clear the Rx Buffer of any waiting data.  Then begin the
 346:.\Generated_Source\PSoC5/ETH.c **** 		 * read operation by sending the op code, followed byte the address
 347:.\Generated_Source\PSoC5/ETH.c **** 		 * from which the read will be executed, then send a dummy byte
 348:.\Generated_Source\PSoC5/ETH.c **** 		 * of zeros to read the data from the device.
 349:.\Generated_Source\PSoC5/ETH.c **** 		 */
 350:.\Generated_Source\PSoC5/ETH.c **** 		SPI_ClearRxBuffer();
 342              		.loc 1 350 0
 343 0042 FFF7FEFF 		bl	SPI_ClearRxBuffer
 351:.\Generated_Source\PSoC5/ETH.c **** 		/* Send the device header */
 352:.\Generated_Source\PSoC5/ETH.c **** 		rxCount = 0; // initialize the bytes received to none
 344              		.loc 1 352 0
 345 0046 4FF00003 		mov	r3, #0
 346 004a FB82     		strh	r3, [r7, #22]	@ movhi
 353:.\Generated_Source\PSoC5/ETH.c **** #if (5 == 1 )
 354:.\Generated_Source\PSoC5/ETH.c **** 		/*
 355:.\Generated_Source\PSoC5/ETH.c **** 		 * W1100 interface code
 356:.\Generated_Source\PSoC5/ETH.c **** 		 * --------------------
 357:.\Generated_Source\PSoC5/ETH.c **** 		 * The W5100 only supports 1 byte transfers (no burst mode), so
 358:.\Generated_Source\PSoC5/ETH.c **** 		 * peg the receive length as 1 byte, and issue a number of commands
 359:.\Generated_Source\PSoC5/ETH.c **** 		 * in sequence to simulate a burst read.
 360:.\Generated_Source\PSoC5/ETH.c **** 		 */
 361:.\Generated_Source\PSoC5/ETH.c **** 		rxLen = 1;  // The W5100 is limited to 1 byte of data transmitted
 362:.\Generated_Source\PSoC5/ETH.c **** 		dump = 3;   // The W5100 has a 3-byte packet header
 363:.\Generated_Source\PSoC5/ETH.c **** 		txBytes = 0; // Send only one byte afte rthe header then end the transfer
 364:.\Generated_Source\PSoC5/ETH.c **** 		SPI_WriteTxData(ETH_READ_OP);
 365:.\Generated_Source\PSoC5/ETH.c **** 		SPI_WriteTxData(address>>8);
 366:.\Generated_Source\PSoC5/ETH.c **** 		SPI_WriteTxData(address&0x00FF);
 367:.\Generated_Source\PSoC5/ETH.c **** 		
 368:.\Generated_Source\PSoC5/ETH.c **** #elif (5 == 2)
 369:.\Generated_Source\PSoC5/ETH.c **** 		/*
 370:.\Generated_Source\PSoC5/ETH.c **** 		 * W5200 Interface Header
 371:.\Generated_Source\PSoC5/ETH.c **** 		 * ----------------------
 372:.\Generated_Source\PSoC5/ETH.c **** 		 * The W5200 protocol expects an address followed by a read
 373:.\Generated_Source\PSoC5/ETH.c **** 		 * byte count for the header of the protocol, so, this will
 374:.\Generated_Source\PSoC5/ETH.c **** 		 * issue reads up to the max burst length
 375:.\Generated_Source\PSoC5/ETH.c **** 		 */
 376:.\Generated_Source\PSoC5/ETH.c **** 		dump = 4; /*  The W5200 has a definded data length and a header of 4 bytes */
 377:.\Generated_Source\PSoC5/ETH.c **** 		rxLen = (length < ETH_BURST_MAX) ? length : ETH_BURST_MAX;
 378:.\Generated_Source\PSoC5/ETH.c **** 		/* 
 379:.\Generated_Source\PSoC5/ETH.c **** 		 * Set the number of bytes to transmit before
 380:.\Generated_Source\PSoC5/ETH.c **** 		 * ending the packet to the calculated value
 381:.\Generated_Source\PSoC5/ETH.c **** 		 */
 382:.\Generated_Source\PSoC5/ETH.c **** 		txBytes = 0; 
 383:.\Generated_Source\PSoC5/ETH.c **** 		/* Send the packet header */
 384:.\Generated_Source\PSoC5/ETH.c **** 		SPI_WriteTxData( address>>8);
 385:.\Generated_Source\PSoC5/ETH.c **** 		SPI_WriteTxData( address & 0x00FF );
 386:.\Generated_Source\PSoC5/ETH.c **** 		SPI_WriteTxData( 0x7F & (rxLen>>8) );
 387:.\Generated_Source\PSoC5/ETH.c **** 		SPI_WriteTxData( rxLen&0x00FF );
 388:.\Generated_Source\PSoC5/ETH.c **** #elif (5 == 5)
 389:.\Generated_Source\PSoC5/ETH.c **** 		/*
 390:.\Generated_Source\PSoC5/ETH.c **** 	     * W5500 Interface Header
 391:.\Generated_Source\PSoC5/ETH.c **** 	     * -----------------------
ARM GAS  C:\Users\CHUCK~1.ERH\AppData\Local\Temp\ccWRPeSc.s 			page 14


 392:.\Generated_Source\PSoC5/ETH.c **** 	     * the W5500 header uses an address, fllowed by a command byte
 393:.\Generated_Source\PSoC5/ETH.c **** 		 * that included a block select (bank) for selecting the registers
 394:.\Generated_Source\PSoC5/ETH.c **** 	     * using the address as an offset.  following the BSB byte is
 395:.\Generated_Source\PSoC5/ETH.c **** 	     * the data read/write phase.  This section generates the custom
 396:.\Generated_Source\PSoC5/ETH.c **** 	     * W5500 header for reading data from the device.
 397:.\Generated_Source\PSoC5/ETH.c **** 	     */
 398:.\Generated_Source\PSoC5/ETH.c **** 		dump = 3; /*  The W5500 has a definded data length and a header of 3 bytes */
 347              		.loc 1 398 0
 348 004c 4FF00303 		mov	r3, #3
 349 0050 7B76     		strb	r3, [r7, #25]
 399:.\Generated_Source\PSoC5/ETH.c **** 		rxLen = length;
 350              		.loc 1 399 0
 351 0052 FB88     		ldrh	r3, [r7, #6]	@ movhi
 352 0054 7B82     		strh	r3, [r7, #18]	@ movhi
 400:.\Generated_Source\PSoC5/ETH.c **** 		/* 
 401:.\Generated_Source\PSoC5/ETH.c **** 		 * Set the number of bytes to transmit before
 402:.\Generated_Source\PSoC5/ETH.c **** 		 * ending the packet to the calculated value
 403:.\Generated_Source\PSoC5/ETH.c **** 		 */
 404:.\Generated_Source\PSoC5/ETH.c **** 		txBytes = 0; 
 353              		.loc 1 404 0
 354 0056 4FF00003 		mov	r3, #0
 355 005a 7B83     		strh	r3, [r7, #26]	@ movhi
 405:.\Generated_Source\PSoC5/ETH.c **** 		/* Send the packet header */
 406:.\Generated_Source\PSoC5/ETH.c **** 		SPI_WriteTxData( address>>8);
 356              		.loc 1 406 0
 357 005c BB8B     		ldrh	r3, [r7, #28]
 358 005e 4FEA1323 		lsr	r3, r3, #8
 359 0062 9BB2     		uxth	r3, r3
 360 0064 DBB2     		uxtb	r3, r3
 361 0066 1846     		mov	r0, r3
 362 0068 FFF7FEFF 		bl	SPI_WriteTxData
 407:.\Generated_Source\PSoC5/ETH.c **** 		SPI_WriteTxData( address & 0x00FF );
 363              		.loc 1 407 0
 364 006c BB8B     		ldrh	r3, [r7, #28]	@ movhi
 365 006e DBB2     		uxtb	r3, r3
 366 0070 1846     		mov	r0, r3
 367 0072 FFF7FEFF 		bl	SPI_WriteTxData
 408:.\Generated_Source\PSoC5/ETH.c **** 		SPI_WriteTxData( bsb << 3);
 368              		.loc 1 408 0
 369 0076 7B7D     		ldrb	r3, [r7, #21]
 370 0078 4FEAC303 		lsl	r3, r3, #3
 371 007c DBB2     		uxtb	r3, r3
 372 007e 1846     		mov	r0, r3
 373 0080 FFF7FEFF 		bl	SPI_WriteTxData
 409:.\Generated_Source\PSoC5/ETH.c **** #endif
 410:.\Generated_Source\PSoC5/ETH.c **** 
 411:.\Generated_Source\PSoC5/ETH.c **** 		while (rxCount < rxLen) {
 374              		.loc 1 411 0
 375 0084 34E0     		b	.L17
 376              	.L21:
 412:.\Generated_Source\PSoC5/ETH.c **** 			/*
 413:.\Generated_Source\PSoC5/ETH.c **** 			 * Since the header is clogging the buffer (and it is inefficient
 414:.\Generated_Source\PSoC5/ETH.c **** 			 * to just clear the header before executing the reads), this loop
 415:.\Generated_Source\PSoC5/ETH.c **** 			 * will transmit the data completely the header size before
 416:.\Generated_Source\PSoC5/ETH.c **** 			 * the data has been read, so, send the data when the rxLength
 417:.\Generated_Source\PSoC5/ETH.c **** 			 * is not zero.
 418:.\Generated_Source\PSoC5/ETH.c **** 			 */
ARM GAS  C:\Users\CHUCK~1.ERH\AppData\Local\Temp\ccWRPeSc.s 			page 15


 419:.\Generated_Source\PSoC5/ETH.c **** 			if (txBytes < rxLen ) {
 377              		.loc 1 419 0
 378 0086 7A8B     		ldrh	r2, [r7, #26]
 379 0088 7B8A     		ldrh	r3, [r7, #18]
 380 008a 9A42     		cmp	r2, r3
 381 008c 0FD2     		bcs	.L23
 420:.\Generated_Source\PSoC5/ETH.c **** 				SPI_WriteTxData( 0 );
 382              		.loc 1 420 0
 383 008e 4FF00000 		mov	r0, #0
 384 0092 FFF7FEFF 		bl	SPI_WriteTxData
 421:.\Generated_Source\PSoC5/ETH.c **** 				address ++;
 385              		.loc 1 421 0
 386 0096 BB8B     		ldrh	r3, [r7, #28]	@ movhi
 387 0098 03F10103 		add	r3, r3, #1
 388 009c BB83     		strh	r3, [r7, #28]	@ movhi
 422:.\Generated_Source\PSoC5/ETH.c **** 				length --;
 389              		.loc 1 422 0
 390 009e FB88     		ldrh	r3, [r7, #6]	@ movhi
 391 00a0 03F1FF33 		add	r3, r3, #-1
 392 00a4 FB80     		strh	r3, [r7, #6]	@ movhi
 423:.\Generated_Source\PSoC5/ETH.c **** 				txBytes ++;
 393              		.loc 1 423 0
 394 00a6 7B8B     		ldrh	r3, [r7, #26]	@ movhi
 395 00a8 03F10103 		add	r3, r3, #1
 396 00ac 7B83     		strh	r3, [r7, #26]	@ movhi
 397              	.L23:
 424:.\Generated_Source\PSoC5/ETH.c **** 			}
 425:.\Generated_Source\PSoC5/ETH.c **** 			/*
 426:.\Generated_Source\PSoC5/ETH.c **** 			 * Read the data from the buffer.  The header data responses
 427:.\Generated_Source\PSoC5/ETH.c **** 			 * are going to be sitting in the buffer, so dump them
 428:.\Generated_Source\PSoC5/ETH.c **** 			 * and just receive the data bock
 429:.\Generated_Source\PSoC5/ETH.c **** 			 */
 430:.\Generated_Source\PSoC5/ETH.c **** 			while ( ( SPI_ReadRxStatus()&SPI_STS_RX_FIFO_NOT_EMPTY) == 0);
 398              		.loc 1 430 0
 399 00ae 00BF     		nop
 400              	.L19:
 401              		.loc 1 430 0 is_stmt 0 discriminator 1
 402 00b0 FFF7FEFF 		bl	SPI_ReadRxStatus
 403 00b4 0346     		mov	r3, r0
 404 00b6 03F02003 		and	r3, r3, #32
 405 00ba 002B     		cmp	r3, #0
 406 00bc F8D0     		beq	.L19
 431:.\Generated_Source\PSoC5/ETH.c **** 			rxb = SPI_ReadRxData();
 407              		.loc 1 431 0 is_stmt 1
 408 00be FFF7FEFF 		bl	SPI_ReadRxData
 409 00c2 0346     		mov	r3, r0
 410 00c4 7B74     		strb	r3, [r7, #17]
 432:.\Generated_Source\PSoC5/ETH.c **** 			dat[rxIndex] = rxb;
 411              		.loc 1 432 0
 412 00c6 FB8B     		ldrh	r3, [r7, #30]
 413 00c8 BA68     		ldr	r2, [r7, #8]
 414 00ca D318     		adds	r3, r2, r3
 415 00cc 7A7C     		ldrb	r2, [r7, #17]
 416 00ce 1A70     		strb	r2, [r3, #0]
 433:.\Generated_Source\PSoC5/ETH.c **** 			if (dump > 0) {
 417              		.loc 1 433 0
 418 00d0 7B7E     		ldrb	r3, [r7, #25]	@ zero_extendqisi2
ARM GAS  C:\Users\CHUCK~1.ERH\AppData\Local\Temp\ccWRPeSc.s 			page 16


 419 00d2 002B     		cmp	r3, #0
 420 00d4 04D0     		beq	.L20
 434:.\Generated_Source\PSoC5/ETH.c **** 				--dump;
 421              		.loc 1 434 0
 422 00d6 7B7E     		ldrb	r3, [r7, #25]
 423 00d8 03F1FF33 		add	r3, r3, #-1
 424 00dc 7B76     		strb	r3, [r7, #25]
 425 00de 07E0     		b	.L17
 426              	.L20:
 435:.\Generated_Source\PSoC5/ETH.c **** 			}
 436:.\Generated_Source\PSoC5/ETH.c **** 			else {
 437:.\Generated_Source\PSoC5/ETH.c **** 				rxCount++;
 427              		.loc 1 437 0
 428 00e0 FB8A     		ldrh	r3, [r7, #22]	@ movhi
 429 00e2 03F10103 		add	r3, r3, #1
 430 00e6 FB82     		strh	r3, [r7, #22]	@ movhi
 438:.\Generated_Source\PSoC5/ETH.c **** 				rxIndex++;
 431              		.loc 1 438 0
 432 00e8 FB8B     		ldrh	r3, [r7, #30]	@ movhi
 433 00ea 03F10103 		add	r3, r3, #1
 434 00ee FB83     		strh	r3, [r7, #30]	@ movhi
 435              	.L17:
 411:.\Generated_Source\PSoC5/ETH.c **** 		while (rxCount < rxLen) {
 436              		.loc 1 411 0 discriminator 1
 437 00f0 FA8A     		ldrh	r2, [r7, #22]
 438 00f2 7B8A     		ldrh	r3, [r7, #18]
 439 00f4 9A42     		cmp	r2, r3
 440 00f6 C6D3     		bcc	.L21
 439:.\Generated_Source\PSoC5/ETH.c **** 			}
 440:.\Generated_Source\PSoC5/ETH.c **** 		}
 441:.\Generated_Source\PSoC5/ETH.c **** 		/* Turn off chip select, and set the buffer */
 442:.\Generated_Source\PSoC5/ETH.c **** 		ETH_ChipDeSelect();
 441              		.loc 1 442 0
 442 00f8 FFF7FEFF 		bl	ETH_ChipDeSelect
 443:.\Generated_Source\PSoC5/ETH.c **** 	}
 444:.\Generated_Source\PSoC5/ETH.c **** 	while ( length > 0);
 443              		.loc 1 444 0
 444 00fc FB88     		ldrh	r3, [r7, #6]
 445 00fe 002B     		cmp	r3, #0
 446 0100 9DD1     		bne	.L22
 445:.\Generated_Source\PSoC5/ETH.c **** }
 447              		.loc 1 445 0
 448 0102 07F12007 		add	r7, r7, #32
 449 0106 BD46     		mov	sp, r7
 450 0108 80BD     		pop	{r7, pc}
 451              		.cfi_endproc
 452              	.LFE3:
 453              		.size	ETH_ChipRead, .-ETH_ChipRead
 454 010a 00BF     		.section	.text.ETH_ChipWrite16,"ax",%progbits
 455              		.align	2
 456              		.global	ETH_ChipWrite16
 457              		.thumb
 458              		.thumb_func
 459              		.type	ETH_ChipWrite16, %function
 460              	ETH_ChipWrite16:
 461              	.LFB4:
 446:.\Generated_Source\PSoC5/ETH.c **** /* ======================================================================== */
ARM GAS  C:\Users\CHUCK~1.ERH\AppData\Local\Temp\ccWRPeSc.s 			page 17


 447:.\Generated_Source\PSoC5/ETH.c **** /* SCB Specific Functions */
 448:.\Generated_Source\PSoC5/ETH.c **** #else
 449:.\Generated_Source\PSoC5/ETH.c **** /* ------------------------------------------------------------------------ */
 450:.\Generated_Source\PSoC5/ETH.c **** /**
 451:.\Generated_Source\PSoC5/ETH.c ****  * \brief write Data to the W5100 at the specified address
 452:.\Generated_Source\PSoC5/ETH.c ****  * \param addr Address of register or memory buffer
 453:.\Generated_Source\PSoC5/ETH.c ****  * \param dat Data to write to the device
 454:.\Generated_Source\PSoC5/ETH.c ****  *
 455:.\Generated_Source\PSoC5/ETH.c ****  * This function will send the WRITE opcode, address and data to the W5100
 456:.\Generated_Source\PSoC5/ETH.c ****  * in order to write the data to the specified register.
 457:.\Generated_Source\PSoC5/ETH.c ****  */
 458:.\Generated_Source\PSoC5/ETH.c **** void
 459:.\Generated_Source\PSoC5/ETH.c **** ETH_ChipWrite(uint32 addr, uint8 *dat, uint16 length)
 460:.\Generated_Source\PSoC5/ETH.c **** {
 461:.\Generated_Source\PSoC5/ETH.c **** 	/* TBD */
 462:.\Generated_Source\PSoC5/ETH.c **** }
 463:.\Generated_Source\PSoC5/ETH.c **** /* ------------------------------------------------------------------------ */
 464:.\Generated_Source\PSoC5/ETH.c **** /**
 465:.\Generated_Source\PSoC5/ETH.c ****  * \brief Read data from the W5100 at the spsecified address
 466:.\Generated_Source\PSoC5/ETH.c ****  * \param addr Address from which to read
 467:.\Generated_Source\PSoC5/ETH.c ****  * \returns the data read from the address
 468:.\Generated_Source\PSoC5/ETH.c ****  *
 469:.\Generated_Source\PSoC5/ETH.c ****  * this fucntion will access a W5100 memory location and read the contents
 470:.\Generated_Source\PSoC5/ETH.c ****  * using the serial protocol specified on P.61 of the datasheet.
 471:.\Generated_Source\PSoC5/ETH.c ****  */
 472:.\Generated_Source\PSoC5/ETH.c **** void
 473:.\Generated_Source\PSoC5/ETH.c **** ETH_ChipRead(uint32 addr, uint8 *dat, uint16 length)
 474:.\Generated_Source\PSoC5/ETH.c **** {
 475:.\Generated_Source\PSoC5/ETH.c **** 	/* TBD */
 476:.\Generated_Source\PSoC5/ETH.c **** }
 477:.\Generated_Source\PSoC5/ETH.c **** 
 478:.\Generated_Source\PSoC5/ETH.c **** #endif
 479:.\Generated_Source\PSoC5/ETH.c **** 
 480:.\Generated_Source\PSoC5/ETH.c **** /* ======================================================================== */
 481:.\Generated_Source\PSoC5/ETH.c **** /* W5x00 Access Primitaves */
 482:.\Generated_Source\PSoC5/ETH.c **** #if (1)
 483:.\Generated_Source\PSoC5/ETH.c **** /* ------------------------------------------------------------------------ */
 484:.\Generated_Source\PSoC5/ETH.c **** /**
 485:.\Generated_Source\PSoC5/ETH.c ****  * \brief Write a 16-bit word to the device
 486:.\Generated_Source\PSoC5/ETH.c ****  * \param addr the starting address to which the data will be written
 487:.\Generated_Source\PSoC5/ETH.c ****  * \param val the 16-bit value to write
 488:.\Generated_Source\PSoC5/ETH.c ****  */
 489:.\Generated_Source\PSoC5/ETH.c **** void ETH_ChipWrite16( uint32 addr, uint16 val )
 490:.\Generated_Source\PSoC5/ETH.c **** {
 462              		.loc 1 490 0
 463              		.cfi_startproc
 464              		@ args = 0, pretend = 0, frame = 16
 465              		@ frame_needed = 1, uses_anonymous_args = 0
 466 0000 80B5     		push	{r7, lr}
 467              	.LCFI10:
 468              		.cfi_def_cfa_offset 8
 469              		.cfi_offset 7, -8
 470              		.cfi_offset 14, -4
 471 0002 84B0     		sub	sp, sp, #16
 472              	.LCFI11:
 473              		.cfi_def_cfa_offset 24
 474 0004 00AF     		add	r7, sp, #0
ARM GAS  C:\Users\CHUCK~1.ERH\AppData\Local\Temp\ccWRPeSc.s 			page 18


 475              	.LCFI12:
 476              		.cfi_def_cfa_register 7
 477 0006 7860     		str	r0, [r7, #4]
 478 0008 0B46     		mov	r3, r1
 479 000a 7B80     		strh	r3, [r7, #2]	@ movhi
 491:.\Generated_Source\PSoC5/ETH.c **** 	uint16 bigVal;
 492:.\Generated_Source\PSoC5/ETH.c **** 	
 493:.\Generated_Source\PSoC5/ETH.c **** #if !( CY_PSOC3 ) 
 494:.\Generated_Source\PSoC5/ETH.c **** 	bigVal = CYSWAP_ENDIAN16( val );
 480              		.loc 1 494 0
 481 000c 7B88     		ldrh	r3, [r7, #2]
 482 000e 4FEA0323 		lsl	r3, r3, #8
 483 0012 9AB2     		uxth	r2, r3
 484 0014 7B88     		ldrh	r3, [r7, #2]
 485 0016 4FEA1323 		lsr	r3, r3, #8
 486 001a 9BB2     		uxth	r3, r3
 487 001c 9BB2     		uxth	r3, r3
 488 001e 1343     		orrs	r3, r3, r2
 489 0020 9BB2     		uxth	r3, r3
 490 0022 9BB2     		uxth	r3, r3
 491 0024 FB81     		strh	r3, [r7, #14]	@ movhi
 495:.\Generated_Source\PSoC5/ETH.c **** #else
 496:.\Generated_Source\PSoC5/ETH.c **** 	bigValu = val;
 497:.\Generated_Source\PSoC5/ETH.c **** #endif
 498:.\Generated_Source\PSoC5/ETH.c **** 	ETH_ChipWrite( addr, (uint8*)&bigVal, 2 );
 492              		.loc 1 498 0
 493 0026 07F10E03 		add	r3, r7, #14
 494 002a 7868     		ldr	r0, [r7, #4]
 495 002c 1946     		mov	r1, r3
 496 002e 4FF00202 		mov	r2, #2
 497 0032 FFF7FEFF 		bl	ETH_ChipWrite
 499:.\Generated_Source\PSoC5/ETH.c **** }
 498              		.loc 1 499 0
 499 0036 07F11007 		add	r7, r7, #16
 500 003a BD46     		mov	sp, r7
 501 003c 80BD     		pop	{r7, pc}
 502              		.cfi_endproc
 503              	.LFE4:
 504              		.size	ETH_ChipWrite16, .-ETH_ChipWrite16
 505 003e 00BF     		.section	.text.ETH_ChipRead16,"ax",%progbits
 506              		.align	2
 507              		.global	ETH_ChipRead16
 508              		.thumb
 509              		.thumb_func
 510              		.type	ETH_ChipRead16, %function
 511              	ETH_ChipRead16:
 512              	.LFB5:
 500:.\Generated_Source\PSoC5/ETH.c **** /* ------------------------------------------------------------------------ */
 501:.\Generated_Source\PSoC5/ETH.c **** /**
 502:.\Generated_Source\PSoC5/ETH.c ****  * \brief Read a 16-bit value from the device
 503:.\Generated_Source\PSoC5/ETH.c ****  * \param addr The starting address from which data will be read
 504:.\Generated_Source\PSoC5/ETH.c ****  * \returns the 16-bit value read from the memory.
 505:.\Generated_Source\PSoC5/ETH.c ****  */
 506:.\Generated_Source\PSoC5/ETH.c **** uint16 ETH_ChipRead16( uint32 addr )
 507:.\Generated_Source\PSoC5/ETH.c **** {
 513              		.loc 1 507 0
 514              		.cfi_startproc
ARM GAS  C:\Users\CHUCK~1.ERH\AppData\Local\Temp\ccWRPeSc.s 			page 19


 515              		@ args = 0, pretend = 0, frame = 16
 516              		@ frame_needed = 1, uses_anonymous_args = 0
 517 0000 80B5     		push	{r7, lr}
 518              	.LCFI13:
 519              		.cfi_def_cfa_offset 8
 520              		.cfi_offset 7, -8
 521              		.cfi_offset 14, -4
 522 0002 84B0     		sub	sp, sp, #16
 523              	.LCFI14:
 524              		.cfi_def_cfa_offset 24
 525 0004 00AF     		add	r7, sp, #0
 526              	.LCFI15:
 527              		.cfi_def_cfa_register 7
 528 0006 7860     		str	r0, [r7, #4]
 508:.\Generated_Source\PSoC5/ETH.c **** 	uint16 val;
 509:.\Generated_Source\PSoC5/ETH.c **** 	
 510:.\Generated_Source\PSoC5/ETH.c **** 	ETH_ChipRead(addr, (uint8*)&val, 2);
 529              		.loc 1 510 0
 530 0008 07F10E03 		add	r3, r7, #14
 531 000c 7868     		ldr	r0, [r7, #4]
 532 000e 1946     		mov	r1, r3
 533 0010 4FF00202 		mov	r2, #2
 534 0014 FFF7FEFF 		bl	ETH_ChipRead
 511:.\Generated_Source\PSoC5/ETH.c **** #if !( CY_PSOC3 )
 512:.\Generated_Source\PSoC5/ETH.c **** 	val = CYSWAP_ENDIAN16( val );
 535              		.loc 1 512 0
 536 0018 FB89     		ldrh	r3, [r7, #14]
 537 001a 4FEA0323 		lsl	r3, r3, #8
 538 001e 9AB2     		uxth	r2, r3
 539 0020 FB89     		ldrh	r3, [r7, #14]
 540 0022 4FEA1323 		lsr	r3, r3, #8
 541 0026 9BB2     		uxth	r3, r3
 542 0028 9BB2     		uxth	r3, r3
 543 002a 1343     		orrs	r3, r3, r2
 544 002c 9BB2     		uxth	r3, r3
 545 002e 9BB2     		uxth	r3, r3
 546 0030 FB81     		strh	r3, [r7, #14]	@ movhi
 513:.\Generated_Source\PSoC5/ETH.c **** #endif
 514:.\Generated_Source\PSoC5/ETH.c **** 	
 515:.\Generated_Source\PSoC5/ETH.c **** 	return( val );
 547              		.loc 1 515 0
 548 0032 FB89     		ldrh	r3, [r7, #14]
 516:.\Generated_Source\PSoC5/ETH.c **** }
 549              		.loc 1 516 0
 550 0034 1846     		mov	r0, r3
 551 0036 07F11007 		add	r7, r7, #16
 552 003a BD46     		mov	sp, r7
 553 003c 80BD     		pop	{r7, pc}
 554              		.cfi_endproc
 555              	.LFE5:
 556              		.size	ETH_ChipRead16, .-ETH_ChipRead16
 557 003e 00BF     		.section	.text.ETH_SetSourceMAC,"ax",%progbits
 558              		.align	2
 559              		.global	ETH_SetSourceMAC
 560              		.thumb
 561              		.thumb_func
 562              		.type	ETH_SetSourceMAC, %function
ARM GAS  C:\Users\CHUCK~1.ERH\AppData\Local\Temp\ccWRPeSc.s 			page 20


 563              	ETH_SetSourceMAC:
 564              	.LFB6:
 517:.\Generated_Source\PSoC5/ETH.c **** /* ======================================================================== */
 518:.\Generated_Source\PSoC5/ETH.c **** /* END SECTION */
 519:.\Generated_Source\PSoC5/ETH.c **** #endif
 520:.\Generated_Source\PSoC5/ETH.c **** /* ======================================================================== */
 521:.\Generated_Source\PSoC5/ETH.c **** /* Chip Register access */
 522:.\Generated_Source\PSoC5/ETH.c **** #if (1)
 523:.\Generated_Source\PSoC5/ETH.c **** // Common Registers
 524:.\Generated_Source\PSoC5/ETH.c **** /* ------------------------------------------------------------------------ */
 525:.\Generated_Source\PSoC5/ETH.c **** /**
 526:.\Generated_Source\PSoC5/ETH.c ****  * \brief Set teh chip mac address to teh specified address
 527:.\Generated_Source\PSoC5/ETH.c ****  * \param *mac pointer to the array holding the MAC address
 528:.\Generated_Source\PSoC5/ETH.c ****  */
 529:.\Generated_Source\PSoC5/ETH.c **** void ETH_SetSourceMAC( uint8 *mac )
 530:.\Generated_Source\PSoC5/ETH.c **** {
 565              		.loc 1 530 0
 566              		.cfi_startproc
 567              		@ args = 0, pretend = 0, frame = 8
 568              		@ frame_needed = 1, uses_anonymous_args = 0
 569 0000 80B5     		push	{r7, lr}
 570              	.LCFI16:
 571              		.cfi_def_cfa_offset 8
 572              		.cfi_offset 7, -8
 573              		.cfi_offset 14, -4
 574 0002 82B0     		sub	sp, sp, #8
 575              	.LCFI17:
 576              		.cfi_def_cfa_offset 16
 577 0004 00AF     		add	r7, sp, #0
 578              	.LCFI18:
 579              		.cfi_def_cfa_register 7
 580 0006 7860     		str	r0, [r7, #4]
 531:.\Generated_Source\PSoC5/ETH.c **** 	ETH_ChipWrite(ETH_REG_SHAR, mac,6 );
 581              		.loc 1 531 0
 582 0008 4FF00900 		mov	r0, #9
 583 000c 7968     		ldr	r1, [r7, #4]
 584 000e 4FF00602 		mov	r2, #6
 585 0012 FFF7FEFF 		bl	ETH_ChipWrite
 532:.\Generated_Source\PSoC5/ETH.c **** }
 586              		.loc 1 532 0
 587 0016 07F10807 		add	r7, r7, #8
 588 001a BD46     		mov	sp, r7
 589 001c 80BD     		pop	{r7, pc}
 590              		.cfi_endproc
 591              	.LFE6:
 592              		.size	ETH_SetSourceMAC, .-ETH_SetSourceMAC
 593 001e 00BF     		.section	.text.ETH_GetSourceMAC,"ax",%progbits
 594              		.align	2
 595              		.global	ETH_GetSourceMAC
 596              		.thumb
 597              		.thumb_func
 598              		.type	ETH_GetSourceMAC, %function
 599              	ETH_GetSourceMAC:
 600              	.LFB7:
 533:.\Generated_Source\PSoC5/ETH.c **** /* ------------------------------------------------------------------------ */
 534:.\Generated_Source\PSoC5/ETH.c **** /**
 535:.\Generated_Source\PSoC5/ETH.c ****  * \brief Read the chip source MAC address from the MAC registers
ARM GAS  C:\Users\CHUCK~1.ERH\AppData\Local\Temp\ccWRPeSc.s 			page 21


 536:.\Generated_Source\PSoC5/ETH.c ****  * \param *mac pointer to the address of the buffer to hold the read MAC address
 537:.\Generated_Source\PSoC5/ETH.c ****  */
 538:.\Generated_Source\PSoC5/ETH.c **** void ETH_GetSourceMAC( uint8 *mac )
 539:.\Generated_Source\PSoC5/ETH.c **** {
 601              		.loc 1 539 0
 602              		.cfi_startproc
 603              		@ args = 0, pretend = 0, frame = 8
 604              		@ frame_needed = 1, uses_anonymous_args = 0
 605 0000 80B5     		push	{r7, lr}
 606              	.LCFI19:
 607              		.cfi_def_cfa_offset 8
 608              		.cfi_offset 7, -8
 609              		.cfi_offset 14, -4
 610 0002 82B0     		sub	sp, sp, #8
 611              	.LCFI20:
 612              		.cfi_def_cfa_offset 16
 613 0004 00AF     		add	r7, sp, #0
 614              	.LCFI21:
 615              		.cfi_def_cfa_register 7
 616 0006 7860     		str	r0, [r7, #4]
 540:.\Generated_Source\PSoC5/ETH.c **** 	ETH_ChipRead(ETH_REG_SHAR,mac,6);
 617              		.loc 1 540 0
 618 0008 4FF00900 		mov	r0, #9
 619 000c 7968     		ldr	r1, [r7, #4]
 620 000e 4FF00602 		mov	r2, #6
 621 0012 FFF7FEFF 		bl	ETH_ChipRead
 541:.\Generated_Source\PSoC5/ETH.c **** }
 622              		.loc 1 541 0
 623 0016 07F10807 		add	r7, r7, #8
 624 001a BD46     		mov	sp, r7
 625 001c 80BD     		pop	{r7, pc}
 626              		.cfi_endproc
 627              	.LFE7:
 628              		.size	ETH_GetSourceMAC, .-ETH_GetSourceMAC
 629 001e 00BF     		.section	.text.ETH_SetGatewayAddress,"ax",%progbits
 630              		.align	2
 631              		.global	ETH_SetGatewayAddress
 632              		.thumb
 633              		.thumb_func
 634              		.type	ETH_SetGatewayAddress, %function
 635              	ETH_SetGatewayAddress:
 636              	.LFB8:
 542:.\Generated_Source\PSoC5/ETH.c **** /* ------------------------------------------------------------------------ */
 543:.\Generated_Source\PSoC5/ETH.c **** /**
 544:.\Generated_Source\PSoC5/ETH.c ****  * \brief Set the IPv4 address of the network gateway
 545:.\Generated_Source\PSoC5/ETH.c ****  * \param ip IP address of the gateway
 546:.\Generated_Source\PSoC5/ETH.c ****  */
 547:.\Generated_Source\PSoC5/ETH.c **** void ETH_SetGatewayAddress(uint32 ip)
 548:.\Generated_Source\PSoC5/ETH.c **** {
 637              		.loc 1 548 0
 638              		.cfi_startproc
 639              		@ args = 0, pretend = 0, frame = 8
 640              		@ frame_needed = 1, uses_anonymous_args = 0
 641 0000 80B5     		push	{r7, lr}
 642              	.LCFI22:
 643              		.cfi_def_cfa_offset 8
 644              		.cfi_offset 7, -8
ARM GAS  C:\Users\CHUCK~1.ERH\AppData\Local\Temp\ccWRPeSc.s 			page 22


 645              		.cfi_offset 14, -4
 646 0002 82B0     		sub	sp, sp, #8
 647              	.LCFI23:
 648              		.cfi_def_cfa_offset 16
 649 0004 00AF     		add	r7, sp, #0
 650              	.LCFI24:
 651              		.cfi_def_cfa_register 7
 652 0006 7860     		str	r0, [r7, #4]
 549:.\Generated_Source\PSoC5/ETH.c **** 	ETH_ChipWrite(ETH_REG_GAR, (uint8*)&(ip),4);
 653              		.loc 1 549 0
 654 0008 07F10403 		add	r3, r7, #4
 655 000c 4FF00100 		mov	r0, #1
 656 0010 1946     		mov	r1, r3
 657 0012 4FF00402 		mov	r2, #4
 658 0016 FFF7FEFF 		bl	ETH_ChipWrite
 550:.\Generated_Source\PSoC5/ETH.c **** }
 659              		.loc 1 550 0
 660 001a 07F10807 		add	r7, r7, #8
 661 001e BD46     		mov	sp, r7
 662 0020 80BD     		pop	{r7, pc}
 663              		.cfi_endproc
 664              	.LFE8:
 665              		.size	ETH_SetGatewayAddress, .-ETH_SetGatewayAddress
 666 0022 00BF     		.section	.text.ETH_GetGatewayAddress,"ax",%progbits
 667              		.align	2
 668              		.global	ETH_GetGatewayAddress
 669              		.thumb
 670              		.thumb_func
 671              		.type	ETH_GetGatewayAddress, %function
 672              	ETH_GetGatewayAddress:
 673              	.LFB9:
 551:.\Generated_Source\PSoC5/ETH.c **** /* ------------------------------------------------------------------------ */
 552:.\Generated_Source\PSoC5/ETH.c **** /**
 553:.\Generated_Source\PSoC5/ETH.c ****  * \brief Read the gateway address from the device
 554:.\Generated_Source\PSoC5/ETH.c ****  * \returns the IP address of the gateway
 555:.\Generated_Source\PSoC5/ETH.c ****  */
 556:.\Generated_Source\PSoC5/ETH.c **** uint32 ETH_GetGatewayAddress( void )
 557:.\Generated_Source\PSoC5/ETH.c **** {
 674              		.loc 1 557 0
 675              		.cfi_startproc
 676              		@ args = 0, pretend = 0, frame = 8
 677              		@ frame_needed = 1, uses_anonymous_args = 0
 678 0000 80B5     		push	{r7, lr}
 679              	.LCFI25:
 680              		.cfi_def_cfa_offset 8
 681              		.cfi_offset 7, -8
 682              		.cfi_offset 14, -4
 683 0002 82B0     		sub	sp, sp, #8
 684              	.LCFI26:
 685              		.cfi_def_cfa_offset 16
 686 0004 00AF     		add	r7, sp, #0
 687              	.LCFI27:
 688              		.cfi_def_cfa_register 7
 558:.\Generated_Source\PSoC5/ETH.c **** 	uint32 ip = 0xFFFFFFFF;
 689              		.loc 1 558 0
 690 0006 4FF0FF33 		mov	r3, #-1
 691 000a 7B60     		str	r3, [r7, #4]
ARM GAS  C:\Users\CHUCK~1.ERH\AppData\Local\Temp\ccWRPeSc.s 			page 23


 559:.\Generated_Source\PSoC5/ETH.c **** 	
 560:.\Generated_Source\PSoC5/ETH.c **** 	ETH_ChipRead( ETH_REG_GAR, (uint8*)(ip), 4);
 692              		.loc 1 560 0
 693 000c 7B68     		ldr	r3, [r7, #4]
 694 000e 4FF00100 		mov	r0, #1
 695 0012 1946     		mov	r1, r3
 696 0014 4FF00402 		mov	r2, #4
 697 0018 FFF7FEFF 		bl	ETH_ChipRead
 561:.\Generated_Source\PSoC5/ETH.c **** 	
 562:.\Generated_Source\PSoC5/ETH.c **** 	return ip;
 698              		.loc 1 562 0
 699 001c 7B68     		ldr	r3, [r7, #4]
 563:.\Generated_Source\PSoC5/ETH.c **** }
 700              		.loc 1 563 0
 701 001e 1846     		mov	r0, r3
 702 0020 07F10807 		add	r7, r7, #8
 703 0024 BD46     		mov	sp, r7
 704 0026 80BD     		pop	{r7, pc}
 705              		.cfi_endproc
 706              	.LFE9:
 707              		.size	ETH_GetGatewayAddress, .-ETH_GetGatewayAddress
 708              		.section	.text.ETH_SetSubnetMask,"ax",%progbits
 709              		.align	2
 710              		.global	ETH_SetSubnetMask
 711              		.thumb
 712              		.thumb_func
 713              		.type	ETH_SetSubnetMask, %function
 714              	ETH_SetSubnetMask:
 715              	.LFB10:
 564:.\Generated_Source\PSoC5/ETH.c **** /* ------------------------------------------------------------------------ */
 565:.\Generated_Source\PSoC5/ETH.c **** /**
 566:.\Generated_Source\PSoC5/ETH.c ****  * \brief set the subnet mask of the ethernet device
 567:.\Generated_Source\PSoC5/ETH.c ****  * \param the subnet mask (IPv4)
 568:.\Generated_Source\PSoC5/ETH.c ****  */
 569:.\Generated_Source\PSoC5/ETH.c **** void ETH_SetSubnetMask( uint32 ip )
 570:.\Generated_Source\PSoC5/ETH.c **** {
 716              		.loc 1 570 0
 717              		.cfi_startproc
 718              		@ args = 0, pretend = 0, frame = 8
 719              		@ frame_needed = 1, uses_anonymous_args = 0
 720 0000 80B5     		push	{r7, lr}
 721              	.LCFI28:
 722              		.cfi_def_cfa_offset 8
 723              		.cfi_offset 7, -8
 724              		.cfi_offset 14, -4
 725 0002 82B0     		sub	sp, sp, #8
 726              	.LCFI29:
 727              		.cfi_def_cfa_offset 16
 728 0004 00AF     		add	r7, sp, #0
 729              	.LCFI30:
 730              		.cfi_def_cfa_register 7
 731 0006 7860     		str	r0, [r7, #4]
 571:.\Generated_Source\PSoC5/ETH.c **** 	ETH_ChipWrite(ETH_REG_SUBR, (uint8*)&(ip), 4);
 732              		.loc 1 571 0
 733 0008 07F10403 		add	r3, r7, #4
 734 000c 4FF00500 		mov	r0, #5
 735 0010 1946     		mov	r1, r3
ARM GAS  C:\Users\CHUCK~1.ERH\AppData\Local\Temp\ccWRPeSc.s 			page 24


 736 0012 4FF00402 		mov	r2, #4
 737 0016 FFF7FEFF 		bl	ETH_ChipWrite
 572:.\Generated_Source\PSoC5/ETH.c **** }
 738              		.loc 1 572 0
 739 001a 07F10807 		add	r7, r7, #8
 740 001e BD46     		mov	sp, r7
 741 0020 80BD     		pop	{r7, pc}
 742              		.cfi_endproc
 743              	.LFE10:
 744              		.size	ETH_SetSubnetMask, .-ETH_SetSubnetMask
 745 0022 00BF     		.section	.text.ETH_GetSubnetMask,"ax",%progbits
 746              		.align	2
 747              		.global	ETH_GetSubnetMask
 748              		.thumb
 749              		.thumb_func
 750              		.type	ETH_GetSubnetMask, %function
 751              	ETH_GetSubnetMask:
 752              	.LFB11:
 573:.\Generated_Source\PSoC5/ETH.c **** /* ------------------------------------------------------------------------ */
 574:.\Generated_Source\PSoC5/ETH.c **** /**
 575:.\Generated_Source\PSoC5/ETH.c ****  * \brief Read the subnet mask from the device
 576:.\Generated_Source\PSoC5/ETH.c ****  * \returns the subnet mask that was read from the device.
 577:.\Generated_Source\PSoC5/ETH.c ****  */
 578:.\Generated_Source\PSoC5/ETH.c **** uint32 ETH_GetSubnetMask( void )
 579:.\Generated_Source\PSoC5/ETH.c **** {
 753              		.loc 1 579 0
 754              		.cfi_startproc
 755              		@ args = 0, pretend = 0, frame = 8
 756              		@ frame_needed = 1, uses_anonymous_args = 0
 757 0000 80B5     		push	{r7, lr}
 758              	.LCFI31:
 759              		.cfi_def_cfa_offset 8
 760              		.cfi_offset 7, -8
 761              		.cfi_offset 14, -4
 762 0002 82B0     		sub	sp, sp, #8
 763              	.LCFI32:
 764              		.cfi_def_cfa_offset 16
 765 0004 00AF     		add	r7, sp, #0
 766              	.LCFI33:
 767              		.cfi_def_cfa_register 7
 580:.\Generated_Source\PSoC5/ETH.c **** 	uint32 ip = 0xFFFFFFFF;
 768              		.loc 1 580 0
 769 0006 4FF0FF33 		mov	r3, #-1
 770 000a 7B60     		str	r3, [r7, #4]
 581:.\Generated_Source\PSoC5/ETH.c **** 	ETH_ChipRead(ETH_REG_SUBR, (uint8*)(ip), 4);
 771              		.loc 1 581 0
 772 000c 7B68     		ldr	r3, [r7, #4]
 773 000e 4FF00500 		mov	r0, #5
 774 0012 1946     		mov	r1, r3
 775 0014 4FF00402 		mov	r2, #4
 776 0018 FFF7FEFF 		bl	ETH_ChipRead
 582:.\Generated_Source\PSoC5/ETH.c **** 	return ip;
 777              		.loc 1 582 0
 778 001c 7B68     		ldr	r3, [r7, #4]
 583:.\Generated_Source\PSoC5/ETH.c **** }
 779              		.loc 1 583 0
 780 001e 1846     		mov	r0, r3
ARM GAS  C:\Users\CHUCK~1.ERH\AppData\Local\Temp\ccWRPeSc.s 			page 25


 781 0020 07F10807 		add	r7, r7, #8
 782 0024 BD46     		mov	sp, r7
 783 0026 80BD     		pop	{r7, pc}
 784              		.cfi_endproc
 785              	.LFE11:
 786              		.size	ETH_GetSubnetMask, .-ETH_GetSubnetMask
 787              		.section	.text.ETH_SetSourceIP,"ax",%progbits
 788              		.align	2
 789              		.global	ETH_SetSourceIP
 790              		.thumb
 791              		.thumb_func
 792              		.type	ETH_SetSourceIP, %function
 793              	ETH_SetSourceIP:
 794              	.LFB12:
 584:.\Generated_Source\PSoC5/ETH.c **** /* ------------------------------------------------------------------------ */
 585:.\Generated_Source\PSoC5/ETH.c **** /**
 586:.\Generated_Source\PSoC5/ETH.c ****  * \brief Write the device source IPv4 address
 587:.\Generated_Source\PSoC5/ETH.c ****  * \param ip the ip address to set as the chip IP address
 588:.\Generated_Source\PSoC5/ETH.c ****  */
 589:.\Generated_Source\PSoC5/ETH.c **** void ETH_SetSourceIP(uint32 ip )
 590:.\Generated_Source\PSoC5/ETH.c **** {
 795              		.loc 1 590 0
 796              		.cfi_startproc
 797              		@ args = 0, pretend = 0, frame = 8
 798              		@ frame_needed = 1, uses_anonymous_args = 0
 799 0000 80B5     		push	{r7, lr}
 800              	.LCFI34:
 801              		.cfi_def_cfa_offset 8
 802              		.cfi_offset 7, -8
 803              		.cfi_offset 14, -4
 804 0002 82B0     		sub	sp, sp, #8
 805              	.LCFI35:
 806              		.cfi_def_cfa_offset 16
 807 0004 00AF     		add	r7, sp, #0
 808              	.LCFI36:
 809              		.cfi_def_cfa_register 7
 810 0006 7860     		str	r0, [r7, #4]
 591:.\Generated_Source\PSoC5/ETH.c **** 	ETH_ChipWrite( ETH_REG_SIPR, (uint8*)&(ip), 4 );
 811              		.loc 1 591 0
 812 0008 07F10403 		add	r3, r7, #4
 813 000c 4FF00F00 		mov	r0, #15
 814 0010 1946     		mov	r1, r3
 815 0012 4FF00402 		mov	r2, #4
 816 0016 FFF7FEFF 		bl	ETH_ChipWrite
 592:.\Generated_Source\PSoC5/ETH.c **** }
 817              		.loc 1 592 0
 818 001a 07F10807 		add	r7, r7, #8
 819 001e BD46     		mov	sp, r7
 820 0020 80BD     		pop	{r7, pc}
 821              		.cfi_endproc
 822              	.LFE12:
 823              		.size	ETH_SetSourceIP, .-ETH_SetSourceIP
 824 0022 00BF     		.section	.text.ETH_GetSourceIP,"ax",%progbits
 825              		.align	2
 826              		.global	ETH_GetSourceIP
 827              		.thumb
 828              		.thumb_func
ARM GAS  C:\Users\CHUCK~1.ERH\AppData\Local\Temp\ccWRPeSc.s 			page 26


 829              		.type	ETH_GetSourceIP, %function
 830              	ETH_GetSourceIP:
 831              	.LFB13:
 593:.\Generated_Source\PSoC5/ETH.c **** /* ------------------------------------------------------------------------ */
 594:.\Generated_Source\PSoC5/ETH.c **** /**
 595:.\Generated_Source\PSoC5/ETH.c ****  * \brief Read the device's programmed IP address
 596:.\Generated_Source\PSoC5/ETH.c ****  * \returns The IPv4 address to which the device is set.
 597:.\Generated_Source\PSoC5/ETH.c ****  */
 598:.\Generated_Source\PSoC5/ETH.c **** uint32 ETH_GetSourceIP( void )
 599:.\Generated_Source\PSoC5/ETH.c **** {
 832              		.loc 1 599 0
 833              		.cfi_startproc
 834              		@ args = 0, pretend = 0, frame = 8
 835              		@ frame_needed = 1, uses_anonymous_args = 0
 836 0000 80B5     		push	{r7, lr}
 837              	.LCFI37:
 838              		.cfi_def_cfa_offset 8
 839              		.cfi_offset 7, -8
 840              		.cfi_offset 14, -4
 841 0002 82B0     		sub	sp, sp, #8
 842              	.LCFI38:
 843              		.cfi_def_cfa_offset 16
 844 0004 00AF     		add	r7, sp, #0
 845              	.LCFI39:
 846              		.cfi_def_cfa_register 7
 600:.\Generated_Source\PSoC5/ETH.c **** 	uint32 ip = 0xFFFFFFFF;
 847              		.loc 1 600 0
 848 0006 4FF0FF33 		mov	r3, #-1
 849 000a 7B60     		str	r3, [r7, #4]
 601:.\Generated_Source\PSoC5/ETH.c **** 	ETH_ChipRead( ETH_REG_SIPR, (uint8*)(ip), 4 );
 850              		.loc 1 601 0
 851 000c 7B68     		ldr	r3, [r7, #4]
 852 000e 4FF00F00 		mov	r0, #15
 853 0012 1946     		mov	r1, r3
 854 0014 4FF00402 		mov	r2, #4
 855 0018 FFF7FEFF 		bl	ETH_ChipRead
 602:.\Generated_Source\PSoC5/ETH.c **** 	return ip;
 856              		.loc 1 602 0
 857 001c 7B68     		ldr	r3, [r7, #4]
 603:.\Generated_Source\PSoC5/ETH.c **** }
 858              		.loc 1 603 0
 859 001e 1846     		mov	r0, r3
 860 0020 07F10807 		add	r7, r7, #8
 861 0024 BD46     		mov	sp, r7
 862 0026 80BD     		pop	{r7, pc}
 863              		.cfi_endproc
 864              	.LFE13:
 865              		.size	ETH_GetSourceIP, .-ETH_GetSourceIP
 866              		.section	.text.ETH_SetMode,"ax",%progbits
 867              		.align	2
 868              		.global	ETH_SetMode
 869              		.thumb
 870              		.thumb_func
 871              		.type	ETH_SetMode, %function
 872              	ETH_SetMode:
 873              	.LFB14:
 604:.\Generated_Source\PSoC5/ETH.c **** /* ------------------------------------------------------------------------ */
ARM GAS  C:\Users\CHUCK~1.ERH\AppData\Local\Temp\ccWRPeSc.s 			page 27


 605:.\Generated_Source\PSoC5/ETH.c **** /**
 606:.\Generated_Source\PSoC5/ETH.c ****  * \brief Write a value to the device internal MODE register
 607:.\Generated_Source\PSoC5/ETH.c ****  * \param mode the value to be written to the mode register.
 608:.\Generated_Source\PSoC5/ETH.c ****  */
 609:.\Generated_Source\PSoC5/ETH.c **** void ETH_SetMode( uint8 mode )
 610:.\Generated_Source\PSoC5/ETH.c **** {
 874              		.loc 1 610 0
 875              		.cfi_startproc
 876              		@ args = 0, pretend = 0, frame = 8
 877              		@ frame_needed = 1, uses_anonymous_args = 0
 878 0000 80B5     		push	{r7, lr}
 879              	.LCFI40:
 880              		.cfi_def_cfa_offset 8
 881              		.cfi_offset 7, -8
 882              		.cfi_offset 14, -4
 883 0002 82B0     		sub	sp, sp, #8
 884              	.LCFI41:
 885              		.cfi_def_cfa_offset 16
 886 0004 00AF     		add	r7, sp, #0
 887              	.LCFI42:
 888              		.cfi_def_cfa_register 7
 889 0006 0346     		mov	r3, r0
 890 0008 FB71     		strb	r3, [r7, #7]
 611:.\Generated_Source\PSoC5/ETH.c **** 	ETH_ChipWrite(ETH_REG_MODE, (uint8*)&(mode), 1);
 891              		.loc 1 611 0
 892 000a 07F10703 		add	r3, r7, #7
 893 000e 4FF00000 		mov	r0, #0
 894 0012 1946     		mov	r1, r3
 895 0014 4FF00102 		mov	r2, #1
 896 0018 FFF7FEFF 		bl	ETH_ChipWrite
 612:.\Generated_Source\PSoC5/ETH.c **** }
 897              		.loc 1 612 0
 898 001c 07F10807 		add	r7, r7, #8
 899 0020 BD46     		mov	sp, r7
 900 0022 80BD     		pop	{r7, pc}
 901              		.cfi_endproc
 902              	.LFE14:
 903              		.size	ETH_SetMode, .-ETH_SetMode
 904              		.section	.text.ETH_GetMode,"ax",%progbits
 905              		.align	2
 906              		.global	ETH_GetMode
 907              		.thumb
 908              		.thumb_func
 909              		.type	ETH_GetMode, %function
 910              	ETH_GetMode:
 911              	.LFB15:
 613:.\Generated_Source\PSoC5/ETH.c **** /* ------------------------------------------------------------------------ */
 614:.\Generated_Source\PSoC5/ETH.c **** /**
 615:.\Generated_Source\PSoC5/ETH.c ****  * \brief Read the present contents of the device internal mode register
 616:.\Generated_Source\PSoC5/ETH.c ****  * \returns the value of the mode register
 617:.\Generated_Source\PSoC5/ETH.c ****  */
 618:.\Generated_Source\PSoC5/ETH.c **** uint8 ETH_GetMode( void )
 619:.\Generated_Source\PSoC5/ETH.c **** {
 912              		.loc 1 619 0
 913              		.cfi_startproc
 914              		@ args = 0, pretend = 0, frame = 8
 915              		@ frame_needed = 1, uses_anonymous_args = 0
ARM GAS  C:\Users\CHUCK~1.ERH\AppData\Local\Temp\ccWRPeSc.s 			page 28


 916 0000 80B5     		push	{r7, lr}
 917              	.LCFI43:
 918              		.cfi_def_cfa_offset 8
 919              		.cfi_offset 7, -8
 920              		.cfi_offset 14, -4
 921 0002 82B0     		sub	sp, sp, #8
 922              	.LCFI44:
 923              		.cfi_def_cfa_offset 16
 924 0004 00AF     		add	r7, sp, #0
 925              	.LCFI45:
 926              		.cfi_def_cfa_register 7
 620:.\Generated_Source\PSoC5/ETH.c **** 	uint8 mode;
 621:.\Generated_Source\PSoC5/ETH.c **** 	ETH_ChipRead(ETH_REG_MODE, (uint8*)&(mode),1);
 927              		.loc 1 621 0
 928 0006 07F10703 		add	r3, r7, #7
 929 000a 4FF00000 		mov	r0, #0
 930 000e 1946     		mov	r1, r3
 931 0010 4FF00102 		mov	r2, #1
 932 0014 FFF7FEFF 		bl	ETH_ChipRead
 622:.\Generated_Source\PSoC5/ETH.c **** 	return mode;
 933              		.loc 1 622 0
 934 0018 FB79     		ldrb	r3, [r7, #7]	@ zero_extendqisi2
 623:.\Generated_Source\PSoC5/ETH.c **** }
 935              		.loc 1 623 0
 936 001a 1846     		mov	r0, r3
 937 001c 07F10807 		add	r7, r7, #8
 938 0020 BD46     		mov	sp, r7
 939 0022 80BD     		pop	{r7, pc}
 940              		.cfi_endproc
 941              	.LFE15:
 942              		.size	ETH_GetMode, .-ETH_GetMode
 943              		.section	.text.ETH_SetIR,"ax",%progbits
 944              		.align	2
 945              		.global	ETH_SetIR
 946              		.thumb
 947              		.thumb_func
 948              		.type	ETH_SetIR, %function
 949              	ETH_SetIR:
 950              	.LFB16:
 624:.\Generated_Source\PSoC5/ETH.c **** /* ------------------------------------------------------------------------ */
 625:.\Generated_Source\PSoC5/ETH.c **** /**
 626:.\Generated_Source\PSoC5/ETH.c ****  * \brief Write the value of the interrupt register
 627:.\Generated_Source\PSoC5/ETH.c ****  * \param ir the value to be written to the interrupt register
 628:.\Generated_Source\PSoC5/ETH.c ****  */
 629:.\Generated_Source\PSoC5/ETH.c **** void ETH_SetIR(uint8 ir )
 630:.\Generated_Source\PSoC5/ETH.c **** {
 951              		.loc 1 630 0
 952              		.cfi_startproc
 953              		@ args = 0, pretend = 0, frame = 8
 954              		@ frame_needed = 1, uses_anonymous_args = 0
 955 0000 80B5     		push	{r7, lr}
 956              	.LCFI46:
 957              		.cfi_def_cfa_offset 8
 958              		.cfi_offset 7, -8
 959              		.cfi_offset 14, -4
 960 0002 82B0     		sub	sp, sp, #8
 961              	.LCFI47:
ARM GAS  C:\Users\CHUCK~1.ERH\AppData\Local\Temp\ccWRPeSc.s 			page 29


 962              		.cfi_def_cfa_offset 16
 963 0004 00AF     		add	r7, sp, #0
 964              	.LCFI48:
 965              		.cfi_def_cfa_register 7
 966 0006 0346     		mov	r3, r0
 967 0008 FB71     		strb	r3, [r7, #7]
 631:.\Generated_Source\PSoC5/ETH.c **** 	ETH_ChipWrite(ETH_REG_IR,(uint8*)&(ir), 1);
 968              		.loc 1 631 0
 969 000a 07F10703 		add	r3, r7, #7
 970 000e 4FF01500 		mov	r0, #21
 971 0012 1946     		mov	r1, r3
 972 0014 4FF00102 		mov	r2, #1
 973 0018 FFF7FEFF 		bl	ETH_ChipWrite
 632:.\Generated_Source\PSoC5/ETH.c **** }
 974              		.loc 1 632 0
 975 001c 07F10807 		add	r7, r7, #8
 976 0020 BD46     		mov	sp, r7
 977 0022 80BD     		pop	{r7, pc}
 978              		.cfi_endproc
 979              	.LFE16:
 980              		.size	ETH_SetIR, .-ETH_SetIR
 981              		.section	.text.ETH_SetSocketRxMemSize,"ax",%progbits
 982              		.align	2
 983              		.global	ETH_SetSocketRxMemSize
 984              		.thumb
 985              		.thumb_func
 986              		.type	ETH_SetSocketRxMemSize, %function
 987              	ETH_SetSocketRxMemSize:
 988              	.LFB17:
 633:.\Generated_Source\PSoC5/ETH.c **** /* ------------------------------------------------------------------------ */
 634:.\Generated_Source\PSoC5/ETH.c **** /**
 635:.\Generated_Source\PSoC5/ETH.c ****  * \brief write a value to the Rx mem size register
 636:.\Generated_Source\PSoC5/ETH.c ****  * \param size the value to be written to the register
 637:.\Generated_Source\PSoC5/ETH.c ****  */
 638:.\Generated_Source\PSoC5/ETH.c **** void ETH_SetSocketRxMemSize( uint8 socket, uint8 size ) 
 639:.\Generated_Source\PSoC5/ETH.c **** {
 989              		.loc 1 639 0
 990              		.cfi_startproc
 991              		@ args = 0, pretend = 0, frame = 8
 992              		@ frame_needed = 1, uses_anonymous_args = 0
 993 0000 80B5     		push	{r7, lr}
 994              	.LCFI49:
 995              		.cfi_def_cfa_offset 8
 996              		.cfi_offset 7, -8
 997              		.cfi_offset 14, -4
 998 0002 82B0     		sub	sp, sp, #8
 999              	.LCFI50:
 1000              		.cfi_def_cfa_offset 16
 1001 0004 00AF     		add	r7, sp, #0
 1002              	.LCFI51:
 1003              		.cfi_def_cfa_register 7
 1004 0006 0246     		mov	r2, r0
 1005 0008 0B46     		mov	r3, r1
 1006 000a FA71     		strb	r2, [r7, #7]
 1007 000c BB71     		strb	r3, [r7, #6]
 640:.\Generated_Source\PSoC5/ETH.c **** 	
 641:.\Generated_Source\PSoC5/ETH.c **** #if (5 == 1)
ARM GAS  C:\Users\CHUCK~1.ERH\AppData\Local\Temp\ccWRPeSc.s 			page 30


 642:.\Generated_Source\PSoC5/ETH.c **** 	uint8 sz;
 643:.\Generated_Source\PSoC5/ETH.c **** 	/*
 644:.\Generated_Source\PSoC5/ETH.c **** 	 * The W5100 uses memory allocations within one register for all sockets.
 645:.\Generated_Source\PSoC5/ETH.c **** 	 * the options are set by a 2 bit code for 1, 2, 4, or 8 K
 646:.\Generated_Source\PSoC5/ETH.c **** 	 */
 647:.\Generated_Source\PSoC5/ETH.c **** 		ETH_ChipRead( ETH_REG_RMSR, &sz, 1);
 648:.\Generated_Source\PSoC5/ETH.c **** 		sz = sz & (~(3<<(socket<<1)));
 649:.\Generated_Source\PSoC5/ETH.c **** 		sz = sz | (size<<(socket<<1));
 650:.\Generated_Source\PSoC5/ETH.c **** 		ETH_ChipWrite( ETH_REG_RMSR, &sz, 1);
 651:.\Generated_Source\PSoC5/ETH.c **** #elif ((5 == 2) || (5 == 5))
 652:.\Generated_Source\PSoC5/ETH.c **** 	/*
 653:.\Generated_Source\PSoC5/ETH.c **** 	 * The W5200/W5500 interface uses memory size registers located within the socket
 654:.\Generated_Source\PSoC5/ETH.c **** 	 * register memory maps.
 655:.\Generated_Source\PSoC5/ETH.c **** 	 */
 656:.\Generated_Source\PSoC5/ETH.c **** 	ETH_ChipWrite( ETH_SOCKET_REG(socket,ETH_SOCK_RXMEM), &size, 1);
 1008              		.loc 1 656 0
 1009 000e FA79     		ldrb	r2, [r7, #7]	@ zero_extendqisi2
 1010 0010 40F20003 		movw	r3, #:lower16:ETH_W5500_BSB
 1011 0014 C0F20003 		movt	r3, #:upper16:ETH_W5500_BSB
 1012 0018 53F82230 		ldr	r3, [r3, r2, lsl #2]
 1013 001c 03F11E02 		add	r2, r3, #30
 1014 0020 07F10603 		add	r3, r7, #6
 1015 0024 1046     		mov	r0, r2
 1016 0026 1946     		mov	r1, r3
 1017 0028 4FF00102 		mov	r2, #1
 1018 002c FFF7FEFF 		bl	ETH_ChipWrite
 657:.\Generated_Source\PSoC5/ETH.c **** #endif
 658:.\Generated_Source\PSoC5/ETH.c **** }
 1019              		.loc 1 658 0
 1020 0030 07F10807 		add	r7, r7, #8
 1021 0034 BD46     		mov	sp, r7
 1022 0036 80BD     		pop	{r7, pc}
 1023              		.cfi_endproc
 1024              	.LFE17:
 1025              		.size	ETH_SetSocketRxMemSize, .-ETH_SetSocketRxMemSize
 1026              		.section	.text.ETH_GetSocketRxMemSize,"ax",%progbits
 1027              		.align	2
 1028              		.global	ETH_GetSocketRxMemSize
 1029              		.thumb
 1030              		.thumb_func
 1031              		.type	ETH_GetSocketRxMemSize, %function
 1032              	ETH_GetSocketRxMemSize:
 1033              	.LFB18:
 659:.\Generated_Source\PSoC5/ETH.c **** 
 660:.\Generated_Source\PSoC5/ETH.c **** /* ------------------------------------------------------------------------ */
 661:.\Generated_Source\PSoC5/ETH.c **** /**
 662:.\Generated_Source\PSoC5/ETH.c ****  * \brief Read the contents of hte rx mem size register
 663:.\Generated_Source\PSoC5/ETH.c ****  * \returns the value read from teh register
 664:.\Generated_Source\PSoC5/ETH.c ****  */
 665:.\Generated_Source\PSoC5/ETH.c **** uint8 ETH_GetSocketRxMemSize( uint8 socket )
 666:.\Generated_Source\PSoC5/ETH.c **** {
 1034              		.loc 1 666 0
 1035              		.cfi_startproc
 1036              		@ args = 0, pretend = 0, frame = 16
 1037              		@ frame_needed = 1, uses_anonymous_args = 0
 1038 0000 80B5     		push	{r7, lr}
 1039              	.LCFI52:
ARM GAS  C:\Users\CHUCK~1.ERH\AppData\Local\Temp\ccWRPeSc.s 			page 31


 1040              		.cfi_def_cfa_offset 8
 1041              		.cfi_offset 7, -8
 1042              		.cfi_offset 14, -4
 1043 0002 84B0     		sub	sp, sp, #16
 1044              	.LCFI53:
 1045              		.cfi_def_cfa_offset 24
 1046 0004 00AF     		add	r7, sp, #0
 1047              	.LCFI54:
 1048              		.cfi_def_cfa_register 7
 1049 0006 0346     		mov	r3, r0
 1050 0008 FB71     		strb	r3, [r7, #7]
 667:.\Generated_Source\PSoC5/ETH.c **** 	uint8 sz;
 668:.\Generated_Source\PSoC5/ETH.c **** 	
 669:.\Generated_Source\PSoC5/ETH.c **** 	sz = 0xFF;
 1051              		.loc 1 669 0
 1052 000a 4FF0FF03 		mov	r3, #255
 1053 000e FB73     		strb	r3, [r7, #15]
 670:.\Generated_Source\PSoC5/ETH.c **** #if (5 == 1)
 671:.\Generated_Source\PSoC5/ETH.c **** 	ETH_ChipRead(ETH_REG_RMSR, &sz, 1);
 672:.\Generated_Source\PSoC5/ETH.c **** 	sz = (sz >> (socket<<1)) & 0x03;
 673:.\Generated_Source\PSoC5/ETH.c **** #elif ((5 == 2)||(5 == 5))
 674:.\Generated_Source\PSoC5/ETH.c **** 	ETH_ChipRead( ETH_SOCKET_REG(socket,ETH_SOCK_RXMEM), &sz, 1);
 1054              		.loc 1 674 0
 1055 0010 FA79     		ldrb	r2, [r7, #7]	@ zero_extendqisi2
 1056 0012 40F20003 		movw	r3, #:lower16:ETH_W5500_BSB
 1057 0016 C0F20003 		movt	r3, #:upper16:ETH_W5500_BSB
 1058 001a 53F82230 		ldr	r3, [r3, r2, lsl #2]
 1059 001e 03F11E02 		add	r2, r3, #30
 1060 0022 07F10F03 		add	r3, r7, #15
 1061 0026 1046     		mov	r0, r2
 1062 0028 1946     		mov	r1, r3
 1063 002a 4FF00102 		mov	r2, #1
 1064 002e FFF7FEFF 		bl	ETH_ChipRead
 675:.\Generated_Source\PSoC5/ETH.c **** #endif
 676:.\Generated_Source\PSoC5/ETH.c **** 	return sz;
 1065              		.loc 1 676 0
 1066 0032 FB7B     		ldrb	r3, [r7, #15]	@ zero_extendqisi2
 677:.\Generated_Source\PSoC5/ETH.c **** }
 1067              		.loc 1 677 0
 1068 0034 1846     		mov	r0, r3
 1069 0036 07F11007 		add	r7, r7, #16
 1070 003a BD46     		mov	sp, r7
 1071 003c 80BD     		pop	{r7, pc}
 1072              		.cfi_endproc
 1073              	.LFE18:
 1074              		.size	ETH_GetSocketRxMemSize, .-ETH_GetSocketRxMemSize
 1075              		.section	.text.ETH_SetSocketTxMemSize,"ax",%progbits
 1076              		.align	2
 1077              		.global	ETH_SetSocketTxMemSize
 1078              		.thumb
 1079              		.thumb_func
 1080              		.type	ETH_SetSocketTxMemSize, %function
 1081              	ETH_SetSocketTxMemSize:
 1082              	.LFB19:
 678:.\Generated_Source\PSoC5/ETH.c **** /* ------------------------------------------------------------------------ */
 679:.\Generated_Source\PSoC5/ETH.c **** /**
 680:.\Generated_Source\PSoC5/ETH.c ****  * \brief write a value to the tx mem size register
ARM GAS  C:\Users\CHUCK~1.ERH\AppData\Local\Temp\ccWRPeSc.s 			page 32


 681:.\Generated_Source\PSoC5/ETH.c ****  * \param size The value to be written to the register
 682:.\Generated_Source\PSoC5/ETH.c ****  */
 683:.\Generated_Source\PSoC5/ETH.c **** void ETH_SetSocketTxMemSize( uint8 socket, uint8 size )
 684:.\Generated_Source\PSoC5/ETH.c **** {
 1083              		.loc 1 684 0
 1084              		.cfi_startproc
 1085              		@ args = 0, pretend = 0, frame = 8
 1086              		@ frame_needed = 1, uses_anonymous_args = 0
 1087 0000 80B5     		push	{r7, lr}
 1088              	.LCFI55:
 1089              		.cfi_def_cfa_offset 8
 1090              		.cfi_offset 7, -8
 1091              		.cfi_offset 14, -4
 1092 0002 82B0     		sub	sp, sp, #8
 1093              	.LCFI56:
 1094              		.cfi_def_cfa_offset 16
 1095 0004 00AF     		add	r7, sp, #0
 1096              	.LCFI57:
 1097              		.cfi_def_cfa_register 7
 1098 0006 0246     		mov	r2, r0
 1099 0008 0B46     		mov	r3, r1
 1100 000a FA71     		strb	r2, [r7, #7]
 1101 000c BB71     		strb	r3, [r7, #6]
 685:.\Generated_Source\PSoC5/ETH.c **** 	
 686:.\Generated_Source\PSoC5/ETH.c **** #if (5 == 1)
 687:.\Generated_Source\PSoC5/ETH.c **** 	uint8 sz;
 688:.\Generated_Source\PSoC5/ETH.c **** 	/*
 689:.\Generated_Source\PSoC5/ETH.c **** 	 * The W5100 uses memory allocations within one register for all sockets.
 690:.\Generated_Source\PSoC5/ETH.c **** 	 * the options are set by a 2 bit code for 1, 2, 4, or 8 K
 691:.\Generated_Source\PSoC5/ETH.c **** 	 */
 692:.\Generated_Source\PSoC5/ETH.c **** 		ETH_ChipRead( ETH_REG_TXSR, &sz, 1);
 693:.\Generated_Source\PSoC5/ETH.c **** 		sz = sz & (~(3<<(socket<<1)));
 694:.\Generated_Source\PSoC5/ETH.c **** 		sz = sz | (size<<(socket<<1));
 695:.\Generated_Source\PSoC5/ETH.c **** 		ETH_ChipWrite( ETH_REG_TXSR, &sz, 1);
 696:.\Generated_Source\PSoC5/ETH.c **** #elif ((5 == 2)||(5 == 5))
 697:.\Generated_Source\PSoC5/ETH.c **** 	/*
 698:.\Generated_Source\PSoC5/ETH.c **** 	 * The W5200/W5500 interface uses memory size registers located within the socket
 699:.\Generated_Source\PSoC5/ETH.c **** 	 * register memory maps.
 700:.\Generated_Source\PSoC5/ETH.c **** 	 */
 701:.\Generated_Source\PSoC5/ETH.c **** 	ETH_ChipWrite( ETH_SOCKET_REG(socket,ETH_SOCK_TXMEM), &size, 1);
 1102              		.loc 1 701 0
 1103 000e FA79     		ldrb	r2, [r7, #7]	@ zero_extendqisi2
 1104 0010 40F20003 		movw	r3, #:lower16:ETH_W5500_BSB
 1105 0014 C0F20003 		movt	r3, #:upper16:ETH_W5500_BSB
 1106 0018 53F82230 		ldr	r3, [r3, r2, lsl #2]
 1107 001c 03F11F02 		add	r2, r3, #31
 1108 0020 07F10603 		add	r3, r7, #6
 1109 0024 1046     		mov	r0, r2
 1110 0026 1946     		mov	r1, r3
 1111 0028 4FF00102 		mov	r2, #1
 1112 002c FFF7FEFF 		bl	ETH_ChipWrite
 702:.\Generated_Source\PSoC5/ETH.c **** #endif
 703:.\Generated_Source\PSoC5/ETH.c **** }
 1113              		.loc 1 703 0
 1114 0030 07F10807 		add	r7, r7, #8
 1115 0034 BD46     		mov	sp, r7
 1116 0036 80BD     		pop	{r7, pc}
ARM GAS  C:\Users\CHUCK~1.ERH\AppData\Local\Temp\ccWRPeSc.s 			page 33


 1117              		.cfi_endproc
 1118              	.LFE19:
 1119              		.size	ETH_SetSocketTxMemSize, .-ETH_SetSocketTxMemSize
 1120              		.section	.text.ETH_GetSocketTxMemSize,"ax",%progbits
 1121              		.align	2
 1122              		.global	ETH_GetSocketTxMemSize
 1123              		.thumb
 1124              		.thumb_func
 1125              		.type	ETH_GetSocketTxMemSize, %function
 1126              	ETH_GetSocketTxMemSize:
 1127              	.LFB20:
 704:.\Generated_Source\PSoC5/ETH.c **** /* ------------------------------------------------------------------------ */
 705:.\Generated_Source\PSoC5/ETH.c **** /**
 706:.\Generated_Source\PSoC5/ETH.c ****  * \brief read the contents of the tx mem size register
 707:.\Generated_Source\PSoC5/ETH.c ****  * \returns the value read from the register
 708:.\Generated_Source\PSoC5/ETH.c ****  */
 709:.\Generated_Source\PSoC5/ETH.c **** uint8 ETH_GetSocketTxMemSize( uint8 socket )
 710:.\Generated_Source\PSoC5/ETH.c **** {
 1128              		.loc 1 710 0
 1129              		.cfi_startproc
 1130              		@ args = 0, pretend = 0, frame = 16
 1131              		@ frame_needed = 1, uses_anonymous_args = 0
 1132 0000 80B5     		push	{r7, lr}
 1133              	.LCFI58:
 1134              		.cfi_def_cfa_offset 8
 1135              		.cfi_offset 7, -8
 1136              		.cfi_offset 14, -4
 1137 0002 84B0     		sub	sp, sp, #16
 1138              	.LCFI59:
 1139              		.cfi_def_cfa_offset 24
 1140 0004 00AF     		add	r7, sp, #0
 1141              	.LCFI60:
 1142              		.cfi_def_cfa_register 7
 1143 0006 0346     		mov	r3, r0
 1144 0008 FB71     		strb	r3, [r7, #7]
 711:.\Generated_Source\PSoC5/ETH.c **** 	uint8 sz;
 712:.\Generated_Source\PSoC5/ETH.c **** 	
 713:.\Generated_Source\PSoC5/ETH.c **** 	sz = 0xFF;
 1145              		.loc 1 713 0
 1146 000a 4FF0FF03 		mov	r3, #255
 1147 000e FB73     		strb	r3, [r7, #15]
 714:.\Generated_Source\PSoC5/ETH.c **** #if (5 == 1)
 715:.\Generated_Source\PSoC5/ETH.c **** 	ETH_ChipRead(ETH_REG_TXSR, &sz, 1);
 716:.\Generated_Source\PSoC5/ETH.c **** 	sz = (sz >> (socket<<1)) & 0x03;
 717:.\Generated_Source\PSoC5/ETH.c **** #elif ((5 == 2)||(5 == 5))
 718:.\Generated_Source\PSoC5/ETH.c **** 	ETH_ChipRead( ETH_SOCKET_REG(socket,ETH_SOCK_TXMEM), &sz, 1);
 1148              		.loc 1 718 0
 1149 0010 FA79     		ldrb	r2, [r7, #7]	@ zero_extendqisi2
 1150 0012 40F20003 		movw	r3, #:lower16:ETH_W5500_BSB
 1151 0016 C0F20003 		movt	r3, #:upper16:ETH_W5500_BSB
 1152 001a 53F82230 		ldr	r3, [r3, r2, lsl #2]
 1153 001e 03F11F02 		add	r2, r3, #31
 1154 0022 07F10F03 		add	r3, r7, #15
 1155 0026 1046     		mov	r0, r2
 1156 0028 1946     		mov	r1, r3
 1157 002a 4FF00102 		mov	r2, #1
 1158 002e FFF7FEFF 		bl	ETH_ChipRead
ARM GAS  C:\Users\CHUCK~1.ERH\AppData\Local\Temp\ccWRPeSc.s 			page 34


 719:.\Generated_Source\PSoC5/ETH.c **** #endif
 720:.\Generated_Source\PSoC5/ETH.c **** 	return sz;
 1159              		.loc 1 720 0
 1160 0032 FB7B     		ldrb	r3, [r7, #15]	@ zero_extendqisi2
 721:.\Generated_Source\PSoC5/ETH.c **** }
 1161              		.loc 1 721 0
 1162 0034 1846     		mov	r0, r3
 1163 0036 07F11007 		add	r7, r7, #16
 1164 003a BD46     		mov	sp, r7
 1165 003c 80BD     		pop	{r7, pc}
 1166              		.cfi_endproc
 1167              	.LFE20:
 1168              		.size	ETH_GetSocketTxMemSize, .-ETH_GetSocketTxMemSize
 1169              		.section	.text.ETH_SetSocketMode,"ax",%progbits
 1170              		.align	2
 1171              		.global	ETH_SetSocketMode
 1172              		.thumb
 1173              		.thumb_func
 1174              		.type	ETH_SetSocketMode, %function
 1175              	ETH_SetSocketMode:
 1176              	.LFB21:
 722:.\Generated_Source\PSoC5/ETH.c **** 
 723:.\Generated_Source\PSoC5/ETH.c **** /* ======================================================================== */
 724:.\Generated_Source\PSoC5/ETH.c **** /* End Section */
 725:.\Generated_Source\PSoC5/ETH.c **** #endif
 726:.\Generated_Source\PSoC5/ETH.c **** /* ======================================================================== */
 727:.\Generated_Source\PSoC5/ETH.c **** /* Socket Registers */
 728:.\Generated_Source\PSoC5/ETH.c **** #if (1)
 729:.\Generated_Source\PSoC5/ETH.c **** /* ------------------------------------------------------------------------ */
 730:.\Generated_Source\PSoC5/ETH.c **** /**
 731:.\Generated_Source\PSoC5/ETH.c ****  * \brief Write a value to the socket mode register
 732:.\Generated_Source\PSoC5/ETH.c ****  * \param socket the socket number for the addressed register
 733:.\Generated_Source\PSoC5/ETH.c ****  * \param mode the value to be written to the register
 734:.\Generated_Source\PSoC5/ETH.c ****  */
 735:.\Generated_Source\PSoC5/ETH.c **** void ETH_SetSocketMode(uint8 socket, uint8 mode)
 736:.\Generated_Source\PSoC5/ETH.c **** {
 1177              		.loc 1 736 0
 1178              		.cfi_startproc
 1179              		@ args = 0, pretend = 0, frame = 8
 1180              		@ frame_needed = 1, uses_anonymous_args = 0
 1181 0000 80B5     		push	{r7, lr}
 1182              	.LCFI61:
 1183              		.cfi_def_cfa_offset 8
 1184              		.cfi_offset 7, -8
 1185              		.cfi_offset 14, -4
 1186 0002 82B0     		sub	sp, sp, #8
 1187              	.LCFI62:
 1188              		.cfi_def_cfa_offset 16
 1189 0004 00AF     		add	r7, sp, #0
 1190              	.LCFI63:
 1191              		.cfi_def_cfa_register 7
 1192 0006 0246     		mov	r2, r0
 1193 0008 0B46     		mov	r3, r1
 1194 000a FA71     		strb	r2, [r7, #7]
 1195 000c BB71     		strb	r3, [r7, #6]
 737:.\Generated_Source\PSoC5/ETH.c **** 	ETH_ChipWrite((ETH_SOCKET_REG(socket, ETH_SOCK_MR)),(uint8*)&(mode), 1);
 1196              		.loc 1 737 0
ARM GAS  C:\Users\CHUCK~1.ERH\AppData\Local\Temp\ccWRPeSc.s 			page 35


 1197 000e FA79     		ldrb	r2, [r7, #7]	@ zero_extendqisi2
 1198 0010 40F20003 		movw	r3, #:lower16:ETH_W5500_BSB
 1199 0014 C0F20003 		movt	r3, #:upper16:ETH_W5500_BSB
 1200 0018 53F82220 		ldr	r2, [r3, r2, lsl #2]
 1201 001c 07F10603 		add	r3, r7, #6
 1202 0020 1046     		mov	r0, r2
 1203 0022 1946     		mov	r1, r3
 1204 0024 4FF00102 		mov	r2, #1
 1205 0028 FFF7FEFF 		bl	ETH_ChipWrite
 738:.\Generated_Source\PSoC5/ETH.c **** }
 1206              		.loc 1 738 0
 1207 002c 07F10807 		add	r7, r7, #8
 1208 0030 BD46     		mov	sp, r7
 1209 0032 80BD     		pop	{r7, pc}
 1210              		.cfi_endproc
 1211              	.LFE21:
 1212              		.size	ETH_SetSocketMode, .-ETH_SetSocketMode
 1213              		.section	.text.ETH_SetSocketCommand,"ax",%progbits
 1214              		.align	2
 1215              		.global	ETH_SetSocketCommand
 1216              		.thumb
 1217              		.thumb_func
 1218              		.type	ETH_SetSocketCommand, %function
 1219              	ETH_SetSocketCommand:
 1220              	.LFB22:
 739:.\Generated_Source\PSoC5/ETH.c **** /* ------------------------------------------------------------------------ */
 740:.\Generated_Source\PSoC5/ETH.c **** /**
 741:.\Generated_Source\PSoC5/ETH.c ****  * \brief Write a value to the socket command register
 742:.\Generated_Source\PSoC5/ETH.c ****  * \param socket the socket number for the addressed register
 743:.\Generated_Source\PSoC5/ETH.c ****  * \param cmd the value to be written to the register
 744:.\Generated_Source\PSoC5/ETH.c ****  */
 745:.\Generated_Source\PSoC5/ETH.c **** void ETH_SetSocketCommand(uint8 socket, uint8 cmd)
 746:.\Generated_Source\PSoC5/ETH.c **** {
 1221              		.loc 1 746 0
 1222              		.cfi_startproc
 1223              		@ args = 0, pretend = 0, frame = 8
 1224              		@ frame_needed = 1, uses_anonymous_args = 0
 1225 0000 80B5     		push	{r7, lr}
 1226              	.LCFI64:
 1227              		.cfi_def_cfa_offset 8
 1228              		.cfi_offset 7, -8
 1229              		.cfi_offset 14, -4
 1230 0002 82B0     		sub	sp, sp, #8
 1231              	.LCFI65:
 1232              		.cfi_def_cfa_offset 16
 1233 0004 00AF     		add	r7, sp, #0
 1234              	.LCFI66:
 1235              		.cfi_def_cfa_register 7
 1236 0006 0246     		mov	r2, r0
 1237 0008 0B46     		mov	r3, r1
 1238 000a FA71     		strb	r2, [r7, #7]
 1239 000c BB71     		strb	r3, [r7, #6]
 747:.\Generated_Source\PSoC5/ETH.c **** 	ETH_ChipWrite( (ETH_SOCKET_REG(socket, ETH_SOCK_CR)),(uint8*)&(cmd),1);
 1240              		.loc 1 747 0
 1241 000e FA79     		ldrb	r2, [r7, #7]	@ zero_extendqisi2
 1242 0010 40F20003 		movw	r3, #:lower16:ETH_W5500_BSB
 1243 0014 C0F20003 		movt	r3, #:upper16:ETH_W5500_BSB
ARM GAS  C:\Users\CHUCK~1.ERH\AppData\Local\Temp\ccWRPeSc.s 			page 36


 1244 0018 53F82230 		ldr	r3, [r3, r2, lsl #2]
 1245 001c 03F10102 		add	r2, r3, #1
 1246 0020 07F10603 		add	r3, r7, #6
 1247 0024 1046     		mov	r0, r2
 1248 0026 1946     		mov	r1, r3
 1249 0028 4FF00102 		mov	r2, #1
 1250 002c FFF7FEFF 		bl	ETH_ChipWrite
 748:.\Generated_Source\PSoC5/ETH.c **** }
 1251              		.loc 1 748 0
 1252 0030 07F10807 		add	r7, r7, #8
 1253 0034 BD46     		mov	sp, r7
 1254 0036 80BD     		pop	{r7, pc}
 1255              		.cfi_endproc
 1256              	.LFE22:
 1257              		.size	ETH_SetSocketCommand, .-ETH_SetSocketCommand
 1258              		.section	.text.ETH_GetSocketCommand,"ax",%progbits
 1259              		.align	2
 1260              		.global	ETH_GetSocketCommand
 1261              		.thumb
 1262              		.thumb_func
 1263              		.type	ETH_GetSocketCommand, %function
 1264              	ETH_GetSocketCommand:
 1265              	.LFB23:
 749:.\Generated_Source\PSoC5/ETH.c **** /* ------------------------------------------------------------------------ */
 750:.\Generated_Source\PSoC5/ETH.c **** /**
 751:.\Generated_Source\PSoC5/ETH.c ****  * \brief Read a value from the socket command register
 752:.\Generated_Source\PSoC5/ETH.c ****  * \param socket the socket number for the addressed register
 753:.\Generated_Source\PSoC5/ETH.c ****  * \returns the value read from the register
 754:.\Generated_Source\PSoC5/ETH.c ****  */
 755:.\Generated_Source\PSoC5/ETH.c **** uint8 ETH_GetSocketCommand(uint8 socket )
 756:.\Generated_Source\PSoC5/ETH.c **** {
 1266              		.loc 1 756 0
 1267              		.cfi_startproc
 1268              		@ args = 0, pretend = 0, frame = 16
 1269              		@ frame_needed = 1, uses_anonymous_args = 0
 1270 0000 80B5     		push	{r7, lr}
 1271              	.LCFI67:
 1272              		.cfi_def_cfa_offset 8
 1273              		.cfi_offset 7, -8
 1274              		.cfi_offset 14, -4
 1275 0002 84B0     		sub	sp, sp, #16
 1276              	.LCFI68:
 1277              		.cfi_def_cfa_offset 24
 1278 0004 00AF     		add	r7, sp, #0
 1279              	.LCFI69:
 1280              		.cfi_def_cfa_register 7
 1281 0006 0346     		mov	r3, r0
 1282 0008 FB71     		strb	r3, [r7, #7]
 757:.\Generated_Source\PSoC5/ETH.c **** 	uint8 cmd = 0xFF;
 1283              		.loc 1 757 0
 1284 000a 4FF0FF03 		mov	r3, #255
 1285 000e FB73     		strb	r3, [r7, #15]
 758:.\Generated_Source\PSoC5/ETH.c **** 	ETH_ChipRead( (ETH_SOCKET_REG(socket, ETH_SOCK_CR)),(uint8*)(&cmd),1);
 1286              		.loc 1 758 0
 1287 0010 FA79     		ldrb	r2, [r7, #7]	@ zero_extendqisi2
 1288 0012 40F20003 		movw	r3, #:lower16:ETH_W5500_BSB
 1289 0016 C0F20003 		movt	r3, #:upper16:ETH_W5500_BSB
ARM GAS  C:\Users\CHUCK~1.ERH\AppData\Local\Temp\ccWRPeSc.s 			page 37


 1290 001a 53F82230 		ldr	r3, [r3, r2, lsl #2]
 1291 001e 03F10102 		add	r2, r3, #1
 1292 0022 07F10F03 		add	r3, r7, #15
 1293 0026 1046     		mov	r0, r2
 1294 0028 1946     		mov	r1, r3
 1295 002a 4FF00102 		mov	r2, #1
 1296 002e FFF7FEFF 		bl	ETH_ChipRead
 759:.\Generated_Source\PSoC5/ETH.c **** 	return cmd;
 1297              		.loc 1 759 0
 1298 0032 FB7B     		ldrb	r3, [r7, #15]	@ zero_extendqisi2
 760:.\Generated_Source\PSoC5/ETH.c **** }
 1299              		.loc 1 760 0
 1300 0034 1846     		mov	r0, r3
 1301 0036 07F11007 		add	r7, r7, #16
 1302 003a BD46     		mov	sp, r7
 1303 003c 80BD     		pop	{r7, pc}
 1304              		.cfi_endproc
 1305              	.LFE23:
 1306              		.size	ETH_GetSocketCommand, .-ETH_GetSocketCommand
 1307              		.section	.text.ETH_SetSocketIR,"ax",%progbits
 1308              		.align	2
 1309              		.global	ETH_SetSocketIR
 1310              		.thumb
 1311              		.thumb_func
 1312              		.type	ETH_SetSocketIR, %function
 1313              	ETH_SetSocketIR:
 1314              	.LFB24:
 761:.\Generated_Source\PSoC5/ETH.c **** /* ------------------------------------------------------------------------ */
 762:.\Generated_Source\PSoC5/ETH.c **** /**
 763:.\Generated_Source\PSoC5/ETH.c ****  * \brief Write a value to the socket interrupt register
 764:.\Generated_Source\PSoC5/ETH.c ****  * \param socket the socket number for the addressed register
 765:.\Generated_Source\PSoC5/ETH.c ****  * \param ir the value to be written to the register
 766:.\Generated_Source\PSoC5/ETH.c ****  */
 767:.\Generated_Source\PSoC5/ETH.c **** void ETH_SetSocketIR(uint8 socket, uint8 ir)
 768:.\Generated_Source\PSoC5/ETH.c **** {
 1315              		.loc 1 768 0
 1316              		.cfi_startproc
 1317              		@ args = 0, pretend = 0, frame = 8
 1318              		@ frame_needed = 1, uses_anonymous_args = 0
 1319 0000 80B5     		push	{r7, lr}
 1320              	.LCFI70:
 1321              		.cfi_def_cfa_offset 8
 1322              		.cfi_offset 7, -8
 1323              		.cfi_offset 14, -4
 1324 0002 82B0     		sub	sp, sp, #8
 1325              	.LCFI71:
 1326              		.cfi_def_cfa_offset 16
 1327 0004 00AF     		add	r7, sp, #0
 1328              	.LCFI72:
 1329              		.cfi_def_cfa_register 7
 1330 0006 0246     		mov	r2, r0
 1331 0008 0B46     		mov	r3, r1
 1332 000a FA71     		strb	r2, [r7, #7]
 1333 000c BB71     		strb	r3, [r7, #6]
 769:.\Generated_Source\PSoC5/ETH.c **** 	ETH_ChipWrite( (ETH_SOCKET_REG(socket, ETH_SOCK_IR)), (uint8*)&(ir), 1);
 1334              		.loc 1 769 0
 1335 000e FA79     		ldrb	r2, [r7, #7]	@ zero_extendqisi2
ARM GAS  C:\Users\CHUCK~1.ERH\AppData\Local\Temp\ccWRPeSc.s 			page 38


 1336 0010 40F20003 		movw	r3, #:lower16:ETH_W5500_BSB
 1337 0014 C0F20003 		movt	r3, #:upper16:ETH_W5500_BSB
 1338 0018 53F82230 		ldr	r3, [r3, r2, lsl #2]
 1339 001c 03F10202 		add	r2, r3, #2
 1340 0020 07F10603 		add	r3, r7, #6
 1341 0024 1046     		mov	r0, r2
 1342 0026 1946     		mov	r1, r3
 1343 0028 4FF00102 		mov	r2, #1
 1344 002c FFF7FEFF 		bl	ETH_ChipWrite
 770:.\Generated_Source\PSoC5/ETH.c **** }
 1345              		.loc 1 770 0
 1346 0030 07F10807 		add	r7, r7, #8
 1347 0034 BD46     		mov	sp, r7
 1348 0036 80BD     		pop	{r7, pc}
 1349              		.cfi_endproc
 1350              	.LFE24:
 1351              		.size	ETH_SetSocketIR, .-ETH_SetSocketIR
 1352              		.section	.text.ETH_GetSocketIR,"ax",%progbits
 1353              		.align	2
 1354              		.global	ETH_GetSocketIR
 1355              		.thumb
 1356              		.thumb_func
 1357              		.type	ETH_GetSocketIR, %function
 1358              	ETH_GetSocketIR:
 1359              	.LFB25:
 771:.\Generated_Source\PSoC5/ETH.c **** /* ------------------------------------------------------------------------ */
 772:.\Generated_Source\PSoC5/ETH.c **** /**
 773:.\Generated_Source\PSoC5/ETH.c ****  * \brief Read a value from the socket interrupt register
 774:.\Generated_Source\PSoC5/ETH.c ****  * \param socket the socket number for the addressed register
 775:.\Generated_Source\PSoC5/ETH.c ****  * \returns the value read from the register
 776:.\Generated_Source\PSoC5/ETH.c ****  */
 777:.\Generated_Source\PSoC5/ETH.c **** uint8 ETH_GetSocketIR(uint8 socket)
 778:.\Generated_Source\PSoC5/ETH.c **** {	
 1360              		.loc 1 778 0
 1361              		.cfi_startproc
 1362              		@ args = 0, pretend = 0, frame = 16
 1363              		@ frame_needed = 1, uses_anonymous_args = 0
 1364 0000 80B5     		push	{r7, lr}
 1365              	.LCFI73:
 1366              		.cfi_def_cfa_offset 8
 1367              		.cfi_offset 7, -8
 1368              		.cfi_offset 14, -4
 1369 0002 84B0     		sub	sp, sp, #16
 1370              	.LCFI74:
 1371              		.cfi_def_cfa_offset 24
 1372 0004 00AF     		add	r7, sp, #0
 1373              	.LCFI75:
 1374              		.cfi_def_cfa_register 7
 1375 0006 0346     		mov	r3, r0
 1376 0008 FB71     		strb	r3, [r7, #7]
 779:.\Generated_Source\PSoC5/ETH.c **** 	uint8 ir = 0xFF;
 1377              		.loc 1 779 0
 1378 000a 4FF0FF03 		mov	r3, #255
 1379 000e FB73     		strb	r3, [r7, #15]
 780:.\Generated_Source\PSoC5/ETH.c **** 	ETH_ChipRead((ETH_SOCKET_REG(socket, ETH_SOCK_IR)), (uint8*)&(ir), 1);
 1380              		.loc 1 780 0
 1381 0010 FA79     		ldrb	r2, [r7, #7]	@ zero_extendqisi2
ARM GAS  C:\Users\CHUCK~1.ERH\AppData\Local\Temp\ccWRPeSc.s 			page 39


 1382 0012 40F20003 		movw	r3, #:lower16:ETH_W5500_BSB
 1383 0016 C0F20003 		movt	r3, #:upper16:ETH_W5500_BSB
 1384 001a 53F82230 		ldr	r3, [r3, r2, lsl #2]
 1385 001e 03F10202 		add	r2, r3, #2
 1386 0022 07F10F03 		add	r3, r7, #15
 1387 0026 1046     		mov	r0, r2
 1388 0028 1946     		mov	r1, r3
 1389 002a 4FF00102 		mov	r2, #1
 1390 002e FFF7FEFF 		bl	ETH_ChipRead
 781:.\Generated_Source\PSoC5/ETH.c **** 	return ir;
 1391              		.loc 1 781 0
 1392 0032 FB7B     		ldrb	r3, [r7, #15]	@ zero_extendqisi2
 782:.\Generated_Source\PSoC5/ETH.c **** }
 1393              		.loc 1 782 0
 1394 0034 1846     		mov	r0, r3
 1395 0036 07F11007 		add	r7, r7, #16
 1396 003a BD46     		mov	sp, r7
 1397 003c 80BD     		pop	{r7, pc}
 1398              		.cfi_endproc
 1399              	.LFE25:
 1400              		.size	ETH_GetSocketIR, .-ETH_GetSocketIR
 1401              		.section	.text.ETH_GetSocketStatus,"ax",%progbits
 1402              		.align	2
 1403              		.global	ETH_GetSocketStatus
 1404              		.thumb
 1405              		.thumb_func
 1406              		.type	ETH_GetSocketStatus, %function
 1407              	ETH_GetSocketStatus:
 1408              	.LFB26:
 783:.\Generated_Source\PSoC5/ETH.c **** /* ------------------------------------------------------------------------ */
 784:.\Generated_Source\PSoC5/ETH.c **** /**
 785:.\Generated_Source\PSoC5/ETH.c ****  * \brief Read a value from the socket status register
 786:.\Generated_Source\PSoC5/ETH.c ****  * \param socket the socket number for the addressed register
 787:.\Generated_Source\PSoC5/ETH.c ****  * \returns the value read from the register
 788:.\Generated_Source\PSoC5/ETH.c ****  */
 789:.\Generated_Source\PSoC5/ETH.c **** uint8 ETH_GetSocketStatus(uint8 socket)
 790:.\Generated_Source\PSoC5/ETH.c **** { 
 1409              		.loc 1 790 0
 1410              		.cfi_startproc
 1411              		@ args = 0, pretend = 0, frame = 16
 1412              		@ frame_needed = 1, uses_anonymous_args = 0
 1413 0000 80B5     		push	{r7, lr}
 1414              	.LCFI76:
 1415              		.cfi_def_cfa_offset 8
 1416              		.cfi_offset 7, -8
 1417              		.cfi_offset 14, -4
 1418 0002 84B0     		sub	sp, sp, #16
 1419              	.LCFI77:
 1420              		.cfi_def_cfa_offset 24
 1421 0004 00AF     		add	r7, sp, #0
 1422              	.LCFI78:
 1423              		.cfi_def_cfa_register 7
 1424 0006 0346     		mov	r3, r0
 1425 0008 FB71     		strb	r3, [r7, #7]
 791:.\Generated_Source\PSoC5/ETH.c **** 	uint8 status = 0xFF;
 1426              		.loc 1 791 0
 1427 000a 4FF0FF03 		mov	r3, #255
ARM GAS  C:\Users\CHUCK~1.ERH\AppData\Local\Temp\ccWRPeSc.s 			page 40


 1428 000e FB73     		strb	r3, [r7, #15]
 792:.\Generated_Source\PSoC5/ETH.c **** 	ETH_ChipRead(ETH_SOCKET_REG(socket, ETH_SOCK_SR), &status, 1);
 1429              		.loc 1 792 0
 1430 0010 FA79     		ldrb	r2, [r7, #7]	@ zero_extendqisi2
 1431 0012 40F20003 		movw	r3, #:lower16:ETH_W5500_BSB
 1432 0016 C0F20003 		movt	r3, #:upper16:ETH_W5500_BSB
 1433 001a 53F82230 		ldr	r3, [r3, r2, lsl #2]
 1434 001e 03F10302 		add	r2, r3, #3
 1435 0022 07F10F03 		add	r3, r7, #15
 1436 0026 1046     		mov	r0, r2
 1437 0028 1946     		mov	r1, r3
 1438 002a 4FF00102 		mov	r2, #1
 1439 002e FFF7FEFF 		bl	ETH_ChipRead
 793:.\Generated_Source\PSoC5/ETH.c **** 	return status;
 1440              		.loc 1 793 0
 1441 0032 FB7B     		ldrb	r3, [r7, #15]	@ zero_extendqisi2
 794:.\Generated_Source\PSoC5/ETH.c **** }
 1442              		.loc 1 794 0
 1443 0034 1846     		mov	r0, r3
 1444 0036 07F11007 		add	r7, r7, #16
 1445 003a BD46     		mov	sp, r7
 1446 003c 80BD     		pop	{r7, pc}
 1447              		.cfi_endproc
 1448              	.LFE26:
 1449              		.size	ETH_GetSocketStatus, .-ETH_GetSocketStatus
 1450              		.section	.text.ETH_SetSocketSourcePort,"ax",%progbits
 1451              		.align	2
 1452              		.global	ETH_SetSocketSourcePort
 1453              		.thumb
 1454              		.thumb_func
 1455              		.type	ETH_SetSocketSourcePort, %function
 1456              	ETH_SetSocketSourcePort:
 1457              	.LFB27:
 795:.\Generated_Source\PSoC5/ETH.c **** /* ------------------------------------------------------------------------ */
 796:.\Generated_Source\PSoC5/ETH.c **** /**
 797:.\Generated_Source\PSoC5/ETH.c ****  * \brief Write a value to the socket source port register
 798:.\Generated_Source\PSoC5/ETH.c ****  * \param socket the socket number for the addressed register
 799:.\Generated_Source\PSoC5/ETH.c ****  * \param port the value to be written to the register
 800:.\Generated_Source\PSoC5/ETH.c ****  */
 801:.\Generated_Source\PSoC5/ETH.c **** void ETH_SetSocketSourcePort(uint8 socket, uint16 port)
 802:.\Generated_Source\PSoC5/ETH.c **** {
 1458              		.loc 1 802 0
 1459              		.cfi_startproc
 1460              		@ args = 0, pretend = 0, frame = 8
 1461              		@ frame_needed = 1, uses_anonymous_args = 0
 1462 0000 80B5     		push	{r7, lr}
 1463              	.LCFI79:
 1464              		.cfi_def_cfa_offset 8
 1465              		.cfi_offset 7, -8
 1466              		.cfi_offset 14, -4
 1467 0002 82B0     		sub	sp, sp, #8
 1468              	.LCFI80:
 1469              		.cfi_def_cfa_offset 16
 1470 0004 00AF     		add	r7, sp, #0
 1471              	.LCFI81:
 1472              		.cfi_def_cfa_register 7
 1473 0006 0246     		mov	r2, r0
ARM GAS  C:\Users\CHUCK~1.ERH\AppData\Local\Temp\ccWRPeSc.s 			page 41


 1474 0008 0B46     		mov	r3, r1
 1475 000a FA71     		strb	r2, [r7, #7]
 1476 000c BB80     		strh	r3, [r7, #4]	@ movhi
 803:.\Generated_Source\PSoC5/ETH.c **** 	ETH_ChipWrite16(ETH_SOCKET_REG(socket, ETH_SOCK_PORT),port);
 1477              		.loc 1 803 0
 1478 000e FA79     		ldrb	r2, [r7, #7]	@ zero_extendqisi2
 1479 0010 40F20003 		movw	r3, #:lower16:ETH_W5500_BSB
 1480 0014 C0F20003 		movt	r3, #:upper16:ETH_W5500_BSB
 1481 0018 53F82230 		ldr	r3, [r3, r2, lsl #2]
 1482 001c 03F10402 		add	r2, r3, #4
 1483 0020 BB88     		ldrh	r3, [r7, #4]
 1484 0022 1046     		mov	r0, r2
 1485 0024 1946     		mov	r1, r3
 1486 0026 FFF7FEFF 		bl	ETH_ChipWrite16
 804:.\Generated_Source\PSoC5/ETH.c **** }
 1487              		.loc 1 804 0
 1488 002a 07F10807 		add	r7, r7, #8
 1489 002e BD46     		mov	sp, r7
 1490 0030 80BD     		pop	{r7, pc}
 1491              		.cfi_endproc
 1492              	.LFE27:
 1493              		.size	ETH_SetSocketSourcePort, .-ETH_SetSocketSourcePort
 1494 0032 00BF     		.section	.text.ETH_SetSocketDestMAC,"ax",%progbits
 1495              		.align	2
 1496              		.global	ETH_SetSocketDestMAC
 1497              		.thumb
 1498              		.thumb_func
 1499              		.type	ETH_SetSocketDestMAC, %function
 1500              	ETH_SetSocketDestMAC:
 1501              	.LFB28:
 805:.\Generated_Source\PSoC5/ETH.c **** /* ------------------------------------------------------------------------ */
 806:.\Generated_Source\PSoC5/ETH.c **** /**
 807:.\Generated_Source\PSoC5/ETH.c ****  * \brief Write a value to the socket Destination hardware address register
 808:.\Generated_Source\PSoC5/ETH.c ****  * \param socket the socket number for the addressed register
 809:.\Generated_Source\PSoC5/ETH.c ****  * \param *mac poitner to the array holding the values to be written to the register
 810:.\Generated_Source\PSoC5/ETH.c ****  */
 811:.\Generated_Source\PSoC5/ETH.c **** void ETH_SetSocketDestMAC(uint8 socket, uint8* mac)
 812:.\Generated_Source\PSoC5/ETH.c **** { 
 1502              		.loc 1 812 0
 1503              		.cfi_startproc
 1504              		@ args = 0, pretend = 0, frame = 8
 1505              		@ frame_needed = 1, uses_anonymous_args = 0
 1506 0000 80B5     		push	{r7, lr}
 1507              	.LCFI82:
 1508              		.cfi_def_cfa_offset 8
 1509              		.cfi_offset 7, -8
 1510              		.cfi_offset 14, -4
 1511 0002 82B0     		sub	sp, sp, #8
 1512              	.LCFI83:
 1513              		.cfi_def_cfa_offset 16
 1514 0004 00AF     		add	r7, sp, #0
 1515              	.LCFI84:
 1516              		.cfi_def_cfa_register 7
 1517 0006 0346     		mov	r3, r0
 1518 0008 3960     		str	r1, [r7, #0]
 1519 000a FB71     		strb	r3, [r7, #7]
 813:.\Generated_Source\PSoC5/ETH.c **** 	ETH_ChipWrite( ETH_SOCKET_REG(socket, ETH_SOCK_DHAR), &mac[0], 6);
ARM GAS  C:\Users\CHUCK~1.ERH\AppData\Local\Temp\ccWRPeSc.s 			page 42


 1520              		.loc 1 813 0
 1521 000c FA79     		ldrb	r2, [r7, #7]	@ zero_extendqisi2
 1522 000e 40F20003 		movw	r3, #:lower16:ETH_W5500_BSB
 1523 0012 C0F20003 		movt	r3, #:upper16:ETH_W5500_BSB
 1524 0016 53F82230 		ldr	r3, [r3, r2, lsl #2]
 1525 001a 03F10603 		add	r3, r3, #6
 1526 001e 1846     		mov	r0, r3
 1527 0020 3968     		ldr	r1, [r7, #0]
 1528 0022 4FF00602 		mov	r2, #6
 1529 0026 FFF7FEFF 		bl	ETH_ChipWrite
 814:.\Generated_Source\PSoC5/ETH.c **** }
 1530              		.loc 1 814 0
 1531 002a 07F10807 		add	r7, r7, #8
 1532 002e BD46     		mov	sp, r7
 1533 0030 80BD     		pop	{r7, pc}
 1534              		.cfi_endproc
 1535              	.LFE28:
 1536              		.size	ETH_SetSocketDestMAC, .-ETH_SetSocketDestMAC
 1537 0032 00BF     		.section	.text.ETH_SetSocketDestIP,"ax",%progbits
 1538              		.align	2
 1539              		.global	ETH_SetSocketDestIP
 1540              		.thumb
 1541              		.thumb_func
 1542              		.type	ETH_SetSocketDestIP, %function
 1543              	ETH_SetSocketDestIP:
 1544              	.LFB29:
 815:.\Generated_Source\PSoC5/ETH.c **** /* ------------------------------------------------------------------------ */
 816:.\Generated_Source\PSoC5/ETH.c **** /**
 817:.\Generated_Source\PSoC5/ETH.c ****  * \brief Write a value to the socket Destination IP address register
 818:.\Generated_Source\PSoC5/ETH.c ****  * \param socket the socket number for the addressed register
 819:.\Generated_Source\PSoC5/ETH.c ****  * \param ip the value to be written to the register
 820:.\Generated_Source\PSoC5/ETH.c ****  */
 821:.\Generated_Source\PSoC5/ETH.c **** void ETH_SetSocketDestIP(uint8 socket, uint32 ip)
 822:.\Generated_Source\PSoC5/ETH.c **** { 
 1545              		.loc 1 822 0
 1546              		.cfi_startproc
 1547              		@ args = 0, pretend = 0, frame = 8
 1548              		@ frame_needed = 1, uses_anonymous_args = 0
 1549 0000 80B5     		push	{r7, lr}
 1550              	.LCFI85:
 1551              		.cfi_def_cfa_offset 8
 1552              		.cfi_offset 7, -8
 1553              		.cfi_offset 14, -4
 1554 0002 82B0     		sub	sp, sp, #8
 1555              	.LCFI86:
 1556              		.cfi_def_cfa_offset 16
 1557 0004 00AF     		add	r7, sp, #0
 1558              	.LCFI87:
 1559              		.cfi_def_cfa_register 7
 1560 0006 0346     		mov	r3, r0
 1561 0008 3960     		str	r1, [r7, #0]
 1562 000a FB71     		strb	r3, [r7, #7]
 823:.\Generated_Source\PSoC5/ETH.c **** 	ETH_ChipWrite(ETH_SOCKET_REG(socket, ETH_SOCK_DIPR), (uint8*)&ip, 4);
 1563              		.loc 1 823 0
 1564 000c FA79     		ldrb	r2, [r7, #7]	@ zero_extendqisi2
 1565 000e 40F20003 		movw	r3, #:lower16:ETH_W5500_BSB
 1566 0012 C0F20003 		movt	r3, #:upper16:ETH_W5500_BSB
ARM GAS  C:\Users\CHUCK~1.ERH\AppData\Local\Temp\ccWRPeSc.s 			page 43


 1567 0016 53F82230 		ldr	r3, [r3, r2, lsl #2]
 1568 001a 03F10C02 		add	r2, r3, #12
 1569 001e 3B46     		mov	r3, r7
 1570 0020 1046     		mov	r0, r2
 1571 0022 1946     		mov	r1, r3
 1572 0024 4FF00402 		mov	r2, #4
 1573 0028 FFF7FEFF 		bl	ETH_ChipWrite
 824:.\Generated_Source\PSoC5/ETH.c **** }
 1574              		.loc 1 824 0
 1575 002c 07F10807 		add	r7, r7, #8
 1576 0030 BD46     		mov	sp, r7
 1577 0032 80BD     		pop	{r7, pc}
 1578              		.cfi_endproc
 1579              	.LFE29:
 1580              		.size	ETH_SetSocketDestIP, .-ETH_SetSocketDestIP
 1581              		.section	.text.ETH_SetSocketDestPort,"ax",%progbits
 1582              		.align	2
 1583              		.global	ETH_SetSocketDestPort
 1584              		.thumb
 1585              		.thumb_func
 1586              		.type	ETH_SetSocketDestPort, %function
 1587              	ETH_SetSocketDestPort:
 1588              	.LFB30:
 825:.\Generated_Source\PSoC5/ETH.c **** /* ------------------------------------------------------------------------ */
 826:.\Generated_Source\PSoC5/ETH.c **** /**
 827:.\Generated_Source\PSoC5/ETH.c ****  * \brief Write a value to the socket destination port register
 828:.\Generated_Source\PSoC5/ETH.c ****  * \param socket the socket number for the addressed register
 829:.\Generated_Source\PSoC5/ETH.c ****  * \param port the value to be written to the register
 830:.\Generated_Source\PSoC5/ETH.c ****  */
 831:.\Generated_Source\PSoC5/ETH.c **** void ETH_SetSocketDestPort(uint8 socket, uint16 port)
 832:.\Generated_Source\PSoC5/ETH.c **** { 
 1589              		.loc 1 832 0
 1590              		.cfi_startproc
 1591              		@ args = 0, pretend = 0, frame = 8
 1592              		@ frame_needed = 1, uses_anonymous_args = 0
 1593 0000 80B5     		push	{r7, lr}
 1594              	.LCFI88:
 1595              		.cfi_def_cfa_offset 8
 1596              		.cfi_offset 7, -8
 1597              		.cfi_offset 14, -4
 1598 0002 82B0     		sub	sp, sp, #8
 1599              	.LCFI89:
 1600              		.cfi_def_cfa_offset 16
 1601 0004 00AF     		add	r7, sp, #0
 1602              	.LCFI90:
 1603              		.cfi_def_cfa_register 7
 1604 0006 0246     		mov	r2, r0
 1605 0008 0B46     		mov	r3, r1
 1606 000a FA71     		strb	r2, [r7, #7]
 1607 000c BB80     		strh	r3, [r7, #4]	@ movhi
 833:.\Generated_Source\PSoC5/ETH.c **** 	ETH_ChipWrite16( ETH_SOCKET_REG(socket, ETH_SOCK_DPORT), port);
 1608              		.loc 1 833 0
 1609 000e FA79     		ldrb	r2, [r7, #7]	@ zero_extendqisi2
 1610 0010 40F20003 		movw	r3, #:lower16:ETH_W5500_BSB
 1611 0014 C0F20003 		movt	r3, #:upper16:ETH_W5500_BSB
 1612 0018 53F82230 		ldr	r3, [r3, r2, lsl #2]
 1613 001c 03F11002 		add	r2, r3, #16
ARM GAS  C:\Users\CHUCK~1.ERH\AppData\Local\Temp\ccWRPeSc.s 			page 44


 1614 0020 BB88     		ldrh	r3, [r7, #4]
 1615 0022 1046     		mov	r0, r2
 1616 0024 1946     		mov	r1, r3
 1617 0026 FFF7FEFF 		bl	ETH_ChipWrite16
 834:.\Generated_Source\PSoC5/ETH.c **** }
 1618              		.loc 1 834 0
 1619 002a 07F10807 		add	r7, r7, #8
 1620 002e BD46     		mov	sp, r7
 1621 0030 80BD     		pop	{r7, pc}
 1622              		.cfi_endproc
 1623              	.LFE30:
 1624              		.size	ETH_SetSocketDestPort, .-ETH_SetSocketDestPort
 1625 0032 00BF     		.section	.text.ETH_GetSocketTxFree,"ax",%progbits
 1626              		.align	2
 1627              		.global	ETH_GetSocketTxFree
 1628              		.thumb
 1629              		.thumb_func
 1630              		.type	ETH_GetSocketTxFree, %function
 1631              	ETH_GetSocketTxFree:
 1632              	.LFB31:
 835:.\Generated_Source\PSoC5/ETH.c **** /* ------------------------------------------------------------------------ */
 836:.\Generated_Source\PSoC5/ETH.c **** /**
 837:.\Generated_Source\PSoC5/ETH.c ****  * \brief Read a value from the socket Tx free size register
 838:.\Generated_Source\PSoC5/ETH.c ****  * \param socket the socket number for the addressed register
 839:.\Generated_Source\PSoC5/ETH.c ****  * \returns the value read from the register
 840:.\Generated_Source\PSoC5/ETH.c ****  */
 841:.\Generated_Source\PSoC5/ETH.c **** uint16 ETH_GetSocketTxFree(uint8 socket)
 842:.\Generated_Source\PSoC5/ETH.c **** { 
 1633              		.loc 1 842 0
 1634              		.cfi_startproc
 1635              		@ args = 0, pretend = 0, frame = 8
 1636              		@ frame_needed = 1, uses_anonymous_args = 0
 1637 0000 80B5     		push	{r7, lr}
 1638              	.LCFI91:
 1639              		.cfi_def_cfa_offset 8
 1640              		.cfi_offset 7, -8
 1641              		.cfi_offset 14, -4
 1642 0002 82B0     		sub	sp, sp, #8
 1643              	.LCFI92:
 1644              		.cfi_def_cfa_offset 16
 1645 0004 00AF     		add	r7, sp, #0
 1646              	.LCFI93:
 1647              		.cfi_def_cfa_register 7
 1648 0006 0346     		mov	r3, r0
 1649 0008 FB71     		strb	r3, [r7, #7]
 843:.\Generated_Source\PSoC5/ETH.c **** 	return ETH_ChipRead16(ETH_SOCKET_REG(socket, ETH_SOCK_TXFSR));
 1650              		.loc 1 843 0
 1651 000a FA79     		ldrb	r2, [r7, #7]	@ zero_extendqisi2
 1652 000c 40F20003 		movw	r3, #:lower16:ETH_W5500_BSB
 1653 0010 C0F20003 		movt	r3, #:upper16:ETH_W5500_BSB
 1654 0014 53F82230 		ldr	r3, [r3, r2, lsl #2]
 1655 0018 03F12003 		add	r3, r3, #32
 1656 001c 1846     		mov	r0, r3
 1657 001e FFF7FEFF 		bl	ETH_ChipRead16
 1658 0022 0346     		mov	r3, r0
 844:.\Generated_Source\PSoC5/ETH.c **** }
 1659              		.loc 1 844 0
ARM GAS  C:\Users\CHUCK~1.ERH\AppData\Local\Temp\ccWRPeSc.s 			page 45


 1660 0024 1846     		mov	r0, r3
 1661 0026 07F10807 		add	r7, r7, #8
 1662 002a BD46     		mov	sp, r7
 1663 002c 80BD     		pop	{r7, pc}
 1664              		.cfi_endproc
 1665              	.LFE31:
 1666              		.size	ETH_GetSocketTxFree, .-ETH_GetSocketTxFree
 1667 002e 00BF     		.section	.text.ETH_SetSocketTxWritePtr,"ax",%progbits
 1668              		.align	2
 1669              		.global	ETH_SetSocketTxWritePtr
 1670              		.thumb
 1671              		.thumb_func
 1672              		.type	ETH_SetSocketTxWritePtr, %function
 1673              	ETH_SetSocketTxWritePtr:
 1674              	.LFB32:
 845:.\Generated_Source\PSoC5/ETH.c **** /* ------------------------------------------------------------------------ */
 846:.\Generated_Source\PSoC5/ETH.c **** /**
 847:.\Generated_Source\PSoC5/ETH.c ****  * \brief Write a value to the socket tx write pointer register
 848:.\Generated_Source\PSoC5/ETH.c ****  * \param socket the socket number for the addressed register
 849:.\Generated_Source\PSoC5/ETH.c ****  * \param ptr the value to be written to the register
 850:.\Generated_Source\PSoC5/ETH.c ****  */
 851:.\Generated_Source\PSoC5/ETH.c **** void ETH_SetSocketTxWritePtr(uint8 socket, uint16 ptr)
 852:.\Generated_Source\PSoC5/ETH.c **** { 
 1675              		.loc 1 852 0
 1676              		.cfi_startproc
 1677              		@ args = 0, pretend = 0, frame = 8
 1678              		@ frame_needed = 1, uses_anonymous_args = 0
 1679 0000 80B5     		push	{r7, lr}
 1680              	.LCFI94:
 1681              		.cfi_def_cfa_offset 8
 1682              		.cfi_offset 7, -8
 1683              		.cfi_offset 14, -4
 1684 0002 82B0     		sub	sp, sp, #8
 1685              	.LCFI95:
 1686              		.cfi_def_cfa_offset 16
 1687 0004 00AF     		add	r7, sp, #0
 1688              	.LCFI96:
 1689              		.cfi_def_cfa_register 7
 1690 0006 0246     		mov	r2, r0
 1691 0008 0B46     		mov	r3, r1
 1692 000a FA71     		strb	r2, [r7, #7]
 1693 000c BB80     		strh	r3, [r7, #4]	@ movhi
 853:.\Generated_Source\PSoC5/ETH.c **** 	ETH_ChipWrite16(ETH_SOCKET_REG(socket, ETH_SOCK_TXWR),ptr);
 1694              		.loc 1 853 0
 1695 000e FA79     		ldrb	r2, [r7, #7]	@ zero_extendqisi2
 1696 0010 40F20003 		movw	r3, #:lower16:ETH_W5500_BSB
 1697 0014 C0F20003 		movt	r3, #:upper16:ETH_W5500_BSB
 1698 0018 53F82230 		ldr	r3, [r3, r2, lsl #2]
 1699 001c 03F12402 		add	r2, r3, #36
 1700 0020 BB88     		ldrh	r3, [r7, #4]
 1701 0022 1046     		mov	r0, r2
 1702 0024 1946     		mov	r1, r3
 1703 0026 FFF7FEFF 		bl	ETH_ChipWrite16
 854:.\Generated_Source\PSoC5/ETH.c **** }
 1704              		.loc 1 854 0
 1705 002a 07F10807 		add	r7, r7, #8
 1706 002e BD46     		mov	sp, r7
ARM GAS  C:\Users\CHUCK~1.ERH\AppData\Local\Temp\ccWRPeSc.s 			page 46


 1707 0030 80BD     		pop	{r7, pc}
 1708              		.cfi_endproc
 1709              	.LFE32:
 1710              		.size	ETH_SetSocketTxWritePtr, .-ETH_SetSocketTxWritePtr
 1711 0032 00BF     		.section	.text.ETH_GetSocketTxWritePtr,"ax",%progbits
 1712              		.align	2
 1713              		.global	ETH_GetSocketTxWritePtr
 1714              		.thumb
 1715              		.thumb_func
 1716              		.type	ETH_GetSocketTxWritePtr, %function
 1717              	ETH_GetSocketTxWritePtr:
 1718              	.LFB33:
 855:.\Generated_Source\PSoC5/ETH.c **** /* ------------------------------------------------------------------------ */
 856:.\Generated_Source\PSoC5/ETH.c **** /**
 857:.\Generated_Source\PSoC5/ETH.c ****  * \brief Read a value from the socket tx buffer write pointer register
 858:.\Generated_Source\PSoC5/ETH.c ****  * \param socket the socket number for the addressed register
 859:.\Generated_Source\PSoC5/ETH.c ****  * \returns the value read from the register
 860:.\Generated_Source\PSoC5/ETH.c ****  */
 861:.\Generated_Source\PSoC5/ETH.c **** uint16 ETH_GetSocketTxWritePtr(uint8 socket)
 862:.\Generated_Source\PSoC5/ETH.c **** { 
 1719              		.loc 1 862 0
 1720              		.cfi_startproc
 1721              		@ args = 0, pretend = 0, frame = 8
 1722              		@ frame_needed = 1, uses_anonymous_args = 0
 1723 0000 80B5     		push	{r7, lr}
 1724              	.LCFI97:
 1725              		.cfi_def_cfa_offset 8
 1726              		.cfi_offset 7, -8
 1727              		.cfi_offset 14, -4
 1728 0002 82B0     		sub	sp, sp, #8
 1729              	.LCFI98:
 1730              		.cfi_def_cfa_offset 16
 1731 0004 00AF     		add	r7, sp, #0
 1732              	.LCFI99:
 1733              		.cfi_def_cfa_register 7
 1734 0006 0346     		mov	r3, r0
 1735 0008 FB71     		strb	r3, [r7, #7]
 863:.\Generated_Source\PSoC5/ETH.c **** 	return ETH_ChipRead16(ETH_SOCKET_REG(socket, ETH_SOCK_TXWR));
 1736              		.loc 1 863 0
 1737 000a FA79     		ldrb	r2, [r7, #7]	@ zero_extendqisi2
 1738 000c 40F20003 		movw	r3, #:lower16:ETH_W5500_BSB
 1739 0010 C0F20003 		movt	r3, #:upper16:ETH_W5500_BSB
 1740 0014 53F82230 		ldr	r3, [r3, r2, lsl #2]
 1741 0018 03F12403 		add	r3, r3, #36
 1742 001c 1846     		mov	r0, r3
 1743 001e FFF7FEFF 		bl	ETH_ChipRead16
 1744 0022 0346     		mov	r3, r0
 864:.\Generated_Source\PSoC5/ETH.c **** }
 1745              		.loc 1 864 0
 1746 0024 1846     		mov	r0, r3
 1747 0026 07F10807 		add	r7, r7, #8
 1748 002a BD46     		mov	sp, r7
 1749 002c 80BD     		pop	{r7, pc}
 1750              		.cfi_endproc
 1751              	.LFE33:
 1752              		.size	ETH_GetSocketTxWritePtr, .-ETH_GetSocketTxWritePtr
 1753 002e 00BF     		.section	.text.ETH_GetSocketRxSize,"ax",%progbits
ARM GAS  C:\Users\CHUCK~1.ERH\AppData\Local\Temp\ccWRPeSc.s 			page 47


 1754              		.align	2
 1755              		.global	ETH_GetSocketRxSize
 1756              		.thumb
 1757              		.thumb_func
 1758              		.type	ETH_GetSocketRxSize, %function
 1759              	ETH_GetSocketRxSize:
 1760              	.LFB34:
 865:.\Generated_Source\PSoC5/ETH.c **** /* ------------------------------------------------------------------------ */
 866:.\Generated_Source\PSoC5/ETH.c **** /**
 867:.\Generated_Source\PSoC5/ETH.c ****  * \brief Read a value from the socket rx received data size register
 868:.\Generated_Source\PSoC5/ETH.c ****  * \param socket the socket number for the addressed register
 869:.\Generated_Source\PSoC5/ETH.c ****  * \returns the value read from the register
 870:.\Generated_Source\PSoC5/ETH.c ****  */
 871:.\Generated_Source\PSoC5/ETH.c **** uint16 ETH_GetSocketRxSize(uint8 socket)
 872:.\Generated_Source\PSoC5/ETH.c **** {
 1761              		.loc 1 872 0
 1762              		.cfi_startproc
 1763              		@ args = 0, pretend = 0, frame = 8
 1764              		@ frame_needed = 1, uses_anonymous_args = 0
 1765 0000 80B5     		push	{r7, lr}
 1766              	.LCFI100:
 1767              		.cfi_def_cfa_offset 8
 1768              		.cfi_offset 7, -8
 1769              		.cfi_offset 14, -4
 1770 0002 82B0     		sub	sp, sp, #8
 1771              	.LCFI101:
 1772              		.cfi_def_cfa_offset 16
 1773 0004 00AF     		add	r7, sp, #0
 1774              	.LCFI102:
 1775              		.cfi_def_cfa_register 7
 1776 0006 0346     		mov	r3, r0
 1777 0008 FB71     		strb	r3, [r7, #7]
 873:.\Generated_Source\PSoC5/ETH.c **** 	return ETH_ChipRead16(ETH_SOCKET_REG(socket, ETH_SOCK_RXRSR));
 1778              		.loc 1 873 0
 1779 000a FA79     		ldrb	r2, [r7, #7]	@ zero_extendqisi2
 1780 000c 40F20003 		movw	r3, #:lower16:ETH_W5500_BSB
 1781 0010 C0F20003 		movt	r3, #:upper16:ETH_W5500_BSB
 1782 0014 53F82230 		ldr	r3, [r3, r2, lsl #2]
 1783 0018 03F12603 		add	r3, r3, #38
 1784 001c 1846     		mov	r0, r3
 1785 001e FFF7FEFF 		bl	ETH_ChipRead16
 1786 0022 0346     		mov	r3, r0
 874:.\Generated_Source\PSoC5/ETH.c **** }
 1787              		.loc 1 874 0
 1788 0024 1846     		mov	r0, r3
 1789 0026 07F10807 		add	r7, r7, #8
 1790 002a BD46     		mov	sp, r7
 1791 002c 80BD     		pop	{r7, pc}
 1792              		.cfi_endproc
 1793              	.LFE34:
 1794              		.size	ETH_GetSocketRxSize, .-ETH_GetSocketRxSize
 1795 002e 00BF     		.section	.text.ETH_SetSocketRxReadPtr,"ax",%progbits
 1796              		.align	2
 1797              		.global	ETH_SetSocketRxReadPtr
 1798              		.thumb
 1799              		.thumb_func
 1800              		.type	ETH_SetSocketRxReadPtr, %function
ARM GAS  C:\Users\CHUCK~1.ERH\AppData\Local\Temp\ccWRPeSc.s 			page 48


 1801              	ETH_SetSocketRxReadPtr:
 1802              	.LFB35:
 875:.\Generated_Source\PSoC5/ETH.c **** /* ------------------------------------------------------------------------ */
 876:.\Generated_Source\PSoC5/ETH.c **** /**
 877:.\Generated_Source\PSoC5/ETH.c ****  * \brief Write a value to the socket rx read pointer register
 878:.\Generated_Source\PSoC5/ETH.c ****  * \param socket the socket number for the addressed register
 879:.\Generated_Source\PSoC5/ETH.c ****  * \param ptr the value to be written to the register
 880:.\Generated_Source\PSoC5/ETH.c ****  */
 881:.\Generated_Source\PSoC5/ETH.c **** void ETH_SetSocketRxReadPtr(uint8 socket, uint16 ptr)
 882:.\Generated_Source\PSoC5/ETH.c **** { 
 1803              		.loc 1 882 0
 1804              		.cfi_startproc
 1805              		@ args = 0, pretend = 0, frame = 8
 1806              		@ frame_needed = 1, uses_anonymous_args = 0
 1807 0000 80B5     		push	{r7, lr}
 1808              	.LCFI103:
 1809              		.cfi_def_cfa_offset 8
 1810              		.cfi_offset 7, -8
 1811              		.cfi_offset 14, -4
 1812 0002 82B0     		sub	sp, sp, #8
 1813              	.LCFI104:
 1814              		.cfi_def_cfa_offset 16
 1815 0004 00AF     		add	r7, sp, #0
 1816              	.LCFI105:
 1817              		.cfi_def_cfa_register 7
 1818 0006 0246     		mov	r2, r0
 1819 0008 0B46     		mov	r3, r1
 1820 000a FA71     		strb	r2, [r7, #7]
 1821 000c BB80     		strh	r3, [r7, #4]	@ movhi
 883:.\Generated_Source\PSoC5/ETH.c **** 	ETH_ChipWrite16(ETH_SOCKET_REG(socket, ETH_SOCK_RXRD),ptr);
 1822              		.loc 1 883 0
 1823 000e FA79     		ldrb	r2, [r7, #7]	@ zero_extendqisi2
 1824 0010 40F20003 		movw	r3, #:lower16:ETH_W5500_BSB
 1825 0014 C0F20003 		movt	r3, #:upper16:ETH_W5500_BSB
 1826 0018 53F82230 		ldr	r3, [r3, r2, lsl #2]
 1827 001c 03F12802 		add	r2, r3, #40
 1828 0020 BB88     		ldrh	r3, [r7, #4]
 1829 0022 1046     		mov	r0, r2
 1830 0024 1946     		mov	r1, r3
 1831 0026 FFF7FEFF 		bl	ETH_ChipWrite16
 884:.\Generated_Source\PSoC5/ETH.c **** }
 1832              		.loc 1 884 0
 1833 002a 07F10807 		add	r7, r7, #8
 1834 002e BD46     		mov	sp, r7
 1835 0030 80BD     		pop	{r7, pc}
 1836              		.cfi_endproc
 1837              	.LFE35:
 1838              		.size	ETH_SetSocketRxReadPtr, .-ETH_SetSocketRxReadPtr
 1839 0032 00BF     		.section	.text.ETH_GetSocketRxReadPtr,"ax",%progbits
 1840              		.align	2
 1841              		.global	ETH_GetSocketRxReadPtr
 1842              		.thumb
 1843              		.thumb_func
 1844              		.type	ETH_GetSocketRxReadPtr, %function
 1845              	ETH_GetSocketRxReadPtr:
 1846              	.LFB36:
 885:.\Generated_Source\PSoC5/ETH.c **** /* ------------------------------------------------------------------------ */
ARM GAS  C:\Users\CHUCK~1.ERH\AppData\Local\Temp\ccWRPeSc.s 			page 49


 886:.\Generated_Source\PSoC5/ETH.c **** /**
 887:.\Generated_Source\PSoC5/ETH.c ****  * \brief Read a value from the socket rx buffer read pointer register
 888:.\Generated_Source\PSoC5/ETH.c ****  * \param socket the socket number for the addressed register
 889:.\Generated_Source\PSoC5/ETH.c ****  * \returns the value read from the register
 890:.\Generated_Source\PSoC5/ETH.c ****  */
 891:.\Generated_Source\PSoC5/ETH.c **** uint16 ETH_GetSocketRxReadPtr(uint8 socket)
 892:.\Generated_Source\PSoC5/ETH.c **** { 
 1847              		.loc 1 892 0
 1848              		.cfi_startproc
 1849              		@ args = 0, pretend = 0, frame = 8
 1850              		@ frame_needed = 1, uses_anonymous_args = 0
 1851 0000 80B5     		push	{r7, lr}
 1852              	.LCFI106:
 1853              		.cfi_def_cfa_offset 8
 1854              		.cfi_offset 7, -8
 1855              		.cfi_offset 14, -4
 1856 0002 82B0     		sub	sp, sp, #8
 1857              	.LCFI107:
 1858              		.cfi_def_cfa_offset 16
 1859 0004 00AF     		add	r7, sp, #0
 1860              	.LCFI108:
 1861              		.cfi_def_cfa_register 7
 1862 0006 0346     		mov	r3, r0
 1863 0008 FB71     		strb	r3, [r7, #7]
 893:.\Generated_Source\PSoC5/ETH.c **** 	return ETH_ChipRead16(ETH_SOCKET_REG(socket, ETH_SOCK_RXRD));
 1864              		.loc 1 893 0
 1865 000a FA79     		ldrb	r2, [r7, #7]	@ zero_extendqisi2
 1866 000c 40F20003 		movw	r3, #:lower16:ETH_W5500_BSB
 1867 0010 C0F20003 		movt	r3, #:upper16:ETH_W5500_BSB
 1868 0014 53F82230 		ldr	r3, [r3, r2, lsl #2]
 1869 0018 03F12803 		add	r3, r3, #40
 1870 001c 1846     		mov	r0, r3
 1871 001e FFF7FEFF 		bl	ETH_ChipRead16
 1872 0022 0346     		mov	r3, r0
 894:.\Generated_Source\PSoC5/ETH.c **** }
 1873              		.loc 1 894 0
 1874 0024 1846     		mov	r0, r3
 1875 0026 07F10807 		add	r7, r7, #8
 1876 002a BD46     		mov	sp, r7
 1877 002c 80BD     		pop	{r7, pc}
 1878              		.cfi_endproc
 1879              	.LFE36:
 1880              		.size	ETH_GetSocketRxReadPtr, .-ETH_GetSocketRxReadPtr
 1881 002e 00BF     		.section	.text.ETH_SetSocketRxWritePtr,"ax",%progbits
 1882              		.align	2
 1883              		.global	ETH_SetSocketRxWritePtr
 1884              		.thumb
 1885              		.thumb_func
 1886              		.type	ETH_SetSocketRxWritePtr, %function
 1887              	ETH_SetSocketRxWritePtr:
 1888              	.LFB37:
 895:.\Generated_Source\PSoC5/ETH.c **** /* ------------------------------------------------------------------------ */
 896:.\Generated_Source\PSoC5/ETH.c **** /**
 897:.\Generated_Source\PSoC5/ETH.c ****  * \brief Set the write poitner starting address for a socket
 898:.\Generated_Source\PSoC5/ETH.c ****  * \param socket the socket number to modify
 899:.\Generated_Source\PSoC5/ETH.c ****  * \param ptr the address value to write in to the pointer register
 900:.\Generated_Source\PSoC5/ETH.c ****  */
ARM GAS  C:\Users\CHUCK~1.ERH\AppData\Local\Temp\ccWRPeSc.s 			page 50


 901:.\Generated_Source\PSoC5/ETH.c **** void ETH_SetSocketRxWritePtr( uint8 socket, uint16 ptr)
 902:.\Generated_Source\PSoC5/ETH.c **** {
 1889              		.loc 1 902 0
 1890              		.cfi_startproc
 1891              		@ args = 0, pretend = 0, frame = 8
 1892              		@ frame_needed = 1, uses_anonymous_args = 0
 1893              		@ link register save eliminated.
 1894 0000 80B4     		push	{r7}
 1895              	.LCFI109:
 1896              		.cfi_def_cfa_offset 4
 1897              		.cfi_offset 7, -4
 1898 0002 83B0     		sub	sp, sp, #12
 1899              	.LCFI110:
 1900              		.cfi_def_cfa_offset 16
 1901 0004 00AF     		add	r7, sp, #0
 1902              	.LCFI111:
 1903              		.cfi_def_cfa_register 7
 1904 0006 0246     		mov	r2, r0
 1905 0008 0B46     		mov	r3, r1
 1906 000a FA71     		strb	r2, [r7, #7]
 1907 000c BB80     		strh	r3, [r7, #4]	@ movhi
 903:.\Generated_Source\PSoC5/ETH.c **** 	/*
 904:.\Generated_Source\PSoC5/ETH.c **** 	 * This function is not used on the W5100, since there is no register
 905:.\Generated_Source\PSoC5/ETH.c **** 	 * defined in the memor map to provide this capability
 906:.\Generated_Source\PSoC5/ETH.c **** 	 */
 907:.\Generated_Source\PSoC5/ETH.c **** #if (5 == 2)
 908:.\Generated_Source\PSoC5/ETH.c **** 	/*
 909:.\Generated_Source\PSoC5/ETH.c **** 	 * for the W5200 device, write the pointer value to the register
 910:.\Generated_Source\PSoC5/ETH.c **** 	 */
 911:.\Generated_Source\PSoC5/ETH.c **** 	ETH_ChipWrite16( ETH_SOCKET_REG(socket, ETH_SOCK_RXWR), ptr);
 912:.\Generated_Source\PSoC5/ETH.c **** #endif
 913:.\Generated_Source\PSoC5/ETH.c **** }
 1908              		.loc 1 913 0
 1909 000e 07F10C07 		add	r7, r7, #12
 1910 0012 BD46     		mov	sp, r7
 1911 0014 80BC     		pop	{r7}
 1912 0016 7047     		bx	lr
 1913              		.cfi_endproc
 1914              	.LFE37:
 1915              		.size	ETH_SetSocketRxWritePtr, .-ETH_SetSocketRxWritePtr
 1916              		.section	.text.ETH_SetSocketTxReadPtr,"ax",%progbits
 1917              		.align	2
 1918              		.global	ETH_SetSocketTxReadPtr
 1919              		.thumb
 1920              		.thumb_func
 1921              		.type	ETH_SetSocketTxReadPtr, %function
 1922              	ETH_SetSocketTxReadPtr:
 1923              	.LFB38:
 914:.\Generated_Source\PSoC5/ETH.c **** /* ------------------------------------------------------------------------ */
 915:.\Generated_Source\PSoC5/ETH.c **** /**
 916:.\Generated_Source\PSoC5/ETH.c ****  * \brief Initialize the Tx buffer Read pointer register
 917:.\Generated_Source\PSoC5/ETH.c ****  * \param socket the sockt to be modified
 918:.\Generated_Source\PSoC5/ETH.c ****  * \param ptr the address to store in to the pointer register
 919:.\Generated_Source\PSoC5/ETH.c **** */
 920:.\Generated_Source\PSoC5/ETH.c **** void ETH_SetSocketTxReadPtr(uint8 socket, uint16 ptr )
 921:.\Generated_Source\PSoC5/ETH.c **** {
 1924              		.loc 1 921 0
ARM GAS  C:\Users\CHUCK~1.ERH\AppData\Local\Temp\ccWRPeSc.s 			page 51


 1925              		.cfi_startproc
 1926              		@ args = 0, pretend = 0, frame = 8
 1927              		@ frame_needed = 1, uses_anonymous_args = 0
 1928 0000 80B5     		push	{r7, lr}
 1929              	.LCFI112:
 1930              		.cfi_def_cfa_offset 8
 1931              		.cfi_offset 7, -8
 1932              		.cfi_offset 14, -4
 1933 0002 82B0     		sub	sp, sp, #8
 1934              	.LCFI113:
 1935              		.cfi_def_cfa_offset 16
 1936 0004 00AF     		add	r7, sp, #0
 1937              	.LCFI114:
 1938              		.cfi_def_cfa_register 7
 1939 0006 0246     		mov	r2, r0
 1940 0008 0B46     		mov	r3, r1
 1941 000a FA71     		strb	r2, [r7, #7]
 1942 000c BB80     		strh	r3, [r7, #4]	@ movhi
 922:.\Generated_Source\PSoC5/ETH.c **** 	ETH_ChipWrite16( ETH_SOCKET_REG(socket, ETH_SOCK_TXRD), ptr);
 1943              		.loc 1 922 0
 1944 000e FA79     		ldrb	r2, [r7, #7]	@ zero_extendqisi2
 1945 0010 40F20003 		movw	r3, #:lower16:ETH_W5500_BSB
 1946 0014 C0F20003 		movt	r3, #:upper16:ETH_W5500_BSB
 1947 0018 53F82230 		ldr	r3, [r3, r2, lsl #2]
 1948 001c 03F12202 		add	r2, r3, #34
 1949 0020 BB88     		ldrh	r3, [r7, #4]
 1950 0022 1046     		mov	r0, r2
 1951 0024 1946     		mov	r1, r3
 1952 0026 FFF7FEFF 		bl	ETH_ChipWrite16
 923:.\Generated_Source\PSoC5/ETH.c **** }
 1953              		.loc 1 923 0
 1954 002a 07F10807 		add	r7, r7, #8
 1955 002e BD46     		mov	sp, r7
 1956 0030 80BD     		pop	{r7, pc}
 1957              		.cfi_endproc
 1958              	.LFE38:
 1959              		.size	ETH_SetSocketTxReadPtr, .-ETH_SetSocketTxReadPtr
 1960 0032 00BF     		.section	.text.ETH_ExecuteSocketCommand,"ax",%progbits
 1961              		.align	2
 1962              		.global	ETH_ExecuteSocketCommand
 1963              		.thumb
 1964              		.thumb_func
 1965              		.type	ETH_ExecuteSocketCommand, %function
 1966              	ETH_ExecuteSocketCommand:
 1967              	.LFB39:
 924:.\Generated_Source\PSoC5/ETH.c **** /* ------------------------------------------------------------------------ */
 925:.\Generated_Source\PSoC5/ETH.c **** /**
 926:.\Generated_Source\PSoC5/ETH.c ****  * \brief Write a command to the socket command register and wait for completion
 927:.\Generated_Source\PSoC5/ETH.c ****  * \param socket the addressed socket for the command
 928:.\Generated_Source\PSoC5/ETH.c ****  * \param cmd the command to execute
 929:.\Generated_Source\PSoC5/ETH.c ****  */
 930:.\Generated_Source\PSoC5/ETH.c **** uint32 ETH_ExecuteSocketCommand( uint8 socket, int cmd)
 931:.\Generated_Source\PSoC5/ETH.c **** {
 1968              		.loc 1 931 0
 1969              		.cfi_startproc
 1970              		@ args = 0, pretend = 0, frame = 16
 1971              		@ frame_needed = 1, uses_anonymous_args = 0
ARM GAS  C:\Users\CHUCK~1.ERH\AppData\Local\Temp\ccWRPeSc.s 			page 52


 1972 0000 80B5     		push	{r7, lr}
 1973              	.LCFI115:
 1974              		.cfi_def_cfa_offset 8
 1975              		.cfi_offset 7, -8
 1976              		.cfi_offset 14, -4
 1977 0002 84B0     		sub	sp, sp, #16
 1978              	.LCFI116:
 1979              		.cfi_def_cfa_offset 24
 1980 0004 00AF     		add	r7, sp, #0
 1981              	.LCFI117:
 1982              		.cfi_def_cfa_register 7
 1983 0006 0346     		mov	r3, r0
 1984 0008 3960     		str	r1, [r7, #0]
 1985 000a FB71     		strb	r3, [r7, #7]
 932:.\Generated_Source\PSoC5/ETH.c **** 	uint32 timeout;
 933:.\Generated_Source\PSoC5/ETH.c **** 	timeout = 0;
 1986              		.loc 1 933 0
 1987 000c 4FF00003 		mov	r3, #0
 1988 0010 FB60     		str	r3, [r7, #12]
 934:.\Generated_Source\PSoC5/ETH.c **** 	
 935:.\Generated_Source\PSoC5/ETH.c **** 	ETH_SetSocketCommand(socket,cmd);
 1989              		.loc 1 935 0
 1990 0012 3B68     		ldr	r3, [r7, #0]
 1991 0014 DBB2     		uxtb	r3, r3
 1992 0016 FA79     		ldrb	r2, [r7, #7]	@ zero_extendqisi2
 1993 0018 1046     		mov	r0, r2
 1994 001a 1946     		mov	r1, r3
 1995 001c FFF7FEFF 		bl	ETH_SetSocketCommand
 936:.\Generated_Source\PSoC5/ETH.c **** 	while ( ( ETH_GetSocketCommand(socket) ) && (timeout < 125))
 1996              		.loc 1 936 0
 1997 0020 07E0     		b	.L74
 1998              	.L76:
 937:.\Generated_Source\PSoC5/ETH.c **** 	{
 938:.\Generated_Source\PSoC5/ETH.c **** 		++timeout;
 1999              		.loc 1 938 0
 2000 0022 FB68     		ldr	r3, [r7, #12]
 2001 0024 03F10103 		add	r3, r3, #1
 2002 0028 FB60     		str	r3, [r7, #12]
 939:.\Generated_Source\PSoC5/ETH.c **** 		CyDelay(1);
 2003              		.loc 1 939 0
 2004 002a 4FF00100 		mov	r0, #1
 2005 002e FFF7FEFF 		bl	CyDelay
 2006              	.L74:
 936:.\Generated_Source\PSoC5/ETH.c **** 	while ( ( ETH_GetSocketCommand(socket) ) && (timeout < 125))
 2007              		.loc 1 936 0 discriminator 1
 2008 0032 FB79     		ldrb	r3, [r7, #7]	@ zero_extendqisi2
 2009 0034 1846     		mov	r0, r3
 2010 0036 FFF7FEFF 		bl	ETH_GetSocketCommand
 2011 003a 0346     		mov	r3, r0
 2012 003c 002B     		cmp	r3, #0
 2013 003e 02D0     		beq	.L75
 936:.\Generated_Source\PSoC5/ETH.c **** 	while ( ( ETH_GetSocketCommand(socket) ) && (timeout < 125))
 2014              		.loc 1 936 0 is_stmt 0 discriminator 2
 2015 0040 FB68     		ldr	r3, [r7, #12]
 2016 0042 7C2B     		cmp	r3, #124
 2017 0044 EDD9     		bls	.L76
 2018              	.L75:
ARM GAS  C:\Users\CHUCK~1.ERH\AppData\Local\Temp\ccWRPeSc.s 			page 53


 940:.\Generated_Source\PSoC5/ETH.c **** 	}
 941:.\Generated_Source\PSoC5/ETH.c **** 	return( timeout );
 2019              		.loc 1 941 0 is_stmt 1
 2020 0046 FB68     		ldr	r3, [r7, #12]
 942:.\Generated_Source\PSoC5/ETH.c **** }
 2021              		.loc 1 942 0
 2022 0048 1846     		mov	r0, r3
 2023 004a 07F11007 		add	r7, r7, #16
 2024 004e BD46     		mov	sp, r7
 2025 0050 80BD     		pop	{r7, pc}
 2026              		.cfi_endproc
 2027              	.LFE39:
 2028              		.size	ETH_ExecuteSocketCommand, .-ETH_ExecuteSocketCommand
 2029 0052 00BF     		.section	.text.ETH_GetTxFreeSize,"ax",%progbits
 2030              		.align	2
 2031              		.global	ETH_GetTxFreeSize
 2032              		.thumb
 2033              		.thumb_func
 2034              		.type	ETH_GetTxFreeSize, %function
 2035              	ETH_GetTxFreeSize:
 2036              	.LFB40:
 943:.\Generated_Source\PSoC5/ETH.c **** /* ------------------------------------------------------------------------ */
 944:.\Generated_Source\PSoC5/ETH.c **** /**
 945:.\Generated_Source\PSoC5/ETH.c ****  * \brief Execute a safe read fo the Tx buffer free size register
 946:.\Generated_Source\PSoC5/ETH.c ****  * \param socket the addressed socket to read the available tx buffer
 947:.\Generated_Source\PSoC5/ETH.c ****  * \returns the number of bytes available in the transmit buffer for the socket
 948:.\Generated_Source\PSoC5/ETH.c ****  */
 949:.\Generated_Source\PSoC5/ETH.c **** uint16 ETH_GetTxFreeSize( uint8 socket )
 950:.\Generated_Source\PSoC5/ETH.c **** {
 2037              		.loc 1 950 0
 2038              		.cfi_startproc
 2039              		@ args = 0, pretend = 0, frame = 16
 2040              		@ frame_needed = 1, uses_anonymous_args = 0
 2041 0000 80B5     		push	{r7, lr}
 2042              	.LCFI118:
 2043              		.cfi_def_cfa_offset 8
 2044              		.cfi_offset 7, -8
 2045              		.cfi_offset 14, -4
 2046 0002 84B0     		sub	sp, sp, #16
 2047              	.LCFI119:
 2048              		.cfi_def_cfa_offset 24
 2049 0004 00AF     		add	r7, sp, #0
 2050              	.LCFI120:
 2051              		.cfi_def_cfa_register 7
 2052 0006 0346     		mov	r3, r0
 2053 0008 FB71     		strb	r3, [r7, #7]
 951:.\Generated_Source\PSoC5/ETH.c **** 	uint16 first, second;
 952:.\Generated_Source\PSoC5/ETH.c **** 	
 953:.\Generated_Source\PSoC5/ETH.c **** 	first = 0;
 2054              		.loc 1 953 0
 2055 000a 4FF00003 		mov	r3, #0
 2056 000e BB81     		strh	r3, [r7, #12]	@ movhi
 954:.\Generated_Source\PSoC5/ETH.c **** 	second = 0;
 2057              		.loc 1 954 0
 2058 0010 4FF00003 		mov	r3, #0
 2059 0014 FB81     		strh	r3, [r7, #14]	@ movhi
 2060              	.L80:
ARM GAS  C:\Users\CHUCK~1.ERH\AppData\Local\Temp\ccWRPeSc.s 			page 54


 955:.\Generated_Source\PSoC5/ETH.c **** 	do {
 956:.\Generated_Source\PSoC5/ETH.c **** 		first = ETH_GetSocketTxFree( socket );
 2061              		.loc 1 956 0
 2062 0016 FB79     		ldrb	r3, [r7, #7]	@ zero_extendqisi2
 2063 0018 1846     		mov	r0, r3
 2064 001a FFF7FEFF 		bl	ETH_GetSocketTxFree
 2065 001e 0346     		mov	r3, r0
 2066 0020 BB81     		strh	r3, [r7, #12]	@ movhi
 957:.\Generated_Source\PSoC5/ETH.c **** 		if (first != 0) {
 2067              		.loc 1 957 0
 2068 0022 BB89     		ldrh	r3, [r7, #12]
 2069 0024 002B     		cmp	r3, #0
 2070 0026 05D0     		beq	.L79
 958:.\Generated_Source\PSoC5/ETH.c **** 			second = ETH_GetSocketTxFree( socket );
 2071              		.loc 1 958 0
 2072 0028 FB79     		ldrb	r3, [r7, #7]	@ zero_extendqisi2
 2073 002a 1846     		mov	r0, r3
 2074 002c FFF7FEFF 		bl	ETH_GetSocketTxFree
 2075 0030 0346     		mov	r3, r0
 2076 0032 FB81     		strh	r3, [r7, #14]	@ movhi
 2077              	.L79:
 959:.\Generated_Source\PSoC5/ETH.c **** 		}
 960:.\Generated_Source\PSoC5/ETH.c **** 	}
 961:.\Generated_Source\PSoC5/ETH.c **** 	while (first != second );
 2078              		.loc 1 961 0
 2079 0034 BA89     		ldrh	r2, [r7, #12]
 2080 0036 FB89     		ldrh	r3, [r7, #14]
 2081 0038 9A42     		cmp	r2, r3
 2082 003a ECD1     		bne	.L80
 962:.\Generated_Source\PSoC5/ETH.c **** 	
 963:.\Generated_Source\PSoC5/ETH.c **** 	return( second );
 2083              		.loc 1 963 0
 2084 003c FB89     		ldrh	r3, [r7, #14]
 964:.\Generated_Source\PSoC5/ETH.c **** }
 2085              		.loc 1 964 0
 2086 003e 1846     		mov	r0, r3
 2087 0040 07F11007 		add	r7, r7, #16
 2088 0044 BD46     		mov	sp, r7
 2089 0046 80BD     		pop	{r7, pc}
 2090              		.cfi_endproc
 2091              	.LFE40:
 2092              		.size	ETH_GetTxFreeSize, .-ETH_GetTxFreeSize
 2093              		.section	.text.ETH_GetRxSize,"ax",%progbits
 2094              		.align	2
 2095              		.global	ETH_GetRxSize
 2096              		.thumb
 2097              		.thumb_func
 2098              		.type	ETH_GetRxSize, %function
 2099              	ETH_GetRxSize:
 2100              	.LFB41:
 965:.\Generated_Source\PSoC5/ETH.c **** /* ------------------------------------------------------------------------ */
 966:.\Generated_Source\PSoC5/ETH.c **** /**
 967:.\Generated_Source\PSoC5/ETH.c ****  * \brief Execute a safe read of the received data size
 968:.\Generated_Source\PSoC5/ETH.c ****  * \param socket the addressed socketfrom which the data will be read
 969:.\Generated_Source\PSoC5/ETH.c ****  * \returns the number of bytes waiting in the recieve buffer of the socket
 970:.\Generated_Source\PSoC5/ETH.c ****  */
 971:.\Generated_Source\PSoC5/ETH.c **** uint16 ETH_GetRxSize( uint8 socket )
ARM GAS  C:\Users\CHUCK~1.ERH\AppData\Local\Temp\ccWRPeSc.s 			page 55


 972:.\Generated_Source\PSoC5/ETH.c **** {
 2101              		.loc 1 972 0
 2102              		.cfi_startproc
 2103              		@ args = 0, pretend = 0, frame = 16
 2104              		@ frame_needed = 1, uses_anonymous_args = 0
 2105 0000 80B5     		push	{r7, lr}
 2106              	.LCFI121:
 2107              		.cfi_def_cfa_offset 8
 2108              		.cfi_offset 7, -8
 2109              		.cfi_offset 14, -4
 2110 0002 84B0     		sub	sp, sp, #16
 2111              	.LCFI122:
 2112              		.cfi_def_cfa_offset 24
 2113 0004 00AF     		add	r7, sp, #0
 2114              	.LCFI123:
 2115              		.cfi_def_cfa_register 7
 2116 0006 0346     		mov	r3, r0
 2117 0008 FB71     		strb	r3, [r7, #7]
 973:.\Generated_Source\PSoC5/ETH.c **** 	uint16 first, second;
 974:.\Generated_Source\PSoC5/ETH.c **** 	
 975:.\Generated_Source\PSoC5/ETH.c **** 	first = 0;
 2118              		.loc 1 975 0
 2119 000a 4FF00003 		mov	r3, #0
 2120 000e BB81     		strh	r3, [r7, #12]	@ movhi
 976:.\Generated_Source\PSoC5/ETH.c **** 	second = 0;
 2121              		.loc 1 976 0
 2122 0010 4FF00003 		mov	r3, #0
 2123 0014 FB81     		strh	r3, [r7, #14]	@ movhi
 2124              	.L84:
 977:.\Generated_Source\PSoC5/ETH.c **** 	do {
 978:.\Generated_Source\PSoC5/ETH.c **** 		first = ETH_GetSocketRxSize( socket );
 2125              		.loc 1 978 0
 2126 0016 FB79     		ldrb	r3, [r7, #7]	@ zero_extendqisi2
 2127 0018 1846     		mov	r0, r3
 2128 001a FFF7FEFF 		bl	ETH_GetSocketRxSize
 2129 001e 0346     		mov	r3, r0
 2130 0020 BB81     		strh	r3, [r7, #12]	@ movhi
 979:.\Generated_Source\PSoC5/ETH.c **** 		if (first != 0) {
 2131              		.loc 1 979 0
 2132 0022 BB89     		ldrh	r3, [r7, #12]
 2133 0024 002B     		cmp	r3, #0
 2134 0026 05D0     		beq	.L83
 980:.\Generated_Source\PSoC5/ETH.c **** 			second = ETH_GetSocketRxSize( socket );
 2135              		.loc 1 980 0
 2136 0028 FB79     		ldrb	r3, [r7, #7]	@ zero_extendqisi2
 2137 002a 1846     		mov	r0, r3
 2138 002c FFF7FEFF 		bl	ETH_GetSocketRxSize
 2139 0030 0346     		mov	r3, r0
 2140 0032 FB81     		strh	r3, [r7, #14]	@ movhi
 2141              	.L83:
 981:.\Generated_Source\PSoC5/ETH.c **** 		}
 982:.\Generated_Source\PSoC5/ETH.c **** 	}
 983:.\Generated_Source\PSoC5/ETH.c **** 	while (first != second );
 2142              		.loc 1 983 0
 2143 0034 BA89     		ldrh	r2, [r7, #12]
 2144 0036 FB89     		ldrh	r3, [r7, #14]
 2145 0038 9A42     		cmp	r2, r3
ARM GAS  C:\Users\CHUCK~1.ERH\AppData\Local\Temp\ccWRPeSc.s 			page 56


 2146 003a ECD1     		bne	.L84
 984:.\Generated_Source\PSoC5/ETH.c **** 	
 985:.\Generated_Source\PSoC5/ETH.c **** 	return second;
 2147              		.loc 1 985 0
 2148 003c FB89     		ldrh	r3, [r7, #14]
 986:.\Generated_Source\PSoC5/ETH.c **** }
 2149              		.loc 1 986 0
 2150 003e 1846     		mov	r0, r3
 2151 0040 07F11007 		add	r7, r7, #16
 2152 0044 BD46     		mov	sp, r7
 2153 0046 80BD     		pop	{r7, pc}
 2154              		.cfi_endproc
 2155              	.LFE41:
 2156              		.size	ETH_GetRxSize, .-ETH_GetRxSize
 2157              		.section	.text.ETH_ProcessTxData,"ax",%progbits
 2158              		.align	2
 2159              		.global	ETH_ProcessTxData
 2160              		.thumb
 2161              		.thumb_func
 2162              		.type	ETH_ProcessTxData, %function
 2163              	ETH_ProcessTxData:
 2164              	.LFB42:
 987:.\Generated_Source\PSoC5/ETH.c **** /* ------------------------------------------------------------------------ */
 988:.\Generated_Source\PSoC5/ETH.c **** 
 989:.\Generated_Source\PSoC5/ETH.c **** // END Socket Register access section
 990:.\Generated_Source\PSoC5/ETH.c **** #endif
 991:.\Generated_Source\PSoC5/ETH.c **** /* ======================================================================== */
 992:.\Generated_Source\PSoC5/ETH.c **** /* W5x00 Data Buffer Memory access primitives */
 993:.\Generated_Source\PSoC5/ETH.c **** #if (1)
 994:.\Generated_Source\PSoC5/ETH.c **** /* ------------------------------------------------------------------------ */
 995:.\Generated_Source\PSoC5/ETH.c **** /**
 996:.\Generated_Source\PSoC5/ETH.c ****  * \brief Transfer data from a local data buffer to the chip Tx fifo
 997:.\Generated_Source\PSoC5/ETH.c ****  * \param socket the socket buffer to which the data will be written
 998:.\Generated_Source\PSoC5/ETH.c ****  * \param offset The offest in to the socket buffer
 999:.\Generated_Source\PSoC5/ETH.c ****  * \param *buffer pointer to the local buffer to copy to the transmit fifo
1000:.\Generated_Source\PSoC5/ETH.c ****  * \param length the number of bytes to be copied to the transmit fifo
1001:.\Generated_Source\PSoC5/ETH.c ****  */
1002:.\Generated_Source\PSoC5/ETH.c **** void ETH_ProcessTxData(uint8 socket, uint16 offset, uint8* buffer, uint16 length)
1003:.\Generated_Source\PSoC5/ETH.c **** {
 2165              		.loc 1 1003 0
 2166              		.cfi_startproc
 2167              		@ args = 0, pretend = 0, frame = 32
 2168              		@ frame_needed = 1, uses_anonymous_args = 0
 2169 0000 80B5     		push	{r7, lr}
 2170              	.LCFI124:
 2171              		.cfi_def_cfa_offset 8
 2172              		.cfi_offset 7, -8
 2173              		.cfi_offset 14, -4
 2174 0002 88B0     		sub	sp, sp, #32
 2175              	.LCFI125:
 2176              		.cfi_def_cfa_offset 40
 2177 0004 00AF     		add	r7, sp, #0
 2178              	.LCFI126:
 2179              		.cfi_def_cfa_register 7
 2180 0006 BA60     		str	r2, [r7, #8]
 2181 0008 0246     		mov	r2, r0
 2182 000a FA73     		strb	r2, [r7, #15]
ARM GAS  C:\Users\CHUCK~1.ERH\AppData\Local\Temp\ccWRPeSc.s 			page 57


 2183 000c 0A46     		mov	r2, r1	@ movhi
 2184 000e BA81     		strh	r2, [r7, #12]	@ movhi
 2185 0010 FB80     		strh	r3, [r7, #6]	@ movhi
1004:.\Generated_Source\PSoC5/ETH.c **** 	uint32 addr;
1005:.\Generated_Source\PSoC5/ETH.c **** 	uint32 base;
1006:.\Generated_Source\PSoC5/ETH.c **** 	uint32 PointerOffset;
1007:.\Generated_Source\PSoC5/ETH.c **** 	uint32 size;
1008:.\Generated_Source\PSoC5/ETH.c **** 	
1009:.\Generated_Source\PSoC5/ETH.c **** 	/*
1010:.\Generated_Source\PSoC5/ETH.c **** 	 * Read the offset pointer, and calculate the base address for the start of write
1011:.\Generated_Source\PSoC5/ETH.c **** 	 * in to the chip buffers.  Written data will be offset by the offset byte count
1012:.\Generated_Source\PSoC5/ETH.c **** 	 * specified in the parameters.
1013:.\Generated_Source\PSoC5/ETH.c **** 	 */
1014:.\Generated_Source\PSoC5/ETH.c **** 	base = ETH_GetSocketTxWritePtr(socket) + offset;
 2186              		.loc 1 1014 0
 2187 0012 FB7B     		ldrb	r3, [r7, #15]	@ zero_extendqisi2
 2188 0014 1846     		mov	r0, r3
 2189 0016 FFF7FEFF 		bl	ETH_GetSocketTxWritePtr
 2190 001a 0346     		mov	r3, r0
 2191 001c 1A46     		mov	r2, r3
 2192 001e BB89     		ldrh	r3, [r7, #12]
 2193 0020 D318     		adds	r3, r2, r3
 2194 0022 FB61     		str	r3, [r7, #28]
1015:.\Generated_Source\PSoC5/ETH.c **** 	PointerOffset = (base & 0x07FF);
 2195              		.loc 1 1015 0
 2196 0024 FB69     		ldr	r3, [r7, #28]
 2197 0026 4FEA4353 		lsl	r3, r3, #21
 2198 002a 4FEA5353 		lsr	r3, r3, #21
 2199 002e BB61     		str	r3, [r7, #24]
1016:.\Generated_Source\PSoC5/ETH.c **** 	addr = PointerOffset + ETH_SOCKET_TX_BASE[socket];
 2200              		.loc 1 1016 0
 2201 0030 FA7B     		ldrb	r2, [r7, #15]	@ zero_extendqisi2
 2202 0032 40F20003 		movw	r3, #:lower16:ETH_SOCKET_TX_BASE
 2203 0036 C0F20003 		movt	r3, #:upper16:ETH_SOCKET_TX_BASE
 2204 003a 53F82220 		ldr	r2, [r3, r2, lsl #2]
 2205 003e BB69     		ldr	r3, [r7, #24]
 2206 0040 D318     		adds	r3, r2, r3
 2207 0042 7B61     		str	r3, [r7, #20]
1017:.\Generated_Source\PSoC5/ETH.c **** 	/* calculate the number of bytes from the pointer to the end of the buffer */
1018:.\Generated_Source\PSoC5/ETH.c **** 	size = 0x0800 - PointerOffset;
 2208              		.loc 1 1018 0
 2209 0044 BB69     		ldr	r3, [r7, #24]
 2210 0046 C3F50063 		rsb	r3, r3, #2048
 2211 004a 3B61     		str	r3, [r7, #16]
1019:.\Generated_Source\PSoC5/ETH.c **** 	
1020:.\Generated_Source\PSoC5/ETH.c **** 	/*
1021:.\Generated_Source\PSoC5/ETH.c **** 	 * is there enough space to write the complete packet
1022:.\Generated_Source\PSoC5/ETH.c **** 	 * or, shoudl the data be split in to two writes.
1023:.\Generated_Source\PSoC5/ETH.c **** 	 */
1024:.\Generated_Source\PSoC5/ETH.c **** 	if ( length > size) {
 2212              		.loc 1 1024 0
 2213 004c FA88     		ldrh	r2, [r7, #6]
 2214 004e 3B69     		ldr	r3, [r7, #16]
 2215 0050 9A42     		cmp	r2, r3
 2216 0052 1BD9     		bls	.L87
1025:.\Generated_Source\PSoC5/ETH.c **** 		/*
1026:.\Generated_Source\PSoC5/ETH.c **** 		 * There is more data to send than will fit from the pointer to the end
ARM GAS  C:\Users\CHUCK~1.ERH\AppData\Local\Temp\ccWRPeSc.s 			page 58


1027:.\Generated_Source\PSoC5/ETH.c **** 		 * of the memory, so we will write the data in two chunks.  First, write the
1028:.\Generated_Source\PSoC5/ETH.c **** 		 * data from the pointer to the end of the buffer, then write the portion
1029:.\Generated_Source\PSoC5/ETH.c **** 		 * remaining to the start (base ptr) of the socket buffer
1030:.\Generated_Source\PSoC5/ETH.c **** 		 */
1031:.\Generated_Source\PSoC5/ETH.c **** 		ETH_ChipWrite(addr, buffer, size);
 2217              		.loc 1 1031 0
 2218 0054 3B69     		ldr	r3, [r7, #16]
 2219 0056 9BB2     		uxth	r3, r3
 2220 0058 7869     		ldr	r0, [r7, #20]
 2221 005a B968     		ldr	r1, [r7, #8]
 2222 005c 1A46     		mov	r2, r3
 2223 005e FFF7FEFF 		bl	ETH_ChipWrite
1032:.\Generated_Source\PSoC5/ETH.c **** 		ETH_ChipWrite(ETH_SOCKET_TX_BASE[socket], &buffer[size], length - size);
 2224              		.loc 1 1032 0
 2225 0062 FA7B     		ldrb	r2, [r7, #15]	@ zero_extendqisi2
 2226 0064 40F20003 		movw	r3, #:lower16:ETH_SOCKET_TX_BASE
 2227 0068 C0F20003 		movt	r3, #:upper16:ETH_SOCKET_TX_BASE
 2228 006c 53F82210 		ldr	r1, [r3, r2, lsl #2]
 2229 0070 BA68     		ldr	r2, [r7, #8]
 2230 0072 3B69     		ldr	r3, [r7, #16]
 2231 0074 D218     		adds	r2, r2, r3
 2232 0076 3B69     		ldr	r3, [r7, #16]
 2233 0078 9BB2     		uxth	r3, r3
 2234 007a F888     		ldrh	r0, [r7, #6]	@ movhi
 2235 007c C31A     		subs	r3, r0, r3
 2236 007e 9BB2     		uxth	r3, r3
 2237 0080 0846     		mov	r0, r1
 2238 0082 1146     		mov	r1, r2
 2239 0084 1A46     		mov	r2, r3
 2240 0086 FFF7FEFF 		bl	ETH_ChipWrite
 2241 008a 05E0     		b	.L88
 2242              	.L87:
1033:.\Generated_Source\PSoC5/ETH.c **** 	}
1034:.\Generated_Source\PSoC5/ETH.c **** 	else {
1035:.\Generated_Source\PSoC5/ETH.c **** 		/* 
1036:.\Generated_Source\PSoC5/ETH.c **** 		 * there is enough available space from the write point to the end of buffer
1037:.\Generated_Source\PSoC5/ETH.c **** 		 * to hold the whole packe of information, so just write it to the memory
1038:.\Generated_Source\PSoC5/ETH.c **** 		 */
1039:.\Generated_Source\PSoC5/ETH.c **** 		ETH_ChipWrite(addr,buffer,length);
 2243              		.loc 1 1039 0
 2244 008c FB88     		ldrh	r3, [r7, #6]
 2245 008e 7869     		ldr	r0, [r7, #20]
 2246 0090 B968     		ldr	r1, [r7, #8]
 2247 0092 1A46     		mov	r2, r3
 2248 0094 FFF7FEFF 		bl	ETH_ChipWrite
 2249              	.L88:
1040:.\Generated_Source\PSoC5/ETH.c **** 	}
1041:.\Generated_Source\PSoC5/ETH.c **** 	/* move the write pointer */
1042:.\Generated_Source\PSoC5/ETH.c **** 	base += length;
 2250              		.loc 1 1042 0
 2251 0098 FB88     		ldrh	r3, [r7, #6]
 2252 009a FA69     		ldr	r2, [r7, #28]
 2253 009c D318     		adds	r3, r2, r3
 2254 009e FB61     		str	r3, [r7, #28]
1043:.\Generated_Source\PSoC5/ETH.c **** 	/* 
1044:.\Generated_Source\PSoC5/ETH.c **** 	 * Store the new write pointer so that the device knows that there is data waiting
1045:.\Generated_Source\PSoC5/ETH.c **** 	 * to be transmitted over the link.
ARM GAS  C:\Users\CHUCK~1.ERH\AppData\Local\Temp\ccWRPeSc.s 			page 59


1046:.\Generated_Source\PSoC5/ETH.c **** 	 */
1047:.\Generated_Source\PSoC5/ETH.c **** 	ETH_SetSocketTxWritePtr(socket, base);
 2255              		.loc 1 1047 0
 2256 00a0 FB69     		ldr	r3, [r7, #28]
 2257 00a2 9BB2     		uxth	r3, r3
 2258 00a4 FA7B     		ldrb	r2, [r7, #15]	@ zero_extendqisi2
 2259 00a6 1046     		mov	r0, r2
 2260 00a8 1946     		mov	r1, r3
 2261 00aa FFF7FEFF 		bl	ETH_SetSocketTxWritePtr
1048:.\Generated_Source\PSoC5/ETH.c **** }
 2262              		.loc 1 1048 0
 2263 00ae 07F12007 		add	r7, r7, #32
 2264 00b2 BD46     		mov	sp, r7
 2265 00b4 80BD     		pop	{r7, pc}
 2266              		.cfi_endproc
 2267              	.LFE42:
 2268              		.size	ETH_ProcessTxData, .-ETH_ProcessTxData
 2269 00b6 00BF     		.section	.text.ETH_ProcessRxData,"ax",%progbits
 2270              		.align	2
 2271              		.global	ETH_ProcessRxData
 2272              		.thumb
 2273              		.thumb_func
 2274              		.type	ETH_ProcessRxData, %function
 2275              	ETH_ProcessRxData:
 2276              	.LFB43:
1049:.\Generated_Source\PSoC5/ETH.c **** /* ------------------------------------------------------------------------ */
1050:.\Generated_Source\PSoC5/ETH.c **** /**
1051:.\Generated_Source\PSoC5/ETH.c ****  * \brief Transfer data from the chip receive buffer to a local buffer
1052:.\Generated_Source\PSoC5/ETH.c ****  * \param socket the socket buffer from which the data will be read
1053:.\Generated_Source\PSoC5/ETH.c ****  * \param offset The offest in to the socket buffer
1054:.\Generated_Source\PSoC5/ETH.c ****  * \param *buffer pointer to the local buffer to hold the receive fifo data
1055:.\Generated_Source\PSoC5/ETH.c ****  * \param length the max number of bytes to be copied to the local buffer
1056:.\Generated_Source\PSoC5/ETH.c ****  * \param flags Flag settings to control read fifo options (lookahead)
1057:.\Generated_Source\PSoC5/ETH.c ****  */
1058:.\Generated_Source\PSoC5/ETH.c **** void ETH_ProcessRxData(uint8 socket, uint16 offset, uint8* buffer, uint16 length, uint8 flags)
1059:.\Generated_Source\PSoC5/ETH.c **** {
 2277              		.loc 1 1059 0
 2278              		.cfi_startproc
 2279              		@ args = 4, pretend = 0, frame = 32
 2280              		@ frame_needed = 1, uses_anonymous_args = 0
 2281 0000 80B5     		push	{r7, lr}
 2282              	.LCFI127:
 2283              		.cfi_def_cfa_offset 8
 2284              		.cfi_offset 7, -8
 2285              		.cfi_offset 14, -4
 2286 0002 88B0     		sub	sp, sp, #32
 2287              	.LCFI128:
 2288              		.cfi_def_cfa_offset 40
 2289 0004 00AF     		add	r7, sp, #0
 2290              	.LCFI129:
 2291              		.cfi_def_cfa_register 7
 2292 0006 BA60     		str	r2, [r7, #8]
 2293 0008 0246     		mov	r2, r0
 2294 000a FA73     		strb	r2, [r7, #15]
 2295 000c 0A46     		mov	r2, r1	@ movhi
 2296 000e BA81     		strh	r2, [r7, #12]	@ movhi
 2297 0010 FB80     		strh	r3, [r7, #6]	@ movhi
ARM GAS  C:\Users\CHUCK~1.ERH\AppData\Local\Temp\ccWRPeSc.s 			page 60


1060:.\Generated_Source\PSoC5/ETH.c **** 	uint32 addr;
1061:.\Generated_Source\PSoC5/ETH.c **** 	uint32 base;
1062:.\Generated_Source\PSoC5/ETH.c **** 	uint32 PointerOffset;
1063:.\Generated_Source\PSoC5/ETH.c **** 	uint32 size;
1064:.\Generated_Source\PSoC5/ETH.c **** 	
1065:.\Generated_Source\PSoC5/ETH.c **** 	/*
1066:.\Generated_Source\PSoC5/ETH.c **** 	 * Read the offset pointer, and calculate the base address for the start of read
1067:.\Generated_Source\PSoC5/ETH.c **** 	 * in to the chip buffers.  The data read will be offset by the offset byte count
1068:.\Generated_Source\PSoC5/ETH.c **** 	 * specified in the parameters.
1069:.\Generated_Source\PSoC5/ETH.c **** 	 */
1070:.\Generated_Source\PSoC5/ETH.c **** 	base = ETH_GetSocketRxReadPtr(socket) + offset;
 2298              		.loc 1 1070 0
 2299 0012 FB7B     		ldrb	r3, [r7, #15]	@ zero_extendqisi2
 2300 0014 1846     		mov	r0, r3
 2301 0016 FFF7FEFF 		bl	ETH_GetSocketRxReadPtr
 2302 001a 0346     		mov	r3, r0
 2303 001c 1A46     		mov	r2, r3
 2304 001e BB89     		ldrh	r3, [r7, #12]
 2305 0020 D318     		adds	r3, r2, r3
 2306 0022 FB61     		str	r3, [r7, #28]
1071:.\Generated_Source\PSoC5/ETH.c **** 	PointerOffset = (base & 0x07FF);
 2307              		.loc 1 1071 0
 2308 0024 FB69     		ldr	r3, [r7, #28]
 2309 0026 4FEA4353 		lsl	r3, r3, #21
 2310 002a 4FEA5353 		lsr	r3, r3, #21
 2311 002e BB61     		str	r3, [r7, #24]
1072:.\Generated_Source\PSoC5/ETH.c **** 	addr = PointerOffset + ETH_SOCKET_RX_BASE[socket];
 2312              		.loc 1 1072 0
 2313 0030 FA7B     		ldrb	r2, [r7, #15]	@ zero_extendqisi2
 2314 0032 40F20003 		movw	r3, #:lower16:ETH_SOCKET_RX_BASE
 2315 0036 C0F20003 		movt	r3, #:upper16:ETH_SOCKET_RX_BASE
 2316 003a 53F82220 		ldr	r2, [r3, r2, lsl #2]
 2317 003e BB69     		ldr	r3, [r7, #24]
 2318 0040 D318     		adds	r3, r2, r3
 2319 0042 7B61     		str	r3, [r7, #20]
1073:.\Generated_Source\PSoC5/ETH.c **** 	/* calculate the number of bytes from the pointer to the end of the buffer */
1074:.\Generated_Source\PSoC5/ETH.c **** 	size = 0x0800 - PointerOffset;
 2320              		.loc 1 1074 0
 2321 0044 BB69     		ldr	r3, [r7, #24]
 2322 0046 C3F50063 		rsb	r3, r3, #2048
 2323 004a 3B61     		str	r3, [r7, #16]
1075:.\Generated_Source\PSoC5/ETH.c **** 	/*
1076:.\Generated_Source\PSoC5/ETH.c **** 	 * is there enough space to read the complete packet
1077:.\Generated_Source\PSoC5/ETH.c **** 	 * or, should the data be split in to two reads.
1078:.\Generated_Source\PSoC5/ETH.c **** 	 */
1079:.\Generated_Source\PSoC5/ETH.c **** 	if ( length > size) {
 2324              		.loc 1 1079 0
 2325 004c FA88     		ldrh	r2, [r7, #6]
 2326 004e 3B69     		ldr	r3, [r7, #16]
 2327 0050 9A42     		cmp	r2, r3
 2328 0052 1BD9     		bls	.L90
1080:.\Generated_Source\PSoC5/ETH.c **** 		/*
1081:.\Generated_Source\PSoC5/ETH.c **** 		 * There is more data to send than will fit from the pointer to the end
1082:.\Generated_Source\PSoC5/ETH.c **** 		 * of the memory, so we will write the data in two chunks.  First, write the
1083:.\Generated_Source\PSoC5/ETH.c **** 		 * data from the pointer to the end of the buffer, then write the portion
1084:.\Generated_Source\PSoC5/ETH.c **** 		 * remaining to the start (base ptr) of the socket buffer
1085:.\Generated_Source\PSoC5/ETH.c **** 		 */
ARM GAS  C:\Users\CHUCK~1.ERH\AppData\Local\Temp\ccWRPeSc.s 			page 61


1086:.\Generated_Source\PSoC5/ETH.c **** 		ETH_ChipRead(addr, buffer, size);
 2329              		.loc 1 1086 0
 2330 0054 3B69     		ldr	r3, [r7, #16]
 2331 0056 9BB2     		uxth	r3, r3
 2332 0058 7869     		ldr	r0, [r7, #20]
 2333 005a B968     		ldr	r1, [r7, #8]
 2334 005c 1A46     		mov	r2, r3
 2335 005e FFF7FEFF 		bl	ETH_ChipRead
1087:.\Generated_Source\PSoC5/ETH.c **** 		ETH_ChipRead(ETH_SOCKET_RX_BASE[socket], &buffer[size], length - size);
 2336              		.loc 1 1087 0
 2337 0062 FA7B     		ldrb	r2, [r7, #15]	@ zero_extendqisi2
 2338 0064 40F20003 		movw	r3, #:lower16:ETH_SOCKET_RX_BASE
 2339 0068 C0F20003 		movt	r3, #:upper16:ETH_SOCKET_RX_BASE
 2340 006c 53F82210 		ldr	r1, [r3, r2, lsl #2]
 2341 0070 BA68     		ldr	r2, [r7, #8]
 2342 0072 3B69     		ldr	r3, [r7, #16]
 2343 0074 D218     		adds	r2, r2, r3
 2344 0076 3B69     		ldr	r3, [r7, #16]
 2345 0078 9BB2     		uxth	r3, r3
 2346 007a F888     		ldrh	r0, [r7, #6]	@ movhi
 2347 007c C31A     		subs	r3, r0, r3
 2348 007e 9BB2     		uxth	r3, r3
 2349 0080 0846     		mov	r0, r1
 2350 0082 1146     		mov	r1, r2
 2351 0084 1A46     		mov	r2, r3
 2352 0086 FFF7FEFF 		bl	ETH_ChipRead
 2353 008a 05E0     		b	.L91
 2354              	.L90:
1088:.\Generated_Source\PSoC5/ETH.c **** 	}
1089:.\Generated_Source\PSoC5/ETH.c **** 	else {
1090:.\Generated_Source\PSoC5/ETH.c **** 		/* 
1091:.\Generated_Source\PSoC5/ETH.c **** 		 * there is enough available space from the write point to the end of buffer
1092:.\Generated_Source\PSoC5/ETH.c **** 		 * to hold the whole packe of information, so just write it to the memory
1093:.\Generated_Source\PSoC5/ETH.c **** 		 */
1094:.\Generated_Source\PSoC5/ETH.c **** 		ETH_ChipRead(addr,buffer,length);
 2355              		.loc 1 1094 0
 2356 008c FB88     		ldrh	r3, [r7, #6]
 2357 008e 7869     		ldr	r0, [r7, #20]
 2358 0090 B968     		ldr	r1, [r7, #8]
 2359 0092 1A46     		mov	r2, r3
 2360 0094 FFF7FEFF 		bl	ETH_ChipRead
 2361              	.L91:
1095:.\Generated_Source\PSoC5/ETH.c **** 	}
1096:.\Generated_Source\PSoC5/ETH.c **** 	if ( (flags & 0x01) == 0 ) { /* V1.1: Added ==0 condition to lookahead flag check */
 2362              		.loc 1 1096 0
 2363 0098 97F82830 		ldrb	r3, [r7, #40]	@ zero_extendqisi2
 2364 009c 03F00103 		and	r3, r3, #1
 2365 00a0 002B     		cmp	r3, #0
 2366 00a2 0AD1     		bne	.L89
1097:.\Generated_Source\PSoC5/ETH.c **** 		/* move the write pointer */
1098:.\Generated_Source\PSoC5/ETH.c **** 		base += length;
 2367              		.loc 1 1098 0
 2368 00a4 FB88     		ldrh	r3, [r7, #6]
 2369 00a6 FA69     		ldr	r2, [r7, #28]
 2370 00a8 D318     		adds	r3, r2, r3
 2371 00aa FB61     		str	r3, [r7, #28]
1099:.\Generated_Source\PSoC5/ETH.c **** 		/* 
ARM GAS  C:\Users\CHUCK~1.ERH\AppData\Local\Temp\ccWRPeSc.s 			page 62


1100:.\Generated_Source\PSoC5/ETH.c **** 		 * Store the new write pointer so that the device knows that there is data waiting
1101:.\Generated_Source\PSoC5/ETH.c **** 		 * to be transmitted over the link.
1102:.\Generated_Source\PSoC5/ETH.c **** 		 */
1103:.\Generated_Source\PSoC5/ETH.c **** 		ETH_SetSocketRxReadPtr(socket, base);
 2372              		.loc 1 1103 0
 2373 00ac FB69     		ldr	r3, [r7, #28]
 2374 00ae 9BB2     		uxth	r3, r3
 2375 00b0 FA7B     		ldrb	r2, [r7, #15]	@ zero_extendqisi2
 2376 00b2 1046     		mov	r0, r2
 2377 00b4 1946     		mov	r1, r3
 2378 00b6 FFF7FEFF 		bl	ETH_SetSocketRxReadPtr
 2379              	.L89:
1104:.\Generated_Source\PSoC5/ETH.c **** 	}
1105:.\Generated_Source\PSoC5/ETH.c **** }
 2380              		.loc 1 1105 0
 2381 00ba 07F12007 		add	r7, r7, #32
 2382 00be BD46     		mov	sp, r7
 2383 00c0 80BD     		pop	{r7, pc}
 2384              		.cfi_endproc
 2385              	.LFE43:
 2386              		.size	ETH_ProcessRxData, .-ETH_ProcessRxData
 2387 00c2 00BF     		.section	.text.ETH_Init,"ax",%progbits
 2388              		.align	2
 2389              		.global	ETH_Init
 2390              		.thumb
 2391              		.thumb_func
 2392              		.type	ETH_Init, %function
 2393              	ETH_Init:
 2394              	.LFB44:
1106:.\Generated_Source\PSoC5/ETH.c **** #endif
1107:.\Generated_Source\PSoC5/ETH.c **** /* ======================================================================== */
1108:.\Generated_Source\PSoC5/ETH.c **** /* Driver Initialization */
1109:.\Generated_Source\PSoC5/ETH.c **** #if (1)
1110:.\Generated_Source\PSoC5/ETH.c **** /* ------------------------------------------------------------------------ */
1111:.\Generated_Source\PSoC5/ETH.c **** void
1112:.\Generated_Source\PSoC5/ETH.c **** ETH_Init(uint8* mac, uint32 ip, uint32 subnet, uint32 gateway)
1113:.\Generated_Source\PSoC5/ETH.c **** {
 2395              		.loc 1 1113 0
 2396              		.cfi_startproc
 2397              		@ args = 0, pretend = 0, frame = 24
 2398              		@ frame_needed = 1, uses_anonymous_args = 0
 2399 0000 80B5     		push	{r7, lr}
 2400              	.LCFI130:
 2401              		.cfi_def_cfa_offset 8
 2402              		.cfi_offset 7, -8
 2403              		.cfi_offset 14, -4
 2404 0002 86B0     		sub	sp, sp, #24
 2405              	.LCFI131:
 2406              		.cfi_def_cfa_offset 32
 2407 0004 00AF     		add	r7, sp, #0
 2408              	.LCFI132:
 2409              		.cfi_def_cfa_register 7
 2410 0006 F860     		str	r0, [r7, #12]
 2411 0008 B960     		str	r1, [r7, #8]
 2412 000a 7A60     		str	r2, [r7, #4]
 2413 000c 3B60     		str	r3, [r7, #0]
1114:.\Generated_Source\PSoC5/ETH.c **** 	/*
ARM GAS  C:\Users\CHUCK~1.ERH\AppData\Local\Temp\ccWRPeSc.s 			page 63


1115:.\Generated_Source\PSoC5/ETH.c **** 	 * Initialize the device and the address configuration, then
1116:.\Generated_Source\PSoC5/ETH.c **** 	 * execute socket memory initialization for the local allocation
1117:.\Generated_Source\PSoC5/ETH.c **** 	 * table.
1118:.\Generated_Source\PSoC5/ETH.c **** 	 */
1119:.\Generated_Source\PSoC5/ETH.c **** 	int index;
1120:.\Generated_Source\PSoC5/ETH.c **** 	
1121:.\Generated_Source\PSoC5/ETH.c **** 	CyDelay( 250 ); /* Fixed Boot Delay or chip inintialization will fail */
 2414              		.loc 1 1121 0
 2415 000e 4FF0FA00 		mov	r0, #250
 2416 0012 FFF7FEFF 		bl	CyDelay
1122:.\Generated_Source\PSoC5/ETH.c **** 	
1123:.\Generated_Source\PSoC5/ETH.c **** 	/* Reset the device */
1124:.\Generated_Source\PSoC5/ETH.c **** 	ETH_SetMode(0x80); /* Send Reset Command */
 2417              		.loc 1 1124 0
 2418 0016 4FF08000 		mov	r0, #128
 2419 001a FFF7FEFF 		bl	ETH_SetMode
1125:.\Generated_Source\PSoC5/ETH.c **** 	/* Wait for the chip initialization delay */
1126:.\Generated_Source\PSoC5/ETH.c **** 	CyDelay( 10 );
 2420              		.loc 1 1126 0
 2421 001e 4FF00A00 		mov	r0, #10
 2422 0022 FFF7FEFF 		bl	CyDelay
1127:.\Generated_Source\PSoC5/ETH.c **** 	
1128:.\Generated_Source\PSoC5/ETH.c **** 	/* Close all of the socket, and clear the memory to make them available. */
1129:.\Generated_Source\PSoC5/ETH.c **** 	for(index=0;index<ETH_MAX_SOCKET;++index) {
 2423              		.loc 1 1129 0
 2424 0026 4FF00003 		mov	r3, #0
 2425 002a 7B61     		str	r3, [r7, #20]
 2426 002c 4EE0     		b	.L94
 2427              	.L95:
1130:.\Generated_Source\PSoC5/ETH.c **** 		ETH_SocketClose( index );
 2428              		.loc 1 1130 0 discriminator 2
 2429 002e 7B69     		ldr	r3, [r7, #20]
 2430 0030 DBB2     		uxtb	r3, r3
 2431 0032 1846     		mov	r0, r3
 2432 0034 FFF7FEFF 		bl	ETH_SocketClose
1131:.\Generated_Source\PSoC5/ETH.c **** 		/* Set the socket memory size */
1132:.\Generated_Source\PSoC5/ETH.c **** 		ETH_SetSocketTxMemSize(index, ETH_MEM_2K); /* 2K each */
 2433              		.loc 1 1132 0 discriminator 2
 2434 0038 7B69     		ldr	r3, [r7, #20]
 2435 003a DBB2     		uxtb	r3, r3
 2436 003c 1846     		mov	r0, r3
 2437 003e 4FF00201 		mov	r1, #2
 2438 0042 FFF7FEFF 		bl	ETH_SetSocketTxMemSize
1133:.\Generated_Source\PSoC5/ETH.c **** 		ETH_SetSocketRxMemSize(index, ETH_MEM_2K); /* 2K Each */
 2439              		.loc 1 1133 0 discriminator 2
 2440 0046 7B69     		ldr	r3, [r7, #20]
 2441 0048 DBB2     		uxtb	r3, r3
 2442 004a 1846     		mov	r0, r3
 2443 004c 4FF00201 		mov	r1, #2
 2444 0050 FFF7FEFF 		bl	ETH_SetSocketRxMemSize
1134:.\Generated_Source\PSoC5/ETH.c **** 		// initialize memory buffer pointers
1135:.\Generated_Source\PSoC5/ETH.c **** 		ETH_SetSocketRxReadPtr( index, ETH_SOCKET_RX_BASE[index] );
 2445              		.loc 1 1135 0 discriminator 2
 2446 0054 7B69     		ldr	r3, [r7, #20]
 2447 0056 DAB2     		uxtb	r2, r3
 2448 0058 40F20003 		movw	r3, #:lower16:ETH_SOCKET_RX_BASE
 2449 005c C0F20003 		movt	r3, #:upper16:ETH_SOCKET_RX_BASE
ARM GAS  C:\Users\CHUCK~1.ERH\AppData\Local\Temp\ccWRPeSc.s 			page 64


 2450 0060 7969     		ldr	r1, [r7, #20]
 2451 0062 53F82130 		ldr	r3, [r3, r1, lsl #2]
 2452 0066 9BB2     		uxth	r3, r3
 2453 0068 1046     		mov	r0, r2
 2454 006a 1946     		mov	r1, r3
 2455 006c FFF7FEFF 		bl	ETH_SetSocketRxReadPtr
1136:.\Generated_Source\PSoC5/ETH.c **** 		ETH_SetSocketRxWritePtr( index, ETH_SOCKET_RX_BASE[index] );
 2456              		.loc 1 1136 0 discriminator 2
 2457 0070 7B69     		ldr	r3, [r7, #20]
 2458 0072 DAB2     		uxtb	r2, r3
 2459 0074 40F20003 		movw	r3, #:lower16:ETH_SOCKET_RX_BASE
 2460 0078 C0F20003 		movt	r3, #:upper16:ETH_SOCKET_RX_BASE
 2461 007c 7969     		ldr	r1, [r7, #20]
 2462 007e 53F82130 		ldr	r3, [r3, r1, lsl #2]
 2463 0082 9BB2     		uxth	r3, r3
 2464 0084 1046     		mov	r0, r2
 2465 0086 1946     		mov	r1, r3
 2466 0088 FFF7FEFF 		bl	ETH_SetSocketRxWritePtr
1137:.\Generated_Source\PSoC5/ETH.c **** 		ETH_SetSocketTxReadPtr( index, ETH_SOCKET_TX_BASE[index] );
 2467              		.loc 1 1137 0 discriminator 2
 2468 008c 7B69     		ldr	r3, [r7, #20]
 2469 008e DAB2     		uxtb	r2, r3
 2470 0090 40F20003 		movw	r3, #:lower16:ETH_SOCKET_TX_BASE
 2471 0094 C0F20003 		movt	r3, #:upper16:ETH_SOCKET_TX_BASE
 2472 0098 7969     		ldr	r1, [r7, #20]
 2473 009a 53F82130 		ldr	r3, [r3, r1, lsl #2]
 2474 009e 9BB2     		uxth	r3, r3
 2475 00a0 1046     		mov	r0, r2
 2476 00a2 1946     		mov	r1, r3
 2477 00a4 FFF7FEFF 		bl	ETH_SetSocketTxReadPtr
1138:.\Generated_Source\PSoC5/ETH.c **** 		ETH_SetSocketTxWritePtr( index, ETH_SOCKET_TX_BASE[index] );
 2478              		.loc 1 1138 0 discriminator 2
 2479 00a8 7B69     		ldr	r3, [r7, #20]
 2480 00aa DAB2     		uxtb	r2, r3
 2481 00ac 40F20003 		movw	r3, #:lower16:ETH_SOCKET_TX_BASE
 2482 00b0 C0F20003 		movt	r3, #:upper16:ETH_SOCKET_TX_BASE
 2483 00b4 7969     		ldr	r1, [r7, #20]
 2484 00b6 53F82130 		ldr	r3, [r3, r1, lsl #2]
 2485 00ba 9BB2     		uxth	r3, r3
 2486 00bc 1046     		mov	r0, r2
 2487 00be 1946     		mov	r1, r3
 2488 00c0 FFF7FEFF 		bl	ETH_SetSocketTxWritePtr
1129:.\Generated_Source\PSoC5/ETH.c **** 	for(index=0;index<ETH_MAX_SOCKET;++index) {
 2489              		.loc 1 1129 0 discriminator 2
 2490 00c4 7B69     		ldr	r3, [r7, #20]
 2491 00c6 03F10103 		add	r3, r3, #1
 2492 00ca 7B61     		str	r3, [r7, #20]
 2493              	.L94:
1129:.\Generated_Source\PSoC5/ETH.c **** 	for(index=0;index<ETH_MAX_SOCKET;++index) {
 2494              		.loc 1 1129 0 is_stmt 0 discriminator 1
 2495 00cc 7B69     		ldr	r3, [r7, #20]
 2496 00ce 072B     		cmp	r3, #7
 2497 00d0 ADDD     		ble	.L95
1139:.\Generated_Source\PSoC5/ETH.c **** 	}
1140:.\Generated_Source\PSoC5/ETH.c **** 	/* Set device gateway address */
1141:.\Generated_Source\PSoC5/ETH.c **** 	ETH_SetGatewayAddress(gateway);
 2498              		.loc 1 1141 0 is_stmt 1
ARM GAS  C:\Users\CHUCK~1.ERH\AppData\Local\Temp\ccWRPeSc.s 			page 65


 2499 00d2 3868     		ldr	r0, [r7, #0]
 2500 00d4 FFF7FEFF 		bl	ETH_SetGatewayAddress
1142:.\Generated_Source\PSoC5/ETH.c **** 	ETH_SetSubnetMask( subnet );
 2501              		.loc 1 1142 0
 2502 00d8 7868     		ldr	r0, [r7, #4]
 2503 00da FFF7FEFF 		bl	ETH_SetSubnetMask
1143:.\Generated_Source\PSoC5/ETH.c **** 	/* Store the subnet mask for later use, for ERRATA fix */
1144:.\Generated_Source\PSoC5/ETH.c **** 	ETH_SubnetMask = subnet;
 2504              		.loc 1 1144 0
 2505 00de 40F20003 		movw	r3, #:lower16:ETH_SubnetMask
 2506 00e2 C0F20003 		movt	r3, #:upper16:ETH_SubnetMask
 2507 00e6 7A68     		ldr	r2, [r7, #4]
 2508 00e8 1A60     		str	r2, [r3, #0]
1145:.\Generated_Source\PSoC5/ETH.c **** 	/* store the device mac */
1146:.\Generated_Source\PSoC5/ETH.c **** 	ETH_SetSourceMAC( mac );
 2509              		.loc 1 1146 0
 2510 00ea F868     		ldr	r0, [r7, #12]
 2511 00ec FFF7FEFF 		bl	ETH_SetSourceMAC
1147:.\Generated_Source\PSoC5/ETH.c **** 	/* store the IP address */
1148:.\Generated_Source\PSoC5/ETH.c **** 	ETH_SetSourceIP( ip );
 2512              		.loc 1 1148 0
 2513 00f0 B868     		ldr	r0, [r7, #8]
 2514 00f2 FFF7FEFF 		bl	ETH_SetSourceIP
1149:.\Generated_Source\PSoC5/ETH.c **** 	/* clear pending interrupts */
1150:.\Generated_Source\PSoC5/ETH.c **** 	ETH_SetIR(0xFF);
 2515              		.loc 1 1150 0
 2516 00f6 4FF0FF00 		mov	r0, #255
 2517 00fa FFF7FEFF 		bl	ETH_SetIR
1151:.\Generated_Source\PSoC5/ETH.c **** 	/* clear the subnet mask register (W5100 Errata Fix) */
1152:.\Generated_Source\PSoC5/ETH.c **** 	ETH_SetSubnetMask( 0 );
 2518              		.loc 1 1152 0
 2519 00fe 4FF00000 		mov	r0, #0
 2520 0102 FFF7FEFF 		bl	ETH_SetSubnetMask
1153:.\Generated_Source\PSoC5/ETH.c **** }
 2521              		.loc 1 1153 0
 2522 0106 07F11807 		add	r7, r7, #24
 2523 010a BD46     		mov	sp, r7
 2524 010c 80BD     		pop	{r7, pc}
 2525              		.cfi_endproc
 2526              	.LFE44:
 2527              		.size	ETH_Init, .-ETH_Init
 2528 010e 00BF     		.section	.rodata
 2529              		.align	2
 2530              	.LC0:
 2531 0060 30302D64 		.ascii	"00-de-ad-be-ef-00\000"
 2531      652D6164 
 2531      2D62652D 
 2531      65662D30 
 2531      3000
 2532 0072 0000     		.align	2
 2533              	.LC1:
 2534 0074 3139322E 		.ascii	"192.168.0.101\000"
 2534      3136382E 
 2534      302E3130 
 2534      3100
 2535 0082 0000     		.align	2
 2536              	.LC2:
ARM GAS  C:\Users\CHUCK~1.ERH\AppData\Local\Temp\ccWRPeSc.s 			page 66


 2537 0084 3235352E 		.ascii	"255.255.255.0\000"
 2537      3235352E 
 2537      3235352E 
 2537      3000
 2538 0092 0000     		.align	2
 2539              	.LC3:
 2540 0094 3139322E 		.ascii	"192.168.0.1\000"
 2540      3136382E 
 2540      302E3100 
 2541              		.section	.text.ETH_Start,"ax",%progbits
 2542              		.align	2
 2543              		.global	ETH_Start
 2544              		.thumb
 2545              		.thumb_func
 2546              		.type	ETH_Start, %function
 2547              	ETH_Start:
 2548              	.LFB45:
1154:.\Generated_Source\PSoC5/ETH.c **** /* ------------------------------------------------------------------------ */
1155:.\Generated_Source\PSoC5/ETH.c **** void
1156:.\Generated_Source\PSoC5/ETH.c **** ETH_Start( void )
1157:.\Generated_Source\PSoC5/ETH.c **** {
 2549              		.loc 1 1157 0
 2550              		.cfi_startproc
 2551              		@ args = 0, pretend = 0, frame = 16
 2552              		@ frame_needed = 1, uses_anonymous_args = 0
 2553 0000 80B5     		push	{r7, lr}
 2554              	.LCFI133:
 2555              		.cfi_def_cfa_offset 8
 2556              		.cfi_offset 7, -8
 2557              		.cfi_offset 14, -4
 2558 0002 84B0     		sub	sp, sp, #16
 2559              	.LCFI134:
 2560              		.cfi_def_cfa_offset 24
 2561 0004 00AF     		add	r7, sp, #0
 2562              	.LCFI135:
 2563              		.cfi_def_cfa_register 7
1158:.\Generated_Source\PSoC5/ETH.c **** 	uint32 ip;
1159:.\Generated_Source\PSoC5/ETH.c **** 	uint32 gateway;
1160:.\Generated_Source\PSoC5/ETH.c **** 	uint32 sub;
1161:.\Generated_Source\PSoC5/ETH.c **** 	
1162:.\Generated_Source\PSoC5/ETH.c **** 	/* Check for SPI initialization */
1163:.\Generated_Source\PSoC5/ETH.c **** 	if (SPI_initVar == 0) {
 2564              		.loc 1 1163 0
 2565 0006 40F20003 		movw	r3, #:lower16:SPI_initVar
 2566 000a C0F20003 		movt	r3, #:upper16:SPI_initVar
 2567 000e 1B78     		ldrb	r3, [r3, #0]	@ zero_extendqisi2
 2568 0010 002B     		cmp	r3, #0
 2569 0012 01D1     		bne	.L97
1164:.\Generated_Source\PSoC5/ETH.c **** 		/*
1165:.\Generated_Source\PSoC5/ETH.c **** 		 * the hardware has not yet been initialized.  Before anything can be
1166:.\Generated_Source\PSoC5/ETH.c **** 		 * initialized within the driver, the external hardware must be started
1167:.\Generated_Source\PSoC5/ETH.c **** 		 */
1168:.\Generated_Source\PSoC5/ETH.c **** 		SPI_Start();
 2570              		.loc 1 1168 0
 2571 0014 FFF7FEFF 		bl	SPI_Start
 2572              	.L97:
1169:.\Generated_Source\PSoC5/ETH.c **** 	}
ARM GAS  C:\Users\CHUCK~1.ERH\AppData\Local\Temp\ccWRPeSc.s 			page 67


1170:.\Generated_Source\PSoC5/ETH.c **** 		
1171:.\Generated_Source\PSoC5/ETH.c **** 	/* wait for power on PLL Lock */
1172:.\Generated_Source\PSoC5/ETH.c **** 	CyDelay( 10 );
 2573              		.loc 1 1172 0
 2574 0018 4FF00A00 		mov	r0, #10
 2575 001c FFF7FEFF 		bl	CyDelay
1173:.\Generated_Source\PSoC5/ETH.c **** 	/* V1.2 new -- Parse MAC Address string */
1174:.\Generated_Source\PSoC5/ETH.c **** 	if ( ETH_ParseMAC("00-de-ad-be-ef-00", &ETH_MAC[0]) == CYRET_BAD_DATA) {
 2576              		.loc 1 1174 0
 2577 0020 40F20000 		movw	r0, #:lower16:.LC0
 2578 0024 C0F20000 		movt	r0, #:upper16:.LC0
 2579 0028 40F20001 		movw	r1, #:lower16:ETH_MAC
 2580 002c C0F20001 		movt	r1, #:upper16:ETH_MAC
 2581 0030 FFF7FEFF 		bl	ETH_ParseMAC
 2582 0034 0346     		mov	r3, r0
 2583 0036 062B     		cmp	r3, #6
 2584 0038 29D1     		bne	.L98
1175:.\Generated_Source\PSoC5/ETH.c **** 		ETH_MAC[0] = 0;
 2585              		.loc 1 1175 0
 2586 003a 40F20003 		movw	r3, #:lower16:ETH_MAC
 2587 003e C0F20003 		movt	r3, #:upper16:ETH_MAC
 2588 0042 4FF00002 		mov	r2, #0
 2589 0046 1A70     		strb	r2, [r3, #0]
1176:.\Generated_Source\PSoC5/ETH.c **** 		ETH_MAC[1] = 0xDE;
 2590              		.loc 1 1176 0
 2591 0048 40F20003 		movw	r3, #:lower16:ETH_MAC
 2592 004c C0F20003 		movt	r3, #:upper16:ETH_MAC
 2593 0050 4FF0DE02 		mov	r2, #222
 2594 0054 5A70     		strb	r2, [r3, #1]
1177:.\Generated_Source\PSoC5/ETH.c **** 		ETH_MAC[2] = 0xAD;
 2595              		.loc 1 1177 0
 2596 0056 40F20003 		movw	r3, #:lower16:ETH_MAC
 2597 005a C0F20003 		movt	r3, #:upper16:ETH_MAC
 2598 005e 4FF0AD02 		mov	r2, #173
 2599 0062 9A70     		strb	r2, [r3, #2]
1178:.\Generated_Source\PSoC5/ETH.c **** 		ETH_MAC[3] = 0xC0;
 2600              		.loc 1 1178 0
 2601 0064 40F20003 		movw	r3, #:lower16:ETH_MAC
 2602 0068 C0F20003 		movt	r3, #:upper16:ETH_MAC
 2603 006c 4FF0C002 		mov	r2, #192
 2604 0070 DA70     		strb	r2, [r3, #3]
1179:.\Generated_Source\PSoC5/ETH.c **** 		ETH_MAC[4] = 0xDE;
 2605              		.loc 1 1179 0
 2606 0072 40F20003 		movw	r3, #:lower16:ETH_MAC
 2607 0076 C0F20003 		movt	r3, #:upper16:ETH_MAC
 2608 007a 4FF0DE02 		mov	r2, #222
 2609 007e 1A71     		strb	r2, [r3, #4]
1180:.\Generated_Source\PSoC5/ETH.c **** 		ETH_MAC[5] = 0;
 2610              		.loc 1 1180 0
 2611 0080 40F20003 		movw	r3, #:lower16:ETH_MAC
 2612 0084 C0F20003 		movt	r3, #:upper16:ETH_MAC
 2613 0088 4FF00002 		mov	r2, #0
 2614 008c 5A71     		strb	r2, [r3, #5]
 2615              	.L98:
1181:.\Generated_Source\PSoC5/ETH.c **** 	}
1182:.\Generated_Source\PSoC5/ETH.c **** 	/* END of V1.2 Update ------ */
1183:.\Generated_Source\PSoC5/ETH.c **** 	ip = ETH_ParseIP("192.168.0.101");
ARM GAS  C:\Users\CHUCK~1.ERH\AppData\Local\Temp\ccWRPeSc.s 			page 68


 2616              		.loc 1 1183 0
 2617 008e 40F20000 		movw	r0, #:lower16:.LC1
 2618 0092 C0F20000 		movt	r0, #:upper16:.LC1
 2619 0096 FFF7FEFF 		bl	ETH_ParseIP
 2620 009a F860     		str	r0, [r7, #12]
1184:.\Generated_Source\PSoC5/ETH.c **** 	sub = ETH_ParseIP("255.255.255.0");
 2621              		.loc 1 1184 0
 2622 009c 40F20000 		movw	r0, #:lower16:.LC2
 2623 00a0 C0F20000 		movt	r0, #:upper16:.LC2
 2624 00a4 FFF7FEFF 		bl	ETH_ParseIP
 2625 00a8 B860     		str	r0, [r7, #8]
1185:.\Generated_Source\PSoC5/ETH.c **** 	gateway = ETH_ParseIP("192.168.0.1");
 2626              		.loc 1 1185 0
 2627 00aa 40F20000 		movw	r0, #:lower16:.LC3
 2628 00ae C0F20000 		movt	r0, #:upper16:.LC3
 2629 00b2 FFF7FEFF 		bl	ETH_ParseIP
 2630 00b6 7860     		str	r0, [r7, #4]
1186:.\Generated_Source\PSoC5/ETH.c **** 	/* Initialize the device with the default data */
1187:.\Generated_Source\PSoC5/ETH.c **** 	ETH_Init( &ETH_MAC[0], ip, sub, gateway  );
 2631              		.loc 1 1187 0
 2632 00b8 40F20000 		movw	r0, #:lower16:ETH_MAC
 2633 00bc C0F20000 		movt	r0, #:upper16:ETH_MAC
 2634 00c0 F968     		ldr	r1, [r7, #12]
 2635 00c2 BA68     		ldr	r2, [r7, #8]
 2636 00c4 7B68     		ldr	r3, [r7, #4]
 2637 00c6 FFF7FEFF 		bl	ETH_Init
1188:.\Generated_Source\PSoC5/ETH.c **** }
 2638              		.loc 1 1188 0
 2639 00ca 07F11007 		add	r7, r7, #16
 2640 00ce BD46     		mov	sp, r7
 2641 00d0 80BD     		pop	{r7, pc}
 2642              		.cfi_endproc
 2643              	.LFE45:
 2644              		.size	ETH_Start, .-ETH_Start
 2645 00d2 00BF     		.section	.text.ETH_ParseIP,"ax",%progbits
 2646              		.align	2
 2647              		.global	ETH_ParseIP
 2648              		.thumb
 2649              		.thumb_func
 2650              		.type	ETH_ParseIP, %function
 2651              	ETH_ParseIP:
 2652              	.LFB46:
1189:.\Generated_Source\PSoC5/ETH.c **** /* ------------------------------------------------------------------------ */
1190:.\Generated_Source\PSoC5/ETH.c **** uint32
1191:.\Generated_Source\PSoC5/ETH.c **** ETH_ParseIP( const char* ipString )
1192:.\Generated_Source\PSoC5/ETH.c **** {
 2653              		.loc 1 1192 0
 2654              		.cfi_startproc
 2655              		@ args = 0, pretend = 0, frame = 32
 2656              		@ frame_needed = 1, uses_anonymous_args = 0
 2657 0000 90B5     		push	{r4, r7, lr}
 2658              	.LCFI136:
 2659              		.cfi_def_cfa_offset 12
 2660              		.cfi_offset 4, -12
 2661              		.cfi_offset 7, -8
 2662              		.cfi_offset 14, -4
 2663 0002 89B0     		sub	sp, sp, #36
ARM GAS  C:\Users\CHUCK~1.ERH\AppData\Local\Temp\ccWRPeSc.s 			page 69


 2664              	.LCFI137:
 2665              		.cfi_def_cfa_offset 48
 2666 0004 00AF     		add	r7, sp, #0
 2667              	.LCFI138:
 2668              		.cfi_def_cfa_register 7
 2669 0006 7860     		str	r0, [r7, #4]
1193:.\Generated_Source\PSoC5/ETH.c **** 	/*
1194:.\Generated_Source\PSoC5/ETH.c **** 	 * Parse a human readable string in to a IP address usable by the hardare
1195:.\Generated_Source\PSoC5/ETH.c **** 	 */
1196:.\Generated_Source\PSoC5/ETH.c **** 	int index;
1197:.\Generated_Source\PSoC5/ETH.c **** 	char digit[5];
1198:.\Generated_Source\PSoC5/ETH.c **** 	uint8 ip[4];
1199:.\Generated_Source\PSoC5/ETH.c **** 	int counter;
1200:.\Generated_Source\PSoC5/ETH.c **** 	int dindex;
1201:.\Generated_Source\PSoC5/ETH.c **** 	
1202:.\Generated_Source\PSoC5/ETH.c **** 	index = 0;
 2670              		.loc 1 1202 0
 2671 0008 4FF00003 		mov	r3, #0
 2672 000c FB61     		str	r3, [r7, #28]
1203:.\Generated_Source\PSoC5/ETH.c **** 	dindex = 0;
 2673              		.loc 1 1203 0
 2674 000e 4FF00003 		mov	r3, #0
 2675 0012 7B61     		str	r3, [r7, #20]
1204:.\Generated_Source\PSoC5/ETH.c **** 	counter = 0;
 2676              		.loc 1 1204 0
 2677 0014 4FF00003 		mov	r3, #0
 2678 0018 BB61     		str	r3, [r7, #24]
1205:.\Generated_Source\PSoC5/ETH.c **** 	
1206:.\Generated_Source\PSoC5/ETH.c **** 	while ( (counter < 4) && ((unsigned int)index < strlen(ipString) ) ) {
 2679              		.loc 1 1206 0
 2680 001a 6FE0     		b	.L100
 2681              	.L109:
1207:.\Generated_Source\PSoC5/ETH.c **** 		if ( (ipString[index] >= '0' ) && (ipString[index] <= '9') ) {
 2682              		.loc 1 1207 0
 2683 001c FB69     		ldr	r3, [r7, #28]
 2684 001e 7A68     		ldr	r2, [r7, #4]
 2685 0020 D318     		adds	r3, r2, r3
 2686 0022 1B78     		ldrb	r3, [r3, #0]	@ zero_extendqisi2
 2687 0024 2F2B     		cmp	r3, #47
 2688 0026 18D9     		bls	.L101
 2689              		.loc 1 1207 0 is_stmt 0 discriminator 1
 2690 0028 FB69     		ldr	r3, [r7, #28]
 2691 002a 7A68     		ldr	r2, [r7, #4]
 2692 002c D318     		adds	r3, r2, r3
 2693 002e 1B78     		ldrb	r3, [r3, #0]	@ zero_extendqisi2
 2694 0030 392B     		cmp	r3, #57
 2695 0032 12D8     		bhi	.L101
1208:.\Generated_Source\PSoC5/ETH.c **** 			if (dindex > 3) return( 0xFFFFFFFF );
 2696              		.loc 1 1208 0 is_stmt 1
 2697 0034 7B69     		ldr	r3, [r7, #20]
 2698 0036 032B     		cmp	r3, #3
 2699 0038 02DD     		ble	.L102
 2700              		.loc 1 1208 0 is_stmt 0 discriminator 1
 2701 003a 4FF0FF33 		mov	r3, #-1
 2702 003e 81E0     		b	.L111
 2703              	.L102:
1209:.\Generated_Source\PSoC5/ETH.c **** 			digit[dindex++] = ipString[index];
ARM GAS  C:\Users\CHUCK~1.ERH\AppData\Local\Temp\ccWRPeSc.s 			page 70


 2704              		.loc 1 1209 0 is_stmt 1
 2705 0040 FB69     		ldr	r3, [r7, #28]
 2706 0042 7A68     		ldr	r2, [r7, #4]
 2707 0044 D318     		adds	r3, r2, r3
 2708 0046 1A78     		ldrb	r2, [r3, #0]	@ zero_extendqisi2
 2709 0048 07F10C01 		add	r1, r7, #12
 2710 004c 7B69     		ldr	r3, [r7, #20]
 2711 004e CB18     		adds	r3, r1, r3
 2712 0050 1A70     		strb	r2, [r3, #0]
 2713 0052 7B69     		ldr	r3, [r7, #20]
 2714 0054 03F10103 		add	r3, r3, #1
 2715 0058 7B61     		str	r3, [r7, #20]
 2716              	.L101:
1210:.\Generated_Source\PSoC5/ETH.c **** 			
1211:.\Generated_Source\PSoC5/ETH.c **** 		}
1212:.\Generated_Source\PSoC5/ETH.c **** 		
1213:.\Generated_Source\PSoC5/ETH.c **** 		if ( (ipString[index] == '.') || (ipString[index+1] == 0) ) {
 2717              		.loc 1 1213 0
 2718 005a FB69     		ldr	r3, [r7, #28]
 2719 005c 7A68     		ldr	r2, [r7, #4]
 2720 005e D318     		adds	r3, r2, r3
 2721 0060 1B78     		ldrb	r3, [r3, #0]	@ zero_extendqisi2
 2722 0062 2E2B     		cmp	r3, #46
 2723 0064 07D0     		beq	.L104
 2724              		.loc 1 1213 0 is_stmt 0 discriminator 1
 2725 0066 FB69     		ldr	r3, [r7, #28]
 2726 0068 03F10103 		add	r3, r3, #1
 2727 006c 7A68     		ldr	r2, [r7, #4]
 2728 006e D318     		adds	r3, r2, r3
 2729 0070 1B78     		ldrb	r3, [r3, #0]	@ zero_extendqisi2
 2730 0072 002B     		cmp	r3, #0
 2731 0074 3ED1     		bne	.L105
 2732              	.L104:
1214:.\Generated_Source\PSoC5/ETH.c **** 			digit[dindex] = 0;
 2733              		.loc 1 1214 0 is_stmt 1
 2734 0076 07F10C02 		add	r2, r7, #12
 2735 007a 7B69     		ldr	r3, [r7, #20]
 2736 007c D318     		adds	r3, r2, r3
 2737 007e 4FF00002 		mov	r2, #0
 2738 0082 1A70     		strb	r2, [r3, #0]
1215:.\Generated_Source\PSoC5/ETH.c **** 			dindex = 0;
 2739              		.loc 1 1215 0
 2740 0084 4FF00003 		mov	r3, #0
 2741 0088 7B61     		str	r3, [r7, #20]
1216:.\Generated_Source\PSoC5/ETH.c **** 			/* convert the value and store in the buffer */
1217:.\Generated_Source\PSoC5/ETH.c **** 			ip[counter] = 0;
 2742              		.loc 1 1217 0
 2743 008a 07F10802 		add	r2, r7, #8
 2744 008e BB69     		ldr	r3, [r7, #24]
 2745 0090 D318     		adds	r3, r2, r3
 2746 0092 4FF00002 		mov	r2, #0
 2747 0096 1A70     		strb	r2, [r3, #0]
1218:.\Generated_Source\PSoC5/ETH.c **** 			while (digit[dindex] != 0) {
 2748              		.loc 1 1218 0
 2749 0098 1EE0     		b	.L106
 2750              	.L107:
1219:.\Generated_Source\PSoC5/ETH.c **** 				ip[counter] = (ip[counter]*10) + (digit[dindex]-'0');
ARM GAS  C:\Users\CHUCK~1.ERH\AppData\Local\Temp\ccWRPeSc.s 			page 71


 2751              		.loc 1 1219 0
 2752 009a 07F10802 		add	r2, r7, #8
 2753 009e BB69     		ldr	r3, [r7, #24]
 2754 00a0 D318     		adds	r3, r2, r3
 2755 00a2 1B78     		ldrb	r3, [r3, #0]	@ zero_extendqisi2
 2756 00a4 1A46     		mov	r2, r3
 2757 00a6 4FEA8202 		lsl	r2, r2, #2
 2758 00aa D318     		adds	r3, r2, r3
 2759 00ac 4FEA4303 		lsl	r3, r3, #1
 2760 00b0 DAB2     		uxtb	r2, r3
 2761 00b2 07F10C01 		add	r1, r7, #12
 2762 00b6 7B69     		ldr	r3, [r7, #20]
 2763 00b8 CB18     		adds	r3, r1, r3
 2764 00ba 1B78     		ldrb	r3, [r3, #0]	@ zero_extendqisi2
 2765 00bc D318     		adds	r3, r2, r3
 2766 00be DBB2     		uxtb	r3, r3
 2767 00c0 A3F13003 		sub	r3, r3, #48
 2768 00c4 DAB2     		uxtb	r2, r3
 2769 00c6 07F10801 		add	r1, r7, #8
 2770 00ca BB69     		ldr	r3, [r7, #24]
 2771 00cc CB18     		adds	r3, r1, r3
 2772 00ce 1A70     		strb	r2, [r3, #0]
1220:.\Generated_Source\PSoC5/ETH.c **** 				++dindex;
 2773              		.loc 1 1220 0
 2774 00d0 7B69     		ldr	r3, [r7, #20]
 2775 00d2 03F10103 		add	r3, r3, #1
 2776 00d6 7B61     		str	r3, [r7, #20]
 2777              	.L106:
1218:.\Generated_Source\PSoC5/ETH.c **** 			while (digit[dindex] != 0) {
 2778              		.loc 1 1218 0 discriminator 1
 2779 00d8 07F10C02 		add	r2, r7, #12
 2780 00dc 7B69     		ldr	r3, [r7, #20]
 2781 00de D318     		adds	r3, r2, r3
 2782 00e0 1B78     		ldrb	r3, [r3, #0]	@ zero_extendqisi2
 2783 00e2 002B     		cmp	r3, #0
 2784 00e4 D9D1     		bne	.L107
1221:.\Generated_Source\PSoC5/ETH.c **** 				// ip[counter] = ...
1222:.\Generated_Source\PSoC5/ETH.c **** 			}
1223:.\Generated_Source\PSoC5/ETH.c **** 			/* reset the digit index to start accumulating digits again*/
1224:.\Generated_Source\PSoC5/ETH.c **** 			dindex = 0;
 2785              		.loc 1 1224 0
 2786 00e6 4FF00003 		mov	r3, #0
 2787 00ea 7B61     		str	r3, [r7, #20]
1225:.\Generated_Source\PSoC5/ETH.c **** 			/* move to the next address byte */
1226:.\Generated_Source\PSoC5/ETH.c **** 			++counter;
 2788              		.loc 1 1226 0
 2789 00ec BB69     		ldr	r3, [r7, #24]
 2790 00ee 03F10103 		add	r3, r3, #1
 2791 00f2 BB61     		str	r3, [r7, #24]
 2792              	.L105:
1227:.\Generated_Source\PSoC5/ETH.c **** 		}
1228:.\Generated_Source\PSoC5/ETH.c **** 		++index;
 2793              		.loc 1 1228 0
 2794 00f4 FB69     		ldr	r3, [r7, #28]
 2795 00f6 03F10103 		add	r3, r3, #1
 2796 00fa FB61     		str	r3, [r7, #28]
 2797              	.L100:
ARM GAS  C:\Users\CHUCK~1.ERH\AppData\Local\Temp\ccWRPeSc.s 			page 72


1206:.\Generated_Source\PSoC5/ETH.c **** 	while ( (counter < 4) && ((unsigned int)index < strlen(ipString) ) ) {
 2798              		.loc 1 1206 0 discriminator 1
 2799 00fc BB69     		ldr	r3, [r7, #24]
 2800 00fe 032B     		cmp	r3, #3
 2801 0100 06DC     		bgt	.L108
1206:.\Generated_Source\PSoC5/ETH.c **** 	while ( (counter < 4) && ((unsigned int)index < strlen(ipString) ) ) {
 2802              		.loc 1 1206 0 is_stmt 0 discriminator 2
 2803 0102 FC69     		ldr	r4, [r7, #28]
 2804 0104 7868     		ldr	r0, [r7, #4]
 2805 0106 FFF7FEFF 		bl	strlen
 2806 010a 0346     		mov	r3, r0
 2807 010c 9C42     		cmp	r4, r3
 2808 010e 85D3     		bcc	.L109
 2809              	.L108:
1229:.\Generated_Source\PSoC5/ETH.c **** 	}
1230:.\Generated_Source\PSoC5/ETH.c **** 	
1231:.\Generated_Source\PSoC5/ETH.c **** 	if (counter != 4) {
 2810              		.loc 1 1231 0 is_stmt 1
 2811 0110 BB69     		ldr	r3, [r7, #24]
 2812 0112 042B     		cmp	r3, #4
 2813 0114 02D0     		beq	.L110
1232:.\Generated_Source\PSoC5/ETH.c **** 		return( 0xFFFFFFFF );
 2814              		.loc 1 1232 0
 2815 0116 4FF0FF33 		mov	r3, #-1
 2816 011a 13E0     		b	.L111
 2817              	.L110:
1233:.\Generated_Source\PSoC5/ETH.c **** 	}
1234:.\Generated_Source\PSoC5/ETH.c **** 	else {
1235:.\Generated_Source\PSoC5/ETH.c **** 		return( ETH_IPADDRESS(ip[0], ip[1], ip[2], ip[3]) );
 2818              		.loc 1 1235 0
 2819 011c 3B7A     		ldrb	r3, [r7, #8]	@ zero_extendqisi2
 2820 011e 1A46     		mov	r2, r3
 2821 0120 7B7A     		ldrb	r3, [r7, #9]	@ zero_extendqisi2
 2822 0122 4FEA0323 		lsl	r3, r3, #8
 2823 0126 4FEA0343 		lsl	r3, r3, #16
 2824 012a 4FEA1343 		lsr	r3, r3, #16
 2825 012e D218     		adds	r2, r2, r3
 2826 0130 BB7A     		ldrb	r3, [r7, #10]	@ zero_extendqisi2
 2827 0132 4FEA0343 		lsl	r3, r3, #16
 2828 0136 03F47F03 		and	r3, r3, #16711680
 2829 013a D218     		adds	r2, r2, r3
 2830 013c FB7A     		ldrb	r3, [r7, #11]	@ zero_extendqisi2
 2831 013e 4FEA0363 		lsl	r3, r3, #24
 2832 0142 D318     		adds	r3, r2, r3
 2833              	.L111:
1236:.\Generated_Source\PSoC5/ETH.c **** 	}
1237:.\Generated_Source\PSoC5/ETH.c **** }
 2834              		.loc 1 1237 0
 2835 0144 1846     		mov	r0, r3
 2836 0146 07F12407 		add	r7, r7, #36
 2837 014a BD46     		mov	sp, r7
 2838 014c 90BD     		pop	{r4, r7, pc}
 2839              		.cfi_endproc
 2840              	.LFE46:
 2841              		.size	ETH_ParseIP, .-ETH_ParseIP
 2842 014e 00BF     		.section	.text.ETH_ParseMAC,"ax",%progbits
 2843              		.align	2
ARM GAS  C:\Users\CHUCK~1.ERH\AppData\Local\Temp\ccWRPeSc.s 			page 73


 2844              		.global	ETH_ParseMAC
 2845              		.thumb
 2846              		.thumb_func
 2847              		.type	ETH_ParseMAC, %function
 2848              	ETH_ParseMAC:
 2849              	.LFB47:
1238:.\Generated_Source\PSoC5/ETH.c **** /* ------------------------------------------------------------------------ */
1239:.\Generated_Source\PSoC5/ETH.c **** /**
1240:.\Generated_Source\PSoC5/ETH.c ****  * /brief Parse a MAC Address string in to a 6-byte mac address
1241:.\Generated_Source\PSoC5/ETH.c ****  * /param *macString Pointer to the ASCII-Z String containing the MAC address
1242:.\Generated_Source\PSoC5/ETH.c ****  * /param *mac Pointer to the 6-byte array to hold the output mac addres
1243:.\Generated_Source\PSoC5/ETH.c ****  */
1244:.\Generated_Source\PSoC5/ETH.c **** cystatus ETH_ParseMAC(const char *macString, uint8 *mac)
1245:.\Generated_Source\PSoC5/ETH.c **** {
 2850              		.loc 1 1245 0
 2851              		.cfi_startproc
 2852              		@ args = 0, pretend = 0, frame = 24
 2853              		@ frame_needed = 1, uses_anonymous_args = 0
 2854              		@ link register save eliminated.
 2855 0000 80B4     		push	{r7}
 2856              	.LCFI139:
 2857              		.cfi_def_cfa_offset 4
 2858              		.cfi_offset 7, -4
 2859 0002 87B0     		sub	sp, sp, #28
 2860              	.LCFI140:
 2861              		.cfi_def_cfa_offset 32
 2862 0004 00AF     		add	r7, sp, #0
 2863              	.LCFI141:
 2864              		.cfi_def_cfa_register 7
 2865 0006 7860     		str	r0, [r7, #4]
 2866 0008 3960     		str	r1, [r7, #0]
1246:.\Generated_Source\PSoC5/ETH.c **** 	/* 
1247:.\Generated_Source\PSoC5/ETH.c **** 	 * a mac address is specified as a string of 6 hex bytes with
1248:.\Generated_Source\PSoC5/ETH.c **** 	 * dashes ('-') seperating the bytes.  An invalidly formed
1249:.\Generated_Source\PSoC5/ETH.c **** 	 * address will only process the values up the error and return BAD_DATA
1250:.\Generated_Source\PSoC5/ETH.c **** 	 * otherwise, SUCESS is returned.
1251:.\Generated_Source\PSoC5/ETH.c **** 	 */
1252:.\Generated_Source\PSoC5/ETH.c **** 	int digit;
1253:.\Generated_Source\PSoC5/ETH.c **** 	int index;
1254:.\Generated_Source\PSoC5/ETH.c **** 	cystatus result;
1255:.\Generated_Source\PSoC5/ETH.c **** 	
1256:.\Generated_Source\PSoC5/ETH.c **** 	result = CYRET_SUCCESS;
 2867              		.loc 1 1256 0
 2868 000a 4FF00003 		mov	r3, #0
 2869 000e FB60     		str	r3, [r7, #12]
1257:.\Generated_Source\PSoC5/ETH.c **** 	index = 0;
 2870              		.loc 1 1257 0
 2871 0010 4FF00003 		mov	r3, #0
 2872 0014 3B61     		str	r3, [r7, #16]
1258:.\Generated_Source\PSoC5/ETH.c **** 	for(digit = 0;(digit<6) && (result == CYRET_SUCCESS)&&(macString[index] != 0);++digit) {
 2873              		.loc 1 1258 0
 2874 0016 4FF00003 		mov	r3, #0
 2875 001a 7B61     		str	r3, [r7, #20]
 2876 001c 09E1     		b	.L113
 2877              	.L139:
1259:.\Generated_Source\PSoC5/ETH.c **** 		// process the first nibble
1260:.\Generated_Source\PSoC5/ETH.c **** 		if (ETH_ISXDIGIT(macString[index]) ) {
ARM GAS  C:\Users\CHUCK~1.ERH\AppData\Local\Temp\ccWRPeSc.s 			page 74


 2878              		.loc 1 1260 0
 2879 001e 3B69     		ldr	r3, [r7, #16]
 2880 0020 7A68     		ldr	r2, [r7, #4]
 2881 0022 D318     		adds	r3, r2, r3
 2882 0024 1B78     		ldrb	r3, [r3, #0]	@ zero_extendqisi2
 2883 0026 2F2B     		cmp	r3, #47
 2884 0028 05D9     		bls	.L114
 2885              		.loc 1 1260 0 is_stmt 0 discriminator 1
 2886 002a 3B69     		ldr	r3, [r7, #16]
 2887 002c 7A68     		ldr	r2, [r7, #4]
 2888 002e D318     		adds	r3, r2, r3
 2889 0030 1B78     		ldrb	r3, [r3, #0]	@ zero_extendqisi2
 2890 0032 392B     		cmp	r3, #57
 2891 0034 19D9     		bls	.L115
 2892              	.L114:
 2893              		.loc 1 1260 0 discriminator 2
 2894 0036 3B69     		ldr	r3, [r7, #16]
 2895 0038 7A68     		ldr	r2, [r7, #4]
 2896 003a D318     		adds	r3, r2, r3
 2897 003c 1B78     		ldrb	r3, [r3, #0]	@ zero_extendqisi2
 2898 003e 602B     		cmp	r3, #96
 2899 0040 05D9     		bls	.L116
 2900              		.loc 1 1260 0 discriminator 1
 2901 0042 3B69     		ldr	r3, [r7, #16]
 2902 0044 7A68     		ldr	r2, [r7, #4]
 2903 0046 D318     		adds	r3, r2, r3
 2904 0048 1B78     		ldrb	r3, [r3, #0]	@ zero_extendqisi2
 2905 004a 662B     		cmp	r3, #102
 2906 004c 0DD9     		bls	.L115
 2907              	.L116:
 2908              		.loc 1 1260 0 discriminator 2
 2909 004e 3B69     		ldr	r3, [r7, #16]
 2910 0050 7A68     		ldr	r2, [r7, #4]
 2911 0052 D318     		adds	r3, r2, r3
 2912 0054 1B78     		ldrb	r3, [r3, #0]	@ zero_extendqisi2
 2913 0056 402B     		cmp	r3, #64
 2914 0058 40F2E480 		bls	.L117
 2915              		.loc 1 1260 0 discriminator 3
 2916 005c 3B69     		ldr	r3, [r7, #16]
 2917 005e 7A68     		ldr	r2, [r7, #4]
 2918 0060 D318     		adds	r3, r2, r3
 2919 0062 1B78     		ldrb	r3, [r3, #0]	@ zero_extendqisi2
 2920 0064 462B     		cmp	r3, #70
 2921 0066 00F2DD80 		bhi	.L117
 2922              	.L115:
1261:.\Generated_Source\PSoC5/ETH.c **** 			mac[digit] = ETH_HEX2BIN(macString[index]);
 2923              		.loc 1 1261 0 is_stmt 1
 2924 006a 7B69     		ldr	r3, [r7, #20]
 2925 006c 3A68     		ldr	r2, [r7, #0]
 2926 006e D218     		adds	r2, r2, r3
 2927 0070 3B69     		ldr	r3, [r7, #16]
 2928 0072 7968     		ldr	r1, [r7, #4]
 2929 0074 CB18     		adds	r3, r1, r3
 2930 0076 1B78     		ldrb	r3, [r3, #0]	@ zero_extendqisi2
 2931 0078 2F2B     		cmp	r3, #47
 2932 007a 0DD9     		bls	.L118
 2933              		.loc 1 1261 0 is_stmt 0 discriminator 1
ARM GAS  C:\Users\CHUCK~1.ERH\AppData\Local\Temp\ccWRPeSc.s 			page 75


 2934 007c 3B69     		ldr	r3, [r7, #16]
 2935 007e 7968     		ldr	r1, [r7, #4]
 2936 0080 CB18     		adds	r3, r1, r3
 2937 0082 1B78     		ldrb	r3, [r3, #0]	@ zero_extendqisi2
 2938 0084 392B     		cmp	r3, #57
 2939 0086 07D8     		bhi	.L118
 2940 0088 3B69     		ldr	r3, [r7, #16]
 2941 008a 7968     		ldr	r1, [r7, #4]
 2942 008c CB18     		adds	r3, r1, r3
 2943 008e 1B78     		ldrb	r3, [r3, #0]	@ zero_extendqisi2
 2944 0090 A3F13003 		sub	r3, r3, #48
 2945 0094 DBB2     		uxtb	r3, r3
 2946 0096 29E0     		b	.L119
 2947              	.L118:
 2948              		.loc 1 1261 0 discriminator 2
 2949 0098 3B69     		ldr	r3, [r7, #16]
 2950 009a 7968     		ldr	r1, [r7, #4]
 2951 009c CB18     		adds	r3, r1, r3
 2952 009e 1B78     		ldrb	r3, [r3, #0]	@ zero_extendqisi2
 2953 00a0 602B     		cmp	r3, #96
 2954 00a2 0DD9     		bls	.L120
 2955              		.loc 1 1261 0 discriminator 4
 2956 00a4 3B69     		ldr	r3, [r7, #16]
 2957 00a6 7968     		ldr	r1, [r7, #4]
 2958 00a8 CB18     		adds	r3, r1, r3
 2959 00aa 1B78     		ldrb	r3, [r3, #0]	@ zero_extendqisi2
 2960 00ac 662B     		cmp	r3, #102
 2961 00ae 07D8     		bhi	.L120
 2962              		.loc 1 1261 0 discriminator 2
 2963 00b0 3B69     		ldr	r3, [r7, #16]
 2964 00b2 7968     		ldr	r1, [r7, #4]
 2965 00b4 CB18     		adds	r3, r1, r3
 2966 00b6 1B78     		ldrb	r3, [r3, #0]	@ zero_extendqisi2
 2967 00b8 A3F15703 		sub	r3, r3, #87
 2968 00bc DBB2     		uxtb	r3, r3
 2969 00be 15E0     		b	.L121
 2970              	.L120:
 2971              		.loc 1 1261 0 discriminator 5
 2972 00c0 3B69     		ldr	r3, [r7, #16]
 2973 00c2 7968     		ldr	r1, [r7, #4]
 2974 00c4 CB18     		adds	r3, r1, r3
 2975 00c6 1B78     		ldrb	r3, [r3, #0]	@ zero_extendqisi2
 2976 00c8 402B     		cmp	r3, #64
 2977 00ca 0DD9     		bls	.L122
 2978              		.loc 1 1261 0 discriminator 7
 2979 00cc 3B69     		ldr	r3, [r7, #16]
 2980 00ce 7968     		ldr	r1, [r7, #4]
 2981 00d0 CB18     		adds	r3, r1, r3
 2982 00d2 1B78     		ldrb	r3, [r3, #0]	@ zero_extendqisi2
 2983 00d4 462B     		cmp	r3, #70
 2984 00d6 07D8     		bhi	.L122
 2985              		.loc 1 1261 0 discriminator 3
 2986 00d8 3B69     		ldr	r3, [r7, #16]
 2987 00da 7968     		ldr	r1, [r7, #4]
 2988 00dc CB18     		adds	r3, r1, r3
 2989 00de 1B78     		ldrb	r3, [r3, #0]	@ zero_extendqisi2
 2990 00e0 A3F13703 		sub	r3, r3, #55
ARM GAS  C:\Users\CHUCK~1.ERH\AppData\Local\Temp\ccWRPeSc.s 			page 76


 2991 00e4 DBB2     		uxtb	r3, r3
 2992 00e6 01E0     		b	.L123
 2993              	.L122:
 2994              		.loc 1 1261 0 discriminator 8
 2995 00e8 4FF00003 		mov	r3, #0
 2996              	.L123:
 2997              	.L121:
 2998              	.L119:
 2999              		.loc 1 1261 0 discriminator 3
 3000 00ec 1370     		strb	r3, [r2, #0]
1262:.\Generated_Source\PSoC5/ETH.c **** 			++index;
 3001              		.loc 1 1262 0 is_stmt 1 discriminator 3
 3002 00ee 3B69     		ldr	r3, [r7, #16]
 3003 00f0 03F10103 		add	r3, r3, #1
 3004 00f4 3B61     		str	r3, [r7, #16]
1263:.\Generated_Source\PSoC5/ETH.c **** 			mac[digit] <<= 4;
 3005              		.loc 1 1263 0 discriminator 3
 3006 00f6 7B69     		ldr	r3, [r7, #20]
 3007 00f8 3A68     		ldr	r2, [r7, #0]
 3008 00fa D318     		adds	r3, r2, r3
 3009 00fc 7A69     		ldr	r2, [r7, #20]
 3010 00fe 3968     		ldr	r1, [r7, #0]
 3011 0100 8A18     		adds	r2, r1, r2
 3012 0102 1278     		ldrb	r2, [r2, #0]	@ zero_extendqisi2
 3013 0104 4FEA0212 		lsl	r2, r2, #4
 3014 0108 D2B2     		uxtb	r2, r2
 3015 010a 1A70     		strb	r2, [r3, #0]
1264:.\Generated_Source\PSoC5/ETH.c **** 			if (ETH_ISXDIGIT(macString[index])) {
 3016              		.loc 1 1264 0 discriminator 3
 3017 010c 3B69     		ldr	r3, [r7, #16]
 3018 010e 7A68     		ldr	r2, [r7, #4]
 3019 0110 D318     		adds	r3, r2, r3
 3020 0112 1B78     		ldrb	r3, [r3, #0]	@ zero_extendqisi2
 3021 0114 2F2B     		cmp	r3, #47
 3022 0116 05D9     		bls	.L124
 3023              		.loc 1 1264 0 is_stmt 0 discriminator 1
 3024 0118 3B69     		ldr	r3, [r7, #16]
 3025 011a 7A68     		ldr	r2, [r7, #4]
 3026 011c D318     		adds	r3, r2, r3
 3027 011e 1B78     		ldrb	r3, [r3, #0]	@ zero_extendqisi2
 3028 0120 392B     		cmp	r3, #57
 3029 0122 17D9     		bls	.L125
 3030              	.L124:
 3031              		.loc 1 1264 0 discriminator 2
 3032 0124 3B69     		ldr	r3, [r7, #16]
 3033 0126 7A68     		ldr	r2, [r7, #4]
 3034 0128 D318     		adds	r3, r2, r3
 3035 012a 1B78     		ldrb	r3, [r3, #0]	@ zero_extendqisi2
 3036 012c 602B     		cmp	r3, #96
 3037 012e 05D9     		bls	.L126
 3038              		.loc 1 1264 0 discriminator 1
 3039 0130 3B69     		ldr	r3, [r7, #16]
 3040 0132 7A68     		ldr	r2, [r7, #4]
 3041 0134 D318     		adds	r3, r2, r3
 3042 0136 1B78     		ldrb	r3, [r3, #0]	@ zero_extendqisi2
 3043 0138 662B     		cmp	r3, #102
 3044 013a 0BD9     		bls	.L125
ARM GAS  C:\Users\CHUCK~1.ERH\AppData\Local\Temp\ccWRPeSc.s 			page 77


 3045              	.L126:
 3046              		.loc 1 1264 0 discriminator 2
 3047 013c 3B69     		ldr	r3, [r7, #16]
 3048 013e 7A68     		ldr	r2, [r7, #4]
 3049 0140 D318     		adds	r3, r2, r3
 3050 0142 1B78     		ldrb	r3, [r3, #0]	@ zero_extendqisi2
 3051 0144 402B     		cmp	r3, #64
 3052 0146 68D9     		bls	.L127
 3053              		.loc 1 1264 0 discriminator 3
 3054 0148 3B69     		ldr	r3, [r7, #16]
 3055 014a 7A68     		ldr	r2, [r7, #4]
 3056 014c D318     		adds	r3, r2, r3
 3057 014e 1B78     		ldrb	r3, [r3, #0]	@ zero_extendqisi2
 3058 0150 462B     		cmp	r3, #70
 3059 0152 62D8     		bhi	.L127
 3060              	.L125:
1265:.\Generated_Source\PSoC5/ETH.c **** 				mac[digit] += ETH_HEX2BIN(macString[index]);
 3061              		.loc 1 1265 0 is_stmt 1
 3062 0154 7B69     		ldr	r3, [r7, #20]
 3063 0156 3A68     		ldr	r2, [r7, #0]
 3064 0158 D218     		adds	r2, r2, r3
 3065 015a 7B69     		ldr	r3, [r7, #20]
 3066 015c 3968     		ldr	r1, [r7, #0]
 3067 015e CB18     		adds	r3, r1, r3
 3068 0160 1978     		ldrb	r1, [r3, #0]	@ zero_extendqisi2
 3069 0162 3B69     		ldr	r3, [r7, #16]
 3070 0164 7868     		ldr	r0, [r7, #4]
 3071 0166 C318     		adds	r3, r0, r3
 3072 0168 1B78     		ldrb	r3, [r3, #0]	@ zero_extendqisi2
 3073 016a 2F2B     		cmp	r3, #47
 3074 016c 0DD9     		bls	.L128
 3075              		.loc 1 1265 0 is_stmt 0 discriminator 1
 3076 016e 3B69     		ldr	r3, [r7, #16]
 3077 0170 7868     		ldr	r0, [r7, #4]
 3078 0172 C318     		adds	r3, r0, r3
 3079 0174 1B78     		ldrb	r3, [r3, #0]	@ zero_extendqisi2
 3080 0176 392B     		cmp	r3, #57
 3081 0178 07D8     		bhi	.L128
 3082 017a 3B69     		ldr	r3, [r7, #16]
 3083 017c 7868     		ldr	r0, [r7, #4]
 3084 017e C318     		adds	r3, r0, r3
 3085 0180 1B78     		ldrb	r3, [r3, #0]	@ zero_extendqisi2
 3086 0182 A3F13003 		sub	r3, r3, #48
 3087 0186 DBB2     		uxtb	r3, r3
 3088 0188 29E0     		b	.L129
 3089              	.L128:
 3090              		.loc 1 1265 0 discriminator 2
 3091 018a 3B69     		ldr	r3, [r7, #16]
 3092 018c 7868     		ldr	r0, [r7, #4]
 3093 018e C318     		adds	r3, r0, r3
 3094 0190 1B78     		ldrb	r3, [r3, #0]	@ zero_extendqisi2
 3095 0192 602B     		cmp	r3, #96
 3096 0194 0DD9     		bls	.L130
 3097              		.loc 1 1265 0 discriminator 4
 3098 0196 3B69     		ldr	r3, [r7, #16]
 3099 0198 7868     		ldr	r0, [r7, #4]
 3100 019a C318     		adds	r3, r0, r3
ARM GAS  C:\Users\CHUCK~1.ERH\AppData\Local\Temp\ccWRPeSc.s 			page 78


 3101 019c 1B78     		ldrb	r3, [r3, #0]	@ zero_extendqisi2
 3102 019e 662B     		cmp	r3, #102
 3103 01a0 07D8     		bhi	.L130
 3104              		.loc 1 1265 0 discriminator 2
 3105 01a2 3B69     		ldr	r3, [r7, #16]
 3106 01a4 7868     		ldr	r0, [r7, #4]
 3107 01a6 C318     		adds	r3, r0, r3
 3108 01a8 1B78     		ldrb	r3, [r3, #0]	@ zero_extendqisi2
 3109 01aa A3F15703 		sub	r3, r3, #87
 3110 01ae DBB2     		uxtb	r3, r3
 3111 01b0 15E0     		b	.L131
 3112              	.L130:
 3113              		.loc 1 1265 0 discriminator 5
 3114 01b2 3B69     		ldr	r3, [r7, #16]
 3115 01b4 7868     		ldr	r0, [r7, #4]
 3116 01b6 C318     		adds	r3, r0, r3
 3117 01b8 1B78     		ldrb	r3, [r3, #0]	@ zero_extendqisi2
 3118 01ba 402B     		cmp	r3, #64
 3119 01bc 0DD9     		bls	.L132
 3120              		.loc 1 1265 0 discriminator 7
 3121 01be 3B69     		ldr	r3, [r7, #16]
 3122 01c0 7868     		ldr	r0, [r7, #4]
 3123 01c2 C318     		adds	r3, r0, r3
 3124 01c4 1B78     		ldrb	r3, [r3, #0]	@ zero_extendqisi2
 3125 01c6 462B     		cmp	r3, #70
 3126 01c8 07D8     		bhi	.L132
 3127              		.loc 1 1265 0 discriminator 3
 3128 01ca 3B69     		ldr	r3, [r7, #16]
 3129 01cc 7868     		ldr	r0, [r7, #4]
 3130 01ce C318     		adds	r3, r0, r3
 3131 01d0 1B78     		ldrb	r3, [r3, #0]	@ zero_extendqisi2
 3132 01d2 A3F13703 		sub	r3, r3, #55
 3133 01d6 DBB2     		uxtb	r3, r3
 3134 01d8 01E0     		b	.L133
 3135              	.L132:
 3136              		.loc 1 1265 0 discriminator 8
 3137 01da 4FF00003 		mov	r3, #0
 3138              	.L133:
 3139              	.L131:
 3140              	.L129:
 3141              		.loc 1 1265 0 discriminator 3
 3142 01de CB18     		adds	r3, r1, r3
 3143 01e0 DBB2     		uxtb	r3, r3
 3144 01e2 1370     		strb	r3, [r2, #0]
1266:.\Generated_Source\PSoC5/ETH.c **** 				++index;
 3145              		.loc 1 1266 0 is_stmt 1 discriminator 3
 3146 01e4 3B69     		ldr	r3, [r7, #16]
 3147 01e6 03F10103 		add	r3, r3, #1
 3148 01ea 3B61     		str	r3, [r7, #16]
1267:.\Generated_Source\PSoC5/ETH.c **** 				/*
1268:.\Generated_Source\PSoC5/ETH.c **** 				 * now for digits other than digit 5 (the last one) look for
1269:.\Generated_Source\PSoC5/ETH.c **** 				 * the dash seperator.  If there is no dash, return bad data
1270:.\Generated_Source\PSoC5/ETH.c **** 				 */
1271:.\Generated_Source\PSoC5/ETH.c **** 				if (digit<5) {
 3149              		.loc 1 1271 0 discriminator 3
 3150 01ec 7B69     		ldr	r3, [r7, #20]
 3151 01ee 042B     		cmp	r3, #4
ARM GAS  C:\Users\CHUCK~1.ERH\AppData\Local\Temp\ccWRPeSc.s 			page 79


 3152 01f0 17DC     		bgt	.L136
1272:.\Generated_Source\PSoC5/ETH.c **** 					if( (macString[index]!='-') && (macString[index]!= ':') ){
 3153              		.loc 1 1272 0
 3154 01f2 3B69     		ldr	r3, [r7, #16]
 3155 01f4 7A68     		ldr	r2, [r7, #4]
 3156 01f6 D318     		adds	r3, r2, r3
 3157 01f8 1B78     		ldrb	r3, [r3, #0]	@ zero_extendqisi2
 3158 01fa 2D2B     		cmp	r3, #45
 3159 01fc 08D0     		beq	.L135
 3160              		.loc 1 1272 0 is_stmt 0 discriminator 1
 3161 01fe 3B69     		ldr	r3, [r7, #16]
 3162 0200 7A68     		ldr	r2, [r7, #4]
 3163 0202 D318     		adds	r3, r2, r3
 3164 0204 1B78     		ldrb	r3, [r3, #0]	@ zero_extendqisi2
 3165 0206 3A2B     		cmp	r3, #58
 3166 0208 02D0     		beq	.L135
1273:.\Generated_Source\PSoC5/ETH.c **** 						result = CYRET_BAD_DATA;
 3167              		.loc 1 1273 0 is_stmt 1
 3168 020a 4FF00603 		mov	r3, #6
 3169 020e FB60     		str	r3, [r7, #12]
 3170              	.L135:
1274:.\Generated_Source\PSoC5/ETH.c **** 					}
1275:.\Generated_Source\PSoC5/ETH.c **** 					++index; // move conversion pointer to the next value
 3171              		.loc 1 1275 0
 3172 0210 3B69     		ldr	r3, [r7, #16]
 3173 0212 03F10103 		add	r3, r3, #1
 3174 0216 3B61     		str	r3, [r7, #16]
1271:.\Generated_Source\PSoC5/ETH.c **** 				if (digit<5) {
 3175              		.loc 1 1271 0
 3176 0218 03E0     		b	.L136
 3177              	.L127:
1276:.\Generated_Source\PSoC5/ETH.c **** 				}
1277:.\Generated_Source\PSoC5/ETH.c **** 			}
1278:.\Generated_Source\PSoC5/ETH.c **** 			else {
1279:.\Generated_Source\PSoC5/ETH.c **** 				result = CYRET_BAD_DATA;
 3178              		.loc 1 1279 0
 3179 021a 4FF00603 		mov	r3, #6
 3180 021e FB60     		str	r3, [r7, #12]
1264:.\Generated_Source\PSoC5/ETH.c **** 			if (ETH_ISXDIGIT(macString[index])) {
 3181              		.loc 1 1264 0
 3182 0220 03E0     		b	.L137
 3183              	.L136:
 3184 0222 02E0     		b	.L137
 3185              	.L117:
1280:.\Generated_Source\PSoC5/ETH.c **** 			}
1281:.\Generated_Source\PSoC5/ETH.c **** 		}
1282:.\Generated_Source\PSoC5/ETH.c **** 		else {
1283:.\Generated_Source\PSoC5/ETH.c **** 			result = CYRET_BAD_DATA;
 3186              		.loc 1 1283 0
 3187 0224 4FF00603 		mov	r3, #6
 3188 0228 FB60     		str	r3, [r7, #12]
 3189              	.L137:
1258:.\Generated_Source\PSoC5/ETH.c **** 	for(digit = 0;(digit<6) && (result == CYRET_SUCCESS)&&(macString[index] != 0);++digit) {
 3190              		.loc 1 1258 0
 3191 022a 7B69     		ldr	r3, [r7, #20]
 3192 022c 03F10103 		add	r3, r3, #1
 3193 0230 7B61     		str	r3, [r7, #20]
ARM GAS  C:\Users\CHUCK~1.ERH\AppData\Local\Temp\ccWRPeSc.s 			page 80


 3194              	.L113:
1258:.\Generated_Source\PSoC5/ETH.c **** 	for(digit = 0;(digit<6) && (result == CYRET_SUCCESS)&&(macString[index] != 0);++digit) {
 3195              		.loc 1 1258 0 is_stmt 0 discriminator 1
 3196 0232 7B69     		ldr	r3, [r7, #20]
 3197 0234 052B     		cmp	r3, #5
 3198 0236 09DC     		bgt	.L138
1258:.\Generated_Source\PSoC5/ETH.c **** 	for(digit = 0;(digit<6) && (result == CYRET_SUCCESS)&&(macString[index] != 0);++digit) {
 3199              		.loc 1 1258 0 discriminator 2
 3200 0238 FB68     		ldr	r3, [r7, #12]
 3201 023a 002B     		cmp	r3, #0
 3202 023c 06D1     		bne	.L138
1258:.\Generated_Source\PSoC5/ETH.c **** 	for(digit = 0;(digit<6) && (result == CYRET_SUCCESS)&&(macString[index] != 0);++digit) {
 3203              		.loc 1 1258 0 discriminator 1
 3204 023e 3B69     		ldr	r3, [r7, #16]
 3205 0240 7A68     		ldr	r2, [r7, #4]
 3206 0242 D318     		adds	r3, r2, r3
 3207 0244 1B78     		ldrb	r3, [r3, #0]	@ zero_extendqisi2
 3208 0246 002B     		cmp	r3, #0
 3209 0248 7FF4E9AE 		bne	.L139
 3210              	.L138:
1284:.\Generated_Source\PSoC5/ETH.c **** 		}
1285:.\Generated_Source\PSoC5/ETH.c **** 	}
1286:.\Generated_Source\PSoC5/ETH.c **** 	return( result );
 3211              		.loc 1 1286 0 is_stmt 1
 3212 024c FB68     		ldr	r3, [r7, #12]
1287:.\Generated_Source\PSoC5/ETH.c **** }
 3213              		.loc 1 1287 0
 3214 024e 1846     		mov	r0, r3
 3215 0250 07F11C07 		add	r7, r7, #28
 3216 0254 BD46     		mov	sp, r7
 3217 0256 80BC     		pop	{r7}
 3218 0258 7047     		bx	lr
 3219              		.cfi_endproc
 3220              	.LFE47:
 3221              		.size	ETH_ParseMAC, .-ETH_ParseMAC
 3222 025a 00BF     		.section	.text.ETH_StringMAC,"ax",%progbits
 3223              		.align	2
 3224              		.global	ETH_StringMAC
 3225              		.thumb
 3226              		.thumb_func
 3227              		.type	ETH_StringMAC, %function
 3228              	ETH_StringMAC:
 3229              	.LFB48:
1288:.\Generated_Source\PSoC5/ETH.c **** /* ------------------------------------------------------------------------ */
1289:.\Generated_Source\PSoC5/ETH.c **** void ETH_StringMAC(uint8 *mac, char *macString)
1290:.\Generated_Source\PSoC5/ETH.c **** {
 3230              		.loc 1 1290 0
 3231              		.cfi_startproc
 3232              		@ args = 0, pretend = 0, frame = 16
 3233              		@ frame_needed = 1, uses_anonymous_args = 0
 3234              		@ link register save eliminated.
 3235 0000 80B4     		push	{r7}
 3236              	.LCFI142:
 3237              		.cfi_def_cfa_offset 4
 3238              		.cfi_offset 7, -4
 3239 0002 85B0     		sub	sp, sp, #20
 3240              	.LCFI143:
ARM GAS  C:\Users\CHUCK~1.ERH\AppData\Local\Temp\ccWRPeSc.s 			page 81


 3241              		.cfi_def_cfa_offset 24
 3242 0004 00AF     		add	r7, sp, #0
 3243              	.LCFI144:
 3244              		.cfi_def_cfa_register 7
 3245 0006 7860     		str	r0, [r7, #4]
 3246 0008 3960     		str	r1, [r7, #0]
1291:.\Generated_Source\PSoC5/ETH.c **** 	int digit;
1292:.\Generated_Source\PSoC5/ETH.c **** 	int index;
1293:.\Generated_Source\PSoC5/ETH.c **** 	
1294:.\Generated_Source\PSoC5/ETH.c **** 	/*
1295:.\Generated_Source\PSoC5/ETH.c **** 	 * Convert the MAC address specified in to a string
1296:.\Generated_Source\PSoC5/ETH.c **** 	 */
1297:.\Generated_Source\PSoC5/ETH.c **** 	index = 0;
 3247              		.loc 1 1297 0
 3248 000a 4FF00003 		mov	r3, #0
 3249 000e BB60     		str	r3, [r7, #8]
1298:.\Generated_Source\PSoC5/ETH.c **** 	for(digit=0;digit<6;++digit) {
 3250              		.loc 1 1298 0
 3251 0010 4FF00003 		mov	r3, #0
 3252 0014 FB60     		str	r3, [r7, #12]
 3253 0016 64E0     		b	.L142
 3254              	.L149:
1299:.\Generated_Source\PSoC5/ETH.c **** 		// convert the first nibble
1300:.\Generated_Source\PSoC5/ETH.c **** 		macString[index++] = ETH_BIN2HEX(((mac[digit]>>4)&0x0F));
 3255              		.loc 1 1300 0
 3256 0018 BB68     		ldr	r3, [r7, #8]
 3257 001a 3A68     		ldr	r2, [r7, #0]
 3258 001c D218     		adds	r2, r2, r3
 3259 001e FB68     		ldr	r3, [r7, #12]
 3260 0020 7968     		ldr	r1, [r7, #4]
 3261 0022 CB18     		adds	r3, r1, r3
 3262 0024 1B78     		ldrb	r3, [r3, #0]	@ zero_extendqisi2
 3263 0026 4FEA1313 		lsr	r3, r3, #4
 3264 002a DBB2     		uxtb	r3, r3
 3265 002c 03F00F03 		and	r3, r3, #15
 3266 0030 092B     		cmp	r3, #9
 3267 0032 0ADD     		ble	.L143
 3268              		.loc 1 1300 0 is_stmt 0 discriminator 1
 3269 0034 FB68     		ldr	r3, [r7, #12]
 3270 0036 7968     		ldr	r1, [r7, #4]
 3271 0038 CB18     		adds	r3, r1, r3
 3272 003a 1B78     		ldrb	r3, [r3, #0]	@ zero_extendqisi2
 3273 003c 4FEA1313 		lsr	r3, r3, #4
 3274 0040 DBB2     		uxtb	r3, r3
 3275 0042 03F13703 		add	r3, r3, #55
 3276 0046 DBB2     		uxtb	r3, r3
 3277 0048 09E0     		b	.L144
 3278              	.L143:
 3279              		.loc 1 1300 0 discriminator 2
 3280 004a FB68     		ldr	r3, [r7, #12]
 3281 004c 7968     		ldr	r1, [r7, #4]
 3282 004e CB18     		adds	r3, r1, r3
 3283 0050 1B78     		ldrb	r3, [r3, #0]	@ zero_extendqisi2
 3284 0052 4FEA1313 		lsr	r3, r3, #4
 3285 0056 DBB2     		uxtb	r3, r3
 3286 0058 03F13003 		add	r3, r3, #48
 3287 005c DBB2     		uxtb	r3, r3
ARM GAS  C:\Users\CHUCK~1.ERH\AppData\Local\Temp\ccWRPeSc.s 			page 82


 3288              	.L144:
 3289              		.loc 1 1300 0 discriminator 3
 3290 005e 1370     		strb	r3, [r2, #0]
 3291 0060 BB68     		ldr	r3, [r7, #8]
 3292 0062 03F10103 		add	r3, r3, #1
 3293 0066 BB60     		str	r3, [r7, #8]
1301:.\Generated_Source\PSoC5/ETH.c **** 		macString[index++] = ETH_BIN2HEX((mac[digit]&0x0F));
 3294              		.loc 1 1301 0 is_stmt 1 discriminator 3
 3295 0068 BB68     		ldr	r3, [r7, #8]
 3296 006a 3A68     		ldr	r2, [r7, #0]
 3297 006c D218     		adds	r2, r2, r3
 3298 006e FB68     		ldr	r3, [r7, #12]
 3299 0070 7968     		ldr	r1, [r7, #4]
 3300 0072 CB18     		adds	r3, r1, r3
 3301 0074 1B78     		ldrb	r3, [r3, #0]	@ zero_extendqisi2
 3302 0076 03F00F03 		and	r3, r3, #15
 3303 007a 092B     		cmp	r3, #9
 3304 007c 0ADD     		ble	.L145
 3305              		.loc 1 1301 0 is_stmt 0 discriminator 1
 3306 007e FB68     		ldr	r3, [r7, #12]
 3307 0080 7968     		ldr	r1, [r7, #4]
 3308 0082 CB18     		adds	r3, r1, r3
 3309 0084 1B78     		ldrb	r3, [r3, #0]	@ zero_extendqisi2
 3310 0086 03F00F03 		and	r3, r3, #15
 3311 008a DBB2     		uxtb	r3, r3
 3312 008c 03F13703 		add	r3, r3, #55
 3313 0090 DBB2     		uxtb	r3, r3
 3314 0092 09E0     		b	.L146
 3315              	.L145:
 3316              		.loc 1 1301 0 discriminator 2
 3317 0094 FB68     		ldr	r3, [r7, #12]
 3318 0096 7968     		ldr	r1, [r7, #4]
 3319 0098 CB18     		adds	r3, r1, r3
 3320 009a 1B78     		ldrb	r3, [r3, #0]	@ zero_extendqisi2
 3321 009c 03F00F03 		and	r3, r3, #15
 3322 00a0 DBB2     		uxtb	r3, r3
 3323 00a2 03F13003 		add	r3, r3, #48
 3324 00a6 DBB2     		uxtb	r3, r3
 3325              	.L146:
 3326              		.loc 1 1301 0 discriminator 3
 3327 00a8 1370     		strb	r3, [r2, #0]
 3328 00aa BB68     		ldr	r3, [r7, #8]
 3329 00ac 03F10103 		add	r3, r3, #1
 3330 00b0 BB60     		str	r3, [r7, #8]
1302:.\Generated_Source\PSoC5/ETH.c **** 		if (digit<5) {
 3331              		.loc 1 1302 0 is_stmt 1 discriminator 3
 3332 00b2 FB68     		ldr	r3, [r7, #12]
 3333 00b4 042B     		cmp	r3, #4
 3334 00b6 0ADC     		bgt	.L147
1303:.\Generated_Source\PSoC5/ETH.c **** 			macString[index++] = '-';
 3335              		.loc 1 1303 0
 3336 00b8 BB68     		ldr	r3, [r7, #8]
 3337 00ba 3A68     		ldr	r2, [r7, #0]
 3338 00bc D318     		adds	r3, r2, r3
 3339 00be 4FF02D02 		mov	r2, #45
 3340 00c2 1A70     		strb	r2, [r3, #0]
 3341 00c4 BB68     		ldr	r3, [r7, #8]
ARM GAS  C:\Users\CHUCK~1.ERH\AppData\Local\Temp\ccWRPeSc.s 			page 83


 3342 00c6 03F10103 		add	r3, r3, #1
 3343 00ca BB60     		str	r3, [r7, #8]
 3344 00cc 05E0     		b	.L148
 3345              	.L147:
1304:.\Generated_Source\PSoC5/ETH.c **** 		}
1305:.\Generated_Source\PSoC5/ETH.c **** 		else {
1306:.\Generated_Source\PSoC5/ETH.c **** 			macString[index] = 0;
 3346              		.loc 1 1306 0
 3347 00ce BB68     		ldr	r3, [r7, #8]
 3348 00d0 3A68     		ldr	r2, [r7, #0]
 3349 00d2 D318     		adds	r3, r2, r3
 3350 00d4 4FF00002 		mov	r2, #0
 3351 00d8 1A70     		strb	r2, [r3, #0]
 3352              	.L148:
1298:.\Generated_Source\PSoC5/ETH.c **** 	for(digit=0;digit<6;++digit) {
 3353              		.loc 1 1298 0
 3354 00da FB68     		ldr	r3, [r7, #12]
 3355 00dc 03F10103 		add	r3, r3, #1
 3356 00e0 FB60     		str	r3, [r7, #12]
 3357              	.L142:
1298:.\Generated_Source\PSoC5/ETH.c **** 	for(digit=0;digit<6;++digit) {
 3358              		.loc 1 1298 0 is_stmt 0 discriminator 1
 3359 00e2 FB68     		ldr	r3, [r7, #12]
 3360 00e4 052B     		cmp	r3, #5
 3361 00e6 97DD     		ble	.L149
1307:.\Generated_Source\PSoC5/ETH.c **** 		}
1308:.\Generated_Source\PSoC5/ETH.c **** 	}
1309:.\Generated_Source\PSoC5/ETH.c **** }
 3362              		.loc 1 1309 0 is_stmt 1
 3363 00e8 07F11407 		add	r7, r7, #20
 3364 00ec BD46     		mov	sp, r7
 3365 00ee 80BC     		pop	{r7}
 3366 00f0 7047     		bx	lr
 3367              		.cfi_endproc
 3368              	.LFE48:
 3369              		.size	ETH_StringMAC, .-ETH_StringMAC
 3370 00f2 00BF     		.section	.text.ETH_StringIP,"ax",%progbits
 3371              		.align	2
 3372              		.global	ETH_StringIP
 3373              		.thumb
 3374              		.thumb_func
 3375              		.type	ETH_StringIP, %function
 3376              	ETH_StringIP:
 3377              	.LFB49:
1310:.\Generated_Source\PSoC5/ETH.c **** /* ------------------------------------------------------------------------ */
1311:.\Generated_Source\PSoC5/ETH.c **** void ETH_StringIP( uint32 ip, char *ipString )
1312:.\Generated_Source\PSoC5/ETH.c **** {
 3378              		.loc 1 1312 0
 3379              		.cfi_startproc
 3380              		@ args = 0, pretend = 0, frame = 32
 3381              		@ frame_needed = 1, uses_anonymous_args = 0
 3382              		@ link register save eliminated.
 3383 0000 80B4     		push	{r7}
 3384              	.LCFI145:
 3385              		.cfi_def_cfa_offset 4
 3386              		.cfi_offset 7, -4
 3387 0002 89B0     		sub	sp, sp, #36
ARM GAS  C:\Users\CHUCK~1.ERH\AppData\Local\Temp\ccWRPeSc.s 			page 84


 3388              	.LCFI146:
 3389              		.cfi_def_cfa_offset 40
 3390 0004 00AF     		add	r7, sp, #0
 3391              	.LCFI147:
 3392              		.cfi_def_cfa_register 7
 3393 0006 7860     		str	r0, [r7, #4]
 3394 0008 3960     		str	r1, [r7, #0]
1313:.\Generated_Source\PSoC5/ETH.c **** 	uint8 *ipBytes;
1314:.\Generated_Source\PSoC5/ETH.c **** 	int index;
1315:.\Generated_Source\PSoC5/ETH.c **** 	int digit;
1316:.\Generated_Source\PSoC5/ETH.c **** 	int work, temp;
1317:.\Generated_Source\PSoC5/ETH.c **** 	
1318:.\Generated_Source\PSoC5/ETH.c **** 	ipBytes = (uint8*)&ip;
 3395              		.loc 1 1318 0
 3396 000a 07F10403 		add	r3, r7, #4
 3397 000e 3B61     		str	r3, [r7, #16]
1319:.\Generated_Source\PSoC5/ETH.c **** 	index = 0;
 3398              		.loc 1 1319 0
 3399 0010 4FF00003 		mov	r3, #0
 3400 0014 FB61     		str	r3, [r7, #28]
1320:.\Generated_Source\PSoC5/ETH.c **** 	for(digit=0;digit<4;++digit) {
 3401              		.loc 1 1320 0
 3402 0016 4FF00003 		mov	r3, #0
 3403 001a BB61     		str	r3, [r7, #24]
 3404 001c 73E0     		b	.L151
 3405              	.L156:
1321:.\Generated_Source\PSoC5/ETH.c **** 		work = ipBytes[digit];
 3406              		.loc 1 1321 0
 3407 001e BB69     		ldr	r3, [r7, #24]
 3408 0020 3A69     		ldr	r2, [r7, #16]
 3409 0022 D318     		adds	r3, r2, r3
 3410 0024 1B78     		ldrb	r3, [r3, #0]	@ zero_extendqisi2
 3411 0026 7B61     		str	r3, [r7, #20]
1322:.\Generated_Source\PSoC5/ETH.c **** 		if (work >= 100) {
 3412              		.loc 1 1322 0
 3413 0028 7B69     		ldr	r3, [r7, #20]
 3414 002a 632B     		cmp	r3, #99
 3415 002c 21DD     		ble	.L152
1323:.\Generated_Source\PSoC5/ETH.c **** 			temp = work/100;
 3416              		.loc 1 1323 0
 3417 002e 7A69     		ldr	r2, [r7, #20]
 3418 0030 48F21F53 		movw	r3, #34079
 3419 0034 C5F2EB13 		movt	r3, 20971
 3420 0038 83FB0213 		smull	r1, r3, r3, r2
 3421 003c 4FEA6311 		asr	r1, r3, #5
 3422 0040 4FEAE273 		asr	r3, r2, #31
 3423 0044 CB1A     		subs	r3, r1, r3
 3424 0046 FB60     		str	r3, [r7, #12]
1324:.\Generated_Source\PSoC5/ETH.c **** 			work -= (temp*100);
 3425              		.loc 1 1324 0
 3426 0048 FB68     		ldr	r3, [r7, #12]
 3427 004a 6FF06302 		mvn	r2, #99
 3428 004e 02FB03F3 		mul	r3, r2, r3
 3429 0052 7A69     		ldr	r2, [r7, #20]
 3430 0054 D318     		adds	r3, r2, r3
 3431 0056 7B61     		str	r3, [r7, #20]
1325:.\Generated_Source\PSoC5/ETH.c **** 			ipString[index++] = '0' + temp;
ARM GAS  C:\Users\CHUCK~1.ERH\AppData\Local\Temp\ccWRPeSc.s 			page 85


 3432              		.loc 1 1325 0
 3433 0058 FB69     		ldr	r3, [r7, #28]
 3434 005a 3A68     		ldr	r2, [r7, #0]
 3435 005c D318     		adds	r3, r2, r3
 3436 005e FA68     		ldr	r2, [r7, #12]
 3437 0060 D2B2     		uxtb	r2, r2
 3438 0062 02F13002 		add	r2, r2, #48
 3439 0066 D2B2     		uxtb	r2, r2
 3440 0068 1A70     		strb	r2, [r3, #0]
 3441 006a FB69     		ldr	r3, [r7, #28]
 3442 006c 03F10103 		add	r3, r3, #1
 3443 0070 FB61     		str	r3, [r7, #28]
 3444              	.L152:
1326:.\Generated_Source\PSoC5/ETH.c **** 		}
1327:.\Generated_Source\PSoC5/ETH.c **** 		if (work >= 10) {
 3445              		.loc 1 1327 0
 3446 0072 7B69     		ldr	r3, [r7, #20]
 3447 0074 092B     		cmp	r3, #9
 3448 0076 21DD     		ble	.L153
1328:.\Generated_Source\PSoC5/ETH.c **** 			temp = work /10;
 3449              		.loc 1 1328 0
 3450 0078 7A69     		ldr	r2, [r7, #20]
 3451 007a 46F26763 		movw	r3, #26215
 3452 007e C6F26663 		movt	r3, 26214
 3453 0082 83FB0213 		smull	r1, r3, r3, r2
 3454 0086 4FEAA301 		asr	r1, r3, #2
 3455 008a 4FEAE273 		asr	r3, r2, #31
 3456 008e CB1A     		subs	r3, r1, r3
 3457 0090 FB60     		str	r3, [r7, #12]
1329:.\Generated_Source\PSoC5/ETH.c **** 			work -= (temp*10);
 3458              		.loc 1 1329 0
 3459 0092 FB68     		ldr	r3, [r7, #12]
 3460 0094 6FF00902 		mvn	r2, #9
 3461 0098 02FB03F3 		mul	r3, r2, r3
 3462 009c 7A69     		ldr	r2, [r7, #20]
 3463 009e D318     		adds	r3, r2, r3
 3464 00a0 7B61     		str	r3, [r7, #20]
1330:.\Generated_Source\PSoC5/ETH.c **** 			ipString[index++] = '0'+temp;
 3465              		.loc 1 1330 0
 3466 00a2 FB69     		ldr	r3, [r7, #28]
 3467 00a4 3A68     		ldr	r2, [r7, #0]
 3468 00a6 D318     		adds	r3, r2, r3
 3469 00a8 FA68     		ldr	r2, [r7, #12]
 3470 00aa D2B2     		uxtb	r2, r2
 3471 00ac 02F13002 		add	r2, r2, #48
 3472 00b0 D2B2     		uxtb	r2, r2
 3473 00b2 1A70     		strb	r2, [r3, #0]
 3474 00b4 FB69     		ldr	r3, [r7, #28]
 3475 00b6 03F10103 		add	r3, r3, #1
 3476 00ba FB61     		str	r3, [r7, #28]
 3477              	.L153:
1331:.\Generated_Source\PSoC5/ETH.c **** 		}
1332:.\Generated_Source\PSoC5/ETH.c **** 		ipString[index++] = '0'+work;
 3478              		.loc 1 1332 0
 3479 00bc FB69     		ldr	r3, [r7, #28]
 3480 00be 3A68     		ldr	r2, [r7, #0]
 3481 00c0 D318     		adds	r3, r2, r3
ARM GAS  C:\Users\CHUCK~1.ERH\AppData\Local\Temp\ccWRPeSc.s 			page 86


 3482 00c2 7A69     		ldr	r2, [r7, #20]
 3483 00c4 D2B2     		uxtb	r2, r2
 3484 00c6 02F13002 		add	r2, r2, #48
 3485 00ca D2B2     		uxtb	r2, r2
 3486 00cc 1A70     		strb	r2, [r3, #0]
 3487 00ce FB69     		ldr	r3, [r7, #28]
 3488 00d0 03F10103 		add	r3, r3, #1
 3489 00d4 FB61     		str	r3, [r7, #28]
1333:.\Generated_Source\PSoC5/ETH.c **** 		if (digit <3) {
 3490              		.loc 1 1333 0
 3491 00d6 BB69     		ldr	r3, [r7, #24]
 3492 00d8 022B     		cmp	r3, #2
 3493 00da 0ADC     		bgt	.L154
1334:.\Generated_Source\PSoC5/ETH.c **** 			ipString[index++] = '.';
 3494              		.loc 1 1334 0
 3495 00dc FB69     		ldr	r3, [r7, #28]
 3496 00de 3A68     		ldr	r2, [r7, #0]
 3497 00e0 D318     		adds	r3, r2, r3
 3498 00e2 4FF02E02 		mov	r2, #46
 3499 00e6 1A70     		strb	r2, [r3, #0]
 3500 00e8 FB69     		ldr	r3, [r7, #28]
 3501 00ea 03F10103 		add	r3, r3, #1
 3502 00ee FB61     		str	r3, [r7, #28]
 3503 00f0 05E0     		b	.L155
 3504              	.L154:
1335:.\Generated_Source\PSoC5/ETH.c **** 		}
1336:.\Generated_Source\PSoC5/ETH.c **** 		else {
1337:.\Generated_Source\PSoC5/ETH.c **** 			ipString[index] = 0;
 3505              		.loc 1 1337 0
 3506 00f2 FB69     		ldr	r3, [r7, #28]
 3507 00f4 3A68     		ldr	r2, [r7, #0]
 3508 00f6 D318     		adds	r3, r2, r3
 3509 00f8 4FF00002 		mov	r2, #0
 3510 00fc 1A70     		strb	r2, [r3, #0]
 3511              	.L155:
1320:.\Generated_Source\PSoC5/ETH.c **** 	for(digit=0;digit<4;++digit) {
 3512              		.loc 1 1320 0
 3513 00fe BB69     		ldr	r3, [r7, #24]
 3514 0100 03F10103 		add	r3, r3, #1
 3515 0104 BB61     		str	r3, [r7, #24]
 3516              	.L151:
1320:.\Generated_Source\PSoC5/ETH.c **** 	for(digit=0;digit<4;++digit) {
 3517              		.loc 1 1320 0 is_stmt 0 discriminator 1
 3518 0106 BB69     		ldr	r3, [r7, #24]
 3519 0108 032B     		cmp	r3, #3
 3520 010a 88DD     		ble	.L156
1338:.\Generated_Source\PSoC5/ETH.c **** 		}
1339:.\Generated_Source\PSoC5/ETH.c **** 	}
1340:.\Generated_Source\PSoC5/ETH.c **** }
 3521              		.loc 1 1340 0 is_stmt 1
 3522 010c 07F12407 		add	r7, r7, #36
 3523 0110 BD46     		mov	sp, r7
 3524 0112 80BC     		pop	{r7}
 3525 0114 7047     		bx	lr
 3526              		.cfi_endproc
 3527              	.LFE49:
 3528              		.size	ETH_StringIP, .-ETH_StringIP
ARM GAS  C:\Users\CHUCK~1.ERH\AppData\Local\Temp\ccWRPeSc.s 			page 87


 3529 0116 00BF     		.section	.text.ETH_SetIP,"ax",%progbits
 3530              		.align	2
 3531              		.global	ETH_SetIP
 3532              		.thumb
 3533              		.thumb_func
 3534              		.type	ETH_SetIP, %function
 3535              	ETH_SetIP:
 3536              	.LFB50:
1341:.\Generated_Source\PSoC5/ETH.c **** 
1342:.\Generated_Source\PSoC5/ETH.c **** /* ------------------------------------------------------------------------ */
1343:.\Generated_Source\PSoC5/ETH.c **** uint8
1344:.\Generated_Source\PSoC5/ETH.c **** ETH_SetIP( uint32 ip )
1345:.\Generated_Source\PSoC5/ETH.c **** {
 3537              		.loc 1 1345 0
 3538              		.cfi_startproc
 3539              		@ args = 0, pretend = 0, frame = 16
 3540              		@ frame_needed = 1, uses_anonymous_args = 0
 3541 0000 80B5     		push	{r7, lr}
 3542              	.LCFI148:
 3543              		.cfi_def_cfa_offset 8
 3544              		.cfi_offset 7, -8
 3545              		.cfi_offset 14, -4
 3546 0002 84B0     		sub	sp, sp, #16
 3547              	.LCFI149:
 3548              		.cfi_def_cfa_offset 24
 3549 0004 00AF     		add	r7, sp, #0
 3550              	.LCFI150:
 3551              		.cfi_def_cfa_register 7
 3552 0006 7860     		str	r0, [r7, #4]
1346:.\Generated_Source\PSoC5/ETH.c **** 	uint8 ok = 0;
 3553              		.loc 1 1346 0
 3554 0008 4FF00003 		mov	r3, #0
 3555 000c FB73     		strb	r3, [r7, #15]
1347:.\Generated_Source\PSoC5/ETH.c **** 	
1348:.\Generated_Source\PSoC5/ETH.c **** 	if ( ( ip != 0) && (ip != 0xFFFFFFFF) ) {
 3556              		.loc 1 1348 0
 3557 000e 7B68     		ldr	r3, [r7, #4]
 3558 0010 002B     		cmp	r3, #0
 3559 0012 09D0     		beq	.L158
 3560              		.loc 1 1348 0 is_stmt 0 discriminator 1
 3561 0014 7B68     		ldr	r3, [r7, #4]
 3562 0016 B3F1FF3F 		cmp	r3, #-1
 3563 001a 05D0     		beq	.L158
1349:.\Generated_Source\PSoC5/ETH.c **** 		ETH_SetSourceIP( ip );
 3564              		.loc 1 1349 0 is_stmt 1
 3565 001c 7868     		ldr	r0, [r7, #4]
 3566 001e FFF7FEFF 		bl	ETH_SetSourceIP
1350:.\Generated_Source\PSoC5/ETH.c **** 		ok = 0xFF;
 3567              		.loc 1 1350 0
 3568 0022 4FF0FF03 		mov	r3, #255
 3569 0026 FB73     		strb	r3, [r7, #15]
 3570              	.L158:
1351:.\Generated_Source\PSoC5/ETH.c **** 	}
1352:.\Generated_Source\PSoC5/ETH.c **** 	
1353:.\Generated_Source\PSoC5/ETH.c **** 	return ok;
 3571              		.loc 1 1353 0
 3572 0028 FB7B     		ldrb	r3, [r7, #15]	@ zero_extendqisi2
ARM GAS  C:\Users\CHUCK~1.ERH\AppData\Local\Temp\ccWRPeSc.s 			page 88


1354:.\Generated_Source\PSoC5/ETH.c **** }
 3573              		.loc 1 1354 0
 3574 002a 1846     		mov	r0, r3
 3575 002c 07F11007 		add	r7, r7, #16
 3576 0030 BD46     		mov	sp, r7
 3577 0032 80BD     		pop	{r7, pc}
 3578              		.cfi_endproc
 3579              	.LFE50:
 3580              		.size	ETH_SetIP, .-ETH_SetIP
 3581              		.section	.text.ETH_GetIP,"ax",%progbits
 3582              		.align	2
 3583              		.global	ETH_GetIP
 3584              		.thumb
 3585              		.thumb_func
 3586              		.type	ETH_GetIP, %function
 3587              	ETH_GetIP:
 3588              	.LFB51:
1355:.\Generated_Source\PSoC5/ETH.c **** /* ------------------------------------------------------------------------ */
1356:.\Generated_Source\PSoC5/ETH.c **** uint32
1357:.\Generated_Source\PSoC5/ETH.c **** ETH_GetIP( void )
1358:.\Generated_Source\PSoC5/ETH.c **** {
 3589              		.loc 1 1358 0
 3590              		.cfi_startproc
 3591              		@ args = 0, pretend = 0, frame = 0
 3592              		@ frame_needed = 1, uses_anonymous_args = 0
 3593 0000 80B5     		push	{r7, lr}
 3594              	.LCFI151:
 3595              		.cfi_def_cfa_offset 8
 3596              		.cfi_offset 7, -8
 3597              		.cfi_offset 14, -4
 3598 0002 00AF     		add	r7, sp, #0
 3599              	.LCFI152:
 3600              		.cfi_def_cfa_register 7
1359:.\Generated_Source\PSoC5/ETH.c **** 	return ETH_GetSourceIP();
 3601              		.loc 1 1359 0
 3602 0004 FFF7FEFF 		bl	ETH_GetSourceIP
 3603 0008 0346     		mov	r3, r0
1360:.\Generated_Source\PSoC5/ETH.c **** }
 3604              		.loc 1 1360 0
 3605 000a 1846     		mov	r0, r3
 3606 000c 80BD     		pop	{r7, pc}
 3607              		.cfi_endproc
 3608              	.LFE51:
 3609              		.size	ETH_GetIP, .-ETH_GetIP
 3610 000e 00BF     		.section	.text.ETH_SetMAC,"ax",%progbits
 3611              		.align	2
 3612              		.global	ETH_SetMAC
 3613              		.thumb
 3614              		.thumb_func
 3615              		.type	ETH_SetMAC, %function
 3616              	ETH_SetMAC:
 3617              	.LFB52:
1361:.\Generated_Source\PSoC5/ETH.c **** /* ------------------------------------------------------------------------ */
1362:.\Generated_Source\PSoC5/ETH.c **** void
1363:.\Generated_Source\PSoC5/ETH.c **** ETH_SetMAC( uint8* mac )
1364:.\Generated_Source\PSoC5/ETH.c **** {
 3618              		.loc 1 1364 0
ARM GAS  C:\Users\CHUCK~1.ERH\AppData\Local\Temp\ccWRPeSc.s 			page 89


 3619              		.cfi_startproc
 3620              		@ args = 0, pretend = 0, frame = 8
 3621              		@ frame_needed = 1, uses_anonymous_args = 0
 3622 0000 80B5     		push	{r7, lr}
 3623              	.LCFI153:
 3624              		.cfi_def_cfa_offset 8
 3625              		.cfi_offset 7, -8
 3626              		.cfi_offset 14, -4
 3627 0002 82B0     		sub	sp, sp, #8
 3628              	.LCFI154:
