ARM GAS  C:\Users\CHUCK~1.ERH\AppData\Local\Temp\cch1xz8c.s 			page 1


   1              		.syntax unified
   2              		.cpu cortex-m3
   3              		.fpu softvfp
   4              		.eabi_attribute 20, 1
   5              		.eabi_attribute 21, 1
   6              		.eabi_attribute 23, 3
   7              		.eabi_attribute 24, 1
   8              		.eabi_attribute 25, 1
   9              		.eabi_attribute 26, 1
  10              		.eabi_attribute 30, 6
  11              		.eabi_attribute 34, 1
  12              		.eabi_attribute 18, 4
  13              		.thumb
  14              		.file	"LED.c"
  15              		.text
  16              	.Ltext0:
  17              		.cfi_sections	.debug_frame
  18              		.section	.text.LED_Write,"ax",%progbits
  19              		.align	2
  20              		.global	LED_Write
  21              		.thumb
  22              		.thumb_func
  23              		.type	LED_Write, %function
  24              	LED_Write:
  25              	.LFB0:
  26              		.file 1 ".\\Generated_Source\\PSoC5\\LED.c"
   1:.\Generated_Source\PSoC5/LED.c **** /*******************************************************************************
   2:.\Generated_Source\PSoC5/LED.c **** * File Name: LED.c  
   3:.\Generated_Source\PSoC5/LED.c **** * Version 2.0
   4:.\Generated_Source\PSoC5/LED.c **** *
   5:.\Generated_Source\PSoC5/LED.c **** * Description:
   6:.\Generated_Source\PSoC5/LED.c **** *  This file contains API to enable firmware control of a Pins component.
   7:.\Generated_Source\PSoC5/LED.c **** *
   8:.\Generated_Source\PSoC5/LED.c **** * Note:
   9:.\Generated_Source\PSoC5/LED.c **** *
  10:.\Generated_Source\PSoC5/LED.c **** ********************************************************************************
  11:.\Generated_Source\PSoC5/LED.c **** * Copyright 2008-2014, Cypress Semiconductor Corporation.  All rights reserved.
  12:.\Generated_Source\PSoC5/LED.c **** * You may use this file only in accordance with the license, terms, conditions, 
  13:.\Generated_Source\PSoC5/LED.c **** * disclaimers, and limitations in the end user license agreement accompanying 
  14:.\Generated_Source\PSoC5/LED.c **** * the software package with which this file was provided.
  15:.\Generated_Source\PSoC5/LED.c **** *******************************************************************************/
  16:.\Generated_Source\PSoC5/LED.c **** 
  17:.\Generated_Source\PSoC5/LED.c **** #include "cytypes.h"
  18:.\Generated_Source\PSoC5/LED.c **** #include "LED.h"
  19:.\Generated_Source\PSoC5/LED.c **** 
  20:.\Generated_Source\PSoC5/LED.c **** /* APIs are not generated for P15[7:6] on PSoC 5 */
  21:.\Generated_Source\PSoC5/LED.c **** #if !(CY_PSOC5A &&\
  22:.\Generated_Source\PSoC5/LED.c **** 	 LED__PORT == 15 && ((LED__MASK & 0xC0) != 0))
  23:.\Generated_Source\PSoC5/LED.c **** 
  24:.\Generated_Source\PSoC5/LED.c **** 
  25:.\Generated_Source\PSoC5/LED.c **** /*******************************************************************************
  26:.\Generated_Source\PSoC5/LED.c **** * Function Name: LED_Write
  27:.\Generated_Source\PSoC5/LED.c **** ********************************************************************************
  28:.\Generated_Source\PSoC5/LED.c **** *
  29:.\Generated_Source\PSoC5/LED.c **** * Summary:
  30:.\Generated_Source\PSoC5/LED.c **** *  Assign a new value to the digital port's data output register.  
  31:.\Generated_Source\PSoC5/LED.c **** *
ARM GAS  C:\Users\CHUCK~1.ERH\AppData\Local\Temp\cch1xz8c.s 			page 2


  32:.\Generated_Source\PSoC5/LED.c **** * Parameters:  
  33:.\Generated_Source\PSoC5/LED.c **** *  prtValue:  The value to be assigned to the Digital Port. 
  34:.\Generated_Source\PSoC5/LED.c **** *
  35:.\Generated_Source\PSoC5/LED.c **** * Return: 
  36:.\Generated_Source\PSoC5/LED.c **** *  None
  37:.\Generated_Source\PSoC5/LED.c **** *  
  38:.\Generated_Source\PSoC5/LED.c **** *******************************************************************************/
  39:.\Generated_Source\PSoC5/LED.c **** void LED_Write(uint8 value) 
  40:.\Generated_Source\PSoC5/LED.c **** {
  27              		.loc 1 40 0
  28              		.cfi_startproc
  29              		@ args = 0, pretend = 0, frame = 16
  30              		@ frame_needed = 1, uses_anonymous_args = 0
  31              		@ link register save eliminated.
  32 0000 80B4     		push	{r7}
  33              	.LCFI0:
  34              		.cfi_def_cfa_offset 4
  35              		.cfi_offset 7, -4
  36 0002 85B0     		sub	sp, sp, #20
  37              	.LCFI1:
  38              		.cfi_def_cfa_offset 24
  39 0004 00AF     		add	r7, sp, #0
  40              	.LCFI2:
  41              		.cfi_def_cfa_register 7
  42 0006 0346     		mov	r3, r0
  43 0008 FB71     		strb	r3, [r7, #7]
  41:.\Generated_Source\PSoC5/LED.c ****     uint8 staticBits = (LED_DR & (uint8)(~LED_MASK));
  44              		.loc 1 41 0
  45 000a 45F2F013 		movw	r3, #20976
  46 000e C4F20003 		movt	r3, 16384
  47 0012 1B78     		ldrb	r3, [r3, #0]
  48 0014 DBB2     		uxtb	r3, r3
  49 0016 23F03003 		bic	r3, r3, #48
  50 001a FB73     		strb	r3, [r7, #15]
  42:.\Generated_Source\PSoC5/LED.c ****     LED_DR = staticBits | ((uint8)(value << LED_SHIFT) & LED_MASK);
  51              		.loc 1 42 0
  52 001c 45F2F013 		movw	r3, #20976
  53 0020 C4F20003 		movt	r3, 16384
  54 0024 FA79     		ldrb	r2, [r7, #7]
  55 0026 4FEA0212 		lsl	r2, r2, #4
  56 002a D2B2     		uxtb	r2, r2
  57 002c 02F03002 		and	r2, r2, #48
  58 0030 D1B2     		uxtb	r1, r2
  59 0032 FA7B     		ldrb	r2, [r7, #15]
  60 0034 0A43     		orrs	r2, r2, r1
  61 0036 D2B2     		uxtb	r2, r2
  62 0038 1A70     		strb	r2, [r3, #0]
  43:.\Generated_Source\PSoC5/LED.c **** }
  63              		.loc 1 43 0
  64 003a 07F11407 		add	r7, r7, #20
  65 003e BD46     		mov	sp, r7
  66 0040 80BC     		pop	{r7}
  67 0042 7047     		bx	lr
  68              		.cfi_endproc
  69              	.LFE0:
  70              		.size	LED_Write, .-LED_Write
  71              		.section	.text.LED_SetDriveMode,"ax",%progbits
ARM GAS  C:\Users\CHUCK~1.ERH\AppData\Local\Temp\cch1xz8c.s 			page 3


  72              		.align	2
  73              		.global	LED_SetDriveMode
  74              		.thumb
  75              		.thumb_func
  76              		.type	LED_SetDriveMode, %function
  77              	LED_SetDriveMode:
  78              	.LFB1:
  44:.\Generated_Source\PSoC5/LED.c **** 
  45:.\Generated_Source\PSoC5/LED.c **** 
  46:.\Generated_Source\PSoC5/LED.c **** /*******************************************************************************
  47:.\Generated_Source\PSoC5/LED.c **** * Function Name: LED_SetDriveMode
  48:.\Generated_Source\PSoC5/LED.c **** ********************************************************************************
  49:.\Generated_Source\PSoC5/LED.c **** *
  50:.\Generated_Source\PSoC5/LED.c **** * Summary:
  51:.\Generated_Source\PSoC5/LED.c **** *  Change the drive mode on the pins of the port.
  52:.\Generated_Source\PSoC5/LED.c **** * 
  53:.\Generated_Source\PSoC5/LED.c **** * Parameters:  
  54:.\Generated_Source\PSoC5/LED.c **** *  mode:  Change the pins to one of the following drive modes.
  55:.\Generated_Source\PSoC5/LED.c **** *
  56:.\Generated_Source\PSoC5/LED.c **** *  LED_DM_STRONG     Strong Drive 
  57:.\Generated_Source\PSoC5/LED.c **** *  LED_DM_OD_HI      Open Drain, Drives High 
  58:.\Generated_Source\PSoC5/LED.c **** *  LED_DM_OD_LO      Open Drain, Drives Low 
  59:.\Generated_Source\PSoC5/LED.c **** *  LED_DM_RES_UP     Resistive Pull Up 
  60:.\Generated_Source\PSoC5/LED.c **** *  LED_DM_RES_DWN    Resistive Pull Down 
  61:.\Generated_Source\PSoC5/LED.c **** *  LED_DM_RES_UPDWN  Resistive Pull Up/Down 
  62:.\Generated_Source\PSoC5/LED.c **** *  LED_DM_DIG_HIZ    High Impedance Digital 
  63:.\Generated_Source\PSoC5/LED.c **** *  LED_DM_ALG_HIZ    High Impedance Analog 
  64:.\Generated_Source\PSoC5/LED.c **** *
  65:.\Generated_Source\PSoC5/LED.c **** * Return: 
  66:.\Generated_Source\PSoC5/LED.c **** *  None
  67:.\Generated_Source\PSoC5/LED.c **** *
  68:.\Generated_Source\PSoC5/LED.c **** *******************************************************************************/
  69:.\Generated_Source\PSoC5/LED.c **** void LED_SetDriveMode(uint8 mode) 
  70:.\Generated_Source\PSoC5/LED.c **** {
  79              		.loc 1 70 0
  80              		.cfi_startproc
  81              		@ args = 0, pretend = 0, frame = 8
  82              		@ frame_needed = 1, uses_anonymous_args = 0
  83              		@ link register save eliminated.
  84 0000 80B4     		push	{r7}
  85              	.LCFI3:
  86              		.cfi_def_cfa_offset 4
  87              		.cfi_offset 7, -4
  88 0002 83B0     		sub	sp, sp, #12
  89              	.LCFI4:
  90              		.cfi_def_cfa_offset 16
  91 0004 00AF     		add	r7, sp, #0
  92              	.LCFI5:
  93              		.cfi_def_cfa_register 7
  94 0006 0346     		mov	r3, r0
  95 0008 FB71     		strb	r3, [r7, #7]
  71:.\Generated_Source\PSoC5/LED.c **** 	CyPins_SetPinDriveMode(LED_0, mode);
  96              		.loc 1 71 0
  97 000a 45F27C03 		movw	r3, #20604
  98 000e C4F20003 		movt	r3, 16384
  99 0012 45F27C02 		movw	r2, #20604
 100 0016 C4F20002 		movt	r2, 16384
ARM GAS  C:\Users\CHUCK~1.ERH\AppData\Local\Temp\cch1xz8c.s 			page 4


 101 001a 1278     		ldrb	r2, [r2, #0]
 102 001c D2B2     		uxtb	r2, r2
 103 001e D2B2     		uxtb	r2, r2
 104 0020 22F00E02 		bic	r2, r2, #14
 105 0024 D1B2     		uxtb	r1, r2
 106 0026 FA79     		ldrb	r2, [r7, #7]	@ zero_extendqisi2
 107 0028 02F00E02 		and	r2, r2, #14
 108 002c D2B2     		uxtb	r2, r2
 109 002e 0A43     		orrs	r2, r2, r1
 110 0030 D2B2     		uxtb	r2, r2
 111 0032 D2B2     		uxtb	r2, r2
 112 0034 1A70     		strb	r2, [r3, #0]
  72:.\Generated_Source\PSoC5/LED.c **** 	CyPins_SetPinDriveMode(LED_1, mode);
 113              		.loc 1 72 0
 114 0036 45F27D03 		movw	r3, #20605
 115 003a C4F20003 		movt	r3, 16384
 116 003e 45F27D02 		movw	r2, #20605
 117 0042 C4F20002 		movt	r2, 16384
 118 0046 1278     		ldrb	r2, [r2, #0]
 119 0048 D2B2     		uxtb	r2, r2
 120 004a D2B2     		uxtb	r2, r2
 121 004c 22F00E02 		bic	r2, r2, #14
 122 0050 D1B2     		uxtb	r1, r2
 123 0052 FA79     		ldrb	r2, [r7, #7]	@ zero_extendqisi2
 124 0054 02F00E02 		and	r2, r2, #14
 125 0058 D2B2     		uxtb	r2, r2
 126 005a 0A43     		orrs	r2, r2, r1
 127 005c D2B2     		uxtb	r2, r2
 128 005e D2B2     		uxtb	r2, r2
 129 0060 1A70     		strb	r2, [r3, #0]
  73:.\Generated_Source\PSoC5/LED.c **** }
 130              		.loc 1 73 0
 131 0062 07F10C07 		add	r7, r7, #12
 132 0066 BD46     		mov	sp, r7
 133 0068 80BC     		pop	{r7}
 134 006a 7047     		bx	lr
 135              		.cfi_endproc
 136              	.LFE1:
 137              		.size	LED_SetDriveMode, .-LED_SetDriveMode
 138              		.section	.text.LED_Read,"ax",%progbits
 139              		.align	2
 140              		.global	LED_Read
 141              		.thumb
 142              		.thumb_func
 143              		.type	LED_Read, %function
 144              	LED_Read:
 145              	.LFB2:
  74:.\Generated_Source\PSoC5/LED.c **** 
  75:.\Generated_Source\PSoC5/LED.c **** 
  76:.\Generated_Source\PSoC5/LED.c **** /*******************************************************************************
  77:.\Generated_Source\PSoC5/LED.c **** * Function Name: LED_Read
  78:.\Generated_Source\PSoC5/LED.c **** ********************************************************************************
  79:.\Generated_Source\PSoC5/LED.c **** *
  80:.\Generated_Source\PSoC5/LED.c **** * Summary:
  81:.\Generated_Source\PSoC5/LED.c **** *  Read the current value on the pins of the Digital Port in right justified 
  82:.\Generated_Source\PSoC5/LED.c **** *  form.
  83:.\Generated_Source\PSoC5/LED.c **** *
ARM GAS  C:\Users\CHUCK~1.ERH\AppData\Local\Temp\cch1xz8c.s 			page 5


  84:.\Generated_Source\PSoC5/LED.c **** * Parameters:  
  85:.\Generated_Source\PSoC5/LED.c **** *  None
  86:.\Generated_Source\PSoC5/LED.c **** *
  87:.\Generated_Source\PSoC5/LED.c **** * Return: 
  88:.\Generated_Source\PSoC5/LED.c **** *  Returns the current value of the Digital Port as a right justified number
  89:.\Generated_Source\PSoC5/LED.c **** *  
  90:.\Generated_Source\PSoC5/LED.c **** * Note:
  91:.\Generated_Source\PSoC5/LED.c **** *  Macro LED_ReadPS calls this function. 
  92:.\Generated_Source\PSoC5/LED.c **** *  
  93:.\Generated_Source\PSoC5/LED.c **** *******************************************************************************/
  94:.\Generated_Source\PSoC5/LED.c **** uint8 LED_Read(void) 
  95:.\Generated_Source\PSoC5/LED.c **** {
 146              		.loc 1 95 0
 147              		.cfi_startproc
 148              		@ args = 0, pretend = 0, frame = 0
 149              		@ frame_needed = 1, uses_anonymous_args = 0
 150              		@ link register save eliminated.
 151 0000 80B4     		push	{r7}
 152              	.LCFI6:
 153              		.cfi_def_cfa_offset 4
 154              		.cfi_offset 7, -4
 155 0002 00AF     		add	r7, sp, #0
 156              	.LCFI7:
 157              		.cfi_def_cfa_register 7
  96:.\Generated_Source\PSoC5/LED.c ****     return (LED_PS & LED_MASK) >> LED_SHIFT;
 158              		.loc 1 96 0
 159 0004 45F2F113 		movw	r3, #20977
 160 0008 C4F20003 		movt	r3, 16384
 161 000c 1B78     		ldrb	r3, [r3, #0]
 162 000e DBB2     		uxtb	r3, r3
 163 0010 03F03003 		and	r3, r3, #48
 164 0014 4FEA1313 		lsr	r3, r3, #4
 165 0018 DBB2     		uxtb	r3, r3
  97:.\Generated_Source\PSoC5/LED.c **** }
 166              		.loc 1 97 0
 167 001a 1846     		mov	r0, r3
 168 001c BD46     		mov	sp, r7
 169 001e 80BC     		pop	{r7}
 170 0020 7047     		bx	lr
 171              		.cfi_endproc
 172              	.LFE2:
 173              		.size	LED_Read, .-LED_Read
 174 0022 00BF     		.section	.text.LED_ReadDataReg,"ax",%progbits
 175              		.align	2
 176              		.global	LED_ReadDataReg
 177              		.thumb
 178              		.thumb_func
 179              		.type	LED_ReadDataReg, %function
 180              	LED_ReadDataReg:
 181              	.LFB3:
  98:.\Generated_Source\PSoC5/LED.c **** 
  99:.\Generated_Source\PSoC5/LED.c **** 
 100:.\Generated_Source\PSoC5/LED.c **** /*******************************************************************************
 101:.\Generated_Source\PSoC5/LED.c **** * Function Name: LED_ReadDataReg
 102:.\Generated_Source\PSoC5/LED.c **** ********************************************************************************
 103:.\Generated_Source\PSoC5/LED.c **** *
 104:.\Generated_Source\PSoC5/LED.c **** * Summary:
ARM GAS  C:\Users\CHUCK~1.ERH\AppData\Local\Temp\cch1xz8c.s 			page 6


 105:.\Generated_Source\PSoC5/LED.c **** *  Read the current value assigned to a Digital Port's data output register
 106:.\Generated_Source\PSoC5/LED.c **** *
 107:.\Generated_Source\PSoC5/LED.c **** * Parameters:  
 108:.\Generated_Source\PSoC5/LED.c **** *  None 
 109:.\Generated_Source\PSoC5/LED.c **** *
 110:.\Generated_Source\PSoC5/LED.c **** * Return: 
 111:.\Generated_Source\PSoC5/LED.c **** *  Returns the current value assigned to the Digital Port's data output register
 112:.\Generated_Source\PSoC5/LED.c **** *  
 113:.\Generated_Source\PSoC5/LED.c **** *******************************************************************************/
 114:.\Generated_Source\PSoC5/LED.c **** uint8 LED_ReadDataReg(void) 
 115:.\Generated_Source\PSoC5/LED.c **** {
 182              		.loc 1 115 0
 183              		.cfi_startproc
 184              		@ args = 0, pretend = 0, frame = 0
 185              		@ frame_needed = 1, uses_anonymous_args = 0
 186              		@ link register save eliminated.
 187 0000 80B4     		push	{r7}
 188              	.LCFI8:
 189              		.cfi_def_cfa_offset 4
 190              		.cfi_offset 7, -4
 191 0002 00AF     		add	r7, sp, #0
 192              	.LCFI9:
 193              		.cfi_def_cfa_register 7
 116:.\Generated_Source\PSoC5/LED.c ****     return (LED_DR & LED_MASK) >> LED_SHIFT;
 194              		.loc 1 116 0
 195 0004 45F2F013 		movw	r3, #20976
 196 0008 C4F20003 		movt	r3, 16384
 197 000c 1B78     		ldrb	r3, [r3, #0]
 198 000e DBB2     		uxtb	r3, r3
 199 0010 03F03003 		and	r3, r3, #48
 200 0014 4FEA1313 		lsr	r3, r3, #4
 201 0018 DBB2     		uxtb	r3, r3
 117:.\Generated_Source\PSoC5/LED.c **** }
 202              		.loc 1 117 0
 203 001a 1846     		mov	r0, r3
 204 001c BD46     		mov	sp, r7
 205 001e 80BC     		pop	{r7}
 206 0020 7047     		bx	lr
 207              		.cfi_endproc
 208              	.LFE3:
 209              		.size	LED_ReadDataReg, .-LED_ReadDataReg
 210 0022 00BF     		.text
 211              	.Letext0:
 212              		.file 2 ".\\Generated_Source\\PSoC5\\cytypes.h"