ARM GAS  C:\Users\CHUCK~1.ERH\AppData\Local\Temp\ccFJclOw.s 			page 1


   1              		.syntax unified
   2              		.cpu cortex-m3
   3              		.fpu softvfp
   4              		.eabi_attribute 20, 1
   5              		.eabi_attribute 21, 1
   6              		.eabi_attribute 23, 3
   7              		.eabi_attribute 24, 1
   8              		.eabi_attribute 25, 1
   9              		.eabi_attribute 26, 1
  10              		.eabi_attribute 30, 6
  11              		.eabi_attribute 34, 1
  12              		.eabi_attribute 18, 4
  13              		.thumb
  14              		.file	"main.c"
  15              		.text
  16              	.Ltext0:
  17              		.cfi_sections	.debug_frame
  18              		.section	.rodata
  19              		.align	2
  20              	.LC0:
  21 0000 48656C6C 		.ascii	"Hello from PSoC 5LP and W5500!\015\012\015\012\000"
  21      6F206672 
  21      6F6D2050 
  21      536F4320 
  21      354C5020 
  22 0023 00       		.section	.text.main,"ax",%progbits
  23              		.align	2
  24              		.global	main
  25              		.thumb
  26              		.thumb_func
  27              		.type	main, %function
  28              	main:
  29              	.LFB56:
  30              		.file 1 ".\\main.c"
   1:.\main.c      **** /* ========================================
   2:.\main.c      ****  *
   3:.\main.c      ****  * Copyright YOUR COMPANY, THE YEAR
   4:.\main.c      ****  * All Rights Reserved
   5:.\main.c      ****  * UNPUBLISHED, LICENSED SOFTWARE.
   6:.\main.c      ****  *
   7:.\main.c      ****  * CONFIDENTIAL AND PROPRIETARY INFORMATION
   8:.\main.c      ****  * WHICH IS THE PROPERTY OF your company.
   9:.\main.c      ****  *
  10:.\main.c      ****  * ========================================
  11:.\main.c      **** */
  12:.\main.c      **** #include <project.h>
  13:.\main.c      **** 
  14:.\main.c      **** int main()
  15:.\main.c      **** {
  31              		.loc 1 15 0
  32              		.cfi_startproc
  33              		@ args = 0, pretend = 0, frame = 8
  34              		@ frame_needed = 1, uses_anonymous_args = 0
  35 0000 80B5     		push	{r7, lr}
  36              	.LCFI0:
  37              		.cfi_def_cfa_offset 8
  38              		.cfi_offset 7, -8
ARM GAS  C:\Users\CHUCK~1.ERH\AppData\Local\Temp\ccFJclOw.s 			page 2


  39              		.cfi_offset 14, -4
  40 0002 82B0     		sub	sp, sp, #8
  41              	.LCFI1:
  42              		.cfi_def_cfa_offset 16
  43 0004 00AF     		add	r7, sp, #0
  44              	.LCFI2:
  45              		.cfi_def_cfa_register 7
  16:.\main.c      **** 	uint8 socket;
  17:.\main.c      **** 	
  18:.\main.c      ****     /* Place your initialization/startup code here (e.g. MyInst_Start()) */
  19:.\main.c      **** 	SPI_Start();
  46              		.loc 1 19 0
  47 0006 FFF7FEFF 		bl	SPI_Start
  20:.\main.c      **** 	ETH_Start();
  48              		.loc 1 20 0
  49 000a FFF7FEFF 		bl	ETH_Start
  50              	.L2:
  21:.\main.c      **** 	
  22:.\main.c      ****     /* CyGlobalIntEnable; */ /* Uncomment this line to enable global interrupts. */
  23:.\main.c      ****     for(;;)
  24:.\main.c      ****     {
  25:.\main.c      **** 		socket = ETH_TcpOpen( 23 );
  51              		.loc 1 25 0 discriminator 1
  52 000e 4FF01700 		mov	r0, #23
  53 0012 FFF7FEFF 		bl	ETH_TcpOpen
  54 0016 0346     		mov	r3, r0
  55 0018 FB71     		strb	r3, [r7, #7]
  26:.\main.c      **** 		ETH_TcpStartServerWait( socket );
  56              		.loc 1 26 0 discriminator 1
  57 001a FB79     		ldrb	r3, [r7, #7]	@ zero_extendqisi2
  58 001c 1846     		mov	r0, r3
  59 001e FFF7FEFF 		bl	ETH_TcpStartServerWait
  27:.\main.c      **** 		
  28:.\main.c      **** 		ETH_TcpPrint(socket,"Hello from PSoC 5LP and W5500!\r\n\r\n");
  60              		.loc 1 28 0 discriminator 1
  61 0022 FB79     		ldrb	r3, [r7, #7]	@ zero_extendqisi2
  62 0024 1846     		mov	r0, r3
  63 0026 40F20001 		movw	r1, #:lower16:.LC0
  64 002a C0F20001 		movt	r1, #:upper16:.LC0
  65 002e FFF7FEFF 		bl	ETH_TcpPrint
  29:.\main.c      **** 		CyDelay(10);
  66              		.loc 1 29 0 discriminator 1
  67 0032 4FF00A00 		mov	r0, #10
  68 0036 FFF7FEFF 		bl	CyDelay
  30:.\main.c      **** 		ETH_TcpDisconnect( socket );
  69              		.loc 1 30 0 discriminator 1
  70 003a FB79     		ldrb	r3, [r7, #7]	@ zero_extendqisi2
  71 003c 1846     		mov	r0, r3
  72 003e FFF7FEFF 		bl	ETH_TcpDisconnect
  31:.\main.c      **** 		CyDelay(100);
  73              		.loc 1 31 0 discriminator 1
  74 0042 4FF06400 		mov	r0, #100
  75 0046 FFF7FEFF 		bl	CyDelay
  32:.\main.c      **** 		ETH_SocketClose( socket );
  76              		.loc 1 32 0 discriminator 1
  77 004a FB79     		ldrb	r3, [r7, #7]	@ zero_extendqisi2
  78 004c 1846     		mov	r0, r3
ARM GAS  C:\Users\CHUCK~1.ERH\AppData\Local\Temp\ccFJclOw.s 			page 3


  79 004e FFF7FEFF 		bl	ETH_SocketClose
  33:.\main.c      ****     }
  80              		.loc 1 33 0 discriminator 1
  81 0052 DCE7     		b	.L2
  82              		.cfi_endproc
  83              	.LFE56:
  84              		.size	main, .-main
  85              		.text
  86              	.Letext0:
  87              		.file 2 "c:\\program files (x86)\\cypress\\psoc creator\\3.0\\psoc creator\\import\\gnu_cs\\arm\\4
  88              		.file 3 "./Generated_Source/PSoC5/cytypes.h"
  89              		.file 4 "./Generated_Source/PSoC5/core_cm3.h"