ARM GAS  C:\Users\CHUCK~1.ERH\AppData\Local\Temp\ccGQMJ3g.s 			page 1


   1              		.syntax unified
   2              		.cpu cortex-m3
   3              		.fpu softvfp
   4              		.eabi_attribute 20, 1
   5              		.eabi_attribute 21, 1
   6              		.eabi_attribute 23, 3
   7              		.eabi_attribute 24, 1
   8              		.eabi_attribute 25, 1
   9              		.eabi_attribute 26, 1
  10              		.eabi_attribute 30, 6
  11              		.eabi_attribute 34, 1
  12              		.eabi_attribute 18, 4
  13              		.thumb
  14              		.file	"main.c"
  15              		.text
  16              	.Ltext0:
  17              		.cfi_sections	.debug_frame
  18              		.section	.rodata
  19              		.align	2
  20              	.LC0:
  21 0000 0D0A4865 		.ascii	"\015\012Hello from the W5200 interface!\015\012\000"
  21      6C6C6F20 
  21      66726F6D 
  21      20746865 
  21      20573532 
  22              		.section	.text.main,"ax",%progbits
  23              		.align	2
  24              		.global	main
  25              		.thumb
  26              		.thumb_func
  27              		.type	main, %function
  28              	main:
  29              	.LFB56:
  30              		.file 1 ".\\main.c"
   1:.\main.c      **** /* ========================================
   2:.\main.c      ****  *
   3:.\main.c      ****  * Copyright YOUR COMPANY, THE YEAR
   4:.\main.c      ****  * All Rights Reserved
   5:.\main.c      ****  * UNPUBLISHED, LICENSED SOFTWARE.
   6:.\main.c      ****  *
   7:.\main.c      ****  * CONFIDENTIAL AND PROPRIETARY INFORMATION
   8:.\main.c      ****  * WHICH IS THE PROPERTY OF your company.
   9:.\main.c      ****  *
  10:.\main.c      ****  * ========================================
  11:.\main.c      **** */
  12:.\main.c      **** #include <project.h>
  13:.\main.c      **** 
  14:.\main.c      **** int main()
  15:.\main.c      **** {
  31              		.loc 1 15 0
  32              		.cfi_startproc
  33              		@ args = 0, pretend = 0, frame = 8
  34              		@ frame_needed = 1, uses_anonymous_args = 0
  35 0000 80B5     		push	{r7, lr}
  36              	.LCFI0:
  37              		.cfi_def_cfa_offset 8
  38              		.cfi_offset 7, -8
ARM GAS  C:\Users\CHUCK~1.ERH\AppData\Local\Temp\ccGQMJ3g.s 			page 2


  39              		.cfi_offset 14, -4
  40 0002 82B0     		sub	sp, sp, #8
  41              	.LCFI1:
  42              		.cfi_def_cfa_offset 16
  43 0004 00AF     		add	r7, sp, #0
  44              	.LCFI2:
  45              		.cfi_def_cfa_register 7
  16:.\main.c      **** 	uint8 socket;
  17:.\main.c      **** 	uint32 ip;
  18:.\main.c      **** 	
  19:.\main.c      ****     /* Place your initialization/startup code here (e.g. MyInst_Start()) */
  20:.\main.c      **** 	W5200_RST_Write(0);
  46              		.loc 1 20 0
  47 0006 4FF00000 		mov	r0, #0
  48 000a FFF7FEFF 		bl	W5200_RST_Write
  21:.\main.c      **** 	SPI_Start();
  49              		.loc 1 21 0
  50 000e FFF7FEFF 		bl	SPI_Start
  22:.\main.c      **** 	W5200_RST_Write(1);
  51              		.loc 1 22 0
  52 0012 4FF00100 		mov	r0, #1
  53 0016 FFF7FEFF 		bl	W5200_RST_Write
  23:.\main.c      **** 	CyDelay(1500);
  54              		.loc 1 23 0
  55 001a 40F2DC50 		movw	r0, #1500
  56 001e FFF7FEFF 		bl	CyDelay
  24:.\main.c      **** 	
  25:.\main.c      **** 	ETH_Start();
  57              		.loc 1 25 0
  58 0022 FFF7FEFF 		bl	ETH_Start
  59              	.L2:
  26:.\main.c      **** 	
  27:.\main.c      ****     /* CyGlobalIntEnable; */ /* Uncomment this line to enable global interrupts. */
  28:.\main.c      ****     for(;;)
  29:.\main.c      ****     {
  30:.\main.c      ****         /* Place your application code here. */
  31:.\main.c      **** 		socket = ETH_TcpOpen(23);
  60              		.loc 1 31 0 discriminator 1
  61 0026 4FF01700 		mov	r0, #23
  62 002a FFF7FEFF 		bl	ETH_TcpOpen
  63 002e 0346     		mov	r3, r0
  64 0030 FB71     		strb	r3, [r7, #7]
  32:.\main.c      **** 		ETH_TcpStartServerWait( socket );
  65              		.loc 1 32 0 discriminator 1
  66 0032 FB79     		ldrb	r3, [r7, #7]	@ zero_extendqisi2
  67 0034 1846     		mov	r0, r3
  68 0036 FFF7FEFF 		bl	ETH_TcpStartServerWait
  33:.\main.c      **** 		
  34:.\main.c      **** 		ETH_TcpPrint(socket,"\r\nHello from the W5200 interface!\r\n");
  69              		.loc 1 34 0 discriminator 1
  70 003a FB79     		ldrb	r3, [r7, #7]	@ zero_extendqisi2
  71 003c 1846     		mov	r0, r3
  72 003e 40F20001 		movw	r1, #:lower16:.LC0
  73 0042 C0F20001 		movt	r1, #:upper16:.LC0
  74 0046 FFF7FEFF 		bl	ETH_TcpPrint
  35:.\main.c      **** 		CyDelay(150);
  75              		.loc 1 35 0 discriminator 1
ARM GAS  C:\Users\CHUCK~1.ERH\AppData\Local\Temp\ccGQMJ3g.s 			page 3


  76 004a 4FF09600 		mov	r0, #150
  77 004e FFF7FEFF 		bl	CyDelay
  36:.\main.c      **** 		ETH_TcpDisconnect( socket );
  78              		.loc 1 36 0 discriminator 1
  79 0052 FB79     		ldrb	r3, [r7, #7]	@ zero_extendqisi2
  80 0054 1846     		mov	r0, r3
  81 0056 FFF7FEFF 		bl	ETH_TcpDisconnect
  37:.\main.c      **** 		
  38:.\main.c      **** 		ETH_SocketClose( socket );
  82              		.loc 1 38 0 discriminator 1
  83 005a FB79     		ldrb	r3, [r7, #7]	@ zero_extendqisi2
  84 005c 1846     		mov	r0, r3
  85 005e FFF7FEFF 		bl	ETH_SocketClose
  39:.\main.c      ****     }
  86              		.loc 1 39 0 discriminator 1
  87 0062 E0E7     		b	.L2
  88              		.cfi_endproc
  89              	.LFE56:
  90              		.size	main, .-main
  91              		.text
  92              	.Letext0:
  93              		.file 2 "c:\\program files (x86)\\cypress\\psoc creator\\3.0\\psoc creator\\import\\gnu_cs\\arm\\4
  94              		.file 3 "./Generated_Source/PSoC5/cytypes.h"
  95              		.file 4 "./Generated_Source/PSoC5/core_cm3.h"