ARM GAS  C:\Users\CHUCK~1.ERH\AppData\Local\Temp\ccSVmyDA.s 			page 1


   1              		.cpu cortex-m0
   2              		.fpu softvfp
   3              		.eabi_attribute 20, 1
   4              		.eabi_attribute 21, 1
   5              		.eabi_attribute 23, 3
   6              		.eabi_attribute 24, 1
   7              		.eabi_attribute 25, 1
   8              		.eabi_attribute 26, 1
   9              		.eabi_attribute 30, 6
  10              		.eabi_attribute 34, 0
  11              		.eabi_attribute 18, 4
  12              		.code	16
  13              		.file	"ETH.c"
  14              		.text
  15              	.Ltext0:
  16              		.cfi_sections	.debug_frame
  17              		.global	ETH_SOCKET_TX_BASE
  18              		.section	.rodata
  19              		.align	2
  20              		.type	ETH_SOCKET_TX_BASE, %object
  21              		.size	ETH_SOCKET_TX_BASE, 8
  22              	ETH_SOCKET_TX_BASE:
  23 0000 0040     		.short	16384
  24 0002 0048     		.short	18432
  25 0004 0050     		.short	20480
  26 0006 0058     		.short	22528
  27              		.global	ETH_SOCKET_RX_BASE
  28              		.align	2
  29              		.type	ETH_SOCKET_RX_BASE, %object
  30              		.size	ETH_SOCKET_RX_BASE, 8
  31              	ETH_SOCKET_RX_BASE:
  32 0008 0060     		.short	24576
  33 000a 0068     		.short	26624
  34 000c 0070     		.short	28672
  35 000e 0078     		.short	30720
  36              		.comm	ETH_SocketConfig,32,4
  37              		.comm	ETH_SubnetMask,4,4
  38              		.comm	ETH_MAC,6,4
  39              		.section	.text.ETH_ChipSelect,"ax",%progbits
  40              		.align	2
  41              		.global	ETH_ChipSelect
  42              		.code	16
  43              		.thumb_func
  44              		.type	ETH_ChipSelect, %function
  45              	ETH_ChipSelect:
  46              	.LFB0:
  47              		.file 1 ".\\Generated_Source\\PSoC4\\ETH.c"
   1:.\Generated_Source\PSoC4/ETH.c **** /**
   2:.\Generated_Source\PSoC4/ETH.c ****  * \addtogroup w5x00
   3:.\Generated_Source\PSoC4/ETH.c ****  * @{
   4:.\Generated_Source\PSoC4/ETH.c ****  */
   5:.\Generated_Source\PSoC4/ETH.c **** 
   6:.\Generated_Source\PSoC4/ETH.c **** /**
   7:.\Generated_Source\PSoC4/ETH.c ****  * \file Driver implementation for interfacing with the W5x00 device
   8:.\Generated_Source\PSoC4/ETH.c ****  * \author Chuck Erhardt (chuck@e2forlife.com)
   9:.\Generated_Source\PSoC4/ETH.c ****  *
  10:.\Generated_Source\PSoC4/ETH.c ****  * This file contains the main driver implementation for control
ARM GAS  C:\Users\CHUCK~1.ERH\AppData\Local\Temp\ccSVmyDA.s 			page 2


  11:.\Generated_Source\PSoC4/ETH.c ****  * of the W5x00 device.
  12:.\Generated_Source\PSoC4/ETH.c **** */
  13:.\Generated_Source\PSoC4/ETH.c **** 
  14:.\Generated_Source\PSoC4/ETH.c **** /*
  15:.\Generated_Source\PSoC4/ETH.c ****  * Change Log:
  16:.\Generated_Source\PSoC4/ETH.c ****  * 
  17:.\Generated_Source\PSoC4/ETH.c ****  * V1.1
  18:.\Generated_Source\PSoC4/ETH.c ****  * - Modified the SPI access function to remove hard wait for READ_WRITE_DELAY  <CE>
  19:.\Generated_Source\PSoC4/ETH.c ****  * - Removed READ_WRITE_DELAY Parameter <CE>
  20:.\Generated_Source\PSoC4/ETH.c ****  * - Added validator to SS_NUM parameter to ensure that the value is the range 0-3 <CE>
  21:.\Generated_Source\PSoC4/ETH.c ****  * - Removed "inline" keywords from interal register access function to promote
  22:.\Generated_Source\PSoC4/ETH.c ****  *   compatibility with Keil PSoC3 compilers that don't support them. <CE>
  23:.\Generated_Source\PSoC4/ETH.c ****  * - Fixed bug in _ProcessRxData() that caused the read pointer not to be updated without
  24:.\Generated_Source\PSoC4/ETH.c ****  *   the lookahead flag being set. <CE>
  25:.\Generated_Source\PSoC4/ETH.c ****  * V1.2
  26:.\Generated_Source\PSoC4/ETH.c ****  * - Added _STS_SPI_IDLE flag to _SpiDone conditions to prevent deadlocking that
  27:.\Generated_Source\PSoC4/ETH.c ****  *   was occuring during the first read or write using the SPI device (SPIM moded) <CE>
  28:.\Generated_Source\PSoC4/ETH.c ****  * - Removed the check for SOCKET_ESTABLISHED at the start of the TcpReceive
  29:.\Generated_Source\PSoC4/ETH.c ****  *   function to allow for reading received socket data after the socket was dropped
  30:.\Generated_Source\PSoC4/ETH.c ****  *   by the remote server.  It was brought to my attention that this occurs when
  31:.\Generated_Source\PSoC4/ETH.c ****  *   operating with client connection to HTTP servers. <CE>
  32:.\Generated_Source\PSoC4/ETH.c ****  * - Added a MAC address parser and MAC to String Converter. <CE>
  33:.\Generated_Source\PSoC4/ETH.c ****  */
  34:.\Generated_Source\PSoC4/ETH.c **** 
  35:.\Generated_Source\PSoC4/ETH.c **** /* Cypress library includes */
  36:.\Generated_Source\PSoC4/ETH.c **** #include <cytypes.h>
  37:.\Generated_Source\PSoC4/ETH.c **** #include <cylib.h>
  38:.\Generated_Source\PSoC4/ETH.c **** 
  39:.\Generated_Source\PSoC4/ETH.c **** /*  include functions and types for the driver */
  40:.\Generated_Source\PSoC4/ETH.c **** #include "ETH.h"
  41:.\Generated_Source\PSoC4/ETH.c **** /* Include register address constants */
  42:.\Generated_Source\PSoC4/ETH.c **** #include "ETH_reg51.h"
  43:.\Generated_Source\PSoC4/ETH.c **** 
  44:.\Generated_Source\PSoC4/ETH.c **** /* include the serial interface functions */
  45:.\Generated_Source\PSoC4/ETH.c **** #include <SPI0.h>
  46:.\Generated_Source\PSoC4/ETH.c **** #include <SSCR.h>
  47:.\Generated_Source\PSoC4/ETH.c **** 
  48:.\Generated_Source\PSoC4/ETH.c **** extern uint8 SPI0_initVar;
  49:.\Generated_Source\PSoC4/ETH.c **** 
  50:.\Generated_Source\PSoC4/ETH.c **** typedef struct
  51:.\Generated_Source\PSoC4/ETH.c **** {
  52:.\Generated_Source\PSoC4/ETH.c **** 	uint8  Protocol;
  53:.\Generated_Source\PSoC4/ETH.c **** 	uint8  SocketFlags;
  54:.\Generated_Source\PSoC4/ETH.c **** 	uint16 SourcePort;
  55:.\Generated_Source\PSoC4/ETH.c **** 	uint8  ServerFlag;
  56:.\Generated_Source\PSoC4/ETH.c **** 	uint8  TxBufferSize;
  57:.\Generated_Source\PSoC4/ETH.c **** 	uint8  RxBufferSize;
  58:.\Generated_Source\PSoC4/ETH.c **** } ETH_SOCKET;
  59:.\Generated_Source\PSoC4/ETH.c **** 
  60:.\Generated_Source\PSoC4/ETH.c **** #if (1 == 1) // W5100 Specific
  61:.\Generated_Source\PSoC4/ETH.c **** const uint16 ETH_SOCKET_TX_BASE[4] = { 0x4000, 0x4800, 0x5000, 0x5800 };
  62:.\Generated_Source\PSoC4/ETH.c **** const uint16 ETH_SOCKET_RX_BASE[4] = { 0x6000, 0x6800, 0x7000, 0x7800 };
  63:.\Generated_Source\PSoC4/ETH.c **** 
  64:.\Generated_Source\PSoC4/ETH.c **** #define ETH_MAX_SOCKET   ( 4 )
  65:.\Generated_Source\PSoC4/ETH.c **** #define ETH_BURST_MAX    ( 1 )
  66:.\Generated_Source\PSoC4/ETH.c **** 
  67:.\Generated_Source\PSoC4/ETH.c **** /**
ARM GAS  C:\Users\CHUCK~1.ERH\AppData\Local\Temp\ccSVmyDA.s 			page 3


  68:.\Generated_Source\PSoC4/ETH.c ****  * \def ETH_SOCKET REG(s,r)
  69:.\Generated_Source\PSoC4/ETH.c ****  * \brief Convert the socket number to a base address within the W5100
  70:.\Generated_Source\PSoC4/ETH.c ****  */
  71:.\Generated_Source\PSoC4/ETH.c **** #define ETH_SOCKET_REG(s,r)           ( (((uint16)s<<8)+0x0400) + r )
  72:.\Generated_Source\PSoC4/ETH.c **** 
  73:.\Generated_Source\PSoC4/ETH.c **** #elif (1 == 2) // W5200 Specific
  74:.\Generated_Source\PSoC4/ETH.c **** 	
  75:.\Generated_Source\PSoC4/ETH.c **** const uint16 ETH_SOCKET_TX_BASE[8] = { 0x8000, 0x8800, 0x9000, 0x9800, 0xA000, 0xA800, 0xB000, 0xB8
  76:.\Generated_Source\PSoC4/ETH.c **** const uint16 ETH_SOCKET_RX_BASE[8] = { 0xC000, 0xC800, 0xD000, 0xD800, 0xE000, 0xE800, 0xF000, 0xF8
  77:.\Generated_Source\PSoC4/ETH.c **** 
  78:.\Generated_Source\PSoC4/ETH.c **** #define ETH_MAX_SOCKET   ( 8 )
  79:.\Generated_Source\PSoC4/ETH.c **** #define ETH_BURST_MAX    ( 0x7FFF )
  80:.\Generated_Source\PSoC4/ETH.c **** 
  81:.\Generated_Source\PSoC4/ETH.c **** /**
  82:.\Generated_Source\PSoC4/ETH.c ****  * \def ETH_SOCKET REG(s,r)
  83:.\Generated_Source\PSoC4/ETH.c ****  * \brief Convert the socket number and register to a base address within the W5200
  84:.\Generated_Source\PSoC4/ETH.c ****  */
  85:.\Generated_Source\PSoC4/ETH.c **** #define ETH_SOCKET_REG(s,r)           ( ((uint16)s<<8) + r )
  86:.\Generated_Source\PSoC4/ETH.c **** 
  87:.\Generated_Source\PSoC4/ETH.c **** #else
  88:.\Generated_Source\PSoC4/ETH.c **** 	#error "W5x00 components other than W5100 and W5200 are not currently supported"
  89:.\Generated_Source\PSoC4/ETH.c **** #endif
  90:.\Generated_Source\PSoC4/ETH.c **** 
  91:.\Generated_Source\PSoC4/ETH.c **** ETH_SOCKET ETH_SocketConfig[ETH_MAX_SOCKET];
  92:.\Generated_Source\PSoC4/ETH.c **** uint32 ETH_SubnetMask;
  93:.\Generated_Source\PSoC4/ETH.c **** 
  94:.\Generated_Source\PSoC4/ETH.c **** uint8 ETH_MAC[6]; /* V1.2: removed = {00-de-ad-be-ef-00}; */
  95:.\Generated_Source\PSoC4/ETH.c **** 
  96:.\Generated_Source\PSoC4/ETH.c **** /* ------------------------------------------------------------------------ */
  97:.\Generated_Source\PSoC4/ETH.c **** /* V1.2 HEX digit conversion tools for MAC Address parsing */
  98:.\Generated_Source\PSoC4/ETH.c **** #define ETH_ISXDIGIT(x) \
  99:.\Generated_Source\PSoC4/ETH.c **** ( ((x>='0')&&(x<='9'))||((x>='a')&&(x<='f'))||((x>='A')&&(x<='F')) )
 100:.\Generated_Source\PSoC4/ETH.c **** /* ------------------------------------------------------------------------ */
 101:.\Generated_Source\PSoC4/ETH.c **** #define ETH_HEX2BIN(x) \
 102:.\Generated_Source\PSoC4/ETH.c **** ( ((x>='0')&&(x<='9'))? (x-'0') : \
 103:.\Generated_Source\PSoC4/ETH.c ****   ((x>='a')&&(x<='f'))? ((x-'a')+10) : \
 104:.\Generated_Source\PSoC4/ETH.c ****   ((x>='A')&&(x<='F'))? ((x-'A')+10) : 0 )
 105:.\Generated_Source\PSoC4/ETH.c **** /* ------------------------------------------------------------------------ */
 106:.\Generated_Source\PSoC4/ETH.c **** #define ETH_BIN2HEX(x) \
 107:.\Generated_Source\PSoC4/ETH.c **** ( (x>9)? ((x-10)+'A') : (x + '0'))
 108:.\Generated_Source\PSoC4/ETH.c **** /* END V1.2 defines */
 109:.\Generated_Source\PSoC4/ETH.c **** /* ------------------------------------------------------------------------ */
 110:.\Generated_Source\PSoC4/ETH.c **** 
 111:.\Generated_Source\PSoC4/ETH.c **** /* ------------------------------------------------------------------------ */
 112:.\Generated_Source\PSoC4/ETH.c **** /**
 113:.\Generated_Source\PSoC4/ETH.c ****  * \brief Select the active SCB chip select connected to the W51
 114:.\Generated_Source\PSoC4/ETH.c ****  *
 115:.\Generated_Source\PSoC4/ETH.c ****  * this fucntion will set the active SS line within the SCB to select and
 116:.\Generated_Source\PSoC4/ETH.c ****  * communicate with the W5100 device.
 117:.\Generated_Source\PSoC4/ETH.c ****  * \note this functions requires that the device chip select is originating
 118:.\Generated_Source\PSoC4/ETH.c ****  *  from the SPI device.
 119:.\Generated_Source\PSoC4/ETH.c ****  */
 120:.\Generated_Source\PSoC4/ETH.c **** void
 121:.\Generated_Source\PSoC4/ETH.c **** ETH_ChipSelect( void )
 122:.\Generated_Source\PSoC4/ETH.c **** {
  48              		.loc 1 122 0
  49              		.cfi_startproc
ARM GAS  C:\Users\CHUCK~1.ERH\AppData\Local\Temp\ccSVmyDA.s 			page 4


  50 0000 80B5     		push	{r7, lr}
  51              	.LCFI0:
  52              		.cfi_def_cfa_offset 8
  53              		.cfi_offset 7, -8
  54              		.cfi_offset 14, -4
  55 0002 00AF     		add	r7, sp, #0
  56              	.LCFI1:
  57              		.cfi_def_cfa_register 7
 123:.\Generated_Source\PSoC4/ETH.c **** 	/*
 124:.\Generated_Source\PSoC4/ETH.c **** 	 * User code for setting the chip select enable.  This is called once
 125:.\Generated_Source\PSoC4/ETH.c **** 	 * at the beginning of each tranfer to/from the W5100, so we recommend
 126:.\Generated_Source\PSoC4/ETH.c **** 	 * either doing nothing (SPIM SS straight out), or to switch the demux
 127:.\Generated_Source\PSoC4/ETH.c **** 	 * component to select the correct output for the SS routing.  This
 128:.\Generated_Source\PSoC4/ETH.c **** 	 * should probably not drive a pin directly since there is no return
 129:.\Generated_Source\PSoC4/ETH.c **** 	 * call from the driver that would allow an enable/disable type of
 130:.\Generated_Source\PSoC4/ETH.c **** 	 * implementation for CSN control.
 131:.\Generated_Source\PSoC4/ETH.c **** 	 */
 132:.\Generated_Source\PSoC4/ETH.c **** 	SSCR_Write( ~(1<<0) );
  58              		.loc 1 132 0
  59 0004 FE20     		mov	r0, #254
  60 0006 FFF7FEFF 		bl	SSCR_Write
 133:.\Generated_Source\PSoC4/ETH.c **** 	/* `#START CHIP_SELECT_GENERATION` */
 134:.\Generated_Source\PSoC4/ETH.c **** 
 135:.\Generated_Source\PSoC4/ETH.c **** 	/* `#END` */
 136:.\Generated_Source\PSoC4/ETH.c **** }
  61              		.loc 1 136 0
  62 000a BD46     		mov	sp, r7
  63              		@ sp needed for prologue
  64 000c 80BD     		pop	{r7, pc}
  65              		.cfi_endproc
  66              	.LFE0:
  67              		.size	ETH_ChipSelect, .-ETH_ChipSelect
  68 000e C046     		.section	.text.ETH_ChipDeSelect,"ax",%progbits
  69              		.align	2
  70              		.global	ETH_ChipDeSelect
  71              		.code	16
  72              		.thumb_func
  73              		.type	ETH_ChipDeSelect, %function
  74              	ETH_ChipDeSelect:
  75              	.LFB1:
 137:.\Generated_Source\PSoC4/ETH.c **** /* ------------------------------------------------------------------------ */
 138:.\Generated_Source\PSoC4/ETH.c **** /**
 139:.\Generated_Source\PSoC4/ETH.c ****  * \brief Called at the end of a transfer to deselect the device
 140:.\Generated_Source\PSoC4/ETH.c ****  *
 141:.\Generated_Source\PSoC4/ETH.c ****  * This function is called by the chip access functions from the core
 142:.\Generated_Source\PSoC4/ETH.c ****  * interface code to de-select the device after the read/write operation
 143:.\Generated_Source\PSoC4/ETH.c ****  * has been completed. This was changed from the "old way" of doing things
 144:.\Generated_Source\PSoC4/ETH.c ****  * using the hardware SS pin because the FIFO will empty too quickly
 145:.\Generated_Source\PSoC4/ETH.c ****  * causing interruptions in the transfer during burst writes at high
 146:.\Generated_Source\PSoC4/ETH.c ****  * speed. This allows bursting without having to have a huge software
 147:.\Generated_Source\PSoC4/ETH.c ****  * FIFO and using DMA to keep the buffer loaded.
 148:.\Generated_Source\PSoC4/ETH.c ****  */
 149:.\Generated_Source\PSoC4/ETH.c **** void
 150:.\Generated_Source\PSoC4/ETH.c **** ETH_ChipDeSelect( void )
 151:.\Generated_Source\PSoC4/ETH.c **** {
  76              		.loc 1 151 0
  77              		.cfi_startproc
ARM GAS  C:\Users\CHUCK~1.ERH\AppData\Local\Temp\ccSVmyDA.s 			page 5


  78 0000 80B5     		push	{r7, lr}
  79              	.LCFI2:
  80              		.cfi_def_cfa_offset 8
  81              		.cfi_offset 7, -8
  82              		.cfi_offset 14, -4
  83 0002 00AF     		add	r7, sp, #0
  84              	.LCFI3:
  85              		.cfi_def_cfa_register 7
 152:.\Generated_Source\PSoC4/ETH.c **** 	SSCR_Write(0xFF);
  86              		.loc 1 152 0
  87 0004 FF20     		mov	r0, #255
  88 0006 FFF7FEFF 		bl	SSCR_Write
 153:.\Generated_Source\PSoC4/ETH.c **** }
  89              		.loc 1 153 0
  90 000a BD46     		mov	sp, r7
  91              		@ sp needed for prologue
  92 000c 80BD     		pop	{r7, pc}
  93              		.cfi_endproc
  94              	.LFE1:
  95              		.size	ETH_ChipDeSelect, .-ETH_ChipDeSelect
  96 000e C046     		.section	.text.ETH_ChipWrite,"ax",%progbits
  97              		.align	2
  98              		.global	ETH_ChipWrite
  99              		.code	16
 100              		.thumb_func
 101              		.type	ETH_ChipWrite, %function
 102              	ETH_ChipWrite:
 103              	.LFB2:
 154:.\Generated_Source\PSoC4/ETH.c **** 
 155:.\Generated_Source\PSoC4/ETH.c **** /* ======================================================================== */
 156:.\Generated_Source\PSoC4/ETH.c **** /* Generic SPI Functions */
 157:.\Generated_Source\PSoC4/ETH.c **** /*
 158:.\Generated_Source\PSoC4/ETH.c ****  * NOTE: when using the SPIM, there must be a buffer length of at least 4
 159:.\Generated_Source\PSoC4/ETH.c ****  * bytes to allow the transfer/receive cycle for each read/write operation
 160:.\Generated_Source\PSoC4/ETH.c ****  * to be contained within the FIFO buffer.
 161:.\Generated_Source\PSoC4/ETH.c ****  */
 162:.\Generated_Source\PSoC4/ETH.c **** #if !defined(CY_SCB_SPI0_H)
 163:.\Generated_Source\PSoC4/ETH.c **** 	/* SPIM Code */
 164:.\Generated_Source\PSoC4/ETH.c **** /* ------------------------------------------------------------------------ */	
 165:.\Generated_Source\PSoC4/ETH.c **** /* V1.1 : Macro definition for the SpiDone flag. */
 166:.\Generated_Source\PSoC4/ETH.c **** /*  
 167:.\Generated_Source\PSoC4/ETH.c **** 	V1.2 : Added SPI_IDLE flag to the condition for done to eliminate
 168:.\Generated_Source\PSoC4/ETH.c **** 	deadlocking when IDLE but not done.  This seems to occur during the
 169:.\Generated_Source\PSoC4/ETH.c **** 	initial write/read to/from the SPI port.
 170:.\Generated_Source\PSoC4/ETH.c **** */
 171:.\Generated_Source\PSoC4/ETH.c **** /**
 172:.\Generated_Source\PSoC4/ETH.c ****  * \brief Macro to determine the state of the spi done
 173:.\Generated_Source\PSoC4/ETH.c ****  * This macro reads the status register of the transmitter and masks off the doen bit.
 174:.\Generated_Source\PSoC4/ETH.c ****  */
 175:.\Generated_Source\PSoC4/ETH.c **** #define ETH_SpiDone     (SPI0_ReadTxStatus() & (SPI0_STS_SPI_DONE | SPI0_STS_SPI_IDLE))
 176:.\Generated_Source\PSoC4/ETH.c **** /* ------------------------------------------------------------------------ */
 177:.\Generated_Source\PSoC4/ETH.c **** /**
 178:.\Generated_Source\PSoC4/ETH.c ****  * \brief write Data to the W5100 at the specified address
 179:.\Generated_Source\PSoC4/ETH.c ****  * \param addr Address of register or memory buffer
 180:.\Generated_Source\PSoC4/ETH.c ****  * \param dat Data to write to the device
 181:.\Generated_Source\PSoC4/ETH.c ****  *
 182:.\Generated_Source\PSoC4/ETH.c ****  * This function will send the WRITE opcode, address and data to the W5100
ARM GAS  C:\Users\CHUCK~1.ERH\AppData\Local\Temp\ccSVmyDA.s 			page 6


 183:.\Generated_Source\PSoC4/ETH.c ****  * in order to write the data to the specified register.
 184:.\Generated_Source\PSoC4/ETH.c ****  */
 185:.\Generated_Source\PSoC4/ETH.c **** void 
 186:.\Generated_Source\PSoC4/ETH.c **** ETH_ChipWrite(uint16 addr, uint8 *dat, uint16 length)
 187:.\Generated_Source\PSoC4/ETH.c **** {
 104              		.loc 1 187 0
 105              		.cfi_startproc
 106 0000 90B5     		push	{r4, r7, lr}
 107              	.LCFI4:
 108              		.cfi_def_cfa_offset 12
 109              		.cfi_offset 4, -12
 110              		.cfi_offset 7, -8
 111              		.cfi_offset 14, -4
 112 0002 85B0     		sub	sp, sp, #20
 113              	.LCFI5:
 114              		.cfi_def_cfa_offset 32
 115 0004 00AF     		add	r7, sp, #0
 116              	.LCFI6:
 117              		.cfi_def_cfa_register 7
 118 0006 3960     		str	r1, [r7]
 119 0008 BB1D     		add	r3, r7, #6
 120 000a 011C     		add	r1, r0, #0
 121 000c 1980     		strh	r1, [r3]
 122 000e 3B1D     		add	r3, r7, #4
 123 0010 1A80     		strh	r2, [r3]
 188:.\Generated_Source\PSoC4/ETH.c **** 	uint16 txLen;
 189:.\Generated_Source\PSoC4/ETH.c **** 	uint16 txCount;
 190:.\Generated_Source\PSoC4/ETH.c **** 	uint16 adr;
 191:.\Generated_Source\PSoC4/ETH.c **** 	uint8 crit;
 192:.\Generated_Source\PSoC4/ETH.c **** 	
 193:.\Generated_Source\PSoC4/ETH.c **** 	/* V1.1: Wait for SPI operation to complete */
 194:.\Generated_Source\PSoC4/ETH.c **** 	while( ETH_SpiDone == 0) {
 124              		.loc 1 194 0
 125 0012 02E0     		b	.L4
 126              	.L5:
 195:.\Generated_Source\PSoC4/ETH.c **** 		CyDelayUs(1);
 127              		.loc 1 195 0
 128 0014 0120     		mov	r0, #1
 129 0016 FFF7FEFF 		bl	CyDelayUs
 130              	.L4:
 194:.\Generated_Source\PSoC4/ETH.c **** 	while( ETH_SpiDone == 0) {
 131              		.loc 1 194 0 discriminator 1
 132 001a FFF7FEFF 		bl	SPI0_ReadTxStatus
 133 001e 031C     		mov	r3, r0
 134 0020 1A1C     		mov	r2, r3
 135 0022 1123     		mov	r3, #17
 136 0024 1340     		and	r3, r2
 137 0026 F5D0     		beq	.L5
 196:.\Generated_Source\PSoC4/ETH.c **** 	}
 197:.\Generated_Source\PSoC4/ETH.c **** 	/* V1.1: End change */
 198:.\Generated_Source\PSoC4/ETH.c **** 	
 199:.\Generated_Source\PSoC4/ETH.c **** 	crit = CyEnterCriticalSection();
 138              		.loc 1 199 0
 139 0028 3C1C     		mov	r4, r7
 140 002a 0934     		add	r4, r4, #9
 141 002c FFF7FEFF 		bl	CyEnterCriticalSection
 142 0030 031C     		mov	r3, r0
ARM GAS  C:\Users\CHUCK~1.ERH\AppData\Local\Temp\ccSVmyDA.s 			page 7


 143 0032 2370     		strb	r3, [r4]
 200:.\Generated_Source\PSoC4/ETH.c **** 	
 201:.\Generated_Source\PSoC4/ETH.c **** 	adr = addr;
 144              		.loc 1 201 0
 145 0034 3B1C     		mov	r3, r7
 146 0036 0A33     		add	r3, r3, #10
 147 0038 BA1D     		add	r2, r7, #6
 148 003a 1288     		ldrh	r2, [r2]
 149 003c 1A80     		strh	r2, [r3]
 202:.\Generated_Source\PSoC4/ETH.c **** 	txLen = 0;
 150              		.loc 1 202 0
 151 003e 3B1C     		mov	r3, r7
 152 0040 0E33     		add	r3, r3, #14
 153 0042 0022     		mov	r2, #0
 154 0044 1A80     		strh	r2, [r3]
 203:.\Generated_Source\PSoC4/ETH.c **** 	txCount = 0;
 155              		.loc 1 203 0
 156 0046 3B1C     		mov	r3, r7
 157 0048 0C33     		add	r3, r3, #12
 158 004a 0022     		mov	r2, #0
 159 004c 1A80     		strh	r2, [r3]
 160              	.L10:
 204:.\Generated_Source\PSoC4/ETH.c **** 	do {
 205:.\Generated_Source\PSoC4/ETH.c **** 		/* Using internal device SS generation */
 206:.\Generated_Source\PSoC4/ETH.c **** 		ETH_ChipSelect();
 161              		.loc 1 206 0
 162 004e FFF7FEFF 		bl	ETH_ChipSelect
 207:.\Generated_Source\PSoC4/ETH.c **** 		/*
 208:.\Generated_Source\PSoC4/ETH.c **** 		 * The first thing to do is to clear the Rx Buffer of any lingering
 209:.\Generated_Source\PSoC4/ETH.c **** 		 * data left from other transfers.  Then send the data per the W5100
 210:.\Generated_Source\PSoC4/ETH.c **** 		 * datasheet p.62
 211:.\Generated_Source\PSoC4/ETH.c **** 		 */
 212:.\Generated_Source\PSoC4/ETH.c **** 		SPI0_ClearRxBuffer();
 163              		.loc 1 212 0
 164 0052 FFF7FEFF 		bl	SPI0_ClearRxBuffer
 213:.\Generated_Source\PSoC4/ETH.c **** 		/* Begin transfer of data to device */
 214:.\Generated_Source\PSoC4/ETH.c **** #if (1 == 1)
 215:.\Generated_Source\PSoC4/ETH.c **** 		/*
 216:.\Generated_Source\PSoC4/ETH.c **** 	     * The W5100 uses an opcode followed by the register/buffer
 217:.\Generated_Source\PSoC4/ETH.c **** 	     * address for each data element transfered.
 218:.\Generated_Source\PSoC4/ETH.c **** 	     */
 219:.\Generated_Source\PSoC4/ETH.c **** 		SPI0_WriteTxData(ETH_WRITE_OP);
 165              		.loc 1 219 0
 166 0056 F020     		mov	r0, #240
 167 0058 FFF7FEFF 		bl	SPI0_WriteTxData
 220:.\Generated_Source\PSoC4/ETH.c **** 		SPI0_WriteTxData((adr>>8)&0x00FF);
 168              		.loc 1 220 0
 169 005c 3B1C     		mov	r3, r7
 170 005e 0A33     		add	r3, r3, #10
 171 0060 1B88     		ldrh	r3, [r3]
 172 0062 1B0A     		lsr	r3, r3, #8
 173 0064 9BB2     		uxth	r3, r3
 174 0066 DBB2     		uxtb	r3, r3
 175 0068 181C     		mov	r0, r3
 176 006a FFF7FEFF 		bl	SPI0_WriteTxData
 221:.\Generated_Source\PSoC4/ETH.c **** 		SPI0_WriteTxData(adr&0x00FF);
 177              		.loc 1 221 0
ARM GAS  C:\Users\CHUCK~1.ERH\AppData\Local\Temp\ccSVmyDA.s 			page 8


 178 006e 3B1C     		mov	r3, r7
 179 0070 0A33     		add	r3, r3, #10
 180 0072 1B88     		ldrh	r3, [r3]
 181 0074 DBB2     		uxtb	r3, r3
 182 0076 181C     		mov	r0, r3
 183 0078 FFF7FEFF 		bl	SPI0_WriteTxData
 222:.\Generated_Source\PSoC4/ETH.c **** 		txLen = 1;
 184              		.loc 1 222 0
 185 007c 3B1C     		mov	r3, r7
 186 007e 0E33     		add	r3, r3, #14
 187 0080 0122     		mov	r2, #1
 188 0082 1A80     		strh	r2, [r3]
 189              	.L11:
 223:.\Generated_Source\PSoC4/ETH.c **** #elif (1 == 2)
 224:.\Generated_Source\PSoC4/ETH.c **** 	    /*
 225:.\Generated_Source\PSoC4/ETH.c **** 	     * The Header block for the W5200 uses the address, plus
 226:.\Generated_Source\PSoC4/ETH.c **** 	     * a length word which contains a read/write bit.  Setting
 227:.\Generated_Source\PSoC4/ETH.c **** 	     * the bit to a 1 (0x80) will enable write mode
 228:.\Generated_Source\PSoC4/ETH.c **** 	     */
 229:.\Generated_Source\PSoC4/ETH.c **** 		SPI0_WriteTxData( (adr>>8) & 0x00FF);
 230:.\Generated_Source\PSoC4/ETH.c **** 		SPI0_WriteTxData( adr & 0x00FF );
 231:.\Generated_Source\PSoC4/ETH.c **** 		txLen = (length > ETH_BURST_MAX)? ETH_BURST_MAX : length;
 232:.\Generated_Source\PSoC4/ETH.c **** 		SPI0_WriteTxData( 0x80 | ((txLen>>8)&0x007F) );
 233:.\Generated_Source\PSoC4/ETH.c **** 		SPI0_WriteTxData( txLen & 0x00FF );
 234:.\Generated_Source\PSoC4/ETH.c **** #endif
 235:.\Generated_Source\PSoC4/ETH.c **** 		/*
 236:.\Generated_Source\PSoC4/ETH.c ****          * send the sequence of bytes to the device following the 
 237:.\Generated_Source\PSoC4/ETH.c ****          * header data transfer.  This will wait for the FIFO to  have
 238:.\Generated_Source\PSoC4/ETH.c ****          * available memory prior to writing the data to the part.
 239:.\Generated_Source\PSoC4/ETH.c ****          * at the end of the block the loop exits and ends the operation
 240:.\Generated_Source\PSoC4/ETH.c ****          * by setting the chip select high.
 241:.\Generated_Source\PSoC4/ETH.c ****          */
 242:.\Generated_Source\PSoC4/ETH.c **** 		// Transmit data block
 243:.\Generated_Source\PSoC4/ETH.c **** 		do {
 244:.\Generated_Source\PSoC4/ETH.c **** 			while ( (SPI0_ReadTxStatus() & SPI0_STS_TX_FIFO_NOT_FULL) == 0);
 190              		.loc 1 244 0
 191 0084 C046     		mov	r8, r8
 192              	.L6:
 193              		.loc 1 244 0 is_stmt 0 discriminator 1
 194 0086 FFF7FEFF 		bl	SPI0_ReadTxStatus
 195 008a 031C     		mov	r3, r0
 196 008c 1A1C     		mov	r2, r3
 197 008e 0423     		mov	r3, #4
 198 0090 1340     		and	r3, r2
 199 0092 F8D0     		beq	.L6
 245:.\Generated_Source\PSoC4/ETH.c **** 			SPI0_WriteTxData(dat[txCount++]);
 200              		.loc 1 245 0 is_stmt 1
 201 0094 3B1C     		mov	r3, r7
 202 0096 0C33     		add	r3, r3, #12
 203 0098 1B88     		ldrh	r3, [r3]
 204 009a 3A68     		ldr	r2, [r7]
 205 009c D318     		add	r3, r2, r3
 206 009e 1B78     		ldrb	r3, [r3]
 207 00a0 3A1C     		mov	r2, r7
 208 00a2 0C32     		add	r2, r2, #12
 209 00a4 391C     		mov	r1, r7
 210 00a6 0C31     		add	r1, r1, #12
ARM GAS  C:\Users\CHUCK~1.ERH\AppData\Local\Temp\ccSVmyDA.s 			page 9


 211 00a8 0988     		ldrh	r1, [r1]
 212 00aa 0131     		add	r1, r1, #1
 213 00ac 1180     		strh	r1, [r2]
 214 00ae 181C     		mov	r0, r3
 215 00b0 FFF7FEFF 		bl	SPI0_WriteTxData
 246:.\Generated_Source\PSoC4/ETH.c **** 			--length;
 216              		.loc 1 246 0
 217 00b4 3B1D     		add	r3, r7, #4
 218 00b6 3A1D     		add	r2, r7, #4
 219 00b8 1288     		ldrh	r2, [r2]
 220 00ba 013A     		sub	r2, r2, #1
 221 00bc 1A80     		strh	r2, [r3]
 247:.\Generated_Source\PSoC4/ETH.c **** 			--txLen;
 222              		.loc 1 247 0
 223 00be 3B1C     		mov	r3, r7
 224 00c0 0E33     		add	r3, r3, #14
 225 00c2 3A1C     		mov	r2, r7
 226 00c4 0E32     		add	r2, r2, #14
 227 00c6 1288     		ldrh	r2, [r2]
 228 00c8 013A     		sub	r2, r2, #1
 229 00ca 1A80     		strh	r2, [r3]
 248:.\Generated_Source\PSoC4/ETH.c **** 			++adr;
 230              		.loc 1 248 0
 231 00cc 3B1C     		mov	r3, r7
 232 00ce 0A33     		add	r3, r3, #10
 233 00d0 3A1C     		mov	r2, r7
 234 00d2 0A32     		add	r2, r2, #10
 235 00d4 1288     		ldrh	r2, [r2]
 236 00d6 0132     		add	r2, r2, #1
 237 00d8 1A80     		strh	r2, [r3]
 249:.\Generated_Source\PSoC4/ETH.c **** 		} while ( txLen > 0 );
 238              		.loc 1 249 0
 239 00da 3B1C     		mov	r3, r7
 240 00dc 0E33     		add	r3, r3, #14
 241 00de 1B88     		ldrh	r3, [r3]
 242 00e0 002B     		cmp	r3, #0
 243 00e2 CFD1     		bne	.L11
 250:.\Generated_Source\PSoC4/ETH.c **** 
 251:.\Generated_Source\PSoC4/ETH.c **** 		while( ETH_SpiDone == 0) {
 244              		.loc 1 251 0
 245 00e4 02E0     		b	.L8
 246              	.L9:
 252:.\Generated_Source\PSoC4/ETH.c **** 			CyDelayUs(1);
 247              		.loc 1 252 0
 248 00e6 0120     		mov	r0, #1
 249 00e8 FFF7FEFF 		bl	CyDelayUs
 250              	.L8:
 251:.\Generated_Source\PSoC4/ETH.c **** 		while( ETH_SpiDone == 0) {
 251              		.loc 1 251 0 discriminator 1
 252 00ec FFF7FEFF 		bl	SPI0_ReadTxStatus
 253 00f0 031C     		mov	r3, r0
 254 00f2 1A1C     		mov	r2, r3
 255 00f4 1123     		mov	r3, #17
 256 00f6 1340     		and	r3, r2
 257 00f8 F5D0     		beq	.L9
 253:.\Generated_Source\PSoC4/ETH.c **** 		}
 254:.\Generated_Source\PSoC4/ETH.c **** 		// End operation
ARM GAS  C:\Users\CHUCK~1.ERH\AppData\Local\Temp\ccSVmyDA.s 			page 10


 255:.\Generated_Source\PSoC4/ETH.c **** 		ETH_ChipDeSelect();
 258              		.loc 1 255 0
 259 00fa FFF7FEFF 		bl	ETH_ChipDeSelect
 256:.\Generated_Source\PSoC4/ETH.c **** 	} while (length > 0);
 260              		.loc 1 256 0
 261 00fe 3B1D     		add	r3, r7, #4
 262 0100 1B88     		ldrh	r3, [r3]
 263 0102 002B     		cmp	r3, #0
 264 0104 A3D1     		bne	.L10
 257:.\Generated_Source\PSoC4/ETH.c **** 	
 258:.\Generated_Source\PSoC4/ETH.c **** 	CyExitCriticalSection( crit );
 265              		.loc 1 258 0
 266 0106 3B1C     		mov	r3, r7
 267 0108 0933     		add	r3, r3, #9
 268 010a 1B78     		ldrb	r3, [r3]
 269 010c 181C     		mov	r0, r3
 270 010e FFF7FEFF 		bl	CyExitCriticalSection
 259:.\Generated_Source\PSoC4/ETH.c **** }
 271              		.loc 1 259 0
 272 0112 BD46     		mov	sp, r7
 273 0114 05B0     		add	sp, sp, #20
 274              		@ sp needed for prologue
 275 0116 90BD     		pop	{r4, r7, pc}
 276              		.cfi_endproc
 277              	.LFE2:
 278              		.size	ETH_ChipWrite, .-ETH_ChipWrite
 279              		.section	.text.ETH_ChipRead,"ax",%progbits
 280              		.align	2
 281              		.global	ETH_ChipRead
 282              		.code	16
 283              		.thumb_func
 284              		.type	ETH_ChipRead, %function
 285              	ETH_ChipRead:
 286              	.LFB3:
 260:.\Generated_Source\PSoC4/ETH.c **** 
 261:.\Generated_Source\PSoC4/ETH.c **** /* ------------------------------------------------------------------------ */
 262:.\Generated_Source\PSoC4/ETH.c **** /**
 263:.\Generated_Source\PSoC4/ETH.c ****  * \brief Read data from the W5100 at the spsecified address
 264:.\Generated_Source\PSoC4/ETH.c ****  * \param addr Address from which to read
 265:.\Generated_Source\PSoC4/ETH.c ****  * \returns the data read from the address
 266:.\Generated_Source\PSoC4/ETH.c ****  *
 267:.\Generated_Source\PSoC4/ETH.c ****  * this fucntion will access a W5100 memory location and read the contents
 268:.\Generated_Source\PSoC4/ETH.c ****  * using the serial protocol specified on P.61 of the datasheet.
 269:.\Generated_Source\PSoC4/ETH.c ****  */
 270:.\Generated_Source\PSoC4/ETH.c **** void
 271:.\Generated_Source\PSoC4/ETH.c **** ETH_ChipRead(uint16 addr, uint8 *dat, uint16 length)
 272:.\Generated_Source\PSoC4/ETH.c **** {
 287              		.loc 1 272 0
 288              		.cfi_startproc
 289 0000 90B5     		push	{r4, r7, lr}
 290              	.LCFI7:
 291              		.cfi_def_cfa_offset 12
 292              		.cfi_offset 4, -12
 293              		.cfi_offset 7, -8
 294              		.cfi_offset 14, -4
 295 0002 87B0     		sub	sp, sp, #28
 296              	.LCFI8:
ARM GAS  C:\Users\CHUCK~1.ERH\AppData\Local\Temp\ccSVmyDA.s 			page 11


 297              		.cfi_def_cfa_offset 40
 298 0004 00AF     		add	r7, sp, #0
 299              	.LCFI9:
 300              		.cfi_def_cfa_register 7
 301 0006 3960     		str	r1, [r7]
 302 0008 BB1D     		add	r3, r7, #6
 303 000a 011C     		add	r1, r0, #0
 304 000c 1980     		strh	r1, [r3]
 305 000e 3B1D     		add	r3, r7, #4
 306 0010 1A80     		strh	r2, [r3]
 273:.\Generated_Source\PSoC4/ETH.c **** 	uint16 rxIndex;
 274:.\Generated_Source\PSoC4/ETH.c **** 	uint16 address;
 275:.\Generated_Source\PSoC4/ETH.c **** 	uint16 rxLen;
 276:.\Generated_Source\PSoC4/ETH.c **** 	uint16 txBytes;
 277:.\Generated_Source\PSoC4/ETH.c **** 	uint8 dump; // the number of bytes to ignore from the data stream readback
 278:.\Generated_Source\PSoC4/ETH.c **** 	uint16 rxCount;
 279:.\Generated_Source\PSoC4/ETH.c **** 	uint8 rxb;
 280:.\Generated_Source\PSoC4/ETH.c **** 	
 281:.\Generated_Source\PSoC4/ETH.c **** 	/* V1.1: Wait for SPI operation to complete */
 282:.\Generated_Source\PSoC4/ETH.c **** 	while( ETH_SpiDone == 0) {
 307              		.loc 1 282 0
 308 0012 02E0     		b	.L13
 309              	.L14:
 283:.\Generated_Source\PSoC4/ETH.c **** 		CyDelayUs(1);
 310              		.loc 1 283 0
 311 0014 0120     		mov	r0, #1
 312 0016 FFF7FEFF 		bl	CyDelayUs
 313              	.L13:
 282:.\Generated_Source\PSoC4/ETH.c **** 	while( ETH_SpiDone == 0) {
 314              		.loc 1 282 0 discriminator 1
 315 001a FFF7FEFF 		bl	SPI0_ReadTxStatus
 316 001e 031C     		mov	r3, r0
 317 0020 1A1C     		mov	r2, r3
 318 0022 1123     		mov	r3, #17
 319 0024 1340     		and	r3, r2
 320 0026 F5D0     		beq	.L14
 284:.\Generated_Source\PSoC4/ETH.c **** 	}
 285:.\Generated_Source\PSoC4/ETH.c **** 	/* V1.1: End change */
 286:.\Generated_Source\PSoC4/ETH.c **** 
 287:.\Generated_Source\PSoC4/ETH.c **** 	address = addr; // assign base pointer address
 321              		.loc 1 287 0
 322 0028 3B1C     		mov	r3, r7
 323 002a 1433     		add	r3, r3, #20
 324 002c BA1D     		add	r2, r7, #6
 325 002e 1288     		ldrh	r2, [r2]
 326 0030 1A80     		strh	r2, [r3]
 288:.\Generated_Source\PSoC4/ETH.c **** 	rxIndex = 0;    // default the starting index for the receive to zero
 327              		.loc 1 288 0
 328 0032 3B1C     		mov	r3, r7
 329 0034 1633     		add	r3, r3, #22
 330 0036 0022     		mov	r2, #0
 331 0038 1A80     		strh	r2, [r3]
 332              	.L19:
 289:.\Generated_Source\PSoC4/ETH.c **** 	
 290:.\Generated_Source\PSoC4/ETH.c **** 	do {
 291:.\Generated_Source\PSoC4/ETH.c **** 		/* Write the chip select instance to select the device */
 292:.\Generated_Source\PSoC4/ETH.c **** 		ETH_ChipSelect();
ARM GAS  C:\Users\CHUCK~1.ERH\AppData\Local\Temp\ccSVmyDA.s 			page 12


 333              		.loc 1 292 0
 334 003a FFF7FEFF 		bl	ETH_ChipSelect
 293:.\Generated_Source\PSoC4/ETH.c **** 		/*
 294:.\Generated_Source\PSoC4/ETH.c **** 		 * First, clear the Rx Buffer of any waiting data.  Then begin the
 295:.\Generated_Source\PSoC4/ETH.c **** 		 * read operation by sending the op code, followed byte the address
 296:.\Generated_Source\PSoC4/ETH.c **** 		 * from which the read will be executed, then send a dummy byte
 297:.\Generated_Source\PSoC4/ETH.c **** 		 * of zeros to read the data from the device.
 298:.\Generated_Source\PSoC4/ETH.c **** 		 */
 299:.\Generated_Source\PSoC4/ETH.c **** 		SPI0_ClearRxBuffer();
 335              		.loc 1 299 0
 336 003e FFF7FEFF 		bl	SPI0_ClearRxBuffer
 300:.\Generated_Source\PSoC4/ETH.c **** 		/* Send the device header */
 301:.\Generated_Source\PSoC4/ETH.c **** 		rxCount = 0; // initialize the bytes received to none
 337              		.loc 1 301 0
 338 0042 3B1C     		mov	r3, r7
 339 0044 0E33     		add	r3, r3, #14
 340 0046 0022     		mov	r2, #0
 341 0048 1A80     		strh	r2, [r3]
 302:.\Generated_Source\PSoC4/ETH.c **** #if (1 == 1 )
 303:.\Generated_Source\PSoC4/ETH.c **** 		/*
 304:.\Generated_Source\PSoC4/ETH.c **** 		 * W1100 interface code
 305:.\Generated_Source\PSoC4/ETH.c **** 		 * --------------------
 306:.\Generated_Source\PSoC4/ETH.c **** 		 * The W5100 only supports 1 byte transfers (no burst mode), so
 307:.\Generated_Source\PSoC4/ETH.c **** 		 * peg the receive length as 1 byte, and issue a number of commands
 308:.\Generated_Source\PSoC4/ETH.c **** 		 * in sequence to simulate a burst read.
 309:.\Generated_Source\PSoC4/ETH.c **** 		 */
 310:.\Generated_Source\PSoC4/ETH.c **** 		rxLen = 1;  // The W5100 is limited to 1 byte of data transmitted
 342              		.loc 1 310 0
 343 004a 3B1C     		mov	r3, r7
 344 004c 0C33     		add	r3, r3, #12
 345 004e 0122     		mov	r2, #1
 346 0050 1A80     		strh	r2, [r3]
 311:.\Generated_Source\PSoC4/ETH.c **** 		dump = 3;   // The W5100 has a 3-byte packet header
 347              		.loc 1 311 0
 348 0052 3B1C     		mov	r3, r7
 349 0054 1133     		add	r3, r3, #17
 350 0056 0322     		mov	r2, #3
 351 0058 1A70     		strb	r2, [r3]
 312:.\Generated_Source\PSoC4/ETH.c **** 		txBytes = 0; // Send only one byte afte rthe header then end the transfer
 352              		.loc 1 312 0
 353 005a 3B1C     		mov	r3, r7
 354 005c 1233     		add	r3, r3, #18
 355 005e 0022     		mov	r2, #0
 356 0060 1A80     		strh	r2, [r3]
 313:.\Generated_Source\PSoC4/ETH.c **** 		SPI0_WriteTxData(ETH_READ_OP);
 357              		.loc 1 313 0
 358 0062 0F20     		mov	r0, #15
 359 0064 FFF7FEFF 		bl	SPI0_WriteTxData
 314:.\Generated_Source\PSoC4/ETH.c **** 		SPI0_WriteTxData(address>>8);
 360              		.loc 1 314 0
 361 0068 3B1C     		mov	r3, r7
 362 006a 1433     		add	r3, r3, #20
 363 006c 1B88     		ldrh	r3, [r3]
 364 006e 1B0A     		lsr	r3, r3, #8
 365 0070 9BB2     		uxth	r3, r3
 366 0072 DBB2     		uxtb	r3, r3
 367 0074 181C     		mov	r0, r3
ARM GAS  C:\Users\CHUCK~1.ERH\AppData\Local\Temp\ccSVmyDA.s 			page 13


 368 0076 FFF7FEFF 		bl	SPI0_WriteTxData
 315:.\Generated_Source\PSoC4/ETH.c **** 		SPI0_WriteTxData(address&0x00FF);
 369              		.loc 1 315 0
 370 007a 3B1C     		mov	r3, r7
 371 007c 1433     		add	r3, r3, #20
 372 007e 1B88     		ldrh	r3, [r3]
 373 0080 DBB2     		uxtb	r3, r3
 374 0082 181C     		mov	r0, r3
 375 0084 FFF7FEFF 		bl	SPI0_WriteTxData
 316:.\Generated_Source\PSoC4/ETH.c **** 		
 317:.\Generated_Source\PSoC4/ETH.c **** #elif (1 == 2)
 318:.\Generated_Source\PSoC4/ETH.c **** 		/*
 319:.\Generated_Source\PSoC4/ETH.c **** 		 * W5200 Interface Header
 320:.\Generated_Source\PSoC4/ETH.c **** 		 * ----------------------
 321:.\Generated_Source\PSoC4/ETH.c **** 		 * The W5200 protocol expects an address followed by a read
 322:.\Generated_Source\PSoC4/ETH.c **** 		 * byte count for the header of the protocol, so, this will
 323:.\Generated_Source\PSoC4/ETH.c **** 		 * issue reads up to the max burst length
 324:.\Generated_Source\PSoC4/ETH.c **** 		 */
 325:.\Generated_Source\PSoC4/ETH.c **** 		dump = 4; /*  The W5200 has a definded data length and a header of 4 bytes */
 326:.\Generated_Source\PSoC4/ETH.c **** 		rxLen = (length < ETH_BURST_MAX) ? length : ETH_BURST_MAX;
 327:.\Generated_Source\PSoC4/ETH.c **** 		/* 
 328:.\Generated_Source\PSoC4/ETH.c **** 		 * Set the number of bytes to transmit before
 329:.\Generated_Source\PSoC4/ETH.c **** 		 * ending the packet to the calculated value
 330:.\Generated_Source\PSoC4/ETH.c **** 		 */
 331:.\Generated_Source\PSoC4/ETH.c **** 		txBytes = 0; 
 332:.\Generated_Source\PSoC4/ETH.c **** 		/* Send the packet header */
 333:.\Generated_Source\PSoC4/ETH.c **** 		SPI0_WriteTxData( address>>8);
 334:.\Generated_Source\PSoC4/ETH.c **** 		SPI0_WriteTxData( address & 0x00FF );
 335:.\Generated_Source\PSoC4/ETH.c **** 		SPI0_WriteTxData( 0x7F & (rxLen>>8) );
 336:.\Generated_Source\PSoC4/ETH.c **** 		SPI0_WriteTxData( rxLen&0x00FF );
 337:.\Generated_Source\PSoC4/ETH.c **** #endif
 338:.\Generated_Source\PSoC4/ETH.c **** 
 339:.\Generated_Source\PSoC4/ETH.c **** 		while (rxCount < rxLen) {
 376              		.loc 1 339 0
 377 0088 59E0     		b	.L15
 378              	.L18:
 340:.\Generated_Source\PSoC4/ETH.c **** 			/*
 341:.\Generated_Source\PSoC4/ETH.c **** 			 * Since the header is clogging the buffer (and it is inefficient
 342:.\Generated_Source\PSoC4/ETH.c **** 			 * to just clear the header before executing the reads), this loop
 343:.\Generated_Source\PSoC4/ETH.c **** 			 * will transmit the data completely the header size before
 344:.\Generated_Source\PSoC4/ETH.c **** 			 * the data has been read, so, send the data when the rxLength
 345:.\Generated_Source\PSoC4/ETH.c **** 			 * is not zero.
 346:.\Generated_Source\PSoC4/ETH.c **** 			 */
 347:.\Generated_Source\PSoC4/ETH.c **** 			if (txBytes < rxLen ) {
 379              		.loc 1 347 0
 380 008a 3A1C     		mov	r2, r7
 381 008c 1232     		add	r2, r2, #18
 382 008e 3B1C     		mov	r3, r7
 383 0090 0C33     		add	r3, r3, #12
 384 0092 1288     		ldrh	r2, [r2]
 385 0094 1B88     		ldrh	r3, [r3]
 386 0096 9A42     		cmp	r2, r3
 387 0098 15D2     		bcs	.L16
 348:.\Generated_Source\PSoC4/ETH.c **** 				SPI0_WriteTxData( 0 );
 388              		.loc 1 348 0
 389 009a 0020     		mov	r0, #0
 390 009c FFF7FEFF 		bl	SPI0_WriteTxData
ARM GAS  C:\Users\CHUCK~1.ERH\AppData\Local\Temp\ccSVmyDA.s 			page 14


 349:.\Generated_Source\PSoC4/ETH.c **** 				address ++;
 391              		.loc 1 349 0
 392 00a0 3B1C     		mov	r3, r7
 393 00a2 1433     		add	r3, r3, #20
 394 00a4 3A1C     		mov	r2, r7
 395 00a6 1432     		add	r2, r2, #20
 396 00a8 1288     		ldrh	r2, [r2]
 397 00aa 0132     		add	r2, r2, #1
 398 00ac 1A80     		strh	r2, [r3]
 350:.\Generated_Source\PSoC4/ETH.c **** 				length --;
 399              		.loc 1 350 0
 400 00ae 3B1D     		add	r3, r7, #4
 401 00b0 3A1D     		add	r2, r7, #4
 402 00b2 1288     		ldrh	r2, [r2]
 403 00b4 013A     		sub	r2, r2, #1
 404 00b6 1A80     		strh	r2, [r3]
 351:.\Generated_Source\PSoC4/ETH.c **** 				txBytes ++;
 405              		.loc 1 351 0
 406 00b8 3B1C     		mov	r3, r7
 407 00ba 1233     		add	r3, r3, #18
 408 00bc 3A1C     		mov	r2, r7
 409 00be 1232     		add	r2, r2, #18
 410 00c0 1288     		ldrh	r2, [r2]
 411 00c2 0132     		add	r2, r2, #1
 412 00c4 1A80     		strh	r2, [r3]
 413              	.L16:
 352:.\Generated_Source\PSoC4/ETH.c **** 			}
 353:.\Generated_Source\PSoC4/ETH.c **** //			else {
 354:.\Generated_Source\PSoC4/ETH.c **** //				if (ETH_SpiDone != 0) {
 355:.\Generated_Source\PSoC4/ETH.c **** //					ETH_ChipDeSelect();
 356:.\Generated_Source\PSoC4/ETH.c **** //				}
 357:.\Generated_Source\PSoC4/ETH.c **** //			}
 358:.\Generated_Source\PSoC4/ETH.c **** 			/*
 359:.\Generated_Source\PSoC4/ETH.c **** 			 * Read the data from the buffer.  The header data responses
 360:.\Generated_Source\PSoC4/ETH.c **** 			 * are going to be sitting in the buffer, so dump them
 361:.\Generated_Source\PSoC4/ETH.c **** 			 * and just receive the data bock
 362:.\Generated_Source\PSoC4/ETH.c **** 			 */
 363:.\Generated_Source\PSoC4/ETH.c **** 			rxb = SPI0_ReadRxData();
 414              		.loc 1 363 0
 415 00c6 3C1C     		mov	r4, r7
 416 00c8 0B34     		add	r4, r4, #11
 417 00ca FFF7FEFF 		bl	SPI0_ReadRxData
 418 00ce 031C     		mov	r3, r0
 419 00d0 2370     		strb	r3, [r4]
 364:.\Generated_Source\PSoC4/ETH.c **** 			dat[rxIndex] = rxb;
 420              		.loc 1 364 0
 421 00d2 3B1C     		mov	r3, r7
 422 00d4 1633     		add	r3, r3, #22
 423 00d6 1B88     		ldrh	r3, [r3]
 424 00d8 3A68     		ldr	r2, [r7]
 425 00da D318     		add	r3, r2, r3
 426 00dc 3A1C     		mov	r2, r7
 427 00de 0B32     		add	r2, r2, #11
 428 00e0 1278     		ldrb	r2, [r2]
 429 00e2 1A70     		strb	r2, [r3]
 365:.\Generated_Source\PSoC4/ETH.c **** 			if (dump > 0) {
 430              		.loc 1 365 0
ARM GAS  C:\Users\CHUCK~1.ERH\AppData\Local\Temp\ccSVmyDA.s 			page 15


 431 00e4 3B1C     		mov	r3, r7
 432 00e6 1133     		add	r3, r3, #17
 433 00e8 1B78     		ldrb	r3, [r3]
 434 00ea 002B     		cmp	r3, #0
 435 00ec 13D0     		beq	.L17
 366:.\Generated_Source\PSoC4/ETH.c **** 				--dump;
 436              		.loc 1 366 0
 437 00ee 3B1C     		mov	r3, r7
 438 00f0 1133     		add	r3, r3, #17
 439 00f2 3A1C     		mov	r2, r7
 440 00f4 1132     		add	r2, r2, #17
 441 00f6 1278     		ldrb	r2, [r2]
 442 00f8 013A     		sub	r2, r2, #1
 443 00fa 1A70     		strb	r2, [r3]
 444 00fc 3B1C     		mov	r3, r7
 445 00fe 1633     		add	r3, r3, #22
 446 0100 3A1C     		mov	r2, r7
 447 0102 1632     		add	r2, r2, #22
 448 0104 1288     		ldrh	r2, [r2]
 449 0106 1A80     		strh	r2, [r3]
 450 0108 3B1C     		mov	r3, r7
 451 010a 0E33     		add	r3, r3, #14
 452 010c 3A1C     		mov	r2, r7
 453 010e 0E32     		add	r2, r2, #14
 454 0110 1288     		ldrh	r2, [r2]
 455 0112 1A80     		strh	r2, [r3]
 456 0114 13E0     		b	.L15
 457              	.L17:
 367:.\Generated_Source\PSoC4/ETH.c **** 			}
 368:.\Generated_Source\PSoC4/ETH.c **** 			else {
 369:.\Generated_Source\PSoC4/ETH.c **** 				rxCount++;
 458              		.loc 1 369 0
 459 0116 3B1C     		mov	r3, r7
 460 0118 0E33     		add	r3, r3, #14
 461 011a 3A1C     		mov	r2, r7
 462 011c 0E32     		add	r2, r2, #14
 463 011e 1288     		ldrh	r2, [r2]
 464 0120 0132     		add	r2, r2, #1
 465 0122 1A80     		strh	r2, [r3]
 370:.\Generated_Source\PSoC4/ETH.c **** 				rxIndex++;;
 466              		.loc 1 370 0
 467 0124 3B1C     		mov	r3, r7
 468 0126 1633     		add	r3, r3, #22
 469 0128 3A1C     		mov	r2, r7
 470 012a 1632     		add	r2, r2, #22
 471 012c 1288     		ldrh	r2, [r2]
 472 012e 0132     		add	r2, r2, #1
 473 0130 1A80     		strh	r2, [r3]
 474 0132 3B1C     		mov	r3, r7
 475 0134 1133     		add	r3, r3, #17
 476 0136 3A1C     		mov	r2, r7
 477 0138 1132     		add	r2, r2, #17
 478 013a 1278     		ldrb	r2, [r2]
 479 013c 1A70     		strb	r2, [r3]
 480              	.L15:
 339:.\Generated_Source\PSoC4/ETH.c **** 		while (rxCount < rxLen) {
 481              		.loc 1 339 0 discriminator 1
ARM GAS  C:\Users\CHUCK~1.ERH\AppData\Local\Temp\ccSVmyDA.s 			page 16


 482 013e 3A1C     		mov	r2, r7
 483 0140 0E32     		add	r2, r2, #14
 484 0142 3B1C     		mov	r3, r7
 485 0144 0C33     		add	r3, r3, #12
 486 0146 1288     		ldrh	r2, [r2]
 487 0148 1B88     		ldrh	r3, [r3]
 488 014a 9A42     		cmp	r2, r3
 489 014c 9DD3     		bcc	.L18
 371:.\Generated_Source\PSoC4/ETH.c **** 			}
 372:.\Generated_Source\PSoC4/ETH.c **** 		}
 373:.\Generated_Source\PSoC4/ETH.c **** 		ETH_ChipDeSelect();
 490              		.loc 1 373 0
 491 014e FFF7FEFF 		bl	ETH_ChipDeSelect
 374:.\Generated_Source\PSoC4/ETH.c **** 	}
 375:.\Generated_Source\PSoC4/ETH.c **** 	while ( length > 0);
 492              		.loc 1 375 0
 493 0152 3B1D     		add	r3, r7, #4
 494 0154 1B88     		ldrh	r3, [r3]
 495 0156 002B     		cmp	r3, #0
 496 0158 00D0     		beq	.LCB400
 497 015a 6EE7     		b	.L19	@long jump
 498              	.LCB400:
 376:.\Generated_Source\PSoC4/ETH.c **** 	/* Turn off chip select, and set the buffer */
 377:.\Generated_Source\PSoC4/ETH.c **** //	ETH_ChipDeSelect();
 378:.\Generated_Source\PSoC4/ETH.c **** }
 499              		.loc 1 378 0
 500 015c BD46     		mov	sp, r7
 501 015e 07B0     		add	sp, sp, #28
 502              		@ sp needed for prologue
 503 0160 90BD     		pop	{r4, r7, pc}
 504              		.cfi_endproc
 505              	.LFE3:
 506              		.size	ETH_ChipRead, .-ETH_ChipRead
 507 0162 C046     		.section	.text.ETH_ChipWrite16,"ax",%progbits
 508              		.align	2
 509              		.global	ETH_ChipWrite16
 510              		.code	16
 511              		.thumb_func
 512              		.type	ETH_ChipWrite16, %function
 513              	ETH_ChipWrite16:
 514              	.LFB4:
 379:.\Generated_Source\PSoC4/ETH.c **** /* ======================================================================== */
 380:.\Generated_Source\PSoC4/ETH.c **** /* SCB Specific Functions */
 381:.\Generated_Source\PSoC4/ETH.c **** #else
 382:.\Generated_Source\PSoC4/ETH.c **** /* include SPI function header for the SCB */
 383:.\Generated_Source\PSoC4/ETH.c **** #include <SPI0_SPI_UART.h>
 384:.\Generated_Source\PSoC4/ETH.c **** 
 385:.\Generated_Source\PSoC4/ETH.c **** /* V1.1 : Include the header for the select pin used. */
 386:.\Generated_Source\PSoC4/ETH.c **** #define ETH_SpiDone    ((SPI0_SpiUartGetTxBufferSize()==0)?1:0)
 387:.\Generated_Source\PSoC4/ETH.c **** /* ------------------------------------------------------------------------ */
 388:.\Generated_Source\PSoC4/ETH.c **** /* ------------------------------------------------------------------------ */
 389:.\Generated_Source\PSoC4/ETH.c **** /**
 390:.\Generated_Source\PSoC4/ETH.c ****  * \brief write Data to the W5100 at the specified address
 391:.\Generated_Source\PSoC4/ETH.c ****  * \param addr Address of register or memory buffer
 392:.\Generated_Source\PSoC4/ETH.c ****  * \param dat Data to write to the device
 393:.\Generated_Source\PSoC4/ETH.c ****  *
 394:.\Generated_Source\PSoC4/ETH.c ****  * This function will send the WRITE opcode, address and data to the W5100
ARM GAS  C:\Users\CHUCK~1.ERH\AppData\Local\Temp\ccSVmyDA.s 			page 17


 395:.\Generated_Source\PSoC4/ETH.c ****  * in order to write the data to the specified register.
 396:.\Generated_Source\PSoC4/ETH.c ****  */
 397:.\Generated_Source\PSoC4/ETH.c **** void
 398:.\Generated_Source\PSoC4/ETH.c **** ETH_ChipWrite(uint16 addr, uint8 *dat, uint16 length)
 399:.\Generated_Source\PSoC4/ETH.c **** {
 400:.\Generated_Source\PSoC4/ETH.c **** 	/* TBD */
 401:.\Generated_Source\PSoC4/ETH.c **** }
 402:.\Generated_Source\PSoC4/ETH.c **** /* ------------------------------------------------------------------------ */
 403:.\Generated_Source\PSoC4/ETH.c **** /**
 404:.\Generated_Source\PSoC4/ETH.c ****  * \brief Read data from the W5100 at the spsecified address
 405:.\Generated_Source\PSoC4/ETH.c ****  * \param addr Address from which to read
 406:.\Generated_Source\PSoC4/ETH.c ****  * \returns the data read from the address
 407:.\Generated_Source\PSoC4/ETH.c ****  *
 408:.\Generated_Source\PSoC4/ETH.c ****  * this fucntion will access a W5100 memory location and read the contents
 409:.\Generated_Source\PSoC4/ETH.c ****  * using the serial protocol specified on P.61 of the datasheet.
 410:.\Generated_Source\PSoC4/ETH.c ****  */
 411:.\Generated_Source\PSoC4/ETH.c **** void
 412:.\Generated_Source\PSoC4/ETH.c **** ETH_ChipRead(uint16 addr, uint8 *dat, uint16 length)
 413:.\Generated_Source\PSoC4/ETH.c **** {
 414:.\Generated_Source\PSoC4/ETH.c **** 	/* TBD */
 415:.\Generated_Source\PSoC4/ETH.c **** }
 416:.\Generated_Source\PSoC4/ETH.c **** 
 417:.\Generated_Source\PSoC4/ETH.c **** #endif
 418:.\Generated_Source\PSoC4/ETH.c **** 
 419:.\Generated_Source\PSoC4/ETH.c **** /* ======================================================================== */
 420:.\Generated_Source\PSoC4/ETH.c **** /* W5x00 Access Primitaves */
 421:.\Generated_Source\PSoC4/ETH.c **** #if (1)
 422:.\Generated_Source\PSoC4/ETH.c **** /* ------------------------------------------------------------------------ */
 423:.\Generated_Source\PSoC4/ETH.c **** /**
 424:.\Generated_Source\PSoC4/ETH.c ****  * \brief Write a 16-bit word to the device
 425:.\Generated_Source\PSoC4/ETH.c ****  * \param addr the starting address to which the data will be written
 426:.\Generated_Source\PSoC4/ETH.c ****  * \param val the 16-bit value to write
 427:.\Generated_Source\PSoC4/ETH.c ****  */
 428:.\Generated_Source\PSoC4/ETH.c **** void ETH_ChipWrite16( uint16 addr, uint16 val )
 429:.\Generated_Source\PSoC4/ETH.c **** {
 515              		.loc 1 429 0
 516              		.cfi_startproc
 517 0000 80B5     		push	{r7, lr}
 518              	.LCFI10:
 519              		.cfi_def_cfa_offset 8
 520              		.cfi_offset 7, -8
 521              		.cfi_offset 14, -4
 522 0002 84B0     		sub	sp, sp, #16
 523              	.LCFI11:
 524              		.cfi_def_cfa_offset 24
 525 0004 00AF     		add	r7, sp, #0
 526              	.LCFI12:
 527              		.cfi_def_cfa_register 7
 528 0006 0A1C     		mov	r2, r1
 529 0008 BB1D     		add	r3, r7, #6
 530 000a 011C     		add	r1, r0, #0
 531 000c 1980     		strh	r1, [r3]
 532 000e 3B1D     		add	r3, r7, #4
 533 0010 1A80     		strh	r2, [r3]
 430:.\Generated_Source\PSoC4/ETH.c **** 	uint16 bigVal;
 431:.\Generated_Source\PSoC4/ETH.c **** 	
 432:.\Generated_Source\PSoC4/ETH.c **** #if !( CY_PSOC3 ) 
ARM GAS  C:\Users\CHUCK~1.ERH\AppData\Local\Temp\ccSVmyDA.s 			page 18


 433:.\Generated_Source\PSoC4/ETH.c **** 	bigVal = CYSWAP_ENDIAN16( val );
 534              		.loc 1 433 0
 535 0012 3B1D     		add	r3, r7, #4
 536 0014 1B88     		ldrh	r3, [r3]
 537 0016 1B02     		lsl	r3, r3, #8
 538 0018 9AB2     		uxth	r2, r3
 539 001a 3B1D     		add	r3, r7, #4
 540 001c 1B88     		ldrh	r3, [r3]
 541 001e 1B0A     		lsr	r3, r3, #8
 542 0020 9BB2     		uxth	r3, r3
 543 0022 9BB2     		uxth	r3, r3
 544 0024 1343     		orr	r3, r2
 545 0026 9BB2     		uxth	r3, r3
 546 0028 9AB2     		uxth	r2, r3
 547 002a 3B1C     		mov	r3, r7
 548 002c 0E33     		add	r3, r3, #14
 549 002e 1A80     		strh	r2, [r3]
 434:.\Generated_Source\PSoC4/ETH.c **** #else
 435:.\Generated_Source\PSoC4/ETH.c **** 	bigValu = val;
 436:.\Generated_Source\PSoC4/ETH.c **** #endif
 437:.\Generated_Source\PSoC4/ETH.c **** 	ETH_ChipWrite( addr, (uint8*)&bigVal, 2 );
 550              		.loc 1 437 0
 551 0030 BB1D     		add	r3, r7, #6
 552 0032 1A88     		ldrh	r2, [r3]
 553 0034 3B1C     		mov	r3, r7
 554 0036 0E33     		add	r3, r3, #14
 555 0038 101C     		mov	r0, r2
 556 003a 191C     		mov	r1, r3
 557 003c 0222     		mov	r2, #2
 558 003e FFF7FEFF 		bl	ETH_ChipWrite
 438:.\Generated_Source\PSoC4/ETH.c **** }
 559              		.loc 1 438 0
 560 0042 BD46     		mov	sp, r7
 561 0044 04B0     		add	sp, sp, #16
 562              		@ sp needed for prologue
 563 0046 80BD     		pop	{r7, pc}
 564              		.cfi_endproc
 565              	.LFE4:
 566              		.size	ETH_ChipWrite16, .-ETH_ChipWrite16
 567              		.section	.text.ETH_ChipRead16,"ax",%progbits
 568              		.align	2
 569              		.global	ETH_ChipRead16
 570              		.code	16
 571              		.thumb_func
 572              		.type	ETH_ChipRead16, %function
 573              	ETH_ChipRead16:
 574              	.LFB5:
 439:.\Generated_Source\PSoC4/ETH.c **** /* ------------------------------------------------------------------------ */
 440:.\Generated_Source\PSoC4/ETH.c **** /**
 441:.\Generated_Source\PSoC4/ETH.c ****  * \brief Read a 16-bit value from the device
 442:.\Generated_Source\PSoC4/ETH.c ****  * \param addr The starting address from which data will be read
 443:.\Generated_Source\PSoC4/ETH.c ****  * \returns the 16-bit value read from the memory.
 444:.\Generated_Source\PSoC4/ETH.c ****  */
 445:.\Generated_Source\PSoC4/ETH.c **** uint16 ETH_ChipRead16( uint16 addr )
 446:.\Generated_Source\PSoC4/ETH.c **** {
 575              		.loc 1 446 0
 576              		.cfi_startproc
ARM GAS  C:\Users\CHUCK~1.ERH\AppData\Local\Temp\ccSVmyDA.s 			page 19


 577 0000 80B5     		push	{r7, lr}
 578              	.LCFI13:
 579              		.cfi_def_cfa_offset 8
 580              		.cfi_offset 7, -8
 581              		.cfi_offset 14, -4
 582 0002 84B0     		sub	sp, sp, #16
 583              	.LCFI14:
 584              		.cfi_def_cfa_offset 24
 585 0004 00AF     		add	r7, sp, #0
 586              	.LCFI15:
 587              		.cfi_def_cfa_register 7
 588 0006 021C     		mov	r2, r0
 589 0008 BB1D     		add	r3, r7, #6
 590 000a 1A80     		strh	r2, [r3]
 447:.\Generated_Source\PSoC4/ETH.c **** 	uint16 val;
 448:.\Generated_Source\PSoC4/ETH.c **** 	
 449:.\Generated_Source\PSoC4/ETH.c **** 	ETH_ChipRead(addr, (uint8*)&val, 2);
 591              		.loc 1 449 0
 592 000c BB1D     		add	r3, r7, #6
 593 000e 1A88     		ldrh	r2, [r3]
 594 0010 3B1C     		mov	r3, r7
 595 0012 0E33     		add	r3, r3, #14
 596 0014 101C     		mov	r0, r2
 597 0016 191C     		mov	r1, r3
 598 0018 0222     		mov	r2, #2
 599 001a FFF7FEFF 		bl	ETH_ChipRead
 450:.\Generated_Source\PSoC4/ETH.c **** #if !( CY_PSOC3 )
 451:.\Generated_Source\PSoC4/ETH.c **** 	val = CYSWAP_ENDIAN16( val );
 600              		.loc 1 451 0
 601 001e 3B1C     		mov	r3, r7
 602 0020 0E33     		add	r3, r3, #14
 603 0022 1B88     		ldrh	r3, [r3]
 604 0024 1B02     		lsl	r3, r3, #8
 605 0026 9AB2     		uxth	r2, r3
 606 0028 3B1C     		mov	r3, r7
 607 002a 0E33     		add	r3, r3, #14
 608 002c 1B88     		ldrh	r3, [r3]
 609 002e 1B0A     		lsr	r3, r3, #8
 610 0030 9BB2     		uxth	r3, r3
 611 0032 9BB2     		uxth	r3, r3
 612 0034 1343     		orr	r3, r2
 613 0036 9BB2     		uxth	r3, r3
 614 0038 9AB2     		uxth	r2, r3
 615 003a 3B1C     		mov	r3, r7
 616 003c 0E33     		add	r3, r3, #14
 617 003e 1A80     		strh	r2, [r3]
 452:.\Generated_Source\PSoC4/ETH.c **** #endif
 453:.\Generated_Source\PSoC4/ETH.c **** 	
 454:.\Generated_Source\PSoC4/ETH.c **** 	return( val );
 618              		.loc 1 454 0
 619 0040 3B1C     		mov	r3, r7
 620 0042 0E33     		add	r3, r3, #14
 621 0044 1B88     		ldrh	r3, [r3]
 455:.\Generated_Source\PSoC4/ETH.c **** }
 622              		.loc 1 455 0
 623 0046 181C     		mov	r0, r3
 624 0048 BD46     		mov	sp, r7
ARM GAS  C:\Users\CHUCK~1.ERH\AppData\Local\Temp\ccSVmyDA.s 			page 20


 625 004a 04B0     		add	sp, sp, #16
 626              		@ sp needed for prologue
 627 004c 80BD     		pop	{r7, pc}
 628              		.cfi_endproc
 629              	.LFE5:
 630              		.size	ETH_ChipRead16, .-ETH_ChipRead16
 631 004e C046     		.section	.text.ETH_SetSourceMAC,"ax",%progbits
 632              		.align	2
 633              		.global	ETH_SetSourceMAC
 634              		.code	16
 635              		.thumb_func
 636              		.type	ETH_SetSourceMAC, %function
 637              	ETH_SetSourceMAC:
 638              	.LFB6:
 456:.\Generated_Source\PSoC4/ETH.c **** /* ======================================================================== */
 457:.\Generated_Source\PSoC4/ETH.c **** /* END SECTION */
 458:.\Generated_Source\PSoC4/ETH.c **** #endif
 459:.\Generated_Source\PSoC4/ETH.c **** /* ======================================================================== */
 460:.\Generated_Source\PSoC4/ETH.c **** /* Chip Register access */
 461:.\Generated_Source\PSoC4/ETH.c **** #if (1)
 462:.\Generated_Source\PSoC4/ETH.c **** // Common Registers
 463:.\Generated_Source\PSoC4/ETH.c **** /* ------------------------------------------------------------------------ */
 464:.\Generated_Source\PSoC4/ETH.c **** /**
 465:.\Generated_Source\PSoC4/ETH.c ****  * \brief Set teh chip mac address to teh specified address
 466:.\Generated_Source\PSoC4/ETH.c ****  * \param *mac pointer to the array holding the MAC address
 467:.\Generated_Source\PSoC4/ETH.c ****  */
 468:.\Generated_Source\PSoC4/ETH.c **** void ETH_SetSourceMAC( uint8 *mac )
 469:.\Generated_Source\PSoC4/ETH.c **** {
 639              		.loc 1 469 0
 640              		.cfi_startproc
 641 0000 80B5     		push	{r7, lr}
 642              	.LCFI16:
 643              		.cfi_def_cfa_offset 8
 644              		.cfi_offset 7, -8
 645              		.cfi_offset 14, -4
 646 0002 82B0     		sub	sp, sp, #8
 647              	.LCFI17:
 648              		.cfi_def_cfa_offset 16
 649 0004 00AF     		add	r7, sp, #0
 650              	.LCFI18:
 651              		.cfi_def_cfa_register 7
 652 0006 7860     		str	r0, [r7, #4]
 470:.\Generated_Source\PSoC4/ETH.c **** 	ETH_ChipWrite(ETH_REG_SHAR, mac,6 );
 653              		.loc 1 470 0
 654 0008 7B68     		ldr	r3, [r7, #4]
 655 000a 0920     		mov	r0, #9
 656 000c 191C     		mov	r1, r3
 657 000e 0622     		mov	r2, #6
 658 0010 FFF7FEFF 		bl	ETH_ChipWrite
 471:.\Generated_Source\PSoC4/ETH.c **** }
 659              		.loc 1 471 0
 660 0014 BD46     		mov	sp, r7
 661 0016 02B0     		add	sp, sp, #8
 662              		@ sp needed for prologue
 663 0018 80BD     		pop	{r7, pc}
 664              		.cfi_endproc
 665              	.LFE6:
ARM GAS  C:\Users\CHUCK~1.ERH\AppData\Local\Temp\ccSVmyDA.s 			page 21


 666              		.size	ETH_SetSourceMAC, .-ETH_SetSourceMAC
 667 001a C046     		.section	.text.ETH_GetSourceMAC,"ax",%progbits
 668              		.align	2
 669              		.global	ETH_GetSourceMAC
 670              		.code	16
 671              		.thumb_func
 672              		.type	ETH_GetSourceMAC, %function
 673              	ETH_GetSourceMAC:
 674              	.LFB7:
 472:.\Generated_Source\PSoC4/ETH.c **** /* ------------------------------------------------------------------------ */
 473:.\Generated_Source\PSoC4/ETH.c **** /**
 474:.\Generated_Source\PSoC4/ETH.c ****  * \brief Read the chip source MAC address from the MAC registers
 475:.\Generated_Source\PSoC4/ETH.c ****  * \param *mac pointer to the address of the buffer to hold the read MAC address
 476:.\Generated_Source\PSoC4/ETH.c ****  */
 477:.\Generated_Source\PSoC4/ETH.c **** void ETH_GetSourceMAC( uint8 *mac )
 478:.\Generated_Source\PSoC4/ETH.c **** {
 675              		.loc 1 478 0
 676              		.cfi_startproc
 677 0000 80B5     		push	{r7, lr}
 678              	.LCFI19:
 679              		.cfi_def_cfa_offset 8
 680              		.cfi_offset 7, -8
 681              		.cfi_offset 14, -4
 682 0002 82B0     		sub	sp, sp, #8
 683              	.LCFI20:
 684              		.cfi_def_cfa_offset 16
 685 0004 00AF     		add	r7, sp, #0
 686              	.LCFI21:
 687              		.cfi_def_cfa_register 7
 688 0006 7860     		str	r0, [r7, #4]
 479:.\Generated_Source\PSoC4/ETH.c **** 	ETH_ChipRead(ETH_REG_SHAR,mac,6);
 689              		.loc 1 479 0
 690 0008 7B68     		ldr	r3, [r7, #4]
 691 000a 0920     		mov	r0, #9
 692 000c 191C     		mov	r1, r3
 693 000e 0622     		mov	r2, #6
 694 0010 FFF7FEFF 		bl	ETH_ChipRead
 480:.\Generated_Source\PSoC4/ETH.c **** }
 695              		.loc 1 480 0
 696 0014 BD46     		mov	sp, r7
 697 0016 02B0     		add	sp, sp, #8
 698              		@ sp needed for prologue
 699 0018 80BD     		pop	{r7, pc}
 700              		.cfi_endproc
 701              	.LFE7:
 702              		.size	ETH_GetSourceMAC, .-ETH_GetSourceMAC
 703 001a C046     		.section	.text.ETH_SetGatewayAddress,"ax",%progbits
 704              		.align	2
 705              		.global	ETH_SetGatewayAddress
 706              		.code	16
 707              		.thumb_func
 708              		.type	ETH_SetGatewayAddress, %function
 709              	ETH_SetGatewayAddress:
 710              	.LFB8:
 481:.\Generated_Source\PSoC4/ETH.c **** /* ------------------------------------------------------------------------ */
 482:.\Generated_Source\PSoC4/ETH.c **** /**
 483:.\Generated_Source\PSoC4/ETH.c ****  * \brief Set the IPv4 address of the network gateway
ARM GAS  C:\Users\CHUCK~1.ERH\AppData\Local\Temp\ccSVmyDA.s 			page 22


 484:.\Generated_Source\PSoC4/ETH.c ****  * \param ip IP address of the gateway
 485:.\Generated_Source\PSoC4/ETH.c ****  */
 486:.\Generated_Source\PSoC4/ETH.c **** void ETH_SetGatewayAddress(uint32 ip)
 487:.\Generated_Source\PSoC4/ETH.c **** {
 711              		.loc 1 487 0
 712              		.cfi_startproc
 713 0000 80B5     		push	{r7, lr}
 714              	.LCFI22:
 715              		.cfi_def_cfa_offset 8
 716              		.cfi_offset 7, -8
 717              		.cfi_offset 14, -4
 718 0002 82B0     		sub	sp, sp, #8
 719              	.LCFI23:
 720              		.cfi_def_cfa_offset 16
 721 0004 00AF     		add	r7, sp, #0
 722              	.LCFI24:
 723              		.cfi_def_cfa_register 7
 724 0006 7860     		str	r0, [r7, #4]
 488:.\Generated_Source\PSoC4/ETH.c **** 	ETH_ChipWrite(ETH_REG_GAR, (uint8*)&(ip),4);
 725              		.loc 1 488 0
 726 0008 3B1D     		add	r3, r7, #4
 727 000a 0120     		mov	r0, #1
 728 000c 191C     		mov	r1, r3
 729 000e 0422     		mov	r2, #4
 730 0010 FFF7FEFF 		bl	ETH_ChipWrite
 489:.\Generated_Source\PSoC4/ETH.c **** }
 731              		.loc 1 489 0
 732 0014 BD46     		mov	sp, r7
 733 0016 02B0     		add	sp, sp, #8
 734              		@ sp needed for prologue
 735 0018 80BD     		pop	{r7, pc}
 736              		.cfi_endproc
 737              	.LFE8:
 738              		.size	ETH_SetGatewayAddress, .-ETH_SetGatewayAddress
 739 001a C046     		.section	.text.ETH_GetGatewayAddress,"ax",%progbits
 740              		.align	2
 741              		.global	ETH_GetGatewayAddress
 742              		.code	16
 743              		.thumb_func
 744              		.type	ETH_GetGatewayAddress, %function
 745              	ETH_GetGatewayAddress:
 746              	.LFB9:
 490:.\Generated_Source\PSoC4/ETH.c **** /* ------------------------------------------------------------------------ */
 491:.\Generated_Source\PSoC4/ETH.c **** /**
 492:.\Generated_Source\PSoC4/ETH.c ****  * \brief Read the gateway address from the device
 493:.\Generated_Source\PSoC4/ETH.c ****  * \returns the IP address of the gateway
 494:.\Generated_Source\PSoC4/ETH.c ****  */
 495:.\Generated_Source\PSoC4/ETH.c **** uint32 ETH_GetGatewayAddress( void )
 496:.\Generated_Source\PSoC4/ETH.c **** {
 747              		.loc 1 496 0
 748              		.cfi_startproc
 749 0000 80B5     		push	{r7, lr}
 750              	.LCFI25:
 751              		.cfi_def_cfa_offset 8
 752              		.cfi_offset 7, -8
 753              		.cfi_offset 14, -4
 754 0002 82B0     		sub	sp, sp, #8
ARM GAS  C:\Users\CHUCK~1.ERH\AppData\Local\Temp\ccSVmyDA.s 			page 23


 755              	.LCFI26:
 756              		.cfi_def_cfa_offset 16
 757 0004 00AF     		add	r7, sp, #0
 758              	.LCFI27:
 759              		.cfi_def_cfa_register 7
 497:.\Generated_Source\PSoC4/ETH.c **** 	uint32 ip = 0xFFFFFFFF;
 760              		.loc 1 497 0
 761 0006 0123     		mov	r3, #1
 762 0008 5B42     		neg	r3, r3
 763 000a 7B60     		str	r3, [r7, #4]
 498:.\Generated_Source\PSoC4/ETH.c **** 	
 499:.\Generated_Source\PSoC4/ETH.c **** 	ETH_ChipRead( ETH_REG_GAR, (uint8*)(ip), 4);
 764              		.loc 1 499 0
 765 000c 7B68     		ldr	r3, [r7, #4]
 766 000e 0120     		mov	r0, #1
 767 0010 191C     		mov	r1, r3
 768 0012 0422     		mov	r2, #4
 769 0014 FFF7FEFF 		bl	ETH_ChipRead
 500:.\Generated_Source\PSoC4/ETH.c **** 	
 501:.\Generated_Source\PSoC4/ETH.c **** 	return ip;
 770              		.loc 1 501 0
 771 0018 7B68     		ldr	r3, [r7, #4]
 502:.\Generated_Source\PSoC4/ETH.c **** }
 772              		.loc 1 502 0
 773 001a 181C     		mov	r0, r3
 774 001c BD46     		mov	sp, r7
 775 001e 02B0     		add	sp, sp, #8
 776              		@ sp needed for prologue
 777 0020 80BD     		pop	{r7, pc}
 778              		.cfi_endproc
 779              	.LFE9:
 780              		.size	ETH_GetGatewayAddress, .-ETH_GetGatewayAddress
 781 0022 C046     		.section	.text.ETH_SetSubnetMask,"ax",%progbits
 782              		.align	2
 783              		.global	ETH_SetSubnetMask
 784              		.code	16
 785              		.thumb_func
 786              		.type	ETH_SetSubnetMask, %function
 787              	ETH_SetSubnetMask:
 788              	.LFB10:
 503:.\Generated_Source\PSoC4/ETH.c **** /* ------------------------------------------------------------------------ */
 504:.\Generated_Source\PSoC4/ETH.c **** /**
 505:.\Generated_Source\PSoC4/ETH.c ****  * \brief set the subnet mask of the ethernet device
 506:.\Generated_Source\PSoC4/ETH.c ****  * \param the subnet mask (IPv4)
 507:.\Generated_Source\PSoC4/ETH.c ****  */
 508:.\Generated_Source\PSoC4/ETH.c **** void ETH_SetSubnetMask( uint32 ip )
 509:.\Generated_Source\PSoC4/ETH.c **** {
 789              		.loc 1 509 0
 790              		.cfi_startproc
 791 0000 80B5     		push	{r7, lr}
 792              	.LCFI28:
 793              		.cfi_def_cfa_offset 8
 794              		.cfi_offset 7, -8
 795              		.cfi_offset 14, -4
 796 0002 82B0     		sub	sp, sp, #8
 797              	.LCFI29:
 798              		.cfi_def_cfa_offset 16
ARM GAS  C:\Users\CHUCK~1.ERH\AppData\Local\Temp\ccSVmyDA.s 			page 24


 799 0004 00AF     		add	r7, sp, #0
 800              	.LCFI30:
 801              		.cfi_def_cfa_register 7
 802 0006 7860     		str	r0, [r7, #4]
 510:.\Generated_Source\PSoC4/ETH.c **** 	ETH_ChipWrite(ETH_REG_SUBR, (uint8*)&(ip), 4);
 803              		.loc 1 510 0
 804 0008 3B1D     		add	r3, r7, #4
 805 000a 0520     		mov	r0, #5
 806 000c 191C     		mov	r1, r3
 807 000e 0422     		mov	r2, #4
 808 0010 FFF7FEFF 		bl	ETH_ChipWrite
 511:.\Generated_Source\PSoC4/ETH.c **** }
 809              		.loc 1 511 0
 810 0014 BD46     		mov	sp, r7
 811 0016 02B0     		add	sp, sp, #8
 812              		@ sp needed for prologue
 813 0018 80BD     		pop	{r7, pc}
 814              		.cfi_endproc
 815              	.LFE10:
 816              		.size	ETH_SetSubnetMask, .-ETH_SetSubnetMask
 817 001a C046     		.section	.text.ETH_GetSubnetMask,"ax",%progbits
 818              		.align	2
 819              		.global	ETH_GetSubnetMask
 820              		.code	16
 821              		.thumb_func
 822              		.type	ETH_GetSubnetMask, %function
 823              	ETH_GetSubnetMask:
 824              	.LFB11:
 512:.\Generated_Source\PSoC4/ETH.c **** /* ------------------------------------------------------------------------ */
 513:.\Generated_Source\PSoC4/ETH.c **** /**
 514:.\Generated_Source\PSoC4/ETH.c ****  * \brief Read the subnet mask from the device
 515:.\Generated_Source\PSoC4/ETH.c ****  * \returns the subnet mask that was read from the device.
 516:.\Generated_Source\PSoC4/ETH.c ****  */
 517:.\Generated_Source\PSoC4/ETH.c **** uint32 ETH_GetSubnetMask( void )
 518:.\Generated_Source\PSoC4/ETH.c **** {
 825              		.loc 1 518 0
 826              		.cfi_startproc
 827 0000 80B5     		push	{r7, lr}
 828              	.LCFI31:
 829              		.cfi_def_cfa_offset 8
 830              		.cfi_offset 7, -8
 831              		.cfi_offset 14, -4
 832 0002 82B0     		sub	sp, sp, #8
 833              	.LCFI32:
 834              		.cfi_def_cfa_offset 16
 835 0004 00AF     		add	r7, sp, #0
 836              	.LCFI33:
 837              		.cfi_def_cfa_register 7
 519:.\Generated_Source\PSoC4/ETH.c **** 	uint32 ip = 0xFFFFFFFF;
 838              		.loc 1 519 0
 839 0006 0123     		mov	r3, #1
 840 0008 5B42     		neg	r3, r3
 841 000a 7B60     		str	r3, [r7, #4]
 520:.\Generated_Source\PSoC4/ETH.c **** 	ETH_ChipRead(ETH_REG_SUBR, (uint8*)(ip), 4);
 842              		.loc 1 520 0
 843 000c 7B68     		ldr	r3, [r7, #4]
 844 000e 0520     		mov	r0, #5
ARM GAS  C:\Users\CHUCK~1.ERH\AppData\Local\Temp\ccSVmyDA.s 			page 25


 845 0010 191C     		mov	r1, r3
 846 0012 0422     		mov	r2, #4
 847 0014 FFF7FEFF 		bl	ETH_ChipRead
 521:.\Generated_Source\PSoC4/ETH.c **** 	return ip;
 848              		.loc 1 521 0
 849 0018 7B68     		ldr	r3, [r7, #4]
 522:.\Generated_Source\PSoC4/ETH.c **** }
 850              		.loc 1 522 0
 851 001a 181C     		mov	r0, r3
 852 001c BD46     		mov	sp, r7
 853 001e 02B0     		add	sp, sp, #8
 854              		@ sp needed for prologue
 855 0020 80BD     		pop	{r7, pc}
 856              		.cfi_endproc
 857              	.LFE11:
 858              		.size	ETH_GetSubnetMask, .-ETH_GetSubnetMask
 859 0022 C046     		.section	.text.ETH_SetSourceIP,"ax",%progbits
 860              		.align	2
 861              		.global	ETH_SetSourceIP
 862              		.code	16
 863              		.thumb_func
 864              		.type	ETH_SetSourceIP, %function
 865              	ETH_SetSourceIP:
 866              	.LFB12:
 523:.\Generated_Source\PSoC4/ETH.c **** /* ------------------------------------------------------------------------ */
 524:.\Generated_Source\PSoC4/ETH.c **** /**
 525:.\Generated_Source\PSoC4/ETH.c ****  * \brief Write the device source IPv4 address
 526:.\Generated_Source\PSoC4/ETH.c ****  * \param ip the ip address to set as the chip IP address
 527:.\Generated_Source\PSoC4/ETH.c ****  */
 528:.\Generated_Source\PSoC4/ETH.c **** void ETH_SetSourceIP(uint32 ip )
 529:.\Generated_Source\PSoC4/ETH.c **** {
 867              		.loc 1 529 0
 868              		.cfi_startproc
 869 0000 80B5     		push	{r7, lr}
 870              	.LCFI34:
 871              		.cfi_def_cfa_offset 8
 872              		.cfi_offset 7, -8
 873              		.cfi_offset 14, -4
 874 0002 82B0     		sub	sp, sp, #8
 875              	.LCFI35:
 876              		.cfi_def_cfa_offset 16
 877 0004 00AF     		add	r7, sp, #0
 878              	.LCFI36:
 879              		.cfi_def_cfa_register 7
 880 0006 7860     		str	r0, [r7, #4]
 530:.\Generated_Source\PSoC4/ETH.c **** 	ETH_ChipWrite( ETH_REG_SIPR, (uint8*)&(ip), 4 );
 881              		.loc 1 530 0
 882 0008 3B1D     		add	r3, r7, #4
 883 000a 0F20     		mov	r0, #15
 884 000c 191C     		mov	r1, r3
 885 000e 0422     		mov	r2, #4
 886 0010 FFF7FEFF 		bl	ETH_ChipWrite
 531:.\Generated_Source\PSoC4/ETH.c **** }
 887              		.loc 1 531 0
 888 0014 BD46     		mov	sp, r7
 889 0016 02B0     		add	sp, sp, #8
 890              		@ sp needed for prologue
ARM GAS  C:\Users\CHUCK~1.ERH\AppData\Local\Temp\ccSVmyDA.s 			page 26


 891 0018 80BD     		pop	{r7, pc}
 892              		.cfi_endproc
 893              	.LFE12:
 894              		.size	ETH_SetSourceIP, .-ETH_SetSourceIP
 895 001a C046     		.section	.text.ETH_GetSourceIP,"ax",%progbits
 896              		.align	2
 897              		.global	ETH_GetSourceIP
 898              		.code	16
 899              		.thumb_func
 900              		.type	ETH_GetSourceIP, %function
 901              	ETH_GetSourceIP:
 902              	.LFB13:
 532:.\Generated_Source\PSoC4/ETH.c **** /* ------------------------------------------------------------------------ */
 533:.\Generated_Source\PSoC4/ETH.c **** /**
 534:.\Generated_Source\PSoC4/ETH.c ****  * \brief Read the device's programmed IP address
 535:.\Generated_Source\PSoC4/ETH.c ****  * \returns The IPv4 address to which the device is set.
 536:.\Generated_Source\PSoC4/ETH.c ****  */
 537:.\Generated_Source\PSoC4/ETH.c **** uint32 ETH_GetSourceIP( void )
 538:.\Generated_Source\PSoC4/ETH.c **** {
 903              		.loc 1 538 0
 904              		.cfi_startproc
 905 0000 80B5     		push	{r7, lr}
 906              	.LCFI37:
 907              		.cfi_def_cfa_offset 8
 908              		.cfi_offset 7, -8
 909              		.cfi_offset 14, -4
 910 0002 82B0     		sub	sp, sp, #8
 911              	.LCFI38:
 912              		.cfi_def_cfa_offset 16
 913 0004 00AF     		add	r7, sp, #0
 914              	.LCFI39:
 915              		.cfi_def_cfa_register 7
 539:.\Generated_Source\PSoC4/ETH.c **** 	uint32 ip = 0xFFFFFFFF;
 916              		.loc 1 539 0
 917 0006 0123     		mov	r3, #1
 918 0008 5B42     		neg	r3, r3
 919 000a 7B60     		str	r3, [r7, #4]
 540:.\Generated_Source\PSoC4/ETH.c **** 	ETH_ChipRead( ETH_REG_SIPR, (uint8*)(ip), 4 );
 920              		.loc 1 540 0
 921 000c 7B68     		ldr	r3, [r7, #4]
 922 000e 0F20     		mov	r0, #15
 923 0010 191C     		mov	r1, r3
 924 0012 0422     		mov	r2, #4
 925 0014 FFF7FEFF 		bl	ETH_ChipRead
 541:.\Generated_Source\PSoC4/ETH.c **** 	return ip;
 926              		.loc 1 541 0
 927 0018 7B68     		ldr	r3, [r7, #4]
 542:.\Generated_Source\PSoC4/ETH.c **** }
 928              		.loc 1 542 0
 929 001a 181C     		mov	r0, r3
 930 001c BD46     		mov	sp, r7
 931 001e 02B0     		add	sp, sp, #8
 932              		@ sp needed for prologue
 933 0020 80BD     		pop	{r7, pc}
 934              		.cfi_endproc
 935              	.LFE13:
 936              		.size	ETH_GetSourceIP, .-ETH_GetSourceIP
ARM GAS  C:\Users\CHUCK~1.ERH\AppData\Local\Temp\ccSVmyDA.s 			page 27


 937 0022 C046     		.section	.text.ETH_SetMode,"ax",%progbits
 938              		.align	2
 939              		.global	ETH_SetMode
 940              		.code	16
 941              		.thumb_func
 942              		.type	ETH_SetMode, %function
 943              	ETH_SetMode:
 944              	.LFB14:
 543:.\Generated_Source\PSoC4/ETH.c **** /* ------------------------------------------------------------------------ */
 544:.\Generated_Source\PSoC4/ETH.c **** /**
 545:.\Generated_Source\PSoC4/ETH.c ****  * \brief Write a value to the device internal MODE register
 546:.\Generated_Source\PSoC4/ETH.c ****  * \param mode the value to be written to the mode register.
 547:.\Generated_Source\PSoC4/ETH.c ****  */
 548:.\Generated_Source\PSoC4/ETH.c **** void ETH_SetMode( uint8 mode )
 549:.\Generated_Source\PSoC4/ETH.c **** {
 945              		.loc 1 549 0
 946              		.cfi_startproc
 947 0000 80B5     		push	{r7, lr}
 948              	.LCFI40:
 949              		.cfi_def_cfa_offset 8
 950              		.cfi_offset 7, -8
 951              		.cfi_offset 14, -4
 952 0002 82B0     		sub	sp, sp, #8
 953              	.LCFI41:
 954              		.cfi_def_cfa_offset 16
 955 0004 00AF     		add	r7, sp, #0
 956              	.LCFI42:
 957              		.cfi_def_cfa_register 7
 958 0006 021C     		mov	r2, r0
 959 0008 FB1D     		add	r3, r7, #7
 960 000a 1A70     		strb	r2, [r3]
 550:.\Generated_Source\PSoC4/ETH.c **** 	ETH_ChipWrite(ETH_REG_MODE, (uint8*)&(mode), 1);
 961              		.loc 1 550 0
 962 000c FB1D     		add	r3, r7, #7
 963 000e 0020     		mov	r0, #0
 964 0010 191C     		mov	r1, r3
 965 0012 0122     		mov	r2, #1
 966 0014 FFF7FEFF 		bl	ETH_ChipWrite
 551:.\Generated_Source\PSoC4/ETH.c **** }
 967              		.loc 1 551 0
 968 0018 BD46     		mov	sp, r7
 969 001a 02B0     		add	sp, sp, #8
 970              		@ sp needed for prologue
 971 001c 80BD     		pop	{r7, pc}
 972              		.cfi_endproc
 973              	.LFE14:
 974              		.size	ETH_SetMode, .-ETH_SetMode
 975 001e C046     		.section	.text.ETH_GetMode,"ax",%progbits
 976              		.align	2
 977              		.global	ETH_GetMode
 978              		.code	16
 979              		.thumb_func
 980              		.type	ETH_GetMode, %function
 981              	ETH_GetMode:
 982              	.LFB15:
 552:.\Generated_Source\PSoC4/ETH.c **** /* ------------------------------------------------------------------------ */
 553:.\Generated_Source\PSoC4/ETH.c **** /**
ARM GAS  C:\Users\CHUCK~1.ERH\AppData\Local\Temp\ccSVmyDA.s 			page 28


 554:.\Generated_Source\PSoC4/ETH.c ****  * \brief Read the present contents of the device internal mode register
 555:.\Generated_Source\PSoC4/ETH.c ****  * \returns the value of the mode register
 556:.\Generated_Source\PSoC4/ETH.c ****  */
 557:.\Generated_Source\PSoC4/ETH.c **** uint8 ETH_GetMode( void )
 558:.\Generated_Source\PSoC4/ETH.c **** {
 983              		.loc 1 558 0
 984              		.cfi_startproc
 985 0000 80B5     		push	{r7, lr}
 986              	.LCFI43:
 987              		.cfi_def_cfa_offset 8
 988              		.cfi_offset 7, -8
 989              		.cfi_offset 14, -4
 990 0002 82B0     		sub	sp, sp, #8
 991              	.LCFI44:
 992              		.cfi_def_cfa_offset 16
 993 0004 00AF     		add	r7, sp, #0
 994              	.LCFI45:
 995              		.cfi_def_cfa_register 7
 559:.\Generated_Source\PSoC4/ETH.c **** 	uint8 mode;
 560:.\Generated_Source\PSoC4/ETH.c **** 	ETH_ChipRead(ETH_REG_MODE, (uint8*)&(mode),1);
 996              		.loc 1 560 0
 997 0006 FB1D     		add	r3, r7, #7
 998 0008 0020     		mov	r0, #0
 999 000a 191C     		mov	r1, r3
 1000 000c 0122     		mov	r2, #1
 1001 000e FFF7FEFF 		bl	ETH_ChipRead
 561:.\Generated_Source\PSoC4/ETH.c **** 	return mode;
 1002              		.loc 1 561 0
 1003 0012 FB1D     		add	r3, r7, #7
 1004 0014 1B78     		ldrb	r3, [r3]
 562:.\Generated_Source\PSoC4/ETH.c **** }
 1005              		.loc 1 562 0
 1006 0016 181C     		mov	r0, r3
 1007 0018 BD46     		mov	sp, r7
 1008 001a 02B0     		add	sp, sp, #8
 1009              		@ sp needed for prologue
 1010 001c 80BD     		pop	{r7, pc}
 1011              		.cfi_endproc
 1012              	.LFE15:
 1013              		.size	ETH_GetMode, .-ETH_GetMode
 1014 001e C046     		.section	.text.ETH_SetIR,"ax",%progbits
 1015              		.align	2
 1016              		.global	ETH_SetIR
 1017              		.code	16
 1018              		.thumb_func
 1019              		.type	ETH_SetIR, %function
 1020              	ETH_SetIR:
 1021              	.LFB16:
 563:.\Generated_Source\PSoC4/ETH.c **** /* ------------------------------------------------------------------------ */
 564:.\Generated_Source\PSoC4/ETH.c **** /**
 565:.\Generated_Source\PSoC4/ETH.c ****  * \brief Write the value of the interrupt register
 566:.\Generated_Source\PSoC4/ETH.c ****  * \param ir the value to be written to the interrupt register
 567:.\Generated_Source\PSoC4/ETH.c ****  */
 568:.\Generated_Source\PSoC4/ETH.c **** void ETH_SetIR(uint8 ir )
 569:.\Generated_Source\PSoC4/ETH.c **** {
 1022              		.loc 1 569 0
 1023              		.cfi_startproc
ARM GAS  C:\Users\CHUCK~1.ERH\AppData\Local\Temp\ccSVmyDA.s 			page 29


 1024 0000 80B5     		push	{r7, lr}
 1025              	.LCFI46:
 1026              		.cfi_def_cfa_offset 8
 1027              		.cfi_offset 7, -8
 1028              		.cfi_offset 14, -4
 1029 0002 82B0     		sub	sp, sp, #8
 1030              	.LCFI47:
 1031              		.cfi_def_cfa_offset 16
 1032 0004 00AF     		add	r7, sp, #0
 1033              	.LCFI48:
 1034              		.cfi_def_cfa_register 7
 1035 0006 021C     		mov	r2, r0
 1036 0008 FB1D     		add	r3, r7, #7
 1037 000a 1A70     		strb	r2, [r3]
 570:.\Generated_Source\PSoC4/ETH.c **** 	ETH_ChipWrite(ETH_REG_IR,(uint8*)&(ir), 1);
 1038              		.loc 1 570 0
 1039 000c FB1D     		add	r3, r7, #7
 1040 000e 1520     		mov	r0, #21
 1041 0010 191C     		mov	r1, r3
 1042 0012 0122     		mov	r2, #1
 1043 0014 FFF7FEFF 		bl	ETH_ChipWrite
 571:.\Generated_Source\PSoC4/ETH.c **** }
 1044              		.loc 1 571 0
 1045 0018 BD46     		mov	sp, r7
 1046 001a 02B0     		add	sp, sp, #8
 1047              		@ sp needed for prologue
 1048 001c 80BD     		pop	{r7, pc}
 1049              		.cfi_endproc
 1050              	.LFE16:
 1051              		.size	ETH_SetIR, .-ETH_SetIR
 1052 001e C046     		.section	.text.ETH_SetSocketRxMemSize,"ax",%progbits
 1053              		.align	2
 1054              		.global	ETH_SetSocketRxMemSize
 1055              		.code	16
 1056              		.thumb_func
 1057              		.type	ETH_SetSocketRxMemSize, %function
 1058              	ETH_SetSocketRxMemSize:
 1059              	.LFB17:
 572:.\Generated_Source\PSoC4/ETH.c **** /* ------------------------------------------------------------------------ */
 573:.\Generated_Source\PSoC4/ETH.c **** /**
 574:.\Generated_Source\PSoC4/ETH.c ****  * \brief write a value to the Rx mem size register
 575:.\Generated_Source\PSoC4/ETH.c ****  * \param size the value to be written to the register
 576:.\Generated_Source\PSoC4/ETH.c ****  */
 577:.\Generated_Source\PSoC4/ETH.c **** void ETH_SetSocketRxMemSize( uint8 socket, uint8 size ) 
 578:.\Generated_Source\PSoC4/ETH.c **** {
 1060              		.loc 1 578 0
 1061              		.cfi_startproc
 1062 0000 80B5     		push	{r7, lr}
 1063              	.LCFI49:
 1064              		.cfi_def_cfa_offset 8
 1065              		.cfi_offset 7, -8
 1066              		.cfi_offset 14, -4
 1067 0002 84B0     		sub	sp, sp, #16
 1068              	.LCFI50:
 1069              		.cfi_def_cfa_offset 24
 1070 0004 00AF     		add	r7, sp, #0
 1071              	.LCFI51:
ARM GAS  C:\Users\CHUCK~1.ERH\AppData\Local\Temp\ccSVmyDA.s 			page 30


 1072              		.cfi_def_cfa_register 7
 1073 0006 0A1C     		mov	r2, r1
 1074 0008 FB1D     		add	r3, r7, #7
 1075 000a 011C     		add	r1, r0, #0
 1076 000c 1970     		strb	r1, [r3]
 1077 000e BB1D     		add	r3, r7, #6
 1078 0010 1A70     		strb	r2, [r3]
 579:.\Generated_Source\PSoC4/ETH.c **** 	uint8 sz;
 580:.\Generated_Source\PSoC4/ETH.c **** 	
 581:.\Generated_Source\PSoC4/ETH.c **** #if (1 == 1)
 582:.\Generated_Source\PSoC4/ETH.c **** 	/*
 583:.\Generated_Source\PSoC4/ETH.c **** 	 * The W5100 uses memory allocations within one register for all sockets.
 584:.\Generated_Source\PSoC4/ETH.c **** 	 * the options are set by a 2 bit code for 1, 2, 4, or 8 K
 585:.\Generated_Source\PSoC4/ETH.c **** 	 */
 586:.\Generated_Source\PSoC4/ETH.c **** 		ETH_ChipRead( ETH_REG_RMSR, &sz, 1);
 1079              		.loc 1 586 0
 1080 0012 3B1C     		mov	r3, r7
 1081 0014 0F33     		add	r3, r3, #15
 1082 0016 1A20     		mov	r0, #26
 1083 0018 191C     		mov	r1, r3
 1084 001a 0122     		mov	r2, #1
 1085 001c FFF7FEFF 		bl	ETH_ChipRead
 587:.\Generated_Source\PSoC4/ETH.c **** 		sz = sz & (~(3<<(socket<<1)));
 1086              		.loc 1 587 0
 1087 0020 FB1D     		add	r3, r7, #7
 1088 0022 1B78     		ldrb	r3, [r3]
 1089 0024 5B00     		lsl	r3, r3, #1
 1090 0026 0322     		mov	r2, #3
 1091 0028 111C     		mov	r1, r2
 1092 002a 9940     		lsl	r1, r1, r3
 1093 002c 0B1C     		mov	r3, r1
 1094 002e DBB2     		uxtb	r3, r3
 1095 0030 DB43     		mvn	r3, r3
 1096 0032 DBB2     		uxtb	r3, r3
 1097 0034 3A1C     		mov	r2, r7
 1098 0036 0F32     		add	r2, r2, #15
 1099 0038 1278     		ldrb	r2, [r2]
 1100 003a D2B2     		uxtb	r2, r2
 1101 003c 1340     		and	r3, r2
 1102 003e DBB2     		uxtb	r3, r3
 1103 0040 DAB2     		uxtb	r2, r3
 1104 0042 3B1C     		mov	r3, r7
 1105 0044 0F33     		add	r3, r3, #15
 1106 0046 1A70     		strb	r2, [r3]
 588:.\Generated_Source\PSoC4/ETH.c **** 		sz = sz | (size<<(socket<<1));
 1107              		.loc 1 588 0
 1108 0048 BB1D     		add	r3, r7, #6
 1109 004a 1A78     		ldrb	r2, [r3]
 1110 004c FB1D     		add	r3, r7, #7
 1111 004e 1B78     		ldrb	r3, [r3]
 1112 0050 5B00     		lsl	r3, r3, #1
 1113 0052 111C     		mov	r1, r2
 1114 0054 9940     		lsl	r1, r1, r3
 1115 0056 0B1C     		mov	r3, r1
 1116 0058 DAB2     		uxtb	r2, r3
 1117 005a 3B1C     		mov	r3, r7
 1118 005c 0F33     		add	r3, r3, #15
ARM GAS  C:\Users\CHUCK~1.ERH\AppData\Local\Temp\ccSVmyDA.s 			page 31


 1119 005e 1B78     		ldrb	r3, [r3]
 1120 0060 DBB2     		uxtb	r3, r3
 1121 0062 1343     		orr	r3, r2
 1122 0064 DBB2     		uxtb	r3, r3
 1123 0066 DAB2     		uxtb	r2, r3
 1124 0068 3B1C     		mov	r3, r7
 1125 006a 0F33     		add	r3, r3, #15
 1126 006c 1A70     		strb	r2, [r3]
 589:.\Generated_Source\PSoC4/ETH.c **** 		ETH_ChipWrite( ETH_REG_RMSR, &sz, 1);
 1127              		.loc 1 589 0
 1128 006e 3B1C     		mov	r3, r7
 1129 0070 0F33     		add	r3, r3, #15
 1130 0072 1A20     		mov	r0, #26
 1131 0074 191C     		mov	r1, r3
 1132 0076 0122     		mov	r2, #1
 1133 0078 FFF7FEFF 		bl	ETH_ChipWrite
 590:.\Generated_Source\PSoC4/ETH.c **** #elif (1 == 2)
 591:.\Generated_Source\PSoC4/ETH.c **** 	/*
 592:.\Generated_Source\PSoC4/ETH.c **** 	 * The W5200 interface uses memory size registers located within the socket
 593:.\Generated_Source\PSoC4/ETH.c **** 	 * register memory maps.
 594:.\Generated_Source\PSoC4/ETH.c **** 	 */
 595:.\Generated_Source\PSoC4/ETH.c **** 	ETH_ChipWrite( ETH_SOCKET_REG(socket,ETH_SOCK_RXMEM), &size, 1);
 596:.\Generated_Source\PSoC4/ETH.c **** #endif
 597:.\Generated_Source\PSoC4/ETH.c **** }
 1134              		.loc 1 597 0
 1135 007c BD46     		mov	sp, r7
 1136 007e 04B0     		add	sp, sp, #16
 1137              		@ sp needed for prologue
 1138 0080 80BD     		pop	{r7, pc}
 1139              		.cfi_endproc
 1140              	.LFE17:
 1141              		.size	ETH_SetSocketRxMemSize, .-ETH_SetSocketRxMemSize
 1142 0082 C046     		.section	.text.ETH_GetSocketRxMemSize,"ax",%progbits
 1143              		.align	2
 1144              		.global	ETH_GetSocketRxMemSize
 1145              		.code	16
 1146              		.thumb_func
 1147              		.type	ETH_GetSocketRxMemSize, %function
 1148              	ETH_GetSocketRxMemSize:
 1149              	.LFB18:
 598:.\Generated_Source\PSoC4/ETH.c **** 
 599:.\Generated_Source\PSoC4/ETH.c **** /* ------------------------------------------------------------------------ */
 600:.\Generated_Source\PSoC4/ETH.c **** /**
 601:.\Generated_Source\PSoC4/ETH.c ****  * \brief Read the contents of hte rx mem size register
 602:.\Generated_Source\PSoC4/ETH.c ****  * \returns the value read from teh register
 603:.\Generated_Source\PSoC4/ETH.c ****  */
 604:.\Generated_Source\PSoC4/ETH.c **** uint8 ETH_GetSocketRxMemSize( uint8 socket )
 605:.\Generated_Source\PSoC4/ETH.c **** {
 1150              		.loc 1 605 0
 1151              		.cfi_startproc
 1152 0000 80B5     		push	{r7, lr}
 1153              	.LCFI52:
 1154              		.cfi_def_cfa_offset 8
 1155              		.cfi_offset 7, -8
 1156              		.cfi_offset 14, -4
 1157 0002 84B0     		sub	sp, sp, #16
 1158              	.LCFI53:
ARM GAS  C:\Users\CHUCK~1.ERH\AppData\Local\Temp\ccSVmyDA.s 			page 32


 1159              		.cfi_def_cfa_offset 24
 1160 0004 00AF     		add	r7, sp, #0
 1161              	.LCFI54:
 1162              		.cfi_def_cfa_register 7
 1163 0006 021C     		mov	r2, r0
 1164 0008 FB1D     		add	r3, r7, #7
 1165 000a 1A70     		strb	r2, [r3]
 606:.\Generated_Source\PSoC4/ETH.c **** 	uint8 sz;
 607:.\Generated_Source\PSoC4/ETH.c **** 	
 608:.\Generated_Source\PSoC4/ETH.c **** 	sz = 0xFF;
 1166              		.loc 1 608 0
 1167 000c 3B1C     		mov	r3, r7
 1168 000e 0F33     		add	r3, r3, #15
 1169 0010 FF22     		mov	r2, #255
 1170 0012 1A70     		strb	r2, [r3]
 609:.\Generated_Source\PSoC4/ETH.c **** #if (1 == 1)
 610:.\Generated_Source\PSoC4/ETH.c **** 	ETH_ChipRead(ETH_REG_RMSR, &sz, 1);
 1171              		.loc 1 610 0
 1172 0014 3B1C     		mov	r3, r7
 1173 0016 0F33     		add	r3, r3, #15
 1174 0018 1A20     		mov	r0, #26
 1175 001a 191C     		mov	r1, r3
 1176 001c 0122     		mov	r2, #1
 1177 001e FFF7FEFF 		bl	ETH_ChipRead
 611:.\Generated_Source\PSoC4/ETH.c **** 	sz = (sz >> (socket<<1)) & 0x03;
 1178              		.loc 1 611 0
 1179 0022 3B1C     		mov	r3, r7
 1180 0024 0F33     		add	r3, r3, #15
 1181 0026 1B78     		ldrb	r3, [r3]
 1182 0028 1A1C     		mov	r2, r3
 1183 002a FB1D     		add	r3, r7, #7
 1184 002c 1B78     		ldrb	r3, [r3]
 1185 002e 5B00     		lsl	r3, r3, #1
 1186 0030 111C     		mov	r1, r2
 1187 0032 1941     		asr	r1, r1, r3
 1188 0034 0B1C     		mov	r3, r1
 1189 0036 DAB2     		uxtb	r2, r3
 1190 0038 0323     		mov	r3, #3
 1191 003a 1340     		and	r3, r2
 1192 003c DAB2     		uxtb	r2, r3
 1193 003e 3B1C     		mov	r3, r7
 1194 0040 0F33     		add	r3, r3, #15
 1195 0042 1A70     		strb	r2, [r3]
 612:.\Generated_Source\PSoC4/ETH.c **** #elif (1 == 2)
 613:.\Generated_Source\PSoC4/ETH.c **** 	ETH_ChipRead( ETH_SOCKET_REG(socket,ETH_SOCK_RXMEM), &sz, 1);
 614:.\Generated_Source\PSoC4/ETH.c **** #endif
 615:.\Generated_Source\PSoC4/ETH.c **** 	return sz;
 1196              		.loc 1 615 0
 1197 0044 3B1C     		mov	r3, r7
 1198 0046 0F33     		add	r3, r3, #15
 1199 0048 1B78     		ldrb	r3, [r3]
 616:.\Generated_Source\PSoC4/ETH.c **** }
 1200              		.loc 1 616 0
 1201 004a 181C     		mov	r0, r3
 1202 004c BD46     		mov	sp, r7
 1203 004e 04B0     		add	sp, sp, #16
 1204              		@ sp needed for prologue
ARM GAS  C:\Users\CHUCK~1.ERH\AppData\Local\Temp\ccSVmyDA.s 			page 33


 1205 0050 80BD     		pop	{r7, pc}
 1206              		.cfi_endproc
 1207              	.LFE18:
 1208              		.size	ETH_GetSocketRxMemSize, .-ETH_GetSocketRxMemSize
 1209 0052 C046     		.section	.text.ETH_SetSocketTxMemSize,"ax",%progbits
 1210              		.align	2
 1211              		.global	ETH_SetSocketTxMemSize
 1212              		.code	16
 1213              		.thumb_func
 1214              		.type	ETH_SetSocketTxMemSize, %function
 1215              	ETH_SetSocketTxMemSize:
 1216              	.LFB19:
 617:.\Generated_Source\PSoC4/ETH.c **** /* ------------------------------------------------------------------------ */
 618:.\Generated_Source\PSoC4/ETH.c **** /**
 619:.\Generated_Source\PSoC4/ETH.c ****  * \brief write a value to the tx mem size register
 620:.\Generated_Source\PSoC4/ETH.c ****  * \param size The value to be written to the register
 621:.\Generated_Source\PSoC4/ETH.c ****  */
 622:.\Generated_Source\PSoC4/ETH.c **** void ETH_SetSocketTxMemSize( uint8 socket, uint8 size )
 623:.\Generated_Source\PSoC4/ETH.c **** {
 1217              		.loc 1 623 0
 1218              		.cfi_startproc
 1219 0000 80B5     		push	{r7, lr}
 1220              	.LCFI55:
 1221              		.cfi_def_cfa_offset 8
 1222              		.cfi_offset 7, -8
 1223              		.cfi_offset 14, -4
 1224 0002 84B0     		sub	sp, sp, #16
 1225              	.LCFI56:
 1226              		.cfi_def_cfa_offset 24
 1227 0004 00AF     		add	r7, sp, #0
 1228              	.LCFI57:
 1229              		.cfi_def_cfa_register 7
 1230 0006 0A1C     		mov	r2, r1
 1231 0008 FB1D     		add	r3, r7, #7
 1232 000a 011C     		add	r1, r0, #0
 1233 000c 1970     		strb	r1, [r3]
 1234 000e BB1D     		add	r3, r7, #6
 1235 0010 1A70     		strb	r2, [r3]
 624:.\Generated_Source\PSoC4/ETH.c **** 	uint8 sz;
 625:.\Generated_Source\PSoC4/ETH.c **** 	
 626:.\Generated_Source\PSoC4/ETH.c **** #if (1 == 1)
 627:.\Generated_Source\PSoC4/ETH.c **** 	/*
 628:.\Generated_Source\PSoC4/ETH.c **** 	 * The W5100 uses memory allocations within one register for all sockets.
 629:.\Generated_Source\PSoC4/ETH.c **** 	 * the options are set by a 2 bit code for 1, 2, 4, or 8 K
 630:.\Generated_Source\PSoC4/ETH.c **** 	 */
 631:.\Generated_Source\PSoC4/ETH.c **** 		ETH_ChipRead( ETH_REG_TXSR, &sz, 1);
 1236              		.loc 1 631 0
 1237 0012 3B1C     		mov	r3, r7
 1238 0014 0F33     		add	r3, r3, #15
 1239 0016 1B20     		mov	r0, #27
 1240 0018 191C     		mov	r1, r3
 1241 001a 0122     		mov	r2, #1
 1242 001c FFF7FEFF 		bl	ETH_ChipRead
 632:.\Generated_Source\PSoC4/ETH.c **** 		sz = sz & (~(3<<(socket<<1)));
 1243              		.loc 1 632 0
 1244 0020 FB1D     		add	r3, r7, #7
 1245 0022 1B78     		ldrb	r3, [r3]
ARM GAS  C:\Users\CHUCK~1.ERH\AppData\Local\Temp\ccSVmyDA.s 			page 34


 1246 0024 5B00     		lsl	r3, r3, #1
 1247 0026 0322     		mov	r2, #3
 1248 0028 111C     		mov	r1, r2
 1249 002a 9940     		lsl	r1, r1, r3
 1250 002c 0B1C     		mov	r3, r1
 1251 002e DBB2     		uxtb	r3, r3
 1252 0030 DB43     		mvn	r3, r3
 1253 0032 DBB2     		uxtb	r3, r3
 1254 0034 3A1C     		mov	r2, r7
 1255 0036 0F32     		add	r2, r2, #15
 1256 0038 1278     		ldrb	r2, [r2]
 1257 003a D2B2     		uxtb	r2, r2
 1258 003c 1340     		and	r3, r2
 1259 003e DBB2     		uxtb	r3, r3
 1260 0040 DAB2     		uxtb	r2, r3
 1261 0042 3B1C     		mov	r3, r7
 1262 0044 0F33     		add	r3, r3, #15
 1263 0046 1A70     		strb	r2, [r3]
 633:.\Generated_Source\PSoC4/ETH.c **** 		sz = sz | (size<<(socket<<1));
 1264              		.loc 1 633 0
 1265 0048 BB1D     		add	r3, r7, #6
 1266 004a 1A78     		ldrb	r2, [r3]
 1267 004c FB1D     		add	r3, r7, #7
 1268 004e 1B78     		ldrb	r3, [r3]
 1269 0050 5B00     		lsl	r3, r3, #1
 1270 0052 111C     		mov	r1, r2
 1271 0054 9940     		lsl	r1, r1, r3
 1272 0056 0B1C     		mov	r3, r1
 1273 0058 DAB2     		uxtb	r2, r3
 1274 005a 3B1C     		mov	r3, r7
 1275 005c 0F33     		add	r3, r3, #15
 1276 005e 1B78     		ldrb	r3, [r3]
 1277 0060 DBB2     		uxtb	r3, r3
 1278 0062 1343     		orr	r3, r2
 1279 0064 DBB2     		uxtb	r3, r3
 1280 0066 DAB2     		uxtb	r2, r3
 1281 0068 3B1C     		mov	r3, r7
 1282 006a 0F33     		add	r3, r3, #15
 1283 006c 1A70     		strb	r2, [r3]
 634:.\Generated_Source\PSoC4/ETH.c **** 		ETH_ChipWrite( ETH_REG_TXSR, &sz, 1);
 1284              		.loc 1 634 0
 1285 006e 3B1C     		mov	r3, r7
 1286 0070 0F33     		add	r3, r3, #15
 1287 0072 1B20     		mov	r0, #27
 1288 0074 191C     		mov	r1, r3
 1289 0076 0122     		mov	r2, #1
 1290 0078 FFF7FEFF 		bl	ETH_ChipWrite
 635:.\Generated_Source\PSoC4/ETH.c **** #elif (1 == 2)
 636:.\Generated_Source\PSoC4/ETH.c **** 	/*
 637:.\Generated_Source\PSoC4/ETH.c **** 	 * The W5200 interface uses memory size registers located within the socket
 638:.\Generated_Source\PSoC4/ETH.c **** 	 * register memory maps.
 639:.\Generated_Source\PSoC4/ETH.c **** 	 */
 640:.\Generated_Source\PSoC4/ETH.c **** 	ETH_ChipWrite( ETH_SOCKET_REG(socket,ETH_SOCK_TXMEM), &size, 1);
 641:.\Generated_Source\PSoC4/ETH.c **** #endif
 642:.\Generated_Source\PSoC4/ETH.c **** }
 1291              		.loc 1 642 0
 1292 007c BD46     		mov	sp, r7
ARM GAS  C:\Users\CHUCK~1.ERH\AppData\Local\Temp\ccSVmyDA.s 			page 35


 1293 007e 04B0     		add	sp, sp, #16
 1294              		@ sp needed for prologue
 1295 0080 80BD     		pop	{r7, pc}
 1296              		.cfi_endproc
 1297              	.LFE19:
 1298              		.size	ETH_SetSocketTxMemSize, .-ETH_SetSocketTxMemSize
 1299 0082 C046     		.section	.text.ETH_GetSocketTxMemSize,"ax",%progbits
 1300              		.align	2
 1301              		.global	ETH_GetSocketTxMemSize
 1302              		.code	16
 1303              		.thumb_func
 1304              		.type	ETH_GetSocketTxMemSize, %function
 1305              	ETH_GetSocketTxMemSize:
 1306              	.LFB20:
 643:.\Generated_Source\PSoC4/ETH.c **** /* ------------------------------------------------------------------------ */
 644:.\Generated_Source\PSoC4/ETH.c **** /**
 645:.\Generated_Source\PSoC4/ETH.c ****  * \brief read the contents of the tx mem size register
 646:.\Generated_Source\PSoC4/ETH.c ****  * \returns the value read from the register
 647:.\Generated_Source\PSoC4/ETH.c ****  */
 648:.\Generated_Source\PSoC4/ETH.c **** uint8 ETH_GetSocketTxMemSize( uint8 socket )
 649:.\Generated_Source\PSoC4/ETH.c **** {
 1307              		.loc 1 649 0
 1308              		.cfi_startproc
 1309 0000 80B5     		push	{r7, lr}
 1310              	.LCFI58:
 1311              		.cfi_def_cfa_offset 8
 1312              		.cfi_offset 7, -8
 1313              		.cfi_offset 14, -4
 1314 0002 84B0     		sub	sp, sp, #16
 1315              	.LCFI59:
 1316              		.cfi_def_cfa_offset 24
 1317 0004 00AF     		add	r7, sp, #0
 1318              	.LCFI60:
 1319              		.cfi_def_cfa_register 7
 1320 0006 021C     		mov	r2, r0
 1321 0008 FB1D     		add	r3, r7, #7
 1322 000a 1A70     		strb	r2, [r3]
 650:.\Generated_Source\PSoC4/ETH.c **** 	uint8 sz;
 651:.\Generated_Source\PSoC4/ETH.c **** 	
 652:.\Generated_Source\PSoC4/ETH.c **** 	sz = 0xFF;
 1323              		.loc 1 652 0
 1324 000c 3B1C     		mov	r3, r7
 1325 000e 0F33     		add	r3, r3, #15
 1326 0010 FF22     		mov	r2, #255
 1327 0012 1A70     		strb	r2, [r3]
 653:.\Generated_Source\PSoC4/ETH.c **** #if (1 == 1)
 654:.\Generated_Source\PSoC4/ETH.c **** 	ETH_ChipRead(ETH_REG_TXSR, &sz, 1);
 1328              		.loc 1 654 0
 1329 0014 3B1C     		mov	r3, r7
 1330 0016 0F33     		add	r3, r3, #15
 1331 0018 1B20     		mov	r0, #27
 1332 001a 191C     		mov	r1, r3
 1333 001c 0122     		mov	r2, #1
 1334 001e FFF7FEFF 		bl	ETH_ChipRead
 655:.\Generated_Source\PSoC4/ETH.c **** 	sz = (sz >> (socket<<1)) & 0x03;
 1335              		.loc 1 655 0
 1336 0022 3B1C     		mov	r3, r7
ARM GAS  C:\Users\CHUCK~1.ERH\AppData\Local\Temp\ccSVmyDA.s 			page 36


 1337 0024 0F33     		add	r3, r3, #15
 1338 0026 1B78     		ldrb	r3, [r3]
 1339 0028 1A1C     		mov	r2, r3
 1340 002a FB1D     		add	r3, r7, #7
 1341 002c 1B78     		ldrb	r3, [r3]
 1342 002e 5B00     		lsl	r3, r3, #1
 1343 0030 111C     		mov	r1, r2
 1344 0032 1941     		asr	r1, r1, r3
 1345 0034 0B1C     		mov	r3, r1
 1346 0036 DAB2     		uxtb	r2, r3
 1347 0038 0323     		mov	r3, #3
 1348 003a 1340     		and	r3, r2
 1349 003c DAB2     		uxtb	r2, r3
 1350 003e 3B1C     		mov	r3, r7
 1351 0040 0F33     		add	r3, r3, #15
 1352 0042 1A70     		strb	r2, [r3]
 656:.\Generated_Source\PSoC4/ETH.c **** #elif (1 == 2)
 657:.\Generated_Source\PSoC4/ETH.c **** 	ETH_ChipRead( ETH_SOCKET_REG(socket,ETH_SOCK_TXMEM), &sz, 1);
 658:.\Generated_Source\PSoC4/ETH.c **** #endif
 659:.\Generated_Source\PSoC4/ETH.c **** 	return sz;
 1353              		.loc 1 659 0
 1354 0044 3B1C     		mov	r3, r7
 1355 0046 0F33     		add	r3, r3, #15
 1356 0048 1B78     		ldrb	r3, [r3]
 660:.\Generated_Source\PSoC4/ETH.c **** }
 1357              		.loc 1 660 0
 1358 004a 181C     		mov	r0, r3
 1359 004c BD46     		mov	sp, r7
 1360 004e 04B0     		add	sp, sp, #16
 1361              		@ sp needed for prologue
 1362 0050 80BD     		pop	{r7, pc}
 1363              		.cfi_endproc
 1364              	.LFE20:
 1365              		.size	ETH_GetSocketTxMemSize, .-ETH_GetSocketTxMemSize
 1366 0052 C046     		.section	.text.ETH_SetSocketMode,"ax",%progbits
 1367              		.align	2
 1368              		.global	ETH_SetSocketMode
 1369              		.code	16
 1370              		.thumb_func
 1371              		.type	ETH_SetSocketMode, %function
 1372              	ETH_SetSocketMode:
 1373              	.LFB21:
 661:.\Generated_Source\PSoC4/ETH.c **** 
 662:.\Generated_Source\PSoC4/ETH.c **** /* ======================================================================== */
 663:.\Generated_Source\PSoC4/ETH.c **** /* End Section */
 664:.\Generated_Source\PSoC4/ETH.c **** #endif
 665:.\Generated_Source\PSoC4/ETH.c **** /* ======================================================================== */
 666:.\Generated_Source\PSoC4/ETH.c **** /* Socket Registers */
 667:.\Generated_Source\PSoC4/ETH.c **** #if (1)
 668:.\Generated_Source\PSoC4/ETH.c **** /* ------------------------------------------------------------------------ */
 669:.\Generated_Source\PSoC4/ETH.c **** /**
 670:.\Generated_Source\PSoC4/ETH.c ****  * \brief Write a value to the socket mode register
 671:.\Generated_Source\PSoC4/ETH.c ****  * \param socket the socket number for the addressed register
 672:.\Generated_Source\PSoC4/ETH.c ****  * \param mode the value to be written to the register
 673:.\Generated_Source\PSoC4/ETH.c ****  */
 674:.\Generated_Source\PSoC4/ETH.c **** void ETH_SetSocketMode(uint8 socket, uint8 mode)
 675:.\Generated_Source\PSoC4/ETH.c **** {
ARM GAS  C:\Users\CHUCK~1.ERH\AppData\Local\Temp\ccSVmyDA.s 			page 37


 1374              		.loc 1 675 0
 1375              		.cfi_startproc
 1376 0000 80B5     		push	{r7, lr}
 1377              	.LCFI61:
 1378              		.cfi_def_cfa_offset 8
 1379              		.cfi_offset 7, -8
 1380              		.cfi_offset 14, -4
 1381 0002 82B0     		sub	sp, sp, #8
 1382              	.LCFI62:
 1383              		.cfi_def_cfa_offset 16
 1384 0004 00AF     		add	r7, sp, #0
 1385              	.LCFI63:
 1386              		.cfi_def_cfa_register 7
 1387 0006 0A1C     		mov	r2, r1
 1388 0008 FB1D     		add	r3, r7, #7
 1389 000a 011C     		add	r1, r0, #0
 1390 000c 1970     		strb	r1, [r3]
 1391 000e BB1D     		add	r3, r7, #6
 1392 0010 1A70     		strb	r2, [r3]
 676:.\Generated_Source\PSoC4/ETH.c **** 	ETH_ChipWrite((ETH_SOCKET_REG(socket, ETH_SOCK_MR)),(uint8*)&(mode), 1);
 1393              		.loc 1 676 0
 1394 0012 FB1D     		add	r3, r7, #7
 1395 0014 1B78     		ldrb	r3, [r3]
 1396 0016 9BB2     		uxth	r3, r3
 1397 0018 1B02     		lsl	r3, r3, #8
 1398 001a 9BB2     		uxth	r3, r3
 1399 001c 8022     		mov	r2, #128
 1400 001e D200     		lsl	r2, r2, #3
 1401 0020 9B18     		add	r3, r3, r2
 1402 0022 9AB2     		uxth	r2, r3
 1403 0024 BB1D     		add	r3, r7, #6
 1404 0026 101C     		mov	r0, r2
 1405 0028 191C     		mov	r1, r3
 1406 002a 0122     		mov	r2, #1
 1407 002c FFF7FEFF 		bl	ETH_ChipWrite
 677:.\Generated_Source\PSoC4/ETH.c **** }
 1408              		.loc 1 677 0
 1409 0030 BD46     		mov	sp, r7
 1410 0032 02B0     		add	sp, sp, #8
 1411              		@ sp needed for prologue
 1412 0034 80BD     		pop	{r7, pc}
 1413              		.cfi_endproc
 1414              	.LFE21:
 1415              		.size	ETH_SetSocketMode, .-ETH_SetSocketMode
 1416 0036 C046     		.section	.text.ETH_SetSocketCommand,"ax",%progbits
 1417              		.align	2
 1418              		.global	ETH_SetSocketCommand
 1419              		.code	16
 1420              		.thumb_func
 1421              		.type	ETH_SetSocketCommand, %function
 1422              	ETH_SetSocketCommand:
 1423              	.LFB22:
 678:.\Generated_Source\PSoC4/ETH.c **** /* ------------------------------------------------------------------------ */
 679:.\Generated_Source\PSoC4/ETH.c **** /**
 680:.\Generated_Source\PSoC4/ETH.c ****  * \brief Write a value to the socket command register
 681:.\Generated_Source\PSoC4/ETH.c ****  * \param socket the socket number for the addressed register
 682:.\Generated_Source\PSoC4/ETH.c ****  * \param cmd the value to be written to the register
ARM GAS  C:\Users\CHUCK~1.ERH\AppData\Local\Temp\ccSVmyDA.s 			page 38


 683:.\Generated_Source\PSoC4/ETH.c ****  */
 684:.\Generated_Source\PSoC4/ETH.c **** void ETH_SetSocketCommand(uint8 socket, uint8 cmd)
 685:.\Generated_Source\PSoC4/ETH.c **** {
 1424              		.loc 1 685 0
 1425              		.cfi_startproc
 1426 0000 80B5     		push	{r7, lr}
 1427              	.LCFI64:
 1428              		.cfi_def_cfa_offset 8
 1429              		.cfi_offset 7, -8
 1430              		.cfi_offset 14, -4
 1431 0002 82B0     		sub	sp, sp, #8
 1432              	.LCFI65:
 1433              		.cfi_def_cfa_offset 16
 1434 0004 00AF     		add	r7, sp, #0
 1435              	.LCFI66:
 1436              		.cfi_def_cfa_register 7
 1437 0006 0A1C     		mov	r2, r1
 1438 0008 FB1D     		add	r3, r7, #7
 1439 000a 011C     		add	r1, r0, #0
 1440 000c 1970     		strb	r1, [r3]
 1441 000e BB1D     		add	r3, r7, #6
 1442 0010 1A70     		strb	r2, [r3]
 686:.\Generated_Source\PSoC4/ETH.c **** 	ETH_ChipWrite( (ETH_SOCKET_REG(socket, ETH_SOCK_CR)),(uint8*)&(cmd),1);
 1443              		.loc 1 686 0
 1444 0012 FB1D     		add	r3, r7, #7
 1445 0014 1B78     		ldrb	r3, [r3]
 1446 0016 9BB2     		uxth	r3, r3
 1447 0018 1B02     		lsl	r3, r3, #8
 1448 001a 9BB2     		uxth	r3, r3
 1449 001c 054A     		ldr	r2, .L46
 1450 001e 9B18     		add	r3, r3, r2
 1451 0020 9AB2     		uxth	r2, r3
 1452 0022 BB1D     		add	r3, r7, #6
 1453 0024 101C     		mov	r0, r2
 1454 0026 191C     		mov	r1, r3
 1455 0028 0122     		mov	r2, #1
 1456 002a FFF7FEFF 		bl	ETH_ChipWrite
 687:.\Generated_Source\PSoC4/ETH.c **** }
 1457              		.loc 1 687 0
 1458 002e BD46     		mov	sp, r7
 1459 0030 02B0     		add	sp, sp, #8
 1460              		@ sp needed for prologue
 1461 0032 80BD     		pop	{r7, pc}
 1462              	.L47:
 1463              		.align	2
 1464              	.L46:
 1465 0034 01040000 		.word	1025
 1466              		.cfi_endproc
 1467              	.LFE22:
 1468              		.size	ETH_SetSocketCommand, .-ETH_SetSocketCommand
 1469              		.section	.text.ETH_GetSocketCommand,"ax",%progbits
 1470              		.align	2
 1471              		.global	ETH_GetSocketCommand
 1472              		.code	16
 1473              		.thumb_func
 1474              		.type	ETH_GetSocketCommand, %function
 1475              	ETH_GetSocketCommand:
ARM GAS  C:\Users\CHUCK~1.ERH\AppData\Local\Temp\ccSVmyDA.s 			page 39


 1476              	.LFB23:
 688:.\Generated_Source\PSoC4/ETH.c **** /* ------------------------------------------------------------------------ */
 689:.\Generated_Source\PSoC4/ETH.c **** /**
 690:.\Generated_Source\PSoC4/ETH.c ****  * \brief Read a value from the socket command register
 691:.\Generated_Source\PSoC4/ETH.c ****  * \param socket the socket number for the addressed register
 692:.\Generated_Source\PSoC4/ETH.c ****  * \returns the value read from the register
 693:.\Generated_Source\PSoC4/ETH.c ****  */
 694:.\Generated_Source\PSoC4/ETH.c **** uint8 ETH_GetSocketCommand(uint8 socket )
 695:.\Generated_Source\PSoC4/ETH.c **** {
 1477              		.loc 1 695 0
 1478              		.cfi_startproc
 1479 0000 80B5     		push	{r7, lr}
 1480              	.LCFI67:
 1481              		.cfi_def_cfa_offset 8
 1482              		.cfi_offset 7, -8
 1483              		.cfi_offset 14, -4
 1484 0002 84B0     		sub	sp, sp, #16
 1485              	.LCFI68:
 1486              		.cfi_def_cfa_offset 24
 1487 0004 00AF     		add	r7, sp, #0
 1488              	.LCFI69:
 1489              		.cfi_def_cfa_register 7
 1490 0006 021C     		mov	r2, r0
 1491 0008 FB1D     		add	r3, r7, #7
 1492 000a 1A70     		strb	r2, [r3]
 696:.\Generated_Source\PSoC4/ETH.c **** 	uint8 cmd = 0xFF;
 1493              		.loc 1 696 0
 1494 000c 3B1C     		mov	r3, r7
 1495 000e 0F33     		add	r3, r3, #15
 1496 0010 FF22     		mov	r2, #255
 1497 0012 1A70     		strb	r2, [r3]
 697:.\Generated_Source\PSoC4/ETH.c **** 	ETH_ChipRead( (ETH_SOCKET_REG(socket, ETH_SOCK_CR)),(uint8*)(&cmd),1);
 1498              		.loc 1 697 0
 1499 0014 FB1D     		add	r3, r7, #7
 1500 0016 1B78     		ldrb	r3, [r3]
 1501 0018 9BB2     		uxth	r3, r3
 1502 001a 1B02     		lsl	r3, r3, #8
 1503 001c 9BB2     		uxth	r3, r3
 1504 001e 084A     		ldr	r2, .L50
 1505 0020 9B18     		add	r3, r3, r2
 1506 0022 9AB2     		uxth	r2, r3
 1507 0024 3B1C     		mov	r3, r7
 1508 0026 0F33     		add	r3, r3, #15
 1509 0028 101C     		mov	r0, r2
 1510 002a 191C     		mov	r1, r3
 1511 002c 0122     		mov	r2, #1
 1512 002e FFF7FEFF 		bl	ETH_ChipRead
 698:.\Generated_Source\PSoC4/ETH.c **** 	return cmd;
 1513              		.loc 1 698 0
 1514 0032 3B1C     		mov	r3, r7
 1515 0034 0F33     		add	r3, r3, #15
 1516 0036 1B78     		ldrb	r3, [r3]
 699:.\Generated_Source\PSoC4/ETH.c **** }
 1517              		.loc 1 699 0
 1518 0038 181C     		mov	r0, r3
 1519 003a BD46     		mov	sp, r7
 1520 003c 04B0     		add	sp, sp, #16
ARM GAS  C:\Users\CHUCK~1.ERH\AppData\Local\Temp\ccSVmyDA.s 			page 40


 1521              		@ sp needed for prologue
 1522 003e 80BD     		pop	{r7, pc}
 1523              	.L51:
 1524              		.align	2
 1525              	.L50:
 1526 0040 01040000 		.word	1025
 1527              		.cfi_endproc
 1528              	.LFE23:
 1529              		.size	ETH_GetSocketCommand, .-ETH_GetSocketCommand
 1530              		.section	.text.ETH_SetSocketIR,"ax",%progbits
 1531              		.align	2
 1532              		.global	ETH_SetSocketIR
 1533              		.code	16
 1534              		.thumb_func
 1535              		.type	ETH_SetSocketIR, %function
 1536              	ETH_SetSocketIR:
 1537              	.LFB24:
 700:.\Generated_Source\PSoC4/ETH.c **** /* ------------------------------------------------------------------------ */
 701:.\Generated_Source\PSoC4/ETH.c **** /**
 702:.\Generated_Source\PSoC4/ETH.c ****  * \brief Write a value to the socket interrupt register
 703:.\Generated_Source\PSoC4/ETH.c ****  * \param socket the socket number for the addressed register
 704:.\Generated_Source\PSoC4/ETH.c ****  * \param ir the value to be written to the register
 705:.\Generated_Source\PSoC4/ETH.c ****  */
 706:.\Generated_Source\PSoC4/ETH.c **** void ETH_SetSocketIR(uint8 socket, uint8 ir)
 707:.\Generated_Source\PSoC4/ETH.c **** {
 1538              		.loc 1 707 0
 1539              		.cfi_startproc
 1540 0000 80B5     		push	{r7, lr}
 1541              	.LCFI70:
 1542              		.cfi_def_cfa_offset 8
 1543              		.cfi_offset 7, -8
 1544              		.cfi_offset 14, -4
 1545 0002 82B0     		sub	sp, sp, #8
 1546              	.LCFI71:
 1547              		.cfi_def_cfa_offset 16
 1548 0004 00AF     		add	r7, sp, #0
 1549              	.LCFI72:
 1550              		.cfi_def_cfa_register 7
 1551 0006 0A1C     		mov	r2, r1
 1552 0008 FB1D     		add	r3, r7, #7
 1553 000a 011C     		add	r1, r0, #0
 1554 000c 1970     		strb	r1, [r3]
 1555 000e BB1D     		add	r3, r7, #6
 1556 0010 1A70     		strb	r2, [r3]
 708:.\Generated_Source\PSoC4/ETH.c **** 	ETH_ChipWrite( (ETH_SOCKET_REG(socket, ETH_SOCK_IR)), (uint8*)&(ir), 1);
 1557              		.loc 1 708 0
 1558 0012 FB1D     		add	r3, r7, #7
 1559 0014 1B78     		ldrb	r3, [r3]
 1560 0016 9BB2     		uxth	r3, r3
 1561 0018 1B02     		lsl	r3, r3, #8
 1562 001a 9BB2     		uxth	r3, r3
 1563 001c 054A     		ldr	r2, .L53
 1564 001e 9B18     		add	r3, r3, r2
 1565 0020 9AB2     		uxth	r2, r3
 1566 0022 BB1D     		add	r3, r7, #6
 1567 0024 101C     		mov	r0, r2
 1568 0026 191C     		mov	r1, r3
ARM GAS  C:\Users\CHUCK~1.ERH\AppData\Local\Temp\ccSVmyDA.s 			page 41


 1569 0028 0122     		mov	r2, #1
 1570 002a FFF7FEFF 		bl	ETH_ChipWrite
 709:.\Generated_Source\PSoC4/ETH.c **** }
 1571              		.loc 1 709 0
 1572 002e BD46     		mov	sp, r7
 1573 0030 02B0     		add	sp, sp, #8
 1574              		@ sp needed for prologue
 1575 0032 80BD     		pop	{r7, pc}
 1576              	.L54:
 1577              		.align	2
 1578              	.L53:
 1579 0034 02040000 		.word	1026
 1580              		.cfi_endproc
 1581              	.LFE24:
 1582              		.size	ETH_SetSocketIR, .-ETH_SetSocketIR
 1583              		.section	.text.ETH_GetSocketIR,"ax",%progbits
 1584              		.align	2
 1585              		.global	ETH_GetSocketIR
 1586              		.code	16
 1587              		.thumb_func
 1588              		.type	ETH_GetSocketIR, %function
 1589              	ETH_GetSocketIR:
 1590              	.LFB25:
 710:.\Generated_Source\PSoC4/ETH.c **** /* ------------------------------------------------------------------------ */
 711:.\Generated_Source\PSoC4/ETH.c **** /**
 712:.\Generated_Source\PSoC4/ETH.c ****  * \brief Read a value from the socket interrupt register
 713:.\Generated_Source\PSoC4/ETH.c ****  * \param socket the socket number for the addressed register
 714:.\Generated_Source\PSoC4/ETH.c ****  * \returns the value read from the register
 715:.\Generated_Source\PSoC4/ETH.c ****  */
 716:.\Generated_Source\PSoC4/ETH.c **** uint8 ETH_GetSocketIR(uint8 socket)
 717:.\Generated_Source\PSoC4/ETH.c **** {	
 1591              		.loc 1 717 0
 1592              		.cfi_startproc
 1593 0000 80B5     		push	{r7, lr}
 1594              	.LCFI73:
 1595              		.cfi_def_cfa_offset 8
 1596              		.cfi_offset 7, -8
 1597              		.cfi_offset 14, -4
 1598 0002 84B0     		sub	sp, sp, #16
 1599              	.LCFI74:
 1600              		.cfi_def_cfa_offset 24
 1601 0004 00AF     		add	r7, sp, #0
 1602              	.LCFI75:
 1603              		.cfi_def_cfa_register 7
 1604 0006 021C     		mov	r2, r0
 1605 0008 FB1D     		add	r3, r7, #7
 1606 000a 1A70     		strb	r2, [r3]
 718:.\Generated_Source\PSoC4/ETH.c **** 	uint8 ir = 0xFF;
 1607              		.loc 1 718 0
 1608 000c 3B1C     		mov	r3, r7
 1609 000e 0F33     		add	r3, r3, #15
 1610 0010 FF22     		mov	r2, #255
 1611 0012 1A70     		strb	r2, [r3]
 719:.\Generated_Source\PSoC4/ETH.c **** 	ETH_ChipRead((ETH_SOCKET_REG(socket, ETH_SOCK_IR)), (uint8*)&(ir), 1);
 1612              		.loc 1 719 0
 1613 0014 FB1D     		add	r3, r7, #7
 1614 0016 1B78     		ldrb	r3, [r3]
ARM GAS  C:\Users\CHUCK~1.ERH\AppData\Local\Temp\ccSVmyDA.s 			page 42


 1615 0018 9BB2     		uxth	r3, r3
 1616 001a 1B02     		lsl	r3, r3, #8
 1617 001c 9BB2     		uxth	r3, r3
 1618 001e 084A     		ldr	r2, .L57
 1619 0020 9B18     		add	r3, r3, r2
 1620 0022 9AB2     		uxth	r2, r3
 1621 0024 3B1C     		mov	r3, r7
 1622 0026 0F33     		add	r3, r3, #15
 1623 0028 101C     		mov	r0, r2
 1624 002a 191C     		mov	r1, r3
 1625 002c 0122     		mov	r2, #1
 1626 002e FFF7FEFF 		bl	ETH_ChipRead
 720:.\Generated_Source\PSoC4/ETH.c **** 	return ir;
 1627              		.loc 1 720 0
 1628 0032 3B1C     		mov	r3, r7
 1629 0034 0F33     		add	r3, r3, #15
 1630 0036 1B78     		ldrb	r3, [r3]
 721:.\Generated_Source\PSoC4/ETH.c **** }
 1631              		.loc 1 721 0
 1632 0038 181C     		mov	r0, r3
 1633 003a BD46     		mov	sp, r7
 1634 003c 04B0     		add	sp, sp, #16
 1635              		@ sp needed for prologue
 1636 003e 80BD     		pop	{r7, pc}
 1637              	.L58:
 1638              		.align	2
 1639              	.L57:
 1640 0040 02040000 		.word	1026
 1641              		.cfi_endproc
 1642              	.LFE25:
 1643              		.size	ETH_GetSocketIR, .-ETH_GetSocketIR
 1644              		.section	.text.ETH_GetSocketStatus,"ax",%progbits
 1645              		.align	2
 1646              		.global	ETH_GetSocketStatus
 1647              		.code	16
 1648              		.thumb_func
 1649              		.type	ETH_GetSocketStatus, %function
 1650              	ETH_GetSocketStatus:
 1651              	.LFB26:
 722:.\Generated_Source\PSoC4/ETH.c **** /* ------------------------------------------------------------------------ */
 723:.\Generated_Source\PSoC4/ETH.c **** /**
 724:.\Generated_Source\PSoC4/ETH.c ****  * \brief Read a value from the socket status register
 725:.\Generated_Source\PSoC4/ETH.c ****  * \param socket the socket number for the addressed register
 726:.\Generated_Source\PSoC4/ETH.c ****  * \returns the value read from the register
 727:.\Generated_Source\PSoC4/ETH.c ****  */
 728:.\Generated_Source\PSoC4/ETH.c **** uint8 ETH_GetSocketStatus(uint8 socket)
 729:.\Generated_Source\PSoC4/ETH.c **** { 
 1652              		.loc 1 729 0
 1653              		.cfi_startproc
 1654 0000 80B5     		push	{r7, lr}
 1655              	.LCFI76:
 1656              		.cfi_def_cfa_offset 8
 1657              		.cfi_offset 7, -8
 1658              		.cfi_offset 14, -4
 1659 0002 84B0     		sub	sp, sp, #16
 1660              	.LCFI77:
 1661              		.cfi_def_cfa_offset 24
ARM GAS  C:\Users\CHUCK~1.ERH\AppData\Local\Temp\ccSVmyDA.s 			page 43


 1662 0004 00AF     		add	r7, sp, #0
 1663              	.LCFI78:
 1664              		.cfi_def_cfa_register 7
 1665 0006 021C     		mov	r2, r0
 1666 0008 FB1D     		add	r3, r7, #7
 1667 000a 1A70     		strb	r2, [r3]
 730:.\Generated_Source\PSoC4/ETH.c **** 	uint8 status = 0xFF;
 1668              		.loc 1 730 0
 1669 000c 3B1C     		mov	r3, r7
 1670 000e 0F33     		add	r3, r3, #15
 1671 0010 FF22     		mov	r2, #255
 1672 0012 1A70     		strb	r2, [r3]
 731:.\Generated_Source\PSoC4/ETH.c **** 	ETH_ChipRead(ETH_SOCKET_REG(socket, ETH_SOCK_SR), &status, 1);
 1673              		.loc 1 731 0
 1674 0014 FB1D     		add	r3, r7, #7
 1675 0016 1B78     		ldrb	r3, [r3]
 1676 0018 9BB2     		uxth	r3, r3
 1677 001a 1B02     		lsl	r3, r3, #8
 1678 001c 9BB2     		uxth	r3, r3
 1679 001e 084A     		ldr	r2, .L61
 1680 0020 9B18     		add	r3, r3, r2
 1681 0022 9AB2     		uxth	r2, r3
 1682 0024 3B1C     		mov	r3, r7
 1683 0026 0F33     		add	r3, r3, #15
 1684 0028 101C     		mov	r0, r2
 1685 002a 191C     		mov	r1, r3
 1686 002c 0122     		mov	r2, #1
 1687 002e FFF7FEFF 		bl	ETH_ChipRead
 732:.\Generated_Source\PSoC4/ETH.c **** 	return status;
 1688              		.loc 1 732 0
 1689 0032 3B1C     		mov	r3, r7
 1690 0034 0F33     		add	r3, r3, #15
 1691 0036 1B78     		ldrb	r3, [r3]
 733:.\Generated_Source\PSoC4/ETH.c **** }
 1692              		.loc 1 733 0
 1693 0038 181C     		mov	r0, r3
 1694 003a BD46     		mov	sp, r7
 1695 003c 04B0     		add	sp, sp, #16
 1696              		@ sp needed for prologue
 1697 003e 80BD     		pop	{r7, pc}
 1698              	.L62:
 1699              		.align	2
 1700              	.L61:
 1701 0040 03040000 		.word	1027
 1702              		.cfi_endproc
 1703              	.LFE26:
 1704              		.size	ETH_GetSocketStatus, .-ETH_GetSocketStatus
 1705              		.section	.text.ETH_SetSocketSourcePort,"ax",%progbits
 1706              		.align	2
 1707              		.global	ETH_SetSocketSourcePort
 1708              		.code	16
 1709              		.thumb_func
 1710              		.type	ETH_SetSocketSourcePort, %function
 1711              	ETH_SetSocketSourcePort:
 1712              	.LFB27:
 734:.\Generated_Source\PSoC4/ETH.c **** /* ------------------------------------------------------------------------ */
 735:.\Generated_Source\PSoC4/ETH.c **** /**
ARM GAS  C:\Users\CHUCK~1.ERH\AppData\Local\Temp\ccSVmyDA.s 			page 44


 736:.\Generated_Source\PSoC4/ETH.c ****  * \brief Write a value to the socket source port register
 737:.\Generated_Source\PSoC4/ETH.c ****  * \param socket the socket number for the addressed register
 738:.\Generated_Source\PSoC4/ETH.c ****  * \param port the value to be written to the register
 739:.\Generated_Source\PSoC4/ETH.c ****  */
 740:.\Generated_Source\PSoC4/ETH.c **** void ETH_SetSocketSourcePort(uint8 socket, uint16 port)
 741:.\Generated_Source\PSoC4/ETH.c **** {
 1713              		.loc 1 741 0
 1714              		.cfi_startproc
 1715 0000 80B5     		push	{r7, lr}
 1716              	.LCFI79:
 1717              		.cfi_def_cfa_offset 8
 1718              		.cfi_offset 7, -8
 1719              		.cfi_offset 14, -4
 1720 0002 82B0     		sub	sp, sp, #8
 1721              	.LCFI80:
 1722              		.cfi_def_cfa_offset 16
 1723 0004 00AF     		add	r7, sp, #0
 1724              	.LCFI81:
 1725              		.cfi_def_cfa_register 7
 1726 0006 0A1C     		mov	r2, r1
 1727 0008 FB1D     		add	r3, r7, #7
 1728 000a 011C     		add	r1, r0, #0
 1729 000c 1970     		strb	r1, [r3]
 1730 000e 3B1D     		add	r3, r7, #4
 1731 0010 1A80     		strh	r2, [r3]
 742:.\Generated_Source\PSoC4/ETH.c **** 	ETH_ChipWrite16(ETH_SOCKET_REG(socket, ETH_SOCK_PORT),port);
 1732              		.loc 1 742 0
 1733 0012 FB1D     		add	r3, r7, #7
 1734 0014 1B78     		ldrb	r3, [r3]
 1735 0016 9BB2     		uxth	r3, r3
 1736 0018 1B02     		lsl	r3, r3, #8
 1737 001a 9BB2     		uxth	r3, r3
 1738 001c 054A     		ldr	r2, .L64
 1739 001e 9B18     		add	r3, r3, r2
 1740 0020 9AB2     		uxth	r2, r3
 1741 0022 3B1D     		add	r3, r7, #4
 1742 0024 1B88     		ldrh	r3, [r3]
 1743 0026 101C     		mov	r0, r2
 1744 0028 191C     		mov	r1, r3
 1745 002a FFF7FEFF 		bl	ETH_ChipWrite16
 743:.\Generated_Source\PSoC4/ETH.c **** }
 1746              		.loc 1 743 0
 1747 002e BD46     		mov	sp, r7
 1748 0030 02B0     		add	sp, sp, #8
 1749              		@ sp needed for prologue
 1750 0032 80BD     		pop	{r7, pc}
 1751              	.L65:
 1752              		.align	2
 1753              	.L64:
 1754 0034 04040000 		.word	1028
 1755              		.cfi_endproc
 1756              	.LFE27:
 1757              		.size	ETH_SetSocketSourcePort, .-ETH_SetSocketSourcePort
 1758              		.section	.text.ETH_SetSocketDestMAC,"ax",%progbits
 1759              		.align	2
 1760              		.global	ETH_SetSocketDestMAC
 1761              		.code	16
ARM GAS  C:\Users\CHUCK~1.ERH\AppData\Local\Temp\ccSVmyDA.s 			page 45


 1762              		.thumb_func
 1763              		.type	ETH_SetSocketDestMAC, %function
 1764              	ETH_SetSocketDestMAC:
 1765              	.LFB28:
 744:.\Generated_Source\PSoC4/ETH.c **** /* ------------------------------------------------------------------------ */
 745:.\Generated_Source\PSoC4/ETH.c **** /**
 746:.\Generated_Source\PSoC4/ETH.c ****  * \brief Write a value to the socket Destination hardware address register
 747:.\Generated_Source\PSoC4/ETH.c ****  * \param socket the socket number for the addressed register
 748:.\Generated_Source\PSoC4/ETH.c ****  * \param *mac poitner to the array holding the values to be written to the register
 749:.\Generated_Source\PSoC4/ETH.c ****  */
 750:.\Generated_Source\PSoC4/ETH.c **** void ETH_SetSocketDestMAC(uint8 socket, uint8* mac)
 751:.\Generated_Source\PSoC4/ETH.c **** { 
 1766              		.loc 1 751 0
 1767              		.cfi_startproc
 1768 0000 80B5     		push	{r7, lr}
 1769              	.LCFI82:
 1770              		.cfi_def_cfa_offset 8
 1771              		.cfi_offset 7, -8
 1772              		.cfi_offset 14, -4
 1773 0002 82B0     		sub	sp, sp, #8
 1774              	.LCFI83:
 1775              		.cfi_def_cfa_offset 16
 1776 0004 00AF     		add	r7, sp, #0
 1777              	.LCFI84:
 1778              		.cfi_def_cfa_register 7
 1779 0006 021C     		mov	r2, r0
 1780 0008 3960     		str	r1, [r7]
 1781 000a FB1D     		add	r3, r7, #7
 1782 000c 1A70     		strb	r2, [r3]
 752:.\Generated_Source\PSoC4/ETH.c **** 	ETH_ChipWrite( ETH_SOCKET_REG(socket, ETH_SOCK_DHAR), &mac[0], 6);
 1783              		.loc 1 752 0
 1784 000e FB1D     		add	r3, r7, #7
 1785 0010 1B78     		ldrb	r3, [r3]
 1786 0012 9BB2     		uxth	r3, r3
 1787 0014 1B02     		lsl	r3, r3, #8
 1788 0016 9BB2     		uxth	r3, r3
 1789 0018 054A     		ldr	r2, .L67
 1790 001a 9B18     		add	r3, r3, r2
 1791 001c 9AB2     		uxth	r2, r3
 1792 001e 3B68     		ldr	r3, [r7]
 1793 0020 101C     		mov	r0, r2
 1794 0022 191C     		mov	r1, r3
 1795 0024 0622     		mov	r2, #6
 1796 0026 FFF7FEFF 		bl	ETH_ChipWrite
 753:.\Generated_Source\PSoC4/ETH.c **** }
 1797              		.loc 1 753 0
 1798 002a BD46     		mov	sp, r7
 1799 002c 02B0     		add	sp, sp, #8
 1800              		@ sp needed for prologue
 1801 002e 80BD     		pop	{r7, pc}
 1802              	.L68:
 1803              		.align	2
 1804              	.L67:
 1805 0030 06040000 		.word	1030
 1806              		.cfi_endproc
 1807              	.LFE28:
 1808              		.size	ETH_SetSocketDestMAC, .-ETH_SetSocketDestMAC
ARM GAS  C:\Users\CHUCK~1.ERH\AppData\Local\Temp\ccSVmyDA.s 			page 46


 1809              		.section	.text.ETH_SetSocketDestIP,"ax",%progbits
 1810              		.align	2
 1811              		.global	ETH_SetSocketDestIP
 1812              		.code	16
 1813              		.thumb_func
 1814              		.type	ETH_SetSocketDestIP, %function
 1815              	ETH_SetSocketDestIP:
 1816              	.LFB29:
 754:.\Generated_Source\PSoC4/ETH.c **** /* ------------------------------------------------------------------------ */
 755:.\Generated_Source\PSoC4/ETH.c **** /**
 756:.\Generated_Source\PSoC4/ETH.c ****  * \brief Write a value to the socket Destination IP address register
 757:.\Generated_Source\PSoC4/ETH.c ****  * \param socket the socket number for the addressed register
 758:.\Generated_Source\PSoC4/ETH.c ****  * \param ip the value to be written to the register
 759:.\Generated_Source\PSoC4/ETH.c ****  */
 760:.\Generated_Source\PSoC4/ETH.c **** void ETH_SetSocketDestIP(uint8 socket, uint32 ip)
 761:.\Generated_Source\PSoC4/ETH.c **** { 
 1817              		.loc 1 761 0
 1818              		.cfi_startproc
 1819 0000 80B5     		push	{r7, lr}
 1820              	.LCFI85:
 1821              		.cfi_def_cfa_offset 8
 1822              		.cfi_offset 7, -8
 1823              		.cfi_offset 14, -4
 1824 0002 82B0     		sub	sp, sp, #8
 1825              	.LCFI86:
 1826              		.cfi_def_cfa_offset 16
 1827 0004 00AF     		add	r7, sp, #0
 1828              	.LCFI87:
 1829              		.cfi_def_cfa_register 7
 1830 0006 021C     		mov	r2, r0
 1831 0008 3960     		str	r1, [r7]
 1832 000a FB1D     		add	r3, r7, #7
 1833 000c 1A70     		strb	r2, [r3]
 762:.\Generated_Source\PSoC4/ETH.c **** 	ETH_ChipWrite(ETH_SOCKET_REG(socket, ETH_SOCK_DIPR), (uint8*)&ip, 4);
 1834              		.loc 1 762 0
 1835 000e FB1D     		add	r3, r7, #7
 1836 0010 1B78     		ldrb	r3, [r3]
 1837 0012 9BB2     		uxth	r3, r3
 1838 0014 1B02     		lsl	r3, r3, #8
 1839 0016 9BB2     		uxth	r3, r3
 1840 0018 054A     		ldr	r2, .L70
 1841 001a 9B18     		add	r3, r3, r2
 1842 001c 9AB2     		uxth	r2, r3
 1843 001e 3B1C     		mov	r3, r7
 1844 0020 101C     		mov	r0, r2
 1845 0022 191C     		mov	r1, r3
 1846 0024 0422     		mov	r2, #4
 1847 0026 FFF7FEFF 		bl	ETH_ChipWrite
 763:.\Generated_Source\PSoC4/ETH.c **** }
 1848              		.loc 1 763 0
 1849 002a BD46     		mov	sp, r7
 1850 002c 02B0     		add	sp, sp, #8
 1851              		@ sp needed for prologue
 1852 002e 80BD     		pop	{r7, pc}
 1853              	.L71:
 1854              		.align	2
 1855              	.L70:
ARM GAS  C:\Users\CHUCK~1.ERH\AppData\Local\Temp\ccSVmyDA.s 			page 47


 1856 0030 0C040000 		.word	1036
 1857              		.cfi_endproc
 1858              	.LFE29:
 1859              		.size	ETH_SetSocketDestIP, .-ETH_SetSocketDestIP
 1860              		.section	.text.ETH_SetSocketDestPort,"ax",%progbits
 1861              		.align	2
 1862              		.global	ETH_SetSocketDestPort
 1863              		.code	16
 1864              		.thumb_func
 1865              		.type	ETH_SetSocketDestPort, %function
 1866              	ETH_SetSocketDestPort:
 1867              	.LFB30:
 764:.\Generated_Source\PSoC4/ETH.c **** /* ------------------------------------------------------------------------ */
 765:.\Generated_Source\PSoC4/ETH.c **** /**
 766:.\Generated_Source\PSoC4/ETH.c ****  * \brief Write a value to the socket destination port register
 767:.\Generated_Source\PSoC4/ETH.c ****  * \param socket the socket number for the addressed register
 768:.\Generated_Source\PSoC4/ETH.c ****  * \param port the value to be written to the register
 769:.\Generated_Source\PSoC4/ETH.c ****  */
 770:.\Generated_Source\PSoC4/ETH.c **** void ETH_SetSocketDestPort(uint8 socket, uint16 port)
 771:.\Generated_Source\PSoC4/ETH.c **** { 
 1868              		.loc 1 771 0
 1869              		.cfi_startproc
 1870 0000 80B5     		push	{r7, lr}
 1871              	.LCFI88:
 1872              		.cfi_def_cfa_offset 8
 1873              		.cfi_offset 7, -8
 1874              		.cfi_offset 14, -4
 1875 0002 82B0     		sub	sp, sp, #8
 1876              	.LCFI89:
 1877              		.cfi_def_cfa_offset 16
 1878 0004 00AF     		add	r7, sp, #0
 1879              	.LCFI90:
 1880              		.cfi_def_cfa_register 7
 1881 0006 0A1C     		mov	r2, r1
 1882 0008 FB1D     		add	r3, r7, #7
 1883 000a 011C     		add	r1, r0, #0
 1884 000c 1970     		strb	r1, [r3]
 1885 000e 3B1D     		add	r3, r7, #4
 1886 0010 1A80     		strh	r2, [r3]
 772:.\Generated_Source\PSoC4/ETH.c **** 	ETH_ChipWrite16( ETH_SOCKET_REG(socket, ETH_SOCK_DPORT), port);
 1887              		.loc 1 772 0
 1888 0012 FB1D     		add	r3, r7, #7
 1889 0014 1B78     		ldrb	r3, [r3]
 1890 0016 9BB2     		uxth	r3, r3
 1891 0018 1B02     		lsl	r3, r3, #8
 1892 001a 9BB2     		uxth	r3, r3
 1893 001c 8222     		mov	r2, #130
 1894 001e D200     		lsl	r2, r2, #3
 1895 0020 9B18     		add	r3, r3, r2
 1896 0022 9AB2     		uxth	r2, r3
 1897 0024 3B1D     		add	r3, r7, #4
 1898 0026 1B88     		ldrh	r3, [r3]
 1899 0028 101C     		mov	r0, r2
 1900 002a 191C     		mov	r1, r3
 1901 002c FFF7FEFF 		bl	ETH_ChipWrite16
 773:.\Generated_Source\PSoC4/ETH.c **** }
 1902              		.loc 1 773 0
ARM GAS  C:\Users\CHUCK~1.ERH\AppData\Local\Temp\ccSVmyDA.s 			page 48


 1903 0030 BD46     		mov	sp, r7
 1904 0032 02B0     		add	sp, sp, #8
 1905              		@ sp needed for prologue
 1906 0034 80BD     		pop	{r7, pc}
 1907              		.cfi_endproc
 1908              	.LFE30:
 1909              		.size	ETH_SetSocketDestPort, .-ETH_SetSocketDestPort
 1910 0036 C046     		.section	.text.ETH_GetSocketTxFree,"ax",%progbits
 1911              		.align	2
 1912              		.global	ETH_GetSocketTxFree
 1913              		.code	16
 1914              		.thumb_func
 1915              		.type	ETH_GetSocketTxFree, %function
 1916              	ETH_GetSocketTxFree:
 1917              	.LFB31:
 774:.\Generated_Source\PSoC4/ETH.c **** /* ------------------------------------------------------------------------ */
 775:.\Generated_Source\PSoC4/ETH.c **** /**
 776:.\Generated_Source\PSoC4/ETH.c ****  * \brief Read a value from the socket Tx free size register
 777:.\Generated_Source\PSoC4/ETH.c ****  * \param socket the socket number for the addressed register
 778:.\Generated_Source\PSoC4/ETH.c ****  * \returns the value read from the register
 779:.\Generated_Source\PSoC4/ETH.c ****  */
 780:.\Generated_Source\PSoC4/ETH.c **** uint16 ETH_GetSocketTxFree(uint8 socket)
 781:.\Generated_Source\PSoC4/ETH.c **** { 
 1918              		.loc 1 781 0
 1919              		.cfi_startproc
 1920 0000 80B5     		push	{r7, lr}
 1921              	.LCFI91:
 1922              		.cfi_def_cfa_offset 8
 1923              		.cfi_offset 7, -8
 1924              		.cfi_offset 14, -4
 1925 0002 82B0     		sub	sp, sp, #8
 1926              	.LCFI92:
 1927              		.cfi_def_cfa_offset 16
 1928 0004 00AF     		add	r7, sp, #0
 1929              	.LCFI93:
 1930              		.cfi_def_cfa_register 7
 1931 0006 021C     		mov	r2, r0
 1932 0008 FB1D     		add	r3, r7, #7
 1933 000a 1A70     		strb	r2, [r3]
 782:.\Generated_Source\PSoC4/ETH.c **** 	return ETH_ChipRead16(ETH_SOCKET_REG(socket, ETH_SOCK_TXFSR));
 1934              		.loc 1 782 0
 1935 000c FB1D     		add	r3, r7, #7
 1936 000e 1B78     		ldrb	r3, [r3]
 1937 0010 9BB2     		uxth	r3, r3
 1938 0012 1B02     		lsl	r3, r3, #8
 1939 0014 9BB2     		uxth	r3, r3
 1940 0016 8422     		mov	r2, #132
 1941 0018 D200     		lsl	r2, r2, #3
 1942 001a 9B18     		add	r3, r3, r2
 1943 001c 9BB2     		uxth	r3, r3
 1944 001e 181C     		mov	r0, r3
 1945 0020 FFF7FEFF 		bl	ETH_ChipRead16
 1946 0024 031C     		mov	r3, r0
 783:.\Generated_Source\PSoC4/ETH.c **** }
 1947              		.loc 1 783 0
 1948 0026 181C     		mov	r0, r3
 1949 0028 BD46     		mov	sp, r7
ARM GAS  C:\Users\CHUCK~1.ERH\AppData\Local\Temp\ccSVmyDA.s 			page 49


 1950 002a 02B0     		add	sp, sp, #8
 1951              		@ sp needed for prologue
 1952 002c 80BD     		pop	{r7, pc}
 1953              		.cfi_endproc
 1954              	.LFE31:
 1955              		.size	ETH_GetSocketTxFree, .-ETH_GetSocketTxFree
 1956 002e C046     		.section	.text.ETH_SetSocketTxWritePtr,"ax",%progbits
 1957              		.align	2
 1958              		.global	ETH_SetSocketTxWritePtr
 1959              		.code	16
 1960              		.thumb_func
 1961              		.type	ETH_SetSocketTxWritePtr, %function
 1962              	ETH_SetSocketTxWritePtr:
 1963              	.LFB32:
 784:.\Generated_Source\PSoC4/ETH.c **** /* ------------------------------------------------------------------------ */
 785:.\Generated_Source\PSoC4/ETH.c **** /**
 786:.\Generated_Source\PSoC4/ETH.c ****  * \brief Write a value to the socket tx write pointer register
 787:.\Generated_Source\PSoC4/ETH.c ****  * \param socket the socket number for the addressed register
 788:.\Generated_Source\PSoC4/ETH.c ****  * \param ptr the value to be written to the register
 789:.\Generated_Source\PSoC4/ETH.c ****  */
 790:.\Generated_Source\PSoC4/ETH.c **** void ETH_SetSocketTxWritePtr(uint8 socket, uint16 ptr)
 791:.\Generated_Source\PSoC4/ETH.c **** { 
 1964              		.loc 1 791 0
 1965              		.cfi_startproc
 1966 0000 80B5     		push	{r7, lr}
 1967              	.LCFI94:
 1968              		.cfi_def_cfa_offset 8
 1969              		.cfi_offset 7, -8
 1970              		.cfi_offset 14, -4
 1971 0002 82B0     		sub	sp, sp, #8
 1972              	.LCFI95:
 1973              		.cfi_def_cfa_offset 16
 1974 0004 00AF     		add	r7, sp, #0
 1975              	.LCFI96:
 1976              		.cfi_def_cfa_register 7
 1977 0006 0A1C     		mov	r2, r1
 1978 0008 FB1D     		add	r3, r7, #7
 1979 000a 011C     		add	r1, r0, #0
 1980 000c 1970     		strb	r1, [r3]
 1981 000e 3B1D     		add	r3, r7, #4
 1982 0010 1A80     		strh	r2, [r3]
 792:.\Generated_Source\PSoC4/ETH.c **** 	ETH_ChipWrite16(ETH_SOCKET_REG(socket, ETH_SOCK_TXWR),ptr);
 1983              		.loc 1 792 0
 1984 0012 FB1D     		add	r3, r7, #7
 1985 0014 1B78     		ldrb	r3, [r3]
 1986 0016 9BB2     		uxth	r3, r3
 1987 0018 1B02     		lsl	r3, r3, #8
 1988 001a 9BB2     		uxth	r3, r3
 1989 001c 054A     		ldr	r2, .L76
 1990 001e 9B18     		add	r3, r3, r2
 1991 0020 9AB2     		uxth	r2, r3
 1992 0022 3B1D     		add	r3, r7, #4
 1993 0024 1B88     		ldrh	r3, [r3]
 1994 0026 101C     		mov	r0, r2
 1995 0028 191C     		mov	r1, r3
 1996 002a FFF7FEFF 		bl	ETH_ChipWrite16
 793:.\Generated_Source\PSoC4/ETH.c **** }
ARM GAS  C:\Users\CHUCK~1.ERH\AppData\Local\Temp\ccSVmyDA.s 			page 50


 1997              		.loc 1 793 0
 1998 002e BD46     		mov	sp, r7
 1999 0030 02B0     		add	sp, sp, #8
 2000              		@ sp needed for prologue
 2001 0032 80BD     		pop	{r7, pc}
 2002              	.L77:
 2003              		.align	2
 2004              	.L76:
 2005 0034 24040000 		.word	1060
 2006              		.cfi_endproc
 2007              	.LFE32:
 2008              		.size	ETH_SetSocketTxWritePtr, .-ETH_SetSocketTxWritePtr
 2009              		.section	.text.ETH_GetSocketTxWritePtr,"ax",%progbits
 2010              		.align	2
 2011              		.global	ETH_GetSocketTxWritePtr
 2012              		.code	16
 2013              		.thumb_func
 2014              		.type	ETH_GetSocketTxWritePtr, %function
 2015              	ETH_GetSocketTxWritePtr:
 2016              	.LFB33:
 794:.\Generated_Source\PSoC4/ETH.c **** /* ------------------------------------------------------------------------ */
 795:.\Generated_Source\PSoC4/ETH.c **** /**
 796:.\Generated_Source\PSoC4/ETH.c ****  * \brief Read a value from the socket tx buffer write pointer register
 797:.\Generated_Source\PSoC4/ETH.c ****  * \param socket the socket number for the addressed register
 798:.\Generated_Source\PSoC4/ETH.c ****  * \returns the value read from the register
 799:.\Generated_Source\PSoC4/ETH.c ****  */
 800:.\Generated_Source\PSoC4/ETH.c **** uint16 ETH_GetSocketTxWritePtr(uint8 socket)
 801:.\Generated_Source\PSoC4/ETH.c **** { 
 2017              		.loc 1 801 0
 2018              		.cfi_startproc
 2019 0000 80B5     		push	{r7, lr}
 2020              	.LCFI97:
 2021              		.cfi_def_cfa_offset 8
 2022              		.cfi_offset 7, -8
 2023              		.cfi_offset 14, -4
 2024 0002 82B0     		sub	sp, sp, #8
 2025              	.LCFI98:
 2026              		.cfi_def_cfa_offset 16
 2027 0004 00AF     		add	r7, sp, #0
 2028              	.LCFI99:
 2029              		.cfi_def_cfa_register 7
 2030 0006 021C     		mov	r2, r0
 2031 0008 FB1D     		add	r3, r7, #7
 2032 000a 1A70     		strb	r2, [r3]
 802:.\Generated_Source\PSoC4/ETH.c **** 	return ETH_ChipRead16(ETH_SOCKET_REG(socket, ETH_SOCK_TXWR));
 2033              		.loc 1 802 0
 2034 000c FB1D     		add	r3, r7, #7
 2035 000e 1B78     		ldrb	r3, [r3]
 2036 0010 9BB2     		uxth	r3, r3
 2037 0012 1B02     		lsl	r3, r3, #8
 2038 0014 9BB2     		uxth	r3, r3
 2039 0016 054A     		ldr	r2, .L80
 2040 0018 9B18     		add	r3, r3, r2
 2041 001a 9BB2     		uxth	r3, r3
 2042 001c 181C     		mov	r0, r3
 2043 001e FFF7FEFF 		bl	ETH_ChipRead16
 2044 0022 031C     		mov	r3, r0
ARM GAS  C:\Users\CHUCK~1.ERH\AppData\Local\Temp\ccSVmyDA.s 			page 51


 803:.\Generated_Source\PSoC4/ETH.c **** }
 2045              		.loc 1 803 0
 2046 0024 181C     		mov	r0, r3
 2047 0026 BD46     		mov	sp, r7
 2048 0028 02B0     		add	sp, sp, #8
 2049              		@ sp needed for prologue
 2050 002a 80BD     		pop	{r7, pc}
 2051              	.L81:
 2052              		.align	2
 2053              	.L80:
 2054 002c 24040000 		.word	1060
 2055              		.cfi_endproc
 2056              	.LFE33:
 2057              		.size	ETH_GetSocketTxWritePtr, .-ETH_GetSocketTxWritePtr
 2058              		.section	.text.ETH_GetSocketRxSize,"ax",%progbits
 2059              		.align	2
 2060              		.global	ETH_GetSocketRxSize
 2061              		.code	16
 2062              		.thumb_func
 2063              		.type	ETH_GetSocketRxSize, %function
 2064              	ETH_GetSocketRxSize:
 2065              	.LFB34:
 804:.\Generated_Source\PSoC4/ETH.c **** /* ------------------------------------------------------------------------ */
 805:.\Generated_Source\PSoC4/ETH.c **** /**
 806:.\Generated_Source\PSoC4/ETH.c ****  * \brief Read a value from the socket rx received data size register
 807:.\Generated_Source\PSoC4/ETH.c ****  * \param socket the socket number for the addressed register
 808:.\Generated_Source\PSoC4/ETH.c ****  * \returns the value read from the register
 809:.\Generated_Source\PSoC4/ETH.c ****  */
 810:.\Generated_Source\PSoC4/ETH.c **** uint16 ETH_GetSocketRxSize(uint8 socket)
 811:.\Generated_Source\PSoC4/ETH.c **** {
 2066              		.loc 1 811 0
 2067              		.cfi_startproc
 2068 0000 80B5     		push	{r7, lr}
 2069              	.LCFI100:
 2070              		.cfi_def_cfa_offset 8
 2071              		.cfi_offset 7, -8
 2072              		.cfi_offset 14, -4
 2073 0002 82B0     		sub	sp, sp, #8
 2074              	.LCFI101:
 2075              		.cfi_def_cfa_offset 16
 2076 0004 00AF     		add	r7, sp, #0
 2077              	.LCFI102:
 2078              		.cfi_def_cfa_register 7
 2079 0006 021C     		mov	r2, r0
 2080 0008 FB1D     		add	r3, r7, #7
 2081 000a 1A70     		strb	r2, [r3]
 812:.\Generated_Source\PSoC4/ETH.c **** 	return ETH_ChipRead16(ETH_SOCKET_REG(socket, ETH_SOCK_RXRSR));
 2082              		.loc 1 812 0
 2083 000c FB1D     		add	r3, r7, #7
 2084 000e 1B78     		ldrb	r3, [r3]
 2085 0010 9BB2     		uxth	r3, r3
 2086 0012 1B02     		lsl	r3, r3, #8
 2087 0014 9BB2     		uxth	r3, r3
 2088 0016 054A     		ldr	r2, .L84
 2089 0018 9B18     		add	r3, r3, r2
 2090 001a 9BB2     		uxth	r3, r3
 2091 001c 181C     		mov	r0, r3
ARM GAS  C:\Users\CHUCK~1.ERH\AppData\Local\Temp\ccSVmyDA.s 			page 52


 2092 001e FFF7FEFF 		bl	ETH_ChipRead16
 2093 0022 031C     		mov	r3, r0
 813:.\Generated_Source\PSoC4/ETH.c **** }
 2094              		.loc 1 813 0
 2095 0024 181C     		mov	r0, r3
 2096 0026 BD46     		mov	sp, r7
 2097 0028 02B0     		add	sp, sp, #8
 2098              		@ sp needed for prologue
 2099 002a 80BD     		pop	{r7, pc}
 2100              	.L85:
 2101              		.align	2
 2102              	.L84:
 2103 002c 26040000 		.word	1062
 2104              		.cfi_endproc
 2105              	.LFE34:
 2106              		.size	ETH_GetSocketRxSize, .-ETH_GetSocketRxSize
 2107              		.section	.text.ETH_SetSocketRxReadPtr,"ax",%progbits
 2108              		.align	2
 2109              		.global	ETH_SetSocketRxReadPtr
 2110              		.code	16
 2111              		.thumb_func
 2112              		.type	ETH_SetSocketRxReadPtr, %function
 2113              	ETH_SetSocketRxReadPtr:
 2114              	.LFB35:
 814:.\Generated_Source\PSoC4/ETH.c **** /* ------------------------------------------------------------------------ */
 815:.\Generated_Source\PSoC4/ETH.c **** /**
 816:.\Generated_Source\PSoC4/ETH.c ****  * \brief Write a value to the socket rx read pointer register
 817:.\Generated_Source\PSoC4/ETH.c ****  * \param socket the socket number for the addressed register
 818:.\Generated_Source\PSoC4/ETH.c ****  * \param ptr the value to be written to the register
 819:.\Generated_Source\PSoC4/ETH.c ****  */
 820:.\Generated_Source\PSoC4/ETH.c **** void ETH_SetSocketRxReadPtr(uint8 socket, uint16 ptr)
 821:.\Generated_Source\PSoC4/ETH.c **** { 
 2115              		.loc 1 821 0
 2116              		.cfi_startproc
 2117 0000 80B5     		push	{r7, lr}
 2118              	.LCFI103:
 2119              		.cfi_def_cfa_offset 8
 2120              		.cfi_offset 7, -8
 2121              		.cfi_offset 14, -4
 2122 0002 82B0     		sub	sp, sp, #8
 2123              	.LCFI104:
 2124              		.cfi_def_cfa_offset 16
 2125 0004 00AF     		add	r7, sp, #0
 2126              	.LCFI105:
 2127              		.cfi_def_cfa_register 7
 2128 0006 0A1C     		mov	r2, r1
 2129 0008 FB1D     		add	r3, r7, #7
 2130 000a 011C     		add	r1, r0, #0
 2131 000c 1970     		strb	r1, [r3]
 2132 000e 3B1D     		add	r3, r7, #4
 2133 0010 1A80     		strh	r2, [r3]
 822:.\Generated_Source\PSoC4/ETH.c **** 	ETH_ChipWrite16(ETH_SOCKET_REG(socket, ETH_SOCK_RXRD),ptr);
 2134              		.loc 1 822 0
 2135 0012 FB1D     		add	r3, r7, #7
 2136 0014 1B78     		ldrb	r3, [r3]
 2137 0016 9BB2     		uxth	r3, r3
 2138 0018 1B02     		lsl	r3, r3, #8
ARM GAS  C:\Users\CHUCK~1.ERH\AppData\Local\Temp\ccSVmyDA.s 			page 53


 2139 001a 9BB2     		uxth	r3, r3
 2140 001c 8522     		mov	r2, #133
 2141 001e D200     		lsl	r2, r2, #3
 2142 0020 9B18     		add	r3, r3, r2
 2143 0022 9AB2     		uxth	r2, r3
 2144 0024 3B1D     		add	r3, r7, #4
 2145 0026 1B88     		ldrh	r3, [r3]
 2146 0028 101C     		mov	r0, r2
 2147 002a 191C     		mov	r1, r3
 2148 002c FFF7FEFF 		bl	ETH_ChipWrite16
 823:.\Generated_Source\PSoC4/ETH.c **** }
 2149              		.loc 1 823 0
 2150 0030 BD46     		mov	sp, r7
 2151 0032 02B0     		add	sp, sp, #8
 2152              		@ sp needed for prologue
 2153 0034 80BD     		pop	{r7, pc}
 2154              		.cfi_endproc
 2155              	.LFE35:
 2156              		.size	ETH_SetSocketRxReadPtr, .-ETH_SetSocketRxReadPtr
 2157 0036 C046     		.section	.text.ETH_GetSocketRxReadPtr,"ax",%progbits
 2158              		.align	2
 2159              		.global	ETH_GetSocketRxReadPtr
 2160              		.code	16
 2161              		.thumb_func
 2162              		.type	ETH_GetSocketRxReadPtr, %function
 2163              	ETH_GetSocketRxReadPtr:
 2164              	.LFB36:
 824:.\Generated_Source\PSoC4/ETH.c **** /* ------------------------------------------------------------------------ */
 825:.\Generated_Source\PSoC4/ETH.c **** /**
 826:.\Generated_Source\PSoC4/ETH.c ****  * \brief Read a value from the socket rx buffer read pointer register
 827:.\Generated_Source\PSoC4/ETH.c ****  * \param socket the socket number for the addressed register
 828:.\Generated_Source\PSoC4/ETH.c ****  * \returns the value read from the register
 829:.\Generated_Source\PSoC4/ETH.c ****  */
 830:.\Generated_Source\PSoC4/ETH.c **** uint16 ETH_GetSocketRxReadPtr(uint8 socket)
 831:.\Generated_Source\PSoC4/ETH.c **** { 
 2165              		.loc 1 831 0
 2166              		.cfi_startproc
 2167 0000 80B5     		push	{r7, lr}
 2168              	.LCFI106:
 2169              		.cfi_def_cfa_offset 8
 2170              		.cfi_offset 7, -8
 2171              		.cfi_offset 14, -4
 2172 0002 82B0     		sub	sp, sp, #8
 2173              	.LCFI107:
 2174              		.cfi_def_cfa_offset 16
 2175 0004 00AF     		add	r7, sp, #0
 2176              	.LCFI108:
 2177              		.cfi_def_cfa_register 7
 2178 0006 021C     		mov	r2, r0
 2179 0008 FB1D     		add	r3, r7, #7
 2180 000a 1A70     		strb	r2, [r3]
 832:.\Generated_Source\PSoC4/ETH.c **** 	return ETH_ChipRead16(ETH_SOCKET_REG(socket, ETH_SOCK_RXRD));
 2181              		.loc 1 832 0
 2182 000c FB1D     		add	r3, r7, #7
 2183 000e 1B78     		ldrb	r3, [r3]
 2184 0010 9BB2     		uxth	r3, r3
 2185 0012 1B02     		lsl	r3, r3, #8
ARM GAS  C:\Users\CHUCK~1.ERH\AppData\Local\Temp\ccSVmyDA.s 			page 54


 2186 0014 9BB2     		uxth	r3, r3
 2187 0016 8522     		mov	r2, #133
 2188 0018 D200     		lsl	r2, r2, #3
 2189 001a 9B18     		add	r3, r3, r2
 2190 001c 9BB2     		uxth	r3, r3
 2191 001e 181C     		mov	r0, r3
 2192 0020 FFF7FEFF 		bl	ETH_ChipRead16
 2193 0024 031C     		mov	r3, r0
 833:.\Generated_Source\PSoC4/ETH.c **** }
 2194              		.loc 1 833 0
 2195 0026 181C     		mov	r0, r3
 2196 0028 BD46     		mov	sp, r7
 2197 002a 02B0     		add	sp, sp, #8
 2198              		@ sp needed for prologue
 2199 002c 80BD     		pop	{r7, pc}
 2200              		.cfi_endproc
 2201              	.LFE36:
 2202              		.size	ETH_GetSocketRxReadPtr, .-ETH_GetSocketRxReadPtr
 2203 002e C046     		.section	.text.ETH_SetSocketRxWritePtr,"ax",%progbits
 2204              		.align	2
 2205              		.global	ETH_SetSocketRxWritePtr
 2206              		.code	16
 2207              		.thumb_func
 2208              		.type	ETH_SetSocketRxWritePtr, %function
 2209              	ETH_SetSocketRxWritePtr:
 2210              	.LFB37:
 834:.\Generated_Source\PSoC4/ETH.c **** /* ------------------------------------------------------------------------ */
 835:.\Generated_Source\PSoC4/ETH.c **** /**
 836:.\Generated_Source\PSoC4/ETH.c ****  * \brief Set the write poitner starting address for a socket
 837:.\Generated_Source\PSoC4/ETH.c ****  * \param socket the socket number to modify
 838:.\Generated_Source\PSoC4/ETH.c ****  * \param ptr the address value to write in to the pointer register
 839:.\Generated_Source\PSoC4/ETH.c ****  */
 840:.\Generated_Source\PSoC4/ETH.c **** void ETH_SetSocketRxWritePtr( uint8 socket, uint16 ptr)
 841:.\Generated_Source\PSoC4/ETH.c **** {
 2211              		.loc 1 841 0
 2212              		.cfi_startproc
 2213 0000 80B5     		push	{r7, lr}
 2214              	.LCFI109:
 2215              		.cfi_def_cfa_offset 8
 2216              		.cfi_offset 7, -8
 2217              		.cfi_offset 14, -4
 2218 0002 82B0     		sub	sp, sp, #8
 2219              	.LCFI110:
 2220              		.cfi_def_cfa_offset 16
 2221 0004 00AF     		add	r7, sp, #0
 2222              	.LCFI111:
 2223              		.cfi_def_cfa_register 7
 2224 0006 0A1C     		mov	r2, r1
 2225 0008 FB1D     		add	r3, r7, #7
 2226 000a 011C     		add	r1, r0, #0
 2227 000c 1970     		strb	r1, [r3]
 2228 000e 3B1D     		add	r3, r7, #4
 2229 0010 1A80     		strh	r2, [r3]
 842:.\Generated_Source\PSoC4/ETH.c **** 	/*
 843:.\Generated_Source\PSoC4/ETH.c **** 	 * This function is not used on the W5100, since there is no register
 844:.\Generated_Source\PSoC4/ETH.c **** 	 * defined in the memor map to provide this capability
 845:.\Generated_Source\PSoC4/ETH.c **** 	 */
ARM GAS  C:\Users\CHUCK~1.ERH\AppData\Local\Temp\ccSVmyDA.s 			page 55


 846:.\Generated_Source\PSoC4/ETH.c **** #if (1 == 2)
 847:.\Generated_Source\PSoC4/ETH.c **** 	/*
 848:.\Generated_Source\PSoC4/ETH.c **** 	 * for the W5200 device, write the pointer value to the register
 849:.\Generated_Source\PSoC4/ETH.c **** 	 */
 850:.\Generated_Source\PSoC4/ETH.c **** 	ETH_ChipWrite16( ETH_SOCKET_REG(socket, ETH_SOCK_RXWR), ptr);
 851:.\Generated_Source\PSoC4/ETH.c **** #endif
 852:.\Generated_Source\PSoC4/ETH.c **** }
 2230              		.loc 1 852 0
 2231 0012 BD46     		mov	sp, r7
 2232 0014 02B0     		add	sp, sp, #8
 2233              		@ sp needed for prologue
 2234 0016 80BD     		pop	{r7, pc}
 2235              		.cfi_endproc
 2236              	.LFE37:
 2237              		.size	ETH_SetSocketRxWritePtr, .-ETH_SetSocketRxWritePtr
 2238              		.section	.text.ETH_SetSocketTxReadPtr,"ax",%progbits
 2239              		.align	2
 2240              		.global	ETH_SetSocketTxReadPtr
 2241              		.code	16
 2242              		.thumb_func
 2243              		.type	ETH_SetSocketTxReadPtr, %function
 2244              	ETH_SetSocketTxReadPtr:
 2245              	.LFB38:
 853:.\Generated_Source\PSoC4/ETH.c **** /* ------------------------------------------------------------------------ */
 854:.\Generated_Source\PSoC4/ETH.c **** /**
 855:.\Generated_Source\PSoC4/ETH.c ****  * \brief Initialize the Tx buffer Read pointer register
 856:.\Generated_Source\PSoC4/ETH.c ****  * \param socket the sockt to be modified
 857:.\Generated_Source\PSoC4/ETH.c ****  * \param ptr the address to store in to the pointer register
 858:.\Generated_Source\PSoC4/ETH.c **** */
 859:.\Generated_Source\PSoC4/ETH.c **** void ETH_SetSocketTxReadPtr(uint8 socket, uint16 ptr )
 860:.\Generated_Source\PSoC4/ETH.c **** {
 2246              		.loc 1 860 0
 2247              		.cfi_startproc
 2248 0000 80B5     		push	{r7, lr}
 2249              	.LCFI112:
 2250              		.cfi_def_cfa_offset 8
 2251              		.cfi_offset 7, -8
 2252              		.cfi_offset 14, -4
 2253 0002 82B0     		sub	sp, sp, #8
 2254              	.LCFI113:
 2255              		.cfi_def_cfa_offset 16
 2256 0004 00AF     		add	r7, sp, #0
 2257              	.LCFI114:
 2258              		.cfi_def_cfa_register 7
 2259 0006 0A1C     		mov	r2, r1
 2260 0008 FB1D     		add	r3, r7, #7
 2261 000a 011C     		add	r1, r0, #0
 2262 000c 1970     		strb	r1, [r3]
 2263 000e 3B1D     		add	r3, r7, #4
 2264 0010 1A80     		strh	r2, [r3]
 861:.\Generated_Source\PSoC4/ETH.c **** 	ETH_ChipWrite16( ETH_SOCKET_REG(socket, ETH_SOCK_TXRD), ptr);
 2265              		.loc 1 861 0
 2266 0012 FB1D     		add	r3, r7, #7
 2267 0014 1B78     		ldrb	r3, [r3]
 2268 0016 9BB2     		uxth	r3, r3
 2269 0018 1B02     		lsl	r3, r3, #8
 2270 001a 9BB2     		uxth	r3, r3
ARM GAS  C:\Users\CHUCK~1.ERH\AppData\Local\Temp\ccSVmyDA.s 			page 56


 2271 001c 054A     		ldr	r2, .L91
 2272 001e 9B18     		add	r3, r3, r2
 2273 0020 9AB2     		uxth	r2, r3
 2274 0022 3B1D     		add	r3, r7, #4
 2275 0024 1B88     		ldrh	r3, [r3]
 2276 0026 101C     		mov	r0, r2
 2277 0028 191C     		mov	r1, r3
 2278 002a FFF7FEFF 		bl	ETH_ChipWrite16
 862:.\Generated_Source\PSoC4/ETH.c **** }
 2279              		.loc 1 862 0
 2280 002e BD46     		mov	sp, r7
 2281 0030 02B0     		add	sp, sp, #8
 2282              		@ sp needed for prologue
 2283 0032 80BD     		pop	{r7, pc}
 2284              	.L92:
 2285              		.align	2
 2286              	.L91:
 2287 0034 22040000 		.word	1058
 2288              		.cfi_endproc
 2289              	.LFE38:
 2290              		.size	ETH_SetSocketTxReadPtr, .-ETH_SetSocketTxReadPtr
 2291              		.section	.text.ETH_ExecuteSocketCommand,"ax",%progbits
 2292              		.align	2
 2293              		.global	ETH_ExecuteSocketCommand
 2294              		.code	16
 2295              		.thumb_func
 2296              		.type	ETH_ExecuteSocketCommand, %function
 2297              	ETH_ExecuteSocketCommand:
 2298              	.LFB39:
 863:.\Generated_Source\PSoC4/ETH.c **** /* ------------------------------------------------------------------------ */
 864:.\Generated_Source\PSoC4/ETH.c **** /**
 865:.\Generated_Source\PSoC4/ETH.c ****  * \brief Write a command to the socket command register and wait for completion
 866:.\Generated_Source\PSoC4/ETH.c ****  * \param socket the addressed socket for the command
 867:.\Generated_Source\PSoC4/ETH.c ****  * \param cmd the command to execute
 868:.\Generated_Source\PSoC4/ETH.c ****  */
 869:.\Generated_Source\PSoC4/ETH.c **** uint32 ETH_ExecuteSocketCommand( uint8 socket, int cmd)
 870:.\Generated_Source\PSoC4/ETH.c **** {
 2299              		.loc 1 870 0
 2300              		.cfi_startproc
 2301 0000 80B5     		push	{r7, lr}
 2302              	.LCFI115:
 2303              		.cfi_def_cfa_offset 8
 2304              		.cfi_offset 7, -8
 2305              		.cfi_offset 14, -4
 2306 0002 84B0     		sub	sp, sp, #16
 2307              	.LCFI116:
 2308              		.cfi_def_cfa_offset 24
 2309 0004 00AF     		add	r7, sp, #0
 2310              	.LCFI117:
 2311              		.cfi_def_cfa_register 7
 2312 0006 021C     		mov	r2, r0
 2313 0008 3960     		str	r1, [r7]
 2314 000a FB1D     		add	r3, r7, #7
 2315 000c 1A70     		strb	r2, [r3]
 871:.\Generated_Source\PSoC4/ETH.c **** 	uint32 timeout;
 872:.\Generated_Source\PSoC4/ETH.c **** 	timeout = 0;
 2316              		.loc 1 872 0
ARM GAS  C:\Users\CHUCK~1.ERH\AppData\Local\Temp\ccSVmyDA.s 			page 57


 2317 000e 0023     		mov	r3, #0
 2318 0010 FB60     		str	r3, [r7, #12]
 873:.\Generated_Source\PSoC4/ETH.c **** 	
 874:.\Generated_Source\PSoC4/ETH.c **** 	ETH_SetSocketCommand(socket,cmd);
 2319              		.loc 1 874 0
 2320 0012 3B68     		ldr	r3, [r7]
 2321 0014 DBB2     		uxtb	r3, r3
 2322 0016 FA1D     		add	r2, r7, #7
 2323 0018 1278     		ldrb	r2, [r2]
 2324 001a 101C     		mov	r0, r2
 2325 001c 191C     		mov	r1, r3
 2326 001e FFF7FEFF 		bl	ETH_SetSocketCommand
 875:.\Generated_Source\PSoC4/ETH.c **** 	while ( ( ETH_GetSocketCommand(socket) ) && (timeout < 125))
 2327              		.loc 1 875 0
 2328 0022 05E0     		b	.L94
 2329              	.L96:
 876:.\Generated_Source\PSoC4/ETH.c **** 	{
 877:.\Generated_Source\PSoC4/ETH.c **** 		++timeout;
 2330              		.loc 1 877 0
 2331 0024 FB68     		ldr	r3, [r7, #12]
 2332 0026 0133     		add	r3, r3, #1
 2333 0028 FB60     		str	r3, [r7, #12]
 878:.\Generated_Source\PSoC4/ETH.c **** 		CyDelay(1);
 2334              		.loc 1 878 0
 2335 002a 0120     		mov	r0, #1
 2336 002c FFF7FEFF 		bl	CyDelay
 2337              	.L94:
 875:.\Generated_Source\PSoC4/ETH.c **** 	while ( ( ETH_GetSocketCommand(socket) ) && (timeout < 125))
 2338              		.loc 1 875 0 discriminator 1
 2339 0030 FB1D     		add	r3, r7, #7
 2340 0032 1B78     		ldrb	r3, [r3]
 2341 0034 181C     		mov	r0, r3
 2342 0036 FFF7FEFF 		bl	ETH_GetSocketCommand
 2343 003a 031C     		mov	r3, r0
 2344 003c 002B     		cmp	r3, #0
 2345 003e 02D0     		beq	.L95
 875:.\Generated_Source\PSoC4/ETH.c **** 	while ( ( ETH_GetSocketCommand(socket) ) && (timeout < 125))
 2346              		.loc 1 875 0 is_stmt 0 discriminator 2
 2347 0040 FB68     		ldr	r3, [r7, #12]
 2348 0042 7C2B     		cmp	r3, #124
 2349 0044 EED9     		bls	.L96
 2350              	.L95:
 879:.\Generated_Source\PSoC4/ETH.c **** 	}
 880:.\Generated_Source\PSoC4/ETH.c **** 	return( timeout );
 2351              		.loc 1 880 0 is_stmt 1
 2352 0046 FB68     		ldr	r3, [r7, #12]
 881:.\Generated_Source\PSoC4/ETH.c **** }
 2353              		.loc 1 881 0
 2354 0048 181C     		mov	r0, r3
 2355 004a BD46     		mov	sp, r7
 2356 004c 04B0     		add	sp, sp, #16
 2357              		@ sp needed for prologue
 2358 004e 80BD     		pop	{r7, pc}
 2359              		.cfi_endproc
 2360              	.LFE39:
 2361              		.size	ETH_ExecuteSocketCommand, .-ETH_ExecuteSocketCommand
 2362              		.section	.text.ETH_GetTxFreeSize,"ax",%progbits
ARM GAS  C:\Users\CHUCK~1.ERH\AppData\Local\Temp\ccSVmyDA.s 			page 58


 2363              		.align	2
 2364              		.global	ETH_GetTxFreeSize
 2365              		.code	16
 2366              		.thumb_func
 2367              		.type	ETH_GetTxFreeSize, %function
 2368              	ETH_GetTxFreeSize:
 2369              	.LFB40:
 882:.\Generated_Source\PSoC4/ETH.c **** /* ------------------------------------------------------------------------ */
 883:.\Generated_Source\PSoC4/ETH.c **** /**
 884:.\Generated_Source\PSoC4/ETH.c ****  * \brief Execute a safe read fo the Tx buffer free size register
 885:.\Generated_Source\PSoC4/ETH.c ****  * \param socket the addressed socket to read the available tx buffer
 886:.\Generated_Source\PSoC4/ETH.c ****  * \returns the number of bytes available in the transmit buffer for the socket
 887:.\Generated_Source\PSoC4/ETH.c ****  */
 888:.\Generated_Source\PSoC4/ETH.c **** uint16 ETH_GetTxFreeSize( uint8 socket )
 889:.\Generated_Source\PSoC4/ETH.c **** {
 2370              		.loc 1 889 0
 2371              		.cfi_startproc
 2372 0000 90B5     		push	{r4, r7, lr}
 2373              	.LCFI118:
 2374              		.cfi_def_cfa_offset 12
 2375              		.cfi_offset 4, -12
 2376              		.cfi_offset 7, -8
 2377              		.cfi_offset 14, -4
 2378 0002 85B0     		sub	sp, sp, #20
 2379              	.LCFI119:
 2380              		.cfi_def_cfa_offset 32
 2381 0004 00AF     		add	r7, sp, #0
 2382              	.LCFI120:
 2383              		.cfi_def_cfa_register 7
 2384 0006 021C     		mov	r2, r0
 2385 0008 FB1D     		add	r3, r7, #7
 2386 000a 1A70     		strb	r2, [r3]
 890:.\Generated_Source\PSoC4/ETH.c **** 	uint16 first, second;
 891:.\Generated_Source\PSoC4/ETH.c **** 	
 892:.\Generated_Source\PSoC4/ETH.c **** 	first = 0;
 2387              		.loc 1 892 0
 2388 000c 3B1C     		mov	r3, r7
 2389 000e 0C33     		add	r3, r3, #12
 2390 0010 0022     		mov	r2, #0
 2391 0012 1A80     		strh	r2, [r3]
 893:.\Generated_Source\PSoC4/ETH.c **** 	second = 0;
 2392              		.loc 1 893 0
 2393 0014 3B1C     		mov	r3, r7
 2394 0016 0E33     		add	r3, r3, #14
 2395 0018 0022     		mov	r2, #0
 2396 001a 1A80     		strh	r2, [r3]
 2397              	.L100:
 894:.\Generated_Source\PSoC4/ETH.c **** 	do {
 895:.\Generated_Source\PSoC4/ETH.c **** 		first = ETH_GetSocketTxFree( socket );
 2398              		.loc 1 895 0
 2399 001c 3C1C     		mov	r4, r7
 2400 001e 0C34     		add	r4, r4, #12
 2401 0020 FB1D     		add	r3, r7, #7
 2402 0022 1B78     		ldrb	r3, [r3]
 2403 0024 181C     		mov	r0, r3
 2404 0026 FFF7FEFF 		bl	ETH_GetSocketTxFree
 2405 002a 031C     		mov	r3, r0
ARM GAS  C:\Users\CHUCK~1.ERH\AppData\Local\Temp\ccSVmyDA.s 			page 59


 2406 002c 2380     		strh	r3, [r4]
 896:.\Generated_Source\PSoC4/ETH.c **** 		if (first != 0) {
 2407              		.loc 1 896 0
 2408 002e 3B1C     		mov	r3, r7
 2409 0030 0C33     		add	r3, r3, #12
 2410 0032 1B88     		ldrh	r3, [r3]
 2411 0034 002B     		cmp	r3, #0
 2412 0036 08D0     		beq	.L99
 897:.\Generated_Source\PSoC4/ETH.c **** 			second = ETH_GetSocketTxFree( socket );
 2413              		.loc 1 897 0
 2414 0038 3C1C     		mov	r4, r7
 2415 003a 0E34     		add	r4, r4, #14
 2416 003c FB1D     		add	r3, r7, #7
 2417 003e 1B78     		ldrb	r3, [r3]
 2418 0040 181C     		mov	r0, r3
 2419 0042 FFF7FEFF 		bl	ETH_GetSocketTxFree
 2420 0046 031C     		mov	r3, r0
 2421 0048 2380     		strh	r3, [r4]
 2422              	.L99:
 898:.\Generated_Source\PSoC4/ETH.c **** 		}
 899:.\Generated_Source\PSoC4/ETH.c **** 	}
 900:.\Generated_Source\PSoC4/ETH.c **** 	while (first != second );
 2423              		.loc 1 900 0
 2424 004a 3A1C     		mov	r2, r7
 2425 004c 0C32     		add	r2, r2, #12
 2426 004e 3B1C     		mov	r3, r7
 2427 0050 0E33     		add	r3, r3, #14
 2428 0052 1288     		ldrh	r2, [r2]
 2429 0054 1B88     		ldrh	r3, [r3]
 2430 0056 9A42     		cmp	r2, r3
 2431 0058 E0D1     		bne	.L100
 901:.\Generated_Source\PSoC4/ETH.c **** 	
 902:.\Generated_Source\PSoC4/ETH.c **** 	return( second );
 2432              		.loc 1 902 0
 2433 005a 3B1C     		mov	r3, r7
 2434 005c 0E33     		add	r3, r3, #14
 2435 005e 1B88     		ldrh	r3, [r3]
 903:.\Generated_Source\PSoC4/ETH.c **** }
 2436              		.loc 1 903 0
 2437 0060 181C     		mov	r0, r3
 2438 0062 BD46     		mov	sp, r7
 2439 0064 05B0     		add	sp, sp, #20
 2440              		@ sp needed for prologue
 2441 0066 90BD     		pop	{r4, r7, pc}
 2442              		.cfi_endproc
 2443              	.LFE40:
 2444              		.size	ETH_GetTxFreeSize, .-ETH_GetTxFreeSize
 2445              		.section	.text.ETH_GetRxSize,"ax",%progbits
 2446              		.align	2
 2447              		.global	ETH_GetRxSize
 2448              		.code	16
 2449              		.thumb_func
 2450              		.type	ETH_GetRxSize, %function
 2451              	ETH_GetRxSize:
 2452              	.LFB41:
 904:.\Generated_Source\PSoC4/ETH.c **** /* ------------------------------------------------------------------------ */
 905:.\Generated_Source\PSoC4/ETH.c **** /**
ARM GAS  C:\Users\CHUCK~1.ERH\AppData\Local\Temp\ccSVmyDA.s 			page 60


 906:.\Generated_Source\PSoC4/ETH.c ****  * \brief Execute a safe read of the received data size
 907:.\Generated_Source\PSoC4/ETH.c ****  * \param socket the addressed socketfrom which the data will be read
 908:.\Generated_Source\PSoC4/ETH.c ****  * \returns the number of bytes waiting in the recieve buffer of the socket
 909:.\Generated_Source\PSoC4/ETH.c ****  */
 910:.\Generated_Source\PSoC4/ETH.c **** uint16 ETH_GetRxSize( uint8 socket )
 911:.\Generated_Source\PSoC4/ETH.c **** {
 2453              		.loc 1 911 0
 2454              		.cfi_startproc
 2455 0000 90B5     		push	{r4, r7, lr}
 2456              	.LCFI121:
 2457              		.cfi_def_cfa_offset 12
 2458              		.cfi_offset 4, -12
 2459              		.cfi_offset 7, -8
 2460              		.cfi_offset 14, -4
 2461 0002 85B0     		sub	sp, sp, #20
 2462              	.LCFI122:
 2463              		.cfi_def_cfa_offset 32
 2464 0004 00AF     		add	r7, sp, #0
 2465              	.LCFI123:
 2466              		.cfi_def_cfa_register 7
 2467 0006 021C     		mov	r2, r0
 2468 0008 FB1D     		add	r3, r7, #7
 2469 000a 1A70     		strb	r2, [r3]
 912:.\Generated_Source\PSoC4/ETH.c **** 	uint16 first, second;
 913:.\Generated_Source\PSoC4/ETH.c **** 	
 914:.\Generated_Source\PSoC4/ETH.c **** 	first = 0;
 2470              		.loc 1 914 0
 2471 000c 3B1C     		mov	r3, r7
 2472 000e 0C33     		add	r3, r3, #12
 2473 0010 0022     		mov	r2, #0
 2474 0012 1A80     		strh	r2, [r3]
 915:.\Generated_Source\PSoC4/ETH.c **** 	second = 0;
 2475              		.loc 1 915 0
 2476 0014 3B1C     		mov	r3, r7
 2477 0016 0E33     		add	r3, r3, #14
 2478 0018 0022     		mov	r2, #0
 2479 001a 1A80     		strh	r2, [r3]
 2480              	.L104:
 916:.\Generated_Source\PSoC4/ETH.c **** 	do {
 917:.\Generated_Source\PSoC4/ETH.c **** 		first = ETH_GetSocketRxSize( socket );
 2481              		.loc 1 917 0
 2482 001c 3C1C     		mov	r4, r7
 2483 001e 0C34     		add	r4, r4, #12
 2484 0020 FB1D     		add	r3, r7, #7
 2485 0022 1B78     		ldrb	r3, [r3]
 2486 0024 181C     		mov	r0, r3
 2487 0026 FFF7FEFF 		bl	ETH_GetSocketRxSize
 2488 002a 031C     		mov	r3, r0
 2489 002c 2380     		strh	r3, [r4]
 918:.\Generated_Source\PSoC4/ETH.c **** 		if (first != 0) {
 2490              		.loc 1 918 0
 2491 002e 3B1C     		mov	r3, r7
 2492 0030 0C33     		add	r3, r3, #12
 2493 0032 1B88     		ldrh	r3, [r3]
 2494 0034 002B     		cmp	r3, #0
 2495 0036 08D0     		beq	.L103
 919:.\Generated_Source\PSoC4/ETH.c **** 			second = ETH_GetSocketRxSize( socket );
ARM GAS  C:\Users\CHUCK~1.ERH\AppData\Local\Temp\ccSVmyDA.s 			page 61


 2496              		.loc 1 919 0
 2497 0038 3C1C     		mov	r4, r7
 2498 003a 0E34     		add	r4, r4, #14
 2499 003c FB1D     		add	r3, r7, #7
 2500 003e 1B78     		ldrb	r3, [r3]
 2501 0040 181C     		mov	r0, r3
 2502 0042 FFF7FEFF 		bl	ETH_GetSocketRxSize
 2503 0046 031C     		mov	r3, r0
 2504 0048 2380     		strh	r3, [r4]
 2505              	.L103:
 920:.\Generated_Source\PSoC4/ETH.c **** 		}
 921:.\Generated_Source\PSoC4/ETH.c **** 	}
 922:.\Generated_Source\PSoC4/ETH.c **** 	while (first != second );
 2506              		.loc 1 922 0
 2507 004a 3A1C     		mov	r2, r7
 2508 004c 0C32     		add	r2, r2, #12
 2509 004e 3B1C     		mov	r3, r7
 2510 0050 0E33     		add	r3, r3, #14
 2511 0052 1288     		ldrh	r2, [r2]
 2512 0054 1B88     		ldrh	r3, [r3]
 2513 0056 9A42     		cmp	r2, r3
 2514 0058 E0D1     		bne	.L104
 923:.\Generated_Source\PSoC4/ETH.c **** 	
 924:.\Generated_Source\PSoC4/ETH.c **** 	return second;
 2515              		.loc 1 924 0
 2516 005a 3B1C     		mov	r3, r7
 2517 005c 0E33     		add	r3, r3, #14
 2518 005e 1B88     		ldrh	r3, [r3]
 925:.\Generated_Source\PSoC4/ETH.c **** }
 2519              		.loc 1 925 0
 2520 0060 181C     		mov	r0, r3
 2521 0062 BD46     		mov	sp, r7
 2522 0064 05B0     		add	sp, sp, #20
 2523              		@ sp needed for prologue
 2524 0066 90BD     		pop	{r4, r7, pc}
 2525              		.cfi_endproc
 2526              	.LFE41:
 2527              		.size	ETH_GetRxSize, .-ETH_GetRxSize
 2528              		.section	.text.ETH_ProcessTxData,"ax",%progbits
 2529              		.align	2
 2530              		.global	ETH_ProcessTxData
 2531              		.code	16
 2532              		.thumb_func
 2533              		.type	ETH_ProcessTxData, %function
 2534              	ETH_ProcessTxData:
 2535              	.LFB42:
 926:.\Generated_Source\PSoC4/ETH.c **** /* ------------------------------------------------------------------------ */
 927:.\Generated_Source\PSoC4/ETH.c **** 
 928:.\Generated_Source\PSoC4/ETH.c **** // END Socket Register access section
 929:.\Generated_Source\PSoC4/ETH.c **** #endif
 930:.\Generated_Source\PSoC4/ETH.c **** /* ======================================================================== */
 931:.\Generated_Source\PSoC4/ETH.c **** /* W5x00 Data Buffer Memory access primitives */
 932:.\Generated_Source\PSoC4/ETH.c **** #if (1)
 933:.\Generated_Source\PSoC4/ETH.c **** /* ------------------------------------------------------------------------ */
 934:.\Generated_Source\PSoC4/ETH.c **** /**
 935:.\Generated_Source\PSoC4/ETH.c ****  * \brief Transfer data from a local data buffer to the chip Tx fifo
 936:.\Generated_Source\PSoC4/ETH.c ****  * \param socket the socket buffer to which the data will be written
ARM GAS  C:\Users\CHUCK~1.ERH\AppData\Local\Temp\ccSVmyDA.s 			page 62


 937:.\Generated_Source\PSoC4/ETH.c ****  * \param offset The offest in to the socket buffer
 938:.\Generated_Source\PSoC4/ETH.c ****  * \param *buffer pointer to the local buffer to copy to the transmit fifo
 939:.\Generated_Source\PSoC4/ETH.c ****  * \param length the number of bytes to be copied to the transmit fifo
 940:.\Generated_Source\PSoC4/ETH.c ****  */
 941:.\Generated_Source\PSoC4/ETH.c **** void ETH_ProcessTxData(uint8 socket, uint16 offset, uint8* buffer, uint16 length)
 942:.\Generated_Source\PSoC4/ETH.c **** {
 2536              		.loc 1 942 0
 2537              		.cfi_startproc
 2538 0000 80B5     		push	{r7, lr}
 2539              	.LCFI124:
 2540              		.cfi_def_cfa_offset 8
 2541              		.cfi_offset 7, -8
 2542              		.cfi_offset 14, -4
 2543 0002 86B0     		sub	sp, sp, #24
 2544              	.LCFI125:
 2545              		.cfi_def_cfa_offset 32
 2546 0004 00AF     		add	r7, sp, #0
 2547              	.LCFI126:
 2548              		.cfi_def_cfa_register 7
 2549 0006 BA60     		str	r2, [r7, #8]
 2550 0008 1A1C     		mov	r2, r3
 2551 000a 3B1C     		mov	r3, r7
 2552 000c 0F33     		add	r3, r3, #15
 2553 000e 1870     		strb	r0, [r3]
 2554 0010 3B1C     		mov	r3, r7
 2555 0012 0C33     		add	r3, r3, #12
 2556 0014 1980     		strh	r1, [r3]
 2557 0016 BB1D     		add	r3, r7, #6
 2558 0018 1A80     		strh	r2, [r3]
 943:.\Generated_Source\PSoC4/ETH.c **** 	uint16 addr;
 944:.\Generated_Source\PSoC4/ETH.c **** 	uint16 base;
 945:.\Generated_Source\PSoC4/ETH.c **** 	uint16 PointerOffset;
 946:.\Generated_Source\PSoC4/ETH.c **** 	uint16 size;
 947:.\Generated_Source\PSoC4/ETH.c **** 	
 948:.\Generated_Source\PSoC4/ETH.c **** 	/*
 949:.\Generated_Source\PSoC4/ETH.c **** 	 * Read the offset pointer, and calculate the base address for the start of write
 950:.\Generated_Source\PSoC4/ETH.c **** 	 * in to the chip buffers.  Written data will be offset by the offset byte count
 951:.\Generated_Source\PSoC4/ETH.c **** 	 * specified in the parameters.
 952:.\Generated_Source\PSoC4/ETH.c **** 	 */
 953:.\Generated_Source\PSoC4/ETH.c **** 	base = ETH_GetSocketTxWritePtr(socket) + offset;
 2559              		.loc 1 953 0
 2560 001a 3B1C     		mov	r3, r7
 2561 001c 0F33     		add	r3, r3, #15
 2562 001e 1B78     		ldrb	r3, [r3]
 2563 0020 181C     		mov	r0, r3
 2564 0022 FFF7FEFF 		bl	ETH_GetSocketTxWritePtr
 2565 0026 031C     		mov	r3, r0
 2566 0028 191C     		mov	r1, r3
 2567 002a 3B1C     		mov	r3, r7
 2568 002c 1633     		add	r3, r3, #22
 2569 002e 3A1C     		mov	r2, r7
 2570 0030 0C32     		add	r2, r2, #12
 2571 0032 1288     		ldrh	r2, [r2]
 2572 0034 8A18     		add	r2, r1, r2
 2573 0036 1A80     		strh	r2, [r3]
 954:.\Generated_Source\PSoC4/ETH.c **** 	PointerOffset = (base & 0x07FF);
 2574              		.loc 1 954 0
ARM GAS  C:\Users\CHUCK~1.ERH\AppData\Local\Temp\ccSVmyDA.s 			page 63


 2575 0038 3B1C     		mov	r3, r7
 2576 003a 1433     		add	r3, r3, #20
 2577 003c 3A1C     		mov	r2, r7
 2578 003e 1632     		add	r2, r2, #22
 2579 0040 1288     		ldrh	r2, [r2]
 2580 0042 5205     		lsl	r2, r2, #21
 2581 0044 520D     		lsr	r2, r2, #21
 2582 0046 1A80     		strh	r2, [r3]
 955:.\Generated_Source\PSoC4/ETH.c **** 	addr = PointerOffset + ETH_SOCKET_TX_BASE[socket];
 2583              		.loc 1 955 0
 2584 0048 3B1C     		mov	r3, r7
 2585 004a 0F33     		add	r3, r3, #15
 2586 004c 1A78     		ldrb	r2, [r3]
 2587 004e 2F4B     		ldr	r3, .L109
 2588 0050 5200     		lsl	r2, r2, #1
 2589 0052 D15A     		ldrh	r1, [r2, r3]
 2590 0054 3B1C     		mov	r3, r7
 2591 0056 1233     		add	r3, r3, #18
 2592 0058 3A1C     		mov	r2, r7
 2593 005a 1432     		add	r2, r2, #20
 2594 005c 1288     		ldrh	r2, [r2]
 2595 005e 8A18     		add	r2, r1, r2
 2596 0060 1A80     		strh	r2, [r3]
 956:.\Generated_Source\PSoC4/ETH.c **** 	/* calculate the number of bytes from the pointer to the end of the buffer */
 957:.\Generated_Source\PSoC4/ETH.c **** 	size = 0x0800 - PointerOffset;
 2597              		.loc 1 957 0
 2598 0062 3B1C     		mov	r3, r7
 2599 0064 1033     		add	r3, r3, #16
 2600 0066 3A1C     		mov	r2, r7
 2601 0068 1432     		add	r2, r2, #20
 2602 006a 1288     		ldrh	r2, [r2]
 2603 006c 8021     		mov	r1, #128
 2604 006e 0901     		lsl	r1, r1, #4
 2605 0070 8A1A     		sub	r2, r1, r2
 2606 0072 1A80     		strh	r2, [r3]
 958:.\Generated_Source\PSoC4/ETH.c **** 	
 959:.\Generated_Source\PSoC4/ETH.c **** 	/*
 960:.\Generated_Source\PSoC4/ETH.c **** 	 * is there enough space to write the complete packet
 961:.\Generated_Source\PSoC4/ETH.c **** 	 * or, shoudl the data be split in to two writes.
 962:.\Generated_Source\PSoC4/ETH.c **** 	 */
 963:.\Generated_Source\PSoC4/ETH.c **** 	if ( length > size) {
 2607              		.loc 1 963 0
 2608 0074 BA1D     		add	r2, r7, #6
 2609 0076 3B1C     		mov	r3, r7
 2610 0078 1033     		add	r3, r3, #16
 2611 007a 1288     		ldrh	r2, [r2]
 2612 007c 1B88     		ldrh	r3, [r3]
 2613 007e 9A42     		cmp	r2, r3
 2614 0080 23D9     		bls	.L107
 964:.\Generated_Source\PSoC4/ETH.c **** 		/*
 965:.\Generated_Source\PSoC4/ETH.c **** 		 * There is more data to send than will fit from the pointer to the end
 966:.\Generated_Source\PSoC4/ETH.c **** 		 * of the memory, so we will write the data in two chunks.  First, write the
 967:.\Generated_Source\PSoC4/ETH.c **** 		 * data from the pointer to the end of the buffer, then write the portion
 968:.\Generated_Source\PSoC4/ETH.c **** 		 * remaining to the start (base ptr) of the socket buffer
 969:.\Generated_Source\PSoC4/ETH.c **** 		 */
 970:.\Generated_Source\PSoC4/ETH.c **** 		ETH_ChipWrite(addr, buffer, size);
 2615              		.loc 1 970 0
ARM GAS  C:\Users\CHUCK~1.ERH\AppData\Local\Temp\ccSVmyDA.s 			page 64


 2616 0082 3B1C     		mov	r3, r7
 2617 0084 1233     		add	r3, r3, #18
 2618 0086 1988     		ldrh	r1, [r3]
 2619 0088 BA68     		ldr	r2, [r7, #8]
 2620 008a 3B1C     		mov	r3, r7
 2621 008c 1033     		add	r3, r3, #16
 2622 008e 1B88     		ldrh	r3, [r3]
 2623 0090 081C     		mov	r0, r1
 2624 0092 111C     		mov	r1, r2
 2625 0094 1A1C     		mov	r2, r3
 2626 0096 FFF7FEFF 		bl	ETH_ChipWrite
 971:.\Generated_Source\PSoC4/ETH.c **** 		ETH_ChipWrite(ETH_SOCKET_TX_BASE[socket], &buffer[size], length - size);
 2627              		.loc 1 971 0
 2628 009a 3B1C     		mov	r3, r7
 2629 009c 0F33     		add	r3, r3, #15
 2630 009e 1A78     		ldrb	r2, [r3]
 2631 00a0 1A4B     		ldr	r3, .L109
 2632 00a2 5200     		lsl	r2, r2, #1
 2633 00a4 D15A     		ldrh	r1, [r2, r3]
 2634 00a6 3B1C     		mov	r3, r7
 2635 00a8 1033     		add	r3, r3, #16
 2636 00aa 1B88     		ldrh	r3, [r3]
 2637 00ac BA68     		ldr	r2, [r7, #8]
 2638 00ae D218     		add	r2, r2, r3
 2639 00b0 B81D     		add	r0, r7, #6
 2640 00b2 3B1C     		mov	r3, r7
 2641 00b4 1033     		add	r3, r3, #16
 2642 00b6 0088     		ldrh	r0, [r0]
 2643 00b8 1B88     		ldrh	r3, [r3]
 2644 00ba C31A     		sub	r3, r0, r3
 2645 00bc 9BB2     		uxth	r3, r3
 2646 00be 081C     		mov	r0, r1
 2647 00c0 111C     		mov	r1, r2
 2648 00c2 1A1C     		mov	r2, r3
 2649 00c4 FFF7FEFF 		bl	ETH_ChipWrite
 2650 00c8 0AE0     		b	.L108
 2651              	.L107:
 972:.\Generated_Source\PSoC4/ETH.c **** 	}
 973:.\Generated_Source\PSoC4/ETH.c **** 	else {
 974:.\Generated_Source\PSoC4/ETH.c **** 		/* 
 975:.\Generated_Source\PSoC4/ETH.c **** 		 * there is enough available space from the write point to the end of buffer
 976:.\Generated_Source\PSoC4/ETH.c **** 		 * to hold the whole packe of information, so just write it to the memory
 977:.\Generated_Source\PSoC4/ETH.c **** 		 */
 978:.\Generated_Source\PSoC4/ETH.c **** 		ETH_ChipWrite(addr,buffer,length);
 2652              		.loc 1 978 0
 2653 00ca 3B1C     		mov	r3, r7
 2654 00cc 1233     		add	r3, r3, #18
 2655 00ce 1988     		ldrh	r1, [r3]
 2656 00d0 BA68     		ldr	r2, [r7, #8]
 2657 00d2 BB1D     		add	r3, r7, #6
 2658 00d4 1B88     		ldrh	r3, [r3]
 2659 00d6 081C     		mov	r0, r1
 2660 00d8 111C     		mov	r1, r2
 2661 00da 1A1C     		mov	r2, r3
 2662 00dc FFF7FEFF 		bl	ETH_ChipWrite
 2663              	.L108:
 979:.\Generated_Source\PSoC4/ETH.c **** 	}
ARM GAS  C:\Users\CHUCK~1.ERH\AppData\Local\Temp\ccSVmyDA.s 			page 65


 980:.\Generated_Source\PSoC4/ETH.c **** 	/* move the write pointer */
 981:.\Generated_Source\PSoC4/ETH.c **** 	base += length;
 2664              		.loc 1 981 0
 2665 00e0 3B1C     		mov	r3, r7
 2666 00e2 1633     		add	r3, r3, #22
 2667 00e4 391C     		mov	r1, r7
 2668 00e6 1631     		add	r1, r1, #22
 2669 00e8 BA1D     		add	r2, r7, #6
 2670 00ea 0988     		ldrh	r1, [r1]
 2671 00ec 1288     		ldrh	r2, [r2]
 2672 00ee 8A18     		add	r2, r1, r2
 2673 00f0 1A80     		strh	r2, [r3]
 982:.\Generated_Source\PSoC4/ETH.c **** 	/* 
 983:.\Generated_Source\PSoC4/ETH.c **** 	 * Store the new write pointer so that the device knows that there is data waiting
 984:.\Generated_Source\PSoC4/ETH.c **** 	 * to be transmitted over the link.
 985:.\Generated_Source\PSoC4/ETH.c **** 	 */
 986:.\Generated_Source\PSoC4/ETH.c **** 	ETH_SetSocketTxWritePtr(socket, base);
 2674              		.loc 1 986 0
 2675 00f2 3B1C     		mov	r3, r7
 2676 00f4 0F33     		add	r3, r3, #15
 2677 00f6 1A78     		ldrb	r2, [r3]
 2678 00f8 3B1C     		mov	r3, r7
 2679 00fa 1633     		add	r3, r3, #22
 2680 00fc 1B88     		ldrh	r3, [r3]
 2681 00fe 101C     		mov	r0, r2
 2682 0100 191C     		mov	r1, r3
 2683 0102 FFF7FEFF 		bl	ETH_SetSocketTxWritePtr
 987:.\Generated_Source\PSoC4/ETH.c **** }
 2684              		.loc 1 987 0
 2685 0106 BD46     		mov	sp, r7
 2686 0108 06B0     		add	sp, sp, #24
 2687              		@ sp needed for prologue
 2688 010a 80BD     		pop	{r7, pc}
 2689              	.L110:
 2690              		.align	2
 2691              	.L109:
 2692 010c 00000000 		.word	ETH_SOCKET_TX_BASE
 2693              		.cfi_endproc
 2694              	.LFE42:
 2695              		.size	ETH_ProcessTxData, .-ETH_ProcessTxData
 2696              		.section	.text.ETH_ProcessRxData,"ax",%progbits
 2697              		.align	2
 2698              		.global	ETH_ProcessRxData
 2699              		.code	16
 2700              		.thumb_func
 2701              		.type	ETH_ProcessRxData, %function
 2702              	ETH_ProcessRxData:
 2703              	.LFB43:
 988:.\Generated_Source\PSoC4/ETH.c **** /* ------------------------------------------------------------------------ */
 989:.\Generated_Source\PSoC4/ETH.c **** /**
 990:.\Generated_Source\PSoC4/ETH.c ****  * \brief Transfer data from the chip receive buffer to a local buffer
 991:.\Generated_Source\PSoC4/ETH.c ****  * \param socket the socket buffer from which the data will be read
 992:.\Generated_Source\PSoC4/ETH.c ****  * \param offset The offest in to the socket buffer
 993:.\Generated_Source\PSoC4/ETH.c ****  * \param *buffer pointer to the local buffer to hold the receive fifo data
 994:.\Generated_Source\PSoC4/ETH.c ****  * \param length the max number of bytes to be copied to the local buffer
 995:.\Generated_Source\PSoC4/ETH.c ****  * \param flags Flag settings to control read fifo options (lookahead)
 996:.\Generated_Source\PSoC4/ETH.c ****  */
ARM GAS  C:\Users\CHUCK~1.ERH\AppData\Local\Temp\ccSVmyDA.s 			page 66


 997:.\Generated_Source\PSoC4/ETH.c **** void ETH_ProcessRxData(uint8 socket, uint16 offset, uint8* buffer, uint16 length, uint8 flags)
 998:.\Generated_Source\PSoC4/ETH.c **** {
 2704              		.loc 1 998 0
 2705              		.cfi_startproc
 2706 0000 80B5     		push	{r7, lr}
 2707              	.LCFI127:
 2708              		.cfi_def_cfa_offset 8
 2709              		.cfi_offset 7, -8
 2710              		.cfi_offset 14, -4
 2711 0002 86B0     		sub	sp, sp, #24
 2712              	.LCFI128:
 2713              		.cfi_def_cfa_offset 32
 2714 0004 00AF     		add	r7, sp, #0
 2715              	.LCFI129:
 2716              		.cfi_def_cfa_register 7
 2717 0006 BA60     		str	r2, [r7, #8]
 2718 0008 1A1C     		mov	r2, r3
 2719 000a 3B1C     		mov	r3, r7
 2720 000c 0F33     		add	r3, r3, #15
 2721 000e 1870     		strb	r0, [r3]
 2722 0010 3B1C     		mov	r3, r7
 2723 0012 0C33     		add	r3, r3, #12
 2724 0014 1980     		strh	r1, [r3]
 2725 0016 BB1D     		add	r3, r7, #6
 2726 0018 1A80     		strh	r2, [r3]
 999:.\Generated_Source\PSoC4/ETH.c **** 	uint16 addr;
1000:.\Generated_Source\PSoC4/ETH.c **** 	uint16 base;
1001:.\Generated_Source\PSoC4/ETH.c **** 	uint16 PointerOffset;
1002:.\Generated_Source\PSoC4/ETH.c **** 	uint16 size;
1003:.\Generated_Source\PSoC4/ETH.c **** 	
1004:.\Generated_Source\PSoC4/ETH.c **** 	/*
1005:.\Generated_Source\PSoC4/ETH.c **** 	 * Read the offset pointer, and calculate the base address for the start of read
1006:.\Generated_Source\PSoC4/ETH.c **** 	 * in to the chip buffers.  The data read will be offset by the offset byte count
1007:.\Generated_Source\PSoC4/ETH.c **** 	 * specified in the parameters.
1008:.\Generated_Source\PSoC4/ETH.c **** 	 */
1009:.\Generated_Source\PSoC4/ETH.c **** 	base = ETH_GetSocketRxReadPtr(socket) + offset;
 2727              		.loc 1 1009 0
 2728 001a 3B1C     		mov	r3, r7
 2729 001c 0F33     		add	r3, r3, #15
 2730 001e 1B78     		ldrb	r3, [r3]
 2731 0020 181C     		mov	r0, r3
 2732 0022 FFF7FEFF 		bl	ETH_GetSocketRxReadPtr
 2733 0026 031C     		mov	r3, r0
 2734 0028 191C     		mov	r1, r3
 2735 002a 3B1C     		mov	r3, r7
 2736 002c 1633     		add	r3, r3, #22
 2737 002e 3A1C     		mov	r2, r7
 2738 0030 0C32     		add	r2, r2, #12
 2739 0032 1288     		ldrh	r2, [r2]
 2740 0034 8A18     		add	r2, r1, r2
 2741 0036 1A80     		strh	r2, [r3]
1010:.\Generated_Source\PSoC4/ETH.c **** 	PointerOffset = (base & 0x07FF);
 2742              		.loc 1 1010 0
 2743 0038 3B1C     		mov	r3, r7
 2744 003a 1433     		add	r3, r3, #20
 2745 003c 3A1C     		mov	r2, r7
 2746 003e 1632     		add	r2, r2, #22
ARM GAS  C:\Users\CHUCK~1.ERH\AppData\Local\Temp\ccSVmyDA.s 			page 67


 2747 0040 1288     		ldrh	r2, [r2]
 2748 0042 5205     		lsl	r2, r2, #21
 2749 0044 520D     		lsr	r2, r2, #21
 2750 0046 1A80     		strh	r2, [r3]
1011:.\Generated_Source\PSoC4/ETH.c **** 	addr = PointerOffset + ETH_SOCKET_RX_BASE[socket];
 2751              		.loc 1 1011 0
 2752 0048 3B1C     		mov	r3, r7
 2753 004a 0F33     		add	r3, r3, #15
 2754 004c 1A78     		ldrb	r2, [r3]
 2755 004e 324B     		ldr	r3, .L115
 2756 0050 5200     		lsl	r2, r2, #1
 2757 0052 D15A     		ldrh	r1, [r2, r3]
 2758 0054 3B1C     		mov	r3, r7
 2759 0056 1233     		add	r3, r3, #18
 2760 0058 3A1C     		mov	r2, r7
 2761 005a 1432     		add	r2, r2, #20
 2762 005c 1288     		ldrh	r2, [r2]
 2763 005e 8A18     		add	r2, r1, r2
 2764 0060 1A80     		strh	r2, [r3]
1012:.\Generated_Source\PSoC4/ETH.c **** 	/* calculate the number of bytes from the pointer to the end of the buffer */
1013:.\Generated_Source\PSoC4/ETH.c **** 	size = 0x0800 - PointerOffset;
 2765              		.loc 1 1013 0
 2766 0062 3B1C     		mov	r3, r7
 2767 0064 1033     		add	r3, r3, #16
 2768 0066 3A1C     		mov	r2, r7
 2769 0068 1432     		add	r2, r2, #20
 2770 006a 1288     		ldrh	r2, [r2]
 2771 006c 8021     		mov	r1, #128
 2772 006e 0901     		lsl	r1, r1, #4
 2773 0070 8A1A     		sub	r2, r1, r2
 2774 0072 1A80     		strh	r2, [r3]
1014:.\Generated_Source\PSoC4/ETH.c **** 	/*
1015:.\Generated_Source\PSoC4/ETH.c **** 	 * is there enough space to read the complete packet
1016:.\Generated_Source\PSoC4/ETH.c **** 	 * or, should the data be split in to two reads.
1017:.\Generated_Source\PSoC4/ETH.c **** 	 */
1018:.\Generated_Source\PSoC4/ETH.c **** 	if ( length > size) {
 2775              		.loc 1 1018 0
 2776 0074 BA1D     		add	r2, r7, #6
 2777 0076 3B1C     		mov	r3, r7
 2778 0078 1033     		add	r3, r3, #16
 2779 007a 1288     		ldrh	r2, [r2]
 2780 007c 1B88     		ldrh	r3, [r3]
 2781 007e 9A42     		cmp	r2, r3
 2782 0080 23D9     		bls	.L112
1019:.\Generated_Source\PSoC4/ETH.c **** 		/*
1020:.\Generated_Source\PSoC4/ETH.c **** 		 * There is more data to send than will fit from the pointer to the end
1021:.\Generated_Source\PSoC4/ETH.c **** 		 * of the memory, so we will write the data in two chunks.  First, write the
1022:.\Generated_Source\PSoC4/ETH.c **** 		 * data from the pointer to the end of the buffer, then write the portion
1023:.\Generated_Source\PSoC4/ETH.c **** 		 * remaining to the start (base ptr) of the socket buffer
1024:.\Generated_Source\PSoC4/ETH.c **** 		 */
1025:.\Generated_Source\PSoC4/ETH.c **** 		ETH_ChipRead(addr, buffer, size);
 2783              		.loc 1 1025 0
 2784 0082 3B1C     		mov	r3, r7
 2785 0084 1233     		add	r3, r3, #18
 2786 0086 1988     		ldrh	r1, [r3]
 2787 0088 BA68     		ldr	r2, [r7, #8]
 2788 008a 3B1C     		mov	r3, r7
ARM GAS  C:\Users\CHUCK~1.ERH\AppData\Local\Temp\ccSVmyDA.s 			page 68


 2789 008c 1033     		add	r3, r3, #16
 2790 008e 1B88     		ldrh	r3, [r3]
 2791 0090 081C     		mov	r0, r1
 2792 0092 111C     		mov	r1, r2
 2793 0094 1A1C     		mov	r2, r3
 2794 0096 FFF7FEFF 		bl	ETH_ChipRead
1026:.\Generated_Source\PSoC4/ETH.c **** 		ETH_ChipRead(ETH_SOCKET_RX_BASE[socket], &buffer[size], length - size);
 2795              		.loc 1 1026 0
 2796 009a 3B1C     		mov	r3, r7
 2797 009c 0F33     		add	r3, r3, #15
 2798 009e 1A78     		ldrb	r2, [r3]
 2799 00a0 1D4B     		ldr	r3, .L115
 2800 00a2 5200     		lsl	r2, r2, #1
 2801 00a4 D15A     		ldrh	r1, [r2, r3]
 2802 00a6 3B1C     		mov	r3, r7
 2803 00a8 1033     		add	r3, r3, #16
 2804 00aa 1B88     		ldrh	r3, [r3]
 2805 00ac BA68     		ldr	r2, [r7, #8]
 2806 00ae D218     		add	r2, r2, r3
 2807 00b0 B81D     		add	r0, r7, #6
 2808 00b2 3B1C     		mov	r3, r7
 2809 00b4 1033     		add	r3, r3, #16
 2810 00b6 0088     		ldrh	r0, [r0]
 2811 00b8 1B88     		ldrh	r3, [r3]
 2812 00ba C31A     		sub	r3, r0, r3
 2813 00bc 9BB2     		uxth	r3, r3
 2814 00be 081C     		mov	r0, r1
 2815 00c0 111C     		mov	r1, r2
 2816 00c2 1A1C     		mov	r2, r3
 2817 00c4 FFF7FEFF 		bl	ETH_ChipRead
 2818 00c8 0AE0     		b	.L113
 2819              	.L112:
1027:.\Generated_Source\PSoC4/ETH.c **** 	}
1028:.\Generated_Source\PSoC4/ETH.c **** 	else {
1029:.\Generated_Source\PSoC4/ETH.c **** 		/* 
1030:.\Generated_Source\PSoC4/ETH.c **** 		 * there is enough available space from the write point to the end of buffer
1031:.\Generated_Source\PSoC4/ETH.c **** 		 * to hold the whole packe of information, so just write it to the memory
1032:.\Generated_Source\PSoC4/ETH.c **** 		 */
1033:.\Generated_Source\PSoC4/ETH.c **** 		ETH_ChipRead(addr,buffer,length);
 2820              		.loc 1 1033 0
 2821 00ca 3B1C     		mov	r3, r7
 2822 00cc 1233     		add	r3, r3, #18
 2823 00ce 1988     		ldrh	r1, [r3]
 2824 00d0 BA68     		ldr	r2, [r7, #8]
 2825 00d2 BB1D     		add	r3, r7, #6
 2826 00d4 1B88     		ldrh	r3, [r3]
 2827 00d6 081C     		mov	r0, r1
 2828 00d8 111C     		mov	r1, r2
 2829 00da 1A1C     		mov	r2, r3
 2830 00dc FFF7FEFF 		bl	ETH_ChipRead
 2831              	.L113:
1034:.\Generated_Source\PSoC4/ETH.c **** 	}
1035:.\Generated_Source\PSoC4/ETH.c **** 	if ( (flags & 0x01) == 0 ) { /* V1.1: Added ==0 condition to lookahead flag check */
 2832              		.loc 1 1035 0
 2833 00e0 3B1C     		mov	r3, r7
 2834 00e2 2033     		add	r3, r3, #32
 2835 00e4 1A78     		ldrb	r2, [r3]
ARM GAS  C:\Users\CHUCK~1.ERH\AppData\Local\Temp\ccSVmyDA.s 			page 69


 2836 00e6 0123     		mov	r3, #1
 2837 00e8 1340     		and	r3, r2
 2838 00ea 12D1     		bne	.L111
1036:.\Generated_Source\PSoC4/ETH.c **** 		/* move the write pointer */
1037:.\Generated_Source\PSoC4/ETH.c **** 		base += length;
 2839              		.loc 1 1037 0
 2840 00ec 3B1C     		mov	r3, r7
 2841 00ee 1633     		add	r3, r3, #22
 2842 00f0 391C     		mov	r1, r7
 2843 00f2 1631     		add	r1, r1, #22
 2844 00f4 BA1D     		add	r2, r7, #6
 2845 00f6 0988     		ldrh	r1, [r1]
 2846 00f8 1288     		ldrh	r2, [r2]
 2847 00fa 8A18     		add	r2, r1, r2
 2848 00fc 1A80     		strh	r2, [r3]
1038:.\Generated_Source\PSoC4/ETH.c **** 		/* 
1039:.\Generated_Source\PSoC4/ETH.c **** 		 * Store the new write pointer so that the device knows that there is data waiting
1040:.\Generated_Source\PSoC4/ETH.c **** 		 * to be transmitted over the link.
1041:.\Generated_Source\PSoC4/ETH.c **** 		 */
1042:.\Generated_Source\PSoC4/ETH.c **** 		ETH_SetSocketRxReadPtr(socket, base);
 2849              		.loc 1 1042 0
 2850 00fe 3B1C     		mov	r3, r7
 2851 0100 0F33     		add	r3, r3, #15
 2852 0102 1A78     		ldrb	r2, [r3]
 2853 0104 3B1C     		mov	r3, r7
 2854 0106 1633     		add	r3, r3, #22
 2855 0108 1B88     		ldrh	r3, [r3]
 2856 010a 101C     		mov	r0, r2
 2857 010c 191C     		mov	r1, r3
 2858 010e FFF7FEFF 		bl	ETH_SetSocketRxReadPtr
 2859              	.L111:
1043:.\Generated_Source\PSoC4/ETH.c **** 	}
1044:.\Generated_Source\PSoC4/ETH.c **** }
 2860              		.loc 1 1044 0
 2861 0112 BD46     		mov	sp, r7
 2862 0114 06B0     		add	sp, sp, #24
 2863              		@ sp needed for prologue
 2864 0116 80BD     		pop	{r7, pc}
 2865              	.L116:
 2866              		.align	2
 2867              	.L115:
 2868 0118 00000000 		.word	ETH_SOCKET_RX_BASE
 2869              		.cfi_endproc
 2870              	.LFE43:
 2871              		.size	ETH_ProcessRxData, .-ETH_ProcessRxData
 2872              		.section	.text.ETH_Init,"ax",%progbits
 2873              		.align	2
 2874              		.global	ETH_Init
 2875              		.code	16
 2876              		.thumb_func
 2877              		.type	ETH_Init, %function
 2878              	ETH_Init:
 2879              	.LFB44:
1045:.\Generated_Source\PSoC4/ETH.c **** #endif
1046:.\Generated_Source\PSoC4/ETH.c **** /* ======================================================================== */
1047:.\Generated_Source\PSoC4/ETH.c **** /* Driver Initialization */
1048:.\Generated_Source\PSoC4/ETH.c **** #if (1)
ARM GAS  C:\Users\CHUCK~1.ERH\AppData\Local\Temp\ccSVmyDA.s 			page 70


1049:.\Generated_Source\PSoC4/ETH.c **** /* ------------------------------------------------------------------------ */
1050:.\Generated_Source\PSoC4/ETH.c **** void
1051:.\Generated_Source\PSoC4/ETH.c **** ETH_Init(uint8* mac, uint32 ip, uint32 subnet, uint32 gateway)
1052:.\Generated_Source\PSoC4/ETH.c **** {
 2880              		.loc 1 1052 0
 2881              		.cfi_startproc
 2882 0000 80B5     		push	{r7, lr}
 2883              	.LCFI130:
 2884              		.cfi_def_cfa_offset 8
 2885              		.cfi_offset 7, -8
 2886              		.cfi_offset 14, -4
 2887 0002 86B0     		sub	sp, sp, #24
 2888              	.LCFI131:
 2889              		.cfi_def_cfa_offset 32
 2890 0004 00AF     		add	r7, sp, #0
 2891              	.LCFI132:
 2892              		.cfi_def_cfa_register 7
 2893 0006 F860     		str	r0, [r7, #12]
 2894 0008 B960     		str	r1, [r7, #8]
 2895 000a 7A60     		str	r2, [r7, #4]
 2896 000c 3B60     		str	r3, [r7]
1053:.\Generated_Source\PSoC4/ETH.c **** 	/*
1054:.\Generated_Source\PSoC4/ETH.c **** 	 * Initialize the device and the address configuration, then
1055:.\Generated_Source\PSoC4/ETH.c **** 	 * execute socket memory initialization for the local allocation
1056:.\Generated_Source\PSoC4/ETH.c **** 	 * table.
1057:.\Generated_Source\PSoC4/ETH.c **** 	 */
1058:.\Generated_Source\PSoC4/ETH.c **** 	int index;
1059:.\Generated_Source\PSoC4/ETH.c **** 	
1060:.\Generated_Source\PSoC4/ETH.c **** 	CyDelay( 250 ); /* Fixed Boot Delay or chip inintialization will fail */
 2897              		.loc 1 1060 0
 2898 000e FA20     		mov	r0, #250
 2899 0010 FFF7FEFF 		bl	CyDelay
1061:.\Generated_Source\PSoC4/ETH.c **** 	
1062:.\Generated_Source\PSoC4/ETH.c **** 	/* Reset the device */
1063:.\Generated_Source\PSoC4/ETH.c **** 	ETH_SetMode(0x80); /* Send Reset Command */
 2900              		.loc 1 1063 0
 2901 0014 8020     		mov	r0, #128
 2902 0016 FFF7FEFF 		bl	ETH_SetMode
1064:.\Generated_Source\PSoC4/ETH.c **** 	/* Wait for the chip initialization delay */
1065:.\Generated_Source\PSoC4/ETH.c **** 	CyDelay( 10 );
 2903              		.loc 1 1065 0
 2904 001a 0A20     		mov	r0, #10
 2905 001c FFF7FEFF 		bl	CyDelay
1066:.\Generated_Source\PSoC4/ETH.c **** 	
1067:.\Generated_Source\PSoC4/ETH.c **** 	/* Close all of the socket, and clear the memory to make them available. */
1068:.\Generated_Source\PSoC4/ETH.c **** 	for(index=0;index<ETH_MAX_SOCKET;++index) {
 2906              		.loc 1 1068 0
 2907 0020 0023     		mov	r3, #0
 2908 0022 7B61     		str	r3, [r7, #20]
 2909 0024 3BE0     		b	.L118
 2910              	.L119:
1069:.\Generated_Source\PSoC4/ETH.c **** 		ETH_SocketClose( index );
 2911              		.loc 1 1069 0 discriminator 2
 2912 0026 7B69     		ldr	r3, [r7, #20]
 2913 0028 DBB2     		uxtb	r3, r3
 2914 002a 181C     		mov	r0, r3
 2915 002c FFF7FEFF 		bl	ETH_SocketClose
ARM GAS  C:\Users\CHUCK~1.ERH\AppData\Local\Temp\ccSVmyDA.s 			page 71


1070:.\Generated_Source\PSoC4/ETH.c **** 		/* Set the socket memory size */
1071:.\Generated_Source\PSoC4/ETH.c **** 		ETH_SetSocketTxMemSize(index, ETH_MEM_2K); /* 2K each */
 2916              		.loc 1 1071 0 discriminator 2
 2917 0030 7B69     		ldr	r3, [r7, #20]
 2918 0032 DBB2     		uxtb	r3, r3
 2919 0034 181C     		mov	r0, r3
 2920 0036 0121     		mov	r1, #1
 2921 0038 FFF7FEFF 		bl	ETH_SetSocketTxMemSize
1072:.\Generated_Source\PSoC4/ETH.c **** 		ETH_SetSocketRxMemSize(index, ETH_MEM_2K); /* 2K Each */
 2922              		.loc 1 1072 0 discriminator 2
 2923 003c 7B69     		ldr	r3, [r7, #20]
 2924 003e DBB2     		uxtb	r3, r3
 2925 0040 181C     		mov	r0, r3
 2926 0042 0121     		mov	r1, #1
 2927 0044 FFF7FEFF 		bl	ETH_SetSocketRxMemSize
1073:.\Generated_Source\PSoC4/ETH.c **** 		// initialize memory buffer pointers
1074:.\Generated_Source\PSoC4/ETH.c **** 		ETH_SetSocketRxReadPtr( index, ETH_SOCKET_RX_BASE[index] );
 2928              		.loc 1 1074 0 discriminator 2
 2929 0048 7B69     		ldr	r3, [r7, #20]
 2930 004a DAB2     		uxtb	r2, r3
 2931 004c 234B     		ldr	r3, .L120
 2932 004e 7969     		ldr	r1, [r7, #20]
 2933 0050 4900     		lsl	r1, r1, #1
 2934 0052 CB5A     		ldrh	r3, [r1, r3]
 2935 0054 101C     		mov	r0, r2
 2936 0056 191C     		mov	r1, r3
 2937 0058 FFF7FEFF 		bl	ETH_SetSocketRxReadPtr
1075:.\Generated_Source\PSoC4/ETH.c **** 		ETH_SetSocketRxWritePtr( index, ETH_SOCKET_RX_BASE[index] );
 2938              		.loc 1 1075 0 discriminator 2
 2939 005c 7B69     		ldr	r3, [r7, #20]
 2940 005e DAB2     		uxtb	r2, r3
 2941 0060 1E4B     		ldr	r3, .L120
 2942 0062 7969     		ldr	r1, [r7, #20]
 2943 0064 4900     		lsl	r1, r1, #1
 2944 0066 CB5A     		ldrh	r3, [r1, r3]
 2945 0068 101C     		mov	r0, r2
 2946 006a 191C     		mov	r1, r3
 2947 006c FFF7FEFF 		bl	ETH_SetSocketRxWritePtr
1076:.\Generated_Source\PSoC4/ETH.c **** 		ETH_SetSocketTxReadPtr( index, ETH_SOCKET_TX_BASE[index] );
 2948              		.loc 1 1076 0 discriminator 2
 2949 0070 7B69     		ldr	r3, [r7, #20]
 2950 0072 DAB2     		uxtb	r2, r3
 2951 0074 1A4B     		ldr	r3, .L120+4
 2952 0076 7969     		ldr	r1, [r7, #20]
 2953 0078 4900     		lsl	r1, r1, #1
 2954 007a CB5A     		ldrh	r3, [r1, r3]
 2955 007c 101C     		mov	r0, r2
 2956 007e 191C     		mov	r1, r3
 2957 0080 FFF7FEFF 		bl	ETH_SetSocketTxReadPtr
1077:.\Generated_Source\PSoC4/ETH.c **** 		ETH_SetSocketTxWritePtr( index, ETH_SOCKET_TX_BASE[index] );
 2958              		.loc 1 1077 0 discriminator 2
 2959 0084 7B69     		ldr	r3, [r7, #20]
 2960 0086 DAB2     		uxtb	r2, r3
 2961 0088 154B     		ldr	r3, .L120+4
 2962 008a 7969     		ldr	r1, [r7, #20]
 2963 008c 4900     		lsl	r1, r1, #1
 2964 008e CB5A     		ldrh	r3, [r1, r3]
ARM GAS  C:\Users\CHUCK~1.ERH\AppData\Local\Temp\ccSVmyDA.s 			page 72


 2965 0090 101C     		mov	r0, r2
 2966 0092 191C     		mov	r1, r3
 2967 0094 FFF7FEFF 		bl	ETH_SetSocketTxWritePtr
1068:.\Generated_Source\PSoC4/ETH.c **** 	for(index=0;index<ETH_MAX_SOCKET;++index) {
 2968              		.loc 1 1068 0 discriminator 2
 2969 0098 7B69     		ldr	r3, [r7, #20]
 2970 009a 0133     		add	r3, r3, #1
 2971 009c 7B61     		str	r3, [r7, #20]
 2972              	.L118:
1068:.\Generated_Source\PSoC4/ETH.c **** 	for(index=0;index<ETH_MAX_SOCKET;++index) {
 2973              		.loc 1 1068 0 is_stmt 0 discriminator 1
 2974 009e 7B69     		ldr	r3, [r7, #20]
 2975 00a0 032B     		cmp	r3, #3
 2976 00a2 C0DD     		ble	.L119
1078:.\Generated_Source\PSoC4/ETH.c **** 	}
1079:.\Generated_Source\PSoC4/ETH.c **** 	/* Set device gateway address */
1080:.\Generated_Source\PSoC4/ETH.c **** 	ETH_SetGatewayAddress(gateway);
 2977              		.loc 1 1080 0 is_stmt 1
 2978 00a4 3B68     		ldr	r3, [r7]
 2979 00a6 181C     		mov	r0, r3
 2980 00a8 FFF7FEFF 		bl	ETH_SetGatewayAddress
1081:.\Generated_Source\PSoC4/ETH.c **** 	ETH_SetSubnetMask( subnet );
 2981              		.loc 1 1081 0
 2982 00ac 7B68     		ldr	r3, [r7, #4]
 2983 00ae 181C     		mov	r0, r3
 2984 00b0 FFF7FEFF 		bl	ETH_SetSubnetMask
1082:.\Generated_Source\PSoC4/ETH.c **** 	/* Store the subnet mask for later use, for ERRATA fix */
1083:.\Generated_Source\PSoC4/ETH.c **** 	ETH_SubnetMask = subnet;
 2985              		.loc 1 1083 0
 2986 00b4 0B4B     		ldr	r3, .L120+8
 2987 00b6 7A68     		ldr	r2, [r7, #4]
 2988 00b8 1A60     		str	r2, [r3]
1084:.\Generated_Source\PSoC4/ETH.c **** 	/* store the device mac */
1085:.\Generated_Source\PSoC4/ETH.c **** 	ETH_SetSourceMAC( mac );
 2989              		.loc 1 1085 0
 2990 00ba FB68     		ldr	r3, [r7, #12]
 2991 00bc 181C     		mov	r0, r3
 2992 00be FFF7FEFF 		bl	ETH_SetSourceMAC
1086:.\Generated_Source\PSoC4/ETH.c **** 	/* store the IP address */
1087:.\Generated_Source\PSoC4/ETH.c **** 	ETH_SetSourceIP( ip );
 2993              		.loc 1 1087 0
 2994 00c2 BB68     		ldr	r3, [r7, #8]
 2995 00c4 181C     		mov	r0, r3
 2996 00c6 FFF7FEFF 		bl	ETH_SetSourceIP
1088:.\Generated_Source\PSoC4/ETH.c **** 	/* clear pending interrupts */
1089:.\Generated_Source\PSoC4/ETH.c **** 	ETH_SetIR(0xFF);
 2997              		.loc 1 1089 0
 2998 00ca FF20     		mov	r0, #255
 2999 00cc FFF7FEFF 		bl	ETH_SetIR
1090:.\Generated_Source\PSoC4/ETH.c **** 	/* clear the subnet mask register (W5100 Errata Fix) */
1091:.\Generated_Source\PSoC4/ETH.c **** 	ETH_SetSubnetMask( 0 );
 3000              		.loc 1 1091 0
 3001 00d0 0020     		mov	r0, #0
 3002 00d2 FFF7FEFF 		bl	ETH_SetSubnetMask
1092:.\Generated_Source\PSoC4/ETH.c **** }
 3003              		.loc 1 1092 0
 3004 00d6 BD46     		mov	sp, r7
ARM GAS  C:\Users\CHUCK~1.ERH\AppData\Local\Temp\ccSVmyDA.s 			page 73


 3005 00d8 06B0     		add	sp, sp, #24
 3006              		@ sp needed for prologue
 3007 00da 80BD     		pop	{r7, pc}
 3008              	.L121:
 3009              		.align	2
 3010              	.L120:
 3011 00dc 00000000 		.word	ETH_SOCKET_RX_BASE
 3012 00e0 00000000 		.word	ETH_SOCKET_TX_BASE
 3013 00e4 00000000 		.word	ETH_SubnetMask
 3014              		.cfi_endproc
 3015              	.LFE44:
 3016              		.size	ETH_Init, .-ETH_Init
 3017              		.section	.rodata
 3018              		.align	2
 3019              	.LC6:
 3020 0010 30302D64 		.ascii	"00-de-ad-be-ef-00\000"
 3020      652D6164 
 3020      2D62652D 
 3020      65662D30 
 3020      3000
 3021 0022 0000     		.align	2
 3022              	.LC9:
 3023 0024 3139322E 		.ascii	"192.168.0.101\000"
 3023      3136382E 
 3023      302E3130 
 3023      3100
 3024 0032 0000     		.align	2
 3025              	.LC11:
 3026 0034 3235352E 		.ascii	"255.255.255.0\000"
 3026      3235352E 
 3026      3235352E 
 3026      3000
 3027 0042 0000     		.align	2
 3028              	.LC13:
 3029 0044 3139322E 		.ascii	"192.168.0.1\000"
 3029      3136382E 
 3029      302E3100 
 3030              		.section	.text.ETH_Start,"ax",%progbits
 3031              		.align	2
 3032              		.global	ETH_Start
 3033              		.code	16
 3034              		.thumb_func
 3035              		.type	ETH_Start, %function
 3036              	ETH_Start:
 3037              	.LFB45:
1093:.\Generated_Source\PSoC4/ETH.c **** /* ------------------------------------------------------------------------ */
1094:.\Generated_Source\PSoC4/ETH.c **** void
1095:.\Generated_Source\PSoC4/ETH.c **** ETH_Start( void )
1096:.\Generated_Source\PSoC4/ETH.c **** {
 3038              		.loc 1 1096 0
 3039              		.cfi_startproc
 3040 0000 80B5     		push	{r7, lr}
 3041              	.LCFI133:
 3042              		.cfi_def_cfa_offset 8
 3043              		.cfi_offset 7, -8
 3044              		.cfi_offset 14, -4
 3045 0002 84B0     		sub	sp, sp, #16
ARM GAS  C:\Users\CHUCK~1.ERH\AppData\Local\Temp\ccSVmyDA.s 			page 74


 3046              	.LCFI134:
 3047              		.cfi_def_cfa_offset 24
 3048 0004 00AF     		add	r7, sp, #0
 3049              	.LCFI135:
 3050              		.cfi_def_cfa_register 7
1097:.\Generated_Source\PSoC4/ETH.c **** 	uint32 ip;
1098:.\Generated_Source\PSoC4/ETH.c **** 	uint32 gateway;
1099:.\Generated_Source\PSoC4/ETH.c **** 	uint32 sub;
1100:.\Generated_Source\PSoC4/ETH.c **** 	
1101:.\Generated_Source\PSoC4/ETH.c **** 	/* Check for SPI initialization */
1102:.\Generated_Source\PSoC4/ETH.c **** 	if (SPI0_initVar == 0) {
 3051              		.loc 1 1102 0
 3052 0006 1F4B     		ldr	r3, .L125
 3053 0008 1B78     		ldrb	r3, [r3]
 3054 000a 002B     		cmp	r3, #0
 3055 000c 01D1     		bne	.L123
1103:.\Generated_Source\PSoC4/ETH.c **** 		/*
1104:.\Generated_Source\PSoC4/ETH.c **** 		 * the hardware has not yet been initialized.  Before anything can be
1105:.\Generated_Source\PSoC4/ETH.c **** 		 * initialized within the driver, the external hardware must be started
1106:.\Generated_Source\PSoC4/ETH.c **** 		 */
1107:.\Generated_Source\PSoC4/ETH.c **** 		SPI0_Start();
 3056              		.loc 1 1107 0
 3057 000e FFF7FEFF 		bl	SPI0_Start
 3058              	.L123:
1108:.\Generated_Source\PSoC4/ETH.c **** 	}
1109:.\Generated_Source\PSoC4/ETH.c **** 		
1110:.\Generated_Source\PSoC4/ETH.c **** 	/* wait for power on PLL Lock */
1111:.\Generated_Source\PSoC4/ETH.c **** 	CyDelay( 10 );
 3059              		.loc 1 1111 0
 3060 0012 0A20     		mov	r0, #10
 3061 0014 FFF7FEFF 		bl	CyDelay
1112:.\Generated_Source\PSoC4/ETH.c **** 	/* V1.2 new -- Parse MAC Address string */
1113:.\Generated_Source\PSoC4/ETH.c **** 	if ( ETH_ParseMAC("00-de-ad-be-ef-00", &ETH_MAC[0]) == CYRET_BAD_DATA) {
 3062              		.loc 1 1113 0
 3063 0018 1B4A     		ldr	r2, .L125+4
 3064 001a 1C4B     		ldr	r3, .L125+8
 3065 001c 101C     		mov	r0, r2
 3066 001e 191C     		mov	r1, r3
 3067 0020 FFF7FEFF 		bl	ETH_ParseMAC
 3068 0024 031C     		mov	r3, r0
 3069 0026 062B     		cmp	r3, #6
 3070 0028 11D1     		bne	.L124
1114:.\Generated_Source\PSoC4/ETH.c **** 		ETH_MAC[0] = 0;
 3071              		.loc 1 1114 0
 3072 002a 184B     		ldr	r3, .L125+8
 3073 002c 0022     		mov	r2, #0
 3074 002e 1A70     		strb	r2, [r3]
1115:.\Generated_Source\PSoC4/ETH.c **** 		ETH_MAC[1] = 0xDE;
 3075              		.loc 1 1115 0
 3076 0030 164B     		ldr	r3, .L125+8
 3077 0032 DE22     		mov	r2, #222
 3078 0034 5A70     		strb	r2, [r3, #1]
1116:.\Generated_Source\PSoC4/ETH.c **** 		ETH_MAC[2] = 0xAD;
 3079              		.loc 1 1116 0
 3080 0036 154B     		ldr	r3, .L125+8
 3081 0038 AD22     		mov	r2, #173
 3082 003a 9A70     		strb	r2, [r3, #2]
ARM GAS  C:\Users\CHUCK~1.ERH\AppData\Local\Temp\ccSVmyDA.s 			page 75


1117:.\Generated_Source\PSoC4/ETH.c **** 		ETH_MAC[3] = 0xC0;
 3083              		.loc 1 1117 0
 3084 003c 134B     		ldr	r3, .L125+8
 3085 003e C022     		mov	r2, #192
 3086 0040 DA70     		strb	r2, [r3, #3]
1118:.\Generated_Source\PSoC4/ETH.c **** 		ETH_MAC[4] = 0xDE;
 3087              		.loc 1 1118 0
 3088 0042 124B     		ldr	r3, .L125+8
 3089 0044 DE22     		mov	r2, #222
 3090 0046 1A71     		strb	r2, [r3, #4]
1119:.\Generated_Source\PSoC4/ETH.c **** 		ETH_MAC[5] = 0;
 3091              		.loc 1 1119 0
 3092 0048 104B     		ldr	r3, .L125+8
 3093 004a 0022     		mov	r2, #0
 3094 004c 5A71     		strb	r2, [r3, #5]
 3095              	.L124:
1120:.\Generated_Source\PSoC4/ETH.c **** 	}
1121:.\Generated_Source\PSoC4/ETH.c **** 	/* END of V1.2 Update ------ */
1122:.\Generated_Source\PSoC4/ETH.c **** 	ip = ETH_ParseIP("192.168.0.101");
 3096              		.loc 1 1122 0
 3097 004e 104B     		ldr	r3, .L125+12
 3098 0050 181C     		mov	r0, r3
 3099 0052 FFF7FEFF 		bl	ETH_ParseIP
 3100 0056 031C     		mov	r3, r0
 3101 0058 FB60     		str	r3, [r7, #12]
1123:.\Generated_Source\PSoC4/ETH.c **** 	sub = ETH_ParseIP("255.255.255.0");
 3102              		.loc 1 1123 0
 3103 005a 0E4B     		ldr	r3, .L125+16
 3104 005c 181C     		mov	r0, r3
 3105 005e FFF7FEFF 		bl	ETH_ParseIP
 3106 0062 031C     		mov	r3, r0
 3107 0064 BB60     		str	r3, [r7, #8]
1124:.\Generated_Source\PSoC4/ETH.c **** 	gateway = ETH_ParseIP("192.168.0.1");
 3108              		.loc 1 1124 0
 3109 0066 0C4B     		ldr	r3, .L125+20
 3110 0068 181C     		mov	r0, r3
 3111 006a FFF7FEFF 		bl	ETH_ParseIP
 3112 006e 031C     		mov	r3, r0
 3113 0070 7B60     		str	r3, [r7, #4]
1125:.\Generated_Source\PSoC4/ETH.c **** 	/* Initialize the device with the default data */
1126:.\Generated_Source\PSoC4/ETH.c **** 	ETH_Init( &ETH_MAC[0], ip, sub, gateway  );
 3114              		.loc 1 1126 0
 3115 0072 0648     		ldr	r0, .L125+8
 3116 0074 F968     		ldr	r1, [r7, #12]
 3117 0076 BA68     		ldr	r2, [r7, #8]
 3118 0078 7B68     		ldr	r3, [r7, #4]
 3119 007a FFF7FEFF 		bl	ETH_Init
1127:.\Generated_Source\PSoC4/ETH.c **** }
 3120              		.loc 1 1127 0
 3121 007e BD46     		mov	sp, r7
 3122 0080 04B0     		add	sp, sp, #16
 3123              		@ sp needed for prologue
 3124 0082 80BD     		pop	{r7, pc}
 3125              	.L126:
 3126              		.align	2
 3127              	.L125:
 3128 0084 00000000 		.word	SPI0_initVar
ARM GAS  C:\Users\CHUCK~1.ERH\AppData\Local\Temp\ccSVmyDA.s 			page 76


 3129 0088 10000000 		.word	.LC6
 3130 008c 00000000 		.word	ETH_MAC
 3131 0090 24000000 		.word	.LC9
 3132 0094 34000000 		.word	.LC11
 3133 0098 44000000 		.word	.LC13
 3134              		.cfi_endproc
 3135              	.LFE45:
 3136              		.size	ETH_Start, .-ETH_Start
 3137              		.section	.text.ETH_ParseIP,"ax",%progbits
 3138              		.align	2
 3139              		.global	ETH_ParseIP
 3140              		.code	16
 3141              		.thumb_func
 3142              		.type	ETH_ParseIP, %function
 3143              	ETH_ParseIP:
 3144              	.LFB46:
1128:.\Generated_Source\PSoC4/ETH.c **** /* ------------------------------------------------------------------------ */
1129:.\Generated_Source\PSoC4/ETH.c **** uint32
1130:.\Generated_Source\PSoC4/ETH.c **** ETH_ParseIP( const char* ipString )
1131:.\Generated_Source\PSoC4/ETH.c **** {
 3145              		.loc 1 1131 0
 3146              		.cfi_startproc
 3147 0000 90B5     		push	{r4, r7, lr}
 3148              	.LCFI136:
 3149              		.cfi_def_cfa_offset 12
 3150              		.cfi_offset 4, -12
 3151              		.cfi_offset 7, -8
 3152              		.cfi_offset 14, -4
 3153 0002 89B0     		sub	sp, sp, #36
 3154              	.LCFI137:
 3155              		.cfi_def_cfa_offset 48
 3156 0004 00AF     		add	r7, sp, #0
 3157              	.LCFI138:
 3158              		.cfi_def_cfa_register 7
 3159 0006 7860     		str	r0, [r7, #4]
1132:.\Generated_Source\PSoC4/ETH.c **** 	/*
1133:.\Generated_Source\PSoC4/ETH.c **** 	 * Parse a human readable string in to a IP address usable by the hardare
1134:.\Generated_Source\PSoC4/ETH.c **** 	 */
1135:.\Generated_Source\PSoC4/ETH.c **** 	int index;
1136:.\Generated_Source\PSoC4/ETH.c **** 	char digit[5];
1137:.\Generated_Source\PSoC4/ETH.c **** 	uint8 ip[4];
1138:.\Generated_Source\PSoC4/ETH.c **** 	int counter;
1139:.\Generated_Source\PSoC4/ETH.c **** 	int dindex;
1140:.\Generated_Source\PSoC4/ETH.c **** 	
1141:.\Generated_Source\PSoC4/ETH.c **** 	index = 0;
 3160              		.loc 1 1141 0
 3161 0008 0023     		mov	r3, #0
 3162 000a FB61     		str	r3, [r7, #28]
1142:.\Generated_Source\PSoC4/ETH.c **** 	dindex = 0;
 3163              		.loc 1 1142 0
 3164 000c 0023     		mov	r3, #0
 3165 000e 7B61     		str	r3, [r7, #20]
1143:.\Generated_Source\PSoC4/ETH.c **** 	counter = 0;
 3166              		.loc 1 1143 0
 3167 0010 0023     		mov	r3, #0
 3168 0012 BB61     		str	r3, [r7, #24]
1144:.\Generated_Source\PSoC4/ETH.c **** 	
ARM GAS  C:\Users\CHUCK~1.ERH\AppData\Local\Temp\ccSVmyDA.s 			page 77


1145:.\Generated_Source\PSoC4/ETH.c **** 	while ( (counter < 4) && ((unsigned int)index < strlen(ipString) ) ) {
 3169              		.loc 1 1145 0
 3170 0014 63E0     		b	.L128
 3171              	.L137:
1146:.\Generated_Source\PSoC4/ETH.c **** 		if ( (ipString[index] >= '0' ) && (ipString[index] <= '9') ) {
 3172              		.loc 1 1146 0
 3173 0016 FB69     		ldr	r3, [r7, #28]
 3174 0018 7A68     		ldr	r2, [r7, #4]
 3175 001a D318     		add	r3, r2, r3
 3176 001c 1B78     		ldrb	r3, [r3]
 3177 001e 2F2B     		cmp	r3, #47
 3178 0020 17D9     		bls	.L129
 3179              		.loc 1 1146 0 is_stmt 0 discriminator 1
 3180 0022 FB69     		ldr	r3, [r7, #28]
 3181 0024 7A68     		ldr	r2, [r7, #4]
 3182 0026 D318     		add	r3, r2, r3
 3183 0028 1B78     		ldrb	r3, [r3]
 3184 002a 392B     		cmp	r3, #57
 3185 002c 11D8     		bhi	.L129
1147:.\Generated_Source\PSoC4/ETH.c **** 			if (dindex > 3) return( 0xFFFFFFFF );
 3186              		.loc 1 1147 0 is_stmt 1
 3187 002e 7B69     		ldr	r3, [r7, #20]
 3188 0030 032B     		cmp	r3, #3
 3189 0032 02DD     		ble	.L130
 3190              		.loc 1 1147 0 is_stmt 0 discriminator 1
 3191 0034 0123     		mov	r3, #1
 3192 0036 5B42     		neg	r3, r3
 3193 0038 7BE0     		b	.L139
 3194              	.L130:
1148:.\Generated_Source\PSoC4/ETH.c **** 			digit[dindex++] = ipString[index];
 3195              		.loc 1 1148 0 is_stmt 1
 3196 003a FB69     		ldr	r3, [r7, #28]
 3197 003c 7A68     		ldr	r2, [r7, #4]
 3198 003e D318     		add	r3, r2, r3
 3199 0040 1A78     		ldrb	r2, [r3]
 3200 0042 391C     		mov	r1, r7
 3201 0044 0C31     		add	r1, r1, #12
 3202 0046 7B69     		ldr	r3, [r7, #20]
 3203 0048 CB18     		add	r3, r1, r3
 3204 004a 1A70     		strb	r2, [r3]
 3205 004c 7B69     		ldr	r3, [r7, #20]
 3206 004e 0133     		add	r3, r3, #1
 3207 0050 7B61     		str	r3, [r7, #20]
 3208              	.L129:
1149:.\Generated_Source\PSoC4/ETH.c **** 			
1150:.\Generated_Source\PSoC4/ETH.c **** 		}
1151:.\Generated_Source\PSoC4/ETH.c **** 		
1152:.\Generated_Source\PSoC4/ETH.c **** 		if ( (ipString[index] == '.') || (ipString[index+1] == 0) ) {
 3209              		.loc 1 1152 0
 3210 0052 FB69     		ldr	r3, [r7, #28]
 3211 0054 7A68     		ldr	r2, [r7, #4]
 3212 0056 D318     		add	r3, r2, r3
 3213 0058 1B78     		ldrb	r3, [r3]
 3214 005a 2E2B     		cmp	r3, #46
 3215 005c 06D0     		beq	.L132
 3216              		.loc 1 1152 0 is_stmt 0 discriminator 1
 3217 005e FB69     		ldr	r3, [r7, #28]
ARM GAS  C:\Users\CHUCK~1.ERH\AppData\Local\Temp\ccSVmyDA.s 			page 78


 3218 0060 0133     		add	r3, r3, #1
 3219 0062 7A68     		ldr	r2, [r7, #4]
 3220 0064 D318     		add	r3, r2, r3
 3221 0066 1B78     		ldrb	r3, [r3]
 3222 0068 002B     		cmp	r3, #0
 3223 006a 35D1     		bne	.L133
 3224              	.L132:
1153:.\Generated_Source\PSoC4/ETH.c **** 			digit[dindex] = 0;
 3225              		.loc 1 1153 0 is_stmt 1
 3226 006c 3A1C     		mov	r2, r7
 3227 006e 0C32     		add	r2, r2, #12
 3228 0070 7B69     		ldr	r3, [r7, #20]
 3229 0072 D318     		add	r3, r2, r3
 3230 0074 0022     		mov	r2, #0
 3231 0076 1A70     		strb	r2, [r3]
1154:.\Generated_Source\PSoC4/ETH.c **** 			dindex = 0;
 3232              		.loc 1 1154 0
 3233 0078 0023     		mov	r3, #0
 3234 007a 7B61     		str	r3, [r7, #20]
1155:.\Generated_Source\PSoC4/ETH.c **** 			/* convert the value and store in the buffer */
1156:.\Generated_Source\PSoC4/ETH.c **** 			ip[counter] = 0;
 3235              		.loc 1 1156 0
 3236 007c 3A1C     		mov	r2, r7
 3237 007e 0832     		add	r2, r2, #8
 3238 0080 BB69     		ldr	r3, [r7, #24]
 3239 0082 D318     		add	r3, r2, r3
 3240 0084 0022     		mov	r2, #0
 3241 0086 1A70     		strb	r2, [r3]
1157:.\Generated_Source\PSoC4/ETH.c **** 			while (digit[dindex] != 0) {
 3242              		.loc 1 1157 0
 3243 0088 1AE0     		b	.L134
 3244              	.L135:
1158:.\Generated_Source\PSoC4/ETH.c **** 				ip[counter] = (ip[counter]*10) + (digit[dindex]-'0');
 3245              		.loc 1 1158 0
 3246 008a 3A1C     		mov	r2, r7
 3247 008c 0832     		add	r2, r2, #8
 3248 008e BB69     		ldr	r3, [r7, #24]
 3249 0090 D318     		add	r3, r2, r3
 3250 0092 1B78     		ldrb	r3, [r3]
 3251 0094 1A1C     		add	r2, r3, #0
 3252 0096 9200     		lsl	r2, r2, #2
 3253 0098 D318     		add	r3, r2, r3
 3254 009a 5B00     		lsl	r3, r3, #1
 3255 009c DAB2     		uxtb	r2, r3
 3256 009e 391C     		mov	r1, r7
 3257 00a0 0C31     		add	r1, r1, #12
 3258 00a2 7B69     		ldr	r3, [r7, #20]
 3259 00a4 CB18     		add	r3, r1, r3
 3260 00a6 1B78     		ldrb	r3, [r3]
 3261 00a8 D318     		add	r3, r2, r3
 3262 00aa DBB2     		uxtb	r3, r3
 3263 00ac 303B     		sub	r3, r3, #48
 3264 00ae DAB2     		uxtb	r2, r3
 3265 00b0 391C     		mov	r1, r7
 3266 00b2 0831     		add	r1, r1, #8
 3267 00b4 BB69     		ldr	r3, [r7, #24]
 3268 00b6 CB18     		add	r3, r1, r3
ARM GAS  C:\Users\CHUCK~1.ERH\AppData\Local\Temp\ccSVmyDA.s 			page 79


 3269 00b8 1A70     		strb	r2, [r3]
1159:.\Generated_Source\PSoC4/ETH.c **** 				++dindex;
 3270              		.loc 1 1159 0
 3271 00ba 7B69     		ldr	r3, [r7, #20]
 3272 00bc 0133     		add	r3, r3, #1
 3273 00be 7B61     		str	r3, [r7, #20]
 3274              	.L134:
1157:.\Generated_Source\PSoC4/ETH.c **** 			while (digit[dindex] != 0) {
 3275              		.loc 1 1157 0 discriminator 1
 3276 00c0 3A1C     		mov	r2, r7
 3277 00c2 0C32     		add	r2, r2, #12
 3278 00c4 7B69     		ldr	r3, [r7, #20]
 3279 00c6 D318     		add	r3, r2, r3
 3280 00c8 1B78     		ldrb	r3, [r3]
 3281 00ca 002B     		cmp	r3, #0
 3282 00cc DDD1     		bne	.L135
1160:.\Generated_Source\PSoC4/ETH.c **** 				// ip[counter] = ...
1161:.\Generated_Source\PSoC4/ETH.c **** 			}
1162:.\Generated_Source\PSoC4/ETH.c **** 			/* reset the digit index to start accumulating digits again*/
1163:.\Generated_Source\PSoC4/ETH.c **** 			dindex = 0;
 3283              		.loc 1 1163 0
 3284 00ce 0023     		mov	r3, #0
 3285 00d0 7B61     		str	r3, [r7, #20]
1164:.\Generated_Source\PSoC4/ETH.c **** 			/* move to the next address byte */
1165:.\Generated_Source\PSoC4/ETH.c **** 			++counter;
 3286              		.loc 1 1165 0
 3287 00d2 BB69     		ldr	r3, [r7, #24]
 3288 00d4 0133     		add	r3, r3, #1
 3289 00d6 BB61     		str	r3, [r7, #24]
 3290              	.L133:
1166:.\Generated_Source\PSoC4/ETH.c **** 		}
1167:.\Generated_Source\PSoC4/ETH.c **** 		++index;
 3291              		.loc 1 1167 0
 3292 00d8 FB69     		ldr	r3, [r7, #28]
 3293 00da 0133     		add	r3, r3, #1
 3294 00dc FB61     		str	r3, [r7, #28]
 3295              	.L128:
1145:.\Generated_Source\PSoC4/ETH.c **** 	while ( (counter < 4) && ((unsigned int)index < strlen(ipString) ) ) {
 3296              		.loc 1 1145 0 discriminator 1
 3297 00de BB69     		ldr	r3, [r7, #24]
 3298 00e0 032B     		cmp	r3, #3
 3299 00e2 07DC     		bgt	.L136
1145:.\Generated_Source\PSoC4/ETH.c **** 	while ( (counter < 4) && ((unsigned int)index < strlen(ipString) ) ) {
 3300              		.loc 1 1145 0 is_stmt 0 discriminator 2
 3301 00e4 FC69     		ldr	r4, [r7, #28]
 3302 00e6 7B68     		ldr	r3, [r7, #4]
 3303 00e8 181C     		mov	r0, r3
 3304 00ea FFF7FEFF 		bl	strlen
 3305 00ee 031C     		mov	r3, r0
 3306 00f0 9C42     		cmp	r4, r3
 3307 00f2 90D3     		bcc	.L137
 3308              	.L136:
1168:.\Generated_Source\PSoC4/ETH.c **** 	}
1169:.\Generated_Source\PSoC4/ETH.c **** 	
1170:.\Generated_Source\PSoC4/ETH.c **** 	if (counter != 4) {
 3309              		.loc 1 1170 0 is_stmt 1
 3310 00f4 BB69     		ldr	r3, [r7, #24]
ARM GAS  C:\Users\CHUCK~1.ERH\AppData\Local\Temp\ccSVmyDA.s 			page 80


 3311 00f6 042B     		cmp	r3, #4
 3312 00f8 02D0     		beq	.L138
1171:.\Generated_Source\PSoC4/ETH.c **** 		return( 0xFFFFFFFF );
 3313              		.loc 1 1171 0
 3314 00fa 0123     		mov	r3, #1
 3315 00fc 5B42     		neg	r3, r3
 3316 00fe 18E0     		b	.L139
 3317              	.L138:
1172:.\Generated_Source\PSoC4/ETH.c **** 	}
1173:.\Generated_Source\PSoC4/ETH.c **** 	else {
1174:.\Generated_Source\PSoC4/ETH.c **** 		return( ETH_IPADDRESS(ip[0], ip[1], ip[2], ip[3]) );
 3318              		.loc 1 1174 0
 3319 0100 3B1C     		mov	r3, r7
 3320 0102 0833     		add	r3, r3, #8
 3321 0104 1B78     		ldrb	r3, [r3]
 3322 0106 1A1C     		mov	r2, r3
 3323 0108 3B1C     		mov	r3, r7
 3324 010a 0833     		add	r3, r3, #8
 3325 010c 5B78     		ldrb	r3, [r3, #1]
 3326 010e 1B02     		lsl	r3, r3, #8
 3327 0110 1B04     		lsl	r3, r3, #16
 3328 0112 1B0C     		lsr	r3, r3, #16
 3329 0114 D218     		add	r2, r2, r3
 3330 0116 3B1C     		mov	r3, r7
 3331 0118 0833     		add	r3, r3, #8
 3332 011a 9B78     		ldrb	r3, [r3, #2]
 3333 011c 1B04     		lsl	r3, r3, #16
 3334 011e 191C     		mov	r1, r3
 3335 0120 FF23     		mov	r3, #255
 3336 0122 1B04     		lsl	r3, r3, #16
 3337 0124 0B40     		and	r3, r1
 3338 0126 D218     		add	r2, r2, r3
 3339 0128 3B1C     		mov	r3, r7
 3340 012a 0833     		add	r3, r3, #8
 3341 012c DB78     		ldrb	r3, [r3, #3]
 3342 012e 1B06     		lsl	r3, r3, #24
 3343 0130 D318     		add	r3, r2, r3
 3344              	.L139:
1175:.\Generated_Source\PSoC4/ETH.c **** 	}
1176:.\Generated_Source\PSoC4/ETH.c **** }
 3345              		.loc 1 1176 0
 3346 0132 181C     		mov	r0, r3
 3347 0134 BD46     		mov	sp, r7
 3348 0136 09B0     		add	sp, sp, #36
 3349              		@ sp needed for prologue
 3350 0138 90BD     		pop	{r4, r7, pc}
 3351              		.cfi_endproc
 3352              	.LFE46:
 3353              		.size	ETH_ParseIP, .-ETH_ParseIP
 3354 013a C046     		.section	.text.ETH_ParseMAC,"ax",%progbits
 3355              		.align	2
 3356              		.global	ETH_ParseMAC
 3357              		.code	16
 3358              		.thumb_func
 3359              		.type	ETH_ParseMAC, %function
 3360              	ETH_ParseMAC:
 3361              	.LFB47:
ARM GAS  C:\Users\CHUCK~1.ERH\AppData\Local\Temp\ccSVmyDA.s 			page 81


1177:.\Generated_Source\PSoC4/ETH.c **** /* ------------------------------------------------------------------------ */
1178:.\Generated_Source\PSoC4/ETH.c **** /**
1179:.\Generated_Source\PSoC4/ETH.c ****  * /brief Parse a MAC Address string in to a 6-byte mac address
1180:.\Generated_Source\PSoC4/ETH.c ****  * /param *macString Pointer to the ASCII-Z String containing the MAC address
1181:.\Generated_Source\PSoC4/ETH.c ****  * /param *mac Pointer to the 6-byte array to hold the output mac addres
1182:.\Generated_Source\PSoC4/ETH.c ****  */
1183:.\Generated_Source\PSoC4/ETH.c **** cystatus ETH_ParseMAC(const char *macString, uint8 *mac)
1184:.\Generated_Source\PSoC4/ETH.c **** {
 3362              		.loc 1 1184 0
 3363              		.cfi_startproc
 3364 0000 80B5     		push	{r7, lr}
 3365              	.LCFI139:
 3366              		.cfi_def_cfa_offset 8
 3367              		.cfi_offset 7, -8
 3368              		.cfi_offset 14, -4
 3369 0002 86B0     		sub	sp, sp, #24
 3370              	.LCFI140:
 3371              		.cfi_def_cfa_offset 32
 3372 0004 00AF     		add	r7, sp, #0
 3373              	.LCFI141:
 3374              		.cfi_def_cfa_register 7
 3375 0006 7860     		str	r0, [r7, #4]
 3376 0008 3960     		str	r1, [r7]
1185:.\Generated_Source\PSoC4/ETH.c **** 	/* 
1186:.\Generated_Source\PSoC4/ETH.c **** 	 * a mac address is specified as a string of 6 hex bytes with
1187:.\Generated_Source\PSoC4/ETH.c **** 	 * dashes ('-') seperating the bytes.  An invalidly formed
1188:.\Generated_Source\PSoC4/ETH.c **** 	 * address will only process the values up the error and return BAD_DATA
1189:.\Generated_Source\PSoC4/ETH.c **** 	 * otherwise, SUCESS is returned.
1190:.\Generated_Source\PSoC4/ETH.c **** 	 */
1191:.\Generated_Source\PSoC4/ETH.c **** 	int digit;
1192:.\Generated_Source\PSoC4/ETH.c **** 	int index;
1193:.\Generated_Source\PSoC4/ETH.c **** 	cystatus result;
1194:.\Generated_Source\PSoC4/ETH.c **** 	
1195:.\Generated_Source\PSoC4/ETH.c **** 	result = CYRET_SUCCESS;
 3377              		.loc 1 1195 0
 3378 000a 0023     		mov	r3, #0
 3379 000c FB60     		str	r3, [r7, #12]
1196:.\Generated_Source\PSoC4/ETH.c **** 	index = 0;
 3380              		.loc 1 1196 0
 3381 000e 0023     		mov	r3, #0
 3382 0010 3B61     		str	r3, [r7, #16]
1197:.\Generated_Source\PSoC4/ETH.c **** 	for(digit = 0;(digit<6) && (result == CYRET_SUCCESS)&&(macString[index] != 0);++digit) {
 3383              		.loc 1 1197 0
 3384 0012 0023     		mov	r3, #0
 3385 0014 7B61     		str	r3, [r7, #20]
 3386 0016 F9E0     		b	.L141
 3387              	.L167:
1198:.\Generated_Source\PSoC4/ETH.c **** 		// process the first nibble
1199:.\Generated_Source\PSoC4/ETH.c **** 		if (ETH_ISXDIGIT(macString[index]) ) {
 3388              		.loc 1 1199 0
 3389 0018 3B69     		ldr	r3, [r7, #16]
 3390 001a 7A68     		ldr	r2, [r7, #4]
 3391 001c D318     		add	r3, r2, r3
 3392 001e 1B78     		ldrb	r3, [r3]
 3393 0020 2F2B     		cmp	r3, #47
 3394 0022 05D9     		bls	.L142
 3395              		.loc 1 1199 0 is_stmt 0 discriminator 1
ARM GAS  C:\Users\CHUCK~1.ERH\AppData\Local\Temp\ccSVmyDA.s 			page 82


 3396 0024 3B69     		ldr	r3, [r7, #16]
 3397 0026 7A68     		ldr	r2, [r7, #4]
 3398 0028 D318     		add	r3, r2, r3
 3399 002a 1B78     		ldrb	r3, [r3]
 3400 002c 392B     		cmp	r3, #57
 3401 002e 19D9     		bls	.L143
 3402              	.L142:
 3403              		.loc 1 1199 0 discriminator 2
 3404 0030 3B69     		ldr	r3, [r7, #16]
 3405 0032 7A68     		ldr	r2, [r7, #4]
 3406 0034 D318     		add	r3, r2, r3
 3407 0036 1B78     		ldrb	r3, [r3]
 3408 0038 602B     		cmp	r3, #96
 3409 003a 05D9     		bls	.L144
 3410              		.loc 1 1199 0 discriminator 1
 3411 003c 3B69     		ldr	r3, [r7, #16]
 3412 003e 7A68     		ldr	r2, [r7, #4]
 3413 0040 D318     		add	r3, r2, r3
 3414 0042 1B78     		ldrb	r3, [r3]
 3415 0044 662B     		cmp	r3, #102
 3416 0046 0DD9     		bls	.L143
 3417              	.L144:
 3418              		.loc 1 1199 0 discriminator 2
 3419 0048 3B69     		ldr	r3, [r7, #16]
 3420 004a 7A68     		ldr	r2, [r7, #4]
 3421 004c D318     		add	r3, r2, r3
 3422 004e 1B78     		ldrb	r3, [r3]
 3423 0050 402B     		cmp	r3, #64
 3424 0052 00D8     		bhi	.LCB3010
 3425 0054 D5E0     		b	.L145	@long jump
 3426              	.LCB3010:
 3427              		.loc 1 1199 0 discriminator 3
 3428 0056 3B69     		ldr	r3, [r7, #16]
 3429 0058 7A68     		ldr	r2, [r7, #4]
 3430 005a D318     		add	r3, r2, r3
 3431 005c 1B78     		ldrb	r3, [r3]
 3432 005e 462B     		cmp	r3, #70
 3433 0060 00D9     		bls	.LCB3016
 3434 0062 CEE0     		b	.L145	@long jump
 3435              	.LCB3016:
 3436              	.L143:
1200:.\Generated_Source\PSoC4/ETH.c **** 			mac[digit] = ETH_HEX2BIN(macString[index]);
 3437              		.loc 1 1200 0 is_stmt 1
 3438 0064 7B69     		ldr	r3, [r7, #20]
 3439 0066 3A68     		ldr	r2, [r7]
 3440 0068 D218     		add	r2, r2, r3
 3441 006a 3B69     		ldr	r3, [r7, #16]
 3442 006c 7968     		ldr	r1, [r7, #4]
 3443 006e CB18     		add	r3, r1, r3
 3444 0070 1B78     		ldrb	r3, [r3]
 3445 0072 2F2B     		cmp	r3, #47
 3446 0074 0CD9     		bls	.L146
 3447              		.loc 1 1200 0 is_stmt 0 discriminator 1
 3448 0076 3B69     		ldr	r3, [r7, #16]
 3449 0078 7968     		ldr	r1, [r7, #4]
 3450 007a CB18     		add	r3, r1, r3
 3451 007c 1B78     		ldrb	r3, [r3]
ARM GAS  C:\Users\CHUCK~1.ERH\AppData\Local\Temp\ccSVmyDA.s 			page 83


 3452 007e 392B     		cmp	r3, #57
 3453 0080 06D8     		bhi	.L146
 3454 0082 3B69     		ldr	r3, [r7, #16]
 3455 0084 7968     		ldr	r1, [r7, #4]
 3456 0086 CB18     		add	r3, r1, r3
 3457 0088 1B78     		ldrb	r3, [r3]
 3458 008a 303B     		sub	r3, r3, #48
 3459 008c DBB2     		uxtb	r3, r3
 3460 008e 26E0     		b	.L147
 3461              	.L146:
 3462              		.loc 1 1200 0 discriminator 2
 3463 0090 3B69     		ldr	r3, [r7, #16]
 3464 0092 7968     		ldr	r1, [r7, #4]
 3465 0094 CB18     		add	r3, r1, r3
 3466 0096 1B78     		ldrb	r3, [r3]
 3467 0098 602B     		cmp	r3, #96
 3468 009a 0CD9     		bls	.L148
 3469              		.loc 1 1200 0 discriminator 4
 3470 009c 3B69     		ldr	r3, [r7, #16]
 3471 009e 7968     		ldr	r1, [r7, #4]
 3472 00a0 CB18     		add	r3, r1, r3
 3473 00a2 1B78     		ldrb	r3, [r3]
 3474 00a4 662B     		cmp	r3, #102
 3475 00a6 06D8     		bhi	.L148
 3476              		.loc 1 1200 0 discriminator 2
 3477 00a8 3B69     		ldr	r3, [r7, #16]
 3478 00aa 7968     		ldr	r1, [r7, #4]
 3479 00ac CB18     		add	r3, r1, r3
 3480 00ae 1B78     		ldrb	r3, [r3]
 3481 00b0 573B     		sub	r3, r3, #87
 3482 00b2 DBB2     		uxtb	r3, r3
 3483 00b4 13E0     		b	.L149
 3484              	.L148:
 3485              		.loc 1 1200 0 discriminator 5
 3486 00b6 3B69     		ldr	r3, [r7, #16]
 3487 00b8 7968     		ldr	r1, [r7, #4]
 3488 00ba CB18     		add	r3, r1, r3
 3489 00bc 1B78     		ldrb	r3, [r3]
 3490 00be 402B     		cmp	r3, #64
 3491 00c0 0CD9     		bls	.L150
 3492              		.loc 1 1200 0 discriminator 7
 3493 00c2 3B69     		ldr	r3, [r7, #16]
 3494 00c4 7968     		ldr	r1, [r7, #4]
 3495 00c6 CB18     		add	r3, r1, r3
 3496 00c8 1B78     		ldrb	r3, [r3]
 3497 00ca 462B     		cmp	r3, #70
 3498 00cc 06D8     		bhi	.L150
 3499              		.loc 1 1200 0 discriminator 3
 3500 00ce 3B69     		ldr	r3, [r7, #16]
 3501 00d0 7968     		ldr	r1, [r7, #4]
 3502 00d2 CB18     		add	r3, r1, r3
 3503 00d4 1B78     		ldrb	r3, [r3]
 3504 00d6 373B     		sub	r3, r3, #55
 3505 00d8 DBB2     		uxtb	r3, r3
 3506 00da 00E0     		b	.L151
 3507              	.L150:
 3508              		.loc 1 1200 0 discriminator 8
ARM GAS  C:\Users\CHUCK~1.ERH\AppData\Local\Temp\ccSVmyDA.s 			page 84


 3509 00dc 0023     		mov	r3, #0
 3510              	.L151:
 3511              	.L149:
 3512              	.L147:
 3513              		.loc 1 1200 0 discriminator 3
 3514 00de 1370     		strb	r3, [r2]
1201:.\Generated_Source\PSoC4/ETH.c **** 			++index;
 3515              		.loc 1 1201 0 is_stmt 1 discriminator 3
 3516 00e0 3B69     		ldr	r3, [r7, #16]
 3517 00e2 0133     		add	r3, r3, #1
 3518 00e4 3B61     		str	r3, [r7, #16]
1202:.\Generated_Source\PSoC4/ETH.c **** 			mac[digit] <<= 4;
 3519              		.loc 1 1202 0 discriminator 3
 3520 00e6 7B69     		ldr	r3, [r7, #20]
 3521 00e8 3A68     		ldr	r2, [r7]
 3522 00ea D318     		add	r3, r2, r3
 3523 00ec 7A69     		ldr	r2, [r7, #20]
 3524 00ee 3968     		ldr	r1, [r7]
 3525 00f0 8A18     		add	r2, r1, r2
 3526 00f2 1278     		ldrb	r2, [r2]
 3527 00f4 1201     		lsl	r2, r2, #4
 3528 00f6 D2B2     		uxtb	r2, r2
 3529 00f8 1A70     		strb	r2, [r3]
1203:.\Generated_Source\PSoC4/ETH.c **** 			if (ETH_ISXDIGIT(macString[index])) {
 3530              		.loc 1 1203 0 discriminator 3
 3531 00fa 3B69     		ldr	r3, [r7, #16]
 3532 00fc 7A68     		ldr	r2, [r7, #4]
 3533 00fe D318     		add	r3, r2, r3
 3534 0100 1B78     		ldrb	r3, [r3]
 3535 0102 2F2B     		cmp	r3, #47
 3536 0104 05D9     		bls	.L152
 3537              		.loc 1 1203 0 is_stmt 0 discriminator 1
 3538 0106 3B69     		ldr	r3, [r7, #16]
 3539 0108 7A68     		ldr	r2, [r7, #4]
 3540 010a D318     		add	r3, r2, r3
 3541 010c 1B78     		ldrb	r3, [r3]
 3542 010e 392B     		cmp	r3, #57
 3543 0110 17D9     		bls	.L153
 3544              	.L152:
 3545              		.loc 1 1203 0 discriminator 2
 3546 0112 3B69     		ldr	r3, [r7, #16]
 3547 0114 7A68     		ldr	r2, [r7, #4]
 3548 0116 D318     		add	r3, r2, r3
 3549 0118 1B78     		ldrb	r3, [r3]
 3550 011a 602B     		cmp	r3, #96
 3551 011c 05D9     		bls	.L154
 3552              		.loc 1 1203 0 discriminator 1
 3553 011e 3B69     		ldr	r3, [r7, #16]
 3554 0120 7A68     		ldr	r2, [r7, #4]
 3555 0122 D318     		add	r3, r2, r3
 3556 0124 1B78     		ldrb	r3, [r3]
 3557 0126 662B     		cmp	r3, #102
 3558 0128 0BD9     		bls	.L153
 3559              	.L154:
 3560              		.loc 1 1203 0 discriminator 2
 3561 012a 3B69     		ldr	r3, [r7, #16]
 3562 012c 7A68     		ldr	r2, [r7, #4]
ARM GAS  C:\Users\CHUCK~1.ERH\AppData\Local\Temp\ccSVmyDA.s 			page 85


 3563 012e D318     		add	r3, r2, r3
 3564 0130 1B78     		ldrb	r3, [r3]
 3565 0132 402B     		cmp	r3, #64
 3566 0134 61D9     		bls	.L155
 3567              		.loc 1 1203 0 discriminator 3
 3568 0136 3B69     		ldr	r3, [r7, #16]
 3569 0138 7A68     		ldr	r2, [r7, #4]
 3570 013a D318     		add	r3, r2, r3
 3571 013c 1B78     		ldrb	r3, [r3]
 3572 013e 462B     		cmp	r3, #70
 3573 0140 5BD8     		bhi	.L155
 3574              	.L153:
1204:.\Generated_Source\PSoC4/ETH.c **** 				mac[digit] += ETH_HEX2BIN(macString[index]);
 3575              		.loc 1 1204 0 is_stmt 1
 3576 0142 7B69     		ldr	r3, [r7, #20]
 3577 0144 3A68     		ldr	r2, [r7]
 3578 0146 D218     		add	r2, r2, r3
 3579 0148 7B69     		ldr	r3, [r7, #20]
 3580 014a 3968     		ldr	r1, [r7]
 3581 014c CB18     		add	r3, r1, r3
 3582 014e 1978     		ldrb	r1, [r3]
 3583 0150 3B69     		ldr	r3, [r7, #16]
 3584 0152 7868     		ldr	r0, [r7, #4]
 3585 0154 C318     		add	r3, r0, r3
 3586 0156 1B78     		ldrb	r3, [r3]
 3587 0158 2F2B     		cmp	r3, #47
 3588 015a 0CD9     		bls	.L156
 3589              		.loc 1 1204 0 is_stmt 0 discriminator 1
 3590 015c 3B69     		ldr	r3, [r7, #16]
 3591 015e 7868     		ldr	r0, [r7, #4]
 3592 0160 C318     		add	r3, r0, r3
 3593 0162 1B78     		ldrb	r3, [r3]
 3594 0164 392B     		cmp	r3, #57
 3595 0166 06D8     		bhi	.L156
 3596 0168 3B69     		ldr	r3, [r7, #16]
 3597 016a 7868     		ldr	r0, [r7, #4]
 3598 016c C318     		add	r3, r0, r3
 3599 016e 1B78     		ldrb	r3, [r3]
 3600 0170 303B     		sub	r3, r3, #48
 3601 0172 DBB2     		uxtb	r3, r3
 3602 0174 26E0     		b	.L157
 3603              	.L156:
 3604              		.loc 1 1204 0 discriminator 2
 3605 0176 3B69     		ldr	r3, [r7, #16]
 3606 0178 7868     		ldr	r0, [r7, #4]
 3607 017a C318     		add	r3, r0, r3
 3608 017c 1B78     		ldrb	r3, [r3]
 3609 017e 602B     		cmp	r3, #96
 3610 0180 0CD9     		bls	.L158
 3611              		.loc 1 1204 0 discriminator 4
 3612 0182 3B69     		ldr	r3, [r7, #16]
 3613 0184 7868     		ldr	r0, [r7, #4]
 3614 0186 C318     		add	r3, r0, r3
 3615 0188 1B78     		ldrb	r3, [r3]
 3616 018a 662B     		cmp	r3, #102
 3617 018c 06D8     		bhi	.L158
 3618              		.loc 1 1204 0 discriminator 2
ARM GAS  C:\Users\CHUCK~1.ERH\AppData\Local\Temp\ccSVmyDA.s 			page 86


 3619 018e 3B69     		ldr	r3, [r7, #16]
 3620 0190 7868     		ldr	r0, [r7, #4]
 3621 0192 C318     		add	r3, r0, r3
 3622 0194 1B78     		ldrb	r3, [r3]
 3623 0196 573B     		sub	r3, r3, #87
 3624 0198 DBB2     		uxtb	r3, r3
 3625 019a 13E0     		b	.L159
 3626              	.L158:
 3627              		.loc 1 1204 0 discriminator 5
 3628 019c 3B69     		ldr	r3, [r7, #16]
 3629 019e 7868     		ldr	r0, [r7, #4]
 3630 01a0 C318     		add	r3, r0, r3
 3631 01a2 1B78     		ldrb	r3, [r3]
 3632 01a4 402B     		cmp	r3, #64
 3633 01a6 0CD9     		bls	.L160
 3634              		.loc 1 1204 0 discriminator 7
 3635 01a8 3B69     		ldr	r3, [r7, #16]
 3636 01aa 7868     		ldr	r0, [r7, #4]
 3637 01ac C318     		add	r3, r0, r3
 3638 01ae 1B78     		ldrb	r3, [r3]
 3639 01b0 462B     		cmp	r3, #70
 3640 01b2 06D8     		bhi	.L160
 3641              		.loc 1 1204 0 discriminator 3
 3642 01b4 3B69     		ldr	r3, [r7, #16]
 3643 01b6 7868     		ldr	r0, [r7, #4]
 3644 01b8 C318     		add	r3, r0, r3
 3645 01ba 1B78     		ldrb	r3, [r3]
 3646 01bc 373B     		sub	r3, r3, #55
 3647 01be DBB2     		uxtb	r3, r3
 3648 01c0 00E0     		b	.L161
 3649              	.L160:
 3650              		.loc 1 1204 0 discriminator 8
 3651 01c2 0023     		mov	r3, #0
 3652              	.L161:
 3653              	.L159:
 3654              	.L157:
 3655              		.loc 1 1204 0 discriminator 3
 3656 01c4 CB18     		add	r3, r1, r3
 3657 01c6 DBB2     		uxtb	r3, r3
 3658 01c8 1370     		strb	r3, [r2]
1205:.\Generated_Source\PSoC4/ETH.c **** 				++index;
 3659              		.loc 1 1205 0 is_stmt 1 discriminator 3
 3660 01ca 3B69     		ldr	r3, [r7, #16]
 3661 01cc 0133     		add	r3, r3, #1
 3662 01ce 3B61     		str	r3, [r7, #16]
1206:.\Generated_Source\PSoC4/ETH.c **** 				/*
1207:.\Generated_Source\PSoC4/ETH.c **** 				 * now for digits other than digit 5 (the last one) look for
1208:.\Generated_Source\PSoC4/ETH.c **** 				 * the dash seperator.  If there is no dash, return bad data
1209:.\Generated_Source\PSoC4/ETH.c **** 				 */
1210:.\Generated_Source\PSoC4/ETH.c **** 				if (digit<5) {
 3663              		.loc 1 1210 0 discriminator 3
 3664 01d0 7B69     		ldr	r3, [r7, #20]
 3665 01d2 042B     		cmp	r3, #4
 3666 01d4 14DC     		bgt	.L164
1211:.\Generated_Source\PSoC4/ETH.c **** 					if( (macString[index]!='-') && (macString[index]!= ':') ){
 3667              		.loc 1 1211 0
 3668 01d6 3B69     		ldr	r3, [r7, #16]
ARM GAS  C:\Users\CHUCK~1.ERH\AppData\Local\Temp\ccSVmyDA.s 			page 87


 3669 01d8 7A68     		ldr	r2, [r7, #4]
 3670 01da D318     		add	r3, r2, r3
 3671 01dc 1B78     		ldrb	r3, [r3]
 3672 01de 2D2B     		cmp	r3, #45
 3673 01e0 07D0     		beq	.L163
 3674              		.loc 1 1211 0 is_stmt 0 discriminator 1
 3675 01e2 3B69     		ldr	r3, [r7, #16]
 3676 01e4 7A68     		ldr	r2, [r7, #4]
 3677 01e6 D318     		add	r3, r2, r3
 3678 01e8 1B78     		ldrb	r3, [r3]
 3679 01ea 3A2B     		cmp	r3, #58
 3680 01ec 01D0     		beq	.L163
1212:.\Generated_Source\PSoC4/ETH.c **** 						result = CYRET_BAD_DATA;
 3681              		.loc 1 1212 0 is_stmt 1
 3682 01ee 0623     		mov	r3, #6
 3683 01f0 FB60     		str	r3, [r7, #12]
 3684              	.L163:
1213:.\Generated_Source\PSoC4/ETH.c **** 					}
1214:.\Generated_Source\PSoC4/ETH.c **** 					++index; // move conversion pointer to the next value
 3685              		.loc 1 1214 0
 3686 01f2 3B69     		ldr	r3, [r7, #16]
 3687 01f4 0133     		add	r3, r3, #1
 3688 01f6 3B61     		str	r3, [r7, #16]
1210:.\Generated_Source\PSoC4/ETH.c **** 				if (digit<5) {
 3689              		.loc 1 1210 0
 3690 01f8 02E0     		b	.L164
 3691              	.L155:
1215:.\Generated_Source\PSoC4/ETH.c **** 				}
1216:.\Generated_Source\PSoC4/ETH.c **** 			}
1217:.\Generated_Source\PSoC4/ETH.c **** 			else {
1218:.\Generated_Source\PSoC4/ETH.c **** 				result = CYRET_BAD_DATA;
 3692              		.loc 1 1218 0
 3693 01fa 0623     		mov	r3, #6
 3694 01fc FB60     		str	r3, [r7, #12]
1203:.\Generated_Source\PSoC4/ETH.c **** 			if (ETH_ISXDIGIT(macString[index])) {
 3695              		.loc 1 1203 0
 3696 01fe 02E0     		b	.L165
 3697              	.L164:
 3698 0200 01E0     		b	.L165
 3699              	.L145:
1219:.\Generated_Source\PSoC4/ETH.c **** 			}
1220:.\Generated_Source\PSoC4/ETH.c **** 		}
1221:.\Generated_Source\PSoC4/ETH.c **** 		else {
1222:.\Generated_Source\PSoC4/ETH.c **** 			result = CYRET_BAD_DATA;
 3700              		.loc 1 1222 0
 3701 0202 0623     		mov	r3, #6
 3702 0204 FB60     		str	r3, [r7, #12]
 3703              	.L165:
1197:.\Generated_Source\PSoC4/ETH.c **** 	for(digit = 0;(digit<6) && (result == CYRET_SUCCESS)&&(macString[index] != 0);++digit) {
 3704              		.loc 1 1197 0
 3705 0206 7B69     		ldr	r3, [r7, #20]
 3706 0208 0133     		add	r3, r3, #1
 3707 020a 7B61     		str	r3, [r7, #20]
 3708              	.L141:
1197:.\Generated_Source\PSoC4/ETH.c **** 	for(digit = 0;(digit<6) && (result == CYRET_SUCCESS)&&(macString[index] != 0);++digit) {
 3709              		.loc 1 1197 0 is_stmt 0 discriminator 1
 3710 020c 7B69     		ldr	r3, [r7, #20]
ARM GAS  C:\Users\CHUCK~1.ERH\AppData\Local\Temp\ccSVmyDA.s 			page 88


 3711 020e 052B     		cmp	r3, #5
 3712 0210 09DC     		bgt	.L166
1197:.\Generated_Source\PSoC4/ETH.c **** 	for(digit = 0;(digit<6) && (result == CYRET_SUCCESS)&&(macString[index] != 0);++digit) {
 3713              		.loc 1 1197 0 discriminator 2
 3714 0212 FB68     		ldr	r3, [r7, #12]
 3715 0214 002B     		cmp	r3, #0
 3716 0216 06D1     		bne	.L166
1197:.\Generated_Source\PSoC4/ETH.c **** 	for(digit = 0;(digit<6) && (result == CYRET_SUCCESS)&&(macString[index] != 0);++digit) {
 3717              		.loc 1 1197 0 discriminator 1
 3718 0218 3B69     		ldr	r3, [r7, #16]
 3719 021a 7A68     		ldr	r2, [r7, #4]
 3720 021c D318     		add	r3, r2, r3
 3721 021e 1B78     		ldrb	r3, [r3]
 3722 0220 002B     		cmp	r3, #0
 3723 0222 00D0     		beq	.LCB3289
 3724 0224 F8E6     		b	.L167	@long jump
 3725              	.LCB3289:
 3726              	.L166:
1223:.\Generated_Source\PSoC4/ETH.c **** 		}
1224:.\Generated_Source\PSoC4/ETH.c **** 	}
1225:.\Generated_Source\PSoC4/ETH.c **** 	return( result );
 3727              		.loc 1 1225 0 is_stmt 1
 3728 0226 FB68     		ldr	r3, [r7, #12]
1226:.\Generated_Source\PSoC4/ETH.c **** }
 3729              		.loc 1 1226 0
 3730 0228 181C     		mov	r0, r3
 3731 022a BD46     		mov	sp, r7
 3732 022c 06B0     		add	sp, sp, #24
 3733              		@ sp needed for prologue
 3734 022e 80BD     		pop	{r7, pc}
 3735              		.cfi_endproc
 3736              	.LFE47:
 3737              		.size	ETH_ParseMAC, .-ETH_ParseMAC
 3738              		.section	.text.ETH_StringMAC,"ax",%progbits
 3739              		.align	2
 3740              		.global	ETH_StringMAC
 3741              		.code	16
 3742              		.thumb_func
 3743              		.type	ETH_StringMAC, %function
 3744              	ETH_StringMAC:
 3745              	.LFB48:
1227:.\Generated_Source\PSoC4/ETH.c **** /* ------------------------------------------------------------------------ */
1228:.\Generated_Source\PSoC4/ETH.c **** void ETH_StringMAC(uint8 *mac, char *macString)
1229:.\Generated_Source\PSoC4/ETH.c **** {
 3746              		.loc 1 1229 0
 3747              		.cfi_startproc
 3748 0000 80B5     		push	{r7, lr}
 3749              	.LCFI142:
 3750              		.cfi_def_cfa_offset 8
 3751              		.cfi_offset 7, -8
 3752              		.cfi_offset 14, -4
 3753 0002 84B0     		sub	sp, sp, #16
 3754              	.LCFI143:
 3755              		.cfi_def_cfa_offset 24
 3756 0004 00AF     		add	r7, sp, #0
 3757              	.LCFI144:
 3758              		.cfi_def_cfa_register 7
ARM GAS  C:\Users\CHUCK~1.ERH\AppData\Local\Temp\ccSVmyDA.s 			page 89


 3759 0006 7860     		str	r0, [r7, #4]
 3760 0008 3960     		str	r1, [r7]
1230:.\Generated_Source\PSoC4/ETH.c **** 	int digit;
1231:.\Generated_Source\PSoC4/ETH.c **** 	int index;
1232:.\Generated_Source\PSoC4/ETH.c **** 	
1233:.\Generated_Source\PSoC4/ETH.c **** 	/*
1234:.\Generated_Source\PSoC4/ETH.c **** 	 * Convert the MAC address specified in to a string
1235:.\Generated_Source\PSoC4/ETH.c **** 	 */
1236:.\Generated_Source\PSoC4/ETH.c **** 	index = 0;
 3761              		.loc 1 1236 0
 3762 000a 0023     		mov	r3, #0
 3763 000c BB60     		str	r3, [r7, #8]
1237:.\Generated_Source\PSoC4/ETH.c **** 	for(digit=0;digit<6;++digit) {
 3764              		.loc 1 1237 0
 3765 000e 0023     		mov	r3, #0
 3766 0010 FB60     		str	r3, [r7, #12]
 3767 0012 59E0     		b	.L170
 3768              	.L177:
1238:.\Generated_Source\PSoC4/ETH.c **** 		// convert the first nibble
1239:.\Generated_Source\PSoC4/ETH.c **** 		macString[index++] = ETH_BIN2HEX(((mac[digit]>>4)&0x0F));
 3769              		.loc 1 1239 0
 3770 0014 BB68     		ldr	r3, [r7, #8]
 3771 0016 3A68     		ldr	r2, [r7]
 3772 0018 D218     		add	r2, r2, r3
 3773 001a FB68     		ldr	r3, [r7, #12]
 3774 001c 7968     		ldr	r1, [r7, #4]
 3775 001e CB18     		add	r3, r1, r3
 3776 0020 1B78     		ldrb	r3, [r3]
 3777 0022 1B09     		lsr	r3, r3, #4
 3778 0024 DBB2     		uxtb	r3, r3
 3779 0026 191C     		mov	r1, r3
 3780 0028 0F23     		mov	r3, #15
 3781 002a 0B40     		and	r3, r1
 3782 002c 092B     		cmp	r3, #9
 3783 002e 08DD     		ble	.L171
 3784              		.loc 1 1239 0 is_stmt 0 discriminator 1
 3785 0030 FB68     		ldr	r3, [r7, #12]
 3786 0032 7968     		ldr	r1, [r7, #4]
 3787 0034 CB18     		add	r3, r1, r3
 3788 0036 1B78     		ldrb	r3, [r3]
 3789 0038 1B09     		lsr	r3, r3, #4
 3790 003a DBB2     		uxtb	r3, r3
 3791 003c 3733     		add	r3, r3, #55
 3792 003e DBB2     		uxtb	r3, r3
 3793 0040 07E0     		b	.L172
 3794              	.L171:
 3795              		.loc 1 1239 0 discriminator 2
 3796 0042 FB68     		ldr	r3, [r7, #12]
 3797 0044 7968     		ldr	r1, [r7, #4]
 3798 0046 CB18     		add	r3, r1, r3
 3799 0048 1B78     		ldrb	r3, [r3]
 3800 004a 1B09     		lsr	r3, r3, #4
 3801 004c DBB2     		uxtb	r3, r3
 3802 004e 3033     		add	r3, r3, #48
 3803 0050 DBB2     		uxtb	r3, r3
 3804              	.L172:
 3805              		.loc 1 1239 0 discriminator 3
ARM GAS  C:\Users\CHUCK~1.ERH\AppData\Local\Temp\ccSVmyDA.s 			page 90


 3806 0052 1370     		strb	r3, [r2]
 3807 0054 BB68     		ldr	r3, [r7, #8]
 3808 0056 0133     		add	r3, r3, #1
 3809 0058 BB60     		str	r3, [r7, #8]
1240:.\Generated_Source\PSoC4/ETH.c **** 		macString[index++] = ETH_BIN2HEX((mac[digit]&0x0F));
 3810              		.loc 1 1240 0 is_stmt 1 discriminator 3
 3811 005a BB68     		ldr	r3, [r7, #8]
 3812 005c 3A68     		ldr	r2, [r7]
 3813 005e D218     		add	r2, r2, r3
 3814 0060 FB68     		ldr	r3, [r7, #12]
 3815 0062 7968     		ldr	r1, [r7, #4]
 3816 0064 CB18     		add	r3, r1, r3
 3817 0066 1B78     		ldrb	r3, [r3]
 3818 0068 191C     		mov	r1, r3
 3819 006a 0F23     		mov	r3, #15
 3820 006c 0B40     		and	r3, r1
 3821 006e 092B     		cmp	r3, #9
 3822 0070 09DD     		ble	.L173
 3823              		.loc 1 1240 0 is_stmt 0 discriminator 1
 3824 0072 FB68     		ldr	r3, [r7, #12]
 3825 0074 7968     		ldr	r1, [r7, #4]
 3826 0076 CB18     		add	r3, r1, r3
 3827 0078 1978     		ldrb	r1, [r3]
 3828 007a 0F23     		mov	r3, #15
 3829 007c 0B40     		and	r3, r1
 3830 007e DBB2     		uxtb	r3, r3
 3831 0080 3733     		add	r3, r3, #55
 3832 0082 DBB2     		uxtb	r3, r3
 3833 0084 08E0     		b	.L174
 3834              	.L173:
 3835              		.loc 1 1240 0 discriminator 2
 3836 0086 FB68     		ldr	r3, [r7, #12]
 3837 0088 7968     		ldr	r1, [r7, #4]
 3838 008a CB18     		add	r3, r1, r3
 3839 008c 1978     		ldrb	r1, [r3]
 3840 008e 0F23     		mov	r3, #15
 3841 0090 0B40     		and	r3, r1
 3842 0092 DBB2     		uxtb	r3, r3
 3843 0094 3033     		add	r3, r3, #48
 3844 0096 DBB2     		uxtb	r3, r3
 3845              	.L174:
 3846              		.loc 1 1240 0 discriminator 3
 3847 0098 1370     		strb	r3, [r2]
 3848 009a BB68     		ldr	r3, [r7, #8]
 3849 009c 0133     		add	r3, r3, #1
 3850 009e BB60     		str	r3, [r7, #8]
1241:.\Generated_Source\PSoC4/ETH.c **** 		if (digit<5) {
 3851              		.loc 1 1241 0 is_stmt 1 discriminator 3
 3852 00a0 FB68     		ldr	r3, [r7, #12]
 3853 00a2 042B     		cmp	r3, #4
 3854 00a4 08DC     		bgt	.L175
1242:.\Generated_Source\PSoC4/ETH.c **** 			macString[index++] = '-';
 3855              		.loc 1 1242 0
 3856 00a6 BB68     		ldr	r3, [r7, #8]
 3857 00a8 3A68     		ldr	r2, [r7]
 3858 00aa D318     		add	r3, r2, r3
 3859 00ac 2D22     		mov	r2, #45
ARM GAS  C:\Users\CHUCK~1.ERH\AppData\Local\Temp\ccSVmyDA.s 			page 91


 3860 00ae 1A70     		strb	r2, [r3]
 3861 00b0 BB68     		ldr	r3, [r7, #8]
 3862 00b2 0133     		add	r3, r3, #1
 3863 00b4 BB60     		str	r3, [r7, #8]
 3864 00b6 04E0     		b	.L176
 3865              	.L175:
1243:.\Generated_Source\PSoC4/ETH.c **** 		}
1244:.\Generated_Source\PSoC4/ETH.c **** 		else {
1245:.\Generated_Source\PSoC4/ETH.c **** 			macString[index] = 0;
 3866              		.loc 1 1245 0
 3867 00b8 BB68     		ldr	r3, [r7, #8]
 3868 00ba 3A68     		ldr	r2, [r7]
 3869 00bc D318     		add	r3, r2, r3
 3870 00be 0022     		mov	r2, #0
 3871 00c0 1A70     		strb	r2, [r3]
 3872              	.L176:
1237:.\Generated_Source\PSoC4/ETH.c **** 	for(digit=0;digit<6;++digit) {
 3873              		.loc 1 1237 0
 3874 00c2 FB68     		ldr	r3, [r7, #12]
 3875 00c4 0133     		add	r3, r3, #1
 3876 00c6 FB60     		str	r3, [r7, #12]
 3877              	.L170:
1237:.\Generated_Source\PSoC4/ETH.c **** 	for(digit=0;digit<6;++digit) {
 3878              		.loc 1 1237 0 is_stmt 0 discriminator 1
 3879 00c8 FB68     		ldr	r3, [r7, #12]
 3880 00ca 052B     		cmp	r3, #5
 3881 00cc A2DD     		ble	.L177
1246:.\Generated_Source\PSoC4/ETH.c **** 		}
1247:.\Generated_Source\PSoC4/ETH.c **** 	}
1248:.\Generated_Source\PSoC4/ETH.c **** }
 3882              		.loc 1 1248 0 is_stmt 1
 3883 00ce BD46     		mov	sp, r7
 3884 00d0 04B0     		add	sp, sp, #16
 3885              		@ sp needed for prologue
 3886 00d2 80BD     		pop	{r7, pc}
 3887              		.cfi_endproc
 3888              	.LFE48:
 3889              		.size	ETH_StringMAC, .-ETH_StringMAC
 3890              		.global	__aeabi_idiv
 3891              		.section	.text.ETH_StringIP,"ax",%progbits
 3892              		.align	2
 3893              		.global	ETH_StringIP
 3894              		.code	16
 3895              		.thumb_func
 3896              		.type	ETH_StringIP, %function
 3897              	ETH_StringIP:
 3898              	.LFB49:
1249:.\Generated_Source\PSoC4/ETH.c **** /* ------------------------------------------------------------------------ */
1250:.\Generated_Source\PSoC4/ETH.c **** void ETH_StringIP( uint32 ip, char *ipString )
1251:.\Generated_Source\PSoC4/ETH.c **** {
 3899              		.loc 1 1251 0
 3900              		.cfi_startproc
 3901 0000 80B5     		push	{r7, lr}
 3902              	.LCFI145:
 3903              		.cfi_def_cfa_offset 8
 3904              		.cfi_offset 7, -8
 3905              		.cfi_offset 14, -4
ARM GAS  C:\Users\CHUCK~1.ERH\AppData\Local\Temp\ccSVmyDA.s 			page 92


 3906 0002 88B0     		sub	sp, sp, #32
 3907              	.LCFI146:
 3908              		.cfi_def_cfa_offset 40
 3909 0004 00AF     		add	r7, sp, #0
 3910              	.LCFI147:
 3911              		.cfi_def_cfa_register 7
 3912 0006 7860     		str	r0, [r7, #4]
 3913 0008 3960     		str	r1, [r7]
1252:.\Generated_Source\PSoC4/ETH.c **** 	uint8 *ipBytes;
1253:.\Generated_Source\PSoC4/ETH.c **** 	int index;
1254:.\Generated_Source\PSoC4/ETH.c **** 	int digit;
1255:.\Generated_Source\PSoC4/ETH.c **** 	int work, temp;
1256:.\Generated_Source\PSoC4/ETH.c **** 	
1257:.\Generated_Source\PSoC4/ETH.c **** 	ipBytes = (uint8*)&ip;
 3914              		.loc 1 1257 0
 3915 000a 3B1D     		add	r3, r7, #4
 3916 000c 3B61     		str	r3, [r7, #16]
1258:.\Generated_Source\PSoC4/ETH.c **** 	index = 0;
 3917              		.loc 1 1258 0
 3918 000e 0023     		mov	r3, #0
 3919 0010 FB61     		str	r3, [r7, #28]
1259:.\Generated_Source\PSoC4/ETH.c **** 	for(digit=0;digit<4;++digit) {
 3920              		.loc 1 1259 0
 3921 0012 0023     		mov	r3, #0
 3922 0014 BB61     		str	r3, [r7, #24]
 3923 0016 5BE0     		b	.L179
 3924              	.L184:
1260:.\Generated_Source\PSoC4/ETH.c **** 		work = ipBytes[digit];
 3925              		.loc 1 1260 0
 3926 0018 BB69     		ldr	r3, [r7, #24]
 3927 001a 3A69     		ldr	r2, [r7, #16]
 3928 001c D318     		add	r3, r2, r3
 3929 001e 1B78     		ldrb	r3, [r3]
 3930 0020 7B61     		str	r3, [r7, #20]
1261:.\Generated_Source\PSoC4/ETH.c **** 		if (work >= 100) {
 3931              		.loc 1 1261 0
 3932 0022 7B69     		ldr	r3, [r7, #20]
 3933 0024 632B     		cmp	r3, #99
 3934 0026 18DD     		ble	.L180
1262:.\Generated_Source\PSoC4/ETH.c **** 			temp = work/100;
 3935              		.loc 1 1262 0
 3936 0028 7B69     		ldr	r3, [r7, #20]
 3937 002a 181C     		mov	r0, r3
 3938 002c 6421     		mov	r1, #100
 3939 002e FFF7FEFF 		bl	__aeabi_idiv
 3940 0032 031C     		mov	r3, r0
 3941 0034 FB60     		str	r3, [r7, #12]
1263:.\Generated_Source\PSoC4/ETH.c **** 			work -= (temp*100);
 3942              		.loc 1 1263 0
 3943 0036 FB68     		ldr	r3, [r7, #12]
 3944 0038 6422     		mov	r2, #100
 3945 003a 5242     		neg	r2, r2
 3946 003c 5343     		mul	r3, r2
 3947 003e 7A69     		ldr	r2, [r7, #20]
 3948 0040 D318     		add	r3, r2, r3
 3949 0042 7B61     		str	r3, [r7, #20]
1264:.\Generated_Source\PSoC4/ETH.c **** 			ipString[index++] = '0' + temp;
ARM GAS  C:\Users\CHUCK~1.ERH\AppData\Local\Temp\ccSVmyDA.s 			page 93


 3950              		.loc 1 1264 0
 3951 0044 FB69     		ldr	r3, [r7, #28]
 3952 0046 3A68     		ldr	r2, [r7]
 3953 0048 D318     		add	r3, r2, r3
 3954 004a FA68     		ldr	r2, [r7, #12]
 3955 004c D2B2     		uxtb	r2, r2
 3956 004e 3032     		add	r2, r2, #48
 3957 0050 D2B2     		uxtb	r2, r2
 3958 0052 1A70     		strb	r2, [r3]
 3959 0054 FB69     		ldr	r3, [r7, #28]
 3960 0056 0133     		add	r3, r3, #1
 3961 0058 FB61     		str	r3, [r7, #28]
 3962              	.L180:
1265:.\Generated_Source\PSoC4/ETH.c **** 		}
1266:.\Generated_Source\PSoC4/ETH.c **** 		if (work >= 10) {
 3963              		.loc 1 1266 0
 3964 005a 7B69     		ldr	r3, [r7, #20]
 3965 005c 092B     		cmp	r3, #9
 3966 005e 18DD     		ble	.L181
1267:.\Generated_Source\PSoC4/ETH.c **** 			temp = work /10;
 3967              		.loc 1 1267 0
 3968 0060 7B69     		ldr	r3, [r7, #20]
 3969 0062 181C     		mov	r0, r3
 3970 0064 0A21     		mov	r1, #10
 3971 0066 FFF7FEFF 		bl	__aeabi_idiv
 3972 006a 031C     		mov	r3, r0
 3973 006c FB60     		str	r3, [r7, #12]
1268:.\Generated_Source\PSoC4/ETH.c **** 			work -= (temp*10);
 3974              		.loc 1 1268 0
 3975 006e FB68     		ldr	r3, [r7, #12]
 3976 0070 0A22     		mov	r2, #10
 3977 0072 5242     		neg	r2, r2
 3978 0074 5343     		mul	r3, r2
 3979 0076 7A69     		ldr	r2, [r7, #20]
 3980 0078 D318     		add	r3, r2, r3
 3981 007a 7B61     		str	r3, [r7, #20]
1269:.\Generated_Source\PSoC4/ETH.c **** 			ipString[index++] = '0'+temp;
 3982              		.loc 1 1269 0
 3983 007c FB69     		ldr	r3, [r7, #28]
 3984 007e 3A68     		ldr	r2, [r7]
 3985 0080 D318     		add	r3, r2, r3
 3986 0082 FA68     		ldr	r2, [r7, #12]
 3987 0084 D2B2     		uxtb	r2, r2
 3988 0086 3032     		add	r2, r2, #48
 3989 0088 D2B2     		uxtb	r2, r2
 3990 008a 1A70     		strb	r2, [r3]
 3991 008c FB69     		ldr	r3, [r7, #28]
 3992 008e 0133     		add	r3, r3, #1
 3993 0090 FB61     		str	r3, [r7, #28]
 3994              	.L181:
1270:.\Generated_Source\PSoC4/ETH.c **** 		}
1271:.\Generated_Source\PSoC4/ETH.c **** 		ipString[index++] = '0'+work;
 3995              		.loc 1 1271 0
 3996 0092 FB69     		ldr	r3, [r7, #28]
 3997 0094 3A68     		ldr	r2, [r7]
 3998 0096 D318     		add	r3, r2, r3
 3999 0098 7A69     		ldr	r2, [r7, #20]
ARM GAS  C:\Users\CHUCK~1.ERH\AppData\Local\Temp\ccSVmyDA.s 			page 94


 4000 009a D2B2     		uxtb	r2, r2
 4001 009c 3032     		add	r2, r2, #48
 4002 009e D2B2     		uxtb	r2, r2
 4003 00a0 1A70     		strb	r2, [r3]
 4004 00a2 FB69     		ldr	r3, [r7, #28]
 4005 00a4 0133     		add	r3, r3, #1
 4006 00a6 FB61     		str	r3, [r7, #28]
1272:.\Generated_Source\PSoC4/ETH.c **** 		if (digit <3) {
 4007              		.loc 1 1272 0
 4008 00a8 BB69     		ldr	r3, [r7, #24]
 4009 00aa 022B     		cmp	r3, #2
 4010 00ac 08DC     		bgt	.L182
1273:.\Generated_Source\PSoC4/ETH.c **** 			ipString[index++] = '.';
 4011              		.loc 1 1273 0
 4012 00ae FB69     		ldr	r3, [r7, #28]
 4013 00b0 3A68     		ldr	r2, [r7]
 4014 00b2 D318     		add	r3, r2, r3
 4015 00b4 2E22     		mov	r2, #46
 4016 00b6 1A70     		strb	r2, [r3]
 4017 00b8 FB69     		ldr	r3, [r7, #28]
 4018 00ba 0133     		add	r3, r3, #1
 4019 00bc FB61     		str	r3, [r7, #28]
 4020 00be 04E0     		b	.L183
 4021              	.L182:
1274:.\Generated_Source\PSoC4/ETH.c **** 		}
1275:.\Generated_Source\PSoC4/ETH.c **** 		else {
1276:.\Generated_Source\PSoC4/ETH.c **** 			ipString[index] = 0;
 4022              		.loc 1 1276 0
 4023 00c0 FB69     		ldr	r3, [r7, #28]
 4024 00c2 3A68     		ldr	r2, [r7]
 4025 00c4 D318     		add	r3, r2, r3
 4026 00c6 0022     		mov	r2, #0
 4027 00c8 1A70     		strb	r2, [r3]
 4028              	.L183:
1259:.\Generated_Source\PSoC4/ETH.c **** 	for(digit=0;digit<4;++digit) {
 4029              		.loc 1 1259 0
 4030 00ca BB69     		ldr	r3, [r7, #24]
 4031 00cc 0133     		add	r3, r3, #1
 4032 00ce BB61     		str	r3, [r7, #24]
 4033              	.L179:
1259:.\Generated_Source\PSoC4/ETH.c **** 	for(digit=0;digit<4;++digit) {
 4034              		.loc 1 1259 0 is_stmt 0 discriminator 1
 4035 00d0 BB69     		ldr	r3, [r7, #24]
 4036 00d2 032B     		cmp	r3, #3
 4037 00d4 A0DD     		ble	.L184
1277:.\Generated_Source\PSoC4/ETH.c **** 		}
1278:.\Generated_Source\PSoC4/ETH.c **** 	}
1279:.\Generated_Source\PSoC4/ETH.c **** }
 4038              		.loc 1 1279 0 is_stmt 1
 4039 00d6 BD46     		mov	sp, r7
 4040 00d8 08B0     		add	sp, sp, #32
 4041              		@ sp needed for prologue
 4042 00da 80BD     		pop	{r7, pc}
 4043              		.cfi_endproc
 4044              	.LFE49:
