ARM GAS  C:\Users\CHUCK~1.ERH\AppData\Local\Temp\cclUSz1d.s 			page 1


   1              		.cpu cortex-m0
   2              		.fpu softvfp
   3              		.eabi_attribute 20, 1
   4              		.eabi_attribute 21, 1
   5              		.eabi_attribute 23, 3
   6              		.eabi_attribute 24, 1
   7              		.eabi_attribute 25, 1
   8              		.eabi_attribute 26, 1
   9              		.eabi_attribute 30, 6
  10              		.eabi_attribute 34, 0
  11              		.eabi_attribute 18, 4
  12              		.code	16
  13              		.file	"main.c"
  14              		.text
  15              	.Ltext0:
  16              		.cfi_sections	.debug_frame
  17              		.comm	randomData,2000,4
  18              		.section	.rodata
  19              		.align	2
  20              	.LC1:
  21 0000 57656C63 		.ascii	"Welcome to the PSoC4 Pioneer Board!\015\012\000"
  21      6F6D6520 
  21      746F2074 
  21      68652050 
  21      536F4334 
  22 0026 0000     		.align	2
  23              	.LC3:
  24 0028 2D2D2D2D 		.ascii	"---------------------------------------------------"
  24      2D2D2D2D 
  24      2D2D2D2D 
  24      2D2D2D2D 
  24      2D2D2D2D 
  25 005b 2D2D2D2D 		.ascii	"-------------------------\015\012\015\012\000"
  25      2D2D2D2D 
  25      2D2D2D2D 
  25      2D2D2D2D 
  25      2D2D2D2D 
  26 0079 000000   		.align	2
  27              	.LC5:
  28 007c 506C6561 		.ascii	"Please Press a key: \000"
  28      73652050 
  28      72657373 
  28      2061206B 
  28      65793A20 
  29 0091 000000   		.align	2
  30              	.LC7:
  31 0094 5C200D00 		.ascii	"\\ \015\000"
  32              		.align	2
  33              	.LC9:
  34 0098 7C0D00   		.ascii	"|\015\000"
  35 009b 00       		.align	2
  36              	.LC11:
  37 009c 2F0D00   		.ascii	"/\015\000"
  38 009f 00       		.align	2
  39              	.LC13:
  40 00a0 2D0D00   		.ascii	"-\015\000"
  41 00a3 00       		.align	2
ARM GAS  C:\Users\CHUCK~1.ERH\AppData\Local\Temp\cclUSz1d.s 			page 2


  42              	.LC15:
  43 00a4 0D0A5468 		.ascii	"\015\012Thank You! :-) \000"
  43      616E6B20 
  43      596F7521 
  43      203A2D29 
  43      2000
  44 00b6 0000     		.section	.text.main,"ax",%progbits
  45              		.align	2
  46              		.global	main
  47              		.code	16
  48              		.thumb_func
  49              		.type	main, %function
  50              	main:
  51              	.LFB33:
  52              		.file 1 ".\\main.c"
   1:.\main.c      **** /* ========================================
   2:.\main.c      ****  *
   3:.\main.c      ****  * Copyright YOUR COMPANY, THE YEAR
   4:.\main.c      ****  * All Rights Reserved
   5:.\main.c      ****  * UNPUBLISHED, LICENSED SOFTWARE.
   6:.\main.c      ****  *
   7:.\main.c      ****  * CONFIDENTIAL AND PROPRIETARY INFORMATION
   8:.\main.c      ****  * WHICH IS THE PROPERTY OF your company.
   9:.\main.c      ****  *
  10:.\main.c      ****  * ========================================
  11:.\main.c      **** */
  12:.\main.c      **** #include <project.h>
  13:.\main.c      **** 
  14:.\main.c      **** char randomData[2000];
  15:.\main.c      **** 
  16:.\main.c      **** int main()
  17:.\main.c      **** {
  53              		.loc 1 17 0
  54              		.cfi_startproc
  55 0000 90B5     		push	{r4, r7, lr}
  56              	.LCFI0:
  57              		.cfi_def_cfa_offset 12
  58              		.cfi_offset 4, -12
  59              		.cfi_offset 7, -8
  60              		.cfi_offset 14, -4
  61 0002 A3B0     		sub	sp, sp, #140
  62              	.LCFI1:
  63              		.cfi_def_cfa_offset 152
  64 0004 00AF     		add	r7, sp, #0
  65              	.LCFI2:
  66              		.cfi_def_cfa_register 7
  18:.\main.c      **** 	char buffer[128];
  19:.\main.c      **** 	uint8 socket;
  20:.\main.c      **** 	uint16 length;
  21:.\main.c      **** 	int temp;
  22:.\main.c      **** 	
  23:.\main.c      ****     /* Place your initialization/startup code here (e.g. MyInst_Start()) */
  24:.\main.c      **** 	SPI0_Start();
  67              		.loc 1 24 0
  68 0006 FFF7FEFF 		bl	SPI0_Start
  25:.\main.c      **** 	ETH_Start();
  69              		.loc 1 25 0
ARM GAS  C:\Users\CHUCK~1.ERH\AppData\Local\Temp\cclUSz1d.s 			page 3


  70 000a FFF7FEFF 		bl	ETH_Start
  26:.\main.c      **** 
  27:.\main.c      **** 	/* Generate some random bytes to transmit to the Ethernet client */
  28:.\main.c      **** 	for (temp = 0; temp < 2000; ++temp)
  71              		.loc 1 28 0
  72 000e 0023     		mov	r3, #0
  73 0010 8420     		mov	r0, #132
  74 0012 C019     		add	r0, r0, r7
  75 0014 0360     		str	r3, [r0]
  76 0016 15E0     		b	.L2
  77              	.L3:
  78              	.LBB2:
  29:.\main.c      **** 	{
  30:.\main.c      **** 		randomData[temp] = (rand()&0x17) + 'A';
  79              		.loc 1 30 0 discriminator 2
  80 0018 FFF7FEFF 		bl	rand
  81 001c 031C     		mov	r3, r0
  82 001e DAB2     		uxtb	r2, r3
  83 0020 1723     		mov	r3, #23
  84 0022 1340     		and	r3, r2
  85 0024 DBB2     		uxtb	r3, r3
  86 0026 4133     		add	r3, r3, #65
  87 0028 DAB2     		uxtb	r2, r3
  88 002a 7849     		ldr	r1, .L15
  89 002c 8420     		mov	r0, #132
  90 002e C019     		add	r0, r0, r7
  91 0030 0368     		ldr	r3, [r0]
  92 0032 CB18     		add	r3, r1, r3
  93 0034 1A70     		strb	r2, [r3]
  94              	.LBE2:
  28:.\main.c      **** 	for (temp = 0; temp < 2000; ++temp)
  95              		.loc 1 28 0 discriminator 2
  96 0036 8422     		mov	r2, #132
  97 0038 D219     		add	r2, r2, r7
  98 003a 1368     		ldr	r3, [r2]
  99 003c 0133     		add	r3, r3, #1
 100 003e 8420     		mov	r0, #132
 101 0040 C019     		add	r0, r0, r7
 102 0042 0360     		str	r3, [r0]
 103              	.L2:
  28:.\main.c      **** 	for (temp = 0; temp < 2000; ++temp)
 104              		.loc 1 28 0 is_stmt 0 discriminator 1
 105 0044 8423     		mov	r3, #132
 106 0046 DB19     		add	r3, r3, r7
 107 0048 1A68     		ldr	r2, [r3]
 108 004a 714B     		ldr	r3, .L15+4
 109 004c 9A42     		cmp	r2, r3
 110 004e E3DD     		ble	.L3
 111              	.L14:
  31:.\main.c      **** 	}
  32:.\main.c      **** 
  33:.\main.c      **** //    CyGlobalIntEnable; /* Uncomment this line to enable global interrupts. */
  34:.\main.c      **** 	
  35:.\main.c      **** 	
  36:.\main.c      ****     for(;;)
  37:.\main.c      ****     {
  38:.\main.c      ****         /* Place your application code here. */
ARM GAS  C:\Users\CHUCK~1.ERH\AppData\Local\Temp\cclUSz1d.s 			page 4


  39:.\main.c      **** 		socket = ETH_TcpOpen( 23 );
 112              		.loc 1 39 0 is_stmt 1
 113 0050 3C1C     		mov	r4, r7
 114 0052 8334     		add	r4, r4, #131
 115 0054 1720     		mov	r0, #23
 116 0056 FFF7FEFF 		bl	ETH_TcpOpen
 117 005a 031C     		mov	r3, r0
 118 005c 2370     		strb	r3, [r4]
  40:.\main.c      **** 		ETH_TcpStartServer( socket );
 119              		.loc 1 40 0
 120 005e 3B1C     		mov	r3, r7
 121 0060 8333     		add	r3, r3, #131
 122 0062 1B78     		ldrb	r3, [r3]
 123 0064 181C     		mov	r0, r3
 124 0066 FFF7FEFF 		bl	ETH_TcpStartServer
  41:.\main.c      **** 		while ( !ETH_TcpConnected( socket ) ) {
 125              		.loc 1 41 0
 126 006a 20E0     		b	.L4
 127              	.L5:
 128              	.LBB3:
  42:.\main.c      **** 			/*
  43:.\main.c      **** 			 * While we are waiting for the client to attach
  44:.\main.c      **** 			 * to the server, flash some random colors on the
  45:.\main.c      **** 			 * LED to provide entertainment.
  46:.\main.c      **** 			 */
  47:.\main.c      **** 			RED_Write( rand() & 0xFE);
 129              		.loc 1 47 0
 130 006c FFF7FEFF 		bl	rand
 131 0070 031C     		mov	r3, r0
 132 0072 DBB2     		uxtb	r3, r3
 133 0074 0122     		mov	r2, #1
 134 0076 9343     		bic	r3, r2
 135 0078 DBB2     		uxtb	r3, r3
 136 007a 181C     		mov	r0, r3
 137 007c FFF7FEFF 		bl	RED_Write
  48:.\main.c      **** 			GREEN_Write( rand() & 0xFE);
 138              		.loc 1 48 0
 139 0080 FFF7FEFF 		bl	rand
 140 0084 031C     		mov	r3, r0
 141 0086 DBB2     		uxtb	r3, r3
 142 0088 0122     		mov	r2, #1
 143 008a 9343     		bic	r3, r2
 144 008c DBB2     		uxtb	r3, r3
 145 008e 181C     		mov	r0, r3
 146 0090 FFF7FEFF 		bl	GREEN_Write
  49:.\main.c      **** 			BLUE_Write( rand() & 0xFE) ;
 147              		.loc 1 49 0
 148 0094 FFF7FEFF 		bl	rand
 149 0098 031C     		mov	r3, r0
 150 009a DBB2     		uxtb	r3, r3
 151 009c 0122     		mov	r2, #1
 152 009e 9343     		bic	r3, r2
 153 00a0 DBB2     		uxtb	r3, r3
 154 00a2 181C     		mov	r0, r3
 155 00a4 FFF7FEFF 		bl	BLUE_Write
  50:.\main.c      **** 			/* wait for a connection, and delay the flashes */
  51:.\main.c      **** 			CyDelay(100);
ARM GAS  C:\Users\CHUCK~1.ERH\AppData\Local\Temp\cclUSz1d.s 			page 5


 156              		.loc 1 51 0
 157 00a8 6420     		mov	r0, #100
 158 00aa FFF7FEFF 		bl	CyDelay
 159              	.L4:
 160              	.LBE3:
  41:.\main.c      **** 		while ( !ETH_TcpConnected( socket ) ) {
 161              		.loc 1 41 0 discriminator 1
 162 00ae 3B1C     		mov	r3, r7
 163 00b0 8333     		add	r3, r3, #131
 164 00b2 1B78     		ldrb	r3, [r3]
 165 00b4 181C     		mov	r0, r3
 166 00b6 FFF7FEFF 		bl	ETH_TcpConnected
 167 00ba 031C     		mov	r3, r0
 168 00bc 002B     		cmp	r3, #0
 169 00be D5D0     		beq	.L5
  52:.\main.c      **** 		}
  53:.\main.c      **** 		/*
  54:.\main.c      **** 		 * Send the Logon welcom message to the client.
  55:.\main.c      **** 		 */
  56:.\main.c      **** 		ETH_TcpPrint(socket,"Welcome to the PSoC4 Pioneer Board!\r\n");
 170              		.loc 1 56 0
 171 00c0 3B1C     		mov	r3, r7
 172 00c2 8333     		add	r3, r3, #131
 173 00c4 1A78     		ldrb	r2, [r3]
 174 00c6 534B     		ldr	r3, .L15+8
 175 00c8 101C     		mov	r0, r2
 176 00ca 191C     		mov	r1, r3
 177 00cc FFF7FEFF 		bl	ETH_TcpPrint
  57:.\main.c      **** 		ETH_TcpPrint(socket,"----------------------------------------------------------------------------
 178              		.loc 1 57 0
 179 00d0 3B1C     		mov	r3, r7
 180 00d2 8333     		add	r3, r3, #131
 181 00d4 1A78     		ldrb	r2, [r3]
 182 00d6 504B     		ldr	r3, .L15+12
 183 00d8 101C     		mov	r0, r2
 184 00da 191C     		mov	r1, r3
 185 00dc FFF7FEFF 		bl	ETH_TcpPrint
  58:.\main.c      **** 		temp = 0;
 186              		.loc 1 58 0
 187 00e0 0023     		mov	r3, #0
 188 00e2 8420     		mov	r0, #132
 189 00e4 C019     		add	r0, r0, r7
 190 00e6 0360     		str	r3, [r0]
  59:.\main.c      **** 		while( ETH_SocketRxDataWaiting(socket) == 0) {
 191              		.loc 1 59 0
 192 00e8 45E0     		b	.L6
 193              	.L13:
  60:.\main.c      **** 			ETH_TcpPrint(socket, "Please Press a key: ");
 194              		.loc 1 60 0
 195 00ea 3B1C     		mov	r3, r7
 196 00ec 8333     		add	r3, r3, #131
 197 00ee 1A78     		ldrb	r2, [r3]
 198 00f0 4A4B     		ldr	r3, .L15+16
 199 00f2 101C     		mov	r0, r2
 200 00f4 191C     		mov	r1, r3
 201 00f6 FFF7FEFF 		bl	ETH_TcpPrint
  61:.\main.c      **** 			switch(temp) {
ARM GAS  C:\Users\CHUCK~1.ERH\AppData\Local\Temp\cclUSz1d.s 			page 6


 202              		.loc 1 61 0
 203 00fa 8422     		mov	r2, #132
 204 00fc D219     		add	r2, r2, r7
 205 00fe 1368     		ldr	r3, [r2]
 206 0100 012B     		cmp	r3, #1
 207 0102 11D0     		beq	.L9
 208 0104 02DC     		bgt	.L12
 209 0106 002B     		cmp	r3, #0
 210 0108 05D0     		beq	.L8
 211 010a 28E0     		b	.L7
 212              	.L12:
 213 010c 022B     		cmp	r3, #2
 214 010e 14D0     		beq	.L10
 215 0110 032B     		cmp	r3, #3
 216 0112 1BD0     		beq	.L11
 217 0114 23E0     		b	.L7
 218              	.L8:
  62:.\main.c      **** 				case 0:
  63:.\main.c      **** 					ETH_TcpPrint(socket, "\\ \r");
 219              		.loc 1 63 0
 220 0116 3B1C     		mov	r3, r7
 221 0118 8333     		add	r3, r3, #131
 222 011a 1A78     		ldrb	r2, [r3]
 223 011c 404B     		ldr	r3, .L15+20
 224 011e 101C     		mov	r0, r2
 225 0120 191C     		mov	r1, r3
 226 0122 FFF7FEFF 		bl	ETH_TcpPrint
  64:.\main.c      **** 					break;
 227              		.loc 1 64 0
 228 0126 1AE0     		b	.L7
 229              	.L9:
  65:.\main.c      **** 				case 1:
  66:.\main.c      **** 					ETH_TcpPrint(socket, "|\r");
 230              		.loc 1 66 0
 231 0128 3B1C     		mov	r3, r7
 232 012a 8333     		add	r3, r3, #131
 233 012c 1A78     		ldrb	r2, [r3]
 234 012e 3D4B     		ldr	r3, .L15+24
 235 0130 101C     		mov	r0, r2
 236 0132 191C     		mov	r1, r3
 237 0134 FFF7FEFF 		bl	ETH_TcpPrint
  67:.\main.c      **** 					break;
 238              		.loc 1 67 0
 239 0138 11E0     		b	.L7
 240              	.L10:
  68:.\main.c      **** 				case 2:
  69:.\main.c      **** 					ETH_TcpPrint(socket, "/\r");
 241              		.loc 1 69 0
 242 013a 3B1C     		mov	r3, r7
 243 013c 8333     		add	r3, r3, #131
 244 013e 1A78     		ldrb	r2, [r3]
 245 0140 394B     		ldr	r3, .L15+28
 246 0142 101C     		mov	r0, r2
 247 0144 191C     		mov	r1, r3
 248 0146 FFF7FEFF 		bl	ETH_TcpPrint
  70:.\main.c      **** 					break;
 249              		.loc 1 70 0
ARM GAS  C:\Users\CHUCK~1.ERH\AppData\Local\Temp\cclUSz1d.s 			page 7


 250 014a 08E0     		b	.L7
 251              	.L11:
  71:.\main.c      **** 				case 3:
  72:.\main.c      **** 					ETH_TcpPrint(socket, "-\r");
 252              		.loc 1 72 0
 253 014c 3B1C     		mov	r3, r7
 254 014e 8333     		add	r3, r3, #131
 255 0150 1A78     		ldrb	r2, [r3]
 256 0152 364B     		ldr	r3, .L15+32
 257 0154 101C     		mov	r0, r2
 258 0156 191C     		mov	r1, r3
 259 0158 FFF7FEFF 		bl	ETH_TcpPrint
  73:.\main.c      **** 					break;
 260              		.loc 1 73 0
 261 015c C046     		mov	r8, r8
 262              	.L7:
  74:.\main.c      **** 			}
  75:.\main.c      **** 			temp = (temp + 1) & 3;
 263              		.loc 1 75 0
 264 015e 8420     		mov	r0, #132
 265 0160 C019     		add	r0, r0, r7
 266 0162 0368     		ldr	r3, [r0]
 267 0164 5A1C     		add	r2, r3, #1
 268 0166 0323     		mov	r3, #3
 269 0168 1340     		and	r3, r2
 270 016a 8422     		mov	r2, #132
 271 016c D219     		add	r2, r2, r7
 272 016e 1360     		str	r3, [r2]
  76:.\main.c      **** 			CyDelay(1);
 273              		.loc 1 76 0
 274 0170 0120     		mov	r0, #1
 275 0172 FFF7FEFF 		bl	CyDelay
 276              	.L6:
  59:.\main.c      **** 		while( ETH_SocketRxDataWaiting(socket) == 0) {
 277              		.loc 1 59 0 discriminator 1
 278 0176 3B1C     		mov	r3, r7
 279 0178 8333     		add	r3, r3, #131
 280 017a 1B78     		ldrb	r3, [r3]
 281 017c 181C     		mov	r0, r3
 282 017e FFF7FEFF 		bl	ETH_SocketRxDataWaiting
 283 0182 031C     		mov	r3, r0
 284 0184 002B     		cmp	r3, #0
 285 0186 B0D0     		beq	.L13
  77:.\main.c      **** 		}
  78:.\main.c      **** 		ETH_TcpPrint(socket,"\r\nThank You! :-) ");
 286              		.loc 1 78 0
 287 0188 3B1C     		mov	r3, r7
 288 018a 8333     		add	r3, r3, #131
 289 018c 1A78     		ldrb	r2, [r3]
 290 018e 284B     		ldr	r3, .L15+36
 291 0190 101C     		mov	r0, r2
 292 0192 191C     		mov	r1, r3
 293 0194 FFF7FEFF 		bl	ETH_TcpPrint
  79:.\main.c      **** 		length = ETH_TcpReceive(socket,(uint8*)&buffer[0],128);
 294              		.loc 1 79 0
 295 0198 3C1C     		mov	r4, r7
 296 019a 8034     		add	r4, r4, #128
ARM GAS  C:\Users\CHUCK~1.ERH\AppData\Local\Temp\cclUSz1d.s 			page 8


 297 019c 3B1C     		mov	r3, r7
 298 019e 8333     		add	r3, r3, #131
 299 01a0 1A78     		ldrb	r2, [r3]
 300 01a2 3B1C     		mov	r3, r7
 301 01a4 101C     		mov	r0, r2
 302 01a6 191C     		mov	r1, r3
 303 01a8 8022     		mov	r2, #128
 304 01aa FFF7FEFF 		bl	ETH_TcpReceive
 305 01ae 031C     		mov	r3, r0
 306 01b0 2380     		strh	r3, [r4]
  80:.\main.c      **** 		ETH_TcpSend(socket,(uint8*)&buffer[0],length);
 307              		.loc 1 80 0
 308 01b2 3B1C     		mov	r3, r7
 309 01b4 8333     		add	r3, r3, #131
 310 01b6 1978     		ldrb	r1, [r3]
 311 01b8 3A1C     		mov	r2, r7
 312 01ba 3B1C     		mov	r3, r7
 313 01bc 8033     		add	r3, r3, #128
 314 01be 1B88     		ldrh	r3, [r3]
 315 01c0 081C     		mov	r0, r1
 316 01c2 111C     		mov	r1, r2
 317 01c4 1A1C     		mov	r2, r3
 318 01c6 FFF7FEFF 		bl	ETH_TcpSend
  81:.\main.c      **** 
  82:.\main.c      **** 		/* pavloven test: TcpSend() of 2000 bytes */
  83:.\main.c      **** 		/* set I/O pin low for timing */
  84:.\main.c      **** 		SDCS_Write(0);
 319              		.loc 1 84 0
 320 01ca 0020     		mov	r0, #0
 321 01cc FFF7FEFF 		bl	SDCS_Write
  85:.\main.c      **** 		/* Transmit 2000 bytes through the driver to the host */
  86:.\main.c      **** 		ETH_TcpSend(socket,(uint8*)&randomData[0], 2000);
 322              		.loc 1 86 0
 323 01d0 3B1C     		mov	r3, r7
 324 01d2 8333     		add	r3, r3, #131
 325 01d4 1978     		ldrb	r1, [r3]
 326 01d6 0D4A     		ldr	r2, .L15
 327 01d8 FA23     		mov	r3, #250
 328 01da DB00     		lsl	r3, r3, #3
 329 01dc 081C     		mov	r0, r1
 330 01de 111C     		mov	r1, r2
 331 01e0 1A1C     		mov	r2, r3
 332 01e2 FFF7FEFF 		bl	ETH_TcpSend
  87:.\main.c      **** 		/* Set I/O pin high for measuring time */
  88:.\main.c      **** 		SDCS_Write(1);
 333              		.loc 1 88 0
 334 01e6 0120     		mov	r0, #1
 335 01e8 FFF7FEFF 		bl	SDCS_Write
  89:.\main.c      **** 		/* end test : measured time 46.82435 ms (Effective Data Rate: 341702 bps) */
  90:.\main.c      **** 		
  91:.\main.c      **** 		ETH_TcpDisconnect( socket );
 336              		.loc 1 91 0
 337 01ec 3B1C     		mov	r3, r7
 338 01ee 8333     		add	r3, r3, #131
 339 01f0 1B78     		ldrb	r3, [r3]
 340 01f2 181C     		mov	r0, r3
 341 01f4 FFF7FEFF 		bl	ETH_TcpDisconnect
ARM GAS  C:\Users\CHUCK~1.ERH\AppData\Local\Temp\cclUSz1d.s 			page 9


  92:.\main.c      **** 		ETH_SocketClose( socket );
 342              		.loc 1 92 0
 343 01f8 3B1C     		mov	r3, r7
 344 01fa 8333     		add	r3, r3, #131
 345 01fc 1B78     		ldrb	r3, [r3]
 346 01fe 181C     		mov	r0, r3
 347 0200 FFF7FEFF 		bl	ETH_SocketClose
  93:.\main.c      **** 		CyDelay(10);
 348              		.loc 1 93 0
 349 0204 0A20     		mov	r0, #10
 350 0206 FFF7FEFF 		bl	CyDelay
  94:.\main.c      ****     }
 351              		.loc 1 94 0
 352 020a 21E7     		b	.L14
 353              	.L16:
 354              		.align	2
 355              	.L15:
 356 020c 00000000 		.word	randomData
 357 0210 CF070000 		.word	1999
 358 0214 00000000 		.word	.LC1
 359 0218 28000000 		.word	.LC3
 360 021c 7C000000 		.word	.LC5
 361 0220 94000000 		.word	.LC7
 362 0224 98000000 		.word	.LC9
 363 0228 9C000000 		.word	.LC11
 364 022c A0000000 		.word	.LC13
 365 0230 A4000000 		.word	.LC15
 366              		.cfi_endproc
 367              	.LFE33:
 368              		.size	main, .-main
 369              		.text
 370              	.Letext0:
 371              		.file 2 "./Generated_Source/PSoC4/cytypes.h"