ARM GAS  C:\Users\CHUCK~1.ERH\AppData\Local\Temp\cclUSz1d.s 			page 1


   1              		.cpu cortex-m0
   2              		.fpu softvfp
   3              		.eabi_attribute 20, 1
   4              		.eabi_attribute 21, 1
   5              		.eabi_attribute 23, 3
   6              		.eabi_attribute 24, 1
   7              		.eabi_attribute 25, 1
   8              		.eabi_attribute 26, 1
   9              		.eabi_attribute 30, 6
  10              		.eabi_attribute 34, 0
  11              		.eabi_attribute 18, 4
  12              		.code	16
  13              		.file	"main.c"
  14              		.text
  15              	.Ltext0:
  16              		.cfi_sections	.debug_frame
  17              		.comm	randomData,2000,4
  18              		.section	.rodata
  19              		.align	2
  20              	.LC1:
  21 0000 57656C63 		.ascii	"Welcome to the PSoC4 Pioneer Board!\015\012\000"
  21      6F6D6520 
  21      746F2074 
  21      68652050 
  21      536F4334 
  22 0026 0000     		.align	2
  23              	.LC3:
  24 0028 2D2D2D2D 		.ascii	"---------------------------------------------------"
  24      2D2D2D2D 
  24      2D2D2D2D 
  24      2D2D2D2D 
  24      2D2D2D2D 
  25 005b 2D2D2D2D 		.ascii	"-------------------------\015\012\015\012\000"
  25      2D2D2D2D 
  25      2D2D2D2D 
  25      2D2D2D2D 
  25      2D2D2D2D 
  26 0079 000000   		.align	2
  27              	.LC5:
  28 007c 506C6561 		.ascii	"Please Press a key: \000"
  28      73652050 
  28      72657373 
  28      2061206B 
  28      65793A20 
  29 0091 000000   		.align	2
  30              	.LC7:
  31 0094 5C200D00 		.ascii	"\\ \015\000"
  32              		.align	2
  33              	.LC9:
  34 0098 7C0D00   		.ascii	"|\015\000"
  35 009b 00       		.align	2
  36              	.LC11:
  37 009c 2F0D00   		.ascii	"/\015\000"
  38 009f 00       		.align	2
  39              	.LC13:
  40 00a0 2D0D00   		.ascii	"-\015\000"
  41 00a3 00       		.align	2
ARM GAS  C:\Users\CHUCK~1.ERH\AppData\Local\Temp\cclUSz1d.s 			page 2


  42              	.LC15:
  43 00a4 0D0A5468 		.ascii	"\015\012Thank You! :-) \000"
  43      616E6B20 
  43      596F7521 
  43      203A2D29 
  43      2000
  44 00b6 0000     		.section	.text.main,"ax",%progbits
  45              		.align	2
  46              		.global	main
  47              		.code	16
  48              		.thumb_func
  49              		.type	main, %function
  50              	main:
  51              	.LFB33:
  52              		.file 1 ".\\main.c"
   1:.\main.c      **** /* ========================================
   2:.\main.c      ****  *
   3:.\main.c      ****  * Copyright YOUR COMPANY, THE YEAR
   4:.\main.c      ****  * All Rights Reserved
   5:.\main.c      ****  * UNPUBLISHED, LICENSED SOFTWARE.
   6:.\main.c      ****  *
   7:.\main.c      ****  * CONFIDENTIAL AND PROPRIETARY INFORMATION
   8:.\main.c      ****  * WHICH IS THE PROPERTY OF your company.
   9:.\main.c      ****  *
  10:.\main.c      ****  * ========================================
  11:.\main.c      **** */
  12:.\main.c      **** #include <project.h>
  13:.\main.c      **** 
  14:.\main.c      **** char randomData[2000];
  15:.\main.c      **** 
  16:.\main.c      **** int main()
  17:.\main.c      **** {
  53              		.loc 1 17 0
  54              		.cfi_startproc
  55 0000 90B5     		push	{r4, r7, lr}
  56              	.LCFI0:
  57              		.cfi_def_cfa_offset 12
  58              		.cfi_offset 4, -12
  59              		.cfi_offset 7, -8
  60              		.cfi_offset 14, -4
  61 0002 A3B0     		sub	sp, sp, #140
  62              	.LCFI1:
  63              		.cfi_def_cfa_offset 152
  64 0004 00AF     		add	r7, sp, #0
  65              	.LCFI2:
  66              		.cfi_def_cfa_register 7
  18:.\main.c      **** 	char buffer[128];
  19:.\main.c      **** 	uint8 socket;
  20:.\main.c      **** 	uint16 length;
  21:.\main.c      **** 	int temp;
  22:.\main.c      **** 	
  23:.\main.c      ****     /* Place your initialization/startup code here (e.g. MyInst_Start()) */
  24:.\main.c      **** 	SPI0_Start();
  67              		.loc 1 24 0
  68 0006 FFF7FEFF 		bl	SPI0_Start
  25:.\main.c      **** 	ETH_Start();
  69              		.loc 1 25 0
ARM GAS  C:\Users\CHUCK~1.ERH\AppData\Local\Temp\cclUSz1d.s 			page 3


  70 000a FFF7FEFF 		bl	ETH_Start
  26:.\main.c      **** 
  27:.\main.c      **** 	/* Generate some random bytes to transmit to the Ethernet client */
  28:.\main.c      **** 	for (temp = 0; temp < 2000; ++temp)
  71              		.loc 1 28 0
  72 000e 0023     		mov	r3, #0
  73 0010 8420     		mov	r0, #132
  74 0012 C019     		add	r0, r0, r7
  75 0014 0360     		str	r3, [r0]
  76 0016 15E0     		b	.L2
  77              	.L3:
  78              	.LBB2:
  29:.\main.c      **** 	{
  30:.\main.c      **** 		randomData[temp] = (rand()&0x17) + 'A';
  79              		.loc 1 30 0 discriminator 2
  80 0018 FFF7FEFF 		bl	rand
  81 001c 031C     		mov	r3, r0
  82 001e DAB2     		uxtb	r2, r3
  83 0020 1723     		mov	r3, #23
  84 0022 1340     		and	r3, r2
  85 0024 DBB2     		uxtb	r3, r3
  86 0026 4133     		add	r3, r3, #65
  87 0028 DAB2     		uxtb	r2, r3
  88 002a 7849     		ldr	r1, .L15
  89 002c 8420     		mov	r0, #132
  90 002e C019     		add	r0, r0, r7
  91 0030 0368     		ldr	r3, [r0]
  92 0032 CB18     		add	r3, r1, r3
  93 0034 1A70     		strb	r2, [r3]
  94              	.LBE2:
  28:.\main.c      **** 	for (temp = 0; temp < 2000; ++temp)
  95              		.loc 1 28 0 discriminator 2
  96 0036 8422     		mov	r2, #132
  97 0038 D219     		add	r2, r2, r7
  98 003a 1368     		ldr	r3, [r2]
  99 003c 0133     		add	r3, r3, #1
 100 003e 8420     		mov	r0, #132
 101 0040 C019     		add	r0, r0, r7
 102 0042 0360     		str	r3, [r0]
 103              	.L2:
  28:.\main.c      **** 	for (temp = 0; temp < 2000; ++temp)
 104              		.loc 1 28 0 is_stmt 0 discriminator 1
 105 0044 8423     		mov	r3, #132
 106 0046 DB19     		add	r3, r3, r7
 107 0048 1A68     		ldr	r2, [r3]
 108 004a 714B     		ldr	r3, .L15+4
 109 004c 9A42     		cmp	r2, r3
 110 004e E3DD     		ble	.L3
 111              	.L14:
  31:.\main.c      **** 	}
  32:.\main.c      **** 
  33:.\main.c      **** //    CyGlobalIntEnable; /* Uncomment this line to enable global interrupts. */
  34:.\main.c      **** 	
  35:.\main.c      **** 	
  36:.\main.c      ****     for(;;)
  37:.\main.c      ****     {
  38:.\main.c      ****         /* Place your application code here. */
ARM GAS  C:\Users\CHUCK~1.ERH\AppData\Local\Temp\cclUSz1d.s 			page 4


  39:.\main.c      **** 		socket = ETH_TcpOpen( 23 );
 112              		.loc 1 39 0 is_stmt 1
 113 0050 3C1C     		mov	r4, r7
 114 0052 8334     		add	r4, r4, #131
 115 0054 1720     		mov	r0, #23
 116 0056 FFF7FEFF 		bl	ETH_TcpOpen
 117 005a 031C     		mov	r3, r0
 118 005c 2370     		strb	r3, [r4]
  40:.\main.c      **** 		ETH_TcpStartServer( socket );
 119              		.loc 1 40 0
 120 005e 3B1C     		mov	r3, r7
 121 0060 8333     		add	r3, r3, #131
 122 0062 1B78     		ldrb	r3, [r3]
 123 0064 181C     		mov	r0, r3
 124 0066 FFF7FEFF 		bl	ETH_TcpStartServer
  41:.\main.c      **** 		while ( !ETH_TcpConnected( socket ) ) {
 125              		.loc 1 41 0
 126 006a 20E0     		b	.L4
 127              	.L5:
 128              	.LBB3:
  42:.\main.c      **** 			/*
  43:.\main.c      **** 			 * While we are waiting for the client to attach
  44:.\main.c      **** 			 * to the server, flash some random colors on the
  45:.\main.c      **** 			 * LED to provide entertainment.
  46:.\main.c      **** 			 */
  47:.\main.c      **** 			RED_Write( rand() & 0xFE);
 129              		.loc 1 47 0
 130 006c FFF7FEFF 		bl	rand
 131 0070 031C     		mov	r3, r0
 132 0072 DBB2     		uxtb	r3, r3
 133 0074 0122     		mov	r2, #1
 134 0076 9343     		bic	r3, r2
 135 0078 DBB2     		uxtb	r3, r3
 136 007a 181C     		mov	r0, r3
 137 007c FFF7FEFF 		bl	RED_Write
  48:.\main.c      **** 			GREEN_Write( rand() & 0xFE);
 138              		.loc 1 48 0
 139 0080 FFF7FEFF 		bl	rand
 140 0084 031C     		mov	r3, r0
 141 0086 DBB2     		uxtb	r3, r3
 142 0088 0122     		mov	r2, #1
 143 008a 9343     		bic	r3, r2
 144 008c DBB2     		uxtb	r3, r3
 145 008e 181C     		mov	r0, r3
 146 0090 FFF7FEFF 		bl	GREEN_Write
  49:.\main.c      **** 			BLUE_Write( rand() & 0xFE) ;
 147              		.loc 1 49 0
 148 0094 FFF7FEFF 		bl	rand
 149 0098 031C     		mov	r3, r0
 150 009a DBB2     		uxtb	r3, r3
 151 009c 0122     		mov	r2, #1
 152 009e 9343     		bic	r3, r2
 153 00a0 DBB2     		uxtb	r3, r3
 154 00a2 181C     		mov	r0, r3
 155 00a4 FFF7FEFF 		bl	BLUE_Write
  50:.\main.c      **** 			/* wait for a connection, and delay the flashes */
  51:.\main.c      **** 			CyDelay(100);
ARM GAS  C:\Users\CHUCK~1.ERH\AppData\Local\Temp\cclUSz1d.s 			page 5


 156              		.loc 1 51 0
 157 00a8 6420     		mov	r0, #100
 158 00aa FFF7FEFF 		bl	CyDelay
 159              	.L4:
 160              	.LBE3:
  41:.\main.c      **** 		while ( !ETH_TcpConnected( socket ) ) {
 161              		.loc 1 41 0 discriminator 1
 162 00ae 3B1C     		mov	r3, r7
 163 00b0 8333     		add	r3, r3, #131
 164 00b2 1B78     		ldrb	r3, [r3]
 165 00b4 181C     		mov	r0, r3
 166 00b6 FFF7FEFF 		bl	ETH_TcpConnected
 167 00ba 031C     		mov	r3, r0
 168 00bc 002B     		cmp	r3, #0
 169 00be D5D0     		beq	.L5
  52:.\main.c      **** 		}
  53:.\main.c      **** 		/*
  54:.\main.c      **** 		 * Send the Logon welcom message to the client.
  55:.\main.c      **** 		 */
  56:.\main.c      **** 		ETH_TcpPrint(socket,"Welcome to the PSoC4 Pioneer Board!\r\n");
 170              		.loc 1 56 0
 171 00c0 3B1C     		mov	r3, r7
 172 00c2 8333     		add	r3, r3, #131
 173 00c4 1A78     		ldrb	r2, [r3]
 174 00c6 534B     		ldr	r3, .L15+8
 175 00c8 101C     		mov	r0, r2
 176 00ca 191C     		mov	r1, r3
 177 00cc FFF7FEFF 		bl	ETH_TcpPrint
  57:.\main.c      **** 		ETH_TcpPrint(socket,"----------------------------------------------------------------------------
 178              		.loc 1 57 0
 179 00d0 3B1C     		mov	r3, r7
 180 00d2 8333     		add	r3, r3, #131
 181 00d4 1A78     		ldrb	r2, [r3]
 182 00d6 504B     		ldr	r3, .L15+12
 183 00d8 101C     		mov	r0, r2
 184 00da 191C     		mov	r1, r3
 185 00dc FFF7FEFF 		bl	ETH_TcpPrint
  58:.\main.c      **** 		temp = 0;
 186              		.loc 1 58 0
 187 00e0 0023     		mov	r3, #0
 188 00e2 8420     		mov	r0, #132
 189 00e4 C019     		add	r0, r0, r7
 190 00e6 0360     		str	r3, [r0]
  59:.\main.c      **** 		while( ETH_SocketRxDataWaiting(socket) == 0) {
 191              		.loc 1 59 0
 192 00e8 45E0     		b	.L6
 193              	.L13:
  60:.\main.c      **** 			ETH_TcpPrint(socket, "Please Press a key: ");
 194              		.loc 1 60 0
 195 00ea 3B1C     		mov	r3, r7
 196 00ec 8333     		add	r3, r3, #131
 197 00ee 1A78     		ldrb	r2, [r3]
 198 00f0 4A4B     		ldr	r3, .L15+16
 199 00f2 101C     		mov	r0, r2
 200 00f4 191C     		mov	r1, r3
 201 00f6 FFF7FEFF 		bl	ETH_TcpPrint
  61:.\main.c      **** 			switch(temp) {
ARM GAS  C:\Users\CHUCK~1.ERH\AppData\Local\Temp\cclUSz1d.s 			page 6


 202              		.loc 1 61 0
 203 00fa 8422     		mov	r2, #132
 204 00fc D219     		add	r2, r2, r7
 205 00fe 1368     		ldr	r3, [r2]
 206 0100 012B     		cmp	r3, #1
 207 0102 11D0     		beq	.L9
 208 0104 02DC     		bgt	.L12
 209 0106 002B     		cmp	r3, #0
 210 0108 05D0     		beq	.L8
 211 010a 28E0     		b	.L7
 212              	.L12:
 213 010c 022B     		cmp	r3, #2
 214 010e 14D0     		beq	.L10
 215 0110 032B     		cmp	r3, #3
 216 0112 1BD0     		beq	.L11
 217 0114 23E0     		b	.L7
 218              	.L8:
  62:.\main.c      **** 				case 0:
  63:.\main.c      **** 					ETH_TcpPrint(socket, "\\ \r");
 219              		.loc 1 63 0
 220 0116 3B1C     		mov	r3, r7
 221 0118 8333     		add	r3, r3, #131
 222 011a 1A78     		ldrb	r2, [r3]
 223 011c 404B     		ldr	r3, .L15+20
 224 011e 101C     		mov	r0, r2
 225 0120 191C     		mov	r1, r3
 226 0122 FFF7FEFF 		bl	ETH_TcpPrint
  64:.\main.c      **** 					break;
 227              		.loc 1 64 0
 228 0126 1AE0     		b	.L7
 229              	.L9:
  65:.\main.c      **** 				case 1:
  66:.\main.c      **** 					ETH_TcpPrint(socket, "|\r");
 230              		.loc 1 66 0
 231 0128 3B1C     		mov	r3, r7
 232 012a 8333     		add	r3, r3, #131
 233 012c 1A78     		ldrb	r2, [r3]
 234 012e 3D4B     		ldr	r3, .L15+24
 235 0130 101C     		mov	r0, r2
 236 0132 191C     		mov	r1, r3
 237 0134 FFF7FEFF 		bl	ETH_TcpPrint
  67:.\main.c      **** 					break;
 238              		.loc 1 67 0
 239 0138 11E0     		b	.L7
 240              	.L10:
  68:.\main.c      **** 				case 2:
  69:.\main.c      **** 					ETH_TcpPrint(socket, "/\r");
 241              		.loc 1 69 0
 242 013a 3B1C     		mov	r3, r7
 243 013c 8333     		add	r3, r3, #131
 244 013e 1A78     		ldrb	r2, [r3]
 245 0140 394B     		ldr	r3, .L15+28
 246 0142 101C     		mov	r0, r2
 247 0144 191C     		mov	r1, r3
 248 0146 FFF7FEFF 		bl	ETH_TcpPrint
  70:.\main.c      **** 					break;
 249              		.loc 1 70 0
ARM GAS  C:\Users\CHUCK~1.ERH\AppData\Local\Temp\cclUSz1d.s 			page 7


 250 014a 08E0     		b	.L7
 251              	.L11:
  71:.\main.c      **** 				case 3:
  72:.\main.c      **** 					ETH_TcpPrint(socket, "-\r");
 252              		.loc 1 72 0
 253 014c 3B1C     		mov	r3, r7
 254 014e 8333     		add	r3, r3, #131
 255 0150 1A78     		ldrb	r2, [r3]
 256 0152 364B     		ldr	r3, .L15+32
 257 0154 101C     		mov	r0, r2
 258 0156 191C     		mov	r1, r3
 259 0158 FFF7FEFF 		bl	ETH_TcpPrint
  73:.\main.c      **** 					break;
 260              		.loc 1 73 0
 261 015c C046     		mov	r8, r8
 262              	.L7:
  74:.\main.c      **** 			}
  75:.\main.c      **** 			temp = (temp + 1) & 3;
 263              		.loc 1 75 0
 264 015e 8420     		mov	r0, #132
 265 0160 C019     		add	r0, r0, r7
 266 0162 0368     		ldr	r3, [r0]
 267 0164 5A1C     		add	r2, r3, #1
 268 0166 0323     		mov	r3, #3
 269 0168 1340     		and	r3, r2
 270 016a 8422     		mov	r2, #132
 271 016c D219     		add	r2, r2, r7
 272 016e 1360     		str	r3, [r2]
  76:.\main.c      **** 			CyDelay(1);
 273              		.loc 1 76 0
 274 0170 0120     		mov	r0, #1
 275 0172 FFF7FEFF 		bl	CyDelay
 276              	.L6:
  59:.\main.c      **** 		while( ETH_SocketRxDataWaiting(socket) == 0) {
 277              		.loc 1 59 0 discriminator 1
 278 0176 3B1C     		mov	r3, r7
 279 0178 8333     		add	r3, r3, #131
 280 017a 1B78     		ldrb	r3, [r3]
 281 017c 181C     		mov	r0, r3
 282 017e FFF7FEFF 		bl	ETH_SocketRxDataWaiting
 283 0182 031C     		mov	r3, r0
 284 0184 002B     		cmp	r3, #0
 285 0186 B0D0     		beq	.L13
  77:.\main.c      **** 		}
  78:.\main.c      **** 		ETH_TcpPrint(socket,"\r\nThank You! :-) ");
 286              		.loc 1 78 0
 287 0188 3B1C     		mov	r3, r7
 288 018a 8333     		add	r3, r3, #131
 289 018c 1A78     		ldrb	r2, [r3]
 290 018e 284B     		ldr	r3, .L15+36
 291 0190 101C     		mov	r0, r2
 292 0192 191C     		mov	r1, r3
 293 0194 FFF7FEFF 		bl	ETH_TcpPrint
  79:.\main.c      **** 		length = ETH_TcpReceive(socket,(uint8*)&buffer[0],128);
 294              		.loc 1 79 0
 295 0198 3C1C     		mov	r4, r7
 296 019a 8034     		add	r4, r4, #128
ARM GAS  C:\Users\CHUCK~1.ERH\AppData\Local\Temp\cclUSz1d.s 			page 8


 297 019c 3B1C     		mov	r3, r7
 298 019e 8333     		add	r3, r3, #131
 299 01a0 1A78     		ldrb	r2, [r3]
 300 01a2 3B1C     		mov	r3, r7
 301 01a4 101C     		mov	r0, r2
 302 01a6 191C     		mov	r1, r3
 303 01a8 8022     		mov	r2, #128
 304 01aa FFF7FEFF 		bl	ETH_TcpReceive
 305 01ae 031C     		mov	r3, r0
 306 01b0 2380     		strh	r3, [r4]
  80:.\main.c      **** 		ETH_TcpSend(socket,(uint8*)&buffer[0],length);
 307              		.loc 1 80 0
 308 01b2 3B1C     		mov	r3, r7
 309 01b4 8333     		add	r3, r3, #131
 310 01b6 1978     		ldrb	r1, [r3]
 311 01b8 3A1C     		mov	r2, r7
 312 01ba 3B1C     		mov	r3, r7
 313 01bc 8033     		add	r3, r3, #128
 314 01be 1B88     		ldrh	r3, [r3]
 315 01c0 081C     		mov	r0, r1
 316 01c2 111C     		mov	r1, r2
 317 01c4 1A1C     		mov	r2, r3
 318 01c6 FFF7FEFF 		bl	ETH_TcpSend
  81:.\main.c      **** 
  82:.\main.c      **** 		/* pavloven test: TcpSend() of 2000 bytes */
  83:.\main.c      **** 		/* set I/O pin low for timing */
  84:.\main.c      **** 		SDCS_Write(0);
 319              		.loc 1 84 0
 320 01ca 0020     		mov	r0, #0
 321 01cc FFF7FEFF 		bl	SDCS_Write
  85:.\main.c      **** 		/* Transmit 2000 bytes through the driver to the host */
  86:.\main.c      **** 		ETH_TcpSend(socket,(uint8*)&randomData[0], 2000);
 322              		.loc 1 86 0
 323 01d0 3B1C     		mov	r3, r7
 324 01d2 8333     		add	r3, r3, #131
 325 01d4 1978     		ldrb	r1, [r3]
 326 01d6 0D4A     		ldr	r2, .L15
 327 01d8 FA23     		mov	r3, #250
 328 01da DB00     		lsl	r3, r3, #3
 329 01dc 081C     		mov	r0, r1
 330 01de 111C     		mov	r1, r2
 331 01e0 1A1C     		mov	r2, r3
 332 01e2 FFF7FEFF 		bl	ETH_TcpSend
  87:.\main.c      **** 		/* Set I/O pin high for measuring time */
  88:.\main.c      **** 		SDCS_Write(1);
 333              		.loc 1 88 0
 334 01e6 0120     		mov	r0, #1
 335 01e8 FFF7FEFF 		bl	SDCS_Write
  89:.\main.c      **** 		/* end test : measured time 46.82435 ms (Effective Data Rate: 341702 bps) */
  90:.\main.c      **** 		
  91:.\main.c      **** 		ETH_TcpDisconnect( socket );
 336              		.loc 1 91 0
 337 01ec 3B1C     		mov	r3, r7
 338 01ee 8333     		add	r3, r3, #131
 339 01f0 1B78     		ldrb	r3, [r3]
 340 01f2 181C     		mov	r0, r3
 341 01f4 FFF7FEFF 		bl	ETH_TcpDisconnect
ARM GAS  C:\Users\CHUCK~1.ERH\AppData\Local\Temp\cclUSz1d.s 			page 9


  92:.\main.c      **** 		ETH_SocketClose( socket );
 342              		.loc 1 92 0
 343 01f8 3B1C     		mov	r3, r7
 344 01fa 8333     		add	r3, r3, #131
 345 01fc 1B78     		ldrb	r3, [r3]
 346 01fe 181C     		mov	r0, r3
 347 0200 FFF7FEFF 		bl	ETH_SocketClose
  93:.\main.c      **** 		CyDelay(10);
 348              		.loc 1 93 0
 349 0204 0A20     		mov	r0, #10
 350 0206 FFF7FEFF 		bl	CyDelay
  94:.\main.c      ****     }
 351              		.loc 1 94 0
 352 020a 21E7     		b	.L14
 353              	.L16:
 354              		.align	2
 355              	.L15:
 356 020c 00000000 		.word	randomData
 357 0210 CF070000 		.word	1999
 358 0214 00000000 		.word	.LC1
 359 0218 28000000 		.word	.LC3
 360 021c 7C000000 		.word	.LC5
 361 0220 94000000 		.word	.LC7
 362 0224 98000000 		.word	.LC9
 363 0228 9C000000 		.word	.LC11
 364 022c A0000000 		.word	.LC13
 365 0230 A4000000 		.word	.LC15
 366              		.cfi_endproc
 367              	.LFE33:
 368              		.size	main, .-main
 369              		.text
 370              	.Letext0:
 371              		.file 2 "./Generated_Source/PSoC4/cytypes.h"
 372              		.section	.debug_info,"",%progbits
 373              	.Ldebug_info0:
 374 0000 5E010000 		.4byte	0x15e
 375 0004 0200     		.2byte	0x2
 376 0006 00000000 		.4byte	.Ldebug_abbrev0
 377 000a 04       		.byte	0x4
 378 000b 01       		.uleb128 0x1
 379 000c 33000000 		.4byte	.LASF20
 380 0010 01       		.byte	0x1
 381 0011 74010000 		.4byte	.LASF21
 382 0015 AB000000 		.4byte	.LASF22
 383 0019 00000000 		.4byte	.Ldebug_ranges0+0
 384 001d 00000000 		.4byte	0
 385 0021 00000000 		.4byte	0
 386 0025 00000000 		.4byte	.Ldebug_line0
 387 0029 02       		.uleb128 0x2
 388 002a 01       		.byte	0x1
 389 002b 06       		.byte	0x6
 390 002c 62010000 		.4byte	.LASF0
 391 0030 02       		.uleb128 0x2
 392 0031 01       		.byte	0x1
 393 0032 08       		.byte	0x8
 394 0033 12010000 		.4byte	.LASF1
 395 0037 02       		.uleb128 0x2
ARM GAS  C:\Users\CHUCK~1.ERH\AppData\Local\Temp\cclUSz1d.s 			page 10


 396 0038 02       		.byte	0x2
 397 0039 05       		.byte	0x5
 398 003a 2E010000 		.4byte	.LASF2
 399 003e 02       		.uleb128 0x2
 400 003f 02       		.byte	0x2
 401 0040 07       		.byte	0x7
 402 0041 4F010000 		.4byte	.LASF3
 403 0045 02       		.uleb128 0x2
 404 0046 04       		.byte	0x4
 405 0047 05       		.byte	0x5
 406 0048 25010000 		.4byte	.LASF4
 407 004c 02       		.uleb128 0x2
 408 004d 04       		.byte	0x4
 409 004e 07       		.byte	0x7
 410 004f 82000000 		.4byte	.LASF5
 411 0053 02       		.uleb128 0x2
 412 0054 08       		.byte	0x8
 413 0055 05       		.byte	0x5
 414 0056 00000000 		.4byte	.LASF6
 415 005a 02       		.uleb128 0x2
 416 005b 08       		.byte	0x8
 417 005c 07       		.byte	0x7
 418 005d 94000000 		.4byte	.LASF7
 419 0061 03       		.uleb128 0x3
 420 0062 04       		.byte	0x4
 421 0063 05       		.byte	0x5
 422 0064 696E7400 		.ascii	"int\000"
 423 0068 02       		.uleb128 0x2
 424 0069 04       		.byte	0x4
 425 006a 07       		.byte	0x7
 426 006b 0E000000 		.4byte	.LASF8
 427 006f 04       		.uleb128 0x4
 428 0070 7C000000 		.4byte	.LASF9
 429 0074 02       		.byte	0x2
 430 0075 5B       		.byte	0x5b
 431 0076 30000000 		.4byte	0x30
 432 007a 04       		.uleb128 0x4
 433 007b 7D010000 		.4byte	.LASF10
 434 007f 02       		.byte	0x2
 435 0080 5C       		.byte	0x5c
 436 0081 3E000000 		.4byte	0x3e
 437 0085 02       		.uleb128 0x2
 438 0086 04       		.byte	0x4
 439 0087 04       		.byte	0x4
 440 0088 6E010000 		.4byte	.LASF11
 441 008c 02       		.uleb128 0x2
 442 008d 08       		.byte	0x8
 443 008e 04       		.byte	0x4
 444 008f 3D010000 		.4byte	.LASF12
 445 0093 02       		.uleb128 0x2
 446 0094 01       		.byte	0x1
 447 0095 08       		.byte	0x8
 448 0096 20010000 		.4byte	.LASF13
 449 009a 02       		.uleb128 0x2
 450 009b 04       		.byte	0x4
 451 009c 07       		.byte	0x7
 452 009d 8B010000 		.4byte	.LASF14
ARM GAS  C:\Users\CHUCK~1.ERH\AppData\Local\Temp\cclUSz1d.s 			page 11


 453 00a1 05       		.uleb128 0x5
 454 00a2 01       		.byte	0x1
 455 00a3 20000000 		.4byte	.LASF23
 456 00a7 01       		.byte	0x1
 457 00a8 10       		.byte	0x10
 458 00a9 61000000 		.4byte	0x61
 459 00ad 00000000 		.4byte	.LFB33
 460 00b1 34020000 		.4byte	.LFE33
 461 00b5 00000000 		.4byte	.LLST0
 462 00b9 01       		.byte	0x1
 463 00ba 2E010000 		.4byte	0x12e
 464 00be 06       		.uleb128 0x6
 465 00bf 84010000 		.4byte	.LASF15
 466 00c3 01       		.byte	0x1
 467 00c4 12       		.byte	0x12
 468 00c5 2E010000 		.4byte	0x12e
 469 00c9 03       		.byte	0x3
 470 00ca 91       		.byte	0x91
 471 00cb E87E     		.sleb128 -152
 472 00cd 06       		.uleb128 0x6
 473 00ce 2C000000 		.4byte	.LASF16
 474 00d2 01       		.byte	0x1
 475 00d3 13       		.byte	0x13
 476 00d4 6F000000 		.4byte	0x6f
 477 00d8 02       		.byte	0x2
 478 00d9 91       		.byte	0x91
 479 00da 6B       		.sleb128 -21
 480 00db 06       		.uleb128 0x6
 481 00dc 25000000 		.4byte	.LASF17
 482 00e0 01       		.byte	0x1
 483 00e1 14       		.byte	0x14
 484 00e2 7A000000 		.4byte	0x7a
 485 00e6 02       		.byte	0x2
 486 00e7 91       		.byte	0x91
 487 00e8 68       		.sleb128 -24
 488 00e9 06       		.uleb128 0x6
 489 00ea 1B000000 		.4byte	.LASF18
 490 00ee 01       		.byte	0x1
 491 00ef 15       		.byte	0x15
 492 00f0 61000000 		.4byte	0x61
 493 00f4 02       		.byte	0x2
 494 00f5 91       		.byte	0x91
 495 00f6 6C       		.sleb128 -20
 496 00f7 07       		.uleb128 0x7
 497 00f8 18000000 		.4byte	.LBB2
 498 00fc 36000000 		.4byte	.LBE2
 499 0100 14010000 		.4byte	0x114
 500 0104 08       		.uleb128 0x8
 501 0105 01       		.byte	0x1
 502 0106 38010000 		.4byte	.LASF19
 503 010a 01       		.byte	0x1
 504 010b 1E       		.byte	0x1e
 505 010c 61000000 		.4byte	0x61
 506 0110 01       		.byte	0x1
 507 0111 09       		.uleb128 0x9
 508 0112 00       		.byte	0
 509 0113 00       		.byte	0
ARM GAS  C:\Users\CHUCK~1.ERH\AppData\Local\Temp\cclUSz1d.s 			page 12


 510 0114 0A       		.uleb128 0xa
 511 0115 6C000000 		.4byte	.LBB3
 512 0119 AE000000 		.4byte	.LBE3
 513 011d 08       		.uleb128 0x8
 514 011e 01       		.byte	0x1
 515 011f 38010000 		.4byte	.LASF19
 516 0123 01       		.byte	0x1
 517 0124 1E       		.byte	0x1e
 518 0125 61000000 		.4byte	0x61
 519 0129 01       		.byte	0x1
 520 012a 09       		.uleb128 0x9
 521 012b 00       		.byte	0
 522 012c 00       		.byte	0
 523 012d 00       		.byte	0
 524 012e 0B       		.uleb128 0xb
 525 012f 93000000 		.4byte	0x93
 526 0133 3E010000 		.4byte	0x13e
 527 0137 0C       		.uleb128 0xc
 528 0138 9A000000 		.4byte	0x9a
 529 013c 7F       		.byte	0x7f
 530 013d 00       		.byte	0
 531 013e 0B       		.uleb128 0xb
 532 013f 93000000 		.4byte	0x93
 533 0143 4F010000 		.4byte	0x14f
 534 0147 0D       		.uleb128 0xd
 535 0148 9A000000 		.4byte	0x9a
 536 014c CF07     		.2byte	0x7cf
 537 014e 00       		.byte	0
 538 014f 0E       		.uleb128 0xe
 539 0150 44010000 		.4byte	.LASF24
 540 0154 01       		.byte	0x1
 541 0155 0E       		.byte	0xe
 542 0156 3E010000 		.4byte	0x13e
 543 015a 01       		.byte	0x1
 544 015b 05       		.byte	0x5
 545 015c 03       		.byte	0x3
 546 015d 00000000 		.4byte	randomData
 547 0161 00       		.byte	0
 548              		.section	.debug_abbrev,"",%progbits
 549              	.Ldebug_abbrev0:
 550 0000 01       		.uleb128 0x1
 551 0001 11       		.uleb128 0x11
 552 0002 01       		.byte	0x1
 553 0003 25       		.uleb128 0x25
 554 0004 0E       		.uleb128 0xe
 555 0005 13       		.uleb128 0x13
 556 0006 0B       		.uleb128 0xb
 557 0007 03       		.uleb128 0x3
 558 0008 0E       		.uleb128 0xe
 559 0009 1B       		.uleb128 0x1b
 560 000a 0E       		.uleb128 0xe
 561 000b 55       		.uleb128 0x55
 562 000c 06       		.uleb128 0x6
 563 000d 11       		.uleb128 0x11
 564 000e 01       		.uleb128 0x1
 565 000f 52       		.uleb128 0x52
 566 0010 01       		.uleb128 0x1
ARM GAS  C:\Users\CHUCK~1.ERH\AppData\Local\Temp\cclUSz1d.s 			page 13


 567 0011 10       		.uleb128 0x10
 568 0012 06       		.uleb128 0x6
 569 0013 00       		.byte	0
 570 0014 00       		.byte	0
 571 0015 02       		.uleb128 0x2
 572 0016 24       		.uleb128 0x24
 573 0017 00       		.byte	0
 574 0018 0B       		.uleb128 0xb
 575 0019 0B       		.uleb128 0xb
 576 001a 3E       		.uleb128 0x3e
 577 001b 0B       		.uleb128 0xb
 578 001c 03       		.uleb128 0x3
 579 001d 0E       		.uleb128 0xe
 580 001e 00       		.byte	0
 581 001f 00       		.byte	0
 582 0020 03       		.uleb128 0x3
 583 0021 24       		.uleb128 0x24
 584 0022 00       		.byte	0
 585 0023 0B       		.uleb128 0xb
 586 0024 0B       		.uleb128 0xb
 587 0025 3E       		.uleb128 0x3e
 588 0026 0B       		.uleb128 0xb
 589 0027 03       		.uleb128 0x3
 590 0028 08       		.uleb128 0x8
 591 0029 00       		.byte	0
 592 002a 00       		.byte	0
 593 002b 04       		.uleb128 0x4
 594 002c 16       		.uleb128 0x16
 595 002d 00       		.byte	0
 596 002e 03       		.uleb128 0x3
 597 002f 0E       		.uleb128 0xe
 598 0030 3A       		.uleb128 0x3a
 599 0031 0B       		.uleb128 0xb
 600 0032 3B       		.uleb128 0x3b
 601 0033 0B       		.uleb128 0xb
 602 0034 49       		.uleb128 0x49
 603 0035 13       		.uleb128 0x13
 604 0036 00       		.byte	0
 605 0037 00       		.byte	0
 606 0038 05       		.uleb128 0x5
 607 0039 2E       		.uleb128 0x2e
 608 003a 01       		.byte	0x1
 609 003b 3F       		.uleb128 0x3f
 610 003c 0C       		.uleb128 0xc
 611 003d 03       		.uleb128 0x3
 612 003e 0E       		.uleb128 0xe
 613 003f 3A       		.uleb128 0x3a
 614 0040 0B       		.uleb128 0xb
 615 0041 3B       		.uleb128 0x3b
 616 0042 0B       		.uleb128 0xb
 617 0043 49       		.uleb128 0x49
 618 0044 13       		.uleb128 0x13
 619 0045 11       		.uleb128 0x11
 620 0046 01       		.uleb128 0x1
 621 0047 12       		.uleb128 0x12
 622 0048 01       		.uleb128 0x1
 623 0049 40       		.uleb128 0x40
ARM GAS  C:\Users\CHUCK~1.ERH\AppData\Local\Temp\cclUSz1d.s 			page 14


 624 004a 06       		.uleb128 0x6
 625 004b 9642     		.uleb128 0x2116
 626 004d 0C       		.uleb128 0xc
 627 004e 01       		.uleb128 0x1
 628 004f 13       		.uleb128 0x13
 629 0050 00       		.byte	0
 630 0051 00       		.byte	0
 631 0052 06       		.uleb128 0x6
 632 0053 34       		.uleb128 0x34
 633 0054 00       		.byte	0
 634 0055 03       		.uleb128 0x3
 635 0056 0E       		.uleb128 0xe
 636 0057 3A       		.uleb128 0x3a
 637 0058 0B       		.uleb128 0xb
 638 0059 3B       		.uleb128 0x3b
 639 005a 0B       		.uleb128 0xb
 640 005b 49       		.uleb128 0x49
 641 005c 13       		.uleb128 0x13
 642 005d 02       		.uleb128 0x2
 643 005e 0A       		.uleb128 0xa
 644 005f 00       		.byte	0
 645 0060 00       		.byte	0
 646 0061 07       		.uleb128 0x7
 647 0062 0B       		.uleb128 0xb
 648 0063 01       		.byte	0x1
 649 0064 11       		.uleb128 0x11
 650 0065 01       		.uleb128 0x1
 651 0066 12       		.uleb128 0x12
 652 0067 01       		.uleb128 0x1
 653 0068 01       		.uleb128 0x1
 654 0069 13       		.uleb128 0x13
 655 006a 00       		.byte	0
 656 006b 00       		.byte	0
 657 006c 08       		.uleb128 0x8
 658 006d 2E       		.uleb128 0x2e
 659 006e 01       		.byte	0x1
 660 006f 3F       		.uleb128 0x3f
 661 0070 0C       		.uleb128 0xc
 662 0071 03       		.uleb128 0x3
 663 0072 0E       		.uleb128 0xe
 664 0073 3A       		.uleb128 0x3a
 665 0074 0B       		.uleb128 0xb
 666 0075 3B       		.uleb128 0x3b
 667 0076 0B       		.uleb128 0xb
 668 0077 49       		.uleb128 0x49
 669 0078 13       		.uleb128 0x13
 670 0079 3C       		.uleb128 0x3c
 671 007a 0C       		.uleb128 0xc
 672 007b 00       		.byte	0
 673 007c 00       		.byte	0
 674 007d 09       		.uleb128 0x9
 675 007e 18       		.uleb128 0x18
 676 007f 00       		.byte	0
 677 0080 00       		.byte	0
 678 0081 00       		.byte	0
 679 0082 0A       		.uleb128 0xa
 680 0083 0B       		.uleb128 0xb
ARM GAS  C:\Users\CHUCK~1.ERH\AppData\Local\Temp\cclUSz1d.s 			page 15


 681 0084 01       		.byte	0x1
 682 0085 11       		.uleb128 0x11
 683 0086 01       		.uleb128 0x1
 684 0087 12       		.uleb128 0x12
 685 0088 01       		.uleb128 0x1
 686 0089 00       		.byte	0
 687 008a 00       		.byte	0
 688 008b 0B       		.uleb128 0xb
 689 008c 01       		.uleb128 0x1
 690 008d 01       		.byte	0x1
 691 008e 49       		.uleb128 0x49
 692 008f 13       		.uleb128 0x13
 693 0090 01       		.uleb128 0x1
 694 0091 13       		.uleb128 0x13
 695 0092 00       		.byte	0
 696 0093 00       		.byte	0
 697 0094 0C       		.uleb128 0xc
 698 0095 21       		.uleb128 0x21
 699 0096 00       		.byte	0
 700 0097 49       		.uleb128 0x49
 701 0098 13       		.uleb128 0x13
 702 0099 2F       		.uleb128 0x2f
 703 009a 0B       		.uleb128 0xb
 704 009b 00       		.byte	0
 705 009c 00       		.byte	0
 706 009d 0D       		.uleb128 0xd
 707 009e 21       		.uleb128 0x21
 708 009f 00       		.byte	0
 709 00a0 49       		.uleb128 0x49
 710 00a1 13       		.uleb128 0x13
 711 00a2 2F       		.uleb128 0x2f
 712 00a3 05       		.uleb128 0x5
 713 00a4 00       		.byte	0
 714 00a5 00       		.byte	0
 715 00a6 0E       		.uleb128 0xe
 716 00a7 34       		.uleb128 0x34
 717 00a8 00       		.byte	0
 718 00a9 03       		.uleb128 0x3
 719 00aa 0E       		.uleb128 0xe
 720 00ab 3A       		.uleb128 0x3a
 721 00ac 0B       		.uleb128 0xb
 722 00ad 3B       		.uleb128 0x3b
 723 00ae 0B       		.uleb128 0xb
 724 00af 49       		.uleb128 0x49
 725 00b0 13       		.uleb128 0x13
 726 00b1 3F       		.uleb128 0x3f
 727 00b2 0C       		.uleb128 0xc
 728 00b3 02       		.uleb128 0x2
 729 00b4 0A       		.uleb128 0xa
 730 00b5 00       		.byte	0
 731 00b6 00       		.byte	0
 732 00b7 00       		.byte	0
 733              		.section	.debug_loc,"",%progbits
 734              	.Ldebug_loc0:
 735              	.LLST0:
 736 0000 00000000 		.4byte	.LFB33
 737 0004 02000000 		.4byte	.LCFI0
ARM GAS  C:\Users\CHUCK~1.ERH\AppData\Local\Temp\cclUSz1d.s 			page 16


 738 0008 0200     		.2byte	0x2
 739 000a 7D       		.byte	0x7d
 740 000b 00       		.sleb128 0
 741 000c 02000000 		.4byte	.LCFI0
 742 0010 04000000 		.4byte	.LCFI1
 743 0014 0200     		.2byte	0x2
 744 0016 7D       		.byte	0x7d
 745 0017 0C       		.sleb128 12
 746 0018 04000000 		.4byte	.LCFI1
 747 001c 06000000 		.4byte	.LCFI2
 748 0020 0300     		.2byte	0x3
 749 0022 7D       		.byte	0x7d
 750 0023 9801     		.sleb128 152
 751 0025 06000000 		.4byte	.LCFI2
 752 0029 34020000 		.4byte	.LFE33
 753 002d 0300     		.2byte	0x3
 754 002f 77       		.byte	0x77
 755 0030 9801     		.sleb128 152
 756 0032 00000000 		.4byte	0
 757 0036 00000000 		.4byte	0
 758              		.section	.debug_aranges,"",%progbits
 759 0000 1C000000 		.4byte	0x1c
 760 0004 0200     		.2byte	0x2
 761 0006 00000000 		.4byte	.Ldebug_info0
 762 000a 04       		.byte	0x4
 763 000b 00       		.byte	0
 764 000c 0000     		.2byte	0
 765 000e 0000     		.2byte	0
 766 0010 00000000 		.4byte	.LFB33
 767 0014 34020000 		.4byte	.LFE33-.LFB33
 768 0018 00000000 		.4byte	0
 769 001c 00000000 		.4byte	0
 770              		.section	.debug_ranges,"",%progbits
 771              	.Ldebug_ranges0:
 772 0000 00000000 		.4byte	.LFB33
 773 0004 34020000 		.4byte	.LFE33
 774 0008 00000000 		.4byte	0
 775 000c 00000000 		.4byte	0
 776              		.section	.debug_line,"",%progbits
 777              	.Ldebug_line0:
 778 0000 A3000000 		.section	.debug_str,"MS",%progbits,1
 778      02004500 
 778      00000201 
 778      FB0E0D00 
 778      01010101 
 779              	.LASF6:
 780 0000 6C6F6E67 		.ascii	"long long int\000"
 780      206C6F6E 
 780      6720696E 
 780      7400
 781              	.LASF8:
 782 000e 756E7369 		.ascii	"unsigned int\000"
 782      676E6564 
 782      20696E74 
 782      00
 783              	.LASF18:
 784 001b 74656D70 		.ascii	"temp\000"
ARM GAS  C:\Users\CHUCK~1.ERH\AppData\Local\Temp\cclUSz1d.s 			page 17


 784      00
 785              	.LASF23:
 786 0020 6D61696E 		.ascii	"main\000"
 786      00
 787              	.LASF17:
 788 0025 6C656E67 		.ascii	"length\000"
 788      746800
 789              	.LASF16:
 790 002c 736F636B 		.ascii	"socket\000"
 790      657400
 791              	.LASF20:
 792 0033 474E5520 		.ascii	"GNU C 4.7.3 20130312 (release) [ARM/embedded-4_7-br"
 792      4320342E 
 792      372E3320 
 792      32303133 
 792      30333132 
 793 0066 616E6368 		.ascii	"anch revision 196615]\000"
 793      20726576 
 793      6973696F 
 793      6E203139 
 793      36363135 
 794              	.LASF9:
 795 007c 75696E74 		.ascii	"uint8\000"
 795      3800
 796              	.LASF5:
 797 0082 6C6F6E67 		.ascii	"long unsigned int\000"
 797      20756E73 
 797      69676E65 
 797      6420696E 
 797      7400
 798              	.LASF7:
 799 0094 6C6F6E67 		.ascii	"long long unsigned int\000"
 799      206C6F6E 
 799      6720756E 
 799      7369676E 
 799      65642069 
 800              	.LASF22:
 801 00ab 433A5C55 		.ascii	"C:\\Users\\chuck.erhardt\\Documents\\GitHub\\PSoC-W"
 801      73657273 
 801      5C636875 
 801      636B2E65 
 801      72686172 
 802 00d9 35313030 		.ascii	"5100-Driver\\PSoCPioneer+ArduinoShield_SPIM_Example"
 802      2D447269 
 802      7665725C 
 802      50536F43 
 802      50696F6E 
 803 010b 2E637964 		.ascii	".cydsn\000"
 803      736E00
 804              	.LASF1:
 805 0112 756E7369 		.ascii	"unsigned char\000"
 805      676E6564 
 805      20636861 
 805      7200
 806              	.LASF13:
 807 0120 63686172 		.ascii	"char\000"
 807      00
ARM GAS  C:\Users\CHUCK~1.ERH\AppData\Local\Temp\cclUSz1d.s 			page 18


 808              	.LASF4:
 809 0125 6C6F6E67 		.ascii	"long int\000"
 809      20696E74 
 809      00
 810              	.LASF2:
 811 012e 73686F72 		.ascii	"short int\000"
 811      7420696E 
 811      7400
 812              	.LASF19:
 813 0138 72616E64 		.ascii	"rand\000"
 813      00
 814              	.LASF12:
 815 013d 646F7562 		.ascii	"double\000"
 815      6C6500
 816              	.LASF24:
 817 0144 72616E64 		.ascii	"randomData\000"
 817      6F6D4461 
 817      746100
 818              	.LASF3:
 819 014f 73686F72 		.ascii	"short unsigned int\000"
 819      7420756E 
 819      7369676E 
 819      65642069 
 819      6E7400
 820              	.LASF0:
 821 0162 7369676E 		.ascii	"signed char\000"
 821      65642063 
 821      68617200 
 822              	.LASF11:
 823 016e 666C6F61 		.ascii	"float\000"
 823      7400
 824              	.LASF21:
 825 0174 2E5C6D61 		.ascii	".\\main.c\000"
 825      696E2E63 
 825      00
 826              	.LASF10:
 827 017d 75696E74 		.ascii	"uint16\000"
 827      313600
 828              	.LASF15:
 829 0184 62756666 		.ascii	"buffer\000"
 829      657200
 830              	.LASF14:
 831 018b 73697A65 		.ascii	"sizetype\000"
 831      74797065 
 831      00
 832              		.ident	"GCC: (GNU Tools for ARM Embedded Processors) 4.7.3 20130312 (release) [ARM/embedded-4_7-br
