ARM GAS  C:\Users\CHUCK~1.ERH\AppData\Local\Temp\cc9BciHA.s 			page 1


   1              		.cpu cortex-m0
   2              		.fpu softvfp
   3              		.eabi_attribute 20, 1
   4              		.eabi_attribute 21, 1
   5              		.eabi_attribute 23, 3
   6              		.eabi_attribute 24, 1
   7              		.eabi_attribute 25, 1
   8              		.eabi_attribute 26, 1
   9              		.eabi_attribute 30, 6
  10              		.eabi_attribute 34, 0
  11              		.eabi_attribute 18, 4
  12              		.code	16
  13              		.file	"SPI0_PM.c"
  14              		.text
  15              	.Ltext0:
  16              		.cfi_sections	.debug_frame
  17              		.data
  18              		.align	2
  19              		.type	SPI0_backup, %object
  20              		.size	SPI0_backup, 2
  21              	SPI0_backup:
  22 0000 00       		.byte	0
  23 0001 0F       		.byte	15
  24 0002 0000     		.section	.text.SPI0_SaveConfig,"ax",%progbits
  25              		.align	2
  26              		.global	SPI0_SaveConfig
  27              		.code	16
  28              		.thumb_func
  29              		.type	SPI0_SaveConfig, %function
  30              	SPI0_SaveConfig:
  31              	.LFB0:
  32              		.file 1 ".\\Generated_Source\\PSoC4\\SPI0_PM.c"
   1:.\Generated_Source\PSoC4/SPI0_PM.c **** /*******************************************************************************
   2:.\Generated_Source\PSoC4/SPI0_PM.c **** * File Name: SPI0_PM.c
   3:.\Generated_Source\PSoC4/SPI0_PM.c **** * Version 2.40
   4:.\Generated_Source\PSoC4/SPI0_PM.c **** *
   5:.\Generated_Source\PSoC4/SPI0_PM.c **** * Description:
   6:.\Generated_Source\PSoC4/SPI0_PM.c **** *  This file contains the setup, control and status commands to support
   7:.\Generated_Source\PSoC4/SPI0_PM.c **** *  component operations in low power mode.
   8:.\Generated_Source\PSoC4/SPI0_PM.c **** *
   9:.\Generated_Source\PSoC4/SPI0_PM.c **** * Note:
  10:.\Generated_Source\PSoC4/SPI0_PM.c **** *
  11:.\Generated_Source\PSoC4/SPI0_PM.c **** ********************************************************************************
  12:.\Generated_Source\PSoC4/SPI0_PM.c **** * Copyright 2008-2012, Cypress Semiconductor Corporation.  All rights reserved.
  13:.\Generated_Source\PSoC4/SPI0_PM.c **** * You may use this file only in accordance with the license, terms, conditions,
  14:.\Generated_Source\PSoC4/SPI0_PM.c **** * disclaimers, and limitations in the end user license agreement accompanying
  15:.\Generated_Source\PSoC4/SPI0_PM.c **** * the software package with which this file was provided.
  16:.\Generated_Source\PSoC4/SPI0_PM.c **** *******************************************************************************/
  17:.\Generated_Source\PSoC4/SPI0_PM.c **** 
  18:.\Generated_Source\PSoC4/SPI0_PM.c **** #include "SPI0_PVT.h"
  19:.\Generated_Source\PSoC4/SPI0_PM.c **** 
  20:.\Generated_Source\PSoC4/SPI0_PM.c **** static SPI0_BACKUP_STRUCT SPI0_backup =
  21:.\Generated_Source\PSoC4/SPI0_PM.c **** {
  22:.\Generated_Source\PSoC4/SPI0_PM.c ****     SPI0_DISABLED,
  23:.\Generated_Source\PSoC4/SPI0_PM.c ****     SPI0_BITCTR_INIT,
  24:.\Generated_Source\PSoC4/SPI0_PM.c ****     #if(CY_UDB_V0)
  25:.\Generated_Source\PSoC4/SPI0_PM.c ****         SPI0_TX_INIT_INTERRUPTS_MASK,
ARM GAS  C:\Users\CHUCK~1.ERH\AppData\Local\Temp\cc9BciHA.s 			page 2


  26:.\Generated_Source\PSoC4/SPI0_PM.c ****         SPI0_RX_INIT_INTERRUPTS_MASK
  27:.\Generated_Source\PSoC4/SPI0_PM.c ****     #endif /* CY_UDB_V0 */
  28:.\Generated_Source\PSoC4/SPI0_PM.c **** };
  29:.\Generated_Source\PSoC4/SPI0_PM.c **** 
  30:.\Generated_Source\PSoC4/SPI0_PM.c **** 
  31:.\Generated_Source\PSoC4/SPI0_PM.c **** /*******************************************************************************
  32:.\Generated_Source\PSoC4/SPI0_PM.c **** * Function Name: SPI0_SaveConfig
  33:.\Generated_Source\PSoC4/SPI0_PM.c **** ********************************************************************************
  34:.\Generated_Source\PSoC4/SPI0_PM.c **** *
  35:.\Generated_Source\PSoC4/SPI0_PM.c **** * Summary:
  36:.\Generated_Source\PSoC4/SPI0_PM.c **** *  Saves SPIM configuration.
  37:.\Generated_Source\PSoC4/SPI0_PM.c **** *
  38:.\Generated_Source\PSoC4/SPI0_PM.c **** * Parameters:
  39:.\Generated_Source\PSoC4/SPI0_PM.c **** *  None.
  40:.\Generated_Source\PSoC4/SPI0_PM.c **** *
  41:.\Generated_Source\PSoC4/SPI0_PM.c **** * Return:
  42:.\Generated_Source\PSoC4/SPI0_PM.c **** *  None.
  43:.\Generated_Source\PSoC4/SPI0_PM.c **** *
  44:.\Generated_Source\PSoC4/SPI0_PM.c **** * Global Variables:
  45:.\Generated_Source\PSoC4/SPI0_PM.c **** *  SPI0_backup - modified when non-retention registers are saved.
  46:.\Generated_Source\PSoC4/SPI0_PM.c **** *
  47:.\Generated_Source\PSoC4/SPI0_PM.c **** * Reentrant:
  48:.\Generated_Source\PSoC4/SPI0_PM.c **** *  No.
  49:.\Generated_Source\PSoC4/SPI0_PM.c **** *
  50:.\Generated_Source\PSoC4/SPI0_PM.c **** *******************************************************************************/
  51:.\Generated_Source\PSoC4/SPI0_PM.c **** void SPI0_SaveConfig(void) 
  52:.\Generated_Source\PSoC4/SPI0_PM.c **** {
  33              		.loc 1 52 0
  34              		.cfi_startproc
  35 0000 80B5     		push	{r7, lr}
  36              	.LCFI0:
  37              		.cfi_def_cfa_offset 8
  38              		.cfi_offset 7, -8
  39              		.cfi_offset 14, -4
  40 0002 00AF     		add	r7, sp, #0
  41              	.LCFI1:
  42              		.cfi_def_cfa_register 7
  53:.\Generated_Source\PSoC4/SPI0_PM.c ****     /* Store Status Mask registers */
  54:.\Generated_Source\PSoC4/SPI0_PM.c ****     #if(CY_UDB_V0)
  55:.\Generated_Source\PSoC4/SPI0_PM.c ****        SPI0_backup.cntrPeriod      = SPI0_COUNTER_PERIOD_REG;
  56:.\Generated_Source\PSoC4/SPI0_PM.c ****        SPI0_backup.saveSrTxIntMask = SPI0_TX_STATUS_MASK_REG;
  57:.\Generated_Source\PSoC4/SPI0_PM.c ****        SPI0_backup.saveSrRxIntMask = SPI0_RX_STATUS_MASK_REG;
  58:.\Generated_Source\PSoC4/SPI0_PM.c ****     #endif /* (CY_UDB_V0) */
  59:.\Generated_Source\PSoC4/SPI0_PM.c **** }
  43              		.loc 1 59 0
  44 0004 BD46     		mov	sp, r7
  45              		@ sp needed for prologue
  46 0006 80BD     		pop	{r7, pc}
  47              		.cfi_endproc
  48              	.LFE0:
  49              		.size	SPI0_SaveConfig, .-SPI0_SaveConfig
  50              		.section	.text.SPI0_RestoreConfig,"ax",%progbits
  51              		.align	2
  52              		.global	SPI0_RestoreConfig
  53              		.code	16
  54              		.thumb_func
  55              		.type	SPI0_RestoreConfig, %function
ARM GAS  C:\Users\CHUCK~1.ERH\AppData\Local\Temp\cc9BciHA.s 			page 3


  56              	SPI0_RestoreConfig:
  57              	.LFB1:
  60:.\Generated_Source\PSoC4/SPI0_PM.c **** 
  61:.\Generated_Source\PSoC4/SPI0_PM.c **** 
  62:.\Generated_Source\PSoC4/SPI0_PM.c **** /*******************************************************************************
  63:.\Generated_Source\PSoC4/SPI0_PM.c **** * Function Name: SPI0_RestoreConfig
  64:.\Generated_Source\PSoC4/SPI0_PM.c **** ********************************************************************************
  65:.\Generated_Source\PSoC4/SPI0_PM.c **** *
  66:.\Generated_Source\PSoC4/SPI0_PM.c **** * Summary:
  67:.\Generated_Source\PSoC4/SPI0_PM.c **** *  Restores SPIM configuration.
  68:.\Generated_Source\PSoC4/SPI0_PM.c **** *
  69:.\Generated_Source\PSoC4/SPI0_PM.c **** * Parameters:
  70:.\Generated_Source\PSoC4/SPI0_PM.c **** *  None.
  71:.\Generated_Source\PSoC4/SPI0_PM.c **** *
  72:.\Generated_Source\PSoC4/SPI0_PM.c **** * Return:
  73:.\Generated_Source\PSoC4/SPI0_PM.c **** *  None.
  74:.\Generated_Source\PSoC4/SPI0_PM.c **** *
  75:.\Generated_Source\PSoC4/SPI0_PM.c **** * Global Variables:
  76:.\Generated_Source\PSoC4/SPI0_PM.c **** *  SPI0_backup - used when non-retention registers are restored.
  77:.\Generated_Source\PSoC4/SPI0_PM.c **** *
  78:.\Generated_Source\PSoC4/SPI0_PM.c **** * Side Effects:
  79:.\Generated_Source\PSoC4/SPI0_PM.c **** *  If this API is called without first calling SaveConfig then in the following
  80:.\Generated_Source\PSoC4/SPI0_PM.c **** *  registers will be default values from Customizer:
  81:.\Generated_Source\PSoC4/SPI0_PM.c **** *  SPI0_STATUS_MASK_REG and SPI0_COUNTER_PERIOD_REG.
  82:.\Generated_Source\PSoC4/SPI0_PM.c **** *
  83:.\Generated_Source\PSoC4/SPI0_PM.c **** *******************************************************************************/
  84:.\Generated_Source\PSoC4/SPI0_PM.c **** void SPI0_RestoreConfig(void) 
  85:.\Generated_Source\PSoC4/SPI0_PM.c **** {
  58              		.loc 1 85 0
  59              		.cfi_startproc
  60 0000 80B5     		push	{r7, lr}
  61              	.LCFI2:
  62              		.cfi_def_cfa_offset 8
  63              		.cfi_offset 7, -8
  64              		.cfi_offset 14, -4
  65 0002 00AF     		add	r7, sp, #0
  66              	.LCFI3:
  67              		.cfi_def_cfa_register 7
  86:.\Generated_Source\PSoC4/SPI0_PM.c ****     /* Restore the data, saved by SaveConfig() function */
  87:.\Generated_Source\PSoC4/SPI0_PM.c ****     #if(CY_UDB_V0)
  88:.\Generated_Source\PSoC4/SPI0_PM.c ****         SPI0_COUNTER_PERIOD_REG = SPI0_backup.cntrPeriod;
  89:.\Generated_Source\PSoC4/SPI0_PM.c ****         SPI0_TX_STATUS_MASK_REG = ((uint8) SPI0_backup.saveSrTxIntMask);
  90:.\Generated_Source\PSoC4/SPI0_PM.c ****         SPI0_RX_STATUS_MASK_REG = ((uint8) SPI0_backup.saveSrRxIntMask);
  91:.\Generated_Source\PSoC4/SPI0_PM.c ****     #endif /* (CY_UDB_V0) */
  92:.\Generated_Source\PSoC4/SPI0_PM.c **** }
  68              		.loc 1 92 0
  69 0004 BD46     		mov	sp, r7
  70              		@ sp needed for prologue
  71 0006 80BD     		pop	{r7, pc}
  72              		.cfi_endproc
  73              	.LFE1:
  74              		.size	SPI0_RestoreConfig, .-SPI0_RestoreConfig
  75              		.section	.text.SPI0_Sleep,"ax",%progbits
  76              		.align	2
  77              		.global	SPI0_Sleep
  78              		.code	16
  79              		.thumb_func
ARM GAS  C:\Users\CHUCK~1.ERH\AppData\Local\Temp\cc9BciHA.s 			page 4


  80              		.type	SPI0_Sleep, %function
  81              	SPI0_Sleep:
  82              	.LFB2:
  93:.\Generated_Source\PSoC4/SPI0_PM.c **** 
  94:.\Generated_Source\PSoC4/SPI0_PM.c **** 
  95:.\Generated_Source\PSoC4/SPI0_PM.c **** /*******************************************************************************
  96:.\Generated_Source\PSoC4/SPI0_PM.c **** * Function Name: SPI0_Sleep
  97:.\Generated_Source\PSoC4/SPI0_PM.c **** ********************************************************************************
  98:.\Generated_Source\PSoC4/SPI0_PM.c **** *
  99:.\Generated_Source\PSoC4/SPI0_PM.c **** * Summary:
 100:.\Generated_Source\PSoC4/SPI0_PM.c **** *  Prepare SPIM Component goes to sleep.
 101:.\Generated_Source\PSoC4/SPI0_PM.c **** *
 102:.\Generated_Source\PSoC4/SPI0_PM.c **** * Parameters:
 103:.\Generated_Source\PSoC4/SPI0_PM.c **** *  None.
 104:.\Generated_Source\PSoC4/SPI0_PM.c **** *
 105:.\Generated_Source\PSoC4/SPI0_PM.c **** * Return:
 106:.\Generated_Source\PSoC4/SPI0_PM.c **** *  None.
 107:.\Generated_Source\PSoC4/SPI0_PM.c **** *
 108:.\Generated_Source\PSoC4/SPI0_PM.c **** * Global Variables:
 109:.\Generated_Source\PSoC4/SPI0_PM.c **** *  SPI0_backup - modified when non-retention registers are saved.
 110:.\Generated_Source\PSoC4/SPI0_PM.c **** *
 111:.\Generated_Source\PSoC4/SPI0_PM.c **** * Reentrant:
 112:.\Generated_Source\PSoC4/SPI0_PM.c **** *  No.
 113:.\Generated_Source\PSoC4/SPI0_PM.c **** *
 114:.\Generated_Source\PSoC4/SPI0_PM.c **** *******************************************************************************/
 115:.\Generated_Source\PSoC4/SPI0_PM.c **** void SPI0_Sleep(void) 
 116:.\Generated_Source\PSoC4/SPI0_PM.c **** {
  83              		.loc 1 116 0
  84              		.cfi_startproc
  85 0000 80B5     		push	{r7, lr}
  86              	.LCFI4:
  87              		.cfi_def_cfa_offset 8
  88              		.cfi_offset 7, -8
  89              		.cfi_offset 14, -4
  90 0002 00AF     		add	r7, sp, #0
  91              	.LCFI5:
  92              		.cfi_def_cfa_register 7
 117:.\Generated_Source\PSoC4/SPI0_PM.c ****     /* Save components enable state */
 118:.\Generated_Source\PSoC4/SPI0_PM.c ****     SPI0_backup.enableState = ((uint8) SPI0_IS_ENABLED);
  93              		.loc 1 118 0
  94 0004 084B     		ldr	r3, .L4
  95 0006 1B78     		ldrb	r3, [r3]
  96 0008 DBB2     		uxtb	r3, r3
  97 000a 1A1C     		mov	r2, r3
  98 000c 1023     		mov	r3, #16
  99 000e 1340     		and	r3, r2
 100 0010 5A1E     		sub	r2, r3, #1
 101 0012 9341     		sbc	r3, r3, r2
 102 0014 DBB2     		uxtb	r3, r3
 103 0016 1A1C     		mov	r2, r3
 104 0018 044B     		ldr	r3, .L4+4
 105 001a 1A70     		strb	r2, [r3]
 119:.\Generated_Source\PSoC4/SPI0_PM.c **** 
 120:.\Generated_Source\PSoC4/SPI0_PM.c ****     SPI0_Stop();
 106              		.loc 1 120 0
 107 001c FFF7FEFF 		bl	SPI0_Stop
 121:.\Generated_Source\PSoC4/SPI0_PM.c ****     SPI0_SaveConfig();
ARM GAS  C:\Users\CHUCK~1.ERH\AppData\Local\Temp\cc9BciHA.s 			page 5


 108              		.loc 1 121 0
 109 0020 FFF7FEFF 		bl	SPI0_SaveConfig
 122:.\Generated_Source\PSoC4/SPI0_PM.c **** }
 110              		.loc 1 122 0
 111 0024 BD46     		mov	sp, r7
 112              		@ sp needed for prologue
 113 0026 80BD     		pop	{r7, pc}
 114              	.L5:
 115              		.align	2
 116              	.L4:
 117 0028 93000F40 		.word	1074725011
 118 002c 00000000 		.word	SPI0_backup
 119              		.cfi_endproc
 120              	.LFE2:
 121              		.size	SPI0_Sleep, .-SPI0_Sleep
 122              		.section	.text.SPI0_Wakeup,"ax",%progbits
 123              		.align	2
 124              		.global	SPI0_Wakeup
 125              		.code	16
 126              		.thumb_func
 127              		.type	SPI0_Wakeup, %function
 128              	SPI0_Wakeup:
 129              	.LFB3:
 123:.\Generated_Source\PSoC4/SPI0_PM.c **** 
 124:.\Generated_Source\PSoC4/SPI0_PM.c **** 
 125:.\Generated_Source\PSoC4/SPI0_PM.c **** /*******************************************************************************
 126:.\Generated_Source\PSoC4/SPI0_PM.c **** * Function Name: SPI0_Wakeup
 127:.\Generated_Source\PSoC4/SPI0_PM.c **** ********************************************************************************
 128:.\Generated_Source\PSoC4/SPI0_PM.c **** *
 129:.\Generated_Source\PSoC4/SPI0_PM.c **** * Summary:
 130:.\Generated_Source\PSoC4/SPI0_PM.c **** *  Prepare SPIM Component to wake up.
 131:.\Generated_Source\PSoC4/SPI0_PM.c **** *
 132:.\Generated_Source\PSoC4/SPI0_PM.c **** * Parameters:
 133:.\Generated_Source\PSoC4/SPI0_PM.c **** *  None.
 134:.\Generated_Source\PSoC4/SPI0_PM.c **** *
 135:.\Generated_Source\PSoC4/SPI0_PM.c **** * Return:
 136:.\Generated_Source\PSoC4/SPI0_PM.c **** *  None.
 137:.\Generated_Source\PSoC4/SPI0_PM.c **** *
 138:.\Generated_Source\PSoC4/SPI0_PM.c **** * Global Variables:
 139:.\Generated_Source\PSoC4/SPI0_PM.c **** *  SPI0_backup - used when non-retention registers are restored.
 140:.\Generated_Source\PSoC4/SPI0_PM.c **** *  SPI0_txBufferWrite - modified every function call - resets to
 141:.\Generated_Source\PSoC4/SPI0_PM.c **** *  zero.
 142:.\Generated_Source\PSoC4/SPI0_PM.c **** *  SPI0_txBufferRead - modified every function call - resets to
 143:.\Generated_Source\PSoC4/SPI0_PM.c **** *  zero.
 144:.\Generated_Source\PSoC4/SPI0_PM.c **** *  SPI0_rxBufferWrite - modified every function call - resets to
 145:.\Generated_Source\PSoC4/SPI0_PM.c **** *  zero.
 146:.\Generated_Source\PSoC4/SPI0_PM.c **** *  SPI0_rxBufferRead - modified every function call - resets to
 147:.\Generated_Source\PSoC4/SPI0_PM.c **** *  zero.
 148:.\Generated_Source\PSoC4/SPI0_PM.c **** *
 149:.\Generated_Source\PSoC4/SPI0_PM.c **** * Reentrant:
 150:.\Generated_Source\PSoC4/SPI0_PM.c **** *  No.
 151:.\Generated_Source\PSoC4/SPI0_PM.c **** *
 152:.\Generated_Source\PSoC4/SPI0_PM.c **** *******************************************************************************/
 153:.\Generated_Source\PSoC4/SPI0_PM.c **** void SPI0_Wakeup(void) 
 154:.\Generated_Source\PSoC4/SPI0_PM.c **** {
 130              		.loc 1 154 0
 131              		.cfi_startproc
ARM GAS  C:\Users\CHUCK~1.ERH\AppData\Local\Temp\cc9BciHA.s 			page 6


 132 0000 80B5     		push	{r7, lr}
 133              	.LCFI6:
 134              		.cfi_def_cfa_offset 8
 135              		.cfi_offset 7, -8
 136              		.cfi_offset 14, -4
 137 0002 00AF     		add	r7, sp, #0
 138              	.LCFI7:
 139              		.cfi_def_cfa_register 7
 155:.\Generated_Source\PSoC4/SPI0_PM.c ****     SPI0_RestoreConfig();
 140              		.loc 1 155 0
 141 0004 FFF7FEFF 		bl	SPI0_RestoreConfig
 156:.\Generated_Source\PSoC4/SPI0_PM.c **** 
 157:.\Generated_Source\PSoC4/SPI0_PM.c ****     #if(SPI0_RX_SOFTWARE_BUF_ENABLED)
 158:.\Generated_Source\PSoC4/SPI0_PM.c ****         SPI0_rxBufferFull  = 0u;
 159:.\Generated_Source\PSoC4/SPI0_PM.c ****         SPI0_rxBufferRead  = 0u;
 160:.\Generated_Source\PSoC4/SPI0_PM.c ****         SPI0_rxBufferWrite = 0u;
 161:.\Generated_Source\PSoC4/SPI0_PM.c ****     #endif /* (SPI0_RX_SOFTWARE_BUF_ENABLED) */
 162:.\Generated_Source\PSoC4/SPI0_PM.c **** 
 163:.\Generated_Source\PSoC4/SPI0_PM.c ****     #if(SPI0_TX_SOFTWARE_BUF_ENABLED)
 164:.\Generated_Source\PSoC4/SPI0_PM.c ****         SPI0_txBufferFull  = 0u;
 165:.\Generated_Source\PSoC4/SPI0_PM.c ****         SPI0_txBufferRead  = 0u;
 166:.\Generated_Source\PSoC4/SPI0_PM.c ****         SPI0_txBufferWrite = 0u;
 167:.\Generated_Source\PSoC4/SPI0_PM.c ****     #endif /* (SPI0_TX_SOFTWARE_BUF_ENABLED) */
 168:.\Generated_Source\PSoC4/SPI0_PM.c **** 
 169:.\Generated_Source\PSoC4/SPI0_PM.c ****     /* Clear any data from the RX and TX FIFO */
 170:.\Generated_Source\PSoC4/SPI0_PM.c ****     SPI0_ClearFIFO();
 142              		.loc 1 170 0
 143 0008 FFF7FEFF 		bl	SPI0_ClearFIFO
 171:.\Generated_Source\PSoC4/SPI0_PM.c **** 
 172:.\Generated_Source\PSoC4/SPI0_PM.c ****     /* Restore components block enable state */
 173:.\Generated_Source\PSoC4/SPI0_PM.c ****     if(0u != SPI0_backup.enableState)
 144              		.loc 1 173 0
 145 000c 034B     		ldr	r3, .L8
 146 000e 1B78     		ldrb	r3, [r3]
 147 0010 002B     		cmp	r3, #0
 148 0012 01D0     		beq	.L6
 174:.\Generated_Source\PSoC4/SPI0_PM.c ****     {
 175:.\Generated_Source\PSoC4/SPI0_PM.c ****         SPI0_Enable();
 149              		.loc 1 175 0
 150 0014 FFF7FEFF 		bl	SPI0_Enable
 151              	.L6:
 176:.\Generated_Source\PSoC4/SPI0_PM.c ****     }
 177:.\Generated_Source\PSoC4/SPI0_PM.c **** }
 152              		.loc 1 177 0
 153 0018 BD46     		mov	sp, r7
 154              		@ sp needed for prologue
 155 001a 80BD     		pop	{r7, pc}
 156              	.L9:
 157              		.align	2
 158              	.L8:
 159 001c 00000000 		.word	SPI0_backup
 160              		.cfi_endproc
 161              	.LFE3:
 162              		.size	SPI0_Wakeup, .-SPI0_Wakeup
 163              		.text
 164              	.Letext0:
 165              		.file 2 ".\\Generated_Source\\PSoC4\\cytypes.h"
ARM GAS  C:\Users\CHUCK~1.ERH\AppData\Local\Temp\cc9BciHA.s 			page 7


 166              		.file 3 ".\\Generated_Source\\PSoC4\\SPI0.h"