ARM GAS  C:\Users\CHUCK~1.ERH\AppData\Local\Temp\cccvBnEM.s 			page 1


   1              		.cpu cortex-m0
   2              		.fpu softvfp
   3              		.eabi_attribute 20, 1
   4              		.eabi_attribute 21, 1
   5              		.eabi_attribute 23, 3
   6              		.eabi_attribute 24, 1
   7              		.eabi_attribute 25, 1
   8              		.eabi_attribute 26, 1
   9              		.eabi_attribute 30, 6
  10              		.eabi_attribute 34, 0
  11              		.eabi_attribute 18, 4
  12              		.code	16
  13              		.file	"SPI0_INT.c"
  14              		.text
  15              	.Ltext0:
  16              		.cfi_sections	.debug_frame
  17              		.section	.text.SPI0_TX_ISR,"ax",%progbits
  18              		.align	2
  19              		.global	SPI0_TX_ISR
  20              		.code	16
  21              		.thumb_func
  22              		.type	SPI0_TX_ISR, %function
  23              	SPI0_TX_ISR:
  24              	.LFB0:
  25              		.file 1 ".\\Generated_Source\\PSoC4\\SPI0_INT.c"
   1:.\Generated_Source\PSoC4/SPI0_INT.c **** /*******************************************************************************
   2:.\Generated_Source\PSoC4/SPI0_INT.c **** * File Name: SPI0_INT.c
   3:.\Generated_Source\PSoC4/SPI0_INT.c **** * Version 2.40
   4:.\Generated_Source\PSoC4/SPI0_INT.c **** *
   5:.\Generated_Source\PSoC4/SPI0_INT.c **** * Description:
   6:.\Generated_Source\PSoC4/SPI0_INT.c **** *  This file provides all Interrupt Service Routine (ISR) for the SPI Master
   7:.\Generated_Source\PSoC4/SPI0_INT.c **** *  component.
   8:.\Generated_Source\PSoC4/SPI0_INT.c **** *
   9:.\Generated_Source\PSoC4/SPI0_INT.c **** * Note:
  10:.\Generated_Source\PSoC4/SPI0_INT.c **** *  None.
  11:.\Generated_Source\PSoC4/SPI0_INT.c **** *
  12:.\Generated_Source\PSoC4/SPI0_INT.c **** ********************************************************************************
  13:.\Generated_Source\PSoC4/SPI0_INT.c **** * Copyright 2008-2012, Cypress Semiconductor Corporation.  All rights reserved.
  14:.\Generated_Source\PSoC4/SPI0_INT.c **** * You may use this file only in accordance with the license, terms, conditions,
  15:.\Generated_Source\PSoC4/SPI0_INT.c **** * disclaimers, and limitations in the end user license agreement accompanying
  16:.\Generated_Source\PSoC4/SPI0_INT.c **** * the software package with which this file was provided.
  17:.\Generated_Source\PSoC4/SPI0_INT.c **** *******************************************************************************/
  18:.\Generated_Source\PSoC4/SPI0_INT.c **** 
  19:.\Generated_Source\PSoC4/SPI0_INT.c **** #include "SPI0_PVT.h"
  20:.\Generated_Source\PSoC4/SPI0_INT.c **** 
  21:.\Generated_Source\PSoC4/SPI0_INT.c **** /* User code required at start of ISR */
  22:.\Generated_Source\PSoC4/SPI0_INT.c **** /* `#START SPI0_ISR_START_DEF` */
  23:.\Generated_Source\PSoC4/SPI0_INT.c **** 
  24:.\Generated_Source\PSoC4/SPI0_INT.c **** /* `#END` */
  25:.\Generated_Source\PSoC4/SPI0_INT.c **** 
  26:.\Generated_Source\PSoC4/SPI0_INT.c **** 
  27:.\Generated_Source\PSoC4/SPI0_INT.c **** /*******************************************************************************
  28:.\Generated_Source\PSoC4/SPI0_INT.c **** * Function Name: SPI0_TX_ISR
  29:.\Generated_Source\PSoC4/SPI0_INT.c **** ********************************************************************************
  30:.\Generated_Source\PSoC4/SPI0_INT.c **** *
  31:.\Generated_Source\PSoC4/SPI0_INT.c **** * Summary:
  32:.\Generated_Source\PSoC4/SPI0_INT.c **** *  Interrupt Service Routine for TX portion of the SPI Master.
ARM GAS  C:\Users\CHUCK~1.ERH\AppData\Local\Temp\cccvBnEM.s 			page 2


  33:.\Generated_Source\PSoC4/SPI0_INT.c **** *
  34:.\Generated_Source\PSoC4/SPI0_INT.c **** * Parameters:
  35:.\Generated_Source\PSoC4/SPI0_INT.c **** *  None.
  36:.\Generated_Source\PSoC4/SPI0_INT.c **** *
  37:.\Generated_Source\PSoC4/SPI0_INT.c **** * Return:
  38:.\Generated_Source\PSoC4/SPI0_INT.c **** *  None.
  39:.\Generated_Source\PSoC4/SPI0_INT.c **** *
  40:.\Generated_Source\PSoC4/SPI0_INT.c **** * Global variables:
  41:.\Generated_Source\PSoC4/SPI0_INT.c **** *  SPI0_txBufferWrite - used for the account of the bytes which
  42:.\Generated_Source\PSoC4/SPI0_INT.c **** *  have been written down in the TX software buffer.
  43:.\Generated_Source\PSoC4/SPI0_INT.c **** *  SPI0_txBufferRead - used for the account of the bytes which
  44:.\Generated_Source\PSoC4/SPI0_INT.c **** *  have been read from the TX software buffer, modified when exist data to
  45:.\Generated_Source\PSoC4/SPI0_INT.c **** *  sending and FIFO Not Full.
  46:.\Generated_Source\PSoC4/SPI0_INT.c **** *  SPI0_txBuffer[SPI0_TX_BUFFER_SIZE] - used to store
  47:.\Generated_Source\PSoC4/SPI0_INT.c **** *  data to sending.
  48:.\Generated_Source\PSoC4/SPI0_INT.c **** *  All described above Global variables are used when Software Buffer is used.
  49:.\Generated_Source\PSoC4/SPI0_INT.c **** *
  50:.\Generated_Source\PSoC4/SPI0_INT.c **** *******************************************************************************/
  51:.\Generated_Source\PSoC4/SPI0_INT.c **** CY_ISR(SPI0_TX_ISR)
  52:.\Generated_Source\PSoC4/SPI0_INT.c **** {
  26              		.loc 1 52 0
  27              		.cfi_startproc
  28 0000 80B5     		push	{r7, lr}
  29              	.LCFI0:
  30              		.cfi_def_cfa_offset 8
  31              		.cfi_offset 7, -8
  32              		.cfi_offset 14, -4
  33 0002 00AF     		add	r7, sp, #0
  34              	.LCFI1:
  35              		.cfi_def_cfa_register 7
  53:.\Generated_Source\PSoC4/SPI0_INT.c ****     #if(SPI0_TX_SOFTWARE_BUF_ENABLED)
  54:.\Generated_Source\PSoC4/SPI0_INT.c ****         uint8 tmpStatus;
  55:.\Generated_Source\PSoC4/SPI0_INT.c ****     #endif /* (SPI0_TX_SOFTWARE_BUF_ENABLED) */
  56:.\Generated_Source\PSoC4/SPI0_INT.c **** 
  57:.\Generated_Source\PSoC4/SPI0_INT.c ****     /* User code required at start of ISR */
  58:.\Generated_Source\PSoC4/SPI0_INT.c ****     /* `#START SPI0_TX_ISR_START` */
  59:.\Generated_Source\PSoC4/SPI0_INT.c **** 
  60:.\Generated_Source\PSoC4/SPI0_INT.c ****     /* `#END` */
  61:.\Generated_Source\PSoC4/SPI0_INT.c **** 
  62:.\Generated_Source\PSoC4/SPI0_INT.c ****     #if(SPI0_TX_SOFTWARE_BUF_ENABLED)
  63:.\Generated_Source\PSoC4/SPI0_INT.c ****         /* Check if TX data buffer is not empty and there is space in TX FIFO */
  64:.\Generated_Source\PSoC4/SPI0_INT.c ****         while(SPI0_txBufferRead != SPI0_txBufferWrite)
  65:.\Generated_Source\PSoC4/SPI0_INT.c ****         {
  66:.\Generated_Source\PSoC4/SPI0_INT.c ****             tmpStatus = SPI0_GET_STATUS_TX(SPI0_swStatusTx);
  67:.\Generated_Source\PSoC4/SPI0_INT.c ****             SPI0_swStatusTx = tmpStatus;
  68:.\Generated_Source\PSoC4/SPI0_INT.c **** 
  69:.\Generated_Source\PSoC4/SPI0_INT.c ****             if(0u != (SPI0_swStatusTx & SPI0_STS_TX_FIFO_NOT_FULL))
  70:.\Generated_Source\PSoC4/SPI0_INT.c ****             {
  71:.\Generated_Source\PSoC4/SPI0_INT.c ****                 if(0u == SPI0_txBufferFull)
  72:.\Generated_Source\PSoC4/SPI0_INT.c ****                 {
  73:.\Generated_Source\PSoC4/SPI0_INT.c ****                    SPI0_txBufferRead++;
  74:.\Generated_Source\PSoC4/SPI0_INT.c **** 
  75:.\Generated_Source\PSoC4/SPI0_INT.c ****                     if(SPI0_txBufferRead >= SPI0_TX_BUFFER_SIZE)
  76:.\Generated_Source\PSoC4/SPI0_INT.c ****                     {
  77:.\Generated_Source\PSoC4/SPI0_INT.c ****                         SPI0_txBufferRead = 0u;
  78:.\Generated_Source\PSoC4/SPI0_INT.c ****                     }
  79:.\Generated_Source\PSoC4/SPI0_INT.c ****                 }
ARM GAS  C:\Users\CHUCK~1.ERH\AppData\Local\Temp\cccvBnEM.s 			page 3


  80:.\Generated_Source\PSoC4/SPI0_INT.c ****                 else
  81:.\Generated_Source\PSoC4/SPI0_INT.c ****                 {
  82:.\Generated_Source\PSoC4/SPI0_INT.c ****                     SPI0_txBufferFull = 0u;
  83:.\Generated_Source\PSoC4/SPI0_INT.c ****                 }
  84:.\Generated_Source\PSoC4/SPI0_INT.c **** 
  85:.\Generated_Source\PSoC4/SPI0_INT.c ****                 /* Move data from the Buffer to the FIFO */
  86:.\Generated_Source\PSoC4/SPI0_INT.c ****                 CY_SET_REG8(SPI0_TXDATA_PTR,
  87:.\Generated_Source\PSoC4/SPI0_INT.c ****                     SPI0_txBuffer[SPI0_txBufferRead]);
  88:.\Generated_Source\PSoC4/SPI0_INT.c ****             }
  89:.\Generated_Source\PSoC4/SPI0_INT.c ****             else
  90:.\Generated_Source\PSoC4/SPI0_INT.c ****             {
  91:.\Generated_Source\PSoC4/SPI0_INT.c ****                 break;
  92:.\Generated_Source\PSoC4/SPI0_INT.c ****             }
  93:.\Generated_Source\PSoC4/SPI0_INT.c ****         }
  94:.\Generated_Source\PSoC4/SPI0_INT.c **** 
  95:.\Generated_Source\PSoC4/SPI0_INT.c ****         if(SPI0_txBufferRead == SPI0_txBufferWrite)
  96:.\Generated_Source\PSoC4/SPI0_INT.c ****         {
  97:.\Generated_Source\PSoC4/SPI0_INT.c ****             /* TX Buffer is EMPTY: disable interrupt on TX NOT FULL */
  98:.\Generated_Source\PSoC4/SPI0_INT.c ****             SPI0_TX_STATUS_MASK_REG &= ((uint8) ~SPI0_STS_TX_FIFO_NOT_FULL);
  99:.\Generated_Source\PSoC4/SPI0_INT.c ****         }
 100:.\Generated_Source\PSoC4/SPI0_INT.c **** 
 101:.\Generated_Source\PSoC4/SPI0_INT.c ****     #endif /* (SPI0_TX_SOFTWARE_BUF_ENABLED) */
 102:.\Generated_Source\PSoC4/SPI0_INT.c **** 
 103:.\Generated_Source\PSoC4/SPI0_INT.c ****     /* User code required at end of ISR (Optional) */
 104:.\Generated_Source\PSoC4/SPI0_INT.c ****     /* `#START SPI0_TX_ISR_END` */
 105:.\Generated_Source\PSoC4/SPI0_INT.c **** 
 106:.\Generated_Source\PSoC4/SPI0_INT.c ****     /* `#END` */
 107:.\Generated_Source\PSoC4/SPI0_INT.c **** }
  36              		.loc 1 107 0
  37 0004 BD46     		mov	sp, r7
  38              		@ sp needed for prologue
  39 0006 80BD     		pop	{r7, pc}
  40              		.cfi_endproc
  41              	.LFE0:
  42              		.size	SPI0_TX_ISR, .-SPI0_TX_ISR
  43              		.section	.text.SPI0_RX_ISR,"ax",%progbits
  44              		.align	2
  45              		.global	SPI0_RX_ISR
  46              		.code	16
  47              		.thumb_func
  48              		.type	SPI0_RX_ISR, %function
  49              	SPI0_RX_ISR:
  50              	.LFB1:
 108:.\Generated_Source\PSoC4/SPI0_INT.c **** 
 109:.\Generated_Source\PSoC4/SPI0_INT.c **** 
 110:.\Generated_Source\PSoC4/SPI0_INT.c **** /*******************************************************************************
 111:.\Generated_Source\PSoC4/SPI0_INT.c **** * Function Name: SPI0_RX_ISR
 112:.\Generated_Source\PSoC4/SPI0_INT.c **** ********************************************************************************
 113:.\Generated_Source\PSoC4/SPI0_INT.c **** *
 114:.\Generated_Source\PSoC4/SPI0_INT.c **** * Summary:
 115:.\Generated_Source\PSoC4/SPI0_INT.c **** *  Interrupt Service Routine for RX portion of the SPI Master.
 116:.\Generated_Source\PSoC4/SPI0_INT.c **** *
 117:.\Generated_Source\PSoC4/SPI0_INT.c **** * Parameters:
 118:.\Generated_Source\PSoC4/SPI0_INT.c **** *  None.
 119:.\Generated_Source\PSoC4/SPI0_INT.c **** *
 120:.\Generated_Source\PSoC4/SPI0_INT.c **** * Return:
 121:.\Generated_Source\PSoC4/SPI0_INT.c **** *  None.
ARM GAS  C:\Users\CHUCK~1.ERH\AppData\Local\Temp\cccvBnEM.s 			page 4


 122:.\Generated_Source\PSoC4/SPI0_INT.c **** *
 123:.\Generated_Source\PSoC4/SPI0_INT.c **** * Global variables:
 124:.\Generated_Source\PSoC4/SPI0_INT.c **** *  SPI0_rxBufferWrite - used for the account of the bytes which
 125:.\Generated_Source\PSoC4/SPI0_INT.c **** *  have been written down in the RX software buffer modified when FIFO contains
 126:.\Generated_Source\PSoC4/SPI0_INT.c **** *  new data.
 127:.\Generated_Source\PSoC4/SPI0_INT.c **** *  SPI0_rxBufferRead - used for the account of the bytes which
 128:.\Generated_Source\PSoC4/SPI0_INT.c **** *  have been read from the RX software buffer, modified when overflow occurred.
 129:.\Generated_Source\PSoC4/SPI0_INT.c **** *  SPI0_rxBuffer[SPI0_RX_BUFFER_SIZE] - used to store
 130:.\Generated_Source\PSoC4/SPI0_INT.c **** *  received data, modified when FIFO contains new data.
 131:.\Generated_Source\PSoC4/SPI0_INT.c **** *  All described above Global variables are used when Software Buffer is used.
 132:.\Generated_Source\PSoC4/SPI0_INT.c **** *
 133:.\Generated_Source\PSoC4/SPI0_INT.c **** *******************************************************************************/
 134:.\Generated_Source\PSoC4/SPI0_INT.c **** CY_ISR(SPI0_RX_ISR)
 135:.\Generated_Source\PSoC4/SPI0_INT.c **** {
  51              		.loc 1 135 0
  52              		.cfi_startproc
  53 0000 80B5     		push	{r7, lr}
  54              	.LCFI2:
  55              		.cfi_def_cfa_offset 8
  56              		.cfi_offset 7, -8
  57              		.cfi_offset 14, -4
  58 0002 00AF     		add	r7, sp, #0
  59              	.LCFI3:
  60              		.cfi_def_cfa_register 7
 136:.\Generated_Source\PSoC4/SPI0_INT.c ****     #if(SPI0_RX_SOFTWARE_BUF_ENABLED)
 137:.\Generated_Source\PSoC4/SPI0_INT.c ****         uint8 tmpStatus;
 138:.\Generated_Source\PSoC4/SPI0_INT.c ****         uint8 rxData;
 139:.\Generated_Source\PSoC4/SPI0_INT.c ****     #endif /* (SPI0_RX_SOFTWARE_BUF_ENABLED) */
 140:.\Generated_Source\PSoC4/SPI0_INT.c **** 
 141:.\Generated_Source\PSoC4/SPI0_INT.c ****     /* User code required at start of ISR */
 142:.\Generated_Source\PSoC4/SPI0_INT.c ****     /* `#START SPI0_RX_ISR_START` */
 143:.\Generated_Source\PSoC4/SPI0_INT.c **** 
 144:.\Generated_Source\PSoC4/SPI0_INT.c ****     /* `#END` */
 145:.\Generated_Source\PSoC4/SPI0_INT.c **** 
 146:.\Generated_Source\PSoC4/SPI0_INT.c ****     #if(SPI0_RX_SOFTWARE_BUF_ENABLED)
 147:.\Generated_Source\PSoC4/SPI0_INT.c **** 
 148:.\Generated_Source\PSoC4/SPI0_INT.c ****         tmpStatus = SPI0_GET_STATUS_RX(SPI0_swStatusRx);
 149:.\Generated_Source\PSoC4/SPI0_INT.c ****         SPI0_swStatusRx = tmpStatus;
 150:.\Generated_Source\PSoC4/SPI0_INT.c **** 
 151:.\Generated_Source\PSoC4/SPI0_INT.c ****         /* Check if RX data FIFO has some data to be moved into the RX Buffer */
 152:.\Generated_Source\PSoC4/SPI0_INT.c ****         while(0u != (SPI0_swStatusRx & SPI0_STS_RX_FIFO_NOT_EMPTY))
 153:.\Generated_Source\PSoC4/SPI0_INT.c ****         {
 154:.\Generated_Source\PSoC4/SPI0_INT.c ****             rxData = CY_GET_REG8(SPI0_RXDATA_PTR);
 155:.\Generated_Source\PSoC4/SPI0_INT.c **** 
 156:.\Generated_Source\PSoC4/SPI0_INT.c ****             /* Set next pointer. */
 157:.\Generated_Source\PSoC4/SPI0_INT.c ****             SPI0_rxBufferWrite++;
 158:.\Generated_Source\PSoC4/SPI0_INT.c ****             if(SPI0_rxBufferWrite >= SPI0_RX_BUFFER_SIZE)
 159:.\Generated_Source\PSoC4/SPI0_INT.c ****             {
 160:.\Generated_Source\PSoC4/SPI0_INT.c ****                 SPI0_rxBufferWrite = 0u;
 161:.\Generated_Source\PSoC4/SPI0_INT.c ****             }
 162:.\Generated_Source\PSoC4/SPI0_INT.c **** 
 163:.\Generated_Source\PSoC4/SPI0_INT.c ****             if(SPI0_rxBufferWrite == SPI0_rxBufferRead)
 164:.\Generated_Source\PSoC4/SPI0_INT.c ****             {
 165:.\Generated_Source\PSoC4/SPI0_INT.c ****                 SPI0_rxBufferRead++;
 166:.\Generated_Source\PSoC4/SPI0_INT.c ****                 if(SPI0_rxBufferRead >= SPI0_RX_BUFFER_SIZE)
 167:.\Generated_Source\PSoC4/SPI0_INT.c ****                 {
 168:.\Generated_Source\PSoC4/SPI0_INT.c ****                     SPI0_rxBufferRead = 0u;
ARM GAS  C:\Users\CHUCK~1.ERH\AppData\Local\Temp\cccvBnEM.s 			page 5


 169:.\Generated_Source\PSoC4/SPI0_INT.c ****                 }
 170:.\Generated_Source\PSoC4/SPI0_INT.c **** 
 171:.\Generated_Source\PSoC4/SPI0_INT.c ****                 SPI0_rxBufferFull = 1u;
 172:.\Generated_Source\PSoC4/SPI0_INT.c ****             }
 173:.\Generated_Source\PSoC4/SPI0_INT.c **** 
 174:.\Generated_Source\PSoC4/SPI0_INT.c ****             /* Move data from the FIFO to the Buffer */
 175:.\Generated_Source\PSoC4/SPI0_INT.c ****             SPI0_rxBuffer[SPI0_rxBufferWrite] = rxData;
 176:.\Generated_Source\PSoC4/SPI0_INT.c **** 
 177:.\Generated_Source\PSoC4/SPI0_INT.c ****             tmpStatus = SPI0_GET_STATUS_RX(SPI0_swStatusRx);
 178:.\Generated_Source\PSoC4/SPI0_INT.c ****             SPI0_swStatusRx = tmpStatus;
 179:.\Generated_Source\PSoC4/SPI0_INT.c ****         }
 180:.\Generated_Source\PSoC4/SPI0_INT.c **** 
 181:.\Generated_Source\PSoC4/SPI0_INT.c ****     #endif /* (SPI0_RX_SOFTWARE_BUF_ENABLED) */
 182:.\Generated_Source\PSoC4/SPI0_INT.c **** 
 183:.\Generated_Source\PSoC4/SPI0_INT.c ****     /* User code required at end of ISR (Optional) */
 184:.\Generated_Source\PSoC4/SPI0_INT.c ****     /* `#START SPI0_RX_ISR_END` */
 185:.\Generated_Source\PSoC4/SPI0_INT.c **** 
 186:.\Generated_Source\PSoC4/SPI0_INT.c ****     /* `#END` */
 187:.\Generated_Source\PSoC4/SPI0_INT.c **** }
  61              		.loc 1 187 0
  62 0004 BD46     		mov	sp, r7
  63              		@ sp needed for prologue
  64 0006 80BD     		pop	{r7, pc}
  65              		.cfi_endproc
  66              	.LFE1:
  67              		.size	SPI0_RX_ISR, .-SPI0_RX_ISR
  68              		.text
  69              	.Letext0: