ARM GAS  C:\Users\CHUCK~1.ERH\AppData\Local\Temp\cceT8Wjf.s 			page 1


   1              		.syntax unified
   2              		.cpu cortex-m3
   3              		.fpu softvfp
   4              		.eabi_attribute 20, 1
   5              		.eabi_attribute 21, 1
   6              		.eabi_attribute 23, 3
   7              		.eabi_attribute 24, 1
   8              		.eabi_attribute 25, 1
   9              		.eabi_attribute 26, 1
  10              		.eabi_attribute 30, 6
  11              		.eabi_attribute 34, 1
  12              		.eabi_attribute 18, 4
  13              		.thumb
  14              		.file	"cyPm.c"
  15              		.text
  16              	.Ltext0:
  17              		.cfi_sections	.debug_frame
  18              		.bss
  19              		.align	2
  20              	cyPmBackup:
  21 0000 00000000 		.space	47
  21      00000000 
  21      00000000 
  21      00000000 
  21      00000000 
  22 002f 00       		.align	2
  23              	cyPmClockBackup:
  24 0030 00000000 		.space	18
  24      00000000 
  24      00000000 
  24      00000000 
  24      0000
  25              		.section	.rodata
  26              		.align	2
  27              		.type	cyPmImoFreqReg2Mhz, %object
  28              		.size	cyPmImoFreqReg2Mhz, 7
  29              	cyPmImoFreqReg2Mhz:
  30 0000 0C       		.byte	12
  31 0001 06       		.byte	6
  32 0002 18       		.byte	24
  33 0003 03       		.byte	3
  34 0004 30       		.byte	48
  35 0005 3E       		.byte	62
  36 0006 4A       		.byte	74
  37              		.section	.text.CyPmSaveClocks,"ax",%progbits
  38              		.align	2
  39              		.global	CyPmSaveClocks
  40              		.thumb
  41              		.thumb_func
  42              		.type	CyPmSaveClocks, %function
  43              	CyPmSaveClocks:
  44              	.LFB0:
  45              		.file 1 ".\\Generated_Source\\PSoC5\\cyPm.c"
   1:.\Generated_Source\PSoC5/cyPm.c **** /*******************************************************************************
   2:.\Generated_Source\PSoC5/cyPm.c **** * File Name: cyPm.c
   3:.\Generated_Source\PSoC5/cyPm.c **** * Version 4.0
   4:.\Generated_Source\PSoC5/cyPm.c **** *
ARM GAS  C:\Users\CHUCK~1.ERH\AppData\Local\Temp\cceT8Wjf.s 			page 2


   5:.\Generated_Source\PSoC5/cyPm.c **** * Description:
   6:.\Generated_Source\PSoC5/cyPm.c **** *  Provides an API for the power management.
   7:.\Generated_Source\PSoC5/cyPm.c **** *
   8:.\Generated_Source\PSoC5/cyPm.c **** * Note:
   9:.\Generated_Source\PSoC5/cyPm.c **** *  Documentation of the API's in this file is located in the
  10:.\Generated_Source\PSoC5/cyPm.c **** *  System Reference Guide provided with PSoC Creator.
  11:.\Generated_Source\PSoC5/cyPm.c **** *
  12:.\Generated_Source\PSoC5/cyPm.c **** ********************************************************************************
  13:.\Generated_Source\PSoC5/cyPm.c **** * Copyright 2008-2013, Cypress Semiconductor Corporation.  All rights reserved.
  14:.\Generated_Source\PSoC5/cyPm.c **** * You may use this file only in accordance with the license, terms, conditions,
  15:.\Generated_Source\PSoC5/cyPm.c **** * disclaimers, and limitations in the end user license agreement accompanying
  16:.\Generated_Source\PSoC5/cyPm.c **** * the software package with which this file was provided.
  17:.\Generated_Source\PSoC5/cyPm.c **** *******************************************************************************/
  18:.\Generated_Source\PSoC5/cyPm.c **** 
  19:.\Generated_Source\PSoC5/cyPm.c **** #include "cyPm.h"
  20:.\Generated_Source\PSoC5/cyPm.c **** 
  21:.\Generated_Source\PSoC5/cyPm.c **** 
  22:.\Generated_Source\PSoC5/cyPm.c **** /*******************************************************************
  23:.\Generated_Source\PSoC5/cyPm.c **** * Place your includes, defines and code here. Do not use merge
  24:.\Generated_Source\PSoC5/cyPm.c **** * region below unless any component datasheet suggest to do so.
  25:.\Generated_Source\PSoC5/cyPm.c **** *******************************************************************/
  26:.\Generated_Source\PSoC5/cyPm.c **** /* `#START CY_PM_HEADER_INCLUDE` */
  27:.\Generated_Source\PSoC5/cyPm.c **** 
  28:.\Generated_Source\PSoC5/cyPm.c **** /* `#END` */
  29:.\Generated_Source\PSoC5/cyPm.c **** 
  30:.\Generated_Source\PSoC5/cyPm.c **** 
  31:.\Generated_Source\PSoC5/cyPm.c **** static CY_PM_BACKUP_STRUCT          cyPmBackup;
  32:.\Generated_Source\PSoC5/cyPm.c **** static CY_PM_CLOCK_BACKUP_STRUCT    cyPmClockBackup;
  33:.\Generated_Source\PSoC5/cyPm.c **** 
  34:.\Generated_Source\PSoC5/cyPm.c **** /* Convertion table between register's values and frequency in MHz  */
  35:.\Generated_Source\PSoC5/cyPm.c **** static const uint8 CYCODE cyPmImoFreqReg2Mhz[7u] = {12u, 6u, 24u, 3u, 48u, 62u, 74u};
  36:.\Generated_Source\PSoC5/cyPm.c **** 
  37:.\Generated_Source\PSoC5/cyPm.c **** /* Function Prototypes */
  38:.\Generated_Source\PSoC5/cyPm.c **** static void CyPmHibSaveSet(void);
  39:.\Generated_Source\PSoC5/cyPm.c **** static void CyPmHibRestore(void) ;
  40:.\Generated_Source\PSoC5/cyPm.c **** 
  41:.\Generated_Source\PSoC5/cyPm.c **** static void CyPmHibSlpSaveSet(void) ;
  42:.\Generated_Source\PSoC5/cyPm.c **** static void CyPmHibSlpRestore(void) ;
  43:.\Generated_Source\PSoC5/cyPm.c **** 
  44:.\Generated_Source\PSoC5/cyPm.c **** static void CyPmHviLviSaveDisable(void) ;
  45:.\Generated_Source\PSoC5/cyPm.c **** static void CyPmHviLviRestore(void) ;
  46:.\Generated_Source\PSoC5/cyPm.c **** 
  47:.\Generated_Source\PSoC5/cyPm.c **** 
  48:.\Generated_Source\PSoC5/cyPm.c **** /*******************************************************************************
  49:.\Generated_Source\PSoC5/cyPm.c **** * Function Name: CyPmSaveClocks
  50:.\Generated_Source\PSoC5/cyPm.c **** ********************************************************************************
  51:.\Generated_Source\PSoC5/cyPm.c **** *
  52:.\Generated_Source\PSoC5/cyPm.c **** * Summary:
  53:.\Generated_Source\PSoC5/cyPm.c **** *  This function is called in preparation for entering sleep or hibernate low
  54:.\Generated_Source\PSoC5/cyPm.c **** *  power modes. Saves all state of the clocking system that does not persist
  55:.\Generated_Source\PSoC5/cyPm.c **** *  during sleep/hibernate or that needs to be altered in preparation for
  56:.\Generated_Source\PSoC5/cyPm.c **** *  sleep/hibernate. Shutdowns all the digital and analog clock dividers for the
  57:.\Generated_Source\PSoC5/cyPm.c **** *  active power mode configuration.
  58:.\Generated_Source\PSoC5/cyPm.c **** *
  59:.\Generated_Source\PSoC5/cyPm.c **** *  Switches the master clock over to the IMO and shuts down the PLL and MHz
  60:.\Generated_Source\PSoC5/cyPm.c **** *  Crystal. The IMO frequency is set to either 12 MHz or 48 MHz to match the
  61:.\Generated_Source\PSoC5/cyPm.c **** *  Design-Wide Resources System Editor "Enable Fast IMO During Startup" setting.
ARM GAS  C:\Users\CHUCK~1.ERH\AppData\Local\Temp\cceT8Wjf.s 			page 3


  62:.\Generated_Source\PSoC5/cyPm.c **** *  The ILO and 32 KHz oscillators are not impacted. The current Flash wait state
  63:.\Generated_Source\PSoC5/cyPm.c **** *  setting is saved and the Flash wait state setting is set for the current IMO
  64:.\Generated_Source\PSoC5/cyPm.c **** *  speed.
  65:.\Generated_Source\PSoC5/cyPm.c **** *
  66:.\Generated_Source\PSoC5/cyPm.c **** *  Note If the Master Clock source is routed through the DSI inputs, then it
  67:.\Generated_Source\PSoC5/cyPm.c **** *  must be set manually to another source before using the
  68:.\Generated_Source\PSoC5/cyPm.c **** *  CyPmSaveClocks()/CyPmRestoreClocks() functions.
  69:.\Generated_Source\PSoC5/cyPm.c **** *
  70:.\Generated_Source\PSoC5/cyPm.c **** * Parameters:
  71:.\Generated_Source\PSoC5/cyPm.c **** *  None
  72:.\Generated_Source\PSoC5/cyPm.c **** *
  73:.\Generated_Source\PSoC5/cyPm.c **** * Return:
  74:.\Generated_Source\PSoC5/cyPm.c **** *  None
  75:.\Generated_Source\PSoC5/cyPm.c **** *
  76:.\Generated_Source\PSoC5/cyPm.c **** * Side Effects:
  77:.\Generated_Source\PSoC5/cyPm.c **** *  All peripheral clocks are going to be off after this API method call.
  78:.\Generated_Source\PSoC5/cyPm.c **** *
  79:.\Generated_Source\PSoC5/cyPm.c **** *******************************************************************************/
  80:.\Generated_Source\PSoC5/cyPm.c **** void CyPmSaveClocks(void) 
  81:.\Generated_Source\PSoC5/cyPm.c **** {
  46              		.loc 1 81 0
  47              		.cfi_startproc
  48              		@ args = 0, pretend = 0, frame = 0
  49              		@ frame_needed = 1, uses_anonymous_args = 0
  50 0000 80B5     		push	{r7, lr}
  51              	.LCFI0:
  52              		.cfi_def_cfa_offset 8
  53              		.cfi_offset 7, -8
  54              		.cfi_offset 14, -4
  55 0002 00AF     		add	r7, sp, #0
  56              	.LCFI1:
  57              		.cfi_def_cfa_register 7
  82:.\Generated_Source\PSoC5/cyPm.c ****     /* Digital and analog clocks - save enable state and disable them all */
  83:.\Generated_Source\PSoC5/cyPm.c ****     cyPmClockBackup.enClkA = CY_PM_ACT_CFG1_REG & CY_PM_ACT_EN_CLK_A_MASK;
  58              		.loc 1 83 0
  59 0004 44F2A133 		movw	r3, #17313
  60 0008 C4F20003 		movt	r3, 16384
  61 000c 1B78     		ldrb	r3, [r3, #0]
  62 000e DBB2     		uxtb	r3, r3
  63 0010 03F00F03 		and	r3, r3, #15
  64 0014 DAB2     		uxtb	r2, r3
  65 0016 40F20003 		movw	r3, #:lower16:cyPmClockBackup
  66 001a C0F20003 		movt	r3, #:upper16:cyPmClockBackup
  67 001e 1A70     		strb	r2, [r3, #0]
  84:.\Generated_Source\PSoC5/cyPm.c ****     cyPmClockBackup.enClkD = CY_PM_ACT_CFG2_REG;
  68              		.loc 1 84 0
  69 0020 44F2A233 		movw	r3, #17314
  70 0024 C4F20003 		movt	r3, 16384
  71 0028 1B78     		ldrb	r3, [r3, #0]
  72 002a DAB2     		uxtb	r2, r3
  73 002c 40F20003 		movw	r3, #:lower16:cyPmClockBackup
  74 0030 C0F20003 		movt	r3, #:upper16:cyPmClockBackup
  75 0034 5A70     		strb	r2, [r3, #1]
  85:.\Generated_Source\PSoC5/cyPm.c ****     CY_PM_ACT_CFG1_REG &= ((uint8)(~CY_PM_ACT_EN_CLK_A_MASK));
  76              		.loc 1 85 0
  77 0036 44F2A133 		movw	r3, #17313
  78 003a C4F20003 		movt	r3, 16384
ARM GAS  C:\Users\CHUCK~1.ERH\AppData\Local\Temp\cceT8Wjf.s 			page 4


  79 003e 44F2A132 		movw	r2, #17313
  80 0042 C4F20002 		movt	r2, 16384
  81 0046 1278     		ldrb	r2, [r2, #0]
  82 0048 D2B2     		uxtb	r2, r2
  83 004a 22F00F02 		bic	r2, r2, #15
  84 004e D2B2     		uxtb	r2, r2
  85 0050 1A70     		strb	r2, [r3, #0]
  86:.\Generated_Source\PSoC5/cyPm.c ****     CY_PM_ACT_CFG2_REG &= ((uint8)(~CY_PM_ACT_EN_CLK_D_MASK));
  86              		.loc 1 86 0
  87 0052 44F2A233 		movw	r3, #17314
  88 0056 C4F20003 		movt	r3, 16384
  89 005a 1B78     		ldrb	r3, [r3, #0]
  90 005c 44F2A233 		movw	r3, #17314
  91 0060 C4F20003 		movt	r3, 16384
  92 0064 4FF00002 		mov	r2, #0
  93 0068 1A70     		strb	r2, [r3, #0]
  87:.\Generated_Source\PSoC5/cyPm.c **** 
  88:.\Generated_Source\PSoC5/cyPm.c ****     /* Save current flash wait cycles and set the maximum value */
  89:.\Generated_Source\PSoC5/cyPm.c ****     cyPmClockBackup.flashWaitCycles = CY_PM_CACHE_CR_CYCLES_MASK & CY_PM_CACHE_CR_REG;
  94              		.loc 1 89 0
  95 006a 4FF49043 		mov	r3, #18432
  96 006e C4F20003 		movt	r3, 16384
  97 0072 1B78     		ldrb	r3, [r3, #0]
  98 0074 DBB2     		uxtb	r3, r3
  99 0076 23F03F03 		bic	r3, r3, #63
 100 007a DAB2     		uxtb	r2, r3
 101 007c 40F20003 		movw	r3, #:lower16:cyPmClockBackup
 102 0080 C0F20003 		movt	r3, #:upper16:cyPmClockBackup
 103 0084 5A71     		strb	r2, [r3, #5]
  90:.\Generated_Source\PSoC5/cyPm.c ****     CyFlash_SetWaitCycles(CY_PM_MAX_FLASH_WAIT_CYCLES);
 104              		.loc 1 90 0
 105 0086 4FF03700 		mov	r0, #55
 106 008a FFF7FEFF 		bl	CyFlash_SetWaitCycles
  91:.\Generated_Source\PSoC5/cyPm.c **** 
  92:.\Generated_Source\PSoC5/cyPm.c ****     /* IMO - save current IMO MHz OSC frequency and USB mode is on bit */
  93:.\Generated_Source\PSoC5/cyPm.c ****     cyPmClockBackup.imoFreq = CY_PM_FASTCLK_IMO_CR_REG & CY_PM_FASTCLK_IMO_CR_FREQ_MASK;
 107              		.loc 1 93 0
 108 008e 4FF48443 		mov	r3, #16896
 109 0092 C4F20003 		movt	r3, 16384
 110 0096 1B78     		ldrb	r3, [r3, #0]
 111 0098 DBB2     		uxtb	r3, r3
 112 009a 03F00703 		and	r3, r3, #7
 113 009e DAB2     		uxtb	r2, r3
 114 00a0 40F20003 		movw	r3, #:lower16:cyPmClockBackup
 115 00a4 C0F20003 		movt	r3, #:upper16:cyPmClockBackup
 116 00a8 DA70     		strb	r2, [r3, #3]
  94:.\Generated_Source\PSoC5/cyPm.c ****     cyPmClockBackup.imoUsbClk = CY_PM_FASTCLK_IMO_CR_REG & CY_PM_FASTCLK_IMO_CR_USB;
 117              		.loc 1 94 0
 118 00aa 4FF48443 		mov	r3, #16896
 119 00ae C4F20003 		movt	r3, 16384
 120 00b2 1B78     		ldrb	r3, [r3, #0]
 121 00b4 DBB2     		uxtb	r3, r3
 122 00b6 03F04003 		and	r3, r3, #64
 123 00ba DAB2     		uxtb	r2, r3
 124 00bc 40F20003 		movw	r3, #:lower16:cyPmClockBackup
 125 00c0 C0F20003 		movt	r3, #:upper16:cyPmClockBackup
 126 00c4 1A71     		strb	r2, [r3, #4]
ARM GAS  C:\Users\CHUCK~1.ERH\AppData\Local\Temp\cceT8Wjf.s 			page 5


  95:.\Generated_Source\PSoC5/cyPm.c **** 
  96:.\Generated_Source\PSoC5/cyPm.c ****     /* IMO doubler - save enable state */
  97:.\Generated_Source\PSoC5/cyPm.c ****     if(0u != (CY_PM_FASTCLK_IMO_CR_REG & CY_PM_FASTCLK_IMO_CR_F2XON))
 127              		.loc 1 97 0
 128 00c6 4FF48443 		mov	r3, #16896
 129 00ca C4F20003 		movt	r3, 16384
 130 00ce 1B78     		ldrb	r3, [r3, #0]
 131 00d0 DBB2     		uxtb	r3, r3
 132 00d2 03F01003 		and	r3, r3, #16
 133 00d6 002B     		cmp	r3, #0
 134 00d8 07D0     		beq	.L2
  98:.\Generated_Source\PSoC5/cyPm.c ****     {
  99:.\Generated_Source\PSoC5/cyPm.c ****         /* IMO doubler enabled - save and disable */
 100:.\Generated_Source\PSoC5/cyPm.c ****         cyPmClockBackup.imo2x = CY_PM_ENABLED;
 135              		.loc 1 100 0
 136 00da 40F20003 		movw	r3, #:lower16:cyPmClockBackup
 137 00de C0F20003 		movt	r3, #:upper16:cyPmClockBackup
 138 00e2 4FF00102 		mov	r2, #1
 139 00e6 5A72     		strb	r2, [r3, #9]
 140 00e8 06E0     		b	.L3
 141              	.L2:
 101:.\Generated_Source\PSoC5/cyPm.c ****     }
 102:.\Generated_Source\PSoC5/cyPm.c ****     else
 103:.\Generated_Source\PSoC5/cyPm.c ****     {
 104:.\Generated_Source\PSoC5/cyPm.c ****         /* IMO doubler disabled */
 105:.\Generated_Source\PSoC5/cyPm.c ****         cyPmClockBackup.imo2x = CY_PM_DISABLED;
 142              		.loc 1 105 0
 143 00ea 40F20003 		movw	r3, #:lower16:cyPmClockBackup
 144 00ee C0F20003 		movt	r3, #:upper16:cyPmClockBackup
 145 00f2 4FF00002 		mov	r2, #0
 146 00f6 5A72     		strb	r2, [r3, #9]
 147              	.L3:
 106:.\Generated_Source\PSoC5/cyPm.c ****     }
 107:.\Generated_Source\PSoC5/cyPm.c **** 
 108:.\Generated_Source\PSoC5/cyPm.c ****     /* IMO - set appropriate frequency for LPM */
 109:.\Generated_Source\PSoC5/cyPm.c ****     CyIMO_SetFreq(CY_PM_IMO_FREQ_LPM);
 148              		.loc 1 109 0
 149 00f8 4FF00400 		mov	r0, #4
 150 00fc FFF7FEFF 		bl	CyIMO_SetFreq
 110:.\Generated_Source\PSoC5/cyPm.c **** 
 111:.\Generated_Source\PSoC5/cyPm.c ****     /* IMO - save enable state and enable without wait to settle */
 112:.\Generated_Source\PSoC5/cyPm.c ****     if(0u != (CY_PM_ACT_CFG0_IMO & CY_PM_ACT_CFG0_REG))
 151              		.loc 1 112 0
 152 0100 44F2A033 		movw	r3, #17312
 153 0104 C4F20003 		movt	r3, 16384
 154 0108 1B78     		ldrb	r3, [r3, #0]
 155 010a DBB2     		uxtb	r3, r3
 156 010c 03F01003 		and	r3, r3, #16
 157 0110 DBB2     		uxtb	r3, r3
 158 0112 002B     		cmp	r3, #0
 159 0114 07D0     		beq	.L4
 113:.\Generated_Source\PSoC5/cyPm.c ****     {
 114:.\Generated_Source\PSoC5/cyPm.c ****         /* IMO - save enabled state */
 115:.\Generated_Source\PSoC5/cyPm.c ****         cyPmClockBackup.imoEnable = CY_PM_ENABLED;
 160              		.loc 1 115 0
 161 0116 40F20003 		movw	r3, #:lower16:cyPmClockBackup
 162 011a C0F20003 		movt	r3, #:upper16:cyPmClockBackup
ARM GAS  C:\Users\CHUCK~1.ERH\AppData\Local\Temp\cceT8Wjf.s 			page 6


 163 011e 4FF00102 		mov	r2, #1
 164 0122 9A71     		strb	r2, [r3, #6]
 165 0124 0AE0     		b	.L5
 166              	.L4:
 116:.\Generated_Source\PSoC5/cyPm.c ****     }
 117:.\Generated_Source\PSoC5/cyPm.c ****     else
 118:.\Generated_Source\PSoC5/cyPm.c ****     {
 119:.\Generated_Source\PSoC5/cyPm.c ****         /* IMO - save disabled state */
 120:.\Generated_Source\PSoC5/cyPm.c ****         cyPmClockBackup.imoEnable = CY_PM_DISABLED;
 167              		.loc 1 120 0
 168 0126 40F20003 		movw	r3, #:lower16:cyPmClockBackup
 169 012a C0F20003 		movt	r3, #:upper16:cyPmClockBackup
 170 012e 4FF00002 		mov	r2, #0
 171 0132 9A71     		strb	r2, [r3, #6]
 121:.\Generated_Source\PSoC5/cyPm.c **** 
 122:.\Generated_Source\PSoC5/cyPm.c ****         /* IMO - enable */
 123:.\Generated_Source\PSoC5/cyPm.c ****         CyIMO_Start(CY_PM_IMO_NO_WAIT_TO_SETTLE);
 172              		.loc 1 123 0
 173 0134 4FF00000 		mov	r0, #0
 174 0138 FFF7FEFF 		bl	CyIMO_Start
 175              	.L5:
 124:.\Generated_Source\PSoC5/cyPm.c ****     }
 125:.\Generated_Source\PSoC5/cyPm.c **** 
 126:.\Generated_Source\PSoC5/cyPm.c ****     /* IMO - save the current IMOCLK source and set to IMO if not yet */
 127:.\Generated_Source\PSoC5/cyPm.c ****     if(0u != (CY_PM_FASTCLK_IMO_CR_REG & CY_PM_FASTCLK_IMO_CR_XCLKEN))
 176              		.loc 1 127 0
 177 013c 4FF48443 		mov	r3, #16896
 178 0140 C4F20003 		movt	r3, 16384
 179 0144 1B78     		ldrb	r3, [r3, #0]
 180 0146 DBB2     		uxtb	r3, r3
 181 0148 03F02003 		and	r3, r3, #32
 182 014c 002B     		cmp	r3, #0
 183 014e 16D0     		beq	.L6
 128:.\Generated_Source\PSoC5/cyPm.c ****     {
 129:.\Generated_Source\PSoC5/cyPm.c ****         /* DSI or XTAL CLK */
 130:.\Generated_Source\PSoC5/cyPm.c ****         cyPmClockBackup.imoClkSrc =
 131:.\Generated_Source\PSoC5/cyPm.c ****             (0u == (CY_PM_CLKDIST_CR_REG & CY_PM_CLKDIST_IMO2X_SRC)) ? CY_IMO_SOURCE_DSI : CY_IMO_S
 184              		.loc 1 131 0
 185 0150 4FF04023 		mov	r3, #1073758208
 186 0154 1B78     		ldrb	r3, [r3, #0]
 187 0156 DBB2     		uxtb	r3, r3
 188 0158 03F04003 		and	r3, r3, #64
 130:.\Generated_Source\PSoC5/cyPm.c ****         cyPmClockBackup.imoClkSrc =
 189              		.loc 1 130 0
 190 015c 002B     		cmp	r3, #0
 191 015e 02D1     		bne	.L7
 130:.\Generated_Source\PSoC5/cyPm.c ****         cyPmClockBackup.imoClkSrc =
 192              		.loc 1 130 0 is_stmt 0 discriminator 1
 193 0160 4FF00202 		mov	r2, #2
 194 0164 01E0     		b	.L8
 195              	.L7:
 130:.\Generated_Source\PSoC5/cyPm.c ****         cyPmClockBackup.imoClkSrc =
 196              		.loc 1 130 0 discriminator 2
 197 0166 4FF00102 		mov	r2, #1
 198              	.L8:
 130:.\Generated_Source\PSoC5/cyPm.c ****         cyPmClockBackup.imoClkSrc =
 199              		.loc 1 130 0 discriminator 3
ARM GAS  C:\Users\CHUCK~1.ERH\AppData\Local\Temp\cceT8Wjf.s 			page 7


 200 016a 40F20003 		movw	r3, #:lower16:cyPmClockBackup
 201 016e C0F20003 		movt	r3, #:upper16:cyPmClockBackup
 202 0172 DA71     		strb	r2, [r3, #7]
 132:.\Generated_Source\PSoC5/cyPm.c **** 
 133:.\Generated_Source\PSoC5/cyPm.c ****         /* IMO -  set IMOCLK source to MHz OSC */
 134:.\Generated_Source\PSoC5/cyPm.c ****         CyIMO_SetSource(CY_IMO_SOURCE_IMO);
 203              		.loc 1 134 0 is_stmt 1 discriminator 3
 204 0174 4FF00000 		mov	r0, #0
 205 0178 FFF7FEFF 		bl	CyIMO_SetSource
 206 017c 06E0     		b	.L9
 207              	.L6:
 135:.\Generated_Source\PSoC5/cyPm.c ****     }
 136:.\Generated_Source\PSoC5/cyPm.c ****     else
 137:.\Generated_Source\PSoC5/cyPm.c ****     {
 138:.\Generated_Source\PSoC5/cyPm.c ****         /* IMO */
 139:.\Generated_Source\PSoC5/cyPm.c ****         cyPmClockBackup.imoClkSrc = CY_IMO_SOURCE_IMO;
 208              		.loc 1 139 0
 209 017e 40F20003 		movw	r3, #:lower16:cyPmClockBackup
 210 0182 C0F20003 		movt	r3, #:upper16:cyPmClockBackup
 211 0186 4FF00002 		mov	r2, #0
 212 018a DA71     		strb	r2, [r3, #7]
 213              	.L9:
 140:.\Generated_Source\PSoC5/cyPm.c ****     }
 141:.\Generated_Source\PSoC5/cyPm.c **** 
 142:.\Generated_Source\PSoC5/cyPm.c ****     /* Save clk_imo source */
 143:.\Generated_Source\PSoC5/cyPm.c ****     cyPmClockBackup.clkImoSrc = CY_PM_CLKDIST_CR_REG & CY_PM_CLKDIST_IMO_OUT_MASK;
 214              		.loc 1 143 0
 215 018c 4FF04023 		mov	r3, #1073758208
 216 0190 1B78     		ldrb	r3, [r3, #0]
 217 0192 DBB2     		uxtb	r3, r3
 218 0194 03F03003 		and	r3, r3, #48
 219 0198 DAB2     		uxtb	r2, r3
 220 019a 40F20003 		movw	r3, #:lower16:cyPmClockBackup
 221 019e C0F20003 		movt	r3, #:upper16:cyPmClockBackup
 222 01a2 1A72     		strb	r2, [r3, #8]
 144:.\Generated_Source\PSoC5/cyPm.c **** 
 145:.\Generated_Source\PSoC5/cyPm.c ****     /* If IMOCLK2X or SPC OSC is source for clk_imo, set it to IMOCLK */
 146:.\Generated_Source\PSoC5/cyPm.c ****     if(CY_PM_CLKDIST_IMO_OUT_IMO != cyPmClockBackup.clkImoSrc)
 223              		.loc 1 146 0
 224 01a4 40F20003 		movw	r3, #:lower16:cyPmClockBackup
 225 01a8 C0F20003 		movt	r3, #:upper16:cyPmClockBackup
 226 01ac 1B7A     		ldrb	r3, [r3, #8]	@ zero_extendqisi2
 227 01ae 002B     		cmp	r3, #0
 228 01b0 09D0     		beq	.L10
 147:.\Generated_Source\PSoC5/cyPm.c ****     {
 148:.\Generated_Source\PSoC5/cyPm.c ****         /* Set IMOCLK to source for clk_imo */
 149:.\Generated_Source\PSoC5/cyPm.c ****         CY_PM_CLKDIST_CR_REG = (CY_PM_CLKDIST_CR_REG & ((uint8)(~CY_PM_CLKDIST_IMO_OUT_MASK))) |
 229              		.loc 1 149 0
 230 01b2 4FF04023 		mov	r3, #1073758208
 231 01b6 4FF04022 		mov	r2, #1073758208
 232 01ba 1278     		ldrb	r2, [r2, #0]
 233 01bc D2B2     		uxtb	r2, r2
 234 01be 22F03002 		bic	r2, r2, #48
 235 01c2 D2B2     		uxtb	r2, r2
 236 01c4 1A70     		strb	r2, [r3, #0]
 237              	.L10:
 150:.\Generated_Source\PSoC5/cyPm.c ****                                 CY_PM_CLKDIST_IMO_OUT_IMO;
ARM GAS  C:\Users\CHUCK~1.ERH\AppData\Local\Temp\cceT8Wjf.s 			page 8


 151:.\Generated_Source\PSoC5/cyPm.c ****     }    /* Need to change nothing if IMOCLK is source clk_imo */
 152:.\Generated_Source\PSoC5/cyPm.c **** 
 153:.\Generated_Source\PSoC5/cyPm.c ****     /* IMO doubler - disable it (saved above) */
 154:.\Generated_Source\PSoC5/cyPm.c ****     if(0u != (CY_PM_FASTCLK_IMO_CR_REG & CY_PM_FASTCLK_IMO_CR_F2XON))
 238              		.loc 1 154 0
 239 01c6 4FF48443 		mov	r3, #16896
 240 01ca C4F20003 		movt	r3, 16384
 241 01ce 1B78     		ldrb	r3, [r3, #0]
 242 01d0 DBB2     		uxtb	r3, r3
 243 01d2 03F01003 		and	r3, r3, #16
 244 01d6 002B     		cmp	r3, #0
 245 01d8 01D0     		beq	.L11
 155:.\Generated_Source\PSoC5/cyPm.c ****     {
 156:.\Generated_Source\PSoC5/cyPm.c ****         CyIMO_DisableDoubler();
 246              		.loc 1 156 0
 247 01da FFF7FEFF 		bl	CyIMO_DisableDoubler
 248              	.L11:
 157:.\Generated_Source\PSoC5/cyPm.c ****     }
 158:.\Generated_Source\PSoC5/cyPm.c **** 
 159:.\Generated_Source\PSoC5/cyPm.c ****     /* Master clock - save divider and set it to divide-by-one (if no yet) */
 160:.\Generated_Source\PSoC5/cyPm.c ****     cyPmClockBackup.clkSyncDiv = CY_PM_CLKDIST_MSTR0_REG;
 249              		.loc 1 160 0
 250 01de 44F20403 		movw	r3, #16388
 251 01e2 C4F20003 		movt	r3, 16384
 252 01e6 1B78     		ldrb	r3, [r3, #0]
 253 01e8 DAB2     		uxtb	r2, r3
 254 01ea 40F20003 		movw	r3, #:lower16:cyPmClockBackup
 255 01ee C0F20003 		movt	r3, #:upper16:cyPmClockBackup
 256 01f2 9A72     		strb	r2, [r3, #10]
 161:.\Generated_Source\PSoC5/cyPm.c ****     if(CY_PM_DIV_BY_ONE != cyPmClockBackup.clkSyncDiv)
 257              		.loc 1 161 0
 258 01f4 40F20003 		movw	r3, #:lower16:cyPmClockBackup
 259 01f8 C0F20003 		movt	r3, #:upper16:cyPmClockBackup
 260 01fc 9B7A     		ldrb	r3, [r3, #10]	@ zero_extendqisi2
 261 01fe 002B     		cmp	r3, #0
 262 0200 03D0     		beq	.L12
 162:.\Generated_Source\PSoC5/cyPm.c ****     {
 163:.\Generated_Source\PSoC5/cyPm.c ****         CyMasterClk_SetDivider(CY_PM_DIV_BY_ONE);
 263              		.loc 1 163 0
 264 0202 4FF00000 		mov	r0, #0
 265 0206 FFF7FEFF 		bl	CyMasterClk_SetDivider
 266              	.L12:
 164:.\Generated_Source\PSoC5/cyPm.c ****     }    /* Need to change nothing if master clock divider is 1 */
 165:.\Generated_Source\PSoC5/cyPm.c **** 
 166:.\Generated_Source\PSoC5/cyPm.c ****     /* Master clock - save current source */
 167:.\Generated_Source\PSoC5/cyPm.c ****     cyPmClockBackup.masterClkSrc = CY_PM_CLKDIST_MSTR1_REG & CY_PM_MASTER_CLK_SRC_MASK;
 267              		.loc 1 167 0
 268 020a 44F20503 		movw	r3, #16389
 269 020e C4F20003 		movt	r3, 16384
 270 0212 1B78     		ldrb	r3, [r3, #0]
 271 0214 DBB2     		uxtb	r3, r3
 272 0216 03F00303 		and	r3, r3, #3
 273 021a DAB2     		uxtb	r2, r3
 274 021c 40F20003 		movw	r3, #:lower16:cyPmClockBackup
 275 0220 C0F20003 		movt	r3, #:upper16:cyPmClockBackup
 276 0224 9A70     		strb	r2, [r3, #2]
 168:.\Generated_Source\PSoC5/cyPm.c **** 
ARM GAS  C:\Users\CHUCK~1.ERH\AppData\Local\Temp\cceT8Wjf.s 			page 9


 169:.\Generated_Source\PSoC5/cyPm.c ****     /* Master clock source - set it to IMO if not yet. */
 170:.\Generated_Source\PSoC5/cyPm.c ****     if(CY_MASTER_SOURCE_IMO != cyPmClockBackup.masterClkSrc)
 277              		.loc 1 170 0
 278 0226 40F20003 		movw	r3, #:lower16:cyPmClockBackup
 279 022a C0F20003 		movt	r3, #:upper16:cyPmClockBackup
 280 022e 9B78     		ldrb	r3, [r3, #2]	@ zero_extendqisi2
 281 0230 002B     		cmp	r3, #0
 282 0232 03D0     		beq	.L13
 171:.\Generated_Source\PSoC5/cyPm.c ****     {
 172:.\Generated_Source\PSoC5/cyPm.c ****         CyMasterClk_SetSource(CY_MASTER_SOURCE_IMO);
 283              		.loc 1 172 0
 284 0234 4FF00000 		mov	r0, #0
 285 0238 FFF7FEFF 		bl	CyMasterClk_SetSource
 286              	.L13:
 173:.\Generated_Source\PSoC5/cyPm.c ****     }    /* Need to change nothing if master clock source is IMO */
 174:.\Generated_Source\PSoC5/cyPm.c **** 
 175:.\Generated_Source\PSoC5/cyPm.c ****     /* Bus clock - save divider and set it, if needed, to divide-by-one */
 176:.\Generated_Source\PSoC5/cyPm.c ****     cyPmClockBackup.clkBusDiv = (uint16) ((uint16) CY_PM_CLK_BUS_MSB_DIV_REG << 8u);
 287              		.loc 1 176 0
 288 023c 44F20703 		movw	r3, #16391
 289 0240 C4F20003 		movt	r3, 16384
 290 0244 1B78     		ldrb	r3, [r3, #0]
 291 0246 DBB2     		uxtb	r3, r3
 292 0248 4FEA0323 		lsl	r3, r3, #8
 293 024c 9AB2     		uxth	r2, r3
 294 024e 40F20003 		movw	r3, #:lower16:cyPmClockBackup
 295 0252 C0F20003 		movt	r3, #:upper16:cyPmClockBackup
 296 0256 9A81     		strh	r2, [r3, #12]	@ movhi
 177:.\Generated_Source\PSoC5/cyPm.c ****     cyPmClockBackup.clkBusDiv |= CY_PM_CLK_BUS_LSB_DIV_REG;
 297              		.loc 1 177 0
 298 0258 40F20003 		movw	r3, #:lower16:cyPmClockBackup
 299 025c C0F20003 		movt	r3, #:upper16:cyPmClockBackup
 300 0260 9A89     		ldrh	r2, [r3, #12]
 301 0262 44F20603 		movw	r3, #16390
 302 0266 C4F20003 		movt	r3, 16384
 303 026a 1B78     		ldrb	r3, [r3, #0]
 304 026c DBB2     		uxtb	r3, r3
 305 026e 1343     		orrs	r3, r3, r2
 306 0270 9AB2     		uxth	r2, r3
 307 0272 40F20003 		movw	r3, #:lower16:cyPmClockBackup
 308 0276 C0F20003 		movt	r3, #:upper16:cyPmClockBackup
 309 027a 9A81     		strh	r2, [r3, #12]	@ movhi
 178:.\Generated_Source\PSoC5/cyPm.c ****     if(CY_PM_BUS_CLK_DIV_BY_ONE != cyPmClockBackup.clkBusDiv)
 310              		.loc 1 178 0
 311 027c 40F20003 		movw	r3, #:lower16:cyPmClockBackup
 312 0280 C0F20003 		movt	r3, #:upper16:cyPmClockBackup
 313 0284 9B89     		ldrh	r3, [r3, #12]
 314 0286 002B     		cmp	r3, #0
 315 0288 03D0     		beq	.L14
 179:.\Generated_Source\PSoC5/cyPm.c ****     {
 180:.\Generated_Source\PSoC5/cyPm.c ****         CyBusClk_SetDivider(CY_PM_BUS_CLK_DIV_BY_ONE);
 316              		.loc 1 180 0
 317 028a 4FF00000 		mov	r0, #0
 318 028e FFF7FEFF 		bl	CyBusClk_SetDivider
 319              	.L14:
 181:.\Generated_Source\PSoC5/cyPm.c ****     }    /* Do nothing if saved and actual values are equal */
 182:.\Generated_Source\PSoC5/cyPm.c **** 
ARM GAS  C:\Users\CHUCK~1.ERH\AppData\Local\Temp\cceT8Wjf.s 			page 10


 183:.\Generated_Source\PSoC5/cyPm.c ****     /* Set number of wait cycles for the flash according CPU frequency in MHz */
 184:.\Generated_Source\PSoC5/cyPm.c ****     CyFlash_SetWaitCycles((uint8)CY_PM_GET_CPU_FREQ_MHZ);
 320              		.loc 1 184 0
 321 0292 4FF48443 		mov	r3, #16896
 322 0296 C4F20003 		movt	r3, 16384
 323 029a 1B78     		ldrb	r3, [r3, #0]
 324 029c DBB2     		uxtb	r3, r3
 325 029e 03F00702 		and	r2, r3, #7
 326 02a2 40F20003 		movw	r3, #:lower16:cyPmImoFreqReg2Mhz
 327 02a6 C0F20003 		movt	r3, #:upper16:cyPmImoFreqReg2Mhz
 328 02aa 9B5C     		ldrb	r3, [r3, r2]	@ zero_extendqisi2
 329 02ac 1846     		mov	r0, r3
 330 02ae FFF7FEFF 		bl	CyFlash_SetWaitCycles
 185:.\Generated_Source\PSoC5/cyPm.c **** 
 186:.\Generated_Source\PSoC5/cyPm.c ****     /* PLL - check enable state, disable if needed */
 187:.\Generated_Source\PSoC5/cyPm.c ****     if(0u != (CY_PM_FASTCLK_PLL_CFG0_REG & CY_PM_PLL_CFG0_ENABLE))
 331              		.loc 1 187 0
 332 02b2 44F22023 		movw	r3, #16928
 333 02b6 C4F20003 		movt	r3, 16384
 334 02ba 1B78     		ldrb	r3, [r3, #0]
 335 02bc DBB2     		uxtb	r3, r3
 336 02be 03F00103 		and	r3, r3, #1
 337 02c2 002B     		cmp	r3, #0
 338 02c4 09D0     		beq	.L15
 188:.\Generated_Source\PSoC5/cyPm.c ****     {
 189:.\Generated_Source\PSoC5/cyPm.c ****         /* PLL is enabled - save state and disable */
 190:.\Generated_Source\PSoC5/cyPm.c ****         cyPmClockBackup.pllEnableState = CY_PM_ENABLED;
 339              		.loc 1 190 0
 340 02c6 40F20003 		movw	r3, #:lower16:cyPmClockBackup
 341 02ca C0F20003 		movt	r3, #:upper16:cyPmClockBackup
 342 02ce 4FF00102 		mov	r2, #1
 343 02d2 9A73     		strb	r2, [r3, #14]
 191:.\Generated_Source\PSoC5/cyPm.c ****         CyPLL_OUT_Stop();
 344              		.loc 1 191 0
 345 02d4 FFF7FEFF 		bl	CyPLL_OUT_Stop
 346 02d8 06E0     		b	.L16
 347              	.L15:
 192:.\Generated_Source\PSoC5/cyPm.c ****     }
 193:.\Generated_Source\PSoC5/cyPm.c ****     else
 194:.\Generated_Source\PSoC5/cyPm.c ****     {
 195:.\Generated_Source\PSoC5/cyPm.c ****         /* PLL is disabled - save state */
 196:.\Generated_Source\PSoC5/cyPm.c ****         cyPmClockBackup.pllEnableState = CY_PM_DISABLED;
 348              		.loc 1 196 0
 349 02da 40F20003 		movw	r3, #:lower16:cyPmClockBackup
 350 02de C0F20003 		movt	r3, #:upper16:cyPmClockBackup
 351 02e2 4FF00002 		mov	r2, #0
 352 02e6 9A73     		strb	r2, [r3, #14]
 353              	.L16:
 197:.\Generated_Source\PSoC5/cyPm.c ****     }
 198:.\Generated_Source\PSoC5/cyPm.c **** 
 199:.\Generated_Source\PSoC5/cyPm.c ****     /* MHz ECO - check enable state and disable if needed */
 200:.\Generated_Source\PSoC5/cyPm.c ****     if(0u != (CY_PM_FASTCLK_XMHZ_CSR_REG & CY_PM_XMHZ_CSR_ENABLE))
 354              		.loc 1 200 0
 355 02e8 44F21023 		movw	r3, #16912
 356 02ec C4F20003 		movt	r3, 16384
 357 02f0 1B78     		ldrb	r3, [r3, #0]
 358 02f2 DBB2     		uxtb	r3, r3
ARM GAS  C:\Users\CHUCK~1.ERH\AppData\Local\Temp\cceT8Wjf.s 			page 11


 359 02f4 03F00103 		and	r3, r3, #1
 360 02f8 002B     		cmp	r3, #0
 361 02fa 09D0     		beq	.L17
 201:.\Generated_Source\PSoC5/cyPm.c ****     {
 202:.\Generated_Source\PSoC5/cyPm.c ****         /* MHz ECO is enabled - save state and disable */
 203:.\Generated_Source\PSoC5/cyPm.c ****         cyPmClockBackup.xmhzEnableState = CY_PM_ENABLED;
 362              		.loc 1 203 0
 363 02fc 40F20003 		movw	r3, #:lower16:cyPmClockBackup
 364 0300 C0F20003 		movt	r3, #:upper16:cyPmClockBackup
 365 0304 4FF00102 		mov	r2, #1
 366 0308 DA73     		strb	r2, [r3, #15]
 204:.\Generated_Source\PSoC5/cyPm.c ****         CyXTAL_Stop();
 367              		.loc 1 204 0
 368 030a FFF7FEFF 		bl	CyXTAL_Stop
 369 030e 06E0     		b	.L18
 370              	.L17:
 205:.\Generated_Source\PSoC5/cyPm.c ****     }
 206:.\Generated_Source\PSoC5/cyPm.c ****     else
 207:.\Generated_Source\PSoC5/cyPm.c ****     {
 208:.\Generated_Source\PSoC5/cyPm.c ****         /* MHz ECO is disabled - save state */
 209:.\Generated_Source\PSoC5/cyPm.c ****         cyPmClockBackup.xmhzEnableState = CY_PM_DISABLED;
 371              		.loc 1 209 0
 372 0310 40F20003 		movw	r3, #:lower16:cyPmClockBackup
 373 0314 C0F20003 		movt	r3, #:upper16:cyPmClockBackup
 374 0318 4FF00002 		mov	r2, #0
 375 031c DA73     		strb	r2, [r3, #15]
 376              	.L18:
 210:.\Generated_Source\PSoC5/cyPm.c ****     }
 211:.\Generated_Source\PSoC5/cyPm.c **** 
 212:.\Generated_Source\PSoC5/cyPm.c **** 
 213:.\Generated_Source\PSoC5/cyPm.c ****     /***************************************************************************
 214:.\Generated_Source\PSoC5/cyPm.c ****     * Save enable state of delay between the system bus clock and each of the
 215:.\Generated_Source\PSoC5/cyPm.c ****     * 4 individual analog clocks. This bit non-retention and it's value should
 216:.\Generated_Source\PSoC5/cyPm.c ****     * be restored on wakeup.
 217:.\Generated_Source\PSoC5/cyPm.c ****     ***************************************************************************/
 218:.\Generated_Source\PSoC5/cyPm.c ****     if(0u != (CY_PM_CLKDIST_DELAY_REG & CY_PM_CLKDIST_DELAY_EN))
 377              		.loc 1 218 0
 378 031e 44F20B03 		movw	r3, #16395
 379 0322 C4F20003 		movt	r3, 16384
 380 0326 1B78     		ldrb	r3, [r3, #0]
 381 0328 DBB2     		uxtb	r3, r3
 382 032a 03F00403 		and	r3, r3, #4
 383 032e 002B     		cmp	r3, #0
 384 0330 07D0     		beq	.L19
 219:.\Generated_Source\PSoC5/cyPm.c ****     {
 220:.\Generated_Source\PSoC5/cyPm.c ****         cyPmClockBackup.clkDistDelay = CY_PM_ENABLED;
 385              		.loc 1 220 0
 386 0332 40F20003 		movw	r3, #:lower16:cyPmClockBackup
 387 0336 C0F20003 		movt	r3, #:upper16:cyPmClockBackup
 388 033a 4FF00102 		mov	r2, #1
 389 033e 1A74     		strb	r2, [r3, #16]
 390 0340 06E0     		b	.L1
 391              	.L19:
 221:.\Generated_Source\PSoC5/cyPm.c ****     }
 222:.\Generated_Source\PSoC5/cyPm.c ****     else
 223:.\Generated_Source\PSoC5/cyPm.c ****     {
 224:.\Generated_Source\PSoC5/cyPm.c ****         cyPmClockBackup.clkDistDelay = CY_PM_DISABLED;
ARM GAS  C:\Users\CHUCK~1.ERH\AppData\Local\Temp\cceT8Wjf.s 			page 12


 392              		.loc 1 224 0
 393 0342 40F20003 		movw	r3, #:lower16:cyPmClockBackup
 394 0346 C0F20003 		movt	r3, #:upper16:cyPmClockBackup
 395 034a 4FF00002 		mov	r2, #0
 396 034e 1A74     		strb	r2, [r3, #16]
 397              	.L1:
 225:.\Generated_Source\PSoC5/cyPm.c ****     }
 226:.\Generated_Source\PSoC5/cyPm.c **** }
 398              		.loc 1 226 0
 399 0350 80BD     		pop	{r7, pc}
 400              		.cfi_endproc
 401              	.LFE0:
 402              		.size	CyPmSaveClocks, .-CyPmSaveClocks
 403 0352 00BF     		.section	.rodata
 404 0007 00       		.align	2
 405              	.LC0:
 406 0008 02       		.byte	2
 407 0009 01       		.byte	1
 408 000a 03       		.byte	3
 409 000b 00       		.byte	0
 410 000c 04       		.byte	4
 411 000d 05       		.byte	5
 412 000e 06       		.byte	6
 413 000f 00       		.section	.text.CyPmRestoreClocks,"ax",%progbits
 414              		.align	2
 415              		.global	CyPmRestoreClocks
 416              		.thumb
 417              		.thumb_func
 418              		.type	CyPmRestoreClocks, %function
 419              	CyPmRestoreClocks:
 420              	.LFB1:
 227:.\Generated_Source\PSoC5/cyPm.c **** 
 228:.\Generated_Source\PSoC5/cyPm.c **** 
 229:.\Generated_Source\PSoC5/cyPm.c **** /*******************************************************************************
 230:.\Generated_Source\PSoC5/cyPm.c **** * Function Name: CyPmRestoreClocks
 231:.\Generated_Source\PSoC5/cyPm.c **** ********************************************************************************
 232:.\Generated_Source\PSoC5/cyPm.c **** *
 233:.\Generated_Source\PSoC5/cyPm.c **** * Summary:
 234:.\Generated_Source\PSoC5/cyPm.c **** *  Restores any state that was preserved by the last call to CyPmSaveClocks().
 235:.\Generated_Source\PSoC5/cyPm.c **** *  The Flash wait state setting is also restored.
 236:.\Generated_Source\PSoC5/cyPm.c **** *
 237:.\Generated_Source\PSoC5/cyPm.c **** *  Note If the Master Clock source is routed through the DSI inputs, then it
 238:.\Generated_Source\PSoC5/cyPm.c **** *  must be set manually to another source before using the
 239:.\Generated_Source\PSoC5/cyPm.c **** *  CyPmSaveClocks()/CyPmRestoreClocks() functions.
 240:.\Generated_Source\PSoC5/cyPm.c **** *
 241:.\Generated_Source\PSoC5/cyPm.c **** *  PSoC 3 and PSoC 5LP:
 242:.\Generated_Source\PSoC5/cyPm.c **** *  The merge region could be used to process state when the megahertz crystal is
 243:.\Generated_Source\PSoC5/cyPm.c **** *  not ready after the hold-off timeout.
 244:.\Generated_Source\PSoC5/cyPm.c **** *
 245:.\Generated_Source\PSoC5/cyPm.c **** *  PSoC 5:
 246:.\Generated_Source\PSoC5/cyPm.c **** *  The 130 ms is given for the megahertz crystal to stabilize. It's readiness is
 247:.\Generated_Source\PSoC5/cyPm.c **** *  not verified after the hold-off timeout.
 248:.\Generated_Source\PSoC5/cyPm.c **** *
 249:.\Generated_Source\PSoC5/cyPm.c **** * Parameters:
 250:.\Generated_Source\PSoC5/cyPm.c **** *  None
 251:.\Generated_Source\PSoC5/cyPm.c **** *
 252:.\Generated_Source\PSoC5/cyPm.c **** * Return:
ARM GAS  C:\Users\CHUCK~1.ERH\AppData\Local\Temp\cceT8Wjf.s 			page 13


 253:.\Generated_Source\PSoC5/cyPm.c **** *  None
 254:.\Generated_Source\PSoC5/cyPm.c **** *
 255:.\Generated_Source\PSoC5/cyPm.c **** *******************************************************************************/
 256:.\Generated_Source\PSoC5/cyPm.c **** void CyPmRestoreClocks(void) 
 257:.\Generated_Source\PSoC5/cyPm.c **** {
 421              		.loc 1 257 0
 422              		.cfi_startproc
 423              		@ args = 0, pretend = 0, frame = 24
 424              		@ frame_needed = 1, uses_anonymous_args = 0
 425 0000 80B5     		push	{r7, lr}
 426              	.LCFI2:
 427              		.cfi_def_cfa_offset 8
 428              		.cfi_offset 7, -8
 429              		.cfi_offset 14, -4
 430 0002 86B0     		sub	sp, sp, #24
 431              	.LCFI3:
 432              		.cfi_def_cfa_offset 32
 433 0004 00AF     		add	r7, sp, #0
 434              	.LCFI4:
 435              		.cfi_def_cfa_register 7
 258:.\Generated_Source\PSoC5/cyPm.c ****     cystatus status = CYRET_TIMEOUT;
 436              		.loc 1 258 0
 437 0006 4FF01003 		mov	r3, #16
 438 000a 3B61     		str	r3, [r7, #16]
 259:.\Generated_Source\PSoC5/cyPm.c ****     uint16 i;
 260:.\Generated_Source\PSoC5/cyPm.c ****     uint16 clkBusDivTmp;
 261:.\Generated_Source\PSoC5/cyPm.c **** 
 262:.\Generated_Source\PSoC5/cyPm.c **** 
 263:.\Generated_Source\PSoC5/cyPm.c ****     /* Convertion table between CyIMO_SetFreq() parameters and register's value */
 264:.\Generated_Source\PSoC5/cyPm.c ****     const uint8 CYCODE cyPmImoFreqMhz2Reg[7u] = {
 439              		.loc 1 264 0
 440 000c 40F20002 		movw	r2, #:lower16:.LC0
 441 0010 C0F20002 		movt	r2, #:upper16:.LC0
 442 0014 07F10403 		add	r3, r7, #4
 443 0018 1068     		ldr	r0, [r2, #0]	@ unaligned
 444 001a 1860     		str	r0, [r3, #0]	@ unaligned
 445 001c 9188     		ldrh	r1, [r2, #4]	@ unaligned
 446 001e 9279     		ldrb	r2, [r2, #6]
 447 0020 9980     		strh	r1, [r3, #4]	@ unaligned
 448 0022 9A71     		strb	r2, [r3, #6]
 265:.\Generated_Source\PSoC5/cyPm.c ****         CY_IMO_FREQ_12MHZ, CY_IMO_FREQ_6MHZ,  CY_IMO_FREQ_24MHZ, CY_IMO_FREQ_3MHZ,
 266:.\Generated_Source\PSoC5/cyPm.c ****         CY_IMO_FREQ_48MHZ, 5u, 6u};
 267:.\Generated_Source\PSoC5/cyPm.c **** 
 268:.\Generated_Source\PSoC5/cyPm.c ****     /* Restore enable state of delay between the system bus clock and ACLKs. */
 269:.\Generated_Source\PSoC5/cyPm.c ****     if(CY_PM_ENABLED == cyPmClockBackup.clkDistDelay)
 449              		.loc 1 269 0
 450 0024 40F20003 		movw	r3, #:lower16:cyPmClockBackup
 451 0028 C0F20003 		movt	r3, #:upper16:cyPmClockBackup
 452 002c 1B7C     		ldrb	r3, [r3, #16]	@ zero_extendqisi2
 453 002e 012B     		cmp	r3, #1
 454 0030 25D1     		bne	.L22
 270:.\Generated_Source\PSoC5/cyPm.c ****     {
 271:.\Generated_Source\PSoC5/cyPm.c ****         /* Delay for both the bandgap and the delay line to settle out */
 272:.\Generated_Source\PSoC5/cyPm.c ****         CyDelayCycles((uint32)(CY_PM_CLK_DELAY_BANDGAP_SETTLE_US + CY_PM_CLK_DELAY_BIAS_SETTLE_US) 
 273:.\Generated_Source\PSoC5/cyPm.c ****                         CY_PM_GET_CPU_FREQ_MHZ);
 455              		.loc 1 273 0
 456 0032 4FF48443 		mov	r3, #16896
ARM GAS  C:\Users\CHUCK~1.ERH\AppData\Local\Temp\cceT8Wjf.s 			page 14


 457 0036 C4F20003 		movt	r3, 16384
 458 003a 1B78     		ldrb	r3, [r3, #0]
 459 003c DBB2     		uxtb	r3, r3
 460 003e 03F00702 		and	r2, r3, #7
 461 0042 40F20003 		movw	r3, #:lower16:cyPmImoFreqReg2Mhz
 462 0046 C0F20003 		movt	r3, #:upper16:cyPmImoFreqReg2Mhz
 463 004a 9B5C     		ldrb	r3, [r3, r2]	@ zero_extendqisi2
 272:.\Generated_Source\PSoC5/cyPm.c ****         CyDelayCycles((uint32)(CY_PM_CLK_DELAY_BANDGAP_SETTLE_US + CY_PM_CLK_DELAY_BIAS_SETTLE_US) 
 464              		.loc 1 272 0
 465 004c 1A46     		mov	r2, r3
 466 004e 1346     		mov	r3, r2
 467 0050 4FEA8303 		lsl	r3, r3, #2
 468 0054 9B18     		adds	r3, r3, r2
 469 0056 4FEA0312 		lsl	r2, r3, #4
 470 005a D31A     		subs	r3, r2, r3
 471 005c 1846     		mov	r0, r3
 472 005e FFF7FEFF 		bl	CyDelayCycles
 274:.\Generated_Source\PSoC5/cyPm.c **** 
 275:.\Generated_Source\PSoC5/cyPm.c ****         CY_PM_CLKDIST_DELAY_REG |= CY_PM_CLKDIST_DELAY_EN;
 473              		.loc 1 275 0
 474 0062 44F20B03 		movw	r3, #16395
 475 0066 C4F20003 		movt	r3, 16384
 476 006a 44F20B02 		movw	r2, #16395
 477 006e C4F20002 		movt	r2, 16384
 478 0072 1278     		ldrb	r2, [r2, #0]
 479 0074 D2B2     		uxtb	r2, r2
 480 0076 42F00402 		orr	r2, r2, #4
 481 007a D2B2     		uxtb	r2, r2
 482 007c 1A70     		strb	r2, [r3, #0]
 483              	.L22:
 276:.\Generated_Source\PSoC5/cyPm.c ****     }
 277:.\Generated_Source\PSoC5/cyPm.c **** 
 278:.\Generated_Source\PSoC5/cyPm.c ****     /* MHz ECO restore state */
 279:.\Generated_Source\PSoC5/cyPm.c ****     if(CY_PM_ENABLED == cyPmClockBackup.xmhzEnableState)
 484              		.loc 1 279 0
 485 007e 40F20003 		movw	r3, #:lower16:cyPmClockBackup
 486 0082 C0F20003 		movt	r3, #:upper16:cyPmClockBackup
 487 0086 DB7B     		ldrb	r3, [r3, #15]	@ zero_extendqisi2
 488 0088 012B     		cmp	r3, #1
 489 008a 35D1     		bne	.L23
 280:.\Generated_Source\PSoC5/cyPm.c ****     {
 281:.\Generated_Source\PSoC5/cyPm.c ****         /***********************************************************************
 282:.\Generated_Source\PSoC5/cyPm.c ****         * Enabling XMHZ XTAL. The actual CyXTAL_Start() with non zero wait
 283:.\Generated_Source\PSoC5/cyPm.c ****         * period uses FTW for period measurement. This could cause a problem
 284:.\Generated_Source\PSoC5/cyPm.c ****         * if CTW/FTW is used as a wake up time in the low power modes APIs.
 285:.\Generated_Source\PSoC5/cyPm.c ****         * So, the XTAL wait procedure is implemented with a software delay.
 286:.\Generated_Source\PSoC5/cyPm.c ****         ***********************************************************************/
 287:.\Generated_Source\PSoC5/cyPm.c **** 
 288:.\Generated_Source\PSoC5/cyPm.c ****         /* Enable XMHZ XTAL with no wait */
 289:.\Generated_Source\PSoC5/cyPm.c ****         (void) CyXTAL_Start(CY_PM_XTAL_MHZ_NO_WAIT);
 490              		.loc 1 289 0
 491 008c 4FF00000 		mov	r0, #0
 492 0090 FFF7FEFF 		bl	CyXTAL_Start
 290:.\Generated_Source\PSoC5/cyPm.c **** 
 291:.\Generated_Source\PSoC5/cyPm.c ****         /* Read XERR bit to clear it */
 292:.\Generated_Source\PSoC5/cyPm.c ****         (void) CY_PM_FASTCLK_XMHZ_CSR_REG;
 493              		.loc 1 292 0
ARM GAS  C:\Users\CHUCK~1.ERH\AppData\Local\Temp\cceT8Wjf.s 			page 15


 494 0094 44F21023 		movw	r3, #16912
 495 0098 C4F20003 		movt	r3, 16384
 496 009c 1B78     		ldrb	r3, [r3, #0]
 293:.\Generated_Source\PSoC5/cyPm.c **** 
 294:.\Generated_Source\PSoC5/cyPm.c ****         /* Wait */
 295:.\Generated_Source\PSoC5/cyPm.c ****         for(i = CY_PM_MHZ_XTAL_WAIT_NUM_OF_200_US; i > 0u; i--)
 497              		.loc 1 295 0
 498 009e 4FF00503 		mov	r3, #5
 499 00a2 FB82     		strh	r3, [r7, #22]	@ movhi
 500 00a4 25E0     		b	.L24
 501              	.L27:
 296:.\Generated_Source\PSoC5/cyPm.c ****         {
 297:.\Generated_Source\PSoC5/cyPm.c ****             /* Make a 200 microseconds delay */
 298:.\Generated_Source\PSoC5/cyPm.c ****             CyDelayCycles((uint32)CY_PM_WAIT_200_US * CY_PM_GET_CPU_FREQ_MHZ);
 502              		.loc 1 298 0
 503 00a6 4FF48443 		mov	r3, #16896
 504 00aa C4F20003 		movt	r3, 16384
 505 00ae 1B78     		ldrb	r3, [r3, #0]
 506 00b0 DBB2     		uxtb	r3, r3
 507 00b2 03F00702 		and	r2, r3, #7
 508 00b6 40F20003 		movw	r3, #:lower16:cyPmImoFreqReg2Mhz
 509 00ba C0F20003 		movt	r3, #:upper16:cyPmImoFreqReg2Mhz
 510 00be 9B5C     		ldrb	r3, [r3, r2]	@ zero_extendqisi2
 511 00c0 4FF0C802 		mov	r2, #200
 512 00c4 02FB03F3 		mul	r3, r2, r3
 513 00c8 1846     		mov	r0, r3
 514 00ca FFF7FEFF 		bl	CyDelayCycles
 299:.\Generated_Source\PSoC5/cyPm.c **** 
 300:.\Generated_Source\PSoC5/cyPm.c ****             /* High output indicates oscillator failure */
 301:.\Generated_Source\PSoC5/cyPm.c ****             if(0u == (CY_PM_FASTCLK_XMHZ_CSR_REG & CY_PM_XMHZ_CSR_XERR))
 515              		.loc 1 301 0
 516 00ce 44F21023 		movw	r3, #16912
 517 00d2 C4F20003 		movt	r3, 16384
 518 00d6 1B78     		ldrb	r3, [r3, #0]
 519 00d8 DBB2     		uxtb	r3, r3
 520 00da DBB2     		uxtb	r3, r3
 521 00dc 5BB2     		sxtb	r3, r3
 522 00de 002B     		cmp	r3, #0
 523 00e0 03DB     		blt	.L25
 302:.\Generated_Source\PSoC5/cyPm.c ****             {
 303:.\Generated_Source\PSoC5/cyPm.c ****                 status = CYRET_SUCCESS;
 524              		.loc 1 303 0
 525 00e2 4FF00003 		mov	r3, #0
 526 00e6 3B61     		str	r3, [r7, #16]
 304:.\Generated_Source\PSoC5/cyPm.c ****                 break;
 527              		.loc 1 304 0
 528 00e8 06E0     		b	.L23
 529              	.L25:
 295:.\Generated_Source\PSoC5/cyPm.c ****         for(i = CY_PM_MHZ_XTAL_WAIT_NUM_OF_200_US; i > 0u; i--)
 530              		.loc 1 295 0
 531 00ea FB8A     		ldrh	r3, [r7, #22]	@ movhi
 532 00ec 03F1FF33 		add	r3, r3, #-1
 533 00f0 FB82     		strh	r3, [r7, #22]	@ movhi
 534              	.L24:
 295:.\Generated_Source\PSoC5/cyPm.c ****         for(i = CY_PM_MHZ_XTAL_WAIT_NUM_OF_200_US; i > 0u; i--)
 535              		.loc 1 295 0 is_stmt 0 discriminator 1
 536 00f2 FB8A     		ldrh	r3, [r7, #22]
ARM GAS  C:\Users\CHUCK~1.ERH\AppData\Local\Temp\cceT8Wjf.s 			page 16


 537 00f4 002B     		cmp	r3, #0
 538 00f6 D6D1     		bne	.L27
 539              	.L23:
 305:.\Generated_Source\PSoC5/cyPm.c ****             }
 306:.\Generated_Source\PSoC5/cyPm.c ****         }
 307:.\Generated_Source\PSoC5/cyPm.c **** 
 308:.\Generated_Source\PSoC5/cyPm.c ****         if(CYRET_TIMEOUT == status)
 309:.\Generated_Source\PSoC5/cyPm.c ****         {
 310:.\Generated_Source\PSoC5/cyPm.c ****             /*******************************************************************
 311:.\Generated_Source\PSoC5/cyPm.c ****             * Process the situation when megahertz crystal is not ready.
 312:.\Generated_Source\PSoC5/cyPm.c ****             * Time to stabialize value is crystal specific.
 313:.\Generated_Source\PSoC5/cyPm.c ****             *******************************************************************/
 314:.\Generated_Source\PSoC5/cyPm.c ****            /* `#START_MHZ_ECO_TIMEOUT` */
 315:.\Generated_Source\PSoC5/cyPm.c **** 
 316:.\Generated_Source\PSoC5/cyPm.c ****            /* `#END` */
 317:.\Generated_Source\PSoC5/cyPm.c ****         }
 318:.\Generated_Source\PSoC5/cyPm.c ****     }   /* (CY_PM_ENABLED == cyPmClockBackup.xmhzEnableState) */
 319:.\Generated_Source\PSoC5/cyPm.c **** 
 320:.\Generated_Source\PSoC5/cyPm.c **** 
 321:.\Generated_Source\PSoC5/cyPm.c ****     /* Temprorary set the maximum flash wait cycles */
 322:.\Generated_Source\PSoC5/cyPm.c ****     CyFlash_SetWaitCycles(CY_PM_MAX_FLASH_WAIT_CYCLES);
 540              		.loc 1 322 0 is_stmt 1
 541 00f8 4FF03700 		mov	r0, #55
 542 00fc FFF7FEFF 		bl	CyFlash_SetWaitCycles
 323:.\Generated_Source\PSoC5/cyPm.c **** 
 324:.\Generated_Source\PSoC5/cyPm.c ****     /* The XTAL and DSI clocks are ready to be source for Master clock. */
 325:.\Generated_Source\PSoC5/cyPm.c ****     if((CY_PM_MASTER_CLK_SRC_XTAL == cyPmClockBackup.masterClkSrc) ||
 543              		.loc 1 325 0
 544 0100 40F20003 		movw	r3, #:lower16:cyPmClockBackup
 545 0104 C0F20003 		movt	r3, #:upper16:cyPmClockBackup
 546 0108 9B78     		ldrb	r3, [r3, #2]	@ zero_extendqisi2
 547 010a 022B     		cmp	r3, #2
 548 010c 06D0     		beq	.L28
 326:.\Generated_Source\PSoC5/cyPm.c ****        (CY_PM_MASTER_CLK_SRC_DSI  == cyPmClockBackup.masterClkSrc))
 549              		.loc 1 326 0 discriminator 1
 550 010e 40F20003 		movw	r3, #:lower16:cyPmClockBackup
 551 0112 C0F20003 		movt	r3, #:upper16:cyPmClockBackup
 552 0116 9B78     		ldrb	r3, [r3, #2]	@ zero_extendqisi2
 325:.\Generated_Source\PSoC5/cyPm.c ****     if((CY_PM_MASTER_CLK_SRC_XTAL == cyPmClockBackup.masterClkSrc) ||
 553              		.loc 1 325 0 discriminator 1
 554 0118 032B     		cmp	r3, #3
 555 011a 1CD1     		bne	.L29
 556              	.L28:
 327:.\Generated_Source\PSoC5/cyPm.c ****     {
 328:.\Generated_Source\PSoC5/cyPm.c ****         /* Restore Master clock's divider */
 329:.\Generated_Source\PSoC5/cyPm.c ****         if(CY_PM_CLKDIST_MSTR0_REG != cyPmClockBackup.clkSyncDiv)
 557              		.loc 1 329 0
 558 011c 44F20403 		movw	r3, #16388
 559 0120 C4F20003 		movt	r3, 16384
 560 0124 1B78     		ldrb	r3, [r3, #0]
 561 0126 DAB2     		uxtb	r2, r3
 562 0128 40F20003 		movw	r3, #:lower16:cyPmClockBackup
 563 012c C0F20003 		movt	r3, #:upper16:cyPmClockBackup
 564 0130 9B7A     		ldrb	r3, [r3, #10]	@ zero_extendqisi2
 565 0132 9A42     		cmp	r2, r3
 566 0134 07D0     		beq	.L30
 330:.\Generated_Source\PSoC5/cyPm.c ****         {
ARM GAS  C:\Users\CHUCK~1.ERH\AppData\Local\Temp\cceT8Wjf.s 			page 17


 331:.\Generated_Source\PSoC5/cyPm.c ****             /* Restore Master clock divider */
 332:.\Generated_Source\PSoC5/cyPm.c ****             CyMasterClk_SetDivider(cyPmClockBackup.clkSyncDiv);
 567              		.loc 1 332 0
 568 0136 40F20003 		movw	r3, #:lower16:cyPmClockBackup
 569 013a C0F20003 		movt	r3, #:upper16:cyPmClockBackup
 570 013e 9B7A     		ldrb	r3, [r3, #10]	@ zero_extendqisi2
 571 0140 1846     		mov	r0, r3
 572 0142 FFF7FEFF 		bl	CyMasterClk_SetDivider
 573              	.L30:
 333:.\Generated_Source\PSoC5/cyPm.c ****         }
 334:.\Generated_Source\PSoC5/cyPm.c **** 
 335:.\Generated_Source\PSoC5/cyPm.c ****         /* Restore Master clock source */
 336:.\Generated_Source\PSoC5/cyPm.c ****         CyMasterClk_SetSource(cyPmClockBackup.masterClkSrc);
 574              		.loc 1 336 0
 575 0146 40F20003 		movw	r3, #:lower16:cyPmClockBackup
 576 014a C0F20003 		movt	r3, #:upper16:cyPmClockBackup
 577 014e 9B78     		ldrb	r3, [r3, #2]	@ zero_extendqisi2
 578 0150 1846     		mov	r0, r3
 579 0152 FFF7FEFF 		bl	CyMasterClk_SetSource
 580              	.L29:
 337:.\Generated_Source\PSoC5/cyPm.c ****     }
 338:.\Generated_Source\PSoC5/cyPm.c **** 
 339:.\Generated_Source\PSoC5/cyPm.c ****     /* IMO - restore IMO frequency */
 340:.\Generated_Source\PSoC5/cyPm.c ****     if((0u != (cyPmClockBackup.imoUsbClk & CY_PM_FASTCLK_IMO_CR_USB)) &&
 581              		.loc 1 340 0
 582 0156 40F20003 		movw	r3, #:lower16:cyPmClockBackup
 583 015a C0F20003 		movt	r3, #:upper16:cyPmClockBackup
 584 015e 1B79     		ldrb	r3, [r3, #4]	@ zero_extendqisi2
 585 0160 03F04003 		and	r3, r3, #64
 586 0164 002B     		cmp	r3, #0
 587 0166 10D0     		beq	.L31
 341:.\Generated_Source\PSoC5/cyPm.c ****         (CY_IMO_FREQ_24MHZ == cyPmImoFreqMhz2Reg[cyPmClockBackup.imoFreq]))
 588              		.loc 1 341 0 discriminator 1
 589 0168 40F20003 		movw	r3, #:lower16:cyPmClockBackup
 590 016c C0F20003 		movt	r3, #:upper16:cyPmClockBackup
 591 0170 DB78     		ldrb	r3, [r3, #3]	@ zero_extendqisi2
 592 0172 07F11802 		add	r2, r7, #24
 593 0176 D318     		adds	r3, r2, r3
 594 0178 13F8143C 		ldrb	r3, [r3, #-20]	@ zero_extendqisi2
 340:.\Generated_Source\PSoC5/cyPm.c ****     if((0u != (cyPmClockBackup.imoUsbClk & CY_PM_FASTCLK_IMO_CR_USB)) &&
 595              		.loc 1 340 0 discriminator 1
 596 017c 032B     		cmp	r3, #3
 597 017e 04D1     		bne	.L31
 342:.\Generated_Source\PSoC5/cyPm.c ****     {
 343:.\Generated_Source\PSoC5/cyPm.c ****         /* Restore IMO frequency (24 MHz) and trim it for USB */
 344:.\Generated_Source\PSoC5/cyPm.c ****         CyIMO_SetFreq(CY_IMO_FREQ_USB);
 598              		.loc 1 344 0
 599 0180 4FF00800 		mov	r0, #8
 600 0184 FFF7FEFF 		bl	CyIMO_SetFreq
 601 0188 32E0     		b	.L32
 602              	.L31:
 345:.\Generated_Source\PSoC5/cyPm.c ****     }
 346:.\Generated_Source\PSoC5/cyPm.c ****     else
 347:.\Generated_Source\PSoC5/cyPm.c ****     {
 348:.\Generated_Source\PSoC5/cyPm.c ****         /* Restore IMO frequency */
 349:.\Generated_Source\PSoC5/cyPm.c ****         CyIMO_SetFreq(cyPmImoFreqMhz2Reg[cyPmClockBackup.imoFreq]);
 603              		.loc 1 349 0
ARM GAS  C:\Users\CHUCK~1.ERH\AppData\Local\Temp\cceT8Wjf.s 			page 18


 604 018a 40F20003 		movw	r3, #:lower16:cyPmClockBackup
 605 018e C0F20003 		movt	r3, #:upper16:cyPmClockBackup
 606 0192 DB78     		ldrb	r3, [r3, #3]	@ zero_extendqisi2
 607 0194 07F11802 		add	r2, r7, #24
 608 0198 D318     		adds	r3, r2, r3
 609 019a 13F8143C 		ldrb	r3, [r3, #-20]	@ zero_extendqisi2
 610 019e 1846     		mov	r0, r3
 611 01a0 FFF7FEFF 		bl	CyIMO_SetFreq
 350:.\Generated_Source\PSoC5/cyPm.c **** 
 351:.\Generated_Source\PSoC5/cyPm.c ****         if(0u != (cyPmClockBackup.imoUsbClk & CY_PM_FASTCLK_IMO_CR_USB))
 612              		.loc 1 351 0
 613 01a4 40F20003 		movw	r3, #:lower16:cyPmClockBackup
 614 01a8 C0F20003 		movt	r3, #:upper16:cyPmClockBackup
 615 01ac 1B79     		ldrb	r3, [r3, #4]	@ zero_extendqisi2
 616 01ae 03F04003 		and	r3, r3, #64
 617 01b2 002B     		cmp	r3, #0
 618 01b4 0ED0     		beq	.L33
 352:.\Generated_Source\PSoC5/cyPm.c ****         {
 353:.\Generated_Source\PSoC5/cyPm.c ****             CY_PM_FASTCLK_IMO_CR_REG |= CY_PM_FASTCLK_IMO_CR_USB;
 619              		.loc 1 353 0
 620 01b6 4FF48443 		mov	r3, #16896
 621 01ba C4F20003 		movt	r3, 16384
 622 01be 4FF48442 		mov	r2, #16896
 623 01c2 C4F20002 		movt	r2, 16384
 624 01c6 1278     		ldrb	r2, [r2, #0]
 625 01c8 D2B2     		uxtb	r2, r2
 626 01ca 42F04002 		orr	r2, r2, #64
 627 01ce D2B2     		uxtb	r2, r2
 628 01d0 1A70     		strb	r2, [r3, #0]
 629 01d2 0DE0     		b	.L32
 630              	.L33:
 354:.\Generated_Source\PSoC5/cyPm.c ****         }
 355:.\Generated_Source\PSoC5/cyPm.c ****         else
 356:.\Generated_Source\PSoC5/cyPm.c ****         {
 357:.\Generated_Source\PSoC5/cyPm.c ****             CY_PM_FASTCLK_IMO_CR_REG &= ((uint8)(~CY_PM_FASTCLK_IMO_CR_USB));
 631              		.loc 1 357 0
 632 01d4 4FF48443 		mov	r3, #16896
 633 01d8 C4F20003 		movt	r3, 16384
 634 01dc 4FF48442 		mov	r2, #16896
 635 01e0 C4F20002 		movt	r2, 16384
 636 01e4 1278     		ldrb	r2, [r2, #0]
 637 01e6 D2B2     		uxtb	r2, r2
 638 01e8 22F04002 		bic	r2, r2, #64
 639 01ec D2B2     		uxtb	r2, r2
 640 01ee 1A70     		strb	r2, [r3, #0]
 641              	.L32:
 358:.\Generated_Source\PSoC5/cyPm.c ****         }
 359:.\Generated_Source\PSoC5/cyPm.c ****     }
 360:.\Generated_Source\PSoC5/cyPm.c **** 
 361:.\Generated_Source\PSoC5/cyPm.c ****     /* IMO - restore enable state if needed */
 362:.\Generated_Source\PSoC5/cyPm.c ****     if((CY_PM_ENABLED == cyPmClockBackup.imoEnable) &&
 642              		.loc 1 362 0
 643 01f0 40F20003 		movw	r3, #:lower16:cyPmClockBackup
 644 01f4 C0F20003 		movt	r3, #:upper16:cyPmClockBackup
 645 01f8 9B79     		ldrb	r3, [r3, #6]	@ zero_extendqisi2
 646 01fa 012B     		cmp	r3, #1
 647 01fc 0ED1     		bne	.L34
ARM GAS  C:\Users\CHUCK~1.ERH\AppData\Local\Temp\cceT8Wjf.s 			page 19


 363:.\Generated_Source\PSoC5/cyPm.c ****        (0u == (CY_PM_ACT_CFG0_IMO & CY_PM_ACT_CFG0_REG)))
 648              		.loc 1 363 0 discriminator 1
 649 01fe 44F2A033 		movw	r3, #17312
 650 0202 C4F20003 		movt	r3, 16384
 651 0206 1B78     		ldrb	r3, [r3, #0]
 652 0208 DBB2     		uxtb	r3, r3
 653 020a 03F01003 		and	r3, r3, #16
 654 020e DBB2     		uxtb	r3, r3
 362:.\Generated_Source\PSoC5/cyPm.c ****     if((CY_PM_ENABLED == cyPmClockBackup.imoEnable) &&
 655              		.loc 1 362 0 discriminator 1
 656 0210 002B     		cmp	r3, #0
 657 0212 03D1     		bne	.L34
 364:.\Generated_Source\PSoC5/cyPm.c ****     {
 365:.\Generated_Source\PSoC5/cyPm.c ****         /* IMO - restore enabled state */
 366:.\Generated_Source\PSoC5/cyPm.c ****         CyIMO_Start(CY_PM_IMO_NO_WAIT_TO_SETTLE);
 658              		.loc 1 366 0
 659 0214 4FF00000 		mov	r0, #0
 660 0218 FFF7FEFF 		bl	CyIMO_Start
 661              	.L34:
 367:.\Generated_Source\PSoC5/cyPm.c ****     }
 368:.\Generated_Source\PSoC5/cyPm.c **** 
 369:.\Generated_Source\PSoC5/cyPm.c ****     /* IMO - restore disable state if needed */
 370:.\Generated_Source\PSoC5/cyPm.c ****     if((CY_PM_DISABLED == cyPmClockBackup.imoEnable) &&
 662              		.loc 1 370 0
 663 021c 40F20003 		movw	r3, #:lower16:cyPmClockBackup
 664 0220 C0F20003 		movt	r3, #:upper16:cyPmClockBackup
 665 0224 9B79     		ldrb	r3, [r3, #6]	@ zero_extendqisi2
 666 0226 002B     		cmp	r3, #0
 667 0228 0CD1     		bne	.L35
 371:.\Generated_Source\PSoC5/cyPm.c ****        (0u != (CY_PM_ACT_CFG0_IMO & CY_PM_ACT_CFG0_REG)))
 668              		.loc 1 371 0 discriminator 1
 669 022a 44F2A033 		movw	r3, #17312
 670 022e C4F20003 		movt	r3, 16384
 671 0232 1B78     		ldrb	r3, [r3, #0]
 672 0234 DBB2     		uxtb	r3, r3
 673 0236 03F01003 		and	r3, r3, #16
 674 023a DBB2     		uxtb	r3, r3
 370:.\Generated_Source\PSoC5/cyPm.c ****     if((CY_PM_DISABLED == cyPmClockBackup.imoEnable) &&
 675              		.loc 1 370 0 discriminator 1
 676 023c 002B     		cmp	r3, #0
 677 023e 01D0     		beq	.L35
 372:.\Generated_Source\PSoC5/cyPm.c ****     {
 373:.\Generated_Source\PSoC5/cyPm.c ****         CyIMO_Stop();
 678              		.loc 1 373 0
 679 0240 FFF7FEFF 		bl	CyIMO_Stop
 680              	.L35:
 374:.\Generated_Source\PSoC5/cyPm.c ****     }
 375:.\Generated_Source\PSoC5/cyPm.c **** 
 376:.\Generated_Source\PSoC5/cyPm.c ****     /* IMO - restore IMOCLK source */
 377:.\Generated_Source\PSoC5/cyPm.c ****     CyIMO_SetSource(cyPmClockBackup.imoClkSrc);
 681              		.loc 1 377 0
 682 0244 40F20003 		movw	r3, #:lower16:cyPmClockBackup
 683 0248 C0F20003 		movt	r3, #:upper16:cyPmClockBackup
 684 024c DB79     		ldrb	r3, [r3, #7]	@ zero_extendqisi2
 685 024e 1846     		mov	r0, r3
 686 0250 FFF7FEFF 		bl	CyIMO_SetSource
 378:.\Generated_Source\PSoC5/cyPm.c **** 
ARM GAS  C:\Users\CHUCK~1.ERH\AppData\Local\Temp\cceT8Wjf.s 			page 20


 379:.\Generated_Source\PSoC5/cyPm.c ****     /* Restore IMO doubler enable state (turned off by CyPmSaveClocks()) */
 380:.\Generated_Source\PSoC5/cyPm.c ****     if(CY_PM_ENABLED == cyPmClockBackup.imo2x)
 687              		.loc 1 380 0
 688 0254 40F20003 		movw	r3, #:lower16:cyPmClockBackup
 689 0258 C0F20003 		movt	r3, #:upper16:cyPmClockBackup
 690 025c 5B7A     		ldrb	r3, [r3, #9]	@ zero_extendqisi2
 691 025e 012B     		cmp	r3, #1
 692 0260 01D1     		bne	.L36
 381:.\Generated_Source\PSoC5/cyPm.c ****     {
 382:.\Generated_Source\PSoC5/cyPm.c ****         CyIMO_EnableDoubler();
 693              		.loc 1 382 0
 694 0262 FFF7FEFF 		bl	CyIMO_EnableDoubler
 695              	.L36:
 383:.\Generated_Source\PSoC5/cyPm.c ****     }
 384:.\Generated_Source\PSoC5/cyPm.c **** 
 385:.\Generated_Source\PSoC5/cyPm.c ****     /* IMO - restore clk_imo source, if needed */
 386:.\Generated_Source\PSoC5/cyPm.c ****     if(cyPmClockBackup.clkImoSrc != (CY_PM_CLKDIST_CR_REG & CY_PM_CLKDIST_IMO_OUT_MASK))
 696              		.loc 1 386 0
 697 0266 40F20003 		movw	r3, #:lower16:cyPmClockBackup
 698 026a C0F20003 		movt	r3, #:upper16:cyPmClockBackup
 699 026e 1B7A     		ldrb	r3, [r3, #8]	@ zero_extendqisi2
 700 0270 1A46     		mov	r2, r3
 701 0272 4FF04023 		mov	r3, #1073758208
 702 0276 1B78     		ldrb	r3, [r3, #0]
 703 0278 DBB2     		uxtb	r3, r3
 704 027a 03F03003 		and	r3, r3, #48
 705 027e 9A42     		cmp	r2, r3
 706 0280 13D0     		beq	.L37
 387:.\Generated_Source\PSoC5/cyPm.c ****     {
 388:.\Generated_Source\PSoC5/cyPm.c ****         CY_PM_CLKDIST_CR_REG = (CY_PM_CLKDIST_CR_REG & ((uint8)(~CY_PM_CLKDIST_IMO_OUT_MASK))) |
 707              		.loc 1 388 0
 708 0282 4FF04022 		mov	r2, #1073758208
 709 0286 4FF04023 		mov	r3, #1073758208
 710 028a 1B78     		ldrb	r3, [r3, #0]
 711 028c DBB2     		uxtb	r3, r3
 712 028e DBB2     		uxtb	r3, r3
 713 0290 23F03003 		bic	r3, r3, #48
 714 0294 D9B2     		uxtb	r1, r3
 389:.\Generated_Source\PSoC5/cyPm.c ****                                 cyPmClockBackup.clkImoSrc;
 715              		.loc 1 389 0
 716 0296 40F20003 		movw	r3, #:lower16:cyPmClockBackup
 717 029a C0F20003 		movt	r3, #:upper16:cyPmClockBackup
 718 029e 1B7A     		ldrb	r3, [r3, #8]	@ zero_extendqisi2
 388:.\Generated_Source\PSoC5/cyPm.c ****         CY_PM_CLKDIST_CR_REG = (CY_PM_CLKDIST_CR_REG & ((uint8)(~CY_PM_CLKDIST_IMO_OUT_MASK))) |
 719              		.loc 1 388 0
 720 02a0 DBB2     		uxtb	r3, r3
 721 02a2 0B43     		orrs	r3, r3, r1
 722 02a4 DBB2     		uxtb	r3, r3
 723 02a6 DBB2     		uxtb	r3, r3
 724 02a8 1370     		strb	r3, [r2, #0]
 725              	.L37:
 390:.\Generated_Source\PSoC5/cyPm.c ****     }
 391:.\Generated_Source\PSoC5/cyPm.c **** 
 392:.\Generated_Source\PSoC5/cyPm.c ****     /* PLL restore state */
 393:.\Generated_Source\PSoC5/cyPm.c ****     if(CY_PM_ENABLED == cyPmClockBackup.pllEnableState)
 726              		.loc 1 393 0
 727 02aa 40F20003 		movw	r3, #:lower16:cyPmClockBackup
ARM GAS  C:\Users\CHUCK~1.ERH\AppData\Local\Temp\cceT8Wjf.s 			page 21


 728 02ae C0F20003 		movt	r3, #:upper16:cyPmClockBackup
 729 02b2 9B7B     		ldrb	r3, [r3, #14]	@ zero_extendqisi2
 730 02b4 012B     		cmp	r3, #1
 731 02b6 17D1     		bne	.L38
 394:.\Generated_Source\PSoC5/cyPm.c ****     {
 395:.\Generated_Source\PSoC5/cyPm.c ****         /***********************************************************************
 396:.\Generated_Source\PSoC5/cyPm.c ****         * Enable PLL. The actual CyPLL_OUT_Start() without wait period uses FTW
 397:.\Generated_Source\PSoC5/cyPm.c ****         * for period measurement. This could cause a problem if CTW/FTW is used
 398:.\Generated_Source\PSoC5/cyPm.c ****         * as a wakeup time in the low power modes APIs. To omit this issue PLL
 399:.\Generated_Source\PSoC5/cyPm.c ****         * wait procedure is implemented with a software delay.
 400:.\Generated_Source\PSoC5/cyPm.c ****         ***********************************************************************/
 401:.\Generated_Source\PSoC5/cyPm.c **** 
 402:.\Generated_Source\PSoC5/cyPm.c ****         /* Enable PLL */
 403:.\Generated_Source\PSoC5/cyPm.c ****         (void) CyPLL_OUT_Start(CY_PM_PLL_OUT_NO_WAIT);
 732              		.loc 1 403 0
 733 02b8 4FF00000 		mov	r0, #0
 734 02bc FFF7FEFF 		bl	CyPLL_OUT_Start
 404:.\Generated_Source\PSoC5/cyPm.c **** 
 405:.\Generated_Source\PSoC5/cyPm.c ****         /* Make a 250 us delay */
 406:.\Generated_Source\PSoC5/cyPm.c ****         CyDelayCycles((uint32)CY_PM_WAIT_250_US * CY_PM_GET_CPU_FREQ_MHZ);
 735              		.loc 1 406 0
 736 02c0 4FF48443 		mov	r3, #16896
 737 02c4 C4F20003 		movt	r3, 16384
 738 02c8 1B78     		ldrb	r3, [r3, #0]
 739 02ca DBB2     		uxtb	r3, r3
 740 02cc 03F00702 		and	r2, r3, #7
 741 02d0 40F20003 		movw	r3, #:lower16:cyPmImoFreqReg2Mhz
 742 02d4 C0F20003 		movt	r3, #:upper16:cyPmImoFreqReg2Mhz
 743 02d8 9B5C     		ldrb	r3, [r3, r2]	@ zero_extendqisi2
 744 02da 4FF0FA02 		mov	r2, #250
 745 02de 02FB03F3 		mul	r3, r2, r3
 746 02e2 1846     		mov	r0, r3
 747 02e4 FFF7FEFF 		bl	CyDelayCycles
 748              	.L38:
 407:.\Generated_Source\PSoC5/cyPm.c ****     }   /* (CY_PM_ENABLED == cyPmClockBackup.pllEnableState) */
 408:.\Generated_Source\PSoC5/cyPm.c **** 
 409:.\Generated_Source\PSoC5/cyPm.c **** 
 410:.\Generated_Source\PSoC5/cyPm.c ****     /* PLL and IMO is ready to be source for Master clock */
 411:.\Generated_Source\PSoC5/cyPm.c ****     if((CY_PM_MASTER_CLK_SRC_IMO == cyPmClockBackup.masterClkSrc) ||
 749              		.loc 1 411 0
 750 02e8 40F20003 		movw	r3, #:lower16:cyPmClockBackup
 751 02ec C0F20003 		movt	r3, #:upper16:cyPmClockBackup
 752 02f0 9B78     		ldrb	r3, [r3, #2]	@ zero_extendqisi2
 753 02f2 002B     		cmp	r3, #0
 754 02f4 06D0     		beq	.L39
 412:.\Generated_Source\PSoC5/cyPm.c ****        (CY_PM_MASTER_CLK_SRC_PLL == cyPmClockBackup.masterClkSrc))
 755              		.loc 1 412 0 discriminator 1
 756 02f6 40F20003 		movw	r3, #:lower16:cyPmClockBackup
 757 02fa C0F20003 		movt	r3, #:upper16:cyPmClockBackup
 758 02fe 9B78     		ldrb	r3, [r3, #2]	@ zero_extendqisi2
 411:.\Generated_Source\PSoC5/cyPm.c ****     if((CY_PM_MASTER_CLK_SRC_IMO == cyPmClockBackup.masterClkSrc) ||
 759              		.loc 1 411 0 discriminator 1
 760 0300 012B     		cmp	r3, #1
 761 0302 1CD1     		bne	.L40
 762              	.L39:
 413:.\Generated_Source\PSoC5/cyPm.c ****     {
 414:.\Generated_Source\PSoC5/cyPm.c ****         /* Restore Master clock divider */
ARM GAS  C:\Users\CHUCK~1.ERH\AppData\Local\Temp\cceT8Wjf.s 			page 22


 415:.\Generated_Source\PSoC5/cyPm.c ****         if(CY_PM_CLKDIST_MSTR0_REG != cyPmClockBackup.clkSyncDiv)
 763              		.loc 1 415 0
 764 0304 44F20403 		movw	r3, #16388
 765 0308 C4F20003 		movt	r3, 16384
 766 030c 1B78     		ldrb	r3, [r3, #0]
 767 030e DAB2     		uxtb	r2, r3
 768 0310 40F20003 		movw	r3, #:lower16:cyPmClockBackup
 769 0314 C0F20003 		movt	r3, #:upper16:cyPmClockBackup
 770 0318 9B7A     		ldrb	r3, [r3, #10]	@ zero_extendqisi2
 771 031a 9A42     		cmp	r2, r3
 772 031c 07D0     		beq	.L41
 416:.\Generated_Source\PSoC5/cyPm.c ****         {
 417:.\Generated_Source\PSoC5/cyPm.c ****             CyMasterClk_SetDivider(cyPmClockBackup.clkSyncDiv);
 773              		.loc 1 417 0
 774 031e 40F20003 		movw	r3, #:lower16:cyPmClockBackup
 775 0322 C0F20003 		movt	r3, #:upper16:cyPmClockBackup
 776 0326 9B7A     		ldrb	r3, [r3, #10]	@ zero_extendqisi2
 777 0328 1846     		mov	r0, r3
 778 032a FFF7FEFF 		bl	CyMasterClk_SetDivider
 779              	.L41:
 418:.\Generated_Source\PSoC5/cyPm.c ****         }
 419:.\Generated_Source\PSoC5/cyPm.c **** 
 420:.\Generated_Source\PSoC5/cyPm.c ****         /* Restore Master clock source */
 421:.\Generated_Source\PSoC5/cyPm.c ****         CyMasterClk_SetSource(cyPmClockBackup.masterClkSrc);
 780              		.loc 1 421 0
 781 032e 40F20003 		movw	r3, #:lower16:cyPmClockBackup
 782 0332 C0F20003 		movt	r3, #:upper16:cyPmClockBackup
 783 0336 9B78     		ldrb	r3, [r3, #2]	@ zero_extendqisi2
 784 0338 1846     		mov	r0, r3
 785 033a FFF7FEFF 		bl	CyMasterClk_SetSource
 786              	.L40:
 422:.\Generated_Source\PSoC5/cyPm.c ****     }
 423:.\Generated_Source\PSoC5/cyPm.c **** 
 424:.\Generated_Source\PSoC5/cyPm.c ****     /* Bus clock - restore divider, if needed */
 425:.\Generated_Source\PSoC5/cyPm.c ****     clkBusDivTmp = (uint16) ((uint16)CY_PM_CLK_BUS_MSB_DIV_REG << 8u);
 787              		.loc 1 425 0
 788 033e 44F20703 		movw	r3, #16391
 789 0342 C4F20003 		movt	r3, 16384
 790 0346 1B78     		ldrb	r3, [r3, #0]
 791 0348 DBB2     		uxtb	r3, r3
 792 034a 4FEA0323 		lsl	r3, r3, #8
 793 034e FB81     		strh	r3, [r7, #14]	@ movhi
 426:.\Generated_Source\PSoC5/cyPm.c ****     clkBusDivTmp |= CY_PM_CLK_BUS_LSB_DIV_REG;
 794              		.loc 1 426 0
 795 0350 44F20603 		movw	r3, #16390
 796 0354 C4F20003 		movt	r3, 16384
 797 0358 1B78     		ldrb	r3, [r3, #0]
 798 035a DBB2     		uxtb	r3, r3
 799 035c 1A46     		mov	r2, r3
 800 035e FB89     		ldrh	r3, [r7, #14]	@ movhi
 801 0360 1343     		orrs	r3, r3, r2
 802 0362 FB81     		strh	r3, [r7, #14]	@ movhi
 427:.\Generated_Source\PSoC5/cyPm.c ****     if(cyPmClockBackup.clkBusDiv != clkBusDivTmp)
 803              		.loc 1 427 0
 804 0364 40F20003 		movw	r3, #:lower16:cyPmClockBackup
 805 0368 C0F20003 		movt	r3, #:upper16:cyPmClockBackup
 806 036c 9B89     		ldrh	r3, [r3, #12]
ARM GAS  C:\Users\CHUCK~1.ERH\AppData\Local\Temp\cceT8Wjf.s 			page 23


 807 036e FA89     		ldrh	r2, [r7, #14]
 808 0370 9A42     		cmp	r2, r3
 809 0372 07D0     		beq	.L42
 428:.\Generated_Source\PSoC5/cyPm.c ****     {
 429:.\Generated_Source\PSoC5/cyPm.c ****         CyBusClk_SetDivider(cyPmClockBackup.clkBusDiv);
 810              		.loc 1 429 0
 811 0374 40F20003 		movw	r3, #:lower16:cyPmClockBackup
 812 0378 C0F20003 		movt	r3, #:upper16:cyPmClockBackup
 813 037c 9B89     		ldrh	r3, [r3, #12]
 814 037e 1846     		mov	r0, r3
 815 0380 FFF7FEFF 		bl	CyBusClk_SetDivider
 816              	.L42:
 430:.\Generated_Source\PSoC5/cyPm.c ****     }
 431:.\Generated_Source\PSoC5/cyPm.c **** 
 432:.\Generated_Source\PSoC5/cyPm.c ****     /* Restore flash wait cycles */
 433:.\Generated_Source\PSoC5/cyPm.c ****     CY_PM_CACHE_CR_REG = ((CY_PM_CACHE_CR_REG & ((uint8)(~CY_PM_CACHE_CR_CYCLES_MASK))) |
 817              		.loc 1 433 0
 818 0384 4FF49043 		mov	r3, #18432
 819 0388 C4F20003 		movt	r3, 16384
 820 038c 4FF49042 		mov	r2, #18432
 821 0390 C4F20002 		movt	r2, 16384
 822 0394 1278     		ldrb	r2, [r2, #0]
 823 0396 D2B2     		uxtb	r2, r2
 824 0398 D2B2     		uxtb	r2, r2
 825 039a 02F03F02 		and	r2, r2, #63
 826 039e D1B2     		uxtb	r1, r2
 434:.\Generated_Source\PSoC5/cyPm.c ****                            cyPmClockBackup.flashWaitCycles);
 827              		.loc 1 434 0
 828 03a0 40F20002 		movw	r2, #:lower16:cyPmClockBackup
 829 03a4 C0F20002 		movt	r2, #:upper16:cyPmClockBackup
 830 03a8 5279     		ldrb	r2, [r2, #5]	@ zero_extendqisi2
 433:.\Generated_Source\PSoC5/cyPm.c ****     CY_PM_CACHE_CR_REG = ((CY_PM_CACHE_CR_REG & ((uint8)(~CY_PM_CACHE_CR_CYCLES_MASK))) |
 831              		.loc 1 433 0
 832 03aa D2B2     		uxtb	r2, r2
 833 03ac 0A43     		orrs	r2, r2, r1
 834 03ae D2B2     		uxtb	r2, r2
 835 03b0 D2B2     		uxtb	r2, r2
 836 03b2 1A70     		strb	r2, [r3, #0]
 435:.\Generated_Source\PSoC5/cyPm.c **** 
 436:.\Generated_Source\PSoC5/cyPm.c ****     /* Digital and analog clocks - restore state */
 437:.\Generated_Source\PSoC5/cyPm.c ****     CY_PM_ACT_CFG1_REG = cyPmClockBackup.enClkA;
 837              		.loc 1 437 0
 838 03b4 44F2A133 		movw	r3, #17313
 839 03b8 C4F20003 		movt	r3, 16384
 840 03bc 40F20002 		movw	r2, #:lower16:cyPmClockBackup
 841 03c0 C0F20002 		movt	r2, #:upper16:cyPmClockBackup
 842 03c4 1278     		ldrb	r2, [r2, #0]	@ zero_extendqisi2
 843 03c6 1A70     		strb	r2, [r3, #0]
 438:.\Generated_Source\PSoC5/cyPm.c ****     CY_PM_ACT_CFG2_REG = cyPmClockBackup.enClkD;
 844              		.loc 1 438 0
 845 03c8 44F2A233 		movw	r3, #17314
 846 03cc C4F20003 		movt	r3, 16384
 847 03d0 40F20002 		movw	r2, #:lower16:cyPmClockBackup
 848 03d4 C0F20002 		movt	r2, #:upper16:cyPmClockBackup
 849 03d8 5278     		ldrb	r2, [r2, #1]	@ zero_extendqisi2
 850 03da 1A70     		strb	r2, [r3, #0]
 439:.\Generated_Source\PSoC5/cyPm.c **** }
ARM GAS  C:\Users\CHUCK~1.ERH\AppData\Local\Temp\cceT8Wjf.s 			page 24


 851              		.loc 1 439 0
 852 03dc 07F11807 		add	r7, r7, #24
 853 03e0 BD46     		mov	sp, r7
 854 03e2 80BD     		pop	{r7, pc}
 855              		.cfi_endproc
 856              	.LFE1:
 857              		.size	CyPmRestoreClocks, .-CyPmRestoreClocks
 858              		.section	.text.CyPmAltAct,"ax",%progbits
 859              		.align	2
 860              		.global	CyPmAltAct
 861              		.thumb
 862              		.thumb_func
 863              		.type	CyPmAltAct, %function
 864              	CyPmAltAct:
 865              	.LFB2:
 440:.\Generated_Source\PSoC5/cyPm.c **** 
 441:.\Generated_Source\PSoC5/cyPm.c **** 
 442:.\Generated_Source\PSoC5/cyPm.c **** /*******************************************************************************
 443:.\Generated_Source\PSoC5/cyPm.c **** * Function Name: CyPmAltAct
 444:.\Generated_Source\PSoC5/cyPm.c **** ********************************************************************************
 445:.\Generated_Source\PSoC5/cyPm.c **** *
 446:.\Generated_Source\PSoC5/cyPm.c **** * Summary:
 447:.\Generated_Source\PSoC5/cyPm.c **** *  Puts the part into the Alternate Active (Standby) state. The Alternate Active
 448:.\Generated_Source\PSoC5/cyPm.c **** *  state can allow for any of the capabilities of the device to be active, but
 449:.\Generated_Source\PSoC5/cyPm.c **** *  the operation of this function is dependent on the CPU being disabled during
 450:.\Generated_Source\PSoC5/cyPm.c **** *  the Alternate Active state. The configuration code and the component APIs
 451:.\Generated_Source\PSoC5/cyPm.c **** *  will configure the template for the Alternate Active state to be the same as
 452:.\Generated_Source\PSoC5/cyPm.c **** *  the Active state with the exception that the CPU will be disabled during
 453:.\Generated_Source\PSoC5/cyPm.c **** *  Alternate Active.
 454:.\Generated_Source\PSoC5/cyPm.c **** *
 455:.\Generated_Source\PSoC5/cyPm.c **** *  Note Before calling this function, you must manually configure the power mode
 456:.\Generated_Source\PSoC5/cyPm.c **** *  of the source clocks for the timer that is used as the wakeup timer.
 457:.\Generated_Source\PSoC5/cyPm.c **** *
 458:.\Generated_Source\PSoC5/cyPm.c **** *  PSoC 3:
 459:.\Generated_Source\PSoC5/cyPm.c **** *  Before switching to Alternate Active, if a wakeupTime other than NONE is
 460:.\Generated_Source\PSoC5/cyPm.c **** *  specified, then the appropriate timer state is configured as specified with
 461:.\Generated_Source\PSoC5/cyPm.c **** *  the interrupt for that timer disabled.  The wakeup source will be the
 462:.\Generated_Source\PSoC5/cyPm.c **** *  combination of the values specified in the wakeupSource and any timer
 463:.\Generated_Source\PSoC5/cyPm.c **** *  specified in the wakeupTime argument.  Once the wakeup condition is
 464:.\Generated_Source\PSoC5/cyPm.c **** *  satisfied, then all saved state is restored and the function returns in the
 465:.\Generated_Source\PSoC5/cyPm.c **** *  Active state.
 466:.\Generated_Source\PSoC5/cyPm.c **** *
 467:.\Generated_Source\PSoC5/cyPm.c **** *  Note that if the wakeupTime is made with a different value, the period before
 468:.\Generated_Source\PSoC5/cyPm.c **** *  the wakeup occurs can be significantly shorter than the specified time.  If
 469:.\Generated_Source\PSoC5/cyPm.c **** *  the next call is made with the same wakeupTime value, then the wakeup will
 470:.\Generated_Source\PSoC5/cyPm.c **** *  occur the specified period after the previous wakeup occurred.
 471:.\Generated_Source\PSoC5/cyPm.c **** *
 472:.\Generated_Source\PSoC5/cyPm.c **** *  If a wakeupTime other than NONE is specified, then upon exit the state of the
 473:.\Generated_Source\PSoC5/cyPm.c **** *  specified timer will be left as specified by wakeupTime with the timer
 474:.\Generated_Source\PSoC5/cyPm.c **** *  enabled and the interrupt disabled.  If the CTW, FTW or One PPS is already
 475:.\Generated_Source\PSoC5/cyPm.c **** *  configured for wakeup, for example with the SleepTimer or RTC components,
 476:.\Generated_Source\PSoC5/cyPm.c **** *  then specify NONE for the wakeupTime and include the appropriate source for
 477:.\Generated_Source\PSoC5/cyPm.c **** *  wakeupSource.
 478:.\Generated_Source\PSoC5/cyPm.c **** *
 479:.\Generated_Source\PSoC5/cyPm.c **** *  PSoC 5LP:
 480:.\Generated_Source\PSoC5/cyPm.c **** *  This function is used to both enter the Alternate Active mode and halt the
 481:.\Generated_Source\PSoC5/cyPm.c **** *  processor.  For PSoC 3 these two actions must be paired together.  With PSoC
ARM GAS  C:\Users\CHUCK~1.ERH\AppData\Local\Temp\cceT8Wjf.s 			page 25


 482:.\Generated_Source\PSoC5/cyPm.c **** *  5LP the processor can be halted independently with the __WFI() function from
 483:.\Generated_Source\PSoC5/cyPm.c **** *  the CMSIS library that is included in Creator.  This function should be used
 484:.\Generated_Source\PSoC5/cyPm.c **** *  instead when the action required is just to halt the processor until an
 485:.\Generated_Source\PSoC5/cyPm.c **** *  enabled interrupt occurs.
 486:.\Generated_Source\PSoC5/cyPm.c **** *
 487:.\Generated_Source\PSoC5/cyPm.c **** *  The wakeupTime parameter is not used for this device. It must be set to zero
 488:.\Generated_Source\PSoC5/cyPm.c **** *  (PM_ALT_ACT_TIME_NONE). The wake up time configuration can be done by a
 489:.\Generated_Source\PSoC5/cyPm.c **** *  separate component: the CTW wakeup interval should be configured with the
 490:.\Generated_Source\PSoC5/cyPm.c **** *  Sleep Timer component and one second interval should be configured with the
 491:.\Generated_Source\PSoC5/cyPm.c **** *  RTC component.
 492:.\Generated_Source\PSoC5/cyPm.c **** *
 493:.\Generated_Source\PSoC5/cyPm.c **** *  The wakeup behavior depends on wakeupSource parameter in the following
 494:.\Generated_Source\PSoC5/cyPm.c **** *  manner: upon function execution the device will be switched from Active to
 495:.\Generated_Source\PSoC5/cyPm.c **** *  Alternate Active mode and then the CPU will be halted. When an enabled wakeup
 496:.\Generated_Source\PSoC5/cyPm.c **** *  event occurs the device will return to Active mode.  Similarly when an
 497:.\Generated_Source\PSoC5/cyPm.c **** *  enabled interrupt occurs the CPU will be started. These two actions will
 498:.\Generated_Source\PSoC5/cyPm.c **** *  occur together provided that the event that occurs is an enabled wakeup
 499:.\Generated_Source\PSoC5/cyPm.c **** *  source and also generates an interrupt. If just the wakeup event occurs then
 500:.\Generated_Source\PSoC5/cyPm.c **** *  the device will be in Active mode, but the CPU will remain halted waiting for
 501:.\Generated_Source\PSoC5/cyPm.c **** *  an interrupt. If an interrupt occurs from something other than a wakeup
 502:.\Generated_Source\PSoC5/cyPm.c **** *  source, then the CPU will restart with the device in Alternate Active mode
 503:.\Generated_Source\PSoC5/cyPm.c **** *  until a wakeup event occurs.
 504:.\Generated_Source\PSoC5/cyPm.c **** *
 505:.\Generated_Source\PSoC5/cyPm.c **** *  For example, if CyPmAltAct(PM_ALT_ACT_TIME_NONE, PM_ALT_ACT_SRC_PICU) is
 506:.\Generated_Source\PSoC5/cyPm.c **** *  called and PICU interrupt occurs, the CPU will be started and device will be
 507:.\Generated_Source\PSoC5/cyPm.c **** *  switched into Active mode. And if CyPmAltAct(PM_ALT_ACT_TIME_NONE,
 508:.\Generated_Source\PSoC5/cyPm.c **** *  PM_ALT_ACT_SRC_NONE) is called and PICU interrupt occurs, the CPU will be
 509:.\Generated_Source\PSoC5/cyPm.c **** *  started while device remains in Alternate Active mode.
 510:.\Generated_Source\PSoC5/cyPm.c **** *
 511:.\Generated_Source\PSoC5/cyPm.c **** * Parameters:
 512:.\Generated_Source\PSoC5/cyPm.c **** *  wakeupTime: Specifies a timer wakeup source and the frequency of that
 513:.\Generated_Source\PSoC5/cyPm.c **** *              source. For PSoC 5LP this parameter is ignored.
 514:.\Generated_Source\PSoC5/cyPm.c **** *
 515:.\Generated_Source\PSoC5/cyPm.c **** *           Define                      Time
 516:.\Generated_Source\PSoC5/cyPm.c **** *  PM_ALT_ACT_TIME_NONE             None
 517:.\Generated_Source\PSoC5/cyPm.c **** *  PM_ALT_ACT_TIME_ONE_PPS          One PPS: 1 second
 518:.\Generated_Source\PSoC5/cyPm.c **** *  PM_ALT_ACT_TIME_CTW_2MS          CTW: 2 ms
 519:.\Generated_Source\PSoC5/cyPm.c **** *  PM_ALT_ACT_TIME_CTW_4MS          CTW: 4 ms
 520:.\Generated_Source\PSoC5/cyPm.c **** *  PM_ALT_ACT_TIME_CTW_8MS          CTW: 8 ms
 521:.\Generated_Source\PSoC5/cyPm.c **** *  PM_ALT_ACT_TIME_CTW_16MS         CTW: 16 ms
 522:.\Generated_Source\PSoC5/cyPm.c **** *  PM_ALT_ACT_TIME_CTW_32MS         CTW: 32 ms
 523:.\Generated_Source\PSoC5/cyPm.c **** *  PM_ALT_ACT_TIME_CTW_64MS         CTW: 64 ms
 524:.\Generated_Source\PSoC5/cyPm.c **** *  PM_ALT_ACT_TIME_CTW_128MS        CTW: 128 ms
 525:.\Generated_Source\PSoC5/cyPm.c **** *  PM_ALT_ACT_TIME_CTW_256MS        CTW: 256 ms
 526:.\Generated_Source\PSoC5/cyPm.c **** *  PM_ALT_ACT_TIME_CTW_512MS        CTW: 512 ms
 527:.\Generated_Source\PSoC5/cyPm.c **** *  PM_ALT_ACT_TIME_CTW_1024MS       CTW: 1024 ms
 528:.\Generated_Source\PSoC5/cyPm.c **** *  PM_ALT_ACT_TIME_CTW_2048MS       CTW: 2048 ms
 529:.\Generated_Source\PSoC5/cyPm.c **** *  PM_ALT_ACT_TIME_CTW_4096MS       CTW: 4096 ms
 530:.\Generated_Source\PSoC5/cyPm.c **** *  PM_ALT_ACT_TIME_FTW(1-256)*       FTW: 10us to 2.56 ms
 531:.\Generated_Source\PSoC5/cyPm.c **** *
 532:.\Generated_Source\PSoC5/cyPm.c **** *  *Note:   PM_ALT_ACT_TIME_FTW() is a macro that takes an argument that
 533:.\Generated_Source\PSoC5/cyPm.c **** *           specifies how many increments of 10 us to delay.
 534:.\Generated_Source\PSoC5/cyPm.c ****             For PSoC 3 silicon the valid range of  values is 1 to 256.
 535:.\Generated_Source\PSoC5/cyPm.c **** *
 536:.\Generated_Source\PSoC5/cyPm.c **** *  wakeUpSource:    Specifies a bitwise mask of wakeup sources. In addition, if
 537:.\Generated_Source\PSoC5/cyPm.c **** *                   a wakeupTime has been specified the associated timer will be
 538:.\Generated_Source\PSoC5/cyPm.c **** *                   included as a wakeup source.
ARM GAS  C:\Users\CHUCK~1.ERH\AppData\Local\Temp\cceT8Wjf.s 			page 26


 539:.\Generated_Source\PSoC5/cyPm.c **** *
 540:.\Generated_Source\PSoC5/cyPm.c **** *           Define                      Source
 541:.\Generated_Source\PSoC5/cyPm.c **** *  PM_ALT_ACT_SRC_NONE              None
 542:.\Generated_Source\PSoC5/cyPm.c **** *  PM_ALT_ACT_SRC_COMPARATOR0       Comparator 0
 543:.\Generated_Source\PSoC5/cyPm.c **** *  PM_ALT_ACT_SRC_COMPARATOR1       Comparator 1
 544:.\Generated_Source\PSoC5/cyPm.c **** *  PM_ALT_ACT_SRC_COMPARATOR2       Comparator 2
 545:.\Generated_Source\PSoC5/cyPm.c **** *  PM_ALT_ACT_SRC_COMPARATOR3       Comparator 3
 546:.\Generated_Source\PSoC5/cyPm.c **** *  PM_ALT_ACT_SRC_INTERRUPT         Interrupt
 547:.\Generated_Source\PSoC5/cyPm.c **** *  PM_ALT_ACT_SRC_PICU              PICU
 548:.\Generated_Source\PSoC5/cyPm.c **** *  PM_ALT_ACT_SRC_I2C               I2C
 549:.\Generated_Source\PSoC5/cyPm.c **** *  PM_ALT_ACT_SRC_BOOSTCONVERTER    Boost Converter
 550:.\Generated_Source\PSoC5/cyPm.c **** *  PM_ALT_ACT_SRC_FTW               Fast Timewheel*
 551:.\Generated_Source\PSoC5/cyPm.c **** *  PM_ALT_ACT_SRC_VD                High and Low Voltage Detection (HVI, LVI)*
 552:.\Generated_Source\PSoC5/cyPm.c **** *  PM_ALT_ACT_SRC_CTW               Central Timewheel**
 553:.\Generated_Source\PSoC5/cyPm.c **** *  PM_ALT_ACT_SRC_ONE_PPS           One PPS**
 554:.\Generated_Source\PSoC5/cyPm.c **** *  PM_ALT_ACT_SRC_LCD               LCD
 555:.\Generated_Source\PSoC5/cyPm.c **** *
 556:.\Generated_Source\PSoC5/cyPm.c **** *  *Note : FTW and HVI/LVI wakeup signals are in the same mask bit.
 557:.\Generated_Source\PSoC5/cyPm.c **** *  **Note: CTW and One PPS wakeup signals are in the same mask bit.
 558:.\Generated_Source\PSoC5/cyPm.c **** *
 559:.\Generated_Source\PSoC5/cyPm.c **** *  When specifying a Comparator as the wakeupSource an instance specific define
 560:.\Generated_Source\PSoC5/cyPm.c **** *  should be used that will track with the specific comparator that the instance
 561:.\Generated_Source\PSoC5/cyPm.c **** *  is placed into. As an example, for a Comparator instance named MyComp the
 562:.\Generated_Source\PSoC5/cyPm.c **** *  value to OR into the mask is: MyComp_ctComp__CMP_MASK.
 563:.\Generated_Source\PSoC5/cyPm.c **** *
 564:.\Generated_Source\PSoC5/cyPm.c **** *  When CTW, FTW or One PPS is used as a wakeup source, the CyPmReadStatus()
 565:.\Generated_Source\PSoC5/cyPm.c **** *  function must be called upon wakeup with corresponding parameter. Please
 566:.\Generated_Source\PSoC5/cyPm.c **** *  refer to the CyPmReadStatus() API in the System Reference Guide for more
 567:.\Generated_Source\PSoC5/cyPm.c **** *  information.
 568:.\Generated_Source\PSoC5/cyPm.c **** *
 569:.\Generated_Source\PSoC5/cyPm.c **** * Return:
 570:.\Generated_Source\PSoC5/cyPm.c **** *  None
 571:.\Generated_Source\PSoC5/cyPm.c **** *
 572:.\Generated_Source\PSoC5/cyPm.c **** * Reentrant:
 573:.\Generated_Source\PSoC5/cyPm.c **** *  No
 574:.\Generated_Source\PSoC5/cyPm.c **** *
 575:.\Generated_Source\PSoC5/cyPm.c **** * Side Effects:
 576:.\Generated_Source\PSoC5/cyPm.c **** *  If a wakeupTime other than NONE is specified, then upon exit the state of the
 577:.\Generated_Source\PSoC5/cyPm.c **** *  specified timer will be left as specified by wakeupTime with the timer
 578:.\Generated_Source\PSoC5/cyPm.c **** *  enabled and the interrupt disabled.  Also, the ILO 1 KHz (if CTW timer is
 579:.\Generated_Source\PSoC5/cyPm.c **** *  used as wakeup time) or ILO 100 KHz (if FTW timer is used as wakeup time)
 580:.\Generated_Source\PSoC5/cyPm.c **** *  will be left started.
 581:.\Generated_Source\PSoC5/cyPm.c **** *
 582:.\Generated_Source\PSoC5/cyPm.c **** *******************************************************************************/
 583:.\Generated_Source\PSoC5/cyPm.c **** void CyPmAltAct(uint16 wakeupTime, uint16 wakeupSource) 
 584:.\Generated_Source\PSoC5/cyPm.c **** {
 866              		.loc 1 584 0
 867              		.cfi_startproc
 868              		@ args = 0, pretend = 0, frame = 8
 869              		@ frame_needed = 1, uses_anonymous_args = 0
 870 0000 80B5     		push	{r7, lr}
 871              	.LCFI5:
 872              		.cfi_def_cfa_offset 8
 873              		.cfi_offset 7, -8
 874              		.cfi_offset 14, -4
 875 0002 82B0     		sub	sp, sp, #8
 876              	.LCFI6:
ARM GAS  C:\Users\CHUCK~1.ERH\AppData\Local\Temp\cceT8Wjf.s 			page 27


 877              		.cfi_def_cfa_offset 16
 878 0004 00AF     		add	r7, sp, #0
 879              	.LCFI7:
 880              		.cfi_def_cfa_register 7
 881 0006 0246     		mov	r2, r0
 882 0008 0B46     		mov	r3, r1
 883 000a FA80     		strh	r2, [r7, #6]	@ movhi
 884 000c BB80     		strh	r3, [r7, #4]	@ movhi
 585:.\Generated_Source\PSoC5/cyPm.c ****     #if(CY_PSOC5)
 586:.\Generated_Source\PSoC5/cyPm.c **** 
 587:.\Generated_Source\PSoC5/cyPm.c ****         /* Arguments expected to be 0 */
 588:.\Generated_Source\PSoC5/cyPm.c ****         CYASSERT(PM_ALT_ACT_TIME_NONE == wakeupTime);
 885              		.loc 1 588 0
 886 000e FB88     		ldrh	r3, [r7, #6]
 887 0010 002B     		cmp	r3, #0
 888 0012 03D0     		beq	.L44
 889              		.loc 1 588 0 is_stmt 0 discriminator 1
 890 0014 4FF00000 		mov	r0, #0
 891 0018 FFF7FEFF 		bl	CyHalt
 892              	.L44:
 589:.\Generated_Source\PSoC5/cyPm.c **** 
 590:.\Generated_Source\PSoC5/cyPm.c ****         if(0u != wakeupTime)
 591:.\Generated_Source\PSoC5/cyPm.c ****         {
 592:.\Generated_Source\PSoC5/cyPm.c ****             /* To remove unreferenced local variable warning */
 593:.\Generated_Source\PSoC5/cyPm.c ****         }
 594:.\Generated_Source\PSoC5/cyPm.c **** 
 595:.\Generated_Source\PSoC5/cyPm.c ****     #endif /* (CY_PSOC5) */
 596:.\Generated_Source\PSoC5/cyPm.c **** 
 597:.\Generated_Source\PSoC5/cyPm.c **** 
 598:.\Generated_Source\PSoC5/cyPm.c ****     #if(CY_PSOC3)
 599:.\Generated_Source\PSoC5/cyPm.c **** 
 600:.\Generated_Source\PSoC5/cyPm.c ****         /* FTW - save current and set new configuration */
 601:.\Generated_Source\PSoC5/cyPm.c ****         if((wakeupTime >= PM_ALT_ACT_TIME_FTW(1u)) && (wakeupTime <= PM_ALT_ACT_TIME_FTW(256u)))
 602:.\Generated_Source\PSoC5/cyPm.c ****         {
 603:.\Generated_Source\PSoC5/cyPm.c ****             CyPmFtwSetInterval(PM_ALT_ACT_FTW_INTERVAL(wakeupTime));
 604:.\Generated_Source\PSoC5/cyPm.c **** 
 605:.\Generated_Source\PSoC5/cyPm.c ****             /* Include associated timer to the wakeupSource */
 606:.\Generated_Source\PSoC5/cyPm.c ****             wakeupSource |= PM_ALT_ACT_SRC_FTW;
 607:.\Generated_Source\PSoC5/cyPm.c ****         }
 608:.\Generated_Source\PSoC5/cyPm.c **** 
 609:.\Generated_Source\PSoC5/cyPm.c ****         /* CTW - save current and set new configuration */
 610:.\Generated_Source\PSoC5/cyPm.c ****         if((wakeupTime >= PM_ALT_ACT_TIME_CTW_2MS) && (wakeupTime <= PM_ALT_ACT_TIME_CTW_4096MS))
 611:.\Generated_Source\PSoC5/cyPm.c ****         {
 612:.\Generated_Source\PSoC5/cyPm.c ****             /* Save current CTW configuration and set new one */
 613:.\Generated_Source\PSoC5/cyPm.c ****             CyPmCtwSetInterval((uint8)(wakeupTime - 1u));
 614:.\Generated_Source\PSoC5/cyPm.c **** 
 615:.\Generated_Source\PSoC5/cyPm.c ****             /* Include associated timer to the wakeupSource */
 616:.\Generated_Source\PSoC5/cyPm.c ****             wakeupSource |= PM_ALT_ACT_SRC_CTW;
 617:.\Generated_Source\PSoC5/cyPm.c ****         }
 618:.\Generated_Source\PSoC5/cyPm.c **** 
 619:.\Generated_Source\PSoC5/cyPm.c ****         /* 1PPS - save current and set new configuration */
 620:.\Generated_Source\PSoC5/cyPm.c ****         if(PM_ALT_ACT_TIME_ONE_PPS == wakeupTime)
 621:.\Generated_Source\PSoC5/cyPm.c ****         {
 622:.\Generated_Source\PSoC5/cyPm.c ****             /* Save current 1PPS configuration and set new one */
 623:.\Generated_Source\PSoC5/cyPm.c ****             CyPmOppsSet();
 624:.\Generated_Source\PSoC5/cyPm.c **** 
 625:.\Generated_Source\PSoC5/cyPm.c ****             /* Include associated timer to the wakeupSource */
ARM GAS  C:\Users\CHUCK~1.ERH\AppData\Local\Temp\cceT8Wjf.s 			page 28


 626:.\Generated_Source\PSoC5/cyPm.c ****             wakeupSource |= PM_ALT_ACT_SRC_ONE_PPS;
 627:.\Generated_Source\PSoC5/cyPm.c ****         }
 628:.\Generated_Source\PSoC5/cyPm.c **** 
 629:.\Generated_Source\PSoC5/cyPm.c ****     #endif /* (CY_PSOC3) */
 630:.\Generated_Source\PSoC5/cyPm.c **** 
 631:.\Generated_Source\PSoC5/cyPm.c **** 
 632:.\Generated_Source\PSoC5/cyPm.c ****     /* Save and set new wake up configuration */
 633:.\Generated_Source\PSoC5/cyPm.c **** 
 634:.\Generated_Source\PSoC5/cyPm.c ****     /* Interrupt, PICU, I2C, Boost converter, CTW/1PPS */
 635:.\Generated_Source\PSoC5/cyPm.c ****     cyPmBackup.wakeupCfg0 = CY_PM_WAKEUP_CFG0_REG;
 893              		.loc 1 635 0 is_stmt 1
 894 001c 44F29833 		movw	r3, #17304
 895 0020 C4F20003 		movt	r3, 16384
 896 0024 1B78     		ldrb	r3, [r3, #0]
 897 0026 DAB2     		uxtb	r2, r3
 898 0028 40F20003 		movw	r3, #:lower16:cyPmBackup
 899 002c C0F20003 		movt	r3, #:upper16:cyPmBackup
 900 0030 1A71     		strb	r2, [r3, #4]
 636:.\Generated_Source\PSoC5/cyPm.c ****     CY_PM_WAKEUP_CFG0_REG = (uint8) (wakeupSource >> 4u);
 901              		.loc 1 636 0
 902 0032 44F29833 		movw	r3, #17304
 903 0036 C4F20003 		movt	r3, 16384
 904 003a BA88     		ldrh	r2, [r7, #4]
 905 003c 4FEA1212 		lsr	r2, r2, #4
 906 0040 92B2     		uxth	r2, r2
 907 0042 D2B2     		uxtb	r2, r2
 908 0044 1A70     		strb	r2, [r3, #0]
 637:.\Generated_Source\PSoC5/cyPm.c **** 
 638:.\Generated_Source\PSoC5/cyPm.c ****     /* Comparators */
 639:.\Generated_Source\PSoC5/cyPm.c ****     cyPmBackup.wakeupCfg1 = CY_PM_WAKEUP_CFG1_REG;
 909              		.loc 1 639 0
 910 0046 44F29933 		movw	r3, #17305
 911 004a C4F20003 		movt	r3, 16384
 912 004e 1B78     		ldrb	r3, [r3, #0]
 913 0050 DAB2     		uxtb	r2, r3
 914 0052 40F20003 		movw	r3, #:lower16:cyPmBackup
 915 0056 C0F20003 		movt	r3, #:upper16:cyPmBackup
 916 005a 5A71     		strb	r2, [r3, #5]
 640:.\Generated_Source\PSoC5/cyPm.c ****     CY_PM_WAKEUP_CFG1_REG = (((uint8) wakeupSource) & CY_PM_WAKEUP_SRC_CMPS_MASK);
 917              		.loc 1 640 0
 918 005c 44F29933 		movw	r3, #17305
 919 0060 C4F20003 		movt	r3, 16384
 920 0064 BA88     		ldrh	r2, [r7, #4]	@ movhi
 921 0066 D2B2     		uxtb	r2, r2
 922 0068 02F00F02 		and	r2, r2, #15
 923 006c D2B2     		uxtb	r2, r2
 924 006e 1A70     		strb	r2, [r3, #0]
 641:.\Generated_Source\PSoC5/cyPm.c **** 
 642:.\Generated_Source\PSoC5/cyPm.c ****     /* LCD */
 643:.\Generated_Source\PSoC5/cyPm.c ****     cyPmBackup.wakeupCfg2 = CY_PM_WAKEUP_CFG2_REG;
 925              		.loc 1 643 0
 926 0070 44F29A33 		movw	r3, #17306
 927 0074 C4F20003 		movt	r3, 16384
 928 0078 1B78     		ldrb	r3, [r3, #0]
 929 007a DAB2     		uxtb	r2, r3
 930 007c 40F20003 		movw	r3, #:lower16:cyPmBackup
 931 0080 C0F20003 		movt	r3, #:upper16:cyPmBackup
ARM GAS  C:\Users\CHUCK~1.ERH\AppData\Local\Temp\cceT8Wjf.s 			page 29


 932 0084 9A71     		strb	r2, [r3, #6]
 644:.\Generated_Source\PSoC5/cyPm.c ****     CY_PM_WAKEUP_CFG2_REG = ((uint8) ((wakeupSource >> 12u) & 0x01u));
 933              		.loc 1 644 0
 934 0086 44F29A33 		movw	r3, #17306
 935 008a C4F20003 		movt	r3, 16384
 936 008e BA88     		ldrh	r2, [r7, #4]
 937 0090 4FEA1232 		lsr	r2, r2, #12
 938 0094 92B2     		uxth	r2, r2
 939 0096 D2B2     		uxtb	r2, r2
 940 0098 02F00102 		and	r2, r2, #1
 941 009c D2B2     		uxtb	r2, r2
 942 009e 1A70     		strb	r2, [r3, #0]
 645:.\Generated_Source\PSoC5/cyPm.c **** 
 646:.\Generated_Source\PSoC5/cyPm.c **** 
 647:.\Generated_Source\PSoC5/cyPm.c ****     /* Switch to the Alternate Active mode */
 648:.\Generated_Source\PSoC5/cyPm.c ****     CY_PM_MODE_CSR_REG = ((CY_PM_MODE_CSR_REG & ((uint8)(~CY_PM_MODE_CSR_MASK))) | CY_PM_MODE_CSR_A
 943              		.loc 1 648 0
 944 00a0 44F29333 		movw	r3, #17299
 945 00a4 C4F20003 		movt	r3, 16384
 946 00a8 44F29332 		movw	r2, #17299
 947 00ac C4F20002 		movt	r2, 16384
 948 00b0 1278     		ldrb	r2, [r2, #0]
 949 00b2 D2B2     		uxtb	r2, r2
 950 00b4 22F00702 		bic	r2, r2, #7
 951 00b8 D2B2     		uxtb	r2, r2
 952 00ba 42F00102 		orr	r2, r2, #1
 953 00be D2B2     		uxtb	r2, r2
 954 00c0 1A70     		strb	r2, [r3, #0]
 649:.\Generated_Source\PSoC5/cyPm.c **** 
 650:.\Generated_Source\PSoC5/cyPm.c ****     /* Recommended readback. */
 651:.\Generated_Source\PSoC5/cyPm.c ****     (void) CY_PM_MODE_CSR_REG;
 955              		.loc 1 651 0
 956 00c2 44F29333 		movw	r3, #17299
 957 00c6 C4F20003 		movt	r3, 16384
 958 00ca 1B78     		ldrb	r3, [r3, #0]
 652:.\Generated_Source\PSoC5/cyPm.c **** 
 653:.\Generated_Source\PSoC5/cyPm.c ****     /* Two recommended NOPs to get into the mode. */
 654:.\Generated_Source\PSoC5/cyPm.c ****     CY_NOP;
 959              		.loc 1 654 0
 960              	@ 654 ".\Generated_Source\PSoC5\cyPm.c" 1
 961 00cc 00BF     		NOP
 962              	
 963              	@ 0 "" 2
 655:.\Generated_Source\PSoC5/cyPm.c ****     CY_NOP;
 964              		.loc 1 655 0
 965              	@ 655 ".\Generated_Source\PSoC5\cyPm.c" 1
 966 00ce 00BF     		NOP
 967              	
 968              	@ 0 "" 2
 656:.\Generated_Source\PSoC5/cyPm.c **** 
 657:.\Generated_Source\PSoC5/cyPm.c ****     /* Execute WFI instruction (for ARM-based devices only) */
 658:.\Generated_Source\PSoC5/cyPm.c ****     CY_PM_WFI;
 969              		.loc 1 658 0
 970              	@ 658 ".\Generated_Source\PSoC5\cyPm.c" 1
 971 00d0 30BF     		WFI 
 972              	
 973              	@ 0 "" 2
ARM GAS  C:\Users\CHUCK~1.ERH\AppData\Local\Temp\cceT8Wjf.s 			page 30


 659:.\Generated_Source\PSoC5/cyPm.c **** 
 660:.\Generated_Source\PSoC5/cyPm.c ****     /* Point of return from Alternate Active Mode */
 661:.\Generated_Source\PSoC5/cyPm.c **** 
 662:.\Generated_Source\PSoC5/cyPm.c ****     /* Restore wake up configuration */
 663:.\Generated_Source\PSoC5/cyPm.c ****     CY_PM_WAKEUP_CFG0_REG = cyPmBackup.wakeupCfg0;
 974              		.loc 1 663 0
 975              		.thumb
 976 00d2 44F29833 		movw	r3, #17304
 977 00d6 C4F20003 		movt	r3, 16384
 978 00da 40F20002 		movw	r2, #:lower16:cyPmBackup
 979 00de C0F20002 		movt	r2, #:upper16:cyPmBackup
 980 00e2 1279     		ldrb	r2, [r2, #4]	@ zero_extendqisi2
 981 00e4 1A70     		strb	r2, [r3, #0]
 664:.\Generated_Source\PSoC5/cyPm.c ****     CY_PM_WAKEUP_CFG1_REG = cyPmBackup.wakeupCfg1;
 982              		.loc 1 664 0
 983 00e6 44F29933 		movw	r3, #17305
 984 00ea C4F20003 		movt	r3, 16384
 985 00ee 40F20002 		movw	r2, #:lower16:cyPmBackup
 986 00f2 C0F20002 		movt	r2, #:upper16:cyPmBackup
 987 00f6 5279     		ldrb	r2, [r2, #5]	@ zero_extendqisi2
 988 00f8 1A70     		strb	r2, [r3, #0]
 665:.\Generated_Source\PSoC5/cyPm.c ****     CY_PM_WAKEUP_CFG2_REG = cyPmBackup.wakeupCfg2;
 989              		.loc 1 665 0
 990 00fa 44F29A33 		movw	r3, #17306
 991 00fe C4F20003 		movt	r3, 16384
 992 0102 40F20002 		movw	r2, #:lower16:cyPmBackup
 993 0106 C0F20002 		movt	r2, #:upper16:cyPmBackup
 994 010a 9279     		ldrb	r2, [r2, #6]	@ zero_extendqisi2
 995 010c 1A70     		strb	r2, [r3, #0]
 666:.\Generated_Source\PSoC5/cyPm.c **** }
 996              		.loc 1 666 0
 997 010e 07F10807 		add	r7, r7, #8
 998 0112 BD46     		mov	sp, r7
 999 0114 80BD     		pop	{r7, pc}
 1000              		.cfi_endproc
 1001              	.LFE2:
 1002              		.size	CyPmAltAct, .-CyPmAltAct
 1003 0116 00BF     		.section	.text.CyPmSleep,"ax",%progbits
 1004              		.align	2
 1005              		.global	CyPmSleep
 1006              		.thumb
 1007              		.thumb_func
 1008              		.type	CyPmSleep, %function
 1009              	CyPmSleep:
 1010              	.LFB3:
 667:.\Generated_Source\PSoC5/cyPm.c **** 
 668:.\Generated_Source\PSoC5/cyPm.c **** 
 669:.\Generated_Source\PSoC5/cyPm.c **** /*******************************************************************************
 670:.\Generated_Source\PSoC5/cyPm.c **** * Function Name: CyPmSleep
 671:.\Generated_Source\PSoC5/cyPm.c **** ********************************************************************************
 672:.\Generated_Source\PSoC5/cyPm.c **** *
 673:.\Generated_Source\PSoC5/cyPm.c **** * Summary:
 674:.\Generated_Source\PSoC5/cyPm.c **** *  Puts the part into the Sleep state.
 675:.\Generated_Source\PSoC5/cyPm.c **** *
 676:.\Generated_Source\PSoC5/cyPm.c **** *  Note Before calling this function, you must manually configure the power
 677:.\Generated_Source\PSoC5/cyPm.c **** *  mode of the source clocks for the timer that is used as wakeup timer.
 678:.\Generated_Source\PSoC5/cyPm.c **** *
ARM GAS  C:\Users\CHUCK~1.ERH\AppData\Local\Temp\cceT8Wjf.s 			page 31


 679:.\Generated_Source\PSoC5/cyPm.c **** *  Note Before calling this function, you must prepare clock tree configuration
 680:.\Generated_Source\PSoC5/cyPm.c **** *  for the low power mode by calling CyPmSaveClocks(). And restore clock
 681:.\Generated_Source\PSoC5/cyPm.c **** *  configuration after CyPmSleep() execution by calling CyPmRestoreClocks(). See
 682:.\Generated_Source\PSoC5/cyPm.c **** *  Power Management section, Clock Configuration subsection of the System
 683:.\Generated_Source\PSoC5/cyPm.c **** *  Reference Guide for more information.
 684:.\Generated_Source\PSoC5/cyPm.c **** *
 685:.\Generated_Source\PSoC5/cyPm.c **** *  PSoC 3:
 686:.\Generated_Source\PSoC5/cyPm.c **** *  Before switching to Sleep, if a wakeupTime other than NONE is specified,
 687:.\Generated_Source\PSoC5/cyPm.c **** *  then the appropriate timer state is configured as specified with the
 688:.\Generated_Source\PSoC5/cyPm.c **** *  interrupt for that timer disabled.  The wakeup source will be the combination
 689:.\Generated_Source\PSoC5/cyPm.c **** *  of the values specified in the wakeupSource and any timer specified in the
 690:.\Generated_Source\PSoC5/cyPm.c **** *  wakeupTime argument.  Once the wakeup condition is satisfied, then all saved
 691:.\Generated_Source\PSoC5/cyPm.c **** *  state is restored and the function returns in the Active state.
 692:.\Generated_Source\PSoC5/cyPm.c **** *
 693:.\Generated_Source\PSoC5/cyPm.c **** *  Note that if the wakeupTime is made with a different value, the period before
 694:.\Generated_Source\PSoC5/cyPm.c **** *  the wakeup occurs can be significantly shorter than the specified time.  If
 695:.\Generated_Source\PSoC5/cyPm.c **** *  the next call is made with the same wakeupTime value, then the wakeup will
 696:.\Generated_Source\PSoC5/cyPm.c **** *  occur the specified period after the previous wakeup occurred.
 697:.\Generated_Source\PSoC5/cyPm.c **** *
 698:.\Generated_Source\PSoC5/cyPm.c **** *  If a wakeupTime other than NONE is specified, then upon exit the state of the
 699:.\Generated_Source\PSoC5/cyPm.c **** *  specified timer will be left as specified by wakeupTime with the timer
 700:.\Generated_Source\PSoC5/cyPm.c **** *  enabled and the interrupt disabled.  If the CTW or One PPS is already
 701:.\Generated_Source\PSoC5/cyPm.c **** *  configured for wakeup, for example with the SleepTimer or RTC components,
 702:.\Generated_Source\PSoC5/cyPm.c **** *  then specify NONE for the wakeupTime and include the appropriate source for
 703:.\Generated_Source\PSoC5/cyPm.c **** *  wakeupSource.
 704:.\Generated_Source\PSoC5/cyPm.c **** *
 705:.\Generated_Source\PSoC5/cyPm.c **** *  PSoC 5LP:
 706:.\Generated_Source\PSoC5/cyPm.c **** *  The wakeupTime parameter is not used and the only NONE can be specified.
 707:.\Generated_Source\PSoC5/cyPm.c **** *  The wakeup time must be configured with the component, SleepTimer for CTW
 708:.\Generated_Source\PSoC5/cyPm.c **** *  intervals and RTC for 1PPS interval. The component must be configured to
 709:.\Generated_Source\PSoC5/cyPm.c **** *  generate an interrrupt.
 710:.\Generated_Source\PSoC5/cyPm.c **** *
 711:.\Generated_Source\PSoC5/cyPm.c **** * Parameters:
 712:.\Generated_Source\PSoC5/cyPm.c **** *  wakeupTime:      Specifies a timer wakeup source and the frequency of that
 713:.\Generated_Source\PSoC5/cyPm.c **** *                   source. For PSoC 5LP, this parameter is ignored.
 714:.\Generated_Source\PSoC5/cyPm.c **** *
 715:.\Generated_Source\PSoC5/cyPm.c **** *           Define                      Time
 716:.\Generated_Source\PSoC5/cyPm.c **** *  PM_SLEEP_TIME_NONE               None
 717:.\Generated_Source\PSoC5/cyPm.c **** *  PM_SLEEP_TIME_ONE_PPS            One PPS: 1 second
 718:.\Generated_Source\PSoC5/cyPm.c **** *  PM_SLEEP_TIME_CTW_2MS            CTW: 2 ms
 719:.\Generated_Source\PSoC5/cyPm.c **** *  PM_SLEEP_TIME_CTW_4MS            CTW: 4 ms
 720:.\Generated_Source\PSoC5/cyPm.c **** *  PM_SLEEP_TIME_CTW_8MS            CTW: 8 ms
 721:.\Generated_Source\PSoC5/cyPm.c **** *  PM_SLEEP_TIME_CTW_16MS           CTW: 16 ms
 722:.\Generated_Source\PSoC5/cyPm.c **** *  PM_SLEEP_TIME_CTW_32MS           CTW: 32 ms
 723:.\Generated_Source\PSoC5/cyPm.c **** *  PM_SLEEP_TIME_CTW_64MS           CTW: 64 ms
 724:.\Generated_Source\PSoC5/cyPm.c **** *  PM_SLEEP_TIME_CTW_128MS          CTW: 128 ms
 725:.\Generated_Source\PSoC5/cyPm.c **** *  PM_SLEEP_TIME_CTW_256MS          CTW: 256 ms
 726:.\Generated_Source\PSoC5/cyPm.c **** *  PM_SLEEP_TIME_CTW_512MS          CTW: 512 ms
 727:.\Generated_Source\PSoC5/cyPm.c **** *  PM_SLEEP_TIME_CTW_1024MS         CTW: 1024 ms
 728:.\Generated_Source\PSoC5/cyPm.c **** *  PM_SLEEP_TIME_CTW_2048MS         CTW: 2048 ms
 729:.\Generated_Source\PSoC5/cyPm.c **** *  PM_SLEEP_TIME_CTW_4096MS         CTW: 4096 ms
 730:.\Generated_Source\PSoC5/cyPm.c **** *
 731:.\Generated_Source\PSoC5/cyPm.c **** *  wakeUpSource:    Specifies a bitwise mask of wakeup sources. In addition, if
 732:.\Generated_Source\PSoC5/cyPm.c **** *                   a wakeupTime has been specified the associated timer will be
 733:.\Generated_Source\PSoC5/cyPm.c **** *                   included as a wakeup source.
 734:.\Generated_Source\PSoC5/cyPm.c **** *
 735:.\Generated_Source\PSoC5/cyPm.c **** *           Define                      Source
ARM GAS  C:\Users\CHUCK~1.ERH\AppData\Local\Temp\cceT8Wjf.s 			page 32


 736:.\Generated_Source\PSoC5/cyPm.c **** *  PM_SLEEP_SRC_NONE                None
 737:.\Generated_Source\PSoC5/cyPm.c **** *  PM_SLEEP_SRC_COMPARATOR0         Comparator 0
 738:.\Generated_Source\PSoC5/cyPm.c **** *  PM_SLEEP_SRC_COMPARATOR1         Comparator 1
 739:.\Generated_Source\PSoC5/cyPm.c **** *  PM_SLEEP_SRC_COMPARATOR2         Comparator 2
 740:.\Generated_Source\PSoC5/cyPm.c **** *  PM_SLEEP_SRC_COMPARATOR3         Comparator 3
 741:.\Generated_Source\PSoC5/cyPm.c **** *  PM_SLEEP_SRC_PICU                PICU
 742:.\Generated_Source\PSoC5/cyPm.c **** *  PM_SLEEP_SRC_I2C                 I2C
 743:.\Generated_Source\PSoC5/cyPm.c **** *  PM_SLEEP_SRC_BOOSTCONVERTER      Boost Converter
 744:.\Generated_Source\PSoC5/cyPm.c **** *  PM_SLEEP_SRC_VD                  High and Low Voltage Detection (HVI, LVI)
 745:.\Generated_Source\PSoC5/cyPm.c **** *  PM_SLEEP_SRC_CTW                 Central Timewheel*
 746:.\Generated_Source\PSoC5/cyPm.c **** *  PM_SLEEP_SRC_ONE_PPS             One PPS*
 747:.\Generated_Source\PSoC5/cyPm.c **** *  PM_SLEEP_SRC_LCD                 LCD
 748:.\Generated_Source\PSoC5/cyPm.c **** *
 749:.\Generated_Source\PSoC5/cyPm.c **** *  *Note:   CTW and One PPS wakeup signals are in the same mask bit.
 750:.\Generated_Source\PSoC5/cyPm.c **** *
 751:.\Generated_Source\PSoC5/cyPm.c **** *  When specifying a Comparator as the wakeupSource an instance specific define
 752:.\Generated_Source\PSoC5/cyPm.c **** *  should be used that will track with the specific comparator that the instance
 753:.\Generated_Source\PSoC5/cyPm.c **** *  is placed into. As an example for a Comparator instance named MyComp the
 754:.\Generated_Source\PSoC5/cyPm.c **** *  value to OR into the mask is: MyComp_ctComp__CMP_MASK.
 755:.\Generated_Source\PSoC5/cyPm.c **** *
 756:.\Generated_Source\PSoC5/cyPm.c **** *  When CTW or One PPS is used as a wakeup source, the CyPmReadStatus()
 757:.\Generated_Source\PSoC5/cyPm.c **** *  function must be called upon wakeup with corresponding parameter. Please
 758:.\Generated_Source\PSoC5/cyPm.c **** *  refer to the CyPmReadStatus() API in the System Reference Guide for more
 759:.\Generated_Source\PSoC5/cyPm.c **** *  information.
 760:.\Generated_Source\PSoC5/cyPm.c **** *
 761:.\Generated_Source\PSoC5/cyPm.c **** * Return:
 762:.\Generated_Source\PSoC5/cyPm.c **** *  None
 763:.\Generated_Source\PSoC5/cyPm.c **** *
 764:.\Generated_Source\PSoC5/cyPm.c **** * Reentrant:
 765:.\Generated_Source\PSoC5/cyPm.c **** *  No
 766:.\Generated_Source\PSoC5/cyPm.c **** *
 767:.\Generated_Source\PSoC5/cyPm.c **** * Side Effects and Restrictions:
 768:.\Generated_Source\PSoC5/cyPm.c **** *  If a wakeupTime other than NONE is specified, then upon exit the state of the
 769:.\Generated_Source\PSoC5/cyPm.c **** *  specified timer will be left as specified by wakeupTime with the timer
 770:.\Generated_Source\PSoC5/cyPm.c **** *  enabled and the interrupt disabled. Also, the ILO 1 KHz (if CTW timer is
 771:.\Generated_Source\PSoC5/cyPm.c **** *  used as wake up time) will be left started.
 772:.\Generated_Source\PSoC5/cyPm.c **** *
 773:.\Generated_Source\PSoC5/cyPm.c **** *  The 1 kHz ILO clock is expected to be enabled for PSoC 3 and PSoC 5LP to
 774:.\Generated_Source\PSoC5/cyPm.c **** *  measure Hibernate/Sleep regulator settling time after a reset. The holdoff
 775:.\Generated_Source\PSoC5/cyPm.c **** *  delay is measured using rising edges of the 1 kHz ILO.
 776:.\Generated_Source\PSoC5/cyPm.c **** *
 777:.\Generated_Source\PSoC5/cyPm.c **** *  For PSoC 3 silicon hardware buzz should be disabled before entering a sleep
 778:.\Generated_Source\PSoC5/cyPm.c **** *  power mode. It is disabled by PSoC Creator during startup.
 779:.\Generated_Source\PSoC5/cyPm.c **** *  If a Low Voltage Interrupt (LVI), High Voltage Interrupt (HVI) or Brown Out
 780:.\Generated_Source\PSoC5/cyPm.c **** *  detect (power supply supervising capabilities) are required in a design
 781:.\Generated_Source\PSoC5/cyPm.c **** *  during sleep, use the Central Time Wheel (CTW) to periodically wake the
 782:.\Generated_Source\PSoC5/cyPm.c **** *  device, perform software buzz, and refresh the supervisory services. If LVI,
 783:.\Generated_Source\PSoC5/cyPm.c **** *  HVI, or Brown Out is not required, then use of the CTW is not required.
 784:.\Generated_Source\PSoC5/cyPm.c **** *  Refer to the device errata for more information.
 785:.\Generated_Source\PSoC5/cyPm.c **** *
 786:.\Generated_Source\PSoC5/cyPm.c **** *******************************************************************************/
 787:.\Generated_Source\PSoC5/cyPm.c **** void CyPmSleep(uint8 wakeupTime, uint16 wakeupSource) 
 788:.\Generated_Source\PSoC5/cyPm.c **** {
 1011              		.loc 1 788 0
 1012              		.cfi_startproc
 1013              		@ args = 0, pretend = 0, frame = 16
 1014              		@ frame_needed = 1, uses_anonymous_args = 0
ARM GAS  C:\Users\CHUCK~1.ERH\AppData\Local\Temp\cceT8Wjf.s 			page 33


 1015 0000 80B5     		push	{r7, lr}
 1016              	.LCFI8:
 1017              		.cfi_def_cfa_offset 8
 1018              		.cfi_offset 7, -8
 1019              		.cfi_offset 14, -4
 1020 0002 84B0     		sub	sp, sp, #16
 1021              	.LCFI9:
 1022              		.cfi_def_cfa_offset 24
 1023 0004 00AF     		add	r7, sp, #0
 1024              	.LCFI10:
 1025              		.cfi_def_cfa_register 7
 1026 0006 0246     		mov	r2, r0
 1027 0008 0B46     		mov	r3, r1
 1028 000a FA71     		strb	r2, [r7, #7]
 1029 000c BB80     		strh	r3, [r7, #4]	@ movhi
 789:.\Generated_Source\PSoC5/cyPm.c ****     uint8 interruptState;
 790:.\Generated_Source\PSoC5/cyPm.c **** 
 791:.\Generated_Source\PSoC5/cyPm.c ****     /* Save current global interrupt enable and disable it */
 792:.\Generated_Source\PSoC5/cyPm.c ****     interruptState = CyEnterCriticalSection();
 1030              		.loc 1 792 0
 1031 000e FFF7FEFF 		bl	CyEnterCriticalSection
 1032 0012 0346     		mov	r3, r0
 1033 0014 FB73     		strb	r3, [r7, #15]
 793:.\Generated_Source\PSoC5/cyPm.c **** 
 794:.\Generated_Source\PSoC5/cyPm.c **** 
 795:.\Generated_Source\PSoC5/cyPm.c ****     /***********************************************************************
 796:.\Generated_Source\PSoC5/cyPm.c ****     * The Hibernate/Sleep regulator has a settling time after a reset.
 797:.\Generated_Source\PSoC5/cyPm.c ****     * During this time, the system ignores requests to enter Sleep and
 798:.\Generated_Source\PSoC5/cyPm.c ****     * Hibernate modes. The holdoff delay is measured using rising edges of
 799:.\Generated_Source\PSoC5/cyPm.c ****     * the 1 kHz ILO.
 800:.\Generated_Source\PSoC5/cyPm.c ****     ***********************************************************************/
 801:.\Generated_Source\PSoC5/cyPm.c ****     if(0u == (CY_PM_MODE_CSR_REG & CY_PM_MODE_CSR_PWRUP_PULSE_Q))
 1034              		.loc 1 801 0
 1035 0016 44F29333 		movw	r3, #17299
 1036 001a C4F20003 		movt	r3, 16384
 1037 001e 1B78     		ldrb	r3, [r3, #0]
 1038 0020 DBB2     		uxtb	r3, r3
 1039 0022 03F00803 		and	r3, r3, #8
 1040 0026 002B     		cmp	r3, #0
 1041 0028 11D1     		bne	.L46
 802:.\Generated_Source\PSoC5/cyPm.c ****     {
 803:.\Generated_Source\PSoC5/cyPm.c ****         /* Disable hold off - no action on restore */
 804:.\Generated_Source\PSoC5/cyPm.c ****         CY_PM_PWRSYS_SLP_TR_REG &= CY_PM_PWRSYS_SLP_TR_HIBSLP_HOLDOFF_MASK;
 1042              		.loc 1 804 0
 1043 002a 44F28363 		movw	r3, #18051
 1044 002e C4F20003 		movt	r3, 16384
 1045 0032 44F28362 		movw	r2, #18051
 1046 0036 C4F20002 		movt	r2, 16384
 1047 003a 1278     		ldrb	r2, [r2, #0]
 1048 003c D2B2     		uxtb	r2, r2
 1049 003e 02F01F02 		and	r2, r2, #31
 1050 0042 D2B2     		uxtb	r2, r2
 1051 0044 1A70     		strb	r2, [r3, #0]
 805:.\Generated_Source\PSoC5/cyPm.c ****     }
 806:.\Generated_Source\PSoC5/cyPm.c ****     else
 807:.\Generated_Source\PSoC5/cyPm.c ****     {
 808:.\Generated_Source\PSoC5/cyPm.c ****         /* Abort, device is not ready for low power mode entry */
ARM GAS  C:\Users\CHUCK~1.ERH\AppData\Local\Temp\cceT8Wjf.s 			page 34


 809:.\Generated_Source\PSoC5/cyPm.c **** 
 810:.\Generated_Source\PSoC5/cyPm.c ****         /* Restore global interrupt enable state */
 811:.\Generated_Source\PSoC5/cyPm.c ****         CyExitCriticalSection(interruptState);
 812:.\Generated_Source\PSoC5/cyPm.c **** 
 813:.\Generated_Source\PSoC5/cyPm.c ****         return;
 814:.\Generated_Source\PSoC5/cyPm.c ****     }
 815:.\Generated_Source\PSoC5/cyPm.c **** 
 816:.\Generated_Source\PSoC5/cyPm.c **** 
 817:.\Generated_Source\PSoC5/cyPm.c ****     /***********************************************************************
 818:.\Generated_Source\PSoC5/cyPm.c ****     * PSoC3 < TO6:
 819:.\Generated_Source\PSoC5/cyPm.c ****     * - Hardware buzz must be disabled before sleep mode entry.
 820:.\Generated_Source\PSoC5/cyPm.c ****     * - Voltage supervision (HVI/LVI) requires hardware buzz, so they must
 821:.\Generated_Source\PSoC5/cyPm.c ****     *   be aslo disabled.
 822:.\Generated_Source\PSoC5/cyPm.c ****     *
 823:.\Generated_Source\PSoC5/cyPm.c ****     * PSoC3 >= TO6:
 824:.\Generated_Source\PSoC5/cyPm.c ****     * - Voltage supervision (HVI/LVI) requires hardware buzz, so hardware buzz must be
 825:.\Generated_Source\PSoC5/cyPm.c ****     *   enabled before sleep mode entry and restored on wakeup.
 826:.\Generated_Source\PSoC5/cyPm.c ****     ***********************************************************************/
 827:.\Generated_Source\PSoC5/cyPm.c ****     #if(CY_PSOC3)
 828:.\Generated_Source\PSoC5/cyPm.c **** 
 829:.\Generated_Source\PSoC5/cyPm.c ****         /* Silicon Revision ID is below TO6 */
 830:.\Generated_Source\PSoC5/cyPm.c ****         if(CYDEV_CHIP_REV_ACTUAL < 5u)
 831:.\Generated_Source\PSoC5/cyPm.c ****         {
 832:.\Generated_Source\PSoC5/cyPm.c ****             /* Hardware buzz expected to be disabled in Sleep mode */
 833:.\Generated_Source\PSoC5/cyPm.c ****             CYASSERT(0u == (CY_PM_PWRSYS_WAKE_TR2_REG & CY_PM_PWRSYS_WAKE_TR2_EN_BUZZ));
 834:.\Generated_Source\PSoC5/cyPm.c ****         }
 835:.\Generated_Source\PSoC5/cyPm.c **** 
 836:.\Generated_Source\PSoC5/cyPm.c **** 
 837:.\Generated_Source\PSoC5/cyPm.c ****         if(0u != (CY_PM_RESET_CR1_REG & (CY_PM_RESET_CR1_HVIA_EN |
 838:.\Generated_Source\PSoC5/cyPm.c ****             CY_PM_RESET_CR1_LVIA_EN | CY_PM_RESET_CR1_LVID_EN)))
 839:.\Generated_Source\PSoC5/cyPm.c ****         {
 840:.\Generated_Source\PSoC5/cyPm.c ****             if(CYDEV_CHIP_REV_ACTUAL < 5u)
 841:.\Generated_Source\PSoC5/cyPm.c ****             {
 842:.\Generated_Source\PSoC5/cyPm.c ****                 /* LVI/HVI requires hardware buzz to be enabled */
 843:.\Generated_Source\PSoC5/cyPm.c ****                 CYASSERT(0u != 0u);
 844:.\Generated_Source\PSoC5/cyPm.c ****             }
 845:.\Generated_Source\PSoC5/cyPm.c ****             else
 846:.\Generated_Source\PSoC5/cyPm.c ****             {
 847:.\Generated_Source\PSoC5/cyPm.c ****                 if (0u == (CY_PM_PWRSYS_WAKE_TR2_REG & CY_PM_PWRSYS_WAKE_TR2_EN_BUZZ))
 848:.\Generated_Source\PSoC5/cyPm.c ****                 {
 849:.\Generated_Source\PSoC5/cyPm.c ****                     cyPmBackup.hardwareBuzz = CY_PM_DISABLED;
 850:.\Generated_Source\PSoC5/cyPm.c ****                     CY_PM_PWRSYS_WAKE_TR2_REG |= CY_PM_PWRSYS_WAKE_TR2_EN_BUZZ;
 851:.\Generated_Source\PSoC5/cyPm.c ****                 }
 852:.\Generated_Source\PSoC5/cyPm.c ****                 else
 853:.\Generated_Source\PSoC5/cyPm.c ****                 {
 854:.\Generated_Source\PSoC5/cyPm.c ****                     cyPmBackup.hardwareBuzz = CY_PM_ENABLED;
 855:.\Generated_Source\PSoC5/cyPm.c ****                 }
 856:.\Generated_Source\PSoC5/cyPm.c ****             }
 857:.\Generated_Source\PSoC5/cyPm.c ****         }
 858:.\Generated_Source\PSoC5/cyPm.c **** 
 859:.\Generated_Source\PSoC5/cyPm.c ****     #endif /* (CY_PSOC3) */
 860:.\Generated_Source\PSoC5/cyPm.c **** 
 861:.\Generated_Source\PSoC5/cyPm.c **** 
 862:.\Generated_Source\PSoC5/cyPm.c ****     /*******************************************************************************
 863:.\Generated_Source\PSoC5/cyPm.c ****     * For ARM-based devices, an interrupt is required for the CPU to wake up. The
 864:.\Generated_Source\PSoC5/cyPm.c ****     * Power Management implementation assumes that wakeup time is configured with a
 865:.\Generated_Source\PSoC5/cyPm.c ****     * separate component (component-based wakeup time configuration) for an
ARM GAS  C:\Users\CHUCK~1.ERH\AppData\Local\Temp\cceT8Wjf.s 			page 35


 866:.\Generated_Source\PSoC5/cyPm.c ****     * interrupt to be issued on terminal count. For more information, refer to the
 867:.\Generated_Source\PSoC5/cyPm.c ****     * Wakeup Time Configuration section of System Reference Guide.
 868:.\Generated_Source\PSoC5/cyPm.c ****     *******************************************************************************/
 869:.\Generated_Source\PSoC5/cyPm.c ****     #if(CY_PSOC5)
 870:.\Generated_Source\PSoC5/cyPm.c **** 
 871:.\Generated_Source\PSoC5/cyPm.c ****         /* Arguments expected to be 0 */
 872:.\Generated_Source\PSoC5/cyPm.c ****         CYASSERT(PM_SLEEP_TIME_NONE == wakeupTime);
 1052              		.loc 1 872 0
 1053 0046 FB79     		ldrb	r3, [r7, #7]	@ zero_extendqisi2
 1054 0048 002B     		cmp	r3, #0
 1055 004a 05D1     		bne	.L47
 1056 004c 08E0     		b	.L48
 1057              	.L46:
 811:.\Generated_Source\PSoC5/cyPm.c ****         CyExitCriticalSection(interruptState);
 1058              		.loc 1 811 0
 1059 004e FB7B     		ldrb	r3, [r7, #15]	@ zero_extendqisi2
 1060 0050 1846     		mov	r0, r3
 1061 0052 FFF7FEFF 		bl	CyExitCriticalSection
 813:.\Generated_Source\PSoC5/cyPm.c ****         return;
 1062              		.loc 1 813 0
 1063 0056 DDE0     		b	.L45
 1064              	.L47:
 1065              		.loc 1 872 0 discriminator 1
 1066 0058 4FF00000 		mov	r0, #0
 1067 005c FFF7FEFF 		bl	CyHalt
 1068              	.L48:
 873:.\Generated_Source\PSoC5/cyPm.c **** 
 874:.\Generated_Source\PSoC5/cyPm.c ****         if(0u != wakeupTime)
 875:.\Generated_Source\PSoC5/cyPm.c ****         {
 876:.\Generated_Source\PSoC5/cyPm.c ****             /* To remove unreferenced local variable warning */
 877:.\Generated_Source\PSoC5/cyPm.c ****         }
 878:.\Generated_Source\PSoC5/cyPm.c **** 
 879:.\Generated_Source\PSoC5/cyPm.c ****     #endif /* (CY_PSOC5) */
 880:.\Generated_Source\PSoC5/cyPm.c **** 
 881:.\Generated_Source\PSoC5/cyPm.c **** 
 882:.\Generated_Source\PSoC5/cyPm.c ****     CyPmHibSlpSaveSet();
 1069              		.loc 1 882 0
 1070 0060 FFF7FEFF 		bl	CyPmHibSlpSaveSet
 883:.\Generated_Source\PSoC5/cyPm.c **** 
 884:.\Generated_Source\PSoC5/cyPm.c **** 
 885:.\Generated_Source\PSoC5/cyPm.c ****     #if(CY_PSOC3)
 886:.\Generated_Source\PSoC5/cyPm.c **** 
 887:.\Generated_Source\PSoC5/cyPm.c ****         /* CTW - save current and set new configuration */
 888:.\Generated_Source\PSoC5/cyPm.c ****         if((wakeupTime >= PM_SLEEP_TIME_CTW_2MS) && (wakeupTime <= PM_SLEEP_TIME_CTW_4096MS))
 889:.\Generated_Source\PSoC5/cyPm.c ****         {
 890:.\Generated_Source\PSoC5/cyPm.c ****             /* Save current and set new configuration of the CTW */
 891:.\Generated_Source\PSoC5/cyPm.c ****             CyPmCtwSetInterval((uint8)(wakeupTime - 1u));
 892:.\Generated_Source\PSoC5/cyPm.c **** 
 893:.\Generated_Source\PSoC5/cyPm.c ****             /* Include associated timer to the wakeupSource */
 894:.\Generated_Source\PSoC5/cyPm.c ****             wakeupSource |= PM_SLEEP_SRC_CTW;
 895:.\Generated_Source\PSoC5/cyPm.c ****         }
 896:.\Generated_Source\PSoC5/cyPm.c **** 
 897:.\Generated_Source\PSoC5/cyPm.c ****         /* 1PPS - save current and set new configuration */
 898:.\Generated_Source\PSoC5/cyPm.c ****         if(PM_SLEEP_TIME_ONE_PPS == wakeupTime)
 899:.\Generated_Source\PSoC5/cyPm.c ****         {
 900:.\Generated_Source\PSoC5/cyPm.c ****             /* Save current and set new configuration of the 1PPS */
 901:.\Generated_Source\PSoC5/cyPm.c ****             CyPmOppsSet();
ARM GAS  C:\Users\CHUCK~1.ERH\AppData\Local\Temp\cceT8Wjf.s 			page 36


 902:.\Generated_Source\PSoC5/cyPm.c **** 
 903:.\Generated_Source\PSoC5/cyPm.c ****             /* Include associated timer to the wakeupSource */
 904:.\Generated_Source\PSoC5/cyPm.c ****             wakeupSource |= PM_SLEEP_SRC_ONE_PPS;
 905:.\Generated_Source\PSoC5/cyPm.c ****         }
 906:.\Generated_Source\PSoC5/cyPm.c **** 
 907:.\Generated_Source\PSoC5/cyPm.c ****     #endif /* (CY_PSOC3) */
 908:.\Generated_Source\PSoC5/cyPm.c **** 
 909:.\Generated_Source\PSoC5/cyPm.c **** 
 910:.\Generated_Source\PSoC5/cyPm.c ****     /* Save and set new wake up configuration */
 911:.\Generated_Source\PSoC5/cyPm.c **** 
 912:.\Generated_Source\PSoC5/cyPm.c ****     /* Interrupt, PICU, I2C, Boost converter, CTW/1PPS */
 913:.\Generated_Source\PSoC5/cyPm.c ****     cyPmBackup.wakeupCfg0 = CY_PM_WAKEUP_CFG0_REG;
 1071              		.loc 1 913 0
 1072 0064 44F29833 		movw	r3, #17304
 1073 0068 C4F20003 		movt	r3, 16384
 1074 006c 1B78     		ldrb	r3, [r3, #0]
 1075 006e DAB2     		uxtb	r2, r3
 1076 0070 40F20003 		movw	r3, #:lower16:cyPmBackup
 1077 0074 C0F20003 		movt	r3, #:upper16:cyPmBackup
 1078 0078 1A71     		strb	r2, [r3, #4]
 914:.\Generated_Source\PSoC5/cyPm.c ****     CY_PM_WAKEUP_CFG0_REG = (uint8) (wakeupSource >> 4u);
 1079              		.loc 1 914 0
 1080 007a 44F29833 		movw	r3, #17304
 1081 007e C4F20003 		movt	r3, 16384
 1082 0082 BA88     		ldrh	r2, [r7, #4]
 1083 0084 4FEA1212 		lsr	r2, r2, #4
 1084 0088 92B2     		uxth	r2, r2
 1085 008a D2B2     		uxtb	r2, r2
 1086 008c 1A70     		strb	r2, [r3, #0]
 915:.\Generated_Source\PSoC5/cyPm.c **** 
 916:.\Generated_Source\PSoC5/cyPm.c ****     /* Comparators */
 917:.\Generated_Source\PSoC5/cyPm.c ****     cyPmBackup.wakeupCfg1 = CY_PM_WAKEUP_CFG1_REG;
 1087              		.loc 1 917 0
 1088 008e 44F29933 		movw	r3, #17305
 1089 0092 C4F20003 		movt	r3, 16384
 1090 0096 1B78     		ldrb	r3, [r3, #0]
 1091 0098 DAB2     		uxtb	r2, r3
 1092 009a 40F20003 		movw	r3, #:lower16:cyPmBackup
 1093 009e C0F20003 		movt	r3, #:upper16:cyPmBackup
 1094 00a2 5A71     		strb	r2, [r3, #5]
 918:.\Generated_Source\PSoC5/cyPm.c ****     CY_PM_WAKEUP_CFG1_REG = (((uint8) wakeupSource) & CY_PM_WAKEUP_SRC_CMPS_MASK);
 1095              		.loc 1 918 0
 1096 00a4 44F29933 		movw	r3, #17305
 1097 00a8 C4F20003 		movt	r3, 16384
 1098 00ac BA88     		ldrh	r2, [r7, #4]	@ movhi
 1099 00ae D2B2     		uxtb	r2, r2
 1100 00b0 02F00F02 		and	r2, r2, #15
 1101 00b4 D2B2     		uxtb	r2, r2
 1102 00b6 1A70     		strb	r2, [r3, #0]
 919:.\Generated_Source\PSoC5/cyPm.c **** 
 920:.\Generated_Source\PSoC5/cyPm.c ****     /* LCD */
 921:.\Generated_Source\PSoC5/cyPm.c ****     cyPmBackup.wakeupCfg2 = CY_PM_WAKEUP_CFG2_REG;
 1103              		.loc 1 921 0
 1104 00b8 44F29A33 		movw	r3, #17306
 1105 00bc C4F20003 		movt	r3, 16384
 1106 00c0 1B78     		ldrb	r3, [r3, #0]
 1107 00c2 DAB2     		uxtb	r2, r3
ARM GAS  C:\Users\CHUCK~1.ERH\AppData\Local\Temp\cceT8Wjf.s 			page 37


 1108 00c4 40F20003 		movw	r3, #:lower16:cyPmBackup
 1109 00c8 C0F20003 		movt	r3, #:upper16:cyPmBackup
 1110 00cc 9A71     		strb	r2, [r3, #6]
 922:.\Generated_Source\PSoC5/cyPm.c ****     CY_PM_WAKEUP_CFG2_REG = ((uint8) ((wakeupSource >> 12u) & 0x01u));
 1111              		.loc 1 922 0
 1112 00ce 44F29A33 		movw	r3, #17306
 1113 00d2 C4F20003 		movt	r3, 16384
 1114 00d6 BA88     		ldrh	r2, [r7, #4]
 1115 00d8 4FEA1232 		lsr	r2, r2, #12
 1116 00dc 92B2     		uxth	r2, r2
 1117 00de D2B2     		uxtb	r2, r2
 1118 00e0 02F00102 		and	r2, r2, #1
 1119 00e4 D2B2     		uxtb	r2, r2
 1120 00e6 1A70     		strb	r2, [r3, #0]
 923:.\Generated_Source\PSoC5/cyPm.c **** 
 924:.\Generated_Source\PSoC5/cyPm.c **** 
 925:.\Generated_Source\PSoC5/cyPm.c ****     /*******************************************************************
 926:.\Generated_Source\PSoC5/cyPm.c ****     * Do not use merge region below unless any component datasheet
 927:.\Generated_Source\PSoC5/cyPm.c ****     * suggest to do so.
 928:.\Generated_Source\PSoC5/cyPm.c ****     *******************************************************************/
 929:.\Generated_Source\PSoC5/cyPm.c ****     /* `#START CY_PM_JUST_BEFORE_SLEEP` */
 930:.\Generated_Source\PSoC5/cyPm.c **** 
 931:.\Generated_Source\PSoC5/cyPm.c ****     /* `#END` */
 932:.\Generated_Source\PSoC5/cyPm.c **** 
 933:.\Generated_Source\PSoC5/cyPm.c **** 
 934:.\Generated_Source\PSoC5/cyPm.c ****     /* Last moment IMO frequency change */
 935:.\Generated_Source\PSoC5/cyPm.c ****     if(0u == (CY_PM_FASTCLK_IMO_CR_REG & CY_PM_FASTCLK_IMO_CR_FREQ_MASK))
 1121              		.loc 1 935 0
 1122 00e8 4FF48443 		mov	r3, #16896
 1123 00ec C4F20003 		movt	r3, 16384
 1124 00f0 1B78     		ldrb	r3, [r3, #0]
 1125 00f2 DBB2     		uxtb	r3, r3
 1126 00f4 03F00703 		and	r3, r3, #7
 1127 00f8 002B     		cmp	r3, #0
 1128 00fa 08D1     		bne	.L50
 936:.\Generated_Source\PSoC5/cyPm.c ****     {
 937:.\Generated_Source\PSoC5/cyPm.c ****         /* IMO frequency is 12 MHz */
 938:.\Generated_Source\PSoC5/cyPm.c ****         cyPmBackup.imoActFreq12Mhz = CY_PM_ENABLED;
 1129              		.loc 1 938 0
 1130 00fc 40F20003 		movw	r3, #:lower16:cyPmBackup
 1131 0100 C0F20003 		movt	r3, #:upper16:cyPmBackup
 1132 0104 4FF00102 		mov	r2, #1
 1133 0108 83F82D20 		strb	r2, [r3, #45]
 1134 010c 24E0     		b	.L51
 1135              	.L50:
 939:.\Generated_Source\PSoC5/cyPm.c ****     }
 940:.\Generated_Source\PSoC5/cyPm.c ****     else
 941:.\Generated_Source\PSoC5/cyPm.c ****     {
 942:.\Generated_Source\PSoC5/cyPm.c ****         /* IMO frequency is not 12 MHz */
 943:.\Generated_Source\PSoC5/cyPm.c ****         cyPmBackup.imoActFreq12Mhz = CY_PM_DISABLED;
 1136              		.loc 1 943 0
 1137 010e 40F20003 		movw	r3, #:lower16:cyPmBackup
 1138 0112 C0F20003 		movt	r3, #:upper16:cyPmBackup
 1139 0116 4FF00002 		mov	r2, #0
 1140 011a 83F82D20 		strb	r2, [r3, #45]
 944:.\Generated_Source\PSoC5/cyPm.c **** 
 945:.\Generated_Source\PSoC5/cyPm.c ****         /* Save IMO frequency */
ARM GAS  C:\Users\CHUCK~1.ERH\AppData\Local\Temp\cceT8Wjf.s 			page 38


 946:.\Generated_Source\PSoC5/cyPm.c ****         cyPmBackup.imoActFreq = CY_PM_FASTCLK_IMO_CR_REG & CY_PM_FASTCLK_IMO_CR_FREQ_MASK;
 1141              		.loc 1 946 0
 1142 011e 4FF48443 		mov	r3, #16896
 1143 0122 C4F20003 		movt	r3, 16384
 1144 0126 1B78     		ldrb	r3, [r3, #0]
 1145 0128 DBB2     		uxtb	r3, r3
 1146 012a 03F00703 		and	r3, r3, #7
 1147 012e DAB2     		uxtb	r2, r3
 1148 0130 40F20003 		movw	r3, #:lower16:cyPmBackup
 1149 0134 C0F20003 		movt	r3, #:upper16:cyPmBackup
 1150 0138 83F82C20 		strb	r2, [r3, #44]
 947:.\Generated_Source\PSoC5/cyPm.c **** 
 948:.\Generated_Source\PSoC5/cyPm.c ****         /* Set IMO frequency to 12 MHz */
 949:.\Generated_Source\PSoC5/cyPm.c ****         CY_PM_FASTCLK_IMO_CR_REG &= ((uint8) (~CY_PM_FASTCLK_IMO_CR_FREQ_MASK));
 1151              		.loc 1 949 0
 1152 013c 4FF48443 		mov	r3, #16896
 1153 0140 C4F20003 		movt	r3, 16384
 1154 0144 4FF48442 		mov	r2, #16896
 1155 0148 C4F20002 		movt	r2, 16384
 1156 014c 1278     		ldrb	r2, [r2, #0]
 1157 014e D2B2     		uxtb	r2, r2
 1158 0150 22F00702 		bic	r2, r2, #7
 1159 0154 D2B2     		uxtb	r2, r2
 1160 0156 1A70     		strb	r2, [r3, #0]
 1161              	.L51:
 950:.\Generated_Source\PSoC5/cyPm.c ****     }
 951:.\Generated_Source\PSoC5/cyPm.c **** 
 952:.\Generated_Source\PSoC5/cyPm.c ****     /* Switch to the Sleep mode */
 953:.\Generated_Source\PSoC5/cyPm.c ****     CY_PM_MODE_CSR_REG = ((CY_PM_MODE_CSR_REG & ((uint8)(~CY_PM_MODE_CSR_MASK))) | CY_PM_MODE_CSR_S
 1162              		.loc 1 953 0
 1163 0158 44F29333 		movw	r3, #17299
 1164 015c C4F20003 		movt	r3, 16384
 1165 0160 44F29332 		movw	r2, #17299
 1166 0164 C4F20002 		movt	r2, 16384
 1167 0168 1278     		ldrb	r2, [r2, #0]
 1168 016a D2B2     		uxtb	r2, r2
 1169 016c 22F00702 		bic	r2, r2, #7
 1170 0170 D2B2     		uxtb	r2, r2
 1171 0172 42F00302 		orr	r2, r2, #3
 1172 0176 D2B2     		uxtb	r2, r2
 1173 0178 1A70     		strb	r2, [r3, #0]
 954:.\Generated_Source\PSoC5/cyPm.c **** 
 955:.\Generated_Source\PSoC5/cyPm.c ****     /* Recommended readback. */
 956:.\Generated_Source\PSoC5/cyPm.c ****     (void) CY_PM_MODE_CSR_REG;
 1174              		.loc 1 956 0
 1175 017a 44F29333 		movw	r3, #17299
 1176 017e C4F20003 		movt	r3, 16384
 1177 0182 1B78     		ldrb	r3, [r3, #0]
 957:.\Generated_Source\PSoC5/cyPm.c **** 
 958:.\Generated_Source\PSoC5/cyPm.c ****     /* Two recommended NOPs to get into the mode. */
 959:.\Generated_Source\PSoC5/cyPm.c ****     CY_NOP;
 1178              		.loc 1 959 0
 1179              	@ 959 ".\Generated_Source\PSoC5\cyPm.c" 1
 1180 0184 00BF     		NOP
 1181              	
 1182              	@ 0 "" 2
 960:.\Generated_Source\PSoC5/cyPm.c ****     CY_NOP;
ARM GAS  C:\Users\CHUCK~1.ERH\AppData\Local\Temp\cceT8Wjf.s 			page 39


 1183              		.loc 1 960 0
 1184              	@ 960 ".\Generated_Source\PSoC5\cyPm.c" 1
 1185 0186 00BF     		NOP
 1186              	
 1187              	@ 0 "" 2
 961:.\Generated_Source\PSoC5/cyPm.c **** 
 962:.\Generated_Source\PSoC5/cyPm.c ****     /* Execute WFI instruction (for ARM-based devices only) */
 963:.\Generated_Source\PSoC5/cyPm.c ****     CY_PM_WFI;
 1188              		.loc 1 963 0
 1189              	@ 963 ".\Generated_Source\PSoC5\cyPm.c" 1
 1190 0188 30BF     		WFI 
 1191              	
 1192              	@ 0 "" 2
 964:.\Generated_Source\PSoC5/cyPm.c **** 
 965:.\Generated_Source\PSoC5/cyPm.c ****     /* Point of return from Sleep Mode */
 966:.\Generated_Source\PSoC5/cyPm.c **** 
 967:.\Generated_Source\PSoC5/cyPm.c ****     /* Restore last moment IMO frequency change */
 968:.\Generated_Source\PSoC5/cyPm.c ****     if(CY_PM_ENABLED != cyPmBackup.imoActFreq12Mhz)
 1193              		.loc 1 968 0
 1194              		.thumb
 1195 018a 40F20003 		movw	r3, #:lower16:cyPmBackup
 1196 018e C0F20003 		movt	r3, #:upper16:cyPmBackup
 1197 0192 93F82D30 		ldrb	r3, [r3, #45]	@ zero_extendqisi2
 1198 0196 012B     		cmp	r3, #1
 1199 0198 18D0     		beq	.L52
 969:.\Generated_Source\PSoC5/cyPm.c ****     {
 970:.\Generated_Source\PSoC5/cyPm.c ****         CY_PM_FASTCLK_IMO_CR_REG  = (CY_PM_FASTCLK_IMO_CR_REG & ((uint8)(~CY_PM_FASTCLK_IMO_CR_FREQ
 1200              		.loc 1 970 0
 1201 019a 4FF48443 		mov	r3, #16896
 1202 019e C4F20003 		movt	r3, 16384
 1203 01a2 4FF48442 		mov	r2, #16896
 1204 01a6 C4F20002 		movt	r2, 16384
 1205 01aa 1278     		ldrb	r2, [r2, #0]
 1206 01ac D2B2     		uxtb	r2, r2
 1207 01ae D2B2     		uxtb	r2, r2
 1208 01b0 22F00702 		bic	r2, r2, #7
 1209 01b4 D1B2     		uxtb	r1, r2
 971:.\Generated_Source\PSoC5/cyPm.c ****                                     cyPmBackup.imoActFreq;
 1210              		.loc 1 971 0
 1211 01b6 40F20002 		movw	r2, #:lower16:cyPmBackup
 1212 01ba C0F20002 		movt	r2, #:upper16:cyPmBackup
 1213 01be 92F82C20 		ldrb	r2, [r2, #44]	@ zero_extendqisi2
 970:.\Generated_Source\PSoC5/cyPm.c ****         CY_PM_FASTCLK_IMO_CR_REG  = (CY_PM_FASTCLK_IMO_CR_REG & ((uint8)(~CY_PM_FASTCLK_IMO_CR_FREQ
 1214              		.loc 1 970 0
 1215 01c2 D2B2     		uxtb	r2, r2
 1216 01c4 0A43     		orrs	r2, r2, r1
 1217 01c6 D2B2     		uxtb	r2, r2
 1218 01c8 D2B2     		uxtb	r2, r2
 1219 01ca 1A70     		strb	r2, [r3, #0]
 1220              	.L52:
 972:.\Generated_Source\PSoC5/cyPm.c ****     }
 973:.\Generated_Source\PSoC5/cyPm.c **** 
 974:.\Generated_Source\PSoC5/cyPm.c **** 
 975:.\Generated_Source\PSoC5/cyPm.c ****     /*******************************************************************
 976:.\Generated_Source\PSoC5/cyPm.c ****     * Do not use merge region below unless any component datasheet
 977:.\Generated_Source\PSoC5/cyPm.c ****     * suggest to do so.
 978:.\Generated_Source\PSoC5/cyPm.c ****     *******************************************************************/
ARM GAS  C:\Users\CHUCK~1.ERH\AppData\Local\Temp\cceT8Wjf.s 			page 40


 979:.\Generated_Source\PSoC5/cyPm.c ****     /* `#START CY_PM_JUST_AFTER_WAKEUP_FROM_SLEEP` */
 980:.\Generated_Source\PSoC5/cyPm.c **** 
 981:.\Generated_Source\PSoC5/cyPm.c ****     /* `#END` */
 982:.\Generated_Source\PSoC5/cyPm.c **** 
 983:.\Generated_Source\PSoC5/cyPm.c **** 
 984:.\Generated_Source\PSoC5/cyPm.c ****     /* Restore hardware configuration */
 985:.\Generated_Source\PSoC5/cyPm.c ****     CyPmHibSlpRestore();
 1221              		.loc 1 985 0
 1222 01cc FFF7FEFF 		bl	CyPmHibSlpRestore
 986:.\Generated_Source\PSoC5/cyPm.c **** 
 987:.\Generated_Source\PSoC5/cyPm.c **** 
 988:.\Generated_Source\PSoC5/cyPm.c ****     /* Disable hardware buzz, if it was previously enabled */
 989:.\Generated_Source\PSoC5/cyPm.c ****     #if(CY_PSOC3)
 990:.\Generated_Source\PSoC5/cyPm.c **** 
 991:.\Generated_Source\PSoC5/cyPm.c ****         if(0u != (CY_PM_RESET_CR1_REG & (CY_PM_RESET_CR1_HVIA_EN |
 992:.\Generated_Source\PSoC5/cyPm.c ****             CY_PM_RESET_CR1_LVIA_EN | CY_PM_RESET_CR1_LVID_EN)))
 993:.\Generated_Source\PSoC5/cyPm.c ****         {
 994:.\Generated_Source\PSoC5/cyPm.c ****             if(CYDEV_CHIP_REV_ACTUAL >= 5u)
 995:.\Generated_Source\PSoC5/cyPm.c ****             {
 996:.\Generated_Source\PSoC5/cyPm.c ****                 if (CY_PM_DISABLED == cyPmBackup.hardwareBuzz)
 997:.\Generated_Source\PSoC5/cyPm.c ****                 {
 998:.\Generated_Source\PSoC5/cyPm.c ****                     CY_PM_PWRSYS_WAKE_TR2_REG &= (uint8)(~CY_PM_PWRSYS_WAKE_TR2_EN_BUZZ);
 999:.\Generated_Source\PSoC5/cyPm.c ****                 }
1000:.\Generated_Source\PSoC5/cyPm.c ****             }
1001:.\Generated_Source\PSoC5/cyPm.c ****         }
1002:.\Generated_Source\PSoC5/cyPm.c **** 
1003:.\Generated_Source\PSoC5/cyPm.c ****     #endif /* (CY_PSOC3) */
1004:.\Generated_Source\PSoC5/cyPm.c **** 
1005:.\Generated_Source\PSoC5/cyPm.c **** 
1006:.\Generated_Source\PSoC5/cyPm.c ****     /* Restore current wake up configuration */
1007:.\Generated_Source\PSoC5/cyPm.c ****     CY_PM_WAKEUP_CFG0_REG = cyPmBackup.wakeupCfg0;
 1223              		.loc 1 1007 0
 1224 01d0 44F29833 		movw	r3, #17304
 1225 01d4 C4F20003 		movt	r3, 16384
 1226 01d8 40F20002 		movw	r2, #:lower16:cyPmBackup
 1227 01dc C0F20002 		movt	r2, #:upper16:cyPmBackup
 1228 01e0 1279     		ldrb	r2, [r2, #4]	@ zero_extendqisi2
 1229 01e2 1A70     		strb	r2, [r3, #0]
1008:.\Generated_Source\PSoC5/cyPm.c ****     CY_PM_WAKEUP_CFG1_REG = cyPmBackup.wakeupCfg1;
 1230              		.loc 1 1008 0
 1231 01e4 44F29933 		movw	r3, #17305
 1232 01e8 C4F20003 		movt	r3, 16384
 1233 01ec 40F20002 		movw	r2, #:lower16:cyPmBackup
 1234 01f0 C0F20002 		movt	r2, #:upper16:cyPmBackup
 1235 01f4 5279     		ldrb	r2, [r2, #5]	@ zero_extendqisi2
 1236 01f6 1A70     		strb	r2, [r3, #0]
1009:.\Generated_Source\PSoC5/cyPm.c ****     CY_PM_WAKEUP_CFG2_REG = cyPmBackup.wakeupCfg2;
 1237              		.loc 1 1009 0
 1238 01f8 44F29A33 		movw	r3, #17306
 1239 01fc C4F20003 		movt	r3, 16384
 1240 0200 40F20002 		movw	r2, #:lower16:cyPmBackup
 1241 0204 C0F20002 		movt	r2, #:upper16:cyPmBackup
 1242 0208 9279     		ldrb	r2, [r2, #6]	@ zero_extendqisi2
 1243 020a 1A70     		strb	r2, [r3, #0]
1010:.\Generated_Source\PSoC5/cyPm.c **** 
1011:.\Generated_Source\PSoC5/cyPm.c ****     /* Restore global interrupt enable state */
1012:.\Generated_Source\PSoC5/cyPm.c ****     CyExitCriticalSection(interruptState);
ARM GAS  C:\Users\CHUCK~1.ERH\AppData\Local\Temp\cceT8Wjf.s 			page 41


 1244              		.loc 1 1012 0
 1245 020c FB7B     		ldrb	r3, [r7, #15]	@ zero_extendqisi2
 1246 020e 1846     		mov	r0, r3
 1247 0210 FFF7FEFF 		bl	CyExitCriticalSection
 1248              	.L45:
1013:.\Generated_Source\PSoC5/cyPm.c **** }
 1249              		.loc 1 1013 0
 1250 0214 07F11007 		add	r7, r7, #16
 1251 0218 BD46     		mov	sp, r7
 1252 021a 80BD     		pop	{r7, pc}
 1253              		.cfi_endproc
 1254              	.LFE3:
 1255              		.size	CyPmSleep, .-CyPmSleep
 1256              		.section	.text.CyPmHibernate,"ax",%progbits
 1257              		.align	2
 1258              		.global	CyPmHibernate
 1259              		.thumb
 1260              		.thumb_func
 1261              		.type	CyPmHibernate, %function
 1262              	CyPmHibernate:
 1263              	.LFB4:
1014:.\Generated_Source\PSoC5/cyPm.c **** 
1015:.\Generated_Source\PSoC5/cyPm.c **** 
1016:.\Generated_Source\PSoC5/cyPm.c **** /*******************************************************************************
1017:.\Generated_Source\PSoC5/cyPm.c **** * Function Name: CyPmHibernate
1018:.\Generated_Source\PSoC5/cyPm.c **** ********************************************************************************
1019:.\Generated_Source\PSoC5/cyPm.c **** *
1020:.\Generated_Source\PSoC5/cyPm.c **** * Summary:
1021:.\Generated_Source\PSoC5/cyPm.c **** *  Puts the part into the Hibernate state.
1022:.\Generated_Source\PSoC5/cyPm.c **** *
1023:.\Generated_Source\PSoC5/cyPm.c **** *  PSoC 3 and PSoC 5LP:
1024:.\Generated_Source\PSoC5/cyPm.c **** *  Before switching to Hibernate, the current status of the PICU wakeup source
1025:.\Generated_Source\PSoC5/cyPm.c **** *  bit is saved and then set. This configures the device to wake up from the
1026:.\Generated_Source\PSoC5/cyPm.c **** *  PICU. Make sure you have at least one pin configured to generate a PICU
1027:.\Generated_Source\PSoC5/cyPm.c **** *  interrupt. For pin Px.y, the register "PICU_INTTYPE_PICUx_INTTYPEy" controls
1028:.\Generated_Source\PSoC5/cyPm.c **** *  the PICU behavior. In the TRM, this register is "PICU[0..15]_INTTYPE[0..7]."
1029:.\Generated_Source\PSoC5/cyPm.c **** *  In the Pins component datasheet, this register is referred to as the IRQ
1030:.\Generated_Source\PSoC5/cyPm.c **** *  option. Once the wakeup occurs, the PICU wakeup source bit is restored and
1031:.\Generated_Source\PSoC5/cyPm.c **** *  the PSoC returns to the Active state.
1032:.\Generated_Source\PSoC5/cyPm.c **** *
1033:.\Generated_Source\PSoC5/cyPm.c **** * Parameters:
1034:.\Generated_Source\PSoC5/cyPm.c **** *  None
1035:.\Generated_Source\PSoC5/cyPm.c **** *
1036:.\Generated_Source\PSoC5/cyPm.c **** * Return:
1037:.\Generated_Source\PSoC5/cyPm.c **** *  None
1038:.\Generated_Source\PSoC5/cyPm.c **** *
1039:.\Generated_Source\PSoC5/cyPm.c **** * Reentrant:
1040:.\Generated_Source\PSoC5/cyPm.c **** *  No
1041:.\Generated_Source\PSoC5/cyPm.c **** *
1042:.\Generated_Source\PSoC5/cyPm.c **** * Side Effects:
1043:.\Generated_Source\PSoC5/cyPm.c **** *  Applications must wait 20 us before re-entering hibernate or sleep after
1044:.\Generated_Source\PSoC5/cyPm.c **** *  waking up from hibernate. The 20 us allows the sleep regulator time to
1045:.\Generated_Source\PSoC5/cyPm.c **** *  stabilize before the next hibernate / sleep event occurs. The 20 us
1046:.\Generated_Source\PSoC5/cyPm.c **** *  requirement begins when the device wakes up. There is no hardware check that
1047:.\Generated_Source\PSoC5/cyPm.c **** *  this requirement is met. The specified delay should be done on ISR entry.
1048:.\Generated_Source\PSoC5/cyPm.c **** *
1049:.\Generated_Source\PSoC5/cyPm.c **** *  After wakeup PICU interrupt occurs, the Pin_ClearInterrupt() (where Pin is
ARM GAS  C:\Users\CHUCK~1.ERH\AppData\Local\Temp\cceT8Wjf.s 			page 42


1050:.\Generated_Source\PSoC5/cyPm.c **** *  instance name of the Pins component) function must be called to clear the
1051:.\Generated_Source\PSoC5/cyPm.c **** *  latched pin events to allow proper Hibernate mode entry andd to enable
1052:.\Generated_Source\PSoC5/cyPm.c **** *  detection of future events.
1053:.\Generated_Source\PSoC5/cyPm.c **** *
1054:.\Generated_Source\PSoC5/cyPm.c **** *  The 1 kHz ILO clock is expected to be enabled for PSoC 3 and PSoC 5LP to
1055:.\Generated_Source\PSoC5/cyPm.c **** *  measure Hibernate/Sleep regulator settling time after a reset. The holdoff
1056:.\Generated_Source\PSoC5/cyPm.c **** *  delay is measured using rising edges of the 1 kHz ILO.
1057:.\Generated_Source\PSoC5/cyPm.c **** *
1058:.\Generated_Source\PSoC5/cyPm.c **** *******************************************************************************/
1059:.\Generated_Source\PSoC5/cyPm.c **** void CyPmHibernate(void) 
1060:.\Generated_Source\PSoC5/cyPm.c **** {
 1264              		.loc 1 1060 0
 1265              		.cfi_startproc
 1266              		@ args = 0, pretend = 0, frame = 8
 1267              		@ frame_needed = 1, uses_anonymous_args = 0
 1268 0000 80B5     		push	{r7, lr}
 1269              	.LCFI11:
 1270              		.cfi_def_cfa_offset 8
 1271              		.cfi_offset 7, -8
 1272              		.cfi_offset 14, -4
 1273 0002 82B0     		sub	sp, sp, #8
 1274              	.LCFI12:
 1275              		.cfi_def_cfa_offset 16
 1276 0004 00AF     		add	r7, sp, #0
 1277              	.LCFI13:
 1278              		.cfi_def_cfa_register 7
1061:.\Generated_Source\PSoC5/cyPm.c ****     uint8 interruptState;
1062:.\Generated_Source\PSoC5/cyPm.c **** 
1063:.\Generated_Source\PSoC5/cyPm.c ****     /* Save current global interrupt enable and disable it */
1064:.\Generated_Source\PSoC5/cyPm.c ****     interruptState = CyEnterCriticalSection();
 1279              		.loc 1 1064 0
 1280 0006 FFF7FEFF 		bl	CyEnterCriticalSection
 1281 000a 0346     		mov	r3, r0
 1282 000c FB71     		strb	r3, [r7, #7]
1065:.\Generated_Source\PSoC5/cyPm.c **** 
1066:.\Generated_Source\PSoC5/cyPm.c ****         /***********************************************************************
1067:.\Generated_Source\PSoC5/cyPm.c ****         * The Hibernate/Sleep regulator has a settling time after a reset.
1068:.\Generated_Source\PSoC5/cyPm.c ****         * During this time, the system ignores requests to enter Sleep and
1069:.\Generated_Source\PSoC5/cyPm.c ****         * Hibernate modes. The holdoff delay is measured using rising edges of
1070:.\Generated_Source\PSoC5/cyPm.c ****         * the 1 kHz ILO.
1071:.\Generated_Source\PSoC5/cyPm.c ****         ***********************************************************************/
1072:.\Generated_Source\PSoC5/cyPm.c ****         if(0u == (CY_PM_MODE_CSR_REG & CY_PM_MODE_CSR_PWRUP_PULSE_Q))
 1283              		.loc 1 1072 0
 1284 000e 44F29333 		movw	r3, #17299
 1285 0012 C4F20003 		movt	r3, 16384
 1286 0016 1B78     		ldrb	r3, [r3, #0]
 1287 0018 DBB2     		uxtb	r3, r3
 1288 001a 03F00803 		and	r3, r3, #8
 1289 001e 002B     		cmp	r3, #0
 1290 0020 50D1     		bne	.L54
1073:.\Generated_Source\PSoC5/cyPm.c ****         {
1074:.\Generated_Source\PSoC5/cyPm.c ****             /* Disable hold off - no action on restore */
1075:.\Generated_Source\PSoC5/cyPm.c ****             CY_PM_PWRSYS_SLP_TR_REG &= CY_PM_PWRSYS_SLP_TR_HIBSLP_HOLDOFF_MASK;
 1291              		.loc 1 1075 0
 1292 0022 44F28363 		movw	r3, #18051
 1293 0026 C4F20003 		movt	r3, 16384
 1294 002a 44F28362 		movw	r2, #18051
ARM GAS  C:\Users\CHUCK~1.ERH\AppData\Local\Temp\cceT8Wjf.s 			page 43


 1295 002e C4F20002 		movt	r2, 16384
 1296 0032 1278     		ldrb	r2, [r2, #0]
 1297 0034 D2B2     		uxtb	r2, r2
 1298 0036 02F01F02 		and	r2, r2, #31
 1299 003a D2B2     		uxtb	r2, r2
 1300 003c 1A70     		strb	r2, [r3, #0]
1076:.\Generated_Source\PSoC5/cyPm.c ****         }
1077:.\Generated_Source\PSoC5/cyPm.c ****         else
1078:.\Generated_Source\PSoC5/cyPm.c ****         {
1079:.\Generated_Source\PSoC5/cyPm.c ****             /* Abort, device is not ready for low power mode entry */
1080:.\Generated_Source\PSoC5/cyPm.c **** 
1081:.\Generated_Source\PSoC5/cyPm.c ****             /* Restore global interrupt enable state */
1082:.\Generated_Source\PSoC5/cyPm.c ****             CyExitCriticalSection(interruptState);
1083:.\Generated_Source\PSoC5/cyPm.c **** 
1084:.\Generated_Source\PSoC5/cyPm.c ****             return;
1085:.\Generated_Source\PSoC5/cyPm.c ****         }
1086:.\Generated_Source\PSoC5/cyPm.c **** 
1087:.\Generated_Source\PSoC5/cyPm.c ****     CyPmHibSaveSet();
 1301              		.loc 1 1087 0
 1302 003e FFF7FEFF 		bl	CyPmHibSaveSet
1088:.\Generated_Source\PSoC5/cyPm.c **** 
1089:.\Generated_Source\PSoC5/cyPm.c **** 
1090:.\Generated_Source\PSoC5/cyPm.c ****     /* Save and enable only wakeup on PICU */
1091:.\Generated_Source\PSoC5/cyPm.c ****     cyPmBackup.wakeupCfg0 = CY_PM_WAKEUP_CFG0_REG;
 1303              		.loc 1 1091 0
 1304 0042 44F29833 		movw	r3, #17304
 1305 0046 C4F20003 		movt	r3, 16384
 1306 004a 1B78     		ldrb	r3, [r3, #0]
 1307 004c DAB2     		uxtb	r2, r3
 1308 004e 40F20003 		movw	r3, #:lower16:cyPmBackup
 1309 0052 C0F20003 		movt	r3, #:upper16:cyPmBackup
 1310 0056 1A71     		strb	r2, [r3, #4]
1092:.\Generated_Source\PSoC5/cyPm.c ****     CY_PM_WAKEUP_CFG0_REG = CY_PM_WAKEUP_PICU;
 1311              		.loc 1 1092 0
 1312 0058 44F29833 		movw	r3, #17304
 1313 005c C4F20003 		movt	r3, 16384
 1314 0060 4FF00402 		mov	r2, #4
 1315 0064 1A70     		strb	r2, [r3, #0]
1093:.\Generated_Source\PSoC5/cyPm.c **** 
1094:.\Generated_Source\PSoC5/cyPm.c ****     cyPmBackup.wakeupCfg1 = CY_PM_WAKEUP_CFG1_REG;
 1316              		.loc 1 1094 0
 1317 0066 44F29933 		movw	r3, #17305
 1318 006a C4F20003 		movt	r3, 16384
 1319 006e 1B78     		ldrb	r3, [r3, #0]
 1320 0070 DAB2     		uxtb	r2, r3
 1321 0072 40F20003 		movw	r3, #:lower16:cyPmBackup
 1322 0076 C0F20003 		movt	r3, #:upper16:cyPmBackup
 1323 007a 5A71     		strb	r2, [r3, #5]
1095:.\Generated_Source\PSoC5/cyPm.c ****     CY_PM_WAKEUP_CFG1_REG = 0x00u;
 1324              		.loc 1 1095 0
 1325 007c 44F29933 		movw	r3, #17305
 1326 0080 C4F20003 		movt	r3, 16384
 1327 0084 4FF00002 		mov	r2, #0
 1328 0088 1A70     		strb	r2, [r3, #0]
1096:.\Generated_Source\PSoC5/cyPm.c **** 
1097:.\Generated_Source\PSoC5/cyPm.c ****     cyPmBackup.wakeupCfg2 = CY_PM_WAKEUP_CFG2_REG;
 1329              		.loc 1 1097 0
ARM GAS  C:\Users\CHUCK~1.ERH\AppData\Local\Temp\cceT8Wjf.s 			page 44


 1330 008a 44F29A33 		movw	r3, #17306
 1331 008e C4F20003 		movt	r3, 16384
 1332 0092 1B78     		ldrb	r3, [r3, #0]
 1333 0094 DAB2     		uxtb	r2, r3
 1334 0096 40F20003 		movw	r3, #:lower16:cyPmBackup
 1335 009a C0F20003 		movt	r3, #:upper16:cyPmBackup
 1336 009e 9A71     		strb	r2, [r3, #6]
1098:.\Generated_Source\PSoC5/cyPm.c ****     CY_PM_WAKEUP_CFG2_REG = 0x00u;
 1337              		.loc 1 1098 0
 1338 00a0 44F29A33 		movw	r3, #17306
 1339 00a4 C4F20003 		movt	r3, 16384
 1340 00a8 4FF00002 		mov	r2, #0
 1341 00ac 1A70     		strb	r2, [r3, #0]
1099:.\Generated_Source\PSoC5/cyPm.c **** 
1100:.\Generated_Source\PSoC5/cyPm.c **** 
1101:.\Generated_Source\PSoC5/cyPm.c ****     /* Last moment IMO frequency change */
1102:.\Generated_Source\PSoC5/cyPm.c ****     if(0u == (CY_PM_FASTCLK_IMO_CR_REG & CY_PM_FASTCLK_IMO_CR_FREQ_MASK))
 1342              		.loc 1 1102 0
 1343 00ae 4FF48443 		mov	r3, #16896
 1344 00b2 C4F20003 		movt	r3, 16384
 1345 00b6 1B78     		ldrb	r3, [r3, #0]
 1346 00b8 DBB2     		uxtb	r3, r3
 1347 00ba 03F00703 		and	r3, r3, #7
 1348 00be 002B     		cmp	r3, #0
 1349 00c0 05D0     		beq	.L55
 1350 00c2 0DE0     		b	.L60
 1351              	.L54:
1082:.\Generated_Source\PSoC5/cyPm.c ****             CyExitCriticalSection(interruptState);
 1352              		.loc 1 1082 0
 1353 00c4 FB79     		ldrb	r3, [r7, #7]	@ zero_extendqisi2
 1354 00c6 1846     		mov	r0, r3
 1355 00c8 FFF7FEFF 		bl	CyExitCriticalSection
1084:.\Generated_Source\PSoC5/cyPm.c ****             return;
 1356              		.loc 1 1084 0
 1357 00cc 8BE0     		b	.L53
 1358              	.L55:
1103:.\Generated_Source\PSoC5/cyPm.c ****     {
1104:.\Generated_Source\PSoC5/cyPm.c ****         /* IMO frequency is 12 MHz */
1105:.\Generated_Source\PSoC5/cyPm.c ****         cyPmBackup.imoActFreq12Mhz = CY_PM_ENABLED;
 1359              		.loc 1 1105 0
 1360 00ce 40F20003 		movw	r3, #:lower16:cyPmBackup
 1361 00d2 C0F20003 		movt	r3, #:upper16:cyPmBackup
 1362 00d6 4FF00102 		mov	r2, #1
 1363 00da 83F82D20 		strb	r2, [r3, #45]
 1364 00de 24E0     		b	.L58
 1365              	.L60:
1106:.\Generated_Source\PSoC5/cyPm.c ****     }
1107:.\Generated_Source\PSoC5/cyPm.c ****     else
1108:.\Generated_Source\PSoC5/cyPm.c ****     {
1109:.\Generated_Source\PSoC5/cyPm.c ****         /* IMO frequency is not 12 MHz */
1110:.\Generated_Source\PSoC5/cyPm.c ****         cyPmBackup.imoActFreq12Mhz = CY_PM_DISABLED;
 1366              		.loc 1 1110 0
 1367 00e0 40F20003 		movw	r3, #:lower16:cyPmBackup
 1368 00e4 C0F20003 		movt	r3, #:upper16:cyPmBackup
 1369 00e8 4FF00002 		mov	r2, #0
 1370 00ec 83F82D20 		strb	r2, [r3, #45]
1111:.\Generated_Source\PSoC5/cyPm.c **** 
ARM GAS  C:\Users\CHUCK~1.ERH\AppData\Local\Temp\cceT8Wjf.s 			page 45


1112:.\Generated_Source\PSoC5/cyPm.c ****         /* Save IMO frequency */
1113:.\Generated_Source\PSoC5/cyPm.c ****         cyPmBackup.imoActFreq = CY_PM_FASTCLK_IMO_CR_REG & CY_PM_FASTCLK_IMO_CR_FREQ_MASK;
 1371              		.loc 1 1113 0
 1372 00f0 4FF48443 		mov	r3, #16896
 1373 00f4 C4F20003 		movt	r3, 16384
 1374 00f8 1B78     		ldrb	r3, [r3, #0]
 1375 00fa DBB2     		uxtb	r3, r3
 1376 00fc 03F00703 		and	r3, r3, #7
 1377 0100 DAB2     		uxtb	r2, r3
 1378 0102 40F20003 		movw	r3, #:lower16:cyPmBackup
 1379 0106 C0F20003 		movt	r3, #:upper16:cyPmBackup
 1380 010a 83F82C20 		strb	r2, [r3, #44]
1114:.\Generated_Source\PSoC5/cyPm.c **** 
1115:.\Generated_Source\PSoC5/cyPm.c ****         /* Set IMO frequency to 12 MHz */
1116:.\Generated_Source\PSoC5/cyPm.c ****         CY_PM_FASTCLK_IMO_CR_REG &= ((uint8) (~CY_PM_FASTCLK_IMO_CR_FREQ_MASK));
 1381              		.loc 1 1116 0
 1382 010e 4FF48443 		mov	r3, #16896
 1383 0112 C4F20003 		movt	r3, 16384
 1384 0116 4FF48442 		mov	r2, #16896
 1385 011a C4F20002 		movt	r2, 16384
 1386 011e 1278     		ldrb	r2, [r2, #0]
 1387 0120 D2B2     		uxtb	r2, r2
 1388 0122 22F00702 		bic	r2, r2, #7
 1389 0126 D2B2     		uxtb	r2, r2
 1390 0128 1A70     		strb	r2, [r3, #0]
 1391              	.L58:
1117:.\Generated_Source\PSoC5/cyPm.c ****     }
1118:.\Generated_Source\PSoC5/cyPm.c **** 
1119:.\Generated_Source\PSoC5/cyPm.c **** 
1120:.\Generated_Source\PSoC5/cyPm.c ****     /* Switch to Hibernate Mode */
1121:.\Generated_Source\PSoC5/cyPm.c ****     CY_PM_MODE_CSR_REG = (CY_PM_MODE_CSR_REG & ((uint8) (~CY_PM_MODE_CSR_MASK))) | CY_PM_MODE_CSR_H
 1392              		.loc 1 1121 0
 1393 012a 44F29333 		movw	r3, #17299
 1394 012e C4F20003 		movt	r3, 16384
 1395 0132 44F29332 		movw	r2, #17299
 1396 0136 C4F20002 		movt	r2, 16384
 1397 013a 1278     		ldrb	r2, [r2, #0]
 1398 013c D2B2     		uxtb	r2, r2
 1399 013e 22F00702 		bic	r2, r2, #7
 1400 0142 D2B2     		uxtb	r2, r2
 1401 0144 42F00402 		orr	r2, r2, #4
 1402 0148 D2B2     		uxtb	r2, r2
 1403 014a 1A70     		strb	r2, [r3, #0]
1122:.\Generated_Source\PSoC5/cyPm.c **** 
1123:.\Generated_Source\PSoC5/cyPm.c ****     /* Recommended readback. */
1124:.\Generated_Source\PSoC5/cyPm.c ****     (void) CY_PM_MODE_CSR_REG;
 1404              		.loc 1 1124 0
 1405 014c 44F29333 		movw	r3, #17299
 1406 0150 C4F20003 		movt	r3, 16384
 1407 0154 1B78     		ldrb	r3, [r3, #0]
1125:.\Generated_Source\PSoC5/cyPm.c **** 
1126:.\Generated_Source\PSoC5/cyPm.c ****     /* Two recommended NOPs to get into the mode. */
1127:.\Generated_Source\PSoC5/cyPm.c ****     CY_NOP;
 1408              		.loc 1 1127 0
 1409              	@ 1127 ".\Generated_Source\PSoC5\cyPm.c" 1
 1410 0156 00BF     		NOP
 1411              	
ARM GAS  C:\Users\CHUCK~1.ERH\AppData\Local\Temp\cceT8Wjf.s 			page 46


 1412              	@ 0 "" 2
1128:.\Generated_Source\PSoC5/cyPm.c ****     CY_NOP;
 1413              		.loc 1 1128 0
 1414              	@ 1128 ".\Generated_Source\PSoC5\cyPm.c" 1
 1415 0158 00BF     		NOP
 1416              	
 1417              	@ 0 "" 2
1129:.\Generated_Source\PSoC5/cyPm.c **** 
1130:.\Generated_Source\PSoC5/cyPm.c ****     /* Execute WFI instruction (for ARM-based devices only) */
1131:.\Generated_Source\PSoC5/cyPm.c ****     CY_PM_WFI;
 1418              		.loc 1 1131 0
 1419              	@ 1131 ".\Generated_Source\PSoC5\cyPm.c" 1
 1420 015a 30BF     		WFI 
 1421              	
 1422              	@ 0 "" 2
1132:.\Generated_Source\PSoC5/cyPm.c **** 
1133:.\Generated_Source\PSoC5/cyPm.c **** 
1134:.\Generated_Source\PSoC5/cyPm.c ****     /* Point of return from Hibernate mode */
1135:.\Generated_Source\PSoC5/cyPm.c **** 
1136:.\Generated_Source\PSoC5/cyPm.c **** 
1137:.\Generated_Source\PSoC5/cyPm.c ****     /* Restore last moment IMO frequency change */
1138:.\Generated_Source\PSoC5/cyPm.c ****     if(CY_PM_ENABLED != cyPmBackup.imoActFreq12Mhz)
 1423              		.loc 1 1138 0
 1424              		.thumb
 1425 015c 40F20003 		movw	r3, #:lower16:cyPmBackup
 1426 0160 C0F20003 		movt	r3, #:upper16:cyPmBackup
 1427 0164 93F82D30 		ldrb	r3, [r3, #45]	@ zero_extendqisi2
 1428 0168 012B     		cmp	r3, #1
 1429 016a 18D0     		beq	.L59
1139:.\Generated_Source\PSoC5/cyPm.c ****     {
1140:.\Generated_Source\PSoC5/cyPm.c ****         CY_PM_FASTCLK_IMO_CR_REG  = (CY_PM_FASTCLK_IMO_CR_REG & ((uint8)(~CY_PM_FASTCLK_IMO_CR_FREQ
 1430              		.loc 1 1140 0
 1431 016c 4FF48443 		mov	r3, #16896
 1432 0170 C4F20003 		movt	r3, 16384
 1433 0174 4FF48442 		mov	r2, #16896
 1434 0178 C4F20002 		movt	r2, 16384
 1435 017c 1278     		ldrb	r2, [r2, #0]
 1436 017e D2B2     		uxtb	r2, r2
 1437 0180 D2B2     		uxtb	r2, r2
 1438 0182 22F00702 		bic	r2, r2, #7
 1439 0186 D1B2     		uxtb	r1, r2
1141:.\Generated_Source\PSoC5/cyPm.c ****                                     cyPmBackup.imoActFreq;
 1440              		.loc 1 1141 0
 1441 0188 40F20002 		movw	r2, #:lower16:cyPmBackup
 1442 018c C0F20002 		movt	r2, #:upper16:cyPmBackup
 1443 0190 92F82C20 		ldrb	r2, [r2, #44]	@ zero_extendqisi2
1140:.\Generated_Source\PSoC5/cyPm.c ****         CY_PM_FASTCLK_IMO_CR_REG  = (CY_PM_FASTCLK_IMO_CR_REG & ((uint8)(~CY_PM_FASTCLK_IMO_CR_FREQ
 1444              		.loc 1 1140 0
 1445 0194 D2B2     		uxtb	r2, r2
 1446 0196 0A43     		orrs	r2, r2, r1
 1447 0198 D2B2     		uxtb	r2, r2
 1448 019a D2B2     		uxtb	r2, r2
 1449 019c 1A70     		strb	r2, [r3, #0]
 1450              	.L59:
1142:.\Generated_Source\PSoC5/cyPm.c ****     }
1143:.\Generated_Source\PSoC5/cyPm.c **** 
1144:.\Generated_Source\PSoC5/cyPm.c **** 
ARM GAS  C:\Users\CHUCK~1.ERH\AppData\Local\Temp\cceT8Wjf.s 			page 47


1145:.\Generated_Source\PSoC5/cyPm.c ****     /* Restore device for proper Hibernate mode exit*/
1146:.\Generated_Source\PSoC5/cyPm.c ****     CyPmHibRestore();
 1451              		.loc 1 1146 0
 1452 019e FFF7FEFF 		bl	CyPmHibRestore
1147:.\Generated_Source\PSoC5/cyPm.c **** 
1148:.\Generated_Source\PSoC5/cyPm.c ****     /* Restore current wake up configuration */
1149:.\Generated_Source\PSoC5/cyPm.c ****     CY_PM_WAKEUP_CFG0_REG = cyPmBackup.wakeupCfg0;
 1453              		.loc 1 1149 0
 1454 01a2 44F29833 		movw	r3, #17304
 1455 01a6 C4F20003 		movt	r3, 16384
 1456 01aa 40F20002 		movw	r2, #:lower16:cyPmBackup
 1457 01ae C0F20002 		movt	r2, #:upper16:cyPmBackup
 1458 01b2 1279     		ldrb	r2, [r2, #4]	@ zero_extendqisi2
 1459 01b4 1A70     		strb	r2, [r3, #0]
1150:.\Generated_Source\PSoC5/cyPm.c ****     CY_PM_WAKEUP_CFG1_REG = cyPmBackup.wakeupCfg1;
 1460              		.loc 1 1150 0
 1461 01b6 44F29933 		movw	r3, #17305
 1462 01ba C4F20003 		movt	r3, 16384
 1463 01be 40F20002 		movw	r2, #:lower16:cyPmBackup
 1464 01c2 C0F20002 		movt	r2, #:upper16:cyPmBackup
 1465 01c6 5279     		ldrb	r2, [r2, #5]	@ zero_extendqisi2
 1466 01c8 1A70     		strb	r2, [r3, #0]
1151:.\Generated_Source\PSoC5/cyPm.c ****     CY_PM_WAKEUP_CFG2_REG = cyPmBackup.wakeupCfg2;
 1467              		.loc 1 1151 0
 1468 01ca 44F29A33 		movw	r3, #17306
 1469 01ce C4F20003 		movt	r3, 16384
 1470 01d2 40F20002 		movw	r2, #:lower16:cyPmBackup
 1471 01d6 C0F20002 		movt	r2, #:upper16:cyPmBackup
 1472 01da 9279     		ldrb	r2, [r2, #6]	@ zero_extendqisi2
 1473 01dc 1A70     		strb	r2, [r3, #0]
1152:.\Generated_Source\PSoC5/cyPm.c **** 
1153:.\Generated_Source\PSoC5/cyPm.c ****     /* Restore global interrupt enable state */
1154:.\Generated_Source\PSoC5/cyPm.c ****     CyExitCriticalSection(interruptState);
 1474              		.loc 1 1154 0
 1475 01de FB79     		ldrb	r3, [r7, #7]	@ zero_extendqisi2
 1476 01e0 1846     		mov	r0, r3
 1477 01e2 FFF7FEFF 		bl	CyExitCriticalSection
 1478              	.L53:
1155:.\Generated_Source\PSoC5/cyPm.c **** }
 1479              		.loc 1 1155 0
 1480 01e6 07F10807 		add	r7, r7, #8
 1481 01ea BD46     		mov	sp, r7
 1482 01ec 80BD     		pop	{r7, pc}
 1483              		.cfi_endproc
 1484              	.LFE4:
 1485              		.size	CyPmHibernate, .-CyPmHibernate
 1486 01ee 00BF     		.section	.text.CyPmReadStatus,"ax",%progbits
 1487              		.align	2
 1488              		.global	CyPmReadStatus
 1489              		.thumb
 1490              		.thumb_func
 1491              		.type	CyPmReadStatus, %function
 1492              	CyPmReadStatus:
 1493              	.LFB5:
1156:.\Generated_Source\PSoC5/cyPm.c **** 
1157:.\Generated_Source\PSoC5/cyPm.c **** 
1158:.\Generated_Source\PSoC5/cyPm.c **** /*******************************************************************************
ARM GAS  C:\Users\CHUCK~1.ERH\AppData\Local\Temp\cceT8Wjf.s 			page 48


1159:.\Generated_Source\PSoC5/cyPm.c **** * Function Name: CyPmReadStatus
1160:.\Generated_Source\PSoC5/cyPm.c **** ********************************************************************************
1161:.\Generated_Source\PSoC5/cyPm.c **** *
1162:.\Generated_Source\PSoC5/cyPm.c **** * Summary:
1163:.\Generated_Source\PSoC5/cyPm.c **** *  Manages the Power Manager Interrupt Status Register.  This register has the
1164:.\Generated_Source\PSoC5/cyPm.c **** *  interrupt status for the one pulse per second, central timewheel and fast
1165:.\Generated_Source\PSoC5/cyPm.c **** *  timewheel timers.  This hardware register clears on read.  To allow for only
1166:.\Generated_Source\PSoC5/cyPm.c **** *  clearing the bits of interest and preserving the other bits, this function
1167:.\Generated_Source\PSoC5/cyPm.c **** *  uses a shadow register that retains the state.  This function reads the
1168:.\Generated_Source\PSoC5/cyPm.c **** *  status register and ORs that value with the shadow register.  That is the
1169:.\Generated_Source\PSoC5/cyPm.c **** *  value that is returned.  Then the bits in the mask that are set are cleared
1170:.\Generated_Source\PSoC5/cyPm.c **** *  from this value and written back to the shadow register.
1171:.\Generated_Source\PSoC5/cyPm.c **** *
1172:.\Generated_Source\PSoC5/cyPm.c **** *  Note You must call this function within 1 ms (1 clock cycle of the ILO)
1173:.\Generated_Source\PSoC5/cyPm.c **** *  after a CTW event has occurred.
1174:.\Generated_Source\PSoC5/cyPm.c **** *
1175:.\Generated_Source\PSoC5/cyPm.c **** * Parameters:
1176:.\Generated_Source\PSoC5/cyPm.c **** *  mask: Bits in the shadow register to clear.
1177:.\Generated_Source\PSoC5/cyPm.c **** *
1178:.\Generated_Source\PSoC5/cyPm.c **** *       Define                      Source
1179:.\Generated_Source\PSoC5/cyPm.c **** *  CY_PM_FTW_INT                Fast Timewheel
1180:.\Generated_Source\PSoC5/cyPm.c **** *  CY_PM_CTW_INT                Central Timewheel
1181:.\Generated_Source\PSoC5/cyPm.c **** *  CY_PM_ONEPPS_INT             One Pulse Per Second
1182:.\Generated_Source\PSoC5/cyPm.c **** *
1183:.\Generated_Source\PSoC5/cyPm.c **** * Return:
1184:.\Generated_Source\PSoC5/cyPm.c **** *  Status.  Same bits values as the mask parameter.
1185:.\Generated_Source\PSoC5/cyPm.c **** *
1186:.\Generated_Source\PSoC5/cyPm.c **** *******************************************************************************/
1187:.\Generated_Source\PSoC5/cyPm.c **** uint8 CyPmReadStatus(uint8 mask) 
1188:.\Generated_Source\PSoC5/cyPm.c **** {
 1494              		.loc 1 1188 0
 1495              		.cfi_startproc
 1496              		@ args = 0, pretend = 0, frame = 16
 1497              		@ frame_needed = 1, uses_anonymous_args = 0
 1498 0000 80B5     		push	{r7, lr}
 1499              	.LCFI14:
 1500              		.cfi_def_cfa_offset 8
 1501              		.cfi_offset 7, -8
 1502              		.cfi_offset 14, -4
 1503 0002 84B0     		sub	sp, sp, #16
 1504              	.LCFI15:
 1505              		.cfi_def_cfa_offset 24
 1506 0004 00AF     		add	r7, sp, #0
 1507              	.LCFI16:
 1508              		.cfi_def_cfa_register 7
 1509 0006 0346     		mov	r3, r0
 1510 0008 FB71     		strb	r3, [r7, #7]
1189:.\Generated_Source\PSoC5/cyPm.c ****     static uint8 interruptStatus;
1190:.\Generated_Source\PSoC5/cyPm.c ****     uint8 interruptState;
1191:.\Generated_Source\PSoC5/cyPm.c ****     uint8 tmpStatus;
1192:.\Generated_Source\PSoC5/cyPm.c **** 
1193:.\Generated_Source\PSoC5/cyPm.c ****     /* Enter critical section */
1194:.\Generated_Source\PSoC5/cyPm.c ****     interruptState = CyEnterCriticalSection();
 1511              		.loc 1 1194 0
 1512 000a FFF7FEFF 		bl	CyEnterCriticalSection
 1513 000e 0346     		mov	r3, r0
 1514 0010 FB73     		strb	r3, [r7, #15]
ARM GAS  C:\Users\CHUCK~1.ERH\AppData\Local\Temp\cceT8Wjf.s 			page 49


1195:.\Generated_Source\PSoC5/cyPm.c **** 
1196:.\Generated_Source\PSoC5/cyPm.c ****     /* Save value of the register, copy it and clear desired bit */
1197:.\Generated_Source\PSoC5/cyPm.c ****     interruptStatus |= CY_PM_INT_SR_REG;
 1515              		.loc 1 1197 0
 1516 0012 44F29033 		movw	r3, #17296
 1517 0016 C4F20003 		movt	r3, 16384
 1518 001a 1B78     		ldrb	r3, [r3, #0]
 1519 001c DAB2     		uxtb	r2, r3
 1520 001e 40F20003 		movw	r3, #:lower16:interruptStatus.4769
 1521 0022 C0F20003 		movt	r3, #:upper16:interruptStatus.4769
 1522 0026 1B78     		ldrb	r3, [r3, #0]	@ zero_extendqisi2
 1523 0028 1343     		orrs	r3, r3, r2
 1524 002a DAB2     		uxtb	r2, r3
 1525 002c 40F20003 		movw	r3, #:lower16:interruptStatus.4769
 1526 0030 C0F20003 		movt	r3, #:upper16:interruptStatus.4769
 1527 0034 1A70     		strb	r2, [r3, #0]
1198:.\Generated_Source\PSoC5/cyPm.c ****     tmpStatus = interruptStatus;
 1528              		.loc 1 1198 0
 1529 0036 40F20003 		movw	r3, #:lower16:interruptStatus.4769
 1530 003a C0F20003 		movt	r3, #:upper16:interruptStatus.4769
 1531 003e 1B78     		ldrb	r3, [r3, #0]
 1532 0040 BB73     		strb	r3, [r7, #14]
1199:.\Generated_Source\PSoC5/cyPm.c ****     interruptStatus &= ((uint8)(~mask));
 1533              		.loc 1 1199 0
 1534 0042 FB79     		ldrb	r3, [r7, #7]
 1535 0044 6FEA0303 		mvn	r3, r3
 1536 0048 DAB2     		uxtb	r2, r3
 1537 004a 40F20003 		movw	r3, #:lower16:interruptStatus.4769
 1538 004e C0F20003 		movt	r3, #:upper16:interruptStatus.4769
 1539 0052 1B78     		ldrb	r3, [r3, #0]	@ zero_extendqisi2
 1540 0054 1340     		ands	r3, r3, r2
 1541 0056 DAB2     		uxtb	r2, r3
 1542 0058 40F20003 		movw	r3, #:lower16:interruptStatus.4769
 1543 005c C0F20003 		movt	r3, #:upper16:interruptStatus.4769
 1544 0060 1A70     		strb	r2, [r3, #0]
1200:.\Generated_Source\PSoC5/cyPm.c **** 
1201:.\Generated_Source\PSoC5/cyPm.c ****     /* Exit critical section */
1202:.\Generated_Source\PSoC5/cyPm.c ****     CyExitCriticalSection(interruptState);
 1545              		.loc 1 1202 0
 1546 0062 FB7B     		ldrb	r3, [r7, #15]	@ zero_extendqisi2
 1547 0064 1846     		mov	r0, r3
 1548 0066 FFF7FEFF 		bl	CyExitCriticalSection
1203:.\Generated_Source\PSoC5/cyPm.c **** 
1204:.\Generated_Source\PSoC5/cyPm.c ****     return(tmpStatus);
 1549              		.loc 1 1204 0
 1550 006a BB7B     		ldrb	r3, [r7, #14]	@ zero_extendqisi2
1205:.\Generated_Source\PSoC5/cyPm.c **** }
 1551              		.loc 1 1205 0
 1552 006c 1846     		mov	r0, r3
 1553 006e 07F11007 		add	r7, r7, #16
 1554 0072 BD46     		mov	sp, r7
 1555 0074 80BD     		pop	{r7, pc}
 1556              		.cfi_endproc
 1557              	.LFE5:
 1558              		.size	CyPmReadStatus, .-CyPmReadStatus
 1559 0076 00BF     		.section	.text.CyPmHibSaveSet,"ax",%progbits
 1560              		.align	2
ARM GAS  C:\Users\CHUCK~1.ERH\AppData\Local\Temp\cceT8Wjf.s 			page 50


 1561              		.thumb
 1562              		.thumb_func
 1563              		.type	CyPmHibSaveSet, %function
 1564              	CyPmHibSaveSet:
 1565              	.LFB6:
1206:.\Generated_Source\PSoC5/cyPm.c **** 
1207:.\Generated_Source\PSoC5/cyPm.c **** 
1208:.\Generated_Source\PSoC5/cyPm.c **** /*******************************************************************************
1209:.\Generated_Source\PSoC5/cyPm.c **** * Function Name: CyPmHibSaveSet
1210:.\Generated_Source\PSoC5/cyPm.c **** ********************************************************************************
1211:.\Generated_Source\PSoC5/cyPm.c **** *
1212:.\Generated_Source\PSoC5/cyPm.c **** * Summary:
1213:.\Generated_Source\PSoC5/cyPm.c **** *  Prepare device for proper Hibernate low power mode entry:
1214:.\Generated_Source\PSoC5/cyPm.c **** *  - Disables I2C backup regulator
1215:.\Generated_Source\PSoC5/cyPm.c **** *  - Saves ILO power down mode state and enable it
1216:.\Generated_Source\PSoC5/cyPm.c **** *  - Saves state of 1 kHz and 100 kHz ILO and disable them
1217:.\Generated_Source\PSoC5/cyPm.c **** *  - Disables sleep regulator and shorts vccd to vpwrsleep
1218:.\Generated_Source\PSoC5/cyPm.c **** *  - Save LVI/HVI configuration and disable them - CyPmHviLviSaveDisable()
1219:.\Generated_Source\PSoC5/cyPm.c **** *  - CyPmHibSlpSaveSet() function is called
1220:.\Generated_Source\PSoC5/cyPm.c **** *
1221:.\Generated_Source\PSoC5/cyPm.c **** * Parameters:
1222:.\Generated_Source\PSoC5/cyPm.c **** *  None
1223:.\Generated_Source\PSoC5/cyPm.c **** *
1224:.\Generated_Source\PSoC5/cyPm.c **** * Return:
1225:.\Generated_Source\PSoC5/cyPm.c **** *  None
1226:.\Generated_Source\PSoC5/cyPm.c **** *
1227:.\Generated_Source\PSoC5/cyPm.c **** * Reentrant:
1228:.\Generated_Source\PSoC5/cyPm.c **** *  No
1229:.\Generated_Source\PSoC5/cyPm.c **** *
1230:.\Generated_Source\PSoC5/cyPm.c **** *******************************************************************************/
1231:.\Generated_Source\PSoC5/cyPm.c **** static void CyPmHibSaveSet(void) 
1232:.\Generated_Source\PSoC5/cyPm.c **** {
 1566              		.loc 1 1232 0
 1567              		.cfi_startproc
 1568              		@ args = 0, pretend = 0, frame = 0
 1569              		@ frame_needed = 1, uses_anonymous_args = 0
 1570 0000 80B5     		push	{r7, lr}
 1571              	.LCFI17:
 1572              		.cfi_def_cfa_offset 8
 1573              		.cfi_offset 7, -8
 1574              		.cfi_offset 14, -4
 1575 0002 00AF     		add	r7, sp, #0
 1576              	.LCFI18:
 1577              		.cfi_def_cfa_register 7
1233:.\Generated_Source\PSoC5/cyPm.c ****     /* I2C backup reg must be off when the sleep regulator is unavailable */
1234:.\Generated_Source\PSoC5/cyPm.c ****     if(0u != (CY_PM_PWRSYS_CR1_REG & CY_PM_PWRSYS_CR1_I2CREG_BACKUP))
 1578              		.loc 1 1234 0
 1579 0004 44F23133 		movw	r3, #17201
 1580 0008 C4F20003 		movt	r3, 16384
 1581 000c 1B78     		ldrb	r3, [r3, #0]
 1582 000e DBB2     		uxtb	r3, r3
 1583 0010 03F00403 		and	r3, r3, #4
 1584 0014 002B     		cmp	r3, #0
 1585 0016 0DD0     		beq	.L64
1235:.\Generated_Source\PSoC5/cyPm.c ****     {
1236:.\Generated_Source\PSoC5/cyPm.c ****         /***********************************************************************
1237:.\Generated_Source\PSoC5/cyPm.c ****         * If I2C backup regulator is enabled, all the fixed-function registers
ARM GAS  C:\Users\CHUCK~1.ERH\AppData\Local\Temp\cceT8Wjf.s 			page 51


1238:.\Generated_Source\PSoC5/cyPm.c ****         * store their values while device is in low power mode, otherwise their
1239:.\Generated_Source\PSoC5/cyPm.c ****         * configuration is lost. The I2C API makes a decision to restore or not
1240:.\Generated_Source\PSoC5/cyPm.c ****         * to restore I2C registers based on this. If this regulator will be
1241:.\Generated_Source\PSoC5/cyPm.c ****         * disabled and then enabled, I2C API will suppose that I2C block
1242:.\Generated_Source\PSoC5/cyPm.c ****         * registers preserved their values, while this is not true. So, the
1243:.\Generated_Source\PSoC5/cyPm.c ****         * backup regulator is disabled. The I2C sleep APIs is responsible for
1244:.\Generated_Source\PSoC5/cyPm.c ****         * restoration.
1245:.\Generated_Source\PSoC5/cyPm.c ****         ***********************************************************************/
1246:.\Generated_Source\PSoC5/cyPm.c **** 
1247:.\Generated_Source\PSoC5/cyPm.c ****         /* Disable I2C backup register */
1248:.\Generated_Source\PSoC5/cyPm.c ****         CY_PM_PWRSYS_CR1_REG &= ((uint8)(~CY_PM_PWRSYS_CR1_I2CREG_BACKUP));
 1586              		.loc 1 1248 0
 1587 0018 44F23133 		movw	r3, #17201
 1588 001c C4F20003 		movt	r3, 16384
 1589 0020 44F23132 		movw	r2, #17201
 1590 0024 C4F20002 		movt	r2, 16384
 1591 0028 1278     		ldrb	r2, [r2, #0]
 1592 002a D2B2     		uxtb	r2, r2
 1593 002c 22F00402 		bic	r2, r2, #4
 1594 0030 D2B2     		uxtb	r2, r2
 1595 0032 1A70     		strb	r2, [r3, #0]
 1596              	.L64:
1249:.\Generated_Source\PSoC5/cyPm.c ****     }
1250:.\Generated_Source\PSoC5/cyPm.c **** 
1251:.\Generated_Source\PSoC5/cyPm.c **** 
1252:.\Generated_Source\PSoC5/cyPm.c ****     /* Save current ILO power mode and ensure low power mode */
1253:.\Generated_Source\PSoC5/cyPm.c ****     cyPmBackup.iloPowerMode = CyILO_SetPowerMode(CY_PM_POWERDOWN_MODE);
 1597              		.loc 1 1253 0
 1598 0034 4FF00100 		mov	r0, #1
 1599 0038 FFF7FEFF 		bl	CyILO_SetPowerMode
 1600 003c 0346     		mov	r3, r0
 1601 003e 1A46     		mov	r2, r3
 1602 0040 40F20003 		movw	r3, #:lower16:cyPmBackup
 1603 0044 C0F20003 		movt	r3, #:upper16:cyPmBackup
 1604 0048 1A70     		strb	r2, [r3, #0]
1254:.\Generated_Source\PSoC5/cyPm.c **** 
1255:.\Generated_Source\PSoC5/cyPm.c ****     /* Save current 1kHz ILO enable state. Disabled automatically. */
1256:.\Generated_Source\PSoC5/cyPm.c ****     cyPmBackup.ilo1kEnable = (0u == (CY_PM_SLOWCLK_ILO_CR0_REG & CY_PM_ILO_CR0_EN_1K)) ?
 1605              		.loc 1 1256 0
 1606 004a 4FF48643 		mov	r3, #17152
 1607 004e C4F20003 		movt	r3, 16384
 1608 0052 1B78     		ldrb	r3, [r3, #0]
 1609 0054 DBB2     		uxtb	r3, r3
 1610 0056 03F00203 		and	r3, r3, #2
1257:.\Generated_Source\PSoC5/cyPm.c ****                                 CY_PM_DISABLED : CY_PM_ENABLED;
 1611              		.loc 1 1257 0
 1612 005a 002B     		cmp	r3, #0
 1613 005c 0CBF     		ite	eq
 1614 005e 0023     		moveq	r3, #0
 1615 0060 0123     		movne	r3, #1
 1616 0062 DBB2     		uxtb	r3, r3
 1617 0064 1A46     		mov	r2, r3
1256:.\Generated_Source\PSoC5/cyPm.c ****     cyPmBackup.ilo1kEnable = (0u == (CY_PM_SLOWCLK_ILO_CR0_REG & CY_PM_ILO_CR0_EN_1K)) ?
 1618              		.loc 1 1256 0
 1619 0066 40F20003 		movw	r3, #:lower16:cyPmBackup
 1620 006a C0F20003 		movt	r3, #:upper16:cyPmBackup
 1621 006e 5A70     		strb	r2, [r3, #1]
ARM GAS  C:\Users\CHUCK~1.ERH\AppData\Local\Temp\cceT8Wjf.s 			page 52


1258:.\Generated_Source\PSoC5/cyPm.c **** 
1259:.\Generated_Source\PSoC5/cyPm.c ****     /* Save current 100kHz ILO enable state. Disabled automatically. */
1260:.\Generated_Source\PSoC5/cyPm.c ****     cyPmBackup.ilo100kEnable = (0u == (CY_PM_SLOWCLK_ILO_CR0_REG & CY_PM_ILO_CR0_EN_100K)) ?
 1622              		.loc 1 1260 0
 1623 0070 4FF48643 		mov	r3, #17152
 1624 0074 C4F20003 		movt	r3, 16384
 1625 0078 1B78     		ldrb	r3, [r3, #0]
 1626 007a DBB2     		uxtb	r3, r3
 1627 007c 03F00403 		and	r3, r3, #4
1261:.\Generated_Source\PSoC5/cyPm.c ****                                 CY_PM_DISABLED : CY_PM_ENABLED;
 1628              		.loc 1 1261 0
 1629 0080 002B     		cmp	r3, #0
 1630 0082 0CBF     		ite	eq
 1631 0084 0023     		moveq	r3, #0
 1632 0086 0123     		movne	r3, #1
 1633 0088 DBB2     		uxtb	r3, r3
 1634 008a 1A46     		mov	r2, r3
1260:.\Generated_Source\PSoC5/cyPm.c ****     cyPmBackup.ilo100kEnable = (0u == (CY_PM_SLOWCLK_ILO_CR0_REG & CY_PM_ILO_CR0_EN_100K)) ?
 1635              		.loc 1 1260 0
 1636 008c 40F20003 		movw	r3, #:lower16:cyPmBackup
 1637 0090 C0F20003 		movt	r3, #:upper16:cyPmBackup
 1638 0094 9A70     		strb	r2, [r3, #2]
1262:.\Generated_Source\PSoC5/cyPm.c **** 
1263:.\Generated_Source\PSoC5/cyPm.c **** 
1264:.\Generated_Source\PSoC5/cyPm.c ****     /* Disable the sleep regulator and shorts vccd to vpwrsleep */
1265:.\Generated_Source\PSoC5/cyPm.c ****     if(0u == (CY_PM_PWRSYS_SLP_TR_REG & CY_PM_PWRSYS_SLP_TR_BYPASS))
 1639              		.loc 1 1265 0
 1640 0096 44F28363 		movw	r3, #18051
 1641 009a C4F20003 		movt	r3, 16384
 1642 009e 1B78     		ldrb	r3, [r3, #0]
 1643 00a0 DBB2     		uxtb	r3, r3
 1644 00a2 03F01003 		and	r3, r3, #16
 1645 00a6 002B     		cmp	r3, #0
 1646 00a8 15D1     		bne	.L65
1266:.\Generated_Source\PSoC5/cyPm.c ****     {
1267:.\Generated_Source\PSoC5/cyPm.c ****         /* Save current bypass state */
1268:.\Generated_Source\PSoC5/cyPm.c ****         cyPmBackup.slpTrBypass = CY_PM_DISABLED;
 1647              		.loc 1 1268 0
 1648 00aa 40F20003 		movw	r3, #:lower16:cyPmBackup
 1649 00ae C0F20003 		movt	r3, #:upper16:cyPmBackup
 1650 00b2 4FF00002 		mov	r2, #0
 1651 00b6 DA70     		strb	r2, [r3, #3]
1269:.\Generated_Source\PSoC5/cyPm.c ****         CY_PM_PWRSYS_SLP_TR_REG |= CY_PM_PWRSYS_SLP_TR_BYPASS;
 1652              		.loc 1 1269 0
 1653 00b8 44F28363 		movw	r3, #18051
 1654 00bc C4F20003 		movt	r3, 16384
 1655 00c0 44F28362 		movw	r2, #18051
 1656 00c4 C4F20002 		movt	r2, 16384
 1657 00c8 1278     		ldrb	r2, [r2, #0]
 1658 00ca D2B2     		uxtb	r2, r2
 1659 00cc 42F01002 		orr	r2, r2, #16
 1660 00d0 D2B2     		uxtb	r2, r2
 1661 00d2 1A70     		strb	r2, [r3, #0]
 1662 00d4 06E0     		b	.L66
 1663              	.L65:
1270:.\Generated_Source\PSoC5/cyPm.c ****     }
1271:.\Generated_Source\PSoC5/cyPm.c ****     else
ARM GAS  C:\Users\CHUCK~1.ERH\AppData\Local\Temp\cceT8Wjf.s 			page 53


1272:.\Generated_Source\PSoC5/cyPm.c ****     {
1273:.\Generated_Source\PSoC5/cyPm.c ****         cyPmBackup.slpTrBypass = CY_PM_ENABLED;
 1664              		.loc 1 1273 0
 1665 00d6 40F20003 		movw	r3, #:lower16:cyPmBackup
 1666 00da C0F20003 		movt	r3, #:upper16:cyPmBackup
 1667 00de 4FF00102 		mov	r2, #1
 1668 00e2 DA70     		strb	r2, [r3, #3]
 1669              	.L66:
1274:.\Generated_Source\PSoC5/cyPm.c ****     }
1275:.\Generated_Source\PSoC5/cyPm.c **** 
1276:.\Generated_Source\PSoC5/cyPm.c ****     /* LPCOMPs are always enabled (even when BOTH ext_vccd=1 and ext_vcca=1)*/
1277:.\Generated_Source\PSoC5/cyPm.c **** 
1278:.\Generated_Source\PSoC5/cyPm.c **** 
1279:.\Generated_Source\PSoC5/cyPm.c ****     /***************************************************************************
1280:.\Generated_Source\PSoC5/cyPm.c ****     * LVI/HVI must be disabled in Hibernate
1281:.\Generated_Source\PSoC5/cyPm.c ****     ***************************************************************************/
1282:.\Generated_Source\PSoC5/cyPm.c **** 
1283:.\Generated_Source\PSoC5/cyPm.c ****     /* Save LVI/HVI configuration and disable them */
1284:.\Generated_Source\PSoC5/cyPm.c ****     CyPmHviLviSaveDisable();
 1670              		.loc 1 1284 0
 1671 00e4 FFF7FEFF 		bl	CyPmHviLviSaveDisable
1285:.\Generated_Source\PSoC5/cyPm.c **** 
1286:.\Generated_Source\PSoC5/cyPm.c **** 
1287:.\Generated_Source\PSoC5/cyPm.c ****     /* Make the same preparations for Hibernate and Sleep modes */
1288:.\Generated_Source\PSoC5/cyPm.c ****     CyPmHibSlpSaveSet();
 1672              		.loc 1 1288 0
 1673 00e8 FFF7FEFF 		bl	CyPmHibSlpSaveSet
1289:.\Generated_Source\PSoC5/cyPm.c **** 
1290:.\Generated_Source\PSoC5/cyPm.c **** 
1291:.\Generated_Source\PSoC5/cyPm.c ****     /***************************************************************************
1292:.\Generated_Source\PSoC5/cyPm.c ****     * Save and set power mode wakeup trim registers
1293:.\Generated_Source\PSoC5/cyPm.c ****     ***************************************************************************/
1294:.\Generated_Source\PSoC5/cyPm.c ****     cyPmBackup.wakeupTrim0 = CY_PM_PWRSYS_WAKE_TR0_REG;
 1674              		.loc 1 1294 0
 1675 00ec 44F28563 		movw	r3, #18053
 1676 00f0 C4F20003 		movt	r3, 16384
 1677 00f4 1B78     		ldrb	r3, [r3, #0]
 1678 00f6 DAB2     		uxtb	r2, r3
 1679 00f8 40F20003 		movw	r3, #:lower16:cyPmBackup
 1680 00fc C0F20003 		movt	r3, #:upper16:cyPmBackup
 1681 0100 DA71     		strb	r2, [r3, #7]
1295:.\Generated_Source\PSoC5/cyPm.c ****     cyPmBackup.wakeupTrim1 = CY_PM_PWRSYS_WAKE_TR1_REG;
 1682              		.loc 1 1295 0
 1683 0102 44F28663 		movw	r3, #18054
 1684 0106 C4F20003 		movt	r3, 16384
 1685 010a 1B78     		ldrb	r3, [r3, #0]
 1686 010c DAB2     		uxtb	r2, r3
 1687 010e 40F20003 		movw	r3, #:lower16:cyPmBackup
 1688 0112 C0F20003 		movt	r3, #:upper16:cyPmBackup
 1689 0116 1A72     		strb	r2, [r3, #8]
1296:.\Generated_Source\PSoC5/cyPm.c **** 
1297:.\Generated_Source\PSoC5/cyPm.c ****     CY_PM_PWRSYS_WAKE_TR0_REG = CY_PM_PWRSYS_WAKE_TR0;
 1690              		.loc 1 1297 0
 1691 0118 44F28563 		movw	r3, #18053
 1692 011c C4F20003 		movt	r3, 16384
 1693 0120 4FF0FF02 		mov	r2, #255
 1694 0124 1A70     		strb	r2, [r3, #0]
ARM GAS  C:\Users\CHUCK~1.ERH\AppData\Local\Temp\cceT8Wjf.s 			page 54


1298:.\Generated_Source\PSoC5/cyPm.c ****     CY_PM_PWRSYS_WAKE_TR1_REG = CY_PM_PWRSYS_WAKE_TR1;
 1695              		.loc 1 1298 0
 1696 0126 44F28663 		movw	r3, #18054
 1697 012a C4F20003 		movt	r3, 16384
 1698 012e 4FF0B002 		mov	r2, #176
 1699 0132 1A70     		strb	r2, [r3, #0]
1299:.\Generated_Source\PSoC5/cyPm.c **** }
 1700              		.loc 1 1299 0
 1701 0134 80BD     		pop	{r7, pc}
 1702              		.cfi_endproc
 1703              	.LFE6:
 1704              		.size	CyPmHibSaveSet, .-CyPmHibSaveSet
 1705 0136 00BF     		.section	.text.CyPmHibRestore,"ax",%progbits
 1706              		.align	2
 1707              		.thumb
 1708              		.thumb_func
 1709              		.type	CyPmHibRestore, %function
 1710              	CyPmHibRestore:
 1711              	.LFB7:
1300:.\Generated_Source\PSoC5/cyPm.c **** 
1301:.\Generated_Source\PSoC5/cyPm.c **** 
1302:.\Generated_Source\PSoC5/cyPm.c **** /*******************************************************************************
1303:.\Generated_Source\PSoC5/cyPm.c **** * Function Name: CyPmHibRestore
1304:.\Generated_Source\PSoC5/cyPm.c **** ********************************************************************************
1305:.\Generated_Source\PSoC5/cyPm.c **** *
1306:.\Generated_Source\PSoC5/cyPm.c **** * Summary:
1307:.\Generated_Source\PSoC5/cyPm.c **** *  Restore device for proper Hibernate mode exit:
1308:.\Generated_Source\PSoC5/cyPm.c **** *  - Restore LVI/HVI configuration - call CyPmHviLviRestore()
1309:.\Generated_Source\PSoC5/cyPm.c **** *  - CyPmHibSlpSaveRestore() function is called
1310:.\Generated_Source\PSoC5/cyPm.c **** *  - Restores ILO power down mode state and enable it
1311:.\Generated_Source\PSoC5/cyPm.c **** *  - Restores state of 1 kHz and 100 kHz ILO and disable them
1312:.\Generated_Source\PSoC5/cyPm.c **** *  - Restores sleep regulator settings
1313:.\Generated_Source\PSoC5/cyPm.c **** *
1314:.\Generated_Source\PSoC5/cyPm.c **** * Parameters:
1315:.\Generated_Source\PSoC5/cyPm.c **** *  None
1316:.\Generated_Source\PSoC5/cyPm.c **** *
1317:.\Generated_Source\PSoC5/cyPm.c **** * Return:
1318:.\Generated_Source\PSoC5/cyPm.c **** *  None
1319:.\Generated_Source\PSoC5/cyPm.c **** *
1320:.\Generated_Source\PSoC5/cyPm.c **** *******************************************************************************/
1321:.\Generated_Source\PSoC5/cyPm.c **** static void CyPmHibRestore(void) 
1322:.\Generated_Source\PSoC5/cyPm.c **** {
 1712              		.loc 1 1322 0
 1713              		.cfi_startproc
 1714              		@ args = 0, pretend = 0, frame = 0
 1715              		@ frame_needed = 1, uses_anonymous_args = 0
 1716 0000 80B5     		push	{r7, lr}
 1717              	.LCFI19:
 1718              		.cfi_def_cfa_offset 8
 1719              		.cfi_offset 7, -8
 1720              		.cfi_offset 14, -4
 1721 0002 00AF     		add	r7, sp, #0
 1722              	.LCFI20:
 1723              		.cfi_def_cfa_register 7
1323:.\Generated_Source\PSoC5/cyPm.c ****     /* Restore LVI/HVI configuration */
1324:.\Generated_Source\PSoC5/cyPm.c ****     CyPmHviLviRestore();
 1724              		.loc 1 1324 0
ARM GAS  C:\Users\CHUCK~1.ERH\AppData\Local\Temp\cceT8Wjf.s 			page 55


 1725 0004 FFF7FEFF 		bl	CyPmHviLviRestore
1325:.\Generated_Source\PSoC5/cyPm.c **** 
1326:.\Generated_Source\PSoC5/cyPm.c ****     /* Restore the same configuration for Hibernate and Sleep modes */
1327:.\Generated_Source\PSoC5/cyPm.c ****     CyPmHibSlpRestore();
 1726              		.loc 1 1327 0
 1727 0008 FFF7FEFF 		bl	CyPmHibSlpRestore
1328:.\Generated_Source\PSoC5/cyPm.c **** 
1329:.\Generated_Source\PSoC5/cyPm.c ****     /* Restore 1kHz ILO enable state */
1330:.\Generated_Source\PSoC5/cyPm.c ****     if(CY_PM_ENABLED == cyPmBackup.ilo1kEnable)
 1728              		.loc 1 1330 0
 1729 000c 40F20003 		movw	r3, #:lower16:cyPmBackup
 1730 0010 C0F20003 		movt	r3, #:upper16:cyPmBackup
 1731 0014 5B78     		ldrb	r3, [r3, #1]	@ zero_extendqisi2
 1732 0016 012B     		cmp	r3, #1
 1733 0018 01D1     		bne	.L68
1331:.\Generated_Source\PSoC5/cyPm.c ****     {
1332:.\Generated_Source\PSoC5/cyPm.c ****         /* Enable 1kHz ILO */
1333:.\Generated_Source\PSoC5/cyPm.c ****         CyILO_Start1K();
 1734              		.loc 1 1333 0
 1735 001a FFF7FEFF 		bl	CyILO_Start1K
 1736              	.L68:
1334:.\Generated_Source\PSoC5/cyPm.c ****     }
1335:.\Generated_Source\PSoC5/cyPm.c **** 
1336:.\Generated_Source\PSoC5/cyPm.c ****     /* Restore 100kHz ILO enable state */
1337:.\Generated_Source\PSoC5/cyPm.c ****     if(CY_PM_ENABLED == cyPmBackup.ilo100kEnable)
 1737              		.loc 1 1337 0
 1738 001e 40F20003 		movw	r3, #:lower16:cyPmBackup
 1739 0022 C0F20003 		movt	r3, #:upper16:cyPmBackup
 1740 0026 9B78     		ldrb	r3, [r3, #2]	@ zero_extendqisi2
 1741 0028 012B     		cmp	r3, #1
 1742 002a 01D1     		bne	.L69
1338:.\Generated_Source\PSoC5/cyPm.c ****     {
1339:.\Generated_Source\PSoC5/cyPm.c ****         /* Enable 100kHz ILO */
1340:.\Generated_Source\PSoC5/cyPm.c ****         CyILO_Start100K();
 1743              		.loc 1 1340 0
 1744 002c FFF7FEFF 		bl	CyILO_Start100K
 1745              	.L69:
1341:.\Generated_Source\PSoC5/cyPm.c ****     }
1342:.\Generated_Source\PSoC5/cyPm.c **** 
1343:.\Generated_Source\PSoC5/cyPm.c ****     /* Restore ILO power mode */
1344:.\Generated_Source\PSoC5/cyPm.c ****     (void) CyILO_SetPowerMode(cyPmBackup.iloPowerMode);
 1746              		.loc 1 1344 0
 1747 0030 40F20003 		movw	r3, #:lower16:cyPmBackup
 1748 0034 C0F20003 		movt	r3, #:upper16:cyPmBackup
 1749 0038 1B78     		ldrb	r3, [r3, #0]	@ zero_extendqisi2
 1750 003a 1846     		mov	r0, r3
 1751 003c FFF7FEFF 		bl	CyILO_SetPowerMode
1345:.\Generated_Source\PSoC5/cyPm.c **** 
1346:.\Generated_Source\PSoC5/cyPm.c **** 
1347:.\Generated_Source\PSoC5/cyPm.c ****     if(CY_PM_DISABLED == cyPmBackup.slpTrBypass)
 1752              		.loc 1 1347 0
 1753 0040 40F20003 		movw	r3, #:lower16:cyPmBackup
 1754 0044 C0F20003 		movt	r3, #:upper16:cyPmBackup
 1755 0048 DB78     		ldrb	r3, [r3, #3]	@ zero_extendqisi2
 1756 004a 002B     		cmp	r3, #0
 1757 004c 0DD1     		bne	.L70
1348:.\Generated_Source\PSoC5/cyPm.c ****     {
ARM GAS  C:\Users\CHUCK~1.ERH\AppData\Local\Temp\cceT8Wjf.s 			page 56


1349:.\Generated_Source\PSoC5/cyPm.c ****         /* Enable the sleep regulator */
1350:.\Generated_Source\PSoC5/cyPm.c ****         CY_PM_PWRSYS_SLP_TR_REG &= ((uint8)(~CY_PM_PWRSYS_SLP_TR_BYPASS));
 1758              		.loc 1 1350 0
 1759 004e 44F28363 		movw	r3, #18051
 1760 0052 C4F20003 		movt	r3, 16384
 1761 0056 44F28362 		movw	r2, #18051
 1762 005a C4F20002 		movt	r2, 16384
 1763 005e 1278     		ldrb	r2, [r2, #0]
 1764 0060 D2B2     		uxtb	r2, r2
 1765 0062 22F01002 		bic	r2, r2, #16
 1766 0066 D2B2     		uxtb	r2, r2
 1767 0068 1A70     		strb	r2, [r3, #0]
 1768              	.L70:
1351:.\Generated_Source\PSoC5/cyPm.c ****     }
1352:.\Generated_Source\PSoC5/cyPm.c **** 
1353:.\Generated_Source\PSoC5/cyPm.c **** 
1354:.\Generated_Source\PSoC5/cyPm.c ****     /***************************************************************************
1355:.\Generated_Source\PSoC5/cyPm.c ****     * Restore power mode wakeup trim registers
1356:.\Generated_Source\PSoC5/cyPm.c ****     ***************************************************************************/
1357:.\Generated_Source\PSoC5/cyPm.c ****     CY_PM_PWRSYS_WAKE_TR0_REG = cyPmBackup.wakeupTrim0;
 1769              		.loc 1 1357 0
 1770 006a 44F28563 		movw	r3, #18053
 1771 006e C4F20003 		movt	r3, 16384
 1772 0072 40F20002 		movw	r2, #:lower16:cyPmBackup
 1773 0076 C0F20002 		movt	r2, #:upper16:cyPmBackup
 1774 007a D279     		ldrb	r2, [r2, #7]	@ zero_extendqisi2
 1775 007c 1A70     		strb	r2, [r3, #0]
1358:.\Generated_Source\PSoC5/cyPm.c ****     CY_PM_PWRSYS_WAKE_TR1_REG = cyPmBackup.wakeupTrim1;
 1776              		.loc 1 1358 0
 1777 007e 44F28663 		movw	r3, #18054
 1778 0082 C4F20003 		movt	r3, 16384
 1779 0086 40F20002 		movw	r2, #:lower16:cyPmBackup
 1780 008a C0F20002 		movt	r2, #:upper16:cyPmBackup
 1781 008e 127A     		ldrb	r2, [r2, #8]	@ zero_extendqisi2
 1782 0090 1A70     		strb	r2, [r3, #0]
1359:.\Generated_Source\PSoC5/cyPm.c **** }
 1783              		.loc 1 1359 0
 1784 0092 80BD     		pop	{r7, pc}
 1785              		.cfi_endproc
 1786              	.LFE7:
 1787              		.size	CyPmHibRestore, .-CyPmHibRestore
 1788              		.section	.text.CyPmCtwSetInterval,"ax",%progbits
 1789              		.align	2
 1790              		.global	CyPmCtwSetInterval
 1791              		.thumb
 1792              		.thumb_func
 1793              		.type	CyPmCtwSetInterval, %function
 1794              	CyPmCtwSetInterval:
 1795              	.LFB8:
1360:.\Generated_Source\PSoC5/cyPm.c **** 
1361:.\Generated_Source\PSoC5/cyPm.c **** 
1362:.\Generated_Source\PSoC5/cyPm.c **** /*******************************************************************************
1363:.\Generated_Source\PSoC5/cyPm.c **** * Function Name: CyPmCtwSetInterval
1364:.\Generated_Source\PSoC5/cyPm.c **** ********************************************************************************
1365:.\Generated_Source\PSoC5/cyPm.c **** *
1366:.\Generated_Source\PSoC5/cyPm.c **** * Summary:
1367:.\Generated_Source\PSoC5/cyPm.c **** *  Performs CTW configuration:
ARM GAS  C:\Users\CHUCK~1.ERH\AppData\Local\Temp\cceT8Wjf.s 			page 57


1368:.\Generated_Source\PSoC5/cyPm.c **** *  - Disables CTW interrupt
1369:.\Generated_Source\PSoC5/cyPm.c **** *  - Enables 1 kHz ILO
1370:.\Generated_Source\PSoC5/cyPm.c **** *  - Sets new CTW interval
1371:.\Generated_Source\PSoC5/cyPm.c **** *
1372:.\Generated_Source\PSoC5/cyPm.c **** * Parameters:
1373:.\Generated_Source\PSoC5/cyPm.c **** *  ctwInterval: the CTW interval to be set.
1374:.\Generated_Source\PSoC5/cyPm.c **** *
1375:.\Generated_Source\PSoC5/cyPm.c **** * Return:
1376:.\Generated_Source\PSoC5/cyPm.c **** *  None
1377:.\Generated_Source\PSoC5/cyPm.c **** *
1378:.\Generated_Source\PSoC5/cyPm.c **** * Side Effects:
1379:.\Generated_Source\PSoC5/cyPm.c **** *  Enables ILO 1 KHz clock and leaves it enabled.
1380:.\Generated_Source\PSoC5/cyPm.c **** *
1381:.\Generated_Source\PSoC5/cyPm.c **** *******************************************************************************/
1382:.\Generated_Source\PSoC5/cyPm.c **** void CyPmCtwSetInterval(uint8 ctwInterval) 
1383:.\Generated_Source\PSoC5/cyPm.c **** {
 1796              		.loc 1 1383 0
 1797              		.cfi_startproc
 1798              		@ args = 0, pretend = 0, frame = 8
 1799              		@ frame_needed = 1, uses_anonymous_args = 0
 1800 0000 80B5     		push	{r7, lr}
 1801              	.LCFI21:
 1802              		.cfi_def_cfa_offset 8
 1803              		.cfi_offset 7, -8
 1804              		.cfi_offset 14, -4
 1805 0002 82B0     		sub	sp, sp, #8
 1806              	.LCFI22:
 1807              		.cfi_def_cfa_offset 16
 1808 0004 00AF     		add	r7, sp, #0
 1809              	.LCFI23:
 1810              		.cfi_def_cfa_register 7
 1811 0006 0346     		mov	r3, r0
 1812 0008 FB71     		strb	r3, [r7, #7]
1384:.\Generated_Source\PSoC5/cyPm.c ****     /* Disable CTW interrupt enable */
1385:.\Generated_Source\PSoC5/cyPm.c ****     CY_PM_TW_CFG2_REG &= ((uint8)(~CY_PM_CTW_IE));
 1813              		.loc 1 1385 0
 1814 000a 44F28233 		movw	r3, #17282
 1815 000e C4F20003 		movt	r3, 16384
 1816 0012 44F28232 		movw	r2, #17282
 1817 0016 C4F20002 		movt	r2, 16384
 1818 001a 1278     		ldrb	r2, [r2, #0]
 1819 001c D2B2     		uxtb	r2, r2
 1820 001e 22F00802 		bic	r2, r2, #8
 1821 0022 D2B2     		uxtb	r2, r2
 1822 0024 1A70     		strb	r2, [r3, #0]
1386:.\Generated_Source\PSoC5/cyPm.c **** 
1387:.\Generated_Source\PSoC5/cyPm.c ****     /* Enable 1kHz ILO (required for CTW operation) */
1388:.\Generated_Source\PSoC5/cyPm.c ****     CyILO_Start1K();
 1823              		.loc 1 1388 0
 1824 0026 FFF7FEFF 		bl	CyILO_Start1K
1389:.\Generated_Source\PSoC5/cyPm.c **** 
1390:.\Generated_Source\PSoC5/cyPm.c ****     /* Interval could be set only while CTW is disabled */
1391:.\Generated_Source\PSoC5/cyPm.c ****     if(0u != (CY_PM_TW_CFG2_REG & CY_PM_CTW_EN))
 1825              		.loc 1 1391 0
 1826 002a 44F28233 		movw	r3, #17282
 1827 002e C4F20003 		movt	r3, 16384
 1828 0032 1B78     		ldrb	r3, [r3, #0]
ARM GAS  C:\Users\CHUCK~1.ERH\AppData\Local\Temp\cceT8Wjf.s 			page 58


 1829 0034 DBB2     		uxtb	r3, r3
 1830 0036 03F00403 		and	r3, r3, #4
 1831 003a 002B     		cmp	r3, #0
 1832 003c 2BD0     		beq	.L72
1392:.\Generated_Source\PSoC5/cyPm.c ****     {
1393:.\Generated_Source\PSoC5/cyPm.c ****         /* Set CTW interval if needed */
1394:.\Generated_Source\PSoC5/cyPm.c ****         if(CY_PM_TW_CFG1_REG != ctwInterval)
 1833              		.loc 1 1394 0
 1834 003e 44F28133 		movw	r3, #17281
 1835 0042 C4F20003 		movt	r3, 16384
 1836 0046 1B78     		ldrb	r3, [r3, #0]
 1837 0048 DBB2     		uxtb	r3, r3
 1838 004a FA79     		ldrb	r2, [r7, #7]	@ zero_extendqisi2
 1839 004c 9A42     		cmp	r2, r3
 1840 004e 3FD0     		beq	.L71
1395:.\Generated_Source\PSoC5/cyPm.c ****         {
1396:.\Generated_Source\PSoC5/cyPm.c ****             /* Disable the CTW, set new CTW interval and enable it again */
1397:.\Generated_Source\PSoC5/cyPm.c ****             CY_PM_TW_CFG2_REG &= ((uint8)(~CY_PM_CTW_EN));
 1841              		.loc 1 1397 0
 1842 0050 44F28233 		movw	r3, #17282
 1843 0054 C4F20003 		movt	r3, 16384
 1844 0058 44F28232 		movw	r2, #17282
 1845 005c C4F20002 		movt	r2, 16384
 1846 0060 1278     		ldrb	r2, [r2, #0]
 1847 0062 D2B2     		uxtb	r2, r2
 1848 0064 22F00402 		bic	r2, r2, #4
 1849 0068 D2B2     		uxtb	r2, r2
 1850 006a 1A70     		strb	r2, [r3, #0]
1398:.\Generated_Source\PSoC5/cyPm.c ****             CY_PM_TW_CFG1_REG = ctwInterval;
 1851              		.loc 1 1398 0
 1852 006c 44F28133 		movw	r3, #17281
 1853 0070 C4F20003 		movt	r3, 16384
 1854 0074 FA79     		ldrb	r2, [r7, #7]
 1855 0076 1A70     		strb	r2, [r3, #0]
1399:.\Generated_Source\PSoC5/cyPm.c ****             CY_PM_TW_CFG2_REG |= CY_PM_CTW_EN;
 1856              		.loc 1 1399 0
 1857 0078 44F28233 		movw	r3, #17282
 1858 007c C4F20003 		movt	r3, 16384
 1859 0080 44F28232 		movw	r2, #17282
 1860 0084 C4F20002 		movt	r2, 16384
 1861 0088 1278     		ldrb	r2, [r2, #0]
 1862 008a D2B2     		uxtb	r2, r2
 1863 008c 42F00402 		orr	r2, r2, #4
 1864 0090 D2B2     		uxtb	r2, r2
 1865 0092 1A70     		strb	r2, [r3, #0]
 1866 0094 1CE0     		b	.L71
 1867              	.L72:
1400:.\Generated_Source\PSoC5/cyPm.c ****         }   /* Required interval is already set */
1401:.\Generated_Source\PSoC5/cyPm.c ****     }
1402:.\Generated_Source\PSoC5/cyPm.c ****     else
1403:.\Generated_Source\PSoC5/cyPm.c ****     {
1404:.\Generated_Source\PSoC5/cyPm.c ****         /* Set CTW interval if needed */
1405:.\Generated_Source\PSoC5/cyPm.c ****         if(CY_PM_TW_CFG1_REG != ctwInterval)
 1868              		.loc 1 1405 0
 1869 0096 44F28133 		movw	r3, #17281
 1870 009a C4F20003 		movt	r3, 16384
 1871 009e 1B78     		ldrb	r3, [r3, #0]
ARM GAS  C:\Users\CHUCK~1.ERH\AppData\Local\Temp\cceT8Wjf.s 			page 59


 1872 00a0 DBB2     		uxtb	r3, r3
 1873 00a2 FA79     		ldrb	r2, [r7, #7]	@ zero_extendqisi2
 1874 00a4 9A42     		cmp	r2, r3
 1875 00a6 05D0     		beq	.L74
1406:.\Generated_Source\PSoC5/cyPm.c ****         {
1407:.\Generated_Source\PSoC5/cyPm.c ****             /* Set the new CTW interval. Could be changed if CTW is disabled */
1408:.\Generated_Source\PSoC5/cyPm.c ****             CY_PM_TW_CFG1_REG = ctwInterval;
 1876              		.loc 1 1408 0
 1877 00a8 44F28133 		movw	r3, #17281
 1878 00ac C4F20003 		movt	r3, 16384
 1879 00b0 FA79     		ldrb	r2, [r7, #7]
 1880 00b2 1A70     		strb	r2, [r3, #0]
 1881              	.L74:
1409:.\Generated_Source\PSoC5/cyPm.c ****         }   /* Required interval is already set */
1410:.\Generated_Source\PSoC5/cyPm.c **** 
1411:.\Generated_Source\PSoC5/cyPm.c ****         /* Enable the CTW */
1412:.\Generated_Source\PSoC5/cyPm.c ****         CY_PM_TW_CFG2_REG |= CY_PM_CTW_EN;
 1882              		.loc 1 1412 0
 1883 00b4 44F28233 		movw	r3, #17282
 1884 00b8 C4F20003 		movt	r3, 16384
 1885 00bc 44F28232 		movw	r2, #17282
 1886 00c0 C4F20002 		movt	r2, 16384
 1887 00c4 1278     		ldrb	r2, [r2, #0]
 1888 00c6 D2B2     		uxtb	r2, r2
 1889 00c8 42F00402 		orr	r2, r2, #4
 1890 00cc D2B2     		uxtb	r2, r2
 1891 00ce 1A70     		strb	r2, [r3, #0]
 1892              	.L71:
1413:.\Generated_Source\PSoC5/cyPm.c ****     }
1414:.\Generated_Source\PSoC5/cyPm.c **** }
 1893              		.loc 1 1414 0
 1894 00d0 07F10807 		add	r7, r7, #8
 1895 00d4 BD46     		mov	sp, r7
 1896 00d6 80BD     		pop	{r7, pc}
 1897              		.cfi_endproc
 1898              	.LFE8:
 1899              		.size	CyPmCtwSetInterval, .-CyPmCtwSetInterval
 1900              		.section	.text.CyPmOppsSet,"ax",%progbits
 1901              		.align	2
 1902              		.global	CyPmOppsSet
 1903              		.thumb
 1904              		.thumb_func
 1905              		.type	CyPmOppsSet, %function
 1906              	CyPmOppsSet:
 1907              	.LFB9:
1415:.\Generated_Source\PSoC5/cyPm.c **** 
1416:.\Generated_Source\PSoC5/cyPm.c **** 
1417:.\Generated_Source\PSoC5/cyPm.c **** /*******************************************************************************
1418:.\Generated_Source\PSoC5/cyPm.c **** * Function Name: CyPmOppsSet
1419:.\Generated_Source\PSoC5/cyPm.c **** ********************************************************************************
1420:.\Generated_Source\PSoC5/cyPm.c **** *
1421:.\Generated_Source\PSoC5/cyPm.c **** * Summary:
1422:.\Generated_Source\PSoC5/cyPm.c **** *  Performs 1PPS configuration:
1423:.\Generated_Source\PSoC5/cyPm.c **** *  - Starts 32 KHz XTAL
1424:.\Generated_Source\PSoC5/cyPm.c **** *  - Disables 1PPS interupts
1425:.\Generated_Source\PSoC5/cyPm.c **** *  - Enables 1PPS
1426:.\Generated_Source\PSoC5/cyPm.c **** *
ARM GAS  C:\Users\CHUCK~1.ERH\AppData\Local\Temp\cceT8Wjf.s 			page 60


1427:.\Generated_Source\PSoC5/cyPm.c **** * Parameters:
1428:.\Generated_Source\PSoC5/cyPm.c **** *  None
1429:.\Generated_Source\PSoC5/cyPm.c **** *
1430:.\Generated_Source\PSoC5/cyPm.c **** * Return:
1431:.\Generated_Source\PSoC5/cyPm.c **** *  None
1432:.\Generated_Source\PSoC5/cyPm.c **** *
1433:.\Generated_Source\PSoC5/cyPm.c **** *******************************************************************************/
1434:.\Generated_Source\PSoC5/cyPm.c **** void CyPmOppsSet(void) 
1435:.\Generated_Source\PSoC5/cyPm.c **** {
 1908              		.loc 1 1435 0
 1909              		.cfi_startproc
 1910              		@ args = 0, pretend = 0, frame = 0
 1911              		@ frame_needed = 1, uses_anonymous_args = 0
 1912 0000 80B5     		push	{r7, lr}
 1913              	.LCFI24:
 1914              		.cfi_def_cfa_offset 8
 1915              		.cfi_offset 7, -8
 1916              		.cfi_offset 14, -4
 1917 0002 00AF     		add	r7, sp, #0
 1918              	.LCFI25:
 1919              		.cfi_def_cfa_register 7
1436:.\Generated_Source\PSoC5/cyPm.c ****     /* Enable 32kHz XTAL if needed */
1437:.\Generated_Source\PSoC5/cyPm.c ****     if(0u == (CY_PM_SLOWCLK_X32_CR_REG & CY_PM_X32_CR_X32EN))
 1920              		.loc 1 1437 0
 1921 0004 44F20833 		movw	r3, #17160
 1922 0008 C4F20003 		movt	r3, 16384
 1923 000c 1B78     		ldrb	r3, [r3, #0]
 1924 000e DBB2     		uxtb	r3, r3
 1925 0010 03F00103 		and	r3, r3, #1
 1926 0014 002B     		cmp	r3, #0
 1927 0016 01D1     		bne	.L76
1438:.\Generated_Source\PSoC5/cyPm.c ****     {
1439:.\Generated_Source\PSoC5/cyPm.c ****         /* Enable 32kHz XTAL */
1440:.\Generated_Source\PSoC5/cyPm.c ****         CyXTAL_32KHZ_Start();
 1928              		.loc 1 1440 0
 1929 0018 FFF7FEFF 		bl	CyXTAL_32KHZ_Start
 1930              	.L76:
1441:.\Generated_Source\PSoC5/cyPm.c ****     }
1442:.\Generated_Source\PSoC5/cyPm.c **** 
1443:.\Generated_Source\PSoC5/cyPm.c ****     /* Disable 1PPS interrupt enable */
1444:.\Generated_Source\PSoC5/cyPm.c ****     CY_PM_TW_CFG2_REG &= ((uint8)(~CY_PM_1PPS_IE));
 1931              		.loc 1 1444 0
 1932 001c 44F28233 		movw	r3, #17282
 1933 0020 C4F20003 		movt	r3, 16384
 1934 0024 44F28232 		movw	r2, #17282
 1935 0028 C4F20002 		movt	r2, 16384
 1936 002c 1278     		ldrb	r2, [r2, #0]
 1937 002e D2B2     		uxtb	r2, r2
 1938 0030 22F02002 		bic	r2, r2, #32
 1939 0034 D2B2     		uxtb	r2, r2
 1940 0036 1A70     		strb	r2, [r3, #0]
1445:.\Generated_Source\PSoC5/cyPm.c **** 
1446:.\Generated_Source\PSoC5/cyPm.c ****     /* Enable 1PPS operation */
1447:.\Generated_Source\PSoC5/cyPm.c ****     CY_PM_TW_CFG2_REG |= CY_PM_1PPS_EN;
 1941              		.loc 1 1447 0
 1942 0038 44F28233 		movw	r3, #17282
 1943 003c C4F20003 		movt	r3, 16384
ARM GAS  C:\Users\CHUCK~1.ERH\AppData\Local\Temp\cceT8Wjf.s 			page 61


 1944 0040 44F28232 		movw	r2, #17282
 1945 0044 C4F20002 		movt	r2, 16384
 1946 0048 1278     		ldrb	r2, [r2, #0]
 1947 004a D2B2     		uxtb	r2, r2
 1948 004c 42F01002 		orr	r2, r2, #16
 1949 0050 D2B2     		uxtb	r2, r2
 1950 0052 1A70     		strb	r2, [r3, #0]
1448:.\Generated_Source\PSoC5/cyPm.c **** }
 1951              		.loc 1 1448 0
 1952 0054 80BD     		pop	{r7, pc}
 1953              		.cfi_endproc
 1954              	.LFE9:
 1955              		.size	CyPmOppsSet, .-CyPmOppsSet
 1956 0056 00BF     		.section	.text.CyPmFtwSetInterval,"ax",%progbits
 1957              		.align	2
 1958              		.global	CyPmFtwSetInterval
 1959              		.thumb
 1960              		.thumb_func
 1961              		.type	CyPmFtwSetInterval, %function
 1962              	CyPmFtwSetInterval:
 1963              	.LFB10:
1449:.\Generated_Source\PSoC5/cyPm.c **** 
1450:.\Generated_Source\PSoC5/cyPm.c **** 
1451:.\Generated_Source\PSoC5/cyPm.c **** /*******************************************************************************
1452:.\Generated_Source\PSoC5/cyPm.c **** * Function Name: CyPmFtwSetInterval
1453:.\Generated_Source\PSoC5/cyPm.c **** ********************************************************************************
1454:.\Generated_Source\PSoC5/cyPm.c **** *
1455:.\Generated_Source\PSoC5/cyPm.c **** * Summary:
1456:.\Generated_Source\PSoC5/cyPm.c **** *  Performs FTW configuration:
1457:.\Generated_Source\PSoC5/cyPm.c **** *  - Disables FTW interrupt
1458:.\Generated_Source\PSoC5/cyPm.c **** *  - Enables 100 kHz ILO
1459:.\Generated_Source\PSoC5/cyPm.c **** *  - Sets new FTW interval.
1460:.\Generated_Source\PSoC5/cyPm.c **** *
1461:.\Generated_Source\PSoC5/cyPm.c **** * Parameters:
1462:.\Generated_Source\PSoC5/cyPm.c **** *  ftwInterval - FTW counter interval.
1463:.\Generated_Source\PSoC5/cyPm.c **** *
1464:.\Generated_Source\PSoC5/cyPm.c **** * Return:
1465:.\Generated_Source\PSoC5/cyPm.c **** *  None
1466:.\Generated_Source\PSoC5/cyPm.c **** *
1467:.\Generated_Source\PSoC5/cyPm.c **** * Side Effects:
1468:.\Generated_Source\PSoC5/cyPm.c **** *  Enables ILO 100 KHz clock and leaves it enabled.
1469:.\Generated_Source\PSoC5/cyPm.c **** *
1470:.\Generated_Source\PSoC5/cyPm.c **** *******************************************************************************/
1471:.\Generated_Source\PSoC5/cyPm.c **** void CyPmFtwSetInterval(uint8 ftwInterval) 
1472:.\Generated_Source\PSoC5/cyPm.c **** {
 1964              		.loc 1 1472 0
 1965              		.cfi_startproc
 1966              		@ args = 0, pretend = 0, frame = 8
 1967              		@ frame_needed = 1, uses_anonymous_args = 0
 1968 0000 80B5     		push	{r7, lr}
 1969              	.LCFI26:
 1970              		.cfi_def_cfa_offset 8
 1971              		.cfi_offset 7, -8
 1972              		.cfi_offset 14, -4
 1973 0002 82B0     		sub	sp, sp, #8
 1974              	.LCFI27:
 1975              		.cfi_def_cfa_offset 16
ARM GAS  C:\Users\CHUCK~1.ERH\AppData\Local\Temp\cceT8Wjf.s 			page 62


 1976 0004 00AF     		add	r7, sp, #0
 1977              	.LCFI28:
 1978              		.cfi_def_cfa_register 7
 1979 0006 0346     		mov	r3, r0
 1980 0008 FB71     		strb	r3, [r7, #7]
1473:.\Generated_Source\PSoC5/cyPm.c ****     /* Disable FTW interrupt enable */
1474:.\Generated_Source\PSoC5/cyPm.c ****     CY_PM_TW_CFG2_REG &= ((uint8)(~CY_PM_FTW_IE));
 1981              		.loc 1 1474 0
 1982 000a 44F28233 		movw	r3, #17282
 1983 000e C4F20003 		movt	r3, 16384
 1984 0012 44F28232 		movw	r2, #17282
 1985 0016 C4F20002 		movt	r2, 16384
 1986 001a 1278     		ldrb	r2, [r2, #0]
 1987 001c D2B2     		uxtb	r2, r2
 1988 001e 22F00202 		bic	r2, r2, #2
 1989 0022 D2B2     		uxtb	r2, r2
 1990 0024 1A70     		strb	r2, [r3, #0]
1475:.\Generated_Source\PSoC5/cyPm.c **** 
1476:.\Generated_Source\PSoC5/cyPm.c ****     /* Enable 100kHz ILO */
1477:.\Generated_Source\PSoC5/cyPm.c ****     CyILO_Start100K();
 1991              		.loc 1 1477 0
 1992 0026 FFF7FEFF 		bl	CyILO_Start100K
1478:.\Generated_Source\PSoC5/cyPm.c **** 
1479:.\Generated_Source\PSoC5/cyPm.c ****     /* Iterval could be set only while FTW is disabled */
1480:.\Generated_Source\PSoC5/cyPm.c ****     if(0u != (CY_PM_TW_CFG2_REG & CY_PM_FTW_EN))
 1993              		.loc 1 1480 0
 1994 002a 44F28233 		movw	r3, #17282
 1995 002e C4F20003 		movt	r3, 16384
 1996 0032 1B78     		ldrb	r3, [r3, #0]
 1997 0034 DBB2     		uxtb	r3, r3
 1998 0036 03F00103 		and	r3, r3, #1
 1999 003a 002B     		cmp	r3, #0
 2000 003c 2BD0     		beq	.L78
1481:.\Generated_Source\PSoC5/cyPm.c ****     {
1482:.\Generated_Source\PSoC5/cyPm.c ****         /* Disable FTW, set new FTW interval if needed and enable it again */
1483:.\Generated_Source\PSoC5/cyPm.c ****         if(CY_PM_TW_CFG0_REG != ftwInterval)
 2001              		.loc 1 1483 0
 2002 003e 4FF48743 		mov	r3, #17280
 2003 0042 C4F20003 		movt	r3, 16384
 2004 0046 1B78     		ldrb	r3, [r3, #0]
 2005 0048 DBB2     		uxtb	r3, r3
 2006 004a FA79     		ldrb	r2, [r7, #7]	@ zero_extendqisi2
 2007 004c 9A42     		cmp	r2, r3
 2008 004e 3FD0     		beq	.L77
1484:.\Generated_Source\PSoC5/cyPm.c ****         {
1485:.\Generated_Source\PSoC5/cyPm.c ****             /* Disable the CTW, set new CTW interval and enable it again */
1486:.\Generated_Source\PSoC5/cyPm.c ****             CY_PM_TW_CFG2_REG &= ((uint8)(~CY_PM_FTW_EN));
 2009              		.loc 1 1486 0
 2010 0050 44F28233 		movw	r3, #17282
 2011 0054 C4F20003 		movt	r3, 16384
 2012 0058 44F28232 		movw	r2, #17282
 2013 005c C4F20002 		movt	r2, 16384
 2014 0060 1278     		ldrb	r2, [r2, #0]
 2015 0062 D2B2     		uxtb	r2, r2
 2016 0064 22F00102 		bic	r2, r2, #1
 2017 0068 D2B2     		uxtb	r2, r2
 2018 006a 1A70     		strb	r2, [r3, #0]
ARM GAS  C:\Users\CHUCK~1.ERH\AppData\Local\Temp\cceT8Wjf.s 			page 63


1487:.\Generated_Source\PSoC5/cyPm.c ****             CY_PM_TW_CFG0_REG = ftwInterval;
 2019              		.loc 1 1487 0
 2020 006c 4FF48743 		mov	r3, #17280
 2021 0070 C4F20003 		movt	r3, 16384
 2022 0074 FA79     		ldrb	r2, [r7, #7]
 2023 0076 1A70     		strb	r2, [r3, #0]
1488:.\Generated_Source\PSoC5/cyPm.c ****             CY_PM_TW_CFG2_REG |= CY_PM_FTW_EN;
 2024              		.loc 1 1488 0
 2025 0078 44F28233 		movw	r3, #17282
 2026 007c C4F20003 		movt	r3, 16384
 2027 0080 44F28232 		movw	r2, #17282
 2028 0084 C4F20002 		movt	r2, 16384
 2029 0088 1278     		ldrb	r2, [r2, #0]
 2030 008a D2B2     		uxtb	r2, r2
 2031 008c 42F00102 		orr	r2, r2, #1
 2032 0090 D2B2     		uxtb	r2, r2
 2033 0092 1A70     		strb	r2, [r3, #0]
 2034 0094 1CE0     		b	.L77
 2035              	.L78:
1489:.\Generated_Source\PSoC5/cyPm.c ****         }   /* Required interval is already set */
1490:.\Generated_Source\PSoC5/cyPm.c ****     }
1491:.\Generated_Source\PSoC5/cyPm.c ****     else
1492:.\Generated_Source\PSoC5/cyPm.c ****     {
1493:.\Generated_Source\PSoC5/cyPm.c ****         /* Set new FTW counter interval if needed. FTW is disabled. */
1494:.\Generated_Source\PSoC5/cyPm.c ****         if(CY_PM_TW_CFG0_REG != ftwInterval)
 2036              		.loc 1 1494 0
 2037 0096 4FF48743 		mov	r3, #17280
 2038 009a C4F20003 		movt	r3, 16384
 2039 009e 1B78     		ldrb	r3, [r3, #0]
 2040 00a0 DBB2     		uxtb	r3, r3
 2041 00a2 FA79     		ldrb	r2, [r7, #7]	@ zero_extendqisi2
 2042 00a4 9A42     		cmp	r2, r3
 2043 00a6 05D0     		beq	.L80
1495:.\Generated_Source\PSoC5/cyPm.c ****         {
1496:.\Generated_Source\PSoC5/cyPm.c ****             /* Set the new CTW interval. Could be changed if CTW is disabled */
1497:.\Generated_Source\PSoC5/cyPm.c ****             CY_PM_TW_CFG0_REG = ftwInterval;
 2044              		.loc 1 1497 0
 2045 00a8 4FF48743 		mov	r3, #17280
 2046 00ac C4F20003 		movt	r3, 16384
 2047 00b0 FA79     		ldrb	r2, [r7, #7]
 2048 00b2 1A70     		strb	r2, [r3, #0]
 2049              	.L80:
1498:.\Generated_Source\PSoC5/cyPm.c ****         }   /* Required interval is already set */
1499:.\Generated_Source\PSoC5/cyPm.c **** 
1500:.\Generated_Source\PSoC5/cyPm.c ****         /* Enable the FTW */
1501:.\Generated_Source\PSoC5/cyPm.c ****         CY_PM_TW_CFG2_REG |= CY_PM_FTW_EN;
 2050              		.loc 1 1501 0
 2051 00b4 44F28233 		movw	r3, #17282
 2052 00b8 C4F20003 		movt	r3, 16384
 2053 00bc 44F28232 		movw	r2, #17282
 2054 00c0 C4F20002 		movt	r2, 16384
 2055 00c4 1278     		ldrb	r2, [r2, #0]
 2056 00c6 D2B2     		uxtb	r2, r2
 2057 00c8 42F00102 		orr	r2, r2, #1
 2058 00cc D2B2     		uxtb	r2, r2
 2059 00ce 1A70     		strb	r2, [r3, #0]
 2060              	.L77:
ARM GAS  C:\Users\CHUCK~1.ERH\AppData\Local\Temp\cceT8Wjf.s 			page 64


1502:.\Generated_Source\PSoC5/cyPm.c ****     }
1503:.\Generated_Source\PSoC5/cyPm.c **** }
 2061              		.loc 1 1503 0
 2062 00d0 07F10807 		add	r7, r7, #8
 2063 00d4 BD46     		mov	sp, r7
 2064 00d6 80BD     		pop	{r7, pc}
 2065              		.cfi_endproc
 2066              	.LFE10:
 2067              		.size	CyPmFtwSetInterval, .-CyPmFtwSetInterval
 2068              		.section	.text.CyPmHibSlpSaveSet,"ax",%progbits
 2069              		.align	2
 2070              		.thumb
 2071              		.thumb_func
 2072              		.type	CyPmHibSlpSaveSet, %function
 2073              	CyPmHibSlpSaveSet:
 2074              	.LFB11:
1504:.\Generated_Source\PSoC5/cyPm.c **** 
1505:.\Generated_Source\PSoC5/cyPm.c **** 
1506:.\Generated_Source\PSoC5/cyPm.c **** /*******************************************************************************
1507:.\Generated_Source\PSoC5/cyPm.c **** * Function Name: CyPmHibSlpSaveSet
1508:.\Generated_Source\PSoC5/cyPm.c **** ********************************************************************************
1509:.\Generated_Source\PSoC5/cyPm.c **** *
1510:.\Generated_Source\PSoC5/cyPm.c **** * Summary:
1511:.\Generated_Source\PSoC5/cyPm.c **** *  This API is used for preparing device for Sleep and Hibernate low power
1512:.\Generated_Source\PSoC5/cyPm.c **** *  modes entry:
1513:.\Generated_Source\PSoC5/cyPm.c **** *  - Saves COMP, VIDAC, DSM and SAR routing connections (PSoC 5)
1514:.\Generated_Source\PSoC5/cyPm.c **** *  - Saves SC/CT routing connections (PSoC 3/5/5LP)
1515:.\Generated_Source\PSoC5/cyPm.c **** *  - Disables Serial Wire Viewer (SWV) (PSoC 3)
1516:.\Generated_Source\PSoC5/cyPm.c **** *  - Save boost reference selection and set it to internal
1517:.\Generated_Source\PSoC5/cyPm.c **** *
1518:.\Generated_Source\PSoC5/cyPm.c **** * Parameters:
1519:.\Generated_Source\PSoC5/cyPm.c **** *  None
1520:.\Generated_Source\PSoC5/cyPm.c **** *
1521:.\Generated_Source\PSoC5/cyPm.c **** * Return:
1522:.\Generated_Source\PSoC5/cyPm.c **** *  None
1523:.\Generated_Source\PSoC5/cyPm.c **** *
1524:.\Generated_Source\PSoC5/cyPm.c **** * Reentrant:
1525:.\Generated_Source\PSoC5/cyPm.c **** *  No
1526:.\Generated_Source\PSoC5/cyPm.c **** *
1527:.\Generated_Source\PSoC5/cyPm.c **** *******************************************************************************/
1528:.\Generated_Source\PSoC5/cyPm.c **** static void CyPmHibSlpSaveSet(void) 
1529:.\Generated_Source\PSoC5/cyPm.c **** {
 2075              		.loc 1 1529 0
 2076              		.cfi_startproc
 2077              		@ args = 0, pretend = 0, frame = 0
 2078              		@ frame_needed = 1, uses_anonymous_args = 0
 2079              		@ link register save eliminated.
 2080 0000 80B4     		push	{r7}
 2081              	.LCFI29:
 2082              		.cfi_def_cfa_offset 4
 2083              		.cfi_offset 7, -4
 2084 0002 00AF     		add	r7, sp, #0
 2085              	.LCFI30:
 2086              		.cfi_def_cfa_register 7
1530:.\Generated_Source\PSoC5/cyPm.c ****     /* Save SC/CT routing registers */
1531:.\Generated_Source\PSoC5/cyPm.c ****     cyPmBackup.scctData[0u]   = CY_GET_REG8(CYREG_SC0_SW0 );
 2087              		.loc 1 1531 0
ARM GAS  C:\Users\CHUCK~1.ERH\AppData\Local\Temp\cceT8Wjf.s 			page 65


 2088 0004 4FF4B443 		mov	r3, #23040
 2089 0008 C4F20003 		movt	r3, 16384
 2090 000c 1B78     		ldrb	r3, [r3, #0]
 2091 000e DAB2     		uxtb	r2, r3
 2092 0010 40F20003 		movw	r3, #:lower16:cyPmBackup
 2093 0014 C0F20003 		movt	r3, #:upper16:cyPmBackup
 2094 0018 5A72     		strb	r2, [r3, #9]
1532:.\Generated_Source\PSoC5/cyPm.c ****     cyPmBackup.scctData[1u]   = CY_GET_REG8(CYREG_SC0_SW2 );
 2095              		.loc 1 1532 0
 2096 001a 45F60223 		movw	r3, #23042
 2097 001e C4F20003 		movt	r3, 16384
 2098 0022 1B78     		ldrb	r3, [r3, #0]
 2099 0024 DAB2     		uxtb	r2, r3
 2100 0026 40F20003 		movw	r3, #:lower16:cyPmBackup
 2101 002a C0F20003 		movt	r3, #:upper16:cyPmBackup
 2102 002e 9A72     		strb	r2, [r3, #10]
1533:.\Generated_Source\PSoC5/cyPm.c ****     cyPmBackup.scctData[2u]   = CY_GET_REG8(CYREG_SC0_SW3 );
 2103              		.loc 1 1533 0
 2104 0030 45F60323 		movw	r3, #23043
 2105 0034 C4F20003 		movt	r3, 16384
 2106 0038 1B78     		ldrb	r3, [r3, #0]
 2107 003a DAB2     		uxtb	r2, r3
 2108 003c 40F20003 		movw	r3, #:lower16:cyPmBackup
 2109 0040 C0F20003 		movt	r3, #:upper16:cyPmBackup
 2110 0044 DA72     		strb	r2, [r3, #11]
1534:.\Generated_Source\PSoC5/cyPm.c ****     cyPmBackup.scctData[3u]   = CY_GET_REG8(CYREG_SC0_SW4 );
 2111              		.loc 1 1534 0
 2112 0046 45F60423 		movw	r3, #23044
 2113 004a C4F20003 		movt	r3, 16384
 2114 004e 1B78     		ldrb	r3, [r3, #0]
 2115 0050 DAB2     		uxtb	r2, r3
 2116 0052 40F20003 		movw	r3, #:lower16:cyPmBackup
 2117 0056 C0F20003 		movt	r3, #:upper16:cyPmBackup
 2118 005a 1A73     		strb	r2, [r3, #12]
1535:.\Generated_Source\PSoC5/cyPm.c ****     cyPmBackup.scctData[4u]   = CY_GET_REG8(CYREG_SC0_SW6 );
 2119              		.loc 1 1535 0
 2120 005c 45F60623 		movw	r3, #23046
 2121 0060 C4F20003 		movt	r3, 16384
 2122 0064 1B78     		ldrb	r3, [r3, #0]
 2123 0066 DAB2     		uxtb	r2, r3
 2124 0068 40F20003 		movw	r3, #:lower16:cyPmBackup
 2125 006c C0F20003 		movt	r3, #:upper16:cyPmBackup
 2126 0070 5A73     		strb	r2, [r3, #13]
1536:.\Generated_Source\PSoC5/cyPm.c ****     cyPmBackup.scctData[5u]   = CY_GET_REG8(CYREG_SC0_SW8 );
 2127              		.loc 1 1536 0
 2128 0072 45F60823 		movw	r3, #23048
 2129 0076 C4F20003 		movt	r3, 16384
 2130 007a 1B78     		ldrb	r3, [r3, #0]
 2131 007c DAB2     		uxtb	r2, r3
 2132 007e 40F20003 		movw	r3, #:lower16:cyPmBackup
 2133 0082 C0F20003 		movt	r3, #:upper16:cyPmBackup
 2134 0086 9A73     		strb	r2, [r3, #14]
1537:.\Generated_Source\PSoC5/cyPm.c ****     cyPmBackup.scctData[6u]   = CY_GET_REG8(CYREG_SC0_SW10);
 2135              		.loc 1 1537 0
 2136 0088 45F60A23 		movw	r3, #23050
 2137 008c C4F20003 		movt	r3, 16384
 2138 0090 1B78     		ldrb	r3, [r3, #0]
ARM GAS  C:\Users\CHUCK~1.ERH\AppData\Local\Temp\cceT8Wjf.s 			page 66


 2139 0092 DAB2     		uxtb	r2, r3
 2140 0094 40F20003 		movw	r3, #:lower16:cyPmBackup
 2141 0098 C0F20003 		movt	r3, #:upper16:cyPmBackup
 2142 009c DA73     		strb	r2, [r3, #15]
1538:.\Generated_Source\PSoC5/cyPm.c **** 
1539:.\Generated_Source\PSoC5/cyPm.c ****     cyPmBackup.scctData[7u]   = CY_GET_REG8(CYREG_SC1_SW0 );
 2143              		.loc 1 1539 0
 2144 009e 45F61023 		movw	r3, #23056
 2145 00a2 C4F20003 		movt	r3, 16384
 2146 00a6 1B78     		ldrb	r3, [r3, #0]
 2147 00a8 DAB2     		uxtb	r2, r3
 2148 00aa 40F20003 		movw	r3, #:lower16:cyPmBackup
 2149 00ae C0F20003 		movt	r3, #:upper16:cyPmBackup
 2150 00b2 1A74     		strb	r2, [r3, #16]
1540:.\Generated_Source\PSoC5/cyPm.c ****     cyPmBackup.scctData[8u]   = CY_GET_REG8(CYREG_SC1_SW2 );
 2151              		.loc 1 1540 0
 2152 00b4 45F61223 		movw	r3, #23058
 2153 00b8 C4F20003 		movt	r3, 16384
 2154 00bc 1B78     		ldrb	r3, [r3, #0]
 2155 00be DAB2     		uxtb	r2, r3
 2156 00c0 40F20003 		movw	r3, #:lower16:cyPmBackup
 2157 00c4 C0F20003 		movt	r3, #:upper16:cyPmBackup
 2158 00c8 5A74     		strb	r2, [r3, #17]
1541:.\Generated_Source\PSoC5/cyPm.c ****     cyPmBackup.scctData[9u]   = CY_GET_REG8(CYREG_SC1_SW3 );
 2159              		.loc 1 1541 0
 2160 00ca 45F61323 		movw	r3, #23059
 2161 00ce C4F20003 		movt	r3, 16384
 2162 00d2 1B78     		ldrb	r3, [r3, #0]
 2163 00d4 DAB2     		uxtb	r2, r3
 2164 00d6 40F20003 		movw	r3, #:lower16:cyPmBackup
 2165 00da C0F20003 		movt	r3, #:upper16:cyPmBackup
 2166 00de 9A74     		strb	r2, [r3, #18]
1542:.\Generated_Source\PSoC5/cyPm.c ****     cyPmBackup.scctData[10u]  = CY_GET_REG8(CYREG_SC1_SW4 );
 2167              		.loc 1 1542 0
 2168 00e0 45F61423 		movw	r3, #23060
 2169 00e4 C4F20003 		movt	r3, 16384
 2170 00e8 1B78     		ldrb	r3, [r3, #0]
 2171 00ea DAB2     		uxtb	r2, r3
 2172 00ec 40F20003 		movw	r3, #:lower16:cyPmBackup
 2173 00f0 C0F20003 		movt	r3, #:upper16:cyPmBackup
 2174 00f4 DA74     		strb	r2, [r3, #19]
1543:.\Generated_Source\PSoC5/cyPm.c ****     cyPmBackup.scctData[11u]  = CY_GET_REG8(CYREG_SC1_SW6 );
 2175              		.loc 1 1543 0
 2176 00f6 45F61623 		movw	r3, #23062
 2177 00fa C4F20003 		movt	r3, 16384
 2178 00fe 1B78     		ldrb	r3, [r3, #0]
 2179 0100 DAB2     		uxtb	r2, r3
 2180 0102 40F20003 		movw	r3, #:lower16:cyPmBackup
 2181 0106 C0F20003 		movt	r3, #:upper16:cyPmBackup
 2182 010a 1A75     		strb	r2, [r3, #20]
1544:.\Generated_Source\PSoC5/cyPm.c ****     cyPmBackup.scctData[12u]  = CY_GET_REG8(CYREG_SC1_SW8 );
 2183              		.loc 1 1544 0
 2184 010c 45F61823 		movw	r3, #23064
 2185 0110 C4F20003 		movt	r3, 16384
 2186 0114 1B78     		ldrb	r3, [r3, #0]
 2187 0116 DAB2     		uxtb	r2, r3
 2188 0118 40F20003 		movw	r3, #:lower16:cyPmBackup
ARM GAS  C:\Users\CHUCK~1.ERH\AppData\Local\Temp\cceT8Wjf.s 			page 67


 2189 011c C0F20003 		movt	r3, #:upper16:cyPmBackup
 2190 0120 5A75     		strb	r2, [r3, #21]
1545:.\Generated_Source\PSoC5/cyPm.c ****     cyPmBackup.scctData[13u]  = CY_GET_REG8(CYREG_SC1_SW10);
 2191              		.loc 1 1545 0
 2192 0122 45F61A23 		movw	r3, #23066
 2193 0126 C4F20003 		movt	r3, 16384
 2194 012a 1B78     		ldrb	r3, [r3, #0]
 2195 012c DAB2     		uxtb	r2, r3
 2196 012e 40F20003 		movw	r3, #:lower16:cyPmBackup
 2197 0132 C0F20003 		movt	r3, #:upper16:cyPmBackup
 2198 0136 9A75     		strb	r2, [r3, #22]
1546:.\Generated_Source\PSoC5/cyPm.c **** 
1547:.\Generated_Source\PSoC5/cyPm.c ****     cyPmBackup.scctData[14u]  = CY_GET_REG8(CYREG_SC2_SW0 );
 2199              		.loc 1 1547 0
 2200 0138 45F62023 		movw	r3, #23072
 2201 013c C4F20003 		movt	r3, 16384
 2202 0140 1B78     		ldrb	r3, [r3, #0]
 2203 0142 DAB2     		uxtb	r2, r3
 2204 0144 40F20003 		movw	r3, #:lower16:cyPmBackup
 2205 0148 C0F20003 		movt	r3, #:upper16:cyPmBackup
 2206 014c DA75     		strb	r2, [r3, #23]
1548:.\Generated_Source\PSoC5/cyPm.c ****     cyPmBackup.scctData[15u]  = CY_GET_REG8(CYREG_SC2_SW2 );
 2207              		.loc 1 1548 0
 2208 014e 45F62223 		movw	r3, #23074
 2209 0152 C4F20003 		movt	r3, 16384
 2210 0156 1B78     		ldrb	r3, [r3, #0]
 2211 0158 DAB2     		uxtb	r2, r3
 2212 015a 40F20003 		movw	r3, #:lower16:cyPmBackup
 2213 015e C0F20003 		movt	r3, #:upper16:cyPmBackup
 2214 0162 1A76     		strb	r2, [r3, #24]
1549:.\Generated_Source\PSoC5/cyPm.c ****     cyPmBackup.scctData[16u]  = CY_GET_REG8(CYREG_SC2_SW3 );
 2215              		.loc 1 1549 0
 2216 0164 45F62323 		movw	r3, #23075
 2217 0168 C4F20003 		movt	r3, 16384
 2218 016c 1B78     		ldrb	r3, [r3, #0]
 2219 016e DAB2     		uxtb	r2, r3
 2220 0170 40F20003 		movw	r3, #:lower16:cyPmBackup
 2221 0174 C0F20003 		movt	r3, #:upper16:cyPmBackup
 2222 0178 5A76     		strb	r2, [r3, #25]
1550:.\Generated_Source\PSoC5/cyPm.c ****     cyPmBackup.scctData[17u]  = CY_GET_REG8(CYREG_SC2_SW4 );
 2223              		.loc 1 1550 0
 2224 017a 45F62423 		movw	r3, #23076
 2225 017e C4F20003 		movt	r3, 16384
 2226 0182 1B78     		ldrb	r3, [r3, #0]
 2227 0184 DAB2     		uxtb	r2, r3
 2228 0186 40F20003 		movw	r3, #:lower16:cyPmBackup
 2229 018a C0F20003 		movt	r3, #:upper16:cyPmBackup
 2230 018e 9A76     		strb	r2, [r3, #26]
1551:.\Generated_Source\PSoC5/cyPm.c ****     cyPmBackup.scctData[18u]  = CY_GET_REG8(CYREG_SC2_SW6 );
 2231              		.loc 1 1551 0
 2232 0190 45F62623 		movw	r3, #23078
 2233 0194 C4F20003 		movt	r3, 16384
 2234 0198 1B78     		ldrb	r3, [r3, #0]
 2235 019a DAB2     		uxtb	r2, r3
 2236 019c 40F20003 		movw	r3, #:lower16:cyPmBackup
 2237 01a0 C0F20003 		movt	r3, #:upper16:cyPmBackup
 2238 01a4 DA76     		strb	r2, [r3, #27]
ARM GAS  C:\Users\CHUCK~1.ERH\AppData\Local\Temp\cceT8Wjf.s 			page 68


1552:.\Generated_Source\PSoC5/cyPm.c ****     cyPmBackup.scctData[19u]  = CY_GET_REG8(CYREG_SC2_SW8 );
 2239              		.loc 1 1552 0
 2240 01a6 45F62823 		movw	r3, #23080
 2241 01aa C4F20003 		movt	r3, 16384
 2242 01ae 1B78     		ldrb	r3, [r3, #0]
 2243 01b0 DAB2     		uxtb	r2, r3
 2244 01b2 40F20003 		movw	r3, #:lower16:cyPmBackup
 2245 01b6 C0F20003 		movt	r3, #:upper16:cyPmBackup
 2246 01ba 1A77     		strb	r2, [r3, #28]
1553:.\Generated_Source\PSoC5/cyPm.c ****     cyPmBackup.scctData[20u]  = CY_GET_REG8(CYREG_SC2_SW10);
 2247              		.loc 1 1553 0
 2248 01bc 45F62A23 		movw	r3, #23082
 2249 01c0 C4F20003 		movt	r3, 16384
 2250 01c4 1B78     		ldrb	r3, [r3, #0]
 2251 01c6 DAB2     		uxtb	r2, r3
 2252 01c8 40F20003 		movw	r3, #:lower16:cyPmBackup
 2253 01cc C0F20003 		movt	r3, #:upper16:cyPmBackup
 2254 01d0 5A77     		strb	r2, [r3, #29]
1554:.\Generated_Source\PSoC5/cyPm.c **** 
1555:.\Generated_Source\PSoC5/cyPm.c ****     cyPmBackup.scctData[21u]  = CY_GET_REG8(CYREG_SC3_SW0 );
 2255              		.loc 1 1555 0
 2256 01d2 45F63023 		movw	r3, #23088
 2257 01d6 C4F20003 		movt	r3, 16384
 2258 01da 1B78     		ldrb	r3, [r3, #0]
 2259 01dc DAB2     		uxtb	r2, r3
 2260 01de 40F20003 		movw	r3, #:lower16:cyPmBackup
 2261 01e2 C0F20003 		movt	r3, #:upper16:cyPmBackup
 2262 01e6 9A77     		strb	r2, [r3, #30]
1556:.\Generated_Source\PSoC5/cyPm.c ****     cyPmBackup.scctData[22u]  = CY_GET_REG8(CYREG_SC3_SW2 );
 2263              		.loc 1 1556 0
 2264 01e8 45F63223 		movw	r3, #23090
 2265 01ec C4F20003 		movt	r3, 16384
 2266 01f0 1B78     		ldrb	r3, [r3, #0]
 2267 01f2 DAB2     		uxtb	r2, r3
 2268 01f4 40F20003 		movw	r3, #:lower16:cyPmBackup
 2269 01f8 C0F20003 		movt	r3, #:upper16:cyPmBackup
 2270 01fc DA77     		strb	r2, [r3, #31]
1557:.\Generated_Source\PSoC5/cyPm.c ****     cyPmBackup.scctData[23u]  = CY_GET_REG8(CYREG_SC3_SW3 );
 2271              		.loc 1 1557 0
 2272 01fe 45F63323 		movw	r3, #23091
 2273 0202 C4F20003 		movt	r3, 16384
 2274 0206 1B78     		ldrb	r3, [r3, #0]
 2275 0208 DAB2     		uxtb	r2, r3
 2276 020a 40F20003 		movw	r3, #:lower16:cyPmBackup
 2277 020e C0F20003 		movt	r3, #:upper16:cyPmBackup
 2278 0212 83F82020 		strb	r2, [r3, #32]
1558:.\Generated_Source\PSoC5/cyPm.c ****     cyPmBackup.scctData[24u]  = CY_GET_REG8(CYREG_SC3_SW4 );
 2279              		.loc 1 1558 0
 2280 0216 45F63423 		movw	r3, #23092
 2281 021a C4F20003 		movt	r3, 16384
 2282 021e 1B78     		ldrb	r3, [r3, #0]
 2283 0220 DAB2     		uxtb	r2, r3
 2284 0222 40F20003 		movw	r3, #:lower16:cyPmBackup
 2285 0226 C0F20003 		movt	r3, #:upper16:cyPmBackup
 2286 022a 83F82120 		strb	r2, [r3, #33]
1559:.\Generated_Source\PSoC5/cyPm.c ****     cyPmBackup.scctData[25u]  = CY_GET_REG8(CYREG_SC3_SW6 );
 2287              		.loc 1 1559 0
ARM GAS  C:\Users\CHUCK~1.ERH\AppData\Local\Temp\cceT8Wjf.s 			page 69


 2288 022e 45F63623 		movw	r3, #23094
 2289 0232 C4F20003 		movt	r3, 16384
 2290 0236 1B78     		ldrb	r3, [r3, #0]
 2291 0238 DAB2     		uxtb	r2, r3
 2292 023a 40F20003 		movw	r3, #:lower16:cyPmBackup
 2293 023e C0F20003 		movt	r3, #:upper16:cyPmBackup
 2294 0242 83F82220 		strb	r2, [r3, #34]
1560:.\Generated_Source\PSoC5/cyPm.c ****     cyPmBackup.scctData[26u]  = CY_GET_REG8(CYREG_SC3_SW8 );
 2295              		.loc 1 1560 0
 2296 0246 45F63823 		movw	r3, #23096
 2297 024a C4F20003 		movt	r3, 16384
 2298 024e 1B78     		ldrb	r3, [r3, #0]
 2299 0250 DAB2     		uxtb	r2, r3
 2300 0252 40F20003 		movw	r3, #:lower16:cyPmBackup
 2301 0256 C0F20003 		movt	r3, #:upper16:cyPmBackup
 2302 025a 83F82320 		strb	r2, [r3, #35]
1561:.\Generated_Source\PSoC5/cyPm.c ****     cyPmBackup.scctData[27u]  = CY_GET_REG8(CYREG_SC3_SW10);
 2303              		.loc 1 1561 0
 2304 025e 45F63A23 		movw	r3, #23098
 2305 0262 C4F20003 		movt	r3, 16384
 2306 0266 1B78     		ldrb	r3, [r3, #0]
 2307 0268 DAB2     		uxtb	r2, r3
 2308 026a 40F20003 		movw	r3, #:lower16:cyPmBackup
 2309 026e C0F20003 		movt	r3, #:upper16:cyPmBackup
 2310 0272 83F82420 		strb	r2, [r3, #36]
1562:.\Generated_Source\PSoC5/cyPm.c **** 
1563:.\Generated_Source\PSoC5/cyPm.c ****     CY_SET_REG8(CYREG_SC0_SW0 , 0u);
 2311              		.loc 1 1563 0
 2312 0276 4FF4B443 		mov	r3, #23040
 2313 027a C4F20003 		movt	r3, 16384
 2314 027e 4FF00002 		mov	r2, #0
 2315 0282 1A70     		strb	r2, [r3, #0]
1564:.\Generated_Source\PSoC5/cyPm.c ****     CY_SET_REG8(CYREG_SC0_SW2 , 0u);
 2316              		.loc 1 1564 0
 2317 0284 45F60223 		movw	r3, #23042
 2318 0288 C4F20003 		movt	r3, 16384
 2319 028c 4FF00002 		mov	r2, #0
 2320 0290 1A70     		strb	r2, [r3, #0]
1565:.\Generated_Source\PSoC5/cyPm.c ****     CY_SET_REG8(CYREG_SC0_SW3 , 0u);
 2321              		.loc 1 1565 0
 2322 0292 45F60323 		movw	r3, #23043
 2323 0296 C4F20003 		movt	r3, 16384
 2324 029a 4FF00002 		mov	r2, #0
 2325 029e 1A70     		strb	r2, [r3, #0]
1566:.\Generated_Source\PSoC5/cyPm.c ****     CY_SET_REG8(CYREG_SC0_SW4 , 0u);
 2326              		.loc 1 1566 0
 2327 02a0 45F60423 		movw	r3, #23044
 2328 02a4 C4F20003 		movt	r3, 16384
 2329 02a8 4FF00002 		mov	r2, #0
 2330 02ac 1A70     		strb	r2, [r3, #0]
1567:.\Generated_Source\PSoC5/cyPm.c ****     CY_SET_REG8(CYREG_SC0_SW6 , 0u);
 2331              		.loc 1 1567 0
 2332 02ae 45F60623 		movw	r3, #23046
 2333 02b2 C4F20003 		movt	r3, 16384
 2334 02b6 4FF00002 		mov	r2, #0
 2335 02ba 1A70     		strb	r2, [r3, #0]
1568:.\Generated_Source\PSoC5/cyPm.c ****     CY_SET_REG8(CYREG_SC0_SW8 , 0u);
ARM GAS  C:\Users\CHUCK~1.ERH\AppData\Local\Temp\cceT8Wjf.s 			page 70


 2336              		.loc 1 1568 0
 2337 02bc 45F60823 		movw	r3, #23048
 2338 02c0 C4F20003 		movt	r3, 16384
 2339 02c4 4FF00002 		mov	r2, #0
 2340 02c8 1A70     		strb	r2, [r3, #0]
1569:.\Generated_Source\PSoC5/cyPm.c ****     CY_SET_REG8(CYREG_SC0_SW10, 0u);
 2341              		.loc 1 1569 0
 2342 02ca 45F60A23 		movw	r3, #23050
 2343 02ce C4F20003 		movt	r3, 16384
 2344 02d2 4FF00002 		mov	r2, #0
 2345 02d6 1A70     		strb	r2, [r3, #0]
1570:.\Generated_Source\PSoC5/cyPm.c **** 
1571:.\Generated_Source\PSoC5/cyPm.c ****     CY_SET_REG8(CYREG_SC1_SW0 , 0u);
 2346              		.loc 1 1571 0
 2347 02d8 45F61023 		movw	r3, #23056
 2348 02dc C4F20003 		movt	r3, 16384
 2349 02e0 4FF00002 		mov	r2, #0
 2350 02e4 1A70     		strb	r2, [r3, #0]
1572:.\Generated_Source\PSoC5/cyPm.c ****     CY_SET_REG8(CYREG_SC1_SW2 , 0u);
 2351              		.loc 1 1572 0
 2352 02e6 45F61223 		movw	r3, #23058
 2353 02ea C4F20003 		movt	r3, 16384
 2354 02ee 4FF00002 		mov	r2, #0
 2355 02f2 1A70     		strb	r2, [r3, #0]
1573:.\Generated_Source\PSoC5/cyPm.c ****     CY_SET_REG8(CYREG_SC1_SW3 , 0u);
 2356              		.loc 1 1573 0
 2357 02f4 45F61323 		movw	r3, #23059
 2358 02f8 C4F20003 		movt	r3, 16384
 2359 02fc 4FF00002 		mov	r2, #0
 2360 0300 1A70     		strb	r2, [r3, #0]
1574:.\Generated_Source\PSoC5/cyPm.c ****     CY_SET_REG8(CYREG_SC1_SW4 , 0u);
 2361              		.loc 1 1574 0
 2362 0302 45F61423 		movw	r3, #23060
 2363 0306 C4F20003 		movt	r3, 16384
 2364 030a 4FF00002 		mov	r2, #0
 2365 030e 1A70     		strb	r2, [r3, #0]
1575:.\Generated_Source\PSoC5/cyPm.c ****     CY_SET_REG8(CYREG_SC1_SW6 , 0u);
 2366              		.loc 1 1575 0
 2367 0310 45F61623 		movw	r3, #23062
 2368 0314 C4F20003 		movt	r3, 16384
 2369 0318 4FF00002 		mov	r2, #0
 2370 031c 1A70     		strb	r2, [r3, #0]
1576:.\Generated_Source\PSoC5/cyPm.c ****     CY_SET_REG8(CYREG_SC1_SW8 , 0u);
 2371              		.loc 1 1576 0
 2372 031e 45F61823 		movw	r3, #23064
 2373 0322 C4F20003 		movt	r3, 16384
 2374 0326 4FF00002 		mov	r2, #0
 2375 032a 1A70     		strb	r2, [r3, #0]
1577:.\Generated_Source\PSoC5/cyPm.c ****     CY_SET_REG8(CYREG_SC1_SW10, 0u);
 2376              		.loc 1 1577 0
 2377 032c 45F61A23 		movw	r3, #23066
 2378 0330 C4F20003 		movt	r3, 16384
 2379 0334 4FF00002 		mov	r2, #0
 2380 0338 1A70     		strb	r2, [r3, #0]
1578:.\Generated_Source\PSoC5/cyPm.c **** 
1579:.\Generated_Source\PSoC5/cyPm.c ****     CY_SET_REG8(CYREG_SC2_SW0 , 0u);
 2381              		.loc 1 1579 0
ARM GAS  C:\Users\CHUCK~1.ERH\AppData\Local\Temp\cceT8Wjf.s 			page 71


 2382 033a 45F62023 		movw	r3, #23072
 2383 033e C4F20003 		movt	r3, 16384
 2384 0342 4FF00002 		mov	r2, #0
 2385 0346 1A70     		strb	r2, [r3, #0]
1580:.\Generated_Source\PSoC5/cyPm.c ****     CY_SET_REG8(CYREG_SC2_SW2 , 0u);
 2386              		.loc 1 1580 0
 2387 0348 45F62223 		movw	r3, #23074
 2388 034c C4F20003 		movt	r3, 16384
 2389 0350 4FF00002 		mov	r2, #0
 2390 0354 1A70     		strb	r2, [r3, #0]
1581:.\Generated_Source\PSoC5/cyPm.c ****     CY_SET_REG8(CYREG_SC2_SW3 , 0u);
 2391              		.loc 1 1581 0
 2392 0356 45F62323 		movw	r3, #23075
 2393 035a C4F20003 		movt	r3, 16384
 2394 035e 4FF00002 		mov	r2, #0
 2395 0362 1A70     		strb	r2, [r3, #0]
1582:.\Generated_Source\PSoC5/cyPm.c ****     CY_SET_REG8(CYREG_SC2_SW4 , 0u);
 2396              		.loc 1 1582 0
 2397 0364 45F62423 		movw	r3, #23076
 2398 0368 C4F20003 		movt	r3, 16384
 2399 036c 4FF00002 		mov	r2, #0
 2400 0370 1A70     		strb	r2, [r3, #0]
1583:.\Generated_Source\PSoC5/cyPm.c ****     CY_SET_REG8(CYREG_SC2_SW6 , 0u);
 2401              		.loc 1 1583 0
 2402 0372 45F62623 		movw	r3, #23078
 2403 0376 C4F20003 		movt	r3, 16384
 2404 037a 4FF00002 		mov	r2, #0
 2405 037e 1A70     		strb	r2, [r3, #0]
1584:.\Generated_Source\PSoC5/cyPm.c ****     CY_SET_REG8(CYREG_SC2_SW8 , 0u);
 2406              		.loc 1 1584 0
 2407 0380 45F62823 		movw	r3, #23080
 2408 0384 C4F20003 		movt	r3, 16384
 2409 0388 4FF00002 		mov	r2, #0
 2410 038c 1A70     		strb	r2, [r3, #0]
1585:.\Generated_Source\PSoC5/cyPm.c ****     CY_SET_REG8(CYREG_SC2_SW10, 0u);
 2411              		.loc 1 1585 0
 2412 038e 45F62A23 		movw	r3, #23082
 2413 0392 C4F20003 		movt	r3, 16384
 2414 0396 4FF00002 		mov	r2, #0
 2415 039a 1A70     		strb	r2, [r3, #0]
1586:.\Generated_Source\PSoC5/cyPm.c **** 
1587:.\Generated_Source\PSoC5/cyPm.c ****     CY_SET_REG8(CYREG_SC3_SW0 , 0u);
 2416              		.loc 1 1587 0
 2417 039c 45F63023 		movw	r3, #23088
 2418 03a0 C4F20003 		movt	r3, 16384
 2419 03a4 4FF00002 		mov	r2, #0
 2420 03a8 1A70     		strb	r2, [r3, #0]
1588:.\Generated_Source\PSoC5/cyPm.c ****     CY_SET_REG8(CYREG_SC3_SW2 , 0u);
 2421              		.loc 1 1588 0
 2422 03aa 45F63223 		movw	r3, #23090
 2423 03ae C4F20003 		movt	r3, 16384
 2424 03b2 4FF00002 		mov	r2, #0
 2425 03b6 1A70     		strb	r2, [r3, #0]
1589:.\Generated_Source\PSoC5/cyPm.c ****     CY_SET_REG8(CYREG_SC3_SW3 , 0u);
 2426              		.loc 1 1589 0
 2427 03b8 45F63323 		movw	r3, #23091
 2428 03bc C4F20003 		movt	r3, 16384
ARM GAS  C:\Users\CHUCK~1.ERH\AppData\Local\Temp\cceT8Wjf.s 			page 72


 2429 03c0 4FF00002 		mov	r2, #0
 2430 03c4 1A70     		strb	r2, [r3, #0]
1590:.\Generated_Source\PSoC5/cyPm.c ****     CY_SET_REG8(CYREG_SC3_SW4 , 0u);
 2431              		.loc 1 1590 0
 2432 03c6 45F63423 		movw	r3, #23092
 2433 03ca C4F20003 		movt	r3, 16384
 2434 03ce 4FF00002 		mov	r2, #0
 2435 03d2 1A70     		strb	r2, [r3, #0]
1591:.\Generated_Source\PSoC5/cyPm.c ****     CY_SET_REG8(CYREG_SC3_SW6 , 0u);
 2436              		.loc 1 1591 0
 2437 03d4 45F63623 		movw	r3, #23094
 2438 03d8 C4F20003 		movt	r3, 16384
 2439 03dc 4FF00002 		mov	r2, #0
 2440 03e0 1A70     		strb	r2, [r3, #0]
1592:.\Generated_Source\PSoC5/cyPm.c ****     CY_SET_REG8(CYREG_SC3_SW8 , 0u);
 2441              		.loc 1 1592 0
 2442 03e2 45F63823 		movw	r3, #23096
 2443 03e6 C4F20003 		movt	r3, 16384
 2444 03ea 4FF00002 		mov	r2, #0
 2445 03ee 1A70     		strb	r2, [r3, #0]
1593:.\Generated_Source\PSoC5/cyPm.c ****     CY_SET_REG8(CYREG_SC3_SW10, 0u);
 2446              		.loc 1 1593 0
 2447 03f0 45F63A23 		movw	r3, #23098
 2448 03f4 C4F20003 		movt	r3, 16384
 2449 03f8 4FF00002 		mov	r2, #0
 2450 03fc 1A70     		strb	r2, [r3, #0]
1594:.\Generated_Source\PSoC5/cyPm.c **** 
1595:.\Generated_Source\PSoC5/cyPm.c **** 
1596:.\Generated_Source\PSoC5/cyPm.c ****     #if(CY_PSOC3)
1597:.\Generated_Source\PSoC5/cyPm.c **** 
1598:.\Generated_Source\PSoC5/cyPm.c ****         /* Serial Wire Viewer (SWV) workaround */
1599:.\Generated_Source\PSoC5/cyPm.c **** 
1600:.\Generated_Source\PSoC5/cyPm.c ****         /* Disable SWV before entering low power mode */
1601:.\Generated_Source\PSoC5/cyPm.c ****         if(0u != (CY_PM_MLOGIC_DBG_REG & CY_PM_MLOGIC_DBG_SWV_CLK_EN))
1602:.\Generated_Source\PSoC5/cyPm.c ****         {
1603:.\Generated_Source\PSoC5/cyPm.c ****             /* Save SWV clock enabled state */
1604:.\Generated_Source\PSoC5/cyPm.c ****             cyPmBackup.swvClkEnabled = CY_PM_ENABLED;
1605:.\Generated_Source\PSoC5/cyPm.c **** 
1606:.\Generated_Source\PSoC5/cyPm.c ****             /* Save current ports drive mode settings */
1607:.\Generated_Source\PSoC5/cyPm.c ****             cyPmBackup.prt1Dm = CY_PM_PRT1_PC3_REG & ((uint8)(~CY_PM_PRT1_PC3_DM_MASK));
1608:.\Generated_Source\PSoC5/cyPm.c **** 
1609:.\Generated_Source\PSoC5/cyPm.c ****             /* Set drive mode to strong output */
1610:.\Generated_Source\PSoC5/cyPm.c ****             CY_PM_PRT1_PC3_REG = (CY_PM_PRT1_PC3_REG & CY_PM_PRT1_PC3_DM_MASK) |
1611:.\Generated_Source\PSoC5/cyPm.c ****                                 CY_PM_PRT1_PC3_DM_STRONG;
1612:.\Generated_Source\PSoC5/cyPm.c **** 
1613:.\Generated_Source\PSoC5/cyPm.c ****             /* Disable SWV clocks */
1614:.\Generated_Source\PSoC5/cyPm.c ****             CY_PM_MLOGIC_DBG_REG &= ((uint8)(~CY_PM_MLOGIC_DBG_SWV_CLK_EN));
1615:.\Generated_Source\PSoC5/cyPm.c ****         }
1616:.\Generated_Source\PSoC5/cyPm.c ****         else
1617:.\Generated_Source\PSoC5/cyPm.c ****         {
1618:.\Generated_Source\PSoC5/cyPm.c ****             /* Save SWV clock disabled state */
1619:.\Generated_Source\PSoC5/cyPm.c ****             cyPmBackup.swvClkEnabled = CY_PM_DISABLED;
1620:.\Generated_Source\PSoC5/cyPm.c ****         }
1621:.\Generated_Source\PSoC5/cyPm.c **** 
1622:.\Generated_Source\PSoC5/cyPm.c ****     #endif  /* (CY_PSOC3) */
1623:.\Generated_Source\PSoC5/cyPm.c **** 
1624:.\Generated_Source\PSoC5/cyPm.c **** 
ARM GAS  C:\Users\CHUCK~1.ERH\AppData\Local\Temp\cceT8Wjf.s 			page 73


1625:.\Generated_Source\PSoC5/cyPm.c ****     /***************************************************************************
1626:.\Generated_Source\PSoC5/cyPm.c ****     * Save boost reference and set it to boost's internal by clearing the bit.
1627:.\Generated_Source\PSoC5/cyPm.c ****     * External (chip bandgap) reference is not available in Sleep and Hibernate.
1628:.\Generated_Source\PSoC5/cyPm.c ****     ***************************************************************************/
1629:.\Generated_Source\PSoC5/cyPm.c ****     if(0u != (CY_PM_BOOST_CR2_REG & CY_PM_BOOST_CR2_EREFSEL_EXT))
 2451              		.loc 1 1629 0
 2452 03fe 44F22233 		movw	r3, #17186
 2453 0402 C4F20003 		movt	r3, 16384
 2454 0406 1B78     		ldrb	r3, [r3, #0]
 2455 0408 DBB2     		uxtb	r3, r3
 2456 040a 03F00803 		and	r3, r3, #8
 2457 040e 002B     		cmp	r3, #0
 2458 0410 16D0     		beq	.L82
1630:.\Generated_Source\PSoC5/cyPm.c ****     {
1631:.\Generated_Source\PSoC5/cyPm.c ****         cyPmBackup.boostRefExt = CY_PM_ENABLED;
 2459              		.loc 1 1631 0
 2460 0412 40F20003 		movw	r3, #:lower16:cyPmBackup
 2461 0416 C0F20003 		movt	r3, #:upper16:cyPmBackup
 2462 041a 4FF00102 		mov	r2, #1
 2463 041e 83F82E20 		strb	r2, [r3, #46]
1632:.\Generated_Source\PSoC5/cyPm.c ****         CY_PM_BOOST_CR2_REG &= ((uint8)(~CY_PM_BOOST_CR2_EREFSEL_EXT));
 2464              		.loc 1 1632 0
 2465 0422 44F22233 		movw	r3, #17186
 2466 0426 C4F20003 		movt	r3, 16384
 2467 042a 44F22232 		movw	r2, #17186
 2468 042e C4F20002 		movt	r2, 16384
 2469 0432 1278     		ldrb	r2, [r2, #0]
 2470 0434 D2B2     		uxtb	r2, r2
 2471 0436 22F00802 		bic	r2, r2, #8
 2472 043a D2B2     		uxtb	r2, r2
 2473 043c 1A70     		strb	r2, [r3, #0]
 2474 043e 07E0     		b	.L81
 2475              	.L82:
1633:.\Generated_Source\PSoC5/cyPm.c ****     }
1634:.\Generated_Source\PSoC5/cyPm.c ****     else
1635:.\Generated_Source\PSoC5/cyPm.c ****     {
1636:.\Generated_Source\PSoC5/cyPm.c ****         cyPmBackup.boostRefExt = CY_PM_DISABLED;
 2476              		.loc 1 1636 0
 2477 0440 40F20003 		movw	r3, #:lower16:cyPmBackup
 2478 0444 C0F20003 		movt	r3, #:upper16:cyPmBackup
 2479 0448 4FF00002 		mov	r2, #0
 2480 044c 83F82E20 		strb	r2, [r3, #46]
 2481              	.L81:
1637:.\Generated_Source\PSoC5/cyPm.c ****     }
1638:.\Generated_Source\PSoC5/cyPm.c **** }
 2482              		.loc 1 1638 0
 2483 0450 BD46     		mov	sp, r7
 2484 0452 80BC     		pop	{r7}
 2485 0454 7047     		bx	lr
 2486              		.cfi_endproc
 2487              	.LFE11:
 2488              		.size	CyPmHibSlpSaveSet, .-CyPmHibSlpSaveSet
 2489 0456 00BF     		.section	.text.CyPmHibSlpRestore,"ax",%progbits
 2490              		.align	2
 2491              		.thumb
 2492              		.thumb_func
 2493              		.type	CyPmHibSlpRestore, %function
ARM GAS  C:\Users\CHUCK~1.ERH\AppData\Local\Temp\cceT8Wjf.s 			page 74


 2494              	CyPmHibSlpRestore:
 2495              	.LFB12:
1639:.\Generated_Source\PSoC5/cyPm.c **** 
1640:.\Generated_Source\PSoC5/cyPm.c **** 
1641:.\Generated_Source\PSoC5/cyPm.c **** /*******************************************************************************
1642:.\Generated_Source\PSoC5/cyPm.c **** * Function Name: CyPmHibSlpRestore
1643:.\Generated_Source\PSoC5/cyPm.c **** ********************************************************************************
1644:.\Generated_Source\PSoC5/cyPm.c **** *
1645:.\Generated_Source\PSoC5/cyPm.c **** * Summary:
1646:.\Generated_Source\PSoC5/cyPm.c **** *  This API is used for restoring device configurations after wakeup from Sleep
1647:.\Generated_Source\PSoC5/cyPm.c **** *  and Hibernate low power modes:
1648:.\Generated_Source\PSoC5/cyPm.c **** *  - Restores SC/CT routing connections
1649:.\Generated_Source\PSoC5/cyPm.c **** *  - Restores enable state of Serial Wire Viewer (SWV) (PSoC 3)
1650:.\Generated_Source\PSoC5/cyPm.c **** *  - Restore boost reference selection
1651:.\Generated_Source\PSoC5/cyPm.c **** *
1652:.\Generated_Source\PSoC5/cyPm.c **** * Parameters:
1653:.\Generated_Source\PSoC5/cyPm.c **** *  None
1654:.\Generated_Source\PSoC5/cyPm.c **** *
1655:.\Generated_Source\PSoC5/cyPm.c **** * Return:
1656:.\Generated_Source\PSoC5/cyPm.c **** *  None
1657:.\Generated_Source\PSoC5/cyPm.c **** *
1658:.\Generated_Source\PSoC5/cyPm.c **** *******************************************************************************/
1659:.\Generated_Source\PSoC5/cyPm.c **** static void CyPmHibSlpRestore(void) 
1660:.\Generated_Source\PSoC5/cyPm.c **** {
 2496              		.loc 1 1660 0
 2497              		.cfi_startproc
 2498              		@ args = 0, pretend = 0, frame = 0
 2499              		@ frame_needed = 1, uses_anonymous_args = 0
 2500              		@ link register save eliminated.
 2501 0000 80B4     		push	{r7}
 2502              	.LCFI31:
 2503              		.cfi_def_cfa_offset 4
 2504              		.cfi_offset 7, -4
 2505 0002 00AF     		add	r7, sp, #0
 2506              	.LCFI32:
 2507              		.cfi_def_cfa_register 7
1661:.\Generated_Source\PSoC5/cyPm.c ****     /* Restore SC/CT routing registers */
1662:.\Generated_Source\PSoC5/cyPm.c ****     CY_SET_REG8(CYREG_SC0_SW0 , cyPmBackup.scctData[0u] );
 2508              		.loc 1 1662 0
 2509 0004 4FF4B443 		mov	r3, #23040
 2510 0008 C4F20003 		movt	r3, 16384
 2511 000c 40F20002 		movw	r2, #:lower16:cyPmBackup
 2512 0010 C0F20002 		movt	r2, #:upper16:cyPmBackup
 2513 0014 527A     		ldrb	r2, [r2, #9]	@ zero_extendqisi2
 2514 0016 1A70     		strb	r2, [r3, #0]
1663:.\Generated_Source\PSoC5/cyPm.c ****     CY_SET_REG8(CYREG_SC0_SW2 , cyPmBackup.scctData[1u] );
 2515              		.loc 1 1663 0
 2516 0018 45F60223 		movw	r3, #23042
 2517 001c C4F20003 		movt	r3, 16384
 2518 0020 40F20002 		movw	r2, #:lower16:cyPmBackup
 2519 0024 C0F20002 		movt	r2, #:upper16:cyPmBackup
 2520 0028 927A     		ldrb	r2, [r2, #10]	@ zero_extendqisi2
 2521 002a 1A70     		strb	r2, [r3, #0]
1664:.\Generated_Source\PSoC5/cyPm.c ****     CY_SET_REG8(CYREG_SC0_SW3 , cyPmBackup.scctData[2u] );
 2522              		.loc 1 1664 0
 2523 002c 45F60323 		movw	r3, #23043
 2524 0030 C4F20003 		movt	r3, 16384
ARM GAS  C:\Users\CHUCK~1.ERH\AppData\Local\Temp\cceT8Wjf.s 			page 75


 2525 0034 40F20002 		movw	r2, #:lower16:cyPmBackup
 2526 0038 C0F20002 		movt	r2, #:upper16:cyPmBackup
 2527 003c D27A     		ldrb	r2, [r2, #11]	@ zero_extendqisi2
 2528 003e 1A70     		strb	r2, [r3, #0]
1665:.\Generated_Source\PSoC5/cyPm.c ****     CY_SET_REG8(CYREG_SC0_SW4 , cyPmBackup.scctData[3u] );
 2529              		.loc 1 1665 0
 2530 0040 45F60423 		movw	r3, #23044
 2531 0044 C4F20003 		movt	r3, 16384
 2532 0048 40F20002 		movw	r2, #:lower16:cyPmBackup
 2533 004c C0F20002 		movt	r2, #:upper16:cyPmBackup
 2534 0050 127B     		ldrb	r2, [r2, #12]	@ zero_extendqisi2
 2535 0052 1A70     		strb	r2, [r3, #0]
1666:.\Generated_Source\PSoC5/cyPm.c ****     CY_SET_REG8(CYREG_SC0_SW6 , cyPmBackup.scctData[4u] );
 2536              		.loc 1 1666 0
 2537 0054 45F60623 		movw	r3, #23046
 2538 0058 C4F20003 		movt	r3, 16384
 2539 005c 40F20002 		movw	r2, #:lower16:cyPmBackup
 2540 0060 C0F20002 		movt	r2, #:upper16:cyPmBackup
 2541 0064 527B     		ldrb	r2, [r2, #13]	@ zero_extendqisi2
 2542 0066 1A70     		strb	r2, [r3, #0]
1667:.\Generated_Source\PSoC5/cyPm.c ****     CY_SET_REG8(CYREG_SC0_SW8 , cyPmBackup.scctData[5u] );
 2543              		.loc 1 1667 0
 2544 0068 45F60823 		movw	r3, #23048
 2545 006c C4F20003 		movt	r3, 16384
 2546 0070 40F20002 		movw	r2, #:lower16:cyPmBackup
 2547 0074 C0F20002 		movt	r2, #:upper16:cyPmBackup
 2548 0078 927B     		ldrb	r2, [r2, #14]	@ zero_extendqisi2
 2549 007a 1A70     		strb	r2, [r3, #0]
1668:.\Generated_Source\PSoC5/cyPm.c ****     CY_SET_REG8(CYREG_SC0_SW10, cyPmBackup.scctData[6u] );
 2550              		.loc 1 1668 0
 2551 007c 45F60A23 		movw	r3, #23050
 2552 0080 C4F20003 		movt	r3, 16384
 2553 0084 40F20002 		movw	r2, #:lower16:cyPmBackup
 2554 0088 C0F20002 		movt	r2, #:upper16:cyPmBackup
 2555 008c D27B     		ldrb	r2, [r2, #15]	@ zero_extendqisi2
 2556 008e 1A70     		strb	r2, [r3, #0]
1669:.\Generated_Source\PSoC5/cyPm.c **** 
1670:.\Generated_Source\PSoC5/cyPm.c ****     CY_SET_REG8(CYREG_SC1_SW0 , cyPmBackup.scctData[7u] );
 2557              		.loc 1 1670 0
 2558 0090 45F61023 		movw	r3, #23056
 2559 0094 C4F20003 		movt	r3, 16384
 2560 0098 40F20002 		movw	r2, #:lower16:cyPmBackup
 2561 009c C0F20002 		movt	r2, #:upper16:cyPmBackup
 2562 00a0 127C     		ldrb	r2, [r2, #16]	@ zero_extendqisi2
 2563 00a2 1A70     		strb	r2, [r3, #0]
1671:.\Generated_Source\PSoC5/cyPm.c ****     CY_SET_REG8(CYREG_SC1_SW2 , cyPmBackup.scctData[8u] );
 2564              		.loc 1 1671 0
 2565 00a4 45F61223 		movw	r3, #23058
 2566 00a8 C4F20003 		movt	r3, 16384
 2567 00ac 40F20002 		movw	r2, #:lower16:cyPmBackup
 2568 00b0 C0F20002 		movt	r2, #:upper16:cyPmBackup
 2569 00b4 527C     		ldrb	r2, [r2, #17]	@ zero_extendqisi2
 2570 00b6 1A70     		strb	r2, [r3, #0]
1672:.\Generated_Source\PSoC5/cyPm.c ****     CY_SET_REG8(CYREG_SC1_SW3 , cyPmBackup.scctData[9u] );
 2571              		.loc 1 1672 0
 2572 00b8 45F61323 		movw	r3, #23059
 2573 00bc C4F20003 		movt	r3, 16384
ARM GAS  C:\Users\CHUCK~1.ERH\AppData\Local\Temp\cceT8Wjf.s 			page 76


 2574 00c0 40F20002 		movw	r2, #:lower16:cyPmBackup
 2575 00c4 C0F20002 		movt	r2, #:upper16:cyPmBackup
 2576 00c8 927C     		ldrb	r2, [r2, #18]	@ zero_extendqisi2
 2577 00ca 1A70     		strb	r2, [r3, #0]
1673:.\Generated_Source\PSoC5/cyPm.c ****     CY_SET_REG8(CYREG_SC1_SW4 , cyPmBackup.scctData[10u]);
 2578              		.loc 1 1673 0
 2579 00cc 45F61423 		movw	r3, #23060
 2580 00d0 C4F20003 		movt	r3, 16384
 2581 00d4 40F20002 		movw	r2, #:lower16:cyPmBackup
 2582 00d8 C0F20002 		movt	r2, #:upper16:cyPmBackup
 2583 00dc D27C     		ldrb	r2, [r2, #19]	@ zero_extendqisi2
 2584 00de 1A70     		strb	r2, [r3, #0]
1674:.\Generated_Source\PSoC5/cyPm.c ****     CY_SET_REG8(CYREG_SC1_SW6 , cyPmBackup.scctData[11u]);
 2585              		.loc 1 1674 0
 2586 00e0 45F61623 		movw	r3, #23062
 2587 00e4 C4F20003 		movt	r3, 16384
 2588 00e8 40F20002 		movw	r2, #:lower16:cyPmBackup
 2589 00ec C0F20002 		movt	r2, #:upper16:cyPmBackup
 2590 00f0 127D     		ldrb	r2, [r2, #20]	@ zero_extendqisi2
 2591 00f2 1A70     		strb	r2, [r3, #0]
1675:.\Generated_Source\PSoC5/cyPm.c ****     CY_SET_REG8(CYREG_SC1_SW8 , cyPmBackup.scctData[12u]);
 2592              		.loc 1 1675 0
 2593 00f4 45F61823 		movw	r3, #23064
 2594 00f8 C4F20003 		movt	r3, 16384
 2595 00fc 40F20002 		movw	r2, #:lower16:cyPmBackup
 2596 0100 C0F20002 		movt	r2, #:upper16:cyPmBackup
 2597 0104 527D     		ldrb	r2, [r2, #21]	@ zero_extendqisi2
 2598 0106 1A70     		strb	r2, [r3, #0]
1676:.\Generated_Source\PSoC5/cyPm.c ****     CY_SET_REG8(CYREG_SC1_SW10, cyPmBackup.scctData[13u]);
 2599              		.loc 1 1676 0
 2600 0108 45F61A23 		movw	r3, #23066
 2601 010c C4F20003 		movt	r3, 16384
 2602 0110 40F20002 		movw	r2, #:lower16:cyPmBackup
 2603 0114 C0F20002 		movt	r2, #:upper16:cyPmBackup
 2604 0118 927D     		ldrb	r2, [r2, #22]	@ zero_extendqisi2
 2605 011a 1A70     		strb	r2, [r3, #0]
1677:.\Generated_Source\PSoC5/cyPm.c **** 
1678:.\Generated_Source\PSoC5/cyPm.c ****     CY_SET_REG8(CYREG_SC2_SW0 , cyPmBackup.scctData[14u]);
 2606              		.loc 1 1678 0
 2607 011c 45F62023 		movw	r3, #23072
 2608 0120 C4F20003 		movt	r3, 16384
 2609 0124 40F20002 		movw	r2, #:lower16:cyPmBackup
 2610 0128 C0F20002 		movt	r2, #:upper16:cyPmBackup
 2611 012c D27D     		ldrb	r2, [r2, #23]	@ zero_extendqisi2
 2612 012e 1A70     		strb	r2, [r3, #0]
1679:.\Generated_Source\PSoC5/cyPm.c ****     CY_SET_REG8(CYREG_SC2_SW2 , cyPmBackup.scctData[15u]);
 2613              		.loc 1 1679 0
 2614 0130 45F62223 		movw	r3, #23074
 2615 0134 C4F20003 		movt	r3, 16384
 2616 0138 40F20002 		movw	r2, #:lower16:cyPmBackup
 2617 013c C0F20002 		movt	r2, #:upper16:cyPmBackup
 2618 0140 127E     		ldrb	r2, [r2, #24]	@ zero_extendqisi2
 2619 0142 1A70     		strb	r2, [r3, #0]
1680:.\Generated_Source\PSoC5/cyPm.c ****     CY_SET_REG8(CYREG_SC2_SW3 , cyPmBackup.scctData[16u]);
 2620              		.loc 1 1680 0
 2621 0144 45F62323 		movw	r3, #23075
 2622 0148 C4F20003 		movt	r3, 16384
ARM GAS  C:\Users\CHUCK~1.ERH\AppData\Local\Temp\cceT8Wjf.s 			page 77


 2623 014c 40F20002 		movw	r2, #:lower16:cyPmBackup
 2624 0150 C0F20002 		movt	r2, #:upper16:cyPmBackup
 2625 0154 527E     		ldrb	r2, [r2, #25]	@ zero_extendqisi2
 2626 0156 1A70     		strb	r2, [r3, #0]
1681:.\Generated_Source\PSoC5/cyPm.c ****     CY_SET_REG8(CYREG_SC2_SW4 , cyPmBackup.scctData[17u]);
 2627              		.loc 1 1681 0
 2628 0158 45F62423 		movw	r3, #23076
 2629 015c C4F20003 		movt	r3, 16384
 2630 0160 40F20002 		movw	r2, #:lower16:cyPmBackup
 2631 0164 C0F20002 		movt	r2, #:upper16:cyPmBackup
 2632 0168 927E     		ldrb	r2, [r2, #26]	@ zero_extendqisi2
 2633 016a 1A70     		strb	r2, [r3, #0]
1682:.\Generated_Source\PSoC5/cyPm.c ****     CY_SET_REG8(CYREG_SC2_SW6 , cyPmBackup.scctData[18u]);
 2634              		.loc 1 1682 0
 2635 016c 45F62623 		movw	r3, #23078
 2636 0170 C4F20003 		movt	r3, 16384
 2637 0174 40F20002 		movw	r2, #:lower16:cyPmBackup
 2638 0178 C0F20002 		movt	r2, #:upper16:cyPmBackup
 2639 017c D27E     		ldrb	r2, [r2, #27]	@ zero_extendqisi2
 2640 017e 1A70     		strb	r2, [r3, #0]
1683:.\Generated_Source\PSoC5/cyPm.c ****     CY_SET_REG8(CYREG_SC2_SW8 , cyPmBackup.scctData[19u]);
 2641              		.loc 1 1683 0
 2642 0180 45F62823 		movw	r3, #23080
 2643 0184 C4F20003 		movt	r3, 16384
 2644 0188 40F20002 		movw	r2, #:lower16:cyPmBackup
 2645 018c C0F20002 		movt	r2, #:upper16:cyPmBackup
 2646 0190 127F     		ldrb	r2, [r2, #28]	@ zero_extendqisi2
 2647 0192 1A70     		strb	r2, [r3, #0]
1684:.\Generated_Source\PSoC5/cyPm.c ****     CY_SET_REG8(CYREG_SC2_SW10, cyPmBackup.scctData[20u]);
 2648              		.loc 1 1684 0
 2649 0194 45F62A23 		movw	r3, #23082
 2650 0198 C4F20003 		movt	r3, 16384
 2651 019c 40F20002 		movw	r2, #:lower16:cyPmBackup
 2652 01a0 C0F20002 		movt	r2, #:upper16:cyPmBackup
 2653 01a4 527F     		ldrb	r2, [r2, #29]	@ zero_extendqisi2
 2654 01a6 1A70     		strb	r2, [r3, #0]
1685:.\Generated_Source\PSoC5/cyPm.c **** 
1686:.\Generated_Source\PSoC5/cyPm.c ****     CY_SET_REG8(CYREG_SC3_SW0 , cyPmBackup.scctData[21u]);
 2655              		.loc 1 1686 0
 2656 01a8 45F63023 		movw	r3, #23088
 2657 01ac C4F20003 		movt	r3, 16384
 2658 01b0 40F20002 		movw	r2, #:lower16:cyPmBackup
 2659 01b4 C0F20002 		movt	r2, #:upper16:cyPmBackup
 2660 01b8 927F     		ldrb	r2, [r2, #30]	@ zero_extendqisi2
 2661 01ba 1A70     		strb	r2, [r3, #0]
1687:.\Generated_Source\PSoC5/cyPm.c ****     CY_SET_REG8(CYREG_SC3_SW2 , cyPmBackup.scctData[22u]);
 2662              		.loc 1 1687 0
 2663 01bc 45F63223 		movw	r3, #23090
 2664 01c0 C4F20003 		movt	r3, 16384
 2665 01c4 40F20002 		movw	r2, #:lower16:cyPmBackup
 2666 01c8 C0F20002 		movt	r2, #:upper16:cyPmBackup
 2667 01cc D27F     		ldrb	r2, [r2, #31]	@ zero_extendqisi2
 2668 01ce 1A70     		strb	r2, [r3, #0]
1688:.\Generated_Source\PSoC5/cyPm.c ****     CY_SET_REG8(CYREG_SC3_SW3 , cyPmBackup.scctData[23u]);
 2669              		.loc 1 1688 0
 2670 01d0 45F63323 		movw	r3, #23091
 2671 01d4 C4F20003 		movt	r3, 16384
ARM GAS  C:\Users\CHUCK~1.ERH\AppData\Local\Temp\cceT8Wjf.s 			page 78


 2672 01d8 40F20002 		movw	r2, #:lower16:cyPmBackup
 2673 01dc C0F20002 		movt	r2, #:upper16:cyPmBackup
 2674 01e0 92F82020 		ldrb	r2, [r2, #32]	@ zero_extendqisi2
 2675 01e4 1A70     		strb	r2, [r3, #0]
1689:.\Generated_Source\PSoC5/cyPm.c ****     CY_SET_REG8(CYREG_SC3_SW4 , cyPmBackup.scctData[24u]);
 2676              		.loc 1 1689 0
 2677 01e6 45F63423 		movw	r3, #23092
 2678 01ea C4F20003 		movt	r3, 16384
 2679 01ee 40F20002 		movw	r2, #:lower16:cyPmBackup
 2680 01f2 C0F20002 		movt	r2, #:upper16:cyPmBackup
 2681 01f6 92F82120 		ldrb	r2, [r2, #33]	@ zero_extendqisi2
 2682 01fa 1A70     		strb	r2, [r3, #0]
1690:.\Generated_Source\PSoC5/cyPm.c ****     CY_SET_REG8(CYREG_SC3_SW6 , cyPmBackup.scctData[25u]);
 2683              		.loc 1 1690 0
 2684 01fc 45F63623 		movw	r3, #23094
 2685 0200 C4F20003 		movt	r3, 16384
 2686 0204 40F20002 		movw	r2, #:lower16:cyPmBackup
 2687 0208 C0F20002 		movt	r2, #:upper16:cyPmBackup
 2688 020c 92F82220 		ldrb	r2, [r2, #34]	@ zero_extendqisi2
 2689 0210 1A70     		strb	r2, [r3, #0]
1691:.\Generated_Source\PSoC5/cyPm.c ****     CY_SET_REG8(CYREG_SC3_SW8 , cyPmBackup.scctData[26u]);
 2690              		.loc 1 1691 0
 2691 0212 45F63823 		movw	r3, #23096
 2692 0216 C4F20003 		movt	r3, 16384
 2693 021a 40F20002 		movw	r2, #:lower16:cyPmBackup
 2694 021e C0F20002 		movt	r2, #:upper16:cyPmBackup
 2695 0222 92F82320 		ldrb	r2, [r2, #35]	@ zero_extendqisi2
 2696 0226 1A70     		strb	r2, [r3, #0]
1692:.\Generated_Source\PSoC5/cyPm.c ****     CY_SET_REG8(CYREG_SC3_SW10, cyPmBackup.scctData[27u]);
 2697              		.loc 1 1692 0
 2698 0228 45F63A23 		movw	r3, #23098
 2699 022c C4F20003 		movt	r3, 16384
 2700 0230 40F20002 		movw	r2, #:lower16:cyPmBackup
 2701 0234 C0F20002 		movt	r2, #:upper16:cyPmBackup
 2702 0238 92F82420 		ldrb	r2, [r2, #36]	@ zero_extendqisi2
 2703 023c 1A70     		strb	r2, [r3, #0]
1693:.\Generated_Source\PSoC5/cyPm.c **** 
1694:.\Generated_Source\PSoC5/cyPm.c **** 
1695:.\Generated_Source\PSoC5/cyPm.c ****     #if(CY_PSOC3)
1696:.\Generated_Source\PSoC5/cyPm.c **** 
1697:.\Generated_Source\PSoC5/cyPm.c ****         /* Serial Wire Viewer (SWV) workaround */
1698:.\Generated_Source\PSoC5/cyPm.c ****         if(CY_PM_ENABLED == cyPmBackup.swvClkEnabled)
1699:.\Generated_Source\PSoC5/cyPm.c ****         {
1700:.\Generated_Source\PSoC5/cyPm.c ****             /* Restore ports drive mode */
1701:.\Generated_Source\PSoC5/cyPm.c ****             CY_PM_PRT1_PC3_REG = (CY_PM_PRT1_PC3_REG & CY_PM_PRT1_PC3_DM_MASK) |
1702:.\Generated_Source\PSoC5/cyPm.c ****                                     cyPmBackup.prt1Dm;
1703:.\Generated_Source\PSoC5/cyPm.c **** 
1704:.\Generated_Source\PSoC5/cyPm.c ****             /* Enable SWV clocks */
1705:.\Generated_Source\PSoC5/cyPm.c ****             CY_PM_MLOGIC_DBG_REG |= CY_PM_MLOGIC_DBG_SWV_CLK_EN;
1706:.\Generated_Source\PSoC5/cyPm.c ****         }
1707:.\Generated_Source\PSoC5/cyPm.c **** 
1708:.\Generated_Source\PSoC5/cyPm.c ****     #endif /* (CY_PSOC3) */
1709:.\Generated_Source\PSoC5/cyPm.c **** 
1710:.\Generated_Source\PSoC5/cyPm.c **** 
1711:.\Generated_Source\PSoC5/cyPm.c ****     /* Restore boost reference */
1712:.\Generated_Source\PSoC5/cyPm.c ****     if(CY_PM_ENABLED == cyPmBackup.boostRefExt)
 2704              		.loc 1 1712 0
ARM GAS  C:\Users\CHUCK~1.ERH\AppData\Local\Temp\cceT8Wjf.s 			page 79


