ARM GAS  C:\Users\CHUCK~1.ERH\AppData\Local\Temp\ccSfgJB7.s 			page 1


   1              		.syntax unified
   2              		.cpu cortex-m3
   3              		.fpu softvfp
   4              		.eabi_attribute 20, 1
   5              		.eabi_attribute 21, 1
   6              		.eabi_attribute 23, 3
   7              		.eabi_attribute 24, 1
   8              		.eabi_attribute 25, 1
   9              		.eabi_attribute 26, 1
  10              		.eabi_attribute 30, 6
  11              		.eabi_attribute 34, 1
  12              		.eabi_attribute 18, 4
  13              		.thumb
  14              		.file	"ETH0.c"
  15              		.text
  16              	.Ltext0:
  17              		.cfi_sections	.debug_frame
  18              		.bss
  19              		.align	2
  20              	ETH0_SocketConfig:
  21 0000 00000000 		.space	24
  21      00000000 
  21      00000000 
  21      00000000 
  21      00000000 
  22              		.align	2
  23              	ETH0_SubnetMask:
  24 0018 00000000 		.space	4
  25              		.data
  26              		.align	2
  27              		.type	ETH0_MAC, %object
  28              		.size	ETH0_MAC, 6
  29              	ETH0_MAC:
  30 0000 00       		.byte	0
  31 0001 DE       		.byte	-34
  32 0002 AD       		.byte	-83
  33 0003 BE       		.byte	-66
  34 0004 EF       		.byte	-17
  35 0005 00       		.byte	0
  36 0006 0000     		.section	.text.ETH0_W51_Select,"ax",%progbits
  37              		.align	2
  38              		.thumb
  39              		.thumb_func
  40              		.type	ETH0_W51_Select, %function
  41              	ETH0_W51_Select:
  42              	.LFB0:
  43              		.file 1 ".\\Generated_Source\\PSoC5\\ETH0.c"
   1:.\Generated_Source\PSoC5/ETH0.c **** /**
   2:.\Generated_Source\PSoC5/ETH0.c ****  * \addtogroup w5100
   3:.\Generated_Source\PSoC5/ETH0.c ****  * @{
   4:.\Generated_Source\PSoC5/ETH0.c ****  */
   5:.\Generated_Source\PSoC5/ETH0.c **** 
   6:.\Generated_Source\PSoC5/ETH0.c **** /**
   7:.\Generated_Source\PSoC5/ETH0.c ****  * \file Driver implementation for interfacing with the W5100 device
   8:.\Generated_Source\PSoC5/ETH0.c ****  * \author Chuck Erhardt (chuck@e2forlife.com)
   9:.\Generated_Source\PSoC5/ETH0.c ****  *
  10:.\Generated_Source\PSoC5/ETH0.c ****  * This file contains the main driver implementation for control
ARM GAS  C:\Users\CHUCK~1.ERH\AppData\Local\Temp\ccSfgJB7.s 			page 2


  11:.\Generated_Source\PSoC5/ETH0.c ****  * of the W5100 device.
  12:.\Generated_Source\PSoC5/ETH0.c **** */
  13:.\Generated_Source\PSoC5/ETH0.c **** 
  14:.\Generated_Source\PSoC5/ETH0.c **** /* Cypress library includes */
  15:.\Generated_Source\PSoC5/ETH0.c **** #include <cytypes.h>
  16:.\Generated_Source\PSoC5/ETH0.c **** #include <cylib.h>
  17:.\Generated_Source\PSoC5/ETH0.c **** 
  18:.\Generated_Source\PSoC5/ETH0.c **** /*  include functions and types for the driver */
  19:.\Generated_Source\PSoC5/ETH0.c **** #include "ETH0.h"
  20:.\Generated_Source\PSoC5/ETH0.c **** /* include the serial interface functions */
  21:.\Generated_Source\PSoC5/ETH0.c **** #include <SPI0.h>
  22:.\Generated_Source\PSoC5/ETH0.c **** 
  23:.\Generated_Source\PSoC5/ETH0.c **** extern uint8 SPI0_initVar;
  24:.\Generated_Source\PSoC5/ETH0.c **** 
  25:.\Generated_Source\PSoC5/ETH0.c **** typedef struct
  26:.\Generated_Source\PSoC5/ETH0.c **** {
  27:.\Generated_Source\PSoC5/ETH0.c **** 	uint8  Protocol;
  28:.\Generated_Source\PSoC5/ETH0.c **** 	uint8  SocketFlags;
  29:.\Generated_Source\PSoC5/ETH0.c **** 	uint16 SourcePort;
  30:.\Generated_Source\PSoC5/ETH0.c **** 	uint8  ServerFlag;
  31:.\Generated_Source\PSoC5/ETH0.c **** } ETH0_SOCKET;
  32:.\Generated_Source\PSoC5/ETH0.c **** 
  33:.\Generated_Source\PSoC5/ETH0.c **** #define ETH0_SOCKET_TX_BASE(s)    ( 0x4000 + (s<<15) )
  34:.\Generated_Source\PSoC5/ETH0.c **** #define ETH0_SOCKET_RX_BASE(s)    ( 0x6000 + (s<<15) )
  35:.\Generated_Source\PSoC5/ETH0.c **** 
  36:.\Generated_Source\PSoC5/ETH0.c **** static ETH0_SOCKET ETH0_SocketConfig[4];
  37:.\Generated_Source\PSoC5/ETH0.c **** static uint32 ETH0_SubnetMask;
  38:.\Generated_Source\PSoC5/ETH0.c **** 
  39:.\Generated_Source\PSoC5/ETH0.c **** static uint8 ETH0_MAC[6] = { 0x00, 0xDE, 0xAD, 0xBE, 0xEF, 0x00 };
  40:.\Generated_Source\PSoC5/ETH0.c **** 
  41:.\Generated_Source\PSoC5/ETH0.c **** 
  42:.\Generated_Source\PSoC5/ETH0.c **** /* ======================================================================== */
  43:.\Generated_Source\PSoC5/ETH0.c **** /* Generic SPI Functions */
  44:.\Generated_Source\PSoC5/ETH0.c **** /*
  45:.\Generated_Source\PSoC5/ETH0.c ****  * NOTE: when using the SPIM, there must be a buffer length of at least 4
  46:.\Generated_Source\PSoC5/ETH0.c ****  * bytes to allow the transfer/receive cycle for each read/write operation
  47:.\Generated_Source\PSoC5/ETH0.c ****  * to be contained within the FIFO buffer.
  48:.\Generated_Source\PSoC5/ETH0.c ****  */
  49:.\Generated_Source\PSoC5/ETH0.c **** #if !defined(CY_SCB_SPI0_H)
  50:.\Generated_Source\PSoC5/ETH0.c **** /* ------------------------------------------------------------------------ */
  51:.\Generated_Source\PSoC5/ETH0.c **** /**
  52:.\Generated_Source\PSoC5/ETH0.c ****  * \brief Select the active SCB chip select connected to the W51
  53:.\Generated_Source\PSoC5/ETH0.c ****  *
  54:.\Generated_Source\PSoC5/ETH0.c ****  * this fucntion will set the active SS line within the SCB to select and
  55:.\Generated_Source\PSoC5/ETH0.c ****  * communicate with the W5100 device.
  56:.\Generated_Source\PSoC5/ETH0.c ****  * \note this functions requires that the device chip select is originating
  57:.\Generated_Source\PSoC5/ETH0.c ****  *  from the SPI device.
  58:.\Generated_Source\PSoC5/ETH0.c ****  */
  59:.\Generated_Source\PSoC5/ETH0.c **** static void ETH0_W51_Select( void )
  60:.\Generated_Source\PSoC5/ETH0.c **** {
  44              		.loc 1 60 0
  45              		.cfi_startproc
  46              		@ args = 0, pretend = 0, frame = 0
  47              		@ frame_needed = 1, uses_anonymous_args = 0
  48              		@ link register save eliminated.
  49 0000 80B4     		push	{r7}
  50              	.LCFI0:
ARM GAS  C:\Users\CHUCK~1.ERH\AppData\Local\Temp\ccSfgJB7.s 			page 3


  51              		.cfi_def_cfa_offset 4
  52              		.cfi_offset 7, -4
  53 0002 00AF     		add	r7, sp, #0
  54              	.LCFI1:
  55              		.cfi_def_cfa_register 7
  61:.\Generated_Source\PSoC5/ETH0.c **** 	/*
  62:.\Generated_Source\PSoC5/ETH0.c **** 	 * User code for setting the chip select enable.  This is called once
  63:.\Generated_Source\PSoC5/ETH0.c **** 	 * at the beginning of each tranfer to/from the W5100, so we recommend
  64:.\Generated_Source\PSoC5/ETH0.c **** 	 * either doing nothing (SPIM SS straight out), or to switch the demux
  65:.\Generated_Source\PSoC5/ETH0.c **** 	 * component to select the correct output for the SS routing.  This
  66:.\Generated_Source\PSoC5/ETH0.c **** 	 * should probably not drive a pin directly since there is no return
  67:.\Generated_Source\PSoC5/ETH0.c **** 	 * call from the driver that would allow an enable/disable type of
  68:.\Generated_Source\PSoC5/ETH0.c **** 	 * implementation for CSN control.
  69:.\Generated_Source\PSoC5/ETH0.c **** 	 */
  70:.\Generated_Source\PSoC5/ETH0.c **** 	/* `#START CHIP_SELECT_GENERATION` */
  71:.\Generated_Source\PSoC5/ETH0.c **** 
  72:.\Generated_Source\PSoC5/ETH0.c **** 	/* `#END` */
  73:.\Generated_Source\PSoC5/ETH0.c **** }
  56              		.loc 1 73 0
  57 0004 BD46     		mov	sp, r7
  58 0006 80BC     		pop	{r7}
  59 0008 7047     		bx	lr
  60              		.cfi_endproc
  61              	.LFE0:
  62              		.size	ETH0_W51_Select, .-ETH0_W51_Select
  63 000a 00BF     		.section	.text.ETH0_W51_Write,"ax",%progbits
  64              		.align	2
  65              		.global	ETH0_W51_Write
  66              		.thumb
  67              		.thumb_func
  68              		.type	ETH0_W51_Write, %function
  69              	ETH0_W51_Write:
  70              	.LFB1:
  74:.\Generated_Source\PSoC5/ETH0.c **** /* ------------------------------------------------------------------------ */
  75:.\Generated_Source\PSoC5/ETH0.c **** /**
  76:.\Generated_Source\PSoC5/ETH0.c ****  * \brief write Data to the W5100 at the specified address
  77:.\Generated_Source\PSoC5/ETH0.c ****  * \param addr Address of register or memory buffer
  78:.\Generated_Source\PSoC5/ETH0.c ****  * \param dat Data to write to the device
  79:.\Generated_Source\PSoC5/ETH0.c ****  *
  80:.\Generated_Source\PSoC5/ETH0.c ****  * This function will send the WRITE opcode, address and data to the W5100
  81:.\Generated_Source\PSoC5/ETH0.c ****  * in order to write the data to the specified register.
  82:.\Generated_Source\PSoC5/ETH0.c ****  */
  83:.\Generated_Source\PSoC5/ETH0.c **** void ETH0_W51_Write(uint16 addr, uint8 dat)
  84:.\Generated_Source\PSoC5/ETH0.c **** {
  71              		.loc 1 84 0
  72              		.cfi_startproc
  73              		@ args = 0, pretend = 0, frame = 8
  74              		@ frame_needed = 1, uses_anonymous_args = 0
  75 0000 80B5     		push	{r7, lr}
  76              	.LCFI2:
  77              		.cfi_def_cfa_offset 8
  78              		.cfi_offset 7, -8
  79              		.cfi_offset 14, -4
  80 0002 82B0     		sub	sp, sp, #8
  81              	.LCFI3:
  82              		.cfi_def_cfa_offset 16
  83 0004 00AF     		add	r7, sp, #0
ARM GAS  C:\Users\CHUCK~1.ERH\AppData\Local\Temp\ccSfgJB7.s 			page 4


  84              	.LCFI4:
  85              		.cfi_def_cfa_register 7
  86 0006 0246     		mov	r2, r0
  87 0008 0B46     		mov	r3, r1
  88 000a FA80     		strh	r2, [r7, #6]	@ movhi
  89 000c 7B71     		strb	r3, [r7, #5]
  85:.\Generated_Source\PSoC5/ETH0.c **** 	/* Using internal device SS generation */
  86:.\Generated_Source\PSoC5/ETH0.c **** 	ETH0_W51_Select();
  90              		.loc 1 86 0
  91 000e FFF7FEFF 		bl	ETH0_W51_Select
  87:.\Generated_Source\PSoC5/ETH0.c **** 	/*
  88:.\Generated_Source\PSoC5/ETH0.c **** 	 * The first thing to do is to clear the Rx Buffer of any lingering
  89:.\Generated_Source\PSoC5/ETH0.c **** 	 * data left from other transfers.  Then send the data per the W5100
  90:.\Generated_Source\PSoC5/ETH0.c **** 	 * datasheet p.62
  91:.\Generated_Source\PSoC5/ETH0.c **** 	 */
  92:.\Generated_Source\PSoC5/ETH0.c **** 	SPI0_ClearRxBuffer();
  92              		.loc 1 92 0
  93 0012 FFF7FEFF 		bl	SPI0_ClearRxBuffer
  93:.\Generated_Source\PSoC5/ETH0.c **** 	/* Begin transfer of data to device */
  94:.\Generated_Source\PSoC5/ETH0.c **** 	SPI0_WriteTxData(ETH0_WRITE_OP);
  94              		.loc 1 94 0
  95 0016 4FF0F000 		mov	r0, #240
  96 001a FFF7FEFF 		bl	SPI0_WriteTxData
  95:.\Generated_Source\PSoC5/ETH0.c **** 	SPI0_WriteTxData((addr>>8)&0x00FF);
  97              		.loc 1 95 0
  98 001e FB88     		ldrh	r3, [r7, #6]
  99 0020 4FEA1323 		lsr	r3, r3, #8
 100 0024 9BB2     		uxth	r3, r3
 101 0026 DBB2     		uxtb	r3, r3
 102 0028 1846     		mov	r0, r3
 103 002a FFF7FEFF 		bl	SPI0_WriteTxData
  96:.\Generated_Source\PSoC5/ETH0.c **** 	SPI0_WriteTxData(addr&0x00FF);
 104              		.loc 1 96 0
 105 002e FB88     		ldrh	r3, [r7, #6]	@ movhi
 106 0030 DBB2     		uxtb	r3, r3
 107 0032 1846     		mov	r0, r3
 108 0034 FFF7FEFF 		bl	SPI0_WriteTxData
  97:.\Generated_Source\PSoC5/ETH0.c **** 	SPI0_WriteTxData(dat);
 109              		.loc 1 97 0
 110 0038 7B79     		ldrb	r3, [r7, #5]	@ zero_extendqisi2
 111 003a 1846     		mov	r0, r3
 112 003c FFF7FEFF 		bl	SPI0_WriteTxData
  98:.\Generated_Source\PSoC5/ETH0.c **** 	/* Wait for operation to end */
  99:.\Generated_Source\PSoC5/ETH0.c **** 	CyDelayUs(5); /* At 6 MBPS it will take approx 6 uS to send the data */
 113              		.loc 1 99 0
 114 0040 4FF00500 		mov	r0, #5
 115 0044 FFF7FEFF 		bl	CyDelayUs
 100:.\Generated_Source\PSoC5/ETH0.c **** 
 101:.\Generated_Source\PSoC5/ETH0.c **** }
 116              		.loc 1 101 0
 117 0048 07F10807 		add	r7, r7, #8
 118 004c BD46     		mov	sp, r7
 119 004e 80BD     		pop	{r7, pc}
 120              		.cfi_endproc
 121              	.LFE1:
 122              		.size	ETH0_W51_Write, .-ETH0_W51_Write
 123              		.section	.text.ETH0_W51_Read,"ax",%progbits
ARM GAS  C:\Users\CHUCK~1.ERH\AppData\Local\Temp\ccSfgJB7.s 			page 5


 124              		.align	2
 125              		.global	ETH0_W51_Read
 126              		.thumb
 127              		.thumb_func
 128              		.type	ETH0_W51_Read, %function
 129              	ETH0_W51_Read:
 130              	.LFB2:
 102:.\Generated_Source\PSoC5/ETH0.c **** 
 103:.\Generated_Source\PSoC5/ETH0.c **** /* ------------------------------------------------------------------------ */
 104:.\Generated_Source\PSoC5/ETH0.c **** /**
 105:.\Generated_Source\PSoC5/ETH0.c ****  * \brief Read data from the W5100 at the spsecified address
 106:.\Generated_Source\PSoC5/ETH0.c ****  * \param addr Address from which to read
 107:.\Generated_Source\PSoC5/ETH0.c ****  * \returns the data read from the address
 108:.\Generated_Source\PSoC5/ETH0.c ****  *
 109:.\Generated_Source\PSoC5/ETH0.c ****  * this fucntion will access a W5100 memory location and read the contents
 110:.\Generated_Source\PSoC5/ETH0.c ****  * using the serial protocol specified on P.61 of the datasheet.
 111:.\Generated_Source\PSoC5/ETH0.c ****  */
 112:.\Generated_Source\PSoC5/ETH0.c **** uint8 ETH0_W51_Read(uint16 addr)
 113:.\Generated_Source\PSoC5/ETH0.c **** {
 131              		.loc 1 113 0
 132              		.cfi_startproc
 133              		@ args = 0, pretend = 0, frame = 16
 134              		@ frame_needed = 1, uses_anonymous_args = 0
 135 0000 80B5     		push	{r7, lr}
 136              	.LCFI5:
 137              		.cfi_def_cfa_offset 8
 138              		.cfi_offset 7, -8
 139              		.cfi_offset 14, -4
 140 0002 84B0     		sub	sp, sp, #16
 141              	.LCFI6:
 142              		.cfi_def_cfa_offset 24
 143 0004 00AF     		add	r7, sp, #0
 144              	.LCFI7:
 145              		.cfi_def_cfa_register 7
 146 0006 0346     		mov	r3, r0
 147 0008 FB80     		strh	r3, [r7, #6]	@ movhi
 114:.\Generated_Source\PSoC5/ETH0.c **** 	uint32 dat;
 115:.\Generated_Source\PSoC5/ETH0.c **** 	uint32 count;
 116:.\Generated_Source\PSoC5/ETH0.c **** 	
 117:.\Generated_Source\PSoC5/ETH0.c **** 	/* Using internal device SS generation */
 118:.\Generated_Source\PSoC5/ETH0.c **** 	ETH0_W51_Select();
 148              		.loc 1 118 0
 149 000a FFF7FEFF 		bl	ETH0_W51_Select
 119:.\Generated_Source\PSoC5/ETH0.c **** 	/*
 120:.\Generated_Source\PSoC5/ETH0.c **** 	 * First, clear the Rx Buffer of any waiting data.  Then begin the
 121:.\Generated_Source\PSoC5/ETH0.c **** 	 * read operation by sending the op code, followed byte the address
 122:.\Generated_Source\PSoC5/ETH0.c **** 	 * from which the read will be executed, then send a dummy byte
 123:.\Generated_Source\PSoC5/ETH0.c **** 	 * of zeros to read the data from the device.
 124:.\Generated_Source\PSoC5/ETH0.c **** 	 */
 125:.\Generated_Source\PSoC5/ETH0.c **** 	SPI0_ClearRxBuffer();
 150              		.loc 1 125 0
 151 000e FFF7FEFF 		bl	SPI0_ClearRxBuffer
 126:.\Generated_Source\PSoC5/ETH0.c **** 	/* Begin data read */
 127:.\Generated_Source\PSoC5/ETH0.c **** 	SPI0_WriteTxData(ETH0_READ_OP);
 152              		.loc 1 127 0
 153 0012 4FF00F00 		mov	r0, #15
 154 0016 FFF7FEFF 		bl	SPI0_WriteTxData
ARM GAS  C:\Users\CHUCK~1.ERH\AppData\Local\Temp\ccSfgJB7.s 			page 6


 128:.\Generated_Source\PSoC5/ETH0.c **** 	SPI0_WriteTxData(addr>>8);
 155              		.loc 1 128 0
 156 001a FB88     		ldrh	r3, [r7, #6]
 157 001c 4FEA1323 		lsr	r3, r3, #8
 158 0020 9BB2     		uxth	r3, r3
 159 0022 DBB2     		uxtb	r3, r3
 160 0024 1846     		mov	r0, r3
 161 0026 FFF7FEFF 		bl	SPI0_WriteTxData
 129:.\Generated_Source\PSoC5/ETH0.c **** 	SPI0_WriteTxData(addr&0x00FF);
 162              		.loc 1 129 0
 163 002a FB88     		ldrh	r3, [r7, #6]	@ movhi
 164 002c DBB2     		uxtb	r3, r3
 165 002e 1846     		mov	r0, r3
 166 0030 FFF7FEFF 		bl	SPI0_WriteTxData
 130:.\Generated_Source\PSoC5/ETH0.c **** 	SPI0_WriteTxData( 0 );
 167              		.loc 1 130 0
 168 0034 4FF00000 		mov	r0, #0
 169 0038 FFF7FEFF 		bl	SPI0_WriteTxData
 131:.\Generated_Source\PSoC5/ETH0.c **** 	/* Wait for operations to complete. */
 132:.\Generated_Source\PSoC5/ETH0.c **** 	CyDelayUs( 5 );
 170              		.loc 1 132 0
 171 003c 4FF00500 		mov	r0, #5
 172 0040 FFF7FEFF 		bl	CyDelayUs
 133:.\Generated_Source\PSoC5/ETH0.c **** 	count = SPI0_GetRxBufferSize();
 173              		.loc 1 133 0
 174 0044 FFF7FEFF 		bl	SPI0_GetRxBufferSize
 175 0048 0346     		mov	r3, r0
 176 004a BB60     		str	r3, [r7, #8]
 134:.\Generated_Source\PSoC5/ETH0.c **** 	while( count > 0 )
 177              		.loc 1 134 0
 178 004c 07E0     		b	.L4
 179              	.L5:
 135:.\Generated_Source\PSoC5/ETH0.c **** 	{
 136:.\Generated_Source\PSoC5/ETH0.c **** 		dat = SPI0_ReadRxData(); 
 180              		.loc 1 136 0
 181 004e FFF7FEFF 		bl	SPI0_ReadRxData
 182 0052 0346     		mov	r3, r0
 183 0054 FB60     		str	r3, [r7, #12]
 137:.\Generated_Source\PSoC5/ETH0.c **** 		count = SPI0_GetRxBufferSize();
 184              		.loc 1 137 0
 185 0056 FFF7FEFF 		bl	SPI0_GetRxBufferSize
 186 005a 0346     		mov	r3, r0
 187 005c BB60     		str	r3, [r7, #8]
 188              	.L4:
 134:.\Generated_Source\PSoC5/ETH0.c **** 	while( count > 0 )
 189              		.loc 1 134 0 discriminator 1
 190 005e BB68     		ldr	r3, [r7, #8]
 191 0060 002B     		cmp	r3, #0
 192 0062 F4D1     		bne	.L5
 138:.\Generated_Source\PSoC5/ETH0.c **** 	}
 139:.\Generated_Source\PSoC5/ETH0.c **** 	
 140:.\Generated_Source\PSoC5/ETH0.c **** 	return( dat&0xFF );
 193              		.loc 1 140 0
 194 0064 FB68     		ldr	r3, [r7, #12]
 195 0066 DBB2     		uxtb	r3, r3
 141:.\Generated_Source\PSoC5/ETH0.c **** }
 196              		.loc 1 141 0
ARM GAS  C:\Users\CHUCK~1.ERH\AppData\Local\Temp\ccSfgJB7.s 			page 7


 197 0068 1846     		mov	r0, r3
 198 006a 07F11007 		add	r7, r7, #16
 199 006e BD46     		mov	sp, r7
 200 0070 80BD     		pop	{r7, pc}
 201              		.cfi_endproc
 202              	.LFE2:
 203              		.size	ETH0_W51_Read, .-ETH0_W51_Read
 204 0072 00BF     		.section	.text.ETH0_W51_SetMAC,"ax",%progbits
 205              		.align	2
 206              		.thumb
 207              		.thumb_func
 208              		.type	ETH0_W51_SetMAC, %function
 209              	ETH0_W51_SetMAC:
 210              	.LFB3:
 142:.\Generated_Source\PSoC5/ETH0.c **** /* ======================================================================== */
 143:.\Generated_Source\PSoC5/ETH0.c **** /* SCB Specific Functions */
 144:.\Generated_Source\PSoC5/ETH0.c **** #else
 145:.\Generated_Source\PSoC5/ETH0.c **** /* include SPI function header for the SCB */
 146:.\Generated_Source\PSoC5/ETH0.c **** #include <SPI0_SPI_UART.h>
 147:.\Generated_Source\PSoC5/ETH0.c **** 	
 148:.\Generated_Source\PSoC5/ETH0.c **** /* ------------------------------------------------------------------------ */
 149:.\Generated_Source\PSoC5/ETH0.c **** /**
 150:.\Generated_Source\PSoC5/ETH0.c ****  * \brief Select the active SCB chip select connected to the W51
 151:.\Generated_Source\PSoC5/ETH0.c ****  *
 152:.\Generated_Source\PSoC5/ETH0.c ****  * this fucntion will set the active SS line within the SCB to select and
 153:.\Generated_Source\PSoC5/ETH0.c ****  * communicate with the W5100 device.
 154:.\Generated_Source\PSoC5/ETH0.c ****  */
 155:.\Generated_Source\PSoC5/ETH0.c **** static void ETH0_W51_Select( void )
 156:.\Generated_Source\PSoC5/ETH0.c **** {
 157:.\Generated_Source\PSoC5/ETH0.c **** #if (0 == 0)
 158:.\Generated_Source\PSoC5/ETH0.c **** 	SPI0_SpiSetActiveSlaveSelect( SPI0_SPIM_ACTIVE_SS0 );
 159:.\Generated_Source\PSoC5/ETH0.c **** #elif (0 == 1)
 160:.\Generated_Source\PSoC5/ETH0.c **** 	SPI0_SpiSetActiveSlaveSelect( SPI0_SPIM_ACTIVE_SS1 );
 161:.\Generated_Source\PSoC5/ETH0.c **** #elif (0 == 2)
 162:.\Generated_Source\PSoC5/ETH0.c **** 	SPI0_SpiSetActiveSlaveSelect( SPI0_SPIM_ACTIVE_SS2 );
 163:.\Generated_Source\PSoC5/ETH0.c **** #elif (0 == 3)
 164:.\Generated_Source\PSoC5/ETH0.c **** 	SPI0_SpiSetActiveSlaveSelect( SPI0_SPIM_ACTIVE_SS3 );
 165:.\Generated_Source\PSoC5/ETH0.c **** #else
 166:.\Generated_Source\PSoC5/ETH0.c **** 		SPI0_SpiSetActiveSlaveSelect(0);
 167:.\Generated_Source\PSoC5/ETH0.c **** #endif
 168:.\Generated_Source\PSoC5/ETH0.c **** }
 169:.\Generated_Source\PSoC5/ETH0.c **** /* ------------------------------------------------------------------------ */
 170:.\Generated_Source\PSoC5/ETH0.c **** /**
 171:.\Generated_Source\PSoC5/ETH0.c ****  * \brief write Data to the W5100 at the specified address
 172:.\Generated_Source\PSoC5/ETH0.c ****  * \param addr Address of register or memory buffer
 173:.\Generated_Source\PSoC5/ETH0.c ****  * \param dat Data to write to the device
 174:.\Generated_Source\PSoC5/ETH0.c ****  *
 175:.\Generated_Source\PSoC5/ETH0.c ****  * This function will send the WRITE opcode, address and data to the W5100
 176:.\Generated_Source\PSoC5/ETH0.c ****  * in order to write the data to the specified register.
 177:.\Generated_Source\PSoC5/ETH0.c ****  */
 178:.\Generated_Source\PSoC5/ETH0.c **** void ETH0_W51_Write(uint16 addr, uint8 dat)
 179:.\Generated_Source\PSoC5/ETH0.c **** {
 180:.\Generated_Source\PSoC5/ETH0.c **** 	/* Using internal device SS generation */
 181:.\Generated_Source\PSoC5/ETH0.c **** 	ETH0_W51_Select();
 182:.\Generated_Source\PSoC5/ETH0.c **** 	/*
 183:.\Generated_Source\PSoC5/ETH0.c **** 	 * The first thing to do is to clear the Rx Buffer of any lingering
 184:.\Generated_Source\PSoC5/ETH0.c **** 	 * data left from other transfers.  Then send the data per the W5100
ARM GAS  C:\Users\CHUCK~1.ERH\AppData\Local\Temp\ccSfgJB7.s 			page 8


 185:.\Generated_Source\PSoC5/ETH0.c **** 	 * datasheet p.62
 186:.\Generated_Source\PSoC5/ETH0.c **** 	 */
 187:.\Generated_Source\PSoC5/ETH0.c **** 	SPI0_SpiUartClearRxBuffer();
 188:.\Generated_Source\PSoC5/ETH0.c **** 	/* Begin transfer of data to device */
 189:.\Generated_Source\PSoC5/ETH0.c **** 	SPI0_SpiUartWriteTxData(ETH0_WRITE_OP);
 190:.\Generated_Source\PSoC5/ETH0.c **** 	SPI0_SpiUartWriteTxData((addr>>8)&0x00FF);
 191:.\Generated_Source\PSoC5/ETH0.c **** 	SPI0_SpiUartWriteTxData(addr&0x00FF);
 192:.\Generated_Source\PSoC5/ETH0.c **** 	SPI0_SpiUartWriteTxData(dat);
 193:.\Generated_Source\PSoC5/ETH0.c **** 	/* Wait for operation to end */
 194:.\Generated_Source\PSoC5/ETH0.c **** 	CyDelayUs(5); /* At 6 MBPS it will take approx 6 uS to send the data */
 195:.\Generated_Source\PSoC5/ETH0.c **** }
 196:.\Generated_Source\PSoC5/ETH0.c **** /* ------------------------------------------------------------------------ */
 197:.\Generated_Source\PSoC5/ETH0.c **** /**
 198:.\Generated_Source\PSoC5/ETH0.c ****  * \brief Read data from the W5100 at the spsecified address
 199:.\Generated_Source\PSoC5/ETH0.c ****  * \param addr Address from which to read
 200:.\Generated_Source\PSoC5/ETH0.c ****  * \returns the data read from the address
 201:.\Generated_Source\PSoC5/ETH0.c ****  *
 202:.\Generated_Source\PSoC5/ETH0.c ****  * this fucntion will access a W5100 memory location and read the contents
 203:.\Generated_Source\PSoC5/ETH0.c ****  * using the serial protocol specified on P.61 of the datasheet.
 204:.\Generated_Source\PSoC5/ETH0.c ****  */
 205:.\Generated_Source\PSoC5/ETH0.c **** uint8 ETH0_W51_Read(uint16 addr)
 206:.\Generated_Source\PSoC5/ETH0.c **** {
 207:.\Generated_Source\PSoC5/ETH0.c **** 	uint32 dat;
 208:.\Generated_Source\PSoC5/ETH0.c **** 	uint32 count;
 209:.\Generated_Source\PSoC5/ETH0.c **** 	
 210:.\Generated_Source\PSoC5/ETH0.c **** 	/* Using internal device SS generation */
 211:.\Generated_Source\PSoC5/ETH0.c **** 	ETH0_W51_Select();
 212:.\Generated_Source\PSoC5/ETH0.c **** 	/*
 213:.\Generated_Source\PSoC5/ETH0.c **** 	 * First, clear the Rx Buffer of any waiting data.  Then begin the
 214:.\Generated_Source\PSoC5/ETH0.c **** 	 * read operation by sending the op code, followed byte the address
 215:.\Generated_Source\PSoC5/ETH0.c **** 	 * from which the read will be executed, then send a dummy byte
 216:.\Generated_Source\PSoC5/ETH0.c **** 	 * of zeros to read the data from the device.
 217:.\Generated_Source\PSoC5/ETH0.c **** 	 */
 218:.\Generated_Source\PSoC5/ETH0.c **** 	SPI0_SpiUartClearRxBuffer();
 219:.\Generated_Source\PSoC5/ETH0.c **** 	/* Begin data read */
 220:.\Generated_Source\PSoC5/ETH0.c **** 	SPI0_SpiUartWriteTxData(ETH0_READ_OP);
 221:.\Generated_Source\PSoC5/ETH0.c **** 	SPI0_SpiUartWriteTxData(addr>>8);
 222:.\Generated_Source\PSoC5/ETH0.c **** 	SPI0_SpiUartWriteTxData(addr&0x00FF);
 223:.\Generated_Source\PSoC5/ETH0.c **** 	SPI0_SpiUartWriteTxData( 0 );
 224:.\Generated_Source\PSoC5/ETH0.c **** 	/* Wait for operations to complete. */
 225:.\Generated_Source\PSoC5/ETH0.c **** 	CyDelayUs( 5 );
 226:.\Generated_Source\PSoC5/ETH0.c **** 	count = SPI0_SpiUartGetRxBufferSize();
 227:.\Generated_Source\PSoC5/ETH0.c **** 	while( count > 0 )
 228:.\Generated_Source\PSoC5/ETH0.c **** 	{
 229:.\Generated_Source\PSoC5/ETH0.c **** 		dat = SPI0_SpiUartReadRxData(); 
 230:.\Generated_Source\PSoC5/ETH0.c **** 		count = SPI0_SpiUartGetRxBufferSize();
 231:.\Generated_Source\PSoC5/ETH0.c **** 	}
 232:.\Generated_Source\PSoC5/ETH0.c **** 	
 233:.\Generated_Source\PSoC5/ETH0.c **** 	return( dat&0xFF );
 234:.\Generated_Source\PSoC5/ETH0.c **** }
 235:.\Generated_Source\PSoC5/ETH0.c **** 
 236:.\Generated_Source\PSoC5/ETH0.c **** #endif
 237:.\Generated_Source\PSoC5/ETH0.c **** 
 238:.\Generated_Source\PSoC5/ETH0.c **** /* ======================================================================== */
 239:.\Generated_Source\PSoC5/ETH0.c **** /* W5100 Register Access Primitaves */
 240:.\Generated_Source\PSoC5/ETH0.c **** #if (1)
 241:.\Generated_Source\PSoC5/ETH0.c **** /* ------------------------------------------------------------------------ */
ARM GAS  C:\Users\CHUCK~1.ERH\AppData\Local\Temp\ccSfgJB7.s 			page 9


 242:.\Generated_Source\PSoC5/ETH0.c **** /**
 243:.\Generated_Source\PSoC5/ETH0.c ****  * \brief Write a MAC (hardware) address to a group of registers
 244:.\Generated_Source\PSoC5/ETH0.c ****  * \param addr The starting address of the registers/memory for the MAC address
 245:.\Generated_Source\PSoC5/ETH0.c ****  * \param *mac pointer to the array of bytes holding the MAC address.
 246:.\Generated_Source\PSoC5/ETH0.c ****  */
 247:.\Generated_Source\PSoC5/ETH0.c **** static void ETH0_W51_SetMAC(uint16 addr, uint8 *mac)
 248:.\Generated_Source\PSoC5/ETH0.c **** {
 211              		.loc 1 248 0
 212              		.cfi_startproc
 213              		@ args = 0, pretend = 0, frame = 16
 214              		@ frame_needed = 1, uses_anonymous_args = 0
 215 0000 80B5     		push	{r7, lr}
 216              	.LCFI8:
 217              		.cfi_def_cfa_offset 8
 218              		.cfi_offset 7, -8
 219              		.cfi_offset 14, -4
 220 0002 84B0     		sub	sp, sp, #16
 221              	.LCFI9:
 222              		.cfi_def_cfa_offset 24
 223 0004 00AF     		add	r7, sp, #0
 224              	.LCFI10:
 225              		.cfi_def_cfa_register 7
 226 0006 0346     		mov	r3, r0
 227 0008 3960     		str	r1, [r7, #0]
 228 000a FB80     		strh	r3, [r7, #6]	@ movhi
 249:.\Generated_Source\PSoC5/ETH0.c **** 	uint32 index;
 250:.\Generated_Source\PSoC5/ETH0.c **** 	
 251:.\Generated_Source\PSoC5/ETH0.c **** 	for(index = 0;index<6;++index)
 229              		.loc 1 251 0
 230 000c 4FF00003 		mov	r3, #0
 231 0010 FB60     		str	r3, [r7, #12]
 232 0012 10E0     		b	.L8
 233              	.L9:
 252:.\Generated_Source\PSoC5/ETH0.c **** 	{
 253:.\Generated_Source\PSoC5/ETH0.c **** 		ETH0_W51_Write(addr+index,mac[index]);
 234              		.loc 1 253 0 discriminator 2
 235 0014 FB68     		ldr	r3, [r7, #12]
 236 0016 9AB2     		uxth	r2, r3
 237 0018 FB88     		ldrh	r3, [r7, #6]	@ movhi
 238 001a D318     		adds	r3, r2, r3
 239 001c 9AB2     		uxth	r2, r3
 240 001e 3968     		ldr	r1, [r7, #0]
 241 0020 FB68     		ldr	r3, [r7, #12]
 242 0022 CB18     		adds	r3, r1, r3
 243 0024 1B78     		ldrb	r3, [r3, #0]	@ zero_extendqisi2
 244 0026 1046     		mov	r0, r2
 245 0028 1946     		mov	r1, r3
 246 002a FFF7FEFF 		bl	ETH0_W51_Write
 251:.\Generated_Source\PSoC5/ETH0.c **** 	for(index = 0;index<6;++index)
 247              		.loc 1 251 0 discriminator 2
 248 002e FB68     		ldr	r3, [r7, #12]
 249 0030 03F10103 		add	r3, r3, #1
 250 0034 FB60     		str	r3, [r7, #12]
 251              	.L8:
 251:.\Generated_Source\PSoC5/ETH0.c **** 	for(index = 0;index<6;++index)
 252              		.loc 1 251 0 is_stmt 0 discriminator 1
 253 0036 FB68     		ldr	r3, [r7, #12]
ARM GAS  C:\Users\CHUCK~1.ERH\AppData\Local\Temp\ccSfgJB7.s 			page 10


 254 0038 052B     		cmp	r3, #5
 255 003a EBD9     		bls	.L9
 254:.\Generated_Source\PSoC5/ETH0.c **** 	}
 255:.\Generated_Source\PSoC5/ETH0.c **** }
 256              		.loc 1 255 0 is_stmt 1
 257 003c 07F11007 		add	r7, r7, #16
 258 0040 BD46     		mov	sp, r7
 259 0042 80BD     		pop	{r7, pc}
 260              		.cfi_endproc
 261              	.LFE3:
 262              		.size	ETH0_W51_SetMAC, .-ETH0_W51_SetMAC
 263              		.section	.text.ETH0_W51_GetMAC,"ax",%progbits
 264              		.align	2
 265              		.thumb
 266              		.thumb_func
 267              		.type	ETH0_W51_GetMAC, %function
 268              	ETH0_W51_GetMAC:
 269              	.LFB4:
 256:.\Generated_Source\PSoC5/ETH0.c **** /* ------------------------------------------------------------------------ */
 257:.\Generated_Source\PSoC5/ETH0.c **** /**
 258:.\Generated_Source\PSoC5/ETH0.c ****  * \brief Read a MAC (hardware) address from a set of registers.
 259:.\Generated_Source\PSoC5/ETH0.c ****  * \param addr the address from which the data will be read
 260:.\Generated_Source\PSoC5/ETH0.c ****  * \param *mac pointer to the array of bytes to hold the output mac address.
 261:.\Generated_Source\PSoC5/ETH0.c ****  */
 262:.\Generated_Source\PSoC5/ETH0.c **** static void ETH0_W51_GetMAC( uint16 addr, uint8* mac )
 263:.\Generated_Source\PSoC5/ETH0.c **** {
 270              		.loc 1 263 0
 271              		.cfi_startproc
 272              		@ args = 0, pretend = 0, frame = 16
 273              		@ frame_needed = 1, uses_anonymous_args = 0
 274 0000 90B5     		push	{r4, r7, lr}
 275              	.LCFI11:
 276              		.cfi_def_cfa_offset 12
 277              		.cfi_offset 4, -12
 278              		.cfi_offset 7, -8
 279              		.cfi_offset 14, -4
 280 0002 85B0     		sub	sp, sp, #20
 281              	.LCFI12:
 282              		.cfi_def_cfa_offset 32
 283 0004 00AF     		add	r7, sp, #0
 284              	.LCFI13:
 285              		.cfi_def_cfa_register 7
 286 0006 0346     		mov	r3, r0
 287 0008 3960     		str	r1, [r7, #0]
 288 000a FB80     		strh	r3, [r7, #6]	@ movhi
 264:.\Generated_Source\PSoC5/ETH0.c **** 	uint32 index;
 265:.\Generated_Source\PSoC5/ETH0.c **** 	for(index=0;index<6;++index) {
 289              		.loc 1 265 0
 290 000c 4FF00003 		mov	r3, #0
 291 0010 FB60     		str	r3, [r7, #12]
 292 0012 10E0     		b	.L11
 293              	.L12:
 266:.\Generated_Source\PSoC5/ETH0.c **** 		mac[index] = ETH0_W51_Read(addr+index);
 294              		.loc 1 266 0 discriminator 2
 295 0014 3A68     		ldr	r2, [r7, #0]
 296 0016 FB68     		ldr	r3, [r7, #12]
 297 0018 D418     		adds	r4, r2, r3
ARM GAS  C:\Users\CHUCK~1.ERH\AppData\Local\Temp\ccSfgJB7.s 			page 11


 298 001a FB68     		ldr	r3, [r7, #12]
 299 001c 9AB2     		uxth	r2, r3
 300 001e FB88     		ldrh	r3, [r7, #6]	@ movhi
 301 0020 D318     		adds	r3, r2, r3
 302 0022 9BB2     		uxth	r3, r3
 303 0024 1846     		mov	r0, r3
 304 0026 FFF7FEFF 		bl	ETH0_W51_Read
 305 002a 0346     		mov	r3, r0
 306 002c 2370     		strb	r3, [r4, #0]
 265:.\Generated_Source\PSoC5/ETH0.c **** 	for(index=0;index<6;++index) {
 307              		.loc 1 265 0 discriminator 2
 308 002e FB68     		ldr	r3, [r7, #12]
 309 0030 03F10103 		add	r3, r3, #1
 310 0034 FB60     		str	r3, [r7, #12]
 311              	.L11:
 265:.\Generated_Source\PSoC5/ETH0.c **** 	for(index=0;index<6;++index) {
 312              		.loc 1 265 0 is_stmt 0 discriminator 1
 313 0036 FB68     		ldr	r3, [r7, #12]
 314 0038 052B     		cmp	r3, #5
 315 003a EBD9     		bls	.L12
 267:.\Generated_Source\PSoC5/ETH0.c **** 	}
 268:.\Generated_Source\PSoC5/ETH0.c **** }
 316              		.loc 1 268 0 is_stmt 1
 317 003c 07F11407 		add	r7, r7, #20
 318 0040 BD46     		mov	sp, r7
 319 0042 90BD     		pop	{r4, r7, pc}
 320              		.cfi_endproc
 321              	.LFE4:
 322              		.size	ETH0_W51_GetMAC, .-ETH0_W51_GetMAC
 323              		.section	.text.ETH0_W51_SetIP,"ax",%progbits
 324              		.align	2
 325              		.thumb
 326              		.thumb_func
 327              		.type	ETH0_W51_SetIP, %function
 328              	ETH0_W51_SetIP:
 329              	.LFB5:
 269:.\Generated_Source\PSoC5/ETH0.c **** /* ------------------------------------------------------------------------ */
 270:.\Generated_Source\PSoC5/ETH0.c **** /**
 271:.\Generated_Source\PSoC5/ETH0.c ****  * \brief Write an IPv4 address to the device.
 272:.\Generated_Source\PSoC5/ETH0.c ****  * \param addr the address of the memory/registers to write the IPv4 Address
 273:.\Generated_Source\PSoC5/ETH0.c ****  * \param ip the IP address to write
 274:.\Generated_Source\PSoC5/ETH0.c ****  */
 275:.\Generated_Source\PSoC5/ETH0.c **** static void ETH0_W51_SetIP( uint16 addr, uint32 ip )
 276:.\Generated_Source\PSoC5/ETH0.c **** {
 330              		.loc 1 276 0
 331              		.cfi_startproc
 332              		@ args = 0, pretend = 0, frame = 16
 333              		@ frame_needed = 1, uses_anonymous_args = 0
 334 0000 80B5     		push	{r7, lr}
 335              	.LCFI14:
 336              		.cfi_def_cfa_offset 8
 337              		.cfi_offset 7, -8
 338              		.cfi_offset 14, -4
 339 0002 84B0     		sub	sp, sp, #16
 340              	.LCFI15:
 341              		.cfi_def_cfa_offset 24
 342 0004 00AF     		add	r7, sp, #0
ARM GAS  C:\Users\CHUCK~1.ERH\AppData\Local\Temp\ccSfgJB7.s 			page 12


 343              	.LCFI16:
 344              		.cfi_def_cfa_register 7
 345 0006 0346     		mov	r3, r0
 346 0008 3960     		str	r1, [r7, #0]
 347 000a FB80     		strh	r3, [r7, #6]	@ movhi
 277:.\Generated_Source\PSoC5/ETH0.c **** 	uint32 index;
 278:.\Generated_Source\PSoC5/ETH0.c **** 	uint8* buffer;
 279:.\Generated_Source\PSoC5/ETH0.c **** 
 280:.\Generated_Source\PSoC5/ETH0.c **** 	buffer = (uint8*)&ip;
 348              		.loc 1 280 0
 349 000c 3B46     		mov	r3, r7
 350 000e BB60     		str	r3, [r7, #8]
 281:.\Generated_Source\PSoC5/ETH0.c **** 	for(index = 0;index<4;++index) {
 351              		.loc 1 281 0
 352 0010 4FF00003 		mov	r3, #0
 353 0014 FB60     		str	r3, [r7, #12]
 354 0016 10E0     		b	.L14
 355              	.L15:
 282:.\Generated_Source\PSoC5/ETH0.c **** 		ETH0_W51_Write(addr+index,buffer[index]);
 356              		.loc 1 282 0 discriminator 2
 357 0018 FB68     		ldr	r3, [r7, #12]
 358 001a 9AB2     		uxth	r2, r3
 359 001c FB88     		ldrh	r3, [r7, #6]	@ movhi
 360 001e D318     		adds	r3, r2, r3
 361 0020 9AB2     		uxth	r2, r3
 362 0022 B968     		ldr	r1, [r7, #8]
 363 0024 FB68     		ldr	r3, [r7, #12]
 364 0026 CB18     		adds	r3, r1, r3
 365 0028 1B78     		ldrb	r3, [r3, #0]	@ zero_extendqisi2
 366 002a 1046     		mov	r0, r2
 367 002c 1946     		mov	r1, r3
 368 002e FFF7FEFF 		bl	ETH0_W51_Write
 281:.\Generated_Source\PSoC5/ETH0.c **** 	for(index = 0;index<4;++index) {
 369              		.loc 1 281 0 discriminator 2
 370 0032 FB68     		ldr	r3, [r7, #12]
 371 0034 03F10103 		add	r3, r3, #1
 372 0038 FB60     		str	r3, [r7, #12]
 373              	.L14:
 281:.\Generated_Source\PSoC5/ETH0.c **** 	for(index = 0;index<4;++index) {
 374              		.loc 1 281 0 is_stmt 0 discriminator 1
 375 003a FB68     		ldr	r3, [r7, #12]
 376 003c 032B     		cmp	r3, #3
 377 003e EBD9     		bls	.L15
 283:.\Generated_Source\PSoC5/ETH0.c **** 	}
 284:.\Generated_Source\PSoC5/ETH0.c **** }
 378              		.loc 1 284 0 is_stmt 1
 379 0040 07F11007 		add	r7, r7, #16
 380 0044 BD46     		mov	sp, r7
 381 0046 80BD     		pop	{r7, pc}
 382              		.cfi_endproc
 383              	.LFE5:
 384              		.size	ETH0_W51_SetIP, .-ETH0_W51_SetIP
 385              		.section	.text.ETH0_W51_GetIP,"ax",%progbits
 386              		.align	2
 387              		.thumb
 388              		.thumb_func
 389              		.type	ETH0_W51_GetIP, %function
ARM GAS  C:\Users\CHUCK~1.ERH\AppData\Local\Temp\ccSfgJB7.s 			page 13


 390              	ETH0_W51_GetIP:
 391              	.LFB6:
 285:.\Generated_Source\PSoC5/ETH0.c **** /* ------------------------------------------------------------------------ */
 286:.\Generated_Source\PSoC5/ETH0.c **** /**
 287:.\Generated_Source\PSoC5/ETH0.c ****  * \brief Read an IPv4 address from a set of registers
 288:.\Generated_Source\PSoC5/ETH0.c ****  * \param addr the address from which the IP address will be retrieved.
 289:.\Generated_Source\PSoC5/ETH0.c ****  * \returns the IP address read from the device.
 290:.\Generated_Source\PSoC5/ETH0.c ****  */
 291:.\Generated_Source\PSoC5/ETH0.c **** static uint32 ETH0_W51_GetIP( uint16 addr )
 292:.\Generated_Source\PSoC5/ETH0.c **** {
 392              		.loc 1 292 0
 393              		.cfi_startproc
 394              		@ args = 0, pretend = 0, frame = 24
 395              		@ frame_needed = 1, uses_anonymous_args = 0
 396 0000 80B5     		push	{r7, lr}
 397              	.LCFI17:
 398              		.cfi_def_cfa_offset 8
 399              		.cfi_offset 7, -8
 400              		.cfi_offset 14, -4
 401 0002 86B0     		sub	sp, sp, #24
 402              	.LCFI18:
 403              		.cfi_def_cfa_offset 32
 404 0004 00AF     		add	r7, sp, #0
 405              	.LCFI19:
 406              		.cfi_def_cfa_register 7
 407 0006 0346     		mov	r3, r0
 408 0008 FB80     		strh	r3, [r7, #6]	@ movhi
 293:.\Generated_Source\PSoC5/ETH0.c **** 	uint8 buffer[4];
 294:.\Generated_Source\PSoC5/ETH0.c **** 	int index;
 295:.\Generated_Source\PSoC5/ETH0.c **** 	uint32* ip;
 296:.\Generated_Source\PSoC5/ETH0.c **** 	
 297:.\Generated_Source\PSoC5/ETH0.c **** 	ip = (uint32*) &buffer[0];
 409              		.loc 1 297 0
 410 000a 07F10C03 		add	r3, r7, #12
 411 000e 3B61     		str	r3, [r7, #16]
 298:.\Generated_Source\PSoC5/ETH0.c **** 	*ip = 0;
 412              		.loc 1 298 0
 413 0010 3B69     		ldr	r3, [r7, #16]
 414 0012 4FF00002 		mov	r2, #0
 415 0016 1A60     		str	r2, [r3, #0]
 299:.\Generated_Source\PSoC5/ETH0.c **** 	for(index=0;index<4;++index) {
 416              		.loc 1 299 0
 417 0018 4FF00003 		mov	r3, #0
 418 001c 7B61     		str	r3, [r7, #20]
 419 001e 12E0     		b	.L17
 420              	.L18:
 300:.\Generated_Source\PSoC5/ETH0.c **** 		buffer[index] = ETH0_W51_Read(addr+index);
 421              		.loc 1 300 0 discriminator 2
 422 0020 7B69     		ldr	r3, [r7, #20]
 423 0022 9AB2     		uxth	r2, r3
 424 0024 FB88     		ldrh	r3, [r7, #6]	@ movhi
 425 0026 D318     		adds	r3, r2, r3
 426 0028 9BB2     		uxth	r3, r3
 427 002a 1846     		mov	r0, r3
 428 002c FFF7FEFF 		bl	ETH0_W51_Read
 429 0030 0346     		mov	r3, r0
 430 0032 1A46     		mov	r2, r3
ARM GAS  C:\Users\CHUCK~1.ERH\AppData\Local\Temp\ccSfgJB7.s 			page 14


 431 0034 07F10C01 		add	r1, r7, #12
 432 0038 7B69     		ldr	r3, [r7, #20]
 433 003a CB18     		adds	r3, r1, r3
 434 003c 1A70     		strb	r2, [r3, #0]
 299:.\Generated_Source\PSoC5/ETH0.c **** 	for(index=0;index<4;++index) {
 435              		.loc 1 299 0 discriminator 2
 436 003e 7B69     		ldr	r3, [r7, #20]
 437 0040 03F10103 		add	r3, r3, #1
 438 0044 7B61     		str	r3, [r7, #20]
 439              	.L17:
 299:.\Generated_Source\PSoC5/ETH0.c **** 	for(index=0;index<4;++index) {
 440              		.loc 1 299 0 is_stmt 0 discriminator 1
 441 0046 7B69     		ldr	r3, [r7, #20]
 442 0048 032B     		cmp	r3, #3
 443 004a E9DD     		ble	.L18
 301:.\Generated_Source\PSoC5/ETH0.c **** 	}
 302:.\Generated_Source\PSoC5/ETH0.c **** 	return( *ip );
 444              		.loc 1 302 0 is_stmt 1
 445 004c 3B69     		ldr	r3, [r7, #16]
 446 004e 1B68     		ldr	r3, [r3, #0]
 303:.\Generated_Source\PSoC5/ETH0.c **** }
 447              		.loc 1 303 0
 448 0050 1846     		mov	r0, r3
 449 0052 07F11807 		add	r7, r7, #24
 450 0056 BD46     		mov	sp, r7
 451 0058 80BD     		pop	{r7, pc}
 452              		.cfi_endproc
 453              	.LFE6:
 454              		.size	ETH0_W51_GetIP, .-ETH0_W51_GetIP
 455 005a 00BF     		.section	.text.ETH0_W51_Write16,"ax",%progbits
 456              		.align	2
 457              		.thumb
 458              		.thumb_func
 459              		.type	ETH0_W51_Write16, %function
 460              	ETH0_W51_Write16:
 461              	.LFB7:
 304:.\Generated_Source\PSoC5/ETH0.c **** /* ------------------------------------------------------------------------ */
 305:.\Generated_Source\PSoC5/ETH0.c **** /**
 306:.\Generated_Source\PSoC5/ETH0.c ****  * \brief Write a 16-bit word to the device
 307:.\Generated_Source\PSoC5/ETH0.c ****  * \param addr the starting address to which the data will be written
 308:.\Generated_Source\PSoC5/ETH0.c ****  * \param val the 16-bit value to write
 309:.\Generated_Source\PSoC5/ETH0.c ****  */
 310:.\Generated_Source\PSoC5/ETH0.c **** static void ETH0_W51_Write16( uint16 addr, uint16 val )
 311:.\Generated_Source\PSoC5/ETH0.c **** {
 462              		.loc 1 311 0
 463              		.cfi_startproc
 464              		@ args = 0, pretend = 0, frame = 8
 465              		@ frame_needed = 1, uses_anonymous_args = 0
 466 0000 80B5     		push	{r7, lr}
 467              	.LCFI20:
 468              		.cfi_def_cfa_offset 8
 469              		.cfi_offset 7, -8
 470              		.cfi_offset 14, -4
 471 0002 82B0     		sub	sp, sp, #8
 472              	.LCFI21:
 473              		.cfi_def_cfa_offset 16
 474 0004 00AF     		add	r7, sp, #0
ARM GAS  C:\Users\CHUCK~1.ERH\AppData\Local\Temp\ccSfgJB7.s 			page 15


 475              	.LCFI22:
 476              		.cfi_def_cfa_register 7
 477 0006 0246     		mov	r2, r0
 478 0008 0B46     		mov	r3, r1
 479 000a FA80     		strh	r2, [r7, #6]	@ movhi
 480 000c BB80     		strh	r3, [r7, #4]	@ movhi
 312:.\Generated_Source\PSoC5/ETH0.c **** 	ETH0_W51_Write( addr, val>>8);
 481              		.loc 1 312 0
 482 000e BB88     		ldrh	r3, [r7, #4]
 483 0010 4FEA1323 		lsr	r3, r3, #8
 484 0014 9BB2     		uxth	r3, r3
 485 0016 DBB2     		uxtb	r3, r3
 486 0018 FA88     		ldrh	r2, [r7, #6]
 487 001a 1046     		mov	r0, r2
 488 001c 1946     		mov	r1, r3
 489 001e FFF7FEFF 		bl	ETH0_W51_Write
 313:.\Generated_Source\PSoC5/ETH0.c **** 	ETH0_W51_Write( addr + 1, val&0x00FF);
 490              		.loc 1 313 0
 491 0022 FB88     		ldrh	r3, [r7, #6]	@ movhi
 492 0024 03F10103 		add	r3, r3, #1
 493 0028 9AB2     		uxth	r2, r3
 494 002a BB88     		ldrh	r3, [r7, #4]	@ movhi
 495 002c DBB2     		uxtb	r3, r3
 496 002e 1046     		mov	r0, r2
 497 0030 1946     		mov	r1, r3
 498 0032 FFF7FEFF 		bl	ETH0_W51_Write
 314:.\Generated_Source\PSoC5/ETH0.c **** }
 499              		.loc 1 314 0
 500 0036 07F10807 		add	r7, r7, #8
 501 003a BD46     		mov	sp, r7
 502 003c 80BD     		pop	{r7, pc}
 503              		.cfi_endproc
 504              	.LFE7:
 505              		.size	ETH0_W51_Write16, .-ETH0_W51_Write16
 506 003e 00BF     		.section	.text.ETH0_W51_Read16,"ax",%progbits
 507              		.align	2
 508              		.thumb
 509              		.thumb_func
 510              		.type	ETH0_W51_Read16, %function
 511              	ETH0_W51_Read16:
 512              	.LFB8:
 315:.\Generated_Source\PSoC5/ETH0.c **** /* ------------------------------------------------------------------------ */
 316:.\Generated_Source\PSoC5/ETH0.c **** /**
 317:.\Generated_Source\PSoC5/ETH0.c ****  * \brief Read a 16-bit value from the device
 318:.\Generated_Source\PSoC5/ETH0.c ****  * \param addr The starting address from which data will be read
 319:.\Generated_Source\PSoC5/ETH0.c ****  * \returns the 16-bit value read from the memory.
 320:.\Generated_Source\PSoC5/ETH0.c ****  */
 321:.\Generated_Source\PSoC5/ETH0.c **** static uint16 ETH0_W51_Read16( uint16 addr )
 322:.\Generated_Source\PSoC5/ETH0.c **** {
 513              		.loc 1 322 0
 514              		.cfi_startproc
 515              		@ args = 0, pretend = 0, frame = 16
 516              		@ frame_needed = 1, uses_anonymous_args = 0
 517 0000 80B5     		push	{r7, lr}
 518              	.LCFI23:
 519              		.cfi_def_cfa_offset 8
 520              		.cfi_offset 7, -8
ARM GAS  C:\Users\CHUCK~1.ERH\AppData\Local\Temp\ccSfgJB7.s 			page 16


 521              		.cfi_offset 14, -4
 522 0002 84B0     		sub	sp, sp, #16
 523              	.LCFI24:
 524              		.cfi_def_cfa_offset 24
 525 0004 00AF     		add	r7, sp, #0
 526              	.LCFI25:
 527              		.cfi_def_cfa_register 7
 528 0006 0346     		mov	r3, r0
 529 0008 FB80     		strh	r3, [r7, #6]	@ movhi
 323:.\Generated_Source\PSoC5/ETH0.c **** 	uint16 val;
 324:.\Generated_Source\PSoC5/ETH0.c **** 	
 325:.\Generated_Source\PSoC5/ETH0.c **** 	val = ETH0_W51_Read( addr );
 530              		.loc 1 325 0
 531 000a FB88     		ldrh	r3, [r7, #6]
 532 000c 1846     		mov	r0, r3
 533 000e FFF7FEFF 		bl	ETH0_W51_Read
 534 0012 0346     		mov	r3, r0
 535 0014 FB81     		strh	r3, [r7, #14]	@ movhi
 326:.\Generated_Source\PSoC5/ETH0.c **** 	val <<= 8;
 536              		.loc 1 326 0
 537 0016 FB89     		ldrh	r3, [r7, #14]	@ movhi
 538 0018 4FEA0323 		lsl	r3, r3, #8
 539 001c FB81     		strh	r3, [r7, #14]	@ movhi
 327:.\Generated_Source\PSoC5/ETH0.c **** 	val += ETH0_W51_Read( addr + 1);
 540              		.loc 1 327 0
 541 001e FB88     		ldrh	r3, [r7, #6]	@ movhi
 542 0020 03F10103 		add	r3, r3, #1
 543 0024 9BB2     		uxth	r3, r3
 544 0026 1846     		mov	r0, r3
 545 0028 FFF7FEFF 		bl	ETH0_W51_Read
 546 002c 0346     		mov	r3, r0
 547 002e 1A46     		mov	r2, r3
 548 0030 FB89     		ldrh	r3, [r7, #14]	@ movhi
 549 0032 D318     		adds	r3, r2, r3
 550 0034 FB81     		strh	r3, [r7, #14]	@ movhi
 328:.\Generated_Source\PSoC5/ETH0.c **** 	
 329:.\Generated_Source\PSoC5/ETH0.c **** 	return( val );
 551              		.loc 1 329 0
 552 0036 FB89     		ldrh	r3, [r7, #14]
 330:.\Generated_Source\PSoC5/ETH0.c **** }
 553              		.loc 1 330 0
 554 0038 1846     		mov	r0, r3
 555 003a 07F11007 		add	r7, r7, #16
 556 003e BD46     		mov	sp, r7
 557 0040 80BD     		pop	{r7, pc}
 558              		.cfi_endproc
 559              	.LFE8:
 560              		.size	ETH0_W51_Read16, .-ETH0_W51_Read16
 561 0042 00BF     		.section	.text.ETH0_W51_WriteBlock,"ax",%progbits
 562              		.align	2
 563              		.thumb
 564              		.thumb_func
 565              		.type	ETH0_W51_WriteBlock, %function
 566              	ETH0_W51_WriteBlock:
 567              	.LFB9:
 331:.\Generated_Source\PSoC5/ETH0.c **** /* ------------------------------------------------------------------------ */
 332:.\Generated_Source\PSoC5/ETH0.c **** /**
ARM GAS  C:\Users\CHUCK~1.ERH\AppData\Local\Temp\ccSfgJB7.s 			page 17


 333:.\Generated_Source\PSoC5/ETH0.c ****  * \brief Write a block of data to consecutive memory addresses
 334:.\Generated_Source\PSoC5/ETH0.c ****  * \param addr the starting address of the write
 335:.\Generated_Source\PSoC5/ETH0.c ****  * \param *buffer pointer to the data buffer holding the data to write
 336:.\Generated_Source\PSoC5/ETH0.c ****  * \param length the length of data to be written
 337:.\Generated_Source\PSoC5/ETH0.c ****  */
 338:.\Generated_Source\PSoC5/ETH0.c **** static void ETH0_W51_WriteBlock(uint16 addr, uint8* buffer, uint16 length)
 339:.\Generated_Source\PSoC5/ETH0.c **** {
 568              		.loc 1 339 0
 569              		.cfi_startproc
 570              		@ args = 0, pretend = 0, frame = 16
 571              		@ frame_needed = 1, uses_anonymous_args = 0
 572 0000 80B5     		push	{r7, lr}
 573              	.LCFI26:
 574              		.cfi_def_cfa_offset 8
 575              		.cfi_offset 7, -8
 576              		.cfi_offset 14, -4
 577 0002 84B0     		sub	sp, sp, #16
 578              	.LCFI27:
 579              		.cfi_def_cfa_offset 24
 580 0004 00AF     		add	r7, sp, #0
 581              	.LCFI28:
 582              		.cfi_def_cfa_register 7
 583 0006 3960     		str	r1, [r7, #0]
 584 0008 1346     		mov	r3, r2
 585 000a 0246     		mov	r2, r0	@ movhi
 586 000c FA80     		strh	r2, [r7, #6]	@ movhi
 587 000e BB80     		strh	r3, [r7, #4]	@ movhi
 340:.\Generated_Source\PSoC5/ETH0.c **** 	int index;
 341:.\Generated_Source\PSoC5/ETH0.c **** 	for(index=0;index<length;++index) {
 588              		.loc 1 341 0
 589 0010 4FF00003 		mov	r3, #0
 590 0014 FB60     		str	r3, [r7, #12]
 591 0016 10E0     		b	.L24
 592              	.L25:
 342:.\Generated_Source\PSoC5/ETH0.c **** 		ETH0_W51_Write(addr+index,buffer[index]);
 593              		.loc 1 342 0 discriminator 2
 594 0018 FB68     		ldr	r3, [r7, #12]
 595 001a 9AB2     		uxth	r2, r3
 596 001c FB88     		ldrh	r3, [r7, #6]	@ movhi
 597 001e D318     		adds	r3, r2, r3
 598 0020 9AB2     		uxth	r2, r3
 599 0022 FB68     		ldr	r3, [r7, #12]
 600 0024 3968     		ldr	r1, [r7, #0]
 601 0026 CB18     		adds	r3, r1, r3
 602 0028 1B78     		ldrb	r3, [r3, #0]	@ zero_extendqisi2
 603 002a 1046     		mov	r0, r2
 604 002c 1946     		mov	r1, r3
 605 002e FFF7FEFF 		bl	ETH0_W51_Write
 341:.\Generated_Source\PSoC5/ETH0.c **** 	for(index=0;index<length;++index) {
 606              		.loc 1 341 0 discriminator 2
 607 0032 FB68     		ldr	r3, [r7, #12]
 608 0034 03F10103 		add	r3, r3, #1
 609 0038 FB60     		str	r3, [r7, #12]
 610              	.L24:
 341:.\Generated_Source\PSoC5/ETH0.c **** 	for(index=0;index<length;++index) {
 611              		.loc 1 341 0 is_stmt 0 discriminator 1
 612 003a BA88     		ldrh	r2, [r7, #4]
ARM GAS  C:\Users\CHUCK~1.ERH\AppData\Local\Temp\ccSfgJB7.s 			page 18


 613 003c FB68     		ldr	r3, [r7, #12]
 614 003e 9A42     		cmp	r2, r3
 615 0040 EADC     		bgt	.L25
 343:.\Generated_Source\PSoC5/ETH0.c **** 	}
 344:.\Generated_Source\PSoC5/ETH0.c **** }
 616              		.loc 1 344 0 is_stmt 1
 617 0042 07F11007 		add	r7, r7, #16
 618 0046 BD46     		mov	sp, r7
 619 0048 80BD     		pop	{r7, pc}
 620              		.cfi_endproc
 621              	.LFE9:
 622              		.size	ETH0_W51_WriteBlock, .-ETH0_W51_WriteBlock
 623 004a 00BF     		.section	.text.ETH0_W51_ReadBlock,"ax",%progbits
 624              		.align	2
 625              		.thumb
 626              		.thumb_func
 627              		.type	ETH0_W51_ReadBlock, %function
 628              	ETH0_W51_ReadBlock:
 629              	.LFB10:
 345:.\Generated_Source\PSoC5/ETH0.c **** /* ------------------------------------------------------------------------ */
 346:.\Generated_Source\PSoC5/ETH0.c **** /**
 347:.\Generated_Source\PSoC5/ETH0.c ****  * \brief read a block of data from consecutive memory addresses
 348:.\Generated_Source\PSoC5/ETH0.c ****  * \param addr the address from which the read will begin
 349:.\Generated_Source\PSoC5/ETH0.c ****  * \param *buffer pointer to the memory buffer which will hold the read data
 350:.\Generated_Source\PSoC5/ETH0.c ****  * \param length the length of data to read from the buffer.
 351:.\Generated_Source\PSoC5/ETH0.c ****  */
 352:.\Generated_Source\PSoC5/ETH0.c **** static void ETH0_W51_ReadBlock(uint16 addr, uint8* buffer, uint16 length)
 353:.\Generated_Source\PSoC5/ETH0.c **** {
 630              		.loc 1 353 0
 631              		.cfi_startproc
 632              		@ args = 0, pretend = 0, frame = 16
 633              		@ frame_needed = 1, uses_anonymous_args = 0
 634 0000 90B5     		push	{r4, r7, lr}
 635              	.LCFI29:
 636              		.cfi_def_cfa_offset 12
 637              		.cfi_offset 4, -12
 638              		.cfi_offset 7, -8
 639              		.cfi_offset 14, -4
 640 0002 85B0     		sub	sp, sp, #20
 641              	.LCFI30:
 642              		.cfi_def_cfa_offset 32
 643 0004 00AF     		add	r7, sp, #0
 644              	.LCFI31:
 645              		.cfi_def_cfa_register 7
 646 0006 3960     		str	r1, [r7, #0]
 647 0008 1346     		mov	r3, r2
 648 000a 0246     		mov	r2, r0	@ movhi
 649 000c FA80     		strh	r2, [r7, #6]	@ movhi
 650 000e BB80     		strh	r3, [r7, #4]	@ movhi
 354:.\Generated_Source\PSoC5/ETH0.c **** 	int index;
 355:.\Generated_Source\PSoC5/ETH0.c **** 	
 356:.\Generated_Source\PSoC5/ETH0.c **** 	for(index=0;index<length;++index) {
 651              		.loc 1 356 0
 652 0010 4FF00003 		mov	r3, #0
 653 0014 FB60     		str	r3, [r7, #12]
 654 0016 10E0     		b	.L27
 655              	.L28:
ARM GAS  C:\Users\CHUCK~1.ERH\AppData\Local\Temp\ccSfgJB7.s 			page 19


 357:.\Generated_Source\PSoC5/ETH0.c **** 		buffer[index] = ETH0_W51_Read(addr+index);
 656              		.loc 1 357 0 discriminator 2
 657 0018 FB68     		ldr	r3, [r7, #12]
 658 001a 3A68     		ldr	r2, [r7, #0]
 659 001c D418     		adds	r4, r2, r3
 660 001e FB68     		ldr	r3, [r7, #12]
 661 0020 9AB2     		uxth	r2, r3
 662 0022 FB88     		ldrh	r3, [r7, #6]	@ movhi
 663 0024 D318     		adds	r3, r2, r3
 664 0026 9BB2     		uxth	r3, r3
 665 0028 1846     		mov	r0, r3
 666 002a FFF7FEFF 		bl	ETH0_W51_Read
 667 002e 0346     		mov	r3, r0
 668 0030 2370     		strb	r3, [r4, #0]
 356:.\Generated_Source\PSoC5/ETH0.c **** 	for(index=0;index<length;++index) {
 669              		.loc 1 356 0 discriminator 2
 670 0032 FB68     		ldr	r3, [r7, #12]
 671 0034 03F10103 		add	r3, r3, #1
 672 0038 FB60     		str	r3, [r7, #12]
 673              	.L27:
 356:.\Generated_Source\PSoC5/ETH0.c **** 	for(index=0;index<length;++index) {
 674              		.loc 1 356 0 is_stmt 0 discriminator 1
 675 003a BA88     		ldrh	r2, [r7, #4]
 676 003c FB68     		ldr	r3, [r7, #12]
 677 003e 9A42     		cmp	r2, r3
 678 0040 EADC     		bgt	.L28
 358:.\Generated_Source\PSoC5/ETH0.c **** 	}
 359:.\Generated_Source\PSoC5/ETH0.c **** }
 679              		.loc 1 359 0 is_stmt 1
 680 0042 07F11407 		add	r7, r7, #20
 681 0046 BD46     		mov	sp, r7
 682 0048 90BD     		pop	{r4, r7, pc}
 683              		.cfi_endproc
 684              	.LFE10:
 685              		.size	ETH0_W51_ReadBlock, .-ETH0_W51_ReadBlock
 686 004a 00BF     		.section	.text.ETH0_SetSourceMAC,"ax",%progbits
 687              		.align	2
 688              		.thumb
 689              		.thumb_func
 690              		.type	ETH0_SetSourceMAC, %function
 691              	ETH0_SetSourceMAC:
 692              	.LFB11:
 360:.\Generated_Source\PSoC5/ETH0.c **** /* ======================================================================== */
 361:.\Generated_Source\PSoC5/ETH0.c **** /* END SECTION */
 362:.\Generated_Source\PSoC5/ETH0.c **** #endif
 363:.\Generated_Source\PSoC5/ETH0.c **** /* ======================================================================== */
 364:.\Generated_Source\PSoC5/ETH0.c **** /* Chip Register access */
 365:.\Generated_Source\PSoC5/ETH0.c **** #if (1)
 366:.\Generated_Source\PSoC5/ETH0.c **** // Common Registers
 367:.\Generated_Source\PSoC5/ETH0.c **** /* ------------------------------------------------------------------------ */
 368:.\Generated_Source\PSoC5/ETH0.c **** /**
 369:.\Generated_Source\PSoC5/ETH0.c ****  * \brief Set teh chip mac address to teh specified address
 370:.\Generated_Source\PSoC5/ETH0.c ****  * \param *mac pointer to the array holding the MAC address
 371:.\Generated_Source\PSoC5/ETH0.c ****  */
 372:.\Generated_Source\PSoC5/ETH0.c **** static void ETH0_SetSourceMAC( uint8* mac ) { ETH0_W51_SetMAC(9,mac); }
 693              		.loc 1 372 0
 694              		.cfi_startproc
ARM GAS  C:\Users\CHUCK~1.ERH\AppData\Local\Temp\ccSfgJB7.s 			page 20


 695              		@ args = 0, pretend = 0, frame = 8
 696              		@ frame_needed = 1, uses_anonymous_args = 0
 697 0000 80B5     		push	{r7, lr}
 698              	.LCFI32:
 699              		.cfi_def_cfa_offset 8
 700              		.cfi_offset 7, -8
 701              		.cfi_offset 14, -4
 702 0002 82B0     		sub	sp, sp, #8
 703              	.LCFI33:
 704              		.cfi_def_cfa_offset 16
 705 0004 00AF     		add	r7, sp, #0
 706              	.LCFI34:
 707              		.cfi_def_cfa_register 7
 708 0006 7860     		str	r0, [r7, #4]
 709              		.loc 1 372 0
 710 0008 4FF00900 		mov	r0, #9
 711 000c 7968     		ldr	r1, [r7, #4]
 712 000e FFF7FEFF 		bl	ETH0_W51_SetMAC
 713 0012 07F10807 		add	r7, r7, #8
 714 0016 BD46     		mov	sp, r7
 715 0018 80BD     		pop	{r7, pc}
 716              		.cfi_endproc
 717              	.LFE11:
 718              		.size	ETH0_SetSourceMAC, .-ETH0_SetSourceMAC
 719 001a 00BF     		.section	.text.ETH0_GetSourceMAC,"ax",%progbits
 720              		.align	2
 721              		.thumb
 722              		.thumb_func
 723              		.type	ETH0_GetSourceMAC, %function
 724              	ETH0_GetSourceMAC:
 725              	.LFB12:
 373:.\Generated_Source\PSoC5/ETH0.c **** /* ------------------------------------------------------------------------ */
 374:.\Generated_Source\PSoC5/ETH0.c **** /**
 375:.\Generated_Source\PSoC5/ETH0.c ****  * \brief Read the chip source MAC address from the MAC registers
 376:.\Generated_Source\PSoC5/ETH0.c ****  * \param *mac pointer to the address of the buffer to hold the read MAC address
 377:.\Generated_Source\PSoC5/ETH0.c ****  */
 378:.\Generated_Source\PSoC5/ETH0.c **** static void ETH0_GetSourceMAC( uint8* mac ) { ETH0_W51_GetMAC(9,mac); }
 726              		.loc 1 378 0
 727              		.cfi_startproc
 728              		@ args = 0, pretend = 0, frame = 8
 729              		@ frame_needed = 1, uses_anonymous_args = 0
 730 0000 80B5     		push	{r7, lr}
 731              	.LCFI35:
 732              		.cfi_def_cfa_offset 8
 733              		.cfi_offset 7, -8
 734              		.cfi_offset 14, -4
 735 0002 82B0     		sub	sp, sp, #8
 736              	.LCFI36:
 737              		.cfi_def_cfa_offset 16
 738 0004 00AF     		add	r7, sp, #0
 739              	.LCFI37:
 740              		.cfi_def_cfa_register 7
 741 0006 7860     		str	r0, [r7, #4]
 742              		.loc 1 378 0
 743 0008 4FF00900 		mov	r0, #9
 744 000c 7968     		ldr	r1, [r7, #4]
 745 000e FFF7FEFF 		bl	ETH0_W51_GetMAC
ARM GAS  C:\Users\CHUCK~1.ERH\AppData\Local\Temp\ccSfgJB7.s 			page 21


 746 0012 07F10807 		add	r7, r7, #8
 747 0016 BD46     		mov	sp, r7
 748 0018 80BD     		pop	{r7, pc}
 749              		.cfi_endproc
 750              	.LFE12:
 751              		.size	ETH0_GetSourceMAC, .-ETH0_GetSourceMAC
 752 001a 00BF     		.section	.text.ETH0_SetGatewayAddress,"ax",%progbits
 753              		.align	2
 754              		.thumb
 755              		.thumb_func
 756              		.type	ETH0_SetGatewayAddress, %function
 757              	ETH0_SetGatewayAddress:
 758              	.LFB13:
 379:.\Generated_Source\PSoC5/ETH0.c **** /* ------------------------------------------------------------------------ */
 380:.\Generated_Source\PSoC5/ETH0.c **** /**
 381:.\Generated_Source\PSoC5/ETH0.c ****  * \brief Set the IPv4 address of the network gateway
 382:.\Generated_Source\PSoC5/ETH0.c ****  * \param ip IP address of the gateway
 383:.\Generated_Source\PSoC5/ETH0.c ****  */
 384:.\Generated_Source\PSoC5/ETH0.c **** static void ETH0_SetGatewayAddress(uint32 ip) { ETH0_W51_SetIP(1,ip); }
 759              		.loc 1 384 0
 760              		.cfi_startproc
 761              		@ args = 0, pretend = 0, frame = 8
 762              		@ frame_needed = 1, uses_anonymous_args = 0
 763 0000 80B5     		push	{r7, lr}
 764              	.LCFI38:
 765              		.cfi_def_cfa_offset 8
 766              		.cfi_offset 7, -8
 767              		.cfi_offset 14, -4
 768 0002 82B0     		sub	sp, sp, #8
 769              	.LCFI39:
 770              		.cfi_def_cfa_offset 16
 771 0004 00AF     		add	r7, sp, #0
 772              	.LCFI40:
 773              		.cfi_def_cfa_register 7
 774 0006 7860     		str	r0, [r7, #4]
 775              		.loc 1 384 0
 776 0008 4FF00100 		mov	r0, #1
 777 000c 7968     		ldr	r1, [r7, #4]
 778 000e FFF7FEFF 		bl	ETH0_W51_SetIP
 779 0012 07F10807 		add	r7, r7, #8
 780 0016 BD46     		mov	sp, r7
 781 0018 80BD     		pop	{r7, pc}
 782              		.cfi_endproc
 783              	.LFE13:
 784              		.size	ETH0_SetGatewayAddress, .-ETH0_SetGatewayAddress
 785 001a 00BF     		.section	.text.ETH0_GetGatewayAddress,"ax",%progbits
 786              		.align	2
 787              		.thumb
 788              		.thumb_func
 789              		.type	ETH0_GetGatewayAddress, %function
 790              	ETH0_GetGatewayAddress:
 791              	.LFB14:
 385:.\Generated_Source\PSoC5/ETH0.c **** /* ------------------------------------------------------------------------ */
 386:.\Generated_Source\PSoC5/ETH0.c **** /**
 387:.\Generated_Source\PSoC5/ETH0.c ****  * \brief Read the gateway address from the device
 388:.\Generated_Source\PSoC5/ETH0.c ****  * \returns the IP address of the gateway
 389:.\Generated_Source\PSoC5/ETH0.c ****  */
ARM GAS  C:\Users\CHUCK~1.ERH\AppData\Local\Temp\ccSfgJB7.s 			page 22


 390:.\Generated_Source\PSoC5/ETH0.c **** static uint32 ETH0_GetGatewayAddress( void ) { return ETH0_W51_GetIP(1); }
 792              		.loc 1 390 0
 793              		.cfi_startproc
 794              		@ args = 0, pretend = 0, frame = 0
 795              		@ frame_needed = 1, uses_anonymous_args = 0
 796 0000 80B5     		push	{r7, lr}
 797              	.LCFI41:
 798              		.cfi_def_cfa_offset 8
 799              		.cfi_offset 7, -8
 800              		.cfi_offset 14, -4
 801 0002 00AF     		add	r7, sp, #0
 802              	.LCFI42:
 803              		.cfi_def_cfa_register 7
 804              		.loc 1 390 0
 805 0004 4FF00100 		mov	r0, #1
 806 0008 FFF7FEFF 		bl	ETH0_W51_GetIP
 807 000c 0346     		mov	r3, r0
 808 000e 1846     		mov	r0, r3
 809 0010 80BD     		pop	{r7, pc}
 810              		.cfi_endproc
 811              	.LFE14:
 812              		.size	ETH0_GetGatewayAddress, .-ETH0_GetGatewayAddress
 813 0012 00BF     		.section	.text.ETH0_SetSubnetMask,"ax",%progbits
 814              		.align	2
 815              		.thumb
 816              		.thumb_func
 817              		.type	ETH0_SetSubnetMask, %function
 818              	ETH0_SetSubnetMask:
 819              	.LFB15:
 391:.\Generated_Source\PSoC5/ETH0.c **** /* ------------------------------------------------------------------------ */
 392:.\Generated_Source\PSoC5/ETH0.c **** /**
 393:.\Generated_Source\PSoC5/ETH0.c ****  * \brief set the subnet mask of the ethernet device
 394:.\Generated_Source\PSoC5/ETH0.c ****  * \param the subnet mask (IPv4)
 395:.\Generated_Source\PSoC5/ETH0.c ****  */
 396:.\Generated_Source\PSoC5/ETH0.c **** static void ETH0_SetSubnetMask( uint32 ip ) { ETH0_W51_SetIP(5, ip); }
 820              		.loc 1 396 0
 821              		.cfi_startproc
 822              		@ args = 0, pretend = 0, frame = 8
 823              		@ frame_needed = 1, uses_anonymous_args = 0
 824 0000 80B5     		push	{r7, lr}
 825              	.LCFI43:
 826              		.cfi_def_cfa_offset 8
 827              		.cfi_offset 7, -8
 828              		.cfi_offset 14, -4
 829 0002 82B0     		sub	sp, sp, #8
 830              	.LCFI44:
 831              		.cfi_def_cfa_offset 16
 832 0004 00AF     		add	r7, sp, #0
 833              	.LCFI45:
 834              		.cfi_def_cfa_register 7
 835 0006 7860     		str	r0, [r7, #4]
 836              		.loc 1 396 0
 837 0008 4FF00500 		mov	r0, #5
 838 000c 7968     		ldr	r1, [r7, #4]
 839 000e FFF7FEFF 		bl	ETH0_W51_SetIP
 840 0012 07F10807 		add	r7, r7, #8
 841 0016 BD46     		mov	sp, r7
ARM GAS  C:\Users\CHUCK~1.ERH\AppData\Local\Temp\ccSfgJB7.s 			page 23


 842 0018 80BD     		pop	{r7, pc}
 843              		.cfi_endproc
 844              	.LFE15:
 845              		.size	ETH0_SetSubnetMask, .-ETH0_SetSubnetMask
 846 001a 00BF     		.section	.text.ETH0_GetSubnetMask,"ax",%progbits
 847              		.align	2
 848              		.thumb
 849              		.thumb_func
 850              		.type	ETH0_GetSubnetMask, %function
 851              	ETH0_GetSubnetMask:
 852              	.LFB16:
 397:.\Generated_Source\PSoC5/ETH0.c **** /* ------------------------------------------------------------------------ */
 398:.\Generated_Source\PSoC5/ETH0.c **** /**
 399:.\Generated_Source\PSoC5/ETH0.c ****  * \brief Read the subnet mask from the device
 400:.\Generated_Source\PSoC5/ETH0.c ****  * \returns the subnet mask that was read from the device.
 401:.\Generated_Source\PSoC5/ETH0.c ****  */
 402:.\Generated_Source\PSoC5/ETH0.c **** static uint32 ETH0_GetSubnetMask( void ) { return ETH0_W51_GetIP(5); }
 853              		.loc 1 402 0
 854              		.cfi_startproc
 855              		@ args = 0, pretend = 0, frame = 0
 856              		@ frame_needed = 1, uses_anonymous_args = 0
 857 0000 80B5     		push	{r7, lr}
 858              	.LCFI46:
 859              		.cfi_def_cfa_offset 8
 860              		.cfi_offset 7, -8
 861              		.cfi_offset 14, -4
 862 0002 00AF     		add	r7, sp, #0
 863              	.LCFI47:
 864              		.cfi_def_cfa_register 7
 865              		.loc 1 402 0
 866 0004 4FF00500 		mov	r0, #5
 867 0008 FFF7FEFF 		bl	ETH0_W51_GetIP
 868 000c 0346     		mov	r3, r0
 869 000e 1846     		mov	r0, r3
 870 0010 80BD     		pop	{r7, pc}
 871              		.cfi_endproc
 872              	.LFE16:
 873              		.size	ETH0_GetSubnetMask, .-ETH0_GetSubnetMask
 874 0012 00BF     		.section	.text.ETH0_SetSourceIP,"ax",%progbits
 875              		.align	2
 876              		.thumb
 877              		.thumb_func
 878              		.type	ETH0_SetSourceIP, %function
 879              	ETH0_SetSourceIP:
 880              	.LFB17:
 403:.\Generated_Source\PSoC5/ETH0.c **** /* ------------------------------------------------------------------------ */
 404:.\Generated_Source\PSoC5/ETH0.c **** /**
 405:.\Generated_Source\PSoC5/ETH0.c ****  * \brief Write the device source IPv4 address
 406:.\Generated_Source\PSoC5/ETH0.c ****  * \param ip the ip address to set as the chip IP address
 407:.\Generated_Source\PSoC5/ETH0.c ****  */
 408:.\Generated_Source\PSoC5/ETH0.c **** static void ETH0_SetSourceIP( uint32 ip ) { ETH0_W51_SetIP( 0x0F, ip ); }
 881              		.loc 1 408 0
 882              		.cfi_startproc
 883              		@ args = 0, pretend = 0, frame = 8
 884              		@ frame_needed = 1, uses_anonymous_args = 0
 885 0000 80B5     		push	{r7, lr}
 886              	.LCFI48:
ARM GAS  C:\Users\CHUCK~1.ERH\AppData\Local\Temp\ccSfgJB7.s 			page 24


 887              		.cfi_def_cfa_offset 8
 888              		.cfi_offset 7, -8
 889              		.cfi_offset 14, -4
 890 0002 82B0     		sub	sp, sp, #8
 891              	.LCFI49:
 892              		.cfi_def_cfa_offset 16
 893 0004 00AF     		add	r7, sp, #0
 894              	.LCFI50:
 895              		.cfi_def_cfa_register 7
 896 0006 7860     		str	r0, [r7, #4]
 897              		.loc 1 408 0
 898 0008 4FF00F00 		mov	r0, #15
 899 000c 7968     		ldr	r1, [r7, #4]
 900 000e FFF7FEFF 		bl	ETH0_W51_SetIP
 901 0012 07F10807 		add	r7, r7, #8
 902 0016 BD46     		mov	sp, r7
 903 0018 80BD     		pop	{r7, pc}
 904              		.cfi_endproc
 905              	.LFE17:
 906              		.size	ETH0_SetSourceIP, .-ETH0_SetSourceIP
 907 001a 00BF     		.section	.text.ETH0_GetSourceIP,"ax",%progbits
 908              		.align	2
 909              		.thumb
 910              		.thumb_func
 911              		.type	ETH0_GetSourceIP, %function
 912              	ETH0_GetSourceIP:
 913              	.LFB18:
 409:.\Generated_Source\PSoC5/ETH0.c **** /* ------------------------------------------------------------------------ */
 410:.\Generated_Source\PSoC5/ETH0.c **** /**
 411:.\Generated_Source\PSoC5/ETH0.c ****  * \brief Read the device's programmed IP address
 412:.\Generated_Source\PSoC5/ETH0.c ****  * \returns The IPv4 address to which the device is set.
 413:.\Generated_Source\PSoC5/ETH0.c ****  */
 414:.\Generated_Source\PSoC5/ETH0.c **** static uint32 ETH0_GetSourceIP( void ) { return ETH0_W51_GetIP( 0x0F ); }
 914              		.loc 1 414 0
 915              		.cfi_startproc
 916              		@ args = 0, pretend = 0, frame = 0
 917              		@ frame_needed = 1, uses_anonymous_args = 0
 918 0000 80B5     		push	{r7, lr}
 919              	.LCFI51:
 920              		.cfi_def_cfa_offset 8
 921              		.cfi_offset 7, -8
 922              		.cfi_offset 14, -4
 923 0002 00AF     		add	r7, sp, #0
 924              	.LCFI52:
 925              		.cfi_def_cfa_register 7
 926              		.loc 1 414 0
 927 0004 4FF00F00 		mov	r0, #15
 928 0008 FFF7FEFF 		bl	ETH0_W51_GetIP
 929 000c 0346     		mov	r3, r0
 930 000e 1846     		mov	r0, r3
 931 0010 80BD     		pop	{r7, pc}
 932              		.cfi_endproc
 933              	.LFE18:
 934              		.size	ETH0_GetSourceIP, .-ETH0_GetSourceIP
 935 0012 00BF     		.section	.text.ETH0_SetMode,"ax",%progbits
 936              		.align	2
 937              		.thumb
ARM GAS  C:\Users\CHUCK~1.ERH\AppData\Local\Temp\ccSfgJB7.s 			page 25


 938              		.thumb_func
 939              		.type	ETH0_SetMode, %function
 940              	ETH0_SetMode:
 941              	.LFB19:
 415:.\Generated_Source\PSoC5/ETH0.c **** /* ------------------------------------------------------------------------ */
 416:.\Generated_Source\PSoC5/ETH0.c **** /**
 417:.\Generated_Source\PSoC5/ETH0.c ****  * \brief Write a value to the device internal MODE register
 418:.\Generated_Source\PSoC5/ETH0.c ****  * \param mode the value to be written to the mode register.
 419:.\Generated_Source\PSoC5/ETH0.c ****  */
 420:.\Generated_Source\PSoC5/ETH0.c **** static void ETH0_SetMode( uint8 mode ) { ETH0_W51_Write(0,mode); }
 942              		.loc 1 420 0
 943              		.cfi_startproc
 944              		@ args = 0, pretend = 0, frame = 8
 945              		@ frame_needed = 1, uses_anonymous_args = 0
 946 0000 80B5     		push	{r7, lr}
 947              	.LCFI53:
 948              		.cfi_def_cfa_offset 8
 949              		.cfi_offset 7, -8
 950              		.cfi_offset 14, -4
 951 0002 82B0     		sub	sp, sp, #8
 952              	.LCFI54:
 953              		.cfi_def_cfa_offset 16
 954 0004 00AF     		add	r7, sp, #0
 955              	.LCFI55:
 956              		.cfi_def_cfa_register 7
 957 0006 0346     		mov	r3, r0
 958 0008 FB71     		strb	r3, [r7, #7]
 959              		.loc 1 420 0
 960 000a FB79     		ldrb	r3, [r7, #7]	@ zero_extendqisi2
 961 000c 4FF00000 		mov	r0, #0
 962 0010 1946     		mov	r1, r3
 963 0012 FFF7FEFF 		bl	ETH0_W51_Write
 964 0016 07F10807 		add	r7, r7, #8
 965 001a BD46     		mov	sp, r7
 966 001c 80BD     		pop	{r7, pc}
 967              		.cfi_endproc
 968              	.LFE19:
 969              		.size	ETH0_SetMode, .-ETH0_SetMode
 970 001e 00BF     		.section	.text.ETH0_GetMode,"ax",%progbits
 971              		.align	2
 972              		.thumb
 973              		.thumb_func
 974              		.type	ETH0_GetMode, %function
 975              	ETH0_GetMode:
 976              	.LFB20:
 421:.\Generated_Source\PSoC5/ETH0.c **** /* ------------------------------------------------------------------------ */
 422:.\Generated_Source\PSoC5/ETH0.c **** /**
 423:.\Generated_Source\PSoC5/ETH0.c ****  * \brief Read the present contents of the device internal mode register
 424:.\Generated_Source\PSoC5/ETH0.c ****  * \returns the value of the mode register
 425:.\Generated_Source\PSoC5/ETH0.c ****  */
 426:.\Generated_Source\PSoC5/ETH0.c **** static uint8 ETH0_GetMode( void ) { return ETH0_W51_Read(0); }
 977              		.loc 1 426 0
 978              		.cfi_startproc
 979              		@ args = 0, pretend = 0, frame = 0
 980              		@ frame_needed = 1, uses_anonymous_args = 0
 981 0000 80B5     		push	{r7, lr}
 982              	.LCFI56:
ARM GAS  C:\Users\CHUCK~1.ERH\AppData\Local\Temp\ccSfgJB7.s 			page 26


 983              		.cfi_def_cfa_offset 8
 984              		.cfi_offset 7, -8
 985              		.cfi_offset 14, -4
 986 0002 00AF     		add	r7, sp, #0
 987              	.LCFI57:
 988              		.cfi_def_cfa_register 7
 989              		.loc 1 426 0
 990 0004 4FF00000 		mov	r0, #0
 991 0008 FFF7FEFF 		bl	ETH0_W51_Read
 992 000c 0346     		mov	r3, r0
 993 000e 1846     		mov	r0, r3
 994 0010 80BD     		pop	{r7, pc}
 995              		.cfi_endproc
 996              	.LFE20:
 997              		.size	ETH0_GetMode, .-ETH0_GetMode
 998 0012 00BF     		.section	.text.ETH0_SetIR,"ax",%progbits
 999              		.align	2
 1000              		.thumb
 1001              		.thumb_func
 1002              		.type	ETH0_SetIR, %function
 1003              	ETH0_SetIR:
 1004              	.LFB21:
 427:.\Generated_Source\PSoC5/ETH0.c **** /* ------------------------------------------------------------------------ */
 428:.\Generated_Source\PSoC5/ETH0.c **** /**
 429:.\Generated_Source\PSoC5/ETH0.c ****  * \brief Write the value of the interrupt register
 430:.\Generated_Source\PSoC5/ETH0.c ****  * \param ir the value to be written to the interrupt register
 431:.\Generated_Source\PSoC5/ETH0.c ****  */
 432:.\Generated_Source\PSoC5/ETH0.c **** static void ETH0_SetIR( uint8 ir ) { ETH0_W51_Write(0x0015,ir); }
 1005              		.loc 1 432 0
 1006              		.cfi_startproc
 1007              		@ args = 0, pretend = 0, frame = 8
 1008              		@ frame_needed = 1, uses_anonymous_args = 0
 1009 0000 80B5     		push	{r7, lr}
 1010              	.LCFI58:
 1011              		.cfi_def_cfa_offset 8
 1012              		.cfi_offset 7, -8
 1013              		.cfi_offset 14, -4
 1014 0002 82B0     		sub	sp, sp, #8
 1015              	.LCFI59:
 1016              		.cfi_def_cfa_offset 16
 1017 0004 00AF     		add	r7, sp, #0
 1018              	.LCFI60:
 1019              		.cfi_def_cfa_register 7
 1020 0006 0346     		mov	r3, r0
 1021 0008 FB71     		strb	r3, [r7, #7]
 1022              		.loc 1 432 0
 1023 000a FB79     		ldrb	r3, [r7, #7]	@ zero_extendqisi2
 1024 000c 4FF01500 		mov	r0, #21
 1025 0010 1946     		mov	r1, r3
 1026 0012 FFF7FEFF 		bl	ETH0_W51_Write
 1027 0016 07F10807 		add	r7, r7, #8
 1028 001a BD46     		mov	sp, r7
 1029 001c 80BD     		pop	{r7, pc}
 1030              		.cfi_endproc
 1031              	.LFE21:
 1032              		.size	ETH0_SetIR, .-ETH0_SetIR
 1033 001e 00BF     		.section	.text.ETH0_GetIR,"ax",%progbits
ARM GAS  C:\Users\CHUCK~1.ERH\AppData\Local\Temp\ccSfgJB7.s 			page 27


 1034              		.align	2
 1035              		.thumb
 1036              		.thumb_func
 1037              		.type	ETH0_GetIR, %function
 1038              	ETH0_GetIR:
 1039              	.LFB22:
 433:.\Generated_Source\PSoC5/ETH0.c **** /* ------------------------------------------------------------------------ */
 434:.\Generated_Source\PSoC5/ETH0.c **** /**
 435:.\Generated_Source\PSoC5/ETH0.c ****  * \brief Read the contents of the interrupt register
 436:.\Generated_Source\PSoC5/ETH0.c ****  * \returns the contents read from the interrupt register
 437:.\Generated_Source\PSoC5/ETH0.c ****  */
 438:.\Generated_Source\PSoC5/ETH0.c **** static uint8 ETH0_GetIR( void ) { return ETH0_W51_Read(0x0015); }
 1040              		.loc 1 438 0
 1041              		.cfi_startproc
 1042              		@ args = 0, pretend = 0, frame = 0
 1043              		@ frame_needed = 1, uses_anonymous_args = 0
 1044 0000 80B5     		push	{r7, lr}
 1045              	.LCFI61:
 1046              		.cfi_def_cfa_offset 8
 1047              		.cfi_offset 7, -8
 1048              		.cfi_offset 14, -4
 1049 0002 00AF     		add	r7, sp, #0
 1050              	.LCFI62:
 1051              		.cfi_def_cfa_register 7
 1052              		.loc 1 438 0
 1053 0004 4FF01500 		mov	r0, #21
 1054 0008 FFF7FEFF 		bl	ETH0_W51_Read
 1055 000c 0346     		mov	r3, r0
 1056 000e 1846     		mov	r0, r3
 1057 0010 80BD     		pop	{r7, pc}
 1058              		.cfi_endproc
 1059              	.LFE22:
 1060              		.size	ETH0_GetIR, .-ETH0_GetIR
 1061 0012 00BF     		.section	.text.ETH0_SetIMR,"ax",%progbits
 1062              		.align	2
 1063              		.thumb
 1064              		.thumb_func
 1065              		.type	ETH0_SetIMR, %function
 1066              	ETH0_SetIMR:
 1067              	.LFB23:
 439:.\Generated_Source\PSoC5/ETH0.c **** /* ------------------------------------------------------------------------ */
 440:.\Generated_Source\PSoC5/ETH0.c **** /**
 441:.\Generated_Source\PSoC5/ETH0.c ****  * \brief Set the value of the interrupt mask register
 442:.\Generated_Source\PSoC5/ETH0.c ****  * \param imr the value to be written to the interrupt mask register
 443:.\Generated_Source\PSoC5/ETH0.c ****  */
 444:.\Generated_Source\PSoC5/ETH0.c **** static void ETH0_SetIMR( uint8 imr) { ETH0_W51_Write( 0x0016, imr ); }
 1068              		.loc 1 444 0
 1069              		.cfi_startproc
 1070              		@ args = 0, pretend = 0, frame = 8
 1071              		@ frame_needed = 1, uses_anonymous_args = 0
 1072 0000 80B5     		push	{r7, lr}
 1073              	.LCFI63:
 1074              		.cfi_def_cfa_offset 8
 1075              		.cfi_offset 7, -8
 1076              		.cfi_offset 14, -4
 1077 0002 82B0     		sub	sp, sp, #8
 1078              	.LCFI64:
ARM GAS  C:\Users\CHUCK~1.ERH\AppData\Local\Temp\ccSfgJB7.s 			page 28


 1079              		.cfi_def_cfa_offset 16
 1080 0004 00AF     		add	r7, sp, #0
 1081              	.LCFI65:
 1082              		.cfi_def_cfa_register 7
 1083 0006 0346     		mov	r3, r0
 1084 0008 FB71     		strb	r3, [r7, #7]
 1085              		.loc 1 444 0
 1086 000a FB79     		ldrb	r3, [r7, #7]	@ zero_extendqisi2
 1087 000c 4FF01600 		mov	r0, #22
 1088 0010 1946     		mov	r1, r3
 1089 0012 FFF7FEFF 		bl	ETH0_W51_Write
 1090 0016 07F10807 		add	r7, r7, #8
 1091 001a BD46     		mov	sp, r7
 1092 001c 80BD     		pop	{r7, pc}
 1093              		.cfi_endproc
 1094              	.LFE23:
 1095              		.size	ETH0_SetIMR, .-ETH0_SetIMR
 1096 001e 00BF     		.section	.text.ETH0_GetIMR,"ax",%progbits
 1097              		.align	2
 1098              		.thumb
 1099              		.thumb_func
 1100              		.type	ETH0_GetIMR, %function
 1101              	ETH0_GetIMR:
 1102              	.LFB24:
 445:.\Generated_Source\PSoC5/ETH0.c **** /* ------------------------------------------------------------------------ */
 446:.\Generated_Source\PSoC5/ETH0.c **** /**
 447:.\Generated_Source\PSoC5/ETH0.c ****  * \brief Read the interrupt mask register
 448:.\Generated_Source\PSoC5/ETH0.c ****  * \returns the contents of the interrupt mask register
 449:.\Generated_Source\PSoC5/ETH0.c ****  */
 450:.\Generated_Source\PSoC5/ETH0.c **** static uint8 ETH0_GetIMR( void ) { return ETH0_W51_Read( 0x0016 ); }
 1103              		.loc 1 450 0
 1104              		.cfi_startproc
 1105              		@ args = 0, pretend = 0, frame = 0
 1106              		@ frame_needed = 1, uses_anonymous_args = 0
 1107 0000 80B5     		push	{r7, lr}
 1108              	.LCFI66:
 1109              		.cfi_def_cfa_offset 8
 1110              		.cfi_offset 7, -8
 1111              		.cfi_offset 14, -4
 1112 0002 00AF     		add	r7, sp, #0
 1113              	.LCFI67:
 1114              		.cfi_def_cfa_register 7
 1115              		.loc 1 450 0
 1116 0004 4FF01600 		mov	r0, #22
 1117 0008 FFF7FEFF 		bl	ETH0_W51_Read
 1118 000c 0346     		mov	r3, r0
 1119 000e 1846     		mov	r0, r3
 1120 0010 80BD     		pop	{r7, pc}
 1121              		.cfi_endproc
 1122              	.LFE24:
 1123              		.size	ETH0_GetIMR, .-ETH0_GetIMR
 1124 0012 00BF     		.section	.text.ETH0_SetRetryTime,"ax",%progbits
 1125              		.align	2
 1126              		.thumb
 1127              		.thumb_func
 1128              		.type	ETH0_SetRetryTime, %function
 1129              	ETH0_SetRetryTime:
ARM GAS  C:\Users\CHUCK~1.ERH\AppData\Local\Temp\ccSfgJB7.s 			page 29


 1130              	.LFB25:
 451:.\Generated_Source\PSoC5/ETH0.c **** /* ------------------------------------------------------------------------ */
 452:.\Generated_Source\PSoC5/ETH0.c **** /**
 453:.\Generated_Source\PSoC5/ETH0.c ****  * \brief Write the retry time register
 454:.\Generated_Source\PSoC5/ETH0.c ****  * \param time the value to be written to the regster
 455:.\Generated_Source\PSoC5/ETH0.c ****  */
 456:.\Generated_Source\PSoC5/ETH0.c **** static void ETH0_SetRetryTime( uint16 time) { ETH0_W51_Write16( 0x0017, time ); }
 1131              		.loc 1 456 0
 1132              		.cfi_startproc
 1133              		@ args = 0, pretend = 0, frame = 8
 1134              		@ frame_needed = 1, uses_anonymous_args = 0
 1135 0000 80B5     		push	{r7, lr}
 1136              	.LCFI68:
 1137              		.cfi_def_cfa_offset 8
 1138              		.cfi_offset 7, -8
 1139              		.cfi_offset 14, -4
 1140 0002 82B0     		sub	sp, sp, #8
 1141              	.LCFI69:
 1142              		.cfi_def_cfa_offset 16
 1143 0004 00AF     		add	r7, sp, #0
 1144              	.LCFI70:
 1145              		.cfi_def_cfa_register 7
 1146 0006 0346     		mov	r3, r0
 1147 0008 FB80     		strh	r3, [r7, #6]	@ movhi
 1148              		.loc 1 456 0
 1149 000a FB88     		ldrh	r3, [r7, #6]
 1150 000c 4FF01700 		mov	r0, #23
 1151 0010 1946     		mov	r1, r3
 1152 0012 FFF7FEFF 		bl	ETH0_W51_Write16
 1153 0016 07F10807 		add	r7, r7, #8
 1154 001a BD46     		mov	sp, r7
 1155 001c 80BD     		pop	{r7, pc}
 1156              		.cfi_endproc
 1157              	.LFE25:
 1158              		.size	ETH0_SetRetryTime, .-ETH0_SetRetryTime
 1159 001e 00BF     		.section	.text.ETH0_GetRetryTime,"ax",%progbits
 1160              		.align	2
 1161              		.thumb
 1162              		.thumb_func
 1163              		.type	ETH0_GetRetryTime, %function
 1164              	ETH0_GetRetryTime:
 1165              	.LFB26:
 457:.\Generated_Source\PSoC5/ETH0.c **** /* ------------------------------------------------------------------------ */
 458:.\Generated_Source\PSoC5/ETH0.c **** /**
 459:.\Generated_Source\PSoC5/ETH0.c ****  * \brief Read the retry tie register
 460:.\Generated_Source\PSoC5/ETH0.c ****  * \returns the value read from the register
 461:.\Generated_Source\PSoC5/ETH0.c ****  */
 462:.\Generated_Source\PSoC5/ETH0.c **** static uint16 ETH0_GetRetryTime( void ) { return ETH0_W51_Read16( 0x0017 ); }
 1166              		.loc 1 462 0
 1167              		.cfi_startproc
 1168              		@ args = 0, pretend = 0, frame = 0
 1169              		@ frame_needed = 1, uses_anonymous_args = 0
 1170 0000 80B5     		push	{r7, lr}
 1171              	.LCFI71:
 1172              		.cfi_def_cfa_offset 8
 1173              		.cfi_offset 7, -8
 1174              		.cfi_offset 14, -4
ARM GAS  C:\Users\CHUCK~1.ERH\AppData\Local\Temp\ccSfgJB7.s 			page 30


 1175 0002 00AF     		add	r7, sp, #0
 1176              	.LCFI72:
 1177              		.cfi_def_cfa_register 7
 1178              		.loc 1 462 0
 1179 0004 4FF01700 		mov	r0, #23
 1180 0008 FFF7FEFF 		bl	ETH0_W51_Read16
 1181 000c 0346     		mov	r3, r0
 1182 000e 1846     		mov	r0, r3
 1183 0010 80BD     		pop	{r7, pc}
 1184              		.cfi_endproc
 1185              	.LFE26:
 1186              		.size	ETH0_GetRetryTime, .-ETH0_GetRetryTime
 1187 0012 00BF     		.section	.text.ETH0_SetRetryCount,"ax",%progbits
 1188              		.align	2
 1189              		.thumb
 1190              		.thumb_func
 1191              		.type	ETH0_SetRetryCount, %function
 1192              	ETH0_SetRetryCount:
 1193              	.LFB27:
 463:.\Generated_Source\PSoC5/ETH0.c **** /* ------------------------------------------------------------------------ */
 464:.\Generated_Source\PSoC5/ETH0.c **** /**
 465:.\Generated_Source\PSoC5/ETH0.c ****  * \breif write a value to the retry count register
 466:.\Generated_Source\PSoC5/ETH0.c ****  * \param count the value to be written to the register
 467:.\Generated_Source\PSoC5/ETH0.c ****  */
 468:.\Generated_Source\PSoC5/ETH0.c **** static void ETH0_SetRetryCount( uint8 count ) { ETH0_W51_Write( 0x0019, count); }
 1194              		.loc 1 468 0
 1195              		.cfi_startproc
 1196              		@ args = 0, pretend = 0, frame = 8
 1197              		@ frame_needed = 1, uses_anonymous_args = 0
 1198 0000 80B5     		push	{r7, lr}
 1199              	.LCFI73:
 1200              		.cfi_def_cfa_offset 8
 1201              		.cfi_offset 7, -8
 1202              		.cfi_offset 14, -4
 1203 0002 82B0     		sub	sp, sp, #8
 1204              	.LCFI74:
 1205              		.cfi_def_cfa_offset 16
 1206 0004 00AF     		add	r7, sp, #0
 1207              	.LCFI75:
 1208              		.cfi_def_cfa_register 7
 1209 0006 0346     		mov	r3, r0
 1210 0008 FB71     		strb	r3, [r7, #7]
 1211              		.loc 1 468 0
 1212 000a FB79     		ldrb	r3, [r7, #7]	@ zero_extendqisi2
 1213 000c 4FF01900 		mov	r0, #25
 1214 0010 1946     		mov	r1, r3
 1215 0012 FFF7FEFF 		bl	ETH0_W51_Write
 1216 0016 07F10807 		add	r7, r7, #8
 1217 001a BD46     		mov	sp, r7
 1218 001c 80BD     		pop	{r7, pc}
 1219              		.cfi_endproc
 1220              	.LFE27:
 1221              		.size	ETH0_SetRetryCount, .-ETH0_SetRetryCount
 1222 001e 00BF     		.section	.text.ETH0_GetRetryCount,"ax",%progbits
 1223              		.align	2
 1224              		.thumb
 1225              		.thumb_func
ARM GAS  C:\Users\CHUCK~1.ERH\AppData\Local\Temp\ccSfgJB7.s 			page 31


 1226              		.type	ETH0_GetRetryCount, %function
 1227              	ETH0_GetRetryCount:
 1228              	.LFB28:
 469:.\Generated_Source\PSoC5/ETH0.c **** /* ------------------------------------------------------------------------ */
 470:.\Generated_Source\PSoC5/ETH0.c **** /**
 471:.\Generated_Source\PSoC5/ETH0.c ****  * \brief Read the contents of the retry count register
 472:.\Generated_Source\PSoC5/ETH0.c ****  * \returns the value read from teh register
 473:.\Generated_Source\PSoC5/ETH0.c ****  */
 474:.\Generated_Source\PSoC5/ETH0.c **** static uint8 ETH0_GetRetryCount( void ) { return ETH0_W51_Read( 0x0019 ); }
 1229              		.loc 1 474 0
 1230              		.cfi_startproc
 1231              		@ args = 0, pretend = 0, frame = 0
 1232              		@ frame_needed = 1, uses_anonymous_args = 0
 1233 0000 80B5     		push	{r7, lr}
 1234              	.LCFI76:
 1235              		.cfi_def_cfa_offset 8
 1236              		.cfi_offset 7, -8
 1237              		.cfi_offset 14, -4
 1238 0002 00AF     		add	r7, sp, #0
 1239              	.LCFI77:
 1240              		.cfi_def_cfa_register 7
 1241              		.loc 1 474 0
 1242 0004 4FF01900 		mov	r0, #25
 1243 0008 FFF7FEFF 		bl	ETH0_W51_Read
 1244 000c 0346     		mov	r3, r0
 1245 000e 1846     		mov	r0, r3
 1246 0010 80BD     		pop	{r7, pc}
 1247              		.cfi_endproc
 1248              	.LFE28:
 1249              		.size	ETH0_GetRetryCount, .-ETH0_GetRetryCount
 1250 0012 00BF     		.section	.text.ETH0_SetRxMemSize,"ax",%progbits
 1251              		.align	2
 1252              		.thumb
 1253              		.thumb_func
 1254              		.type	ETH0_SetRxMemSize, %function
 1255              	ETH0_SetRxMemSize:
 1256              	.LFB29:
 475:.\Generated_Source\PSoC5/ETH0.c **** /* ------------------------------------------------------------------------ */
 476:.\Generated_Source\PSoC5/ETH0.c **** /**
 477:.\Generated_Source\PSoC5/ETH0.c ****  * \brief write a value to the Rx mem size register
 478:.\Generated_Source\PSoC5/ETH0.c ****  * \param size the value to be written to the register
 479:.\Generated_Source\PSoC5/ETH0.c ****  */
 480:.\Generated_Source\PSoC5/ETH0.c **** static void ETH0_SetRxMemSize( uint8 size ) { ETH0_W51_Write( 0x1A, size ); }
 1257              		.loc 1 480 0
 1258              		.cfi_startproc
 1259              		@ args = 0, pretend = 0, frame = 8
 1260              		@ frame_needed = 1, uses_anonymous_args = 0
 1261 0000 80B5     		push	{r7, lr}
 1262              	.LCFI78:
 1263              		.cfi_def_cfa_offset 8
 1264              		.cfi_offset 7, -8
 1265              		.cfi_offset 14, -4
 1266 0002 82B0     		sub	sp, sp, #8
 1267              	.LCFI79:
 1268              		.cfi_def_cfa_offset 16
 1269 0004 00AF     		add	r7, sp, #0
 1270              	.LCFI80:
ARM GAS  C:\Users\CHUCK~1.ERH\AppData\Local\Temp\ccSfgJB7.s 			page 32


 1271              		.cfi_def_cfa_register 7
 1272 0006 0346     		mov	r3, r0
 1273 0008 FB71     		strb	r3, [r7, #7]
 1274              		.loc 1 480 0
 1275 000a FB79     		ldrb	r3, [r7, #7]	@ zero_extendqisi2
 1276 000c 4FF01A00 		mov	r0, #26
 1277 0010 1946     		mov	r1, r3
 1278 0012 FFF7FEFF 		bl	ETH0_W51_Write
 1279 0016 07F10807 		add	r7, r7, #8
 1280 001a BD46     		mov	sp, r7
 1281 001c 80BD     		pop	{r7, pc}
 1282              		.cfi_endproc
 1283              	.LFE29:
 1284              		.size	ETH0_SetRxMemSize, .-ETH0_SetRxMemSize
 1285 001e 00BF     		.section	.text.ETH0_GetRxMemSize,"ax",%progbits
 1286              		.align	2
 1287              		.thumb
 1288              		.thumb_func
 1289              		.type	ETH0_GetRxMemSize, %function
 1290              	ETH0_GetRxMemSize:
 1291              	.LFB30:
 481:.\Generated_Source\PSoC5/ETH0.c **** /* ------------------------------------------------------------------------ */
 482:.\Generated_Source\PSoC5/ETH0.c **** /**
 483:.\Generated_Source\PSoC5/ETH0.c ****  * \brief Read the contents of hte rx mem size register
 484:.\Generated_Source\PSoC5/ETH0.c ****  * \returns the value read from teh register
 485:.\Generated_Source\PSoC5/ETH0.c ****  */
 486:.\Generated_Source\PSoC5/ETH0.c **** static uint8 ETH0_GetRxMemSize( void ) { return ETH0_W51_Read(0x1A); }
 1292              		.loc 1 486 0
 1293              		.cfi_startproc
 1294              		@ args = 0, pretend = 0, frame = 0
 1295              		@ frame_needed = 1, uses_anonymous_args = 0
 1296 0000 80B5     		push	{r7, lr}
 1297              	.LCFI81:
 1298              		.cfi_def_cfa_offset 8
 1299              		.cfi_offset 7, -8
 1300              		.cfi_offset 14, -4
 1301 0002 00AF     		add	r7, sp, #0
 1302              	.LCFI82:
 1303              		.cfi_def_cfa_register 7
 1304              		.loc 1 486 0
 1305 0004 4FF01A00 		mov	r0, #26
 1306 0008 FFF7FEFF 		bl	ETH0_W51_Read
 1307 000c 0346     		mov	r3, r0
 1308 000e 1846     		mov	r0, r3
 1309 0010 80BD     		pop	{r7, pc}
 1310              		.cfi_endproc
 1311              	.LFE30:
 1312              		.size	ETH0_GetRxMemSize, .-ETH0_GetRxMemSize
 1313 0012 00BF     		.section	.text.ETH0_SetTxMemSize,"ax",%progbits
 1314              		.align	2
 1315              		.thumb
 1316              		.thumb_func
 1317              		.type	ETH0_SetTxMemSize, %function
 1318              	ETH0_SetTxMemSize:
 1319              	.LFB31:
 487:.\Generated_Source\PSoC5/ETH0.c **** /* ------------------------------------------------------------------------ */
 488:.\Generated_Source\PSoC5/ETH0.c **** /**
ARM GAS  C:\Users\CHUCK~1.ERH\AppData\Local\Temp\ccSfgJB7.s 			page 33


 489:.\Generated_Source\PSoC5/ETH0.c ****  * \brief write a value to the tx mem size register
 490:.\Generated_Source\PSoC5/ETH0.c ****  * \param size The value to be written to the register
 491:.\Generated_Source\PSoC5/ETH0.c ****  */
 492:.\Generated_Source\PSoC5/ETH0.c **** static void ETH0_SetTxMemSize( uint8 size ) { ETH0_W51_Write( 0x1B, size); }
 1320              		.loc 1 492 0
 1321              		.cfi_startproc
 1322              		@ args = 0, pretend = 0, frame = 8
 1323              		@ frame_needed = 1, uses_anonymous_args = 0
 1324 0000 80B5     		push	{r7, lr}
 1325              	.LCFI83:
 1326              		.cfi_def_cfa_offset 8
 1327              		.cfi_offset 7, -8
 1328              		.cfi_offset 14, -4
 1329 0002 82B0     		sub	sp, sp, #8
 1330              	.LCFI84:
 1331              		.cfi_def_cfa_offset 16
 1332 0004 00AF     		add	r7, sp, #0
 1333              	.LCFI85:
 1334              		.cfi_def_cfa_register 7
 1335 0006 0346     		mov	r3, r0
 1336 0008 FB71     		strb	r3, [r7, #7]
 1337              		.loc 1 492 0
 1338 000a FB79     		ldrb	r3, [r7, #7]	@ zero_extendqisi2
 1339 000c 4FF01B00 		mov	r0, #27
 1340 0010 1946     		mov	r1, r3
 1341 0012 FFF7FEFF 		bl	ETH0_W51_Write
 1342 0016 07F10807 		add	r7, r7, #8
 1343 001a BD46     		mov	sp, r7
 1344 001c 80BD     		pop	{r7, pc}
 1345              		.cfi_endproc
 1346              	.LFE31:
 1347              		.size	ETH0_SetTxMemSize, .-ETH0_SetTxMemSize
 1348 001e 00BF     		.section	.text.ETH0_GetTxMemSize,"ax",%progbits
 1349              		.align	2
 1350              		.thumb
 1351              		.thumb_func
 1352              		.type	ETH0_GetTxMemSize, %function
 1353              	ETH0_GetTxMemSize:
 1354              	.LFB32:
 493:.\Generated_Source\PSoC5/ETH0.c **** /* ------------------------------------------------------------------------ */
 494:.\Generated_Source\PSoC5/ETH0.c **** /**
 495:.\Generated_Source\PSoC5/ETH0.c ****  * \brief read the contents of the tx mem size register
 496:.\Generated_Source\PSoC5/ETH0.c ****  * \returns the value read from the register
 497:.\Generated_Source\PSoC5/ETH0.c ****  */
 498:.\Generated_Source\PSoC5/ETH0.c **** static uint8 ETH0_GetTxMemSize( void ) { return ETH0_W51_Read( 0x1B);}
 1355              		.loc 1 498 0
 1356              		.cfi_startproc
 1357              		@ args = 0, pretend = 0, frame = 0
 1358              		@ frame_needed = 1, uses_anonymous_args = 0
 1359 0000 80B5     		push	{r7, lr}
 1360              	.LCFI86:
 1361              		.cfi_def_cfa_offset 8
 1362              		.cfi_offset 7, -8
 1363              		.cfi_offset 14, -4
 1364 0002 00AF     		add	r7, sp, #0
 1365              	.LCFI87:
 1366              		.cfi_def_cfa_register 7
ARM GAS  C:\Users\CHUCK~1.ERH\AppData\Local\Temp\ccSfgJB7.s 			page 34


 1367              		.loc 1 498 0
 1368 0004 4FF01B00 		mov	r0, #27
 1369 0008 FFF7FEFF 		bl	ETH0_W51_Read
 1370 000c 0346     		mov	r3, r0
 1371 000e 1846     		mov	r0, r3
 1372 0010 80BD     		pop	{r7, pc}
 1373              		.cfi_endproc
 1374              	.LFE32:
 1375              		.size	ETH0_GetTxMemSize, .-ETH0_GetTxMemSize
 1376 0012 00BF     		.section	.text.ETH0_SetUnreachableIP,"ax",%progbits
 1377              		.align	2
 1378              		.thumb
 1379              		.thumb_func
 1380              		.type	ETH0_SetUnreachableIP, %function
 1381              	ETH0_SetUnreachableIP:
 1382              	.LFB33:
 499:.\Generated_Source\PSoC5/ETH0.c **** /* ------------------------------------------------------------------------ */
 500:.\Generated_Source\PSoC5/ETH0.c **** /**
 501:.\Generated_Source\PSoC5/ETH0.c ****  * \brief write a value to the unreachable IP register
 502:.\Generated_Source\PSoC5/ETH0.c ****  * \param ip the value to be written to the register
 503:.\Generated_Source\PSoC5/ETH0.c ****  */
 504:.\Generated_Source\PSoC5/ETH0.c **** static void ETH0_SetUnreachableIP( uint32 ip) { ETH0_W51_SetIP( 0x2A, ip); }
 1383              		.loc 1 504 0
 1384              		.cfi_startproc
 1385              		@ args = 0, pretend = 0, frame = 8
 1386              		@ frame_needed = 1, uses_anonymous_args = 0
 1387 0000 80B5     		push	{r7, lr}
 1388              	.LCFI88:
 1389              		.cfi_def_cfa_offset 8
 1390              		.cfi_offset 7, -8
 1391              		.cfi_offset 14, -4
 1392 0002 82B0     		sub	sp, sp, #8
 1393              	.LCFI89:
 1394              		.cfi_def_cfa_offset 16
 1395 0004 00AF     		add	r7, sp, #0
 1396              	.LCFI90:
 1397              		.cfi_def_cfa_register 7
 1398 0006 7860     		str	r0, [r7, #4]
 1399              		.loc 1 504 0
 1400 0008 4FF02A00 		mov	r0, #42
 1401 000c 7968     		ldr	r1, [r7, #4]
 1402 000e FFF7FEFF 		bl	ETH0_W51_SetIP
 1403 0012 07F10807 		add	r7, r7, #8
 1404 0016 BD46     		mov	sp, r7
 1405 0018 80BD     		pop	{r7, pc}
 1406              		.cfi_endproc
 1407              	.LFE33:
 1408              		.size	ETH0_SetUnreachableIP, .-ETH0_SetUnreachableIP
 1409 001a 00BF     		.section	.text.ETH0_GetUnreachableIP,"ax",%progbits
 1410              		.align	2
 1411              		.thumb
 1412              		.thumb_func
 1413              		.type	ETH0_GetUnreachableIP, %function
 1414              	ETH0_GetUnreachableIP:
 1415              	.LFB34:
 505:.\Generated_Source\PSoC5/ETH0.c **** /* ------------------------------------------------------------------------ */
 506:.\Generated_Source\PSoC5/ETH0.c **** /**
ARM GAS  C:\Users\CHUCK~1.ERH\AppData\Local\Temp\ccSfgJB7.s 			page 35


 507:.\Generated_Source\PSoC5/ETH0.c ****  * \brief read the contents of the unreachable IP register
 508:.\Generated_Source\PSoC5/ETH0.c ****  * \returns the value read from teh register
 509:.\Generated_Source\PSoC5/ETH0.c ****  */
 510:.\Generated_Source\PSoC5/ETH0.c **** static uint32 ETH0_GetUnreachableIP( void ) { return ETH0_W51_GetIP( 0x2A ); }
 1416              		.loc 1 510 0
 1417              		.cfi_startproc
 1418              		@ args = 0, pretend = 0, frame = 0
 1419              		@ frame_needed = 1, uses_anonymous_args = 0
 1420 0000 80B5     		push	{r7, lr}
 1421              	.LCFI91:
 1422              		.cfi_def_cfa_offset 8
 1423              		.cfi_offset 7, -8
 1424              		.cfi_offset 14, -4
 1425 0002 00AF     		add	r7, sp, #0
 1426              	.LCFI92:
 1427              		.cfi_def_cfa_register 7
 1428              		.loc 1 510 0
 1429 0004 4FF02A00 		mov	r0, #42
 1430 0008 FFF7FEFF 		bl	ETH0_W51_GetIP
 1431 000c 0346     		mov	r3, r0
 1432 000e 1846     		mov	r0, r3
 1433 0010 80BD     		pop	{r7, pc}
 1434              		.cfi_endproc
 1435              	.LFE34:
 1436              		.size	ETH0_GetUnreachableIP, .-ETH0_GetUnreachableIP
 1437 0012 00BF     		.section	.text.ETH0_SetUnreachablePort,"ax",%progbits
 1438              		.align	2
 1439              		.thumb
 1440              		.thumb_func
 1441              		.type	ETH0_SetUnreachablePort, %function
 1442              	ETH0_SetUnreachablePort:
 1443              	.LFB35:
 511:.\Generated_Source\PSoC5/ETH0.c **** /* ------------------------------------------------------------------------ */
 512:.\Generated_Source\PSoC5/ETH0.c **** /**
 513:.\Generated_Source\PSoC5/ETH0.c ****  * \brief write a value to the unreachable port register
 514:.\Generated_Source\PSoC5/ETH0.c ****  * \param port the value to be written to the register
 515:.\Generated_Source\PSoC5/ETH0.c ****  */
 516:.\Generated_Source\PSoC5/ETH0.c **** static void ETH0_SetUnreachablePort( uint16 port) { ETH0_W51_Write16(0x2E, port); }
 1444              		.loc 1 516 0
 1445              		.cfi_startproc
 1446              		@ args = 0, pretend = 0, frame = 8
 1447              		@ frame_needed = 1, uses_anonymous_args = 0
 1448 0000 80B5     		push	{r7, lr}
 1449              	.LCFI93:
 1450              		.cfi_def_cfa_offset 8
 1451              		.cfi_offset 7, -8
 1452              		.cfi_offset 14, -4
 1453 0002 82B0     		sub	sp, sp, #8
 1454              	.LCFI94:
 1455              		.cfi_def_cfa_offset 16
 1456 0004 00AF     		add	r7, sp, #0
 1457              	.LCFI95:
 1458              		.cfi_def_cfa_register 7
 1459 0006 0346     		mov	r3, r0
 1460 0008 FB80     		strh	r3, [r7, #6]	@ movhi
 1461              		.loc 1 516 0
 1462 000a FB88     		ldrh	r3, [r7, #6]
ARM GAS  C:\Users\CHUCK~1.ERH\AppData\Local\Temp\ccSfgJB7.s 			page 36


 1463 000c 4FF02E00 		mov	r0, #46
 1464 0010 1946     		mov	r1, r3
 1465 0012 FFF7FEFF 		bl	ETH0_W51_Write16
 1466 0016 07F10807 		add	r7, r7, #8
 1467 001a BD46     		mov	sp, r7
 1468 001c 80BD     		pop	{r7, pc}
 1469              		.cfi_endproc
 1470              	.LFE35:
 1471              		.size	ETH0_SetUnreachablePort, .-ETH0_SetUnreachablePort
 1472 001e 00BF     		.section	.text.ETH0_GetUnreachablePort,"ax",%progbits
 1473              		.align	2
 1474              		.thumb
 1475              		.thumb_func
 1476              		.type	ETH0_GetUnreachablePort, %function
 1477              	ETH0_GetUnreachablePort:
 1478              	.LFB36:
 517:.\Generated_Source\PSoC5/ETH0.c **** /* ------------------------------------------------------------------------ */
 518:.\Generated_Source\PSoC5/ETH0.c **** /**
 519:.\Generated_Source\PSoC5/ETH0.c ****  * \brief read the contents of the unreachable port register
 520:.\Generated_Source\PSoC5/ETH0.c ****  * \returns the value read from the register
 521:.\Generated_Source\PSoC5/ETH0.c ****  */
 522:.\Generated_Source\PSoC5/ETH0.c **** static uint16 ETH0_GetUnreachablePort( void ) { return ETH0_W51_Read16(0x2E); }
 1479              		.loc 1 522 0
 1480              		.cfi_startproc
 1481              		@ args = 0, pretend = 0, frame = 0
 1482              		@ frame_needed = 1, uses_anonymous_args = 0
 1483 0000 80B5     		push	{r7, lr}
 1484              	.LCFI96:
 1485              		.cfi_def_cfa_offset 8
 1486              		.cfi_offset 7, -8
 1487              		.cfi_offset 14, -4
 1488 0002 00AF     		add	r7, sp, #0
 1489              	.LCFI97:
 1490              		.cfi_def_cfa_register 7
 1491              		.loc 1 522 0
 1492 0004 4FF02E00 		mov	r0, #46
 1493 0008 FFF7FEFF 		bl	ETH0_W51_Read16
 1494 000c 0346     		mov	r3, r0
 1495 000e 1846     		mov	r0, r3
 1496 0010 80BD     		pop	{r7, pc}
 1497              		.cfi_endproc
 1498              	.LFE36:
 1499              		.size	ETH0_GetUnreachablePort, .-ETH0_GetUnreachablePort
 1500 0012 00BF     		.section	.text.ETH0_SetSocketMode,"ax",%progbits
 1501              		.align	2
 1502              		.thumb
 1503              		.thumb_func
 1504              		.type	ETH0_SetSocketMode, %function
 1505              	ETH0_SetSocketMode:
 1506              	.LFB37:
 523:.\Generated_Source\PSoC5/ETH0.c **** /* ======================================================================== */
 524:.\Generated_Source\PSoC5/ETH0.c **** /* End Section */
 525:.\Generated_Source\PSoC5/ETH0.c **** #endif
 526:.\Generated_Source\PSoC5/ETH0.c **** /* ======================================================================== */
 527:.\Generated_Source\PSoC5/ETH0.c **** /* Socket Registers */
 528:.\Generated_Source\PSoC5/ETH0.c **** #if (1)
 529:.\Generated_Source\PSoC5/ETH0.c **** /**
ARM GAS  C:\Users\CHUCK~1.ERH\AppData\Local\Temp\ccSfgJB7.s 			page 37


 530:.\Generated_Source\PSoC5/ETH0.c ****  * \def ETH0_SOCKET BASE(s)
 531:.\Generated_Source\PSoC5/ETH0.c ****  * \brief Convert the socket number to a base address within the W5100
 532:.\Generated_Source\PSoC5/ETH0.c ****  */
 533:.\Generated_Source\PSoC5/ETH0.c **** #define ETH0_SOCKET_BASE(s)           ((s<<8)+0x0400)
 534:.\Generated_Source\PSoC5/ETH0.c **** /* ------------------------------------------------------------------------ */
 535:.\Generated_Source\PSoC5/ETH0.c **** /**
 536:.\Generated_Source\PSoC5/ETH0.c ****  * \brief Write a value to the socket mode register
 537:.\Generated_Source\PSoC5/ETH0.c ****  * \param socket the socket number for the addressed register
 538:.\Generated_Source\PSoC5/ETH0.c ****  * \param mode the value to be written to the register
 539:.\Generated_Source\PSoC5/ETH0.c ****  */
 540:.\Generated_Source\PSoC5/ETH0.c **** static void ETH0_SetSocketMode(uint8 socket, uint8 mode)
 541:.\Generated_Source\PSoC5/ETH0.c **** { ETH0_W51_Write(ETH0_SOCKET_BASE(socket), mode); }
 1507              		.loc 1 541 0
 1508              		.cfi_startproc
 1509              		@ args = 0, pretend = 0, frame = 8
 1510              		@ frame_needed = 1, uses_anonymous_args = 0
 1511 0000 80B5     		push	{r7, lr}
 1512              	.LCFI98:
 1513              		.cfi_def_cfa_offset 8
 1514              		.cfi_offset 7, -8
 1515              		.cfi_offset 14, -4
 1516 0002 82B0     		sub	sp, sp, #8
 1517              	.LCFI99:
 1518              		.cfi_def_cfa_offset 16
 1519 0004 00AF     		add	r7, sp, #0
 1520              	.LCFI100:
 1521              		.cfi_def_cfa_register 7
 1522 0006 0246     		mov	r2, r0
 1523 0008 0B46     		mov	r3, r1
 1524 000a FA71     		strb	r2, [r7, #7]
 1525 000c BB71     		strb	r3, [r7, #6]
 1526              		.loc 1 541 0
 1527 000e FB79     		ldrb	r3, [r7, #7]	@ zero_extendqisi2
 1528 0010 9BB2     		uxth	r3, r3
 1529 0012 4FEA0323 		lsl	r3, r3, #8
 1530 0016 9BB2     		uxth	r3, r3
 1531 0018 03F58063 		add	r3, r3, #1024
 1532 001c 9AB2     		uxth	r2, r3
 1533 001e BB79     		ldrb	r3, [r7, #6]	@ zero_extendqisi2
 1534 0020 1046     		mov	r0, r2
 1535 0022 1946     		mov	r1, r3
 1536 0024 FFF7FEFF 		bl	ETH0_W51_Write
 1537 0028 07F10807 		add	r7, r7, #8
 1538 002c BD46     		mov	sp, r7
 1539 002e 80BD     		pop	{r7, pc}
 1540              		.cfi_endproc
 1541              	.LFE37:
 1542              		.size	ETH0_SetSocketMode, .-ETH0_SetSocketMode
 1543              		.section	.text.ETH0_GetSocketMode,"ax",%progbits
 1544              		.align	2
 1545              		.thumb
 1546              		.thumb_func
 1547              		.type	ETH0_GetSocketMode, %function
 1548              	ETH0_GetSocketMode:
 1549              	.LFB38:
 542:.\Generated_Source\PSoC5/ETH0.c **** /* ------------------------------------------------------------------------ */
 543:.\Generated_Source\PSoC5/ETH0.c **** /**
ARM GAS  C:\Users\CHUCK~1.ERH\AppData\Local\Temp\ccSfgJB7.s 			page 38


 544:.\Generated_Source\PSoC5/ETH0.c ****  * \brief Read a value from the socket mode register
 545:.\Generated_Source\PSoC5/ETH0.c ****  * \param socket the socket number for the addressed register
 546:.\Generated_Source\PSoC5/ETH0.c ****  * \returns the value read from the register
 547:.\Generated_Source\PSoC5/ETH0.c ****  */
 548:.\Generated_Source\PSoC5/ETH0.c **** static uint8 ETH0_GetSocketMode(uint8 socket)
 549:.\Generated_Source\PSoC5/ETH0.c **** { return ETH0_W51_Read(ETH0_SOCKET_BASE(socket)); }
 1550              		.loc 1 549 0
 1551              		.cfi_startproc
 1552              		@ args = 0, pretend = 0, frame = 8
 1553              		@ frame_needed = 1, uses_anonymous_args = 0
 1554 0000 80B5     		push	{r7, lr}
 1555              	.LCFI101:
 1556              		.cfi_def_cfa_offset 8
 1557              		.cfi_offset 7, -8
 1558              		.cfi_offset 14, -4
 1559 0002 82B0     		sub	sp, sp, #8
 1560              	.LCFI102:
 1561              		.cfi_def_cfa_offset 16
 1562 0004 00AF     		add	r7, sp, #0
 1563              	.LCFI103:
 1564              		.cfi_def_cfa_register 7
 1565 0006 0346     		mov	r3, r0
 1566 0008 FB71     		strb	r3, [r7, #7]
 1567              		.loc 1 549 0
 1568 000a FB79     		ldrb	r3, [r7, #7]	@ zero_extendqisi2
 1569 000c 9BB2     		uxth	r3, r3
 1570 000e 4FEA0323 		lsl	r3, r3, #8
 1571 0012 9BB2     		uxth	r3, r3
 1572 0014 03F58063 		add	r3, r3, #1024
 1573 0018 9BB2     		uxth	r3, r3
 1574 001a 1846     		mov	r0, r3
 1575 001c FFF7FEFF 		bl	ETH0_W51_Read
 1576 0020 0346     		mov	r3, r0
 1577 0022 1846     		mov	r0, r3
 1578 0024 07F10807 		add	r7, r7, #8
 1579 0028 BD46     		mov	sp, r7
 1580 002a 80BD     		pop	{r7, pc}
 1581              		.cfi_endproc
 1582              	.LFE38:
 1583              		.size	ETH0_GetSocketMode, .-ETH0_GetSocketMode
 1584              		.section	.text.ETH0_SetSocketCommand,"ax",%progbits
 1585              		.align	2
 1586              		.thumb
 1587              		.thumb_func
 1588              		.type	ETH0_SetSocketCommand, %function
 1589              	ETH0_SetSocketCommand:
 1590              	.LFB39:
 550:.\Generated_Source\PSoC5/ETH0.c **** /* ------------------------------------------------------------------------ */
 551:.\Generated_Source\PSoC5/ETH0.c **** /**
 552:.\Generated_Source\PSoC5/ETH0.c ****  * \brief Write a value to the socket command register
 553:.\Generated_Source\PSoC5/ETH0.c ****  * \param socket the socket number for the addressed register
 554:.\Generated_Source\PSoC5/ETH0.c ****  * \param cmd the value to be written to the register
 555:.\Generated_Source\PSoC5/ETH0.c ****  */
 556:.\Generated_Source\PSoC5/ETH0.c **** static void ETH0_SetSocketCommand(uint8 socket, uint8 cmd)
 557:.\Generated_Source\PSoC5/ETH0.c **** { ETH0_W51_Write(ETH0_SOCKET_BASE(socket)+1, cmd); }
 1591              		.loc 1 557 0
 1592              		.cfi_startproc
ARM GAS  C:\Users\CHUCK~1.ERH\AppData\Local\Temp\ccSfgJB7.s 			page 39


 1593              		@ args = 0, pretend = 0, frame = 8
 1594              		@ frame_needed = 1, uses_anonymous_args = 0
 1595 0000 80B5     		push	{r7, lr}
 1596              	.LCFI104:
 1597              		.cfi_def_cfa_offset 8
 1598              		.cfi_offset 7, -8
 1599              		.cfi_offset 14, -4
 1600 0002 82B0     		sub	sp, sp, #8
 1601              	.LCFI105:
 1602              		.cfi_def_cfa_offset 16
 1603 0004 00AF     		add	r7, sp, #0
 1604              	.LCFI106:
 1605              		.cfi_def_cfa_register 7
 1606 0006 0246     		mov	r2, r0
 1607 0008 0B46     		mov	r3, r1
 1608 000a FA71     		strb	r2, [r7, #7]
 1609 000c BB71     		strb	r3, [r7, #6]
 1610              		.loc 1 557 0
 1611 000e FB79     		ldrb	r3, [r7, #7]	@ zero_extendqisi2
 1612 0010 9BB2     		uxth	r3, r3
 1613 0012 4FEA0323 		lsl	r3, r3, #8
 1614 0016 9BB2     		uxth	r3, r3
 1615 0018 03F20143 		addw	r3, r3, #1025
 1616 001c 9AB2     		uxth	r2, r3
 1617 001e BB79     		ldrb	r3, [r7, #6]	@ zero_extendqisi2
 1618 0020 1046     		mov	r0, r2
 1619 0022 1946     		mov	r1, r3
 1620 0024 FFF7FEFF 		bl	ETH0_W51_Write
 1621 0028 07F10807 		add	r7, r7, #8
 1622 002c BD46     		mov	sp, r7
 1623 002e 80BD     		pop	{r7, pc}
 1624              		.cfi_endproc
 1625              	.LFE39:
 1626              		.size	ETH0_SetSocketCommand, .-ETH0_SetSocketCommand
 1627              		.section	.text.ETH0_GetSocketCommand,"ax",%progbits
 1628              		.align	2
 1629              		.thumb
 1630              		.thumb_func
 1631              		.type	ETH0_GetSocketCommand, %function
 1632              	ETH0_GetSocketCommand:
 1633              	.LFB40:
 558:.\Generated_Source\PSoC5/ETH0.c **** /* ------------------------------------------------------------------------ */
 559:.\Generated_Source\PSoC5/ETH0.c **** /**
 560:.\Generated_Source\PSoC5/ETH0.c ****  * \brief Read a value from the socket command register
 561:.\Generated_Source\PSoC5/ETH0.c ****  * \param socket the socket number for the addressed register
 562:.\Generated_Source\PSoC5/ETH0.c ****  * \returns the value read from the register
 563:.\Generated_Source\PSoC5/ETH0.c ****  */
 564:.\Generated_Source\PSoC5/ETH0.c **** static uint8 ETH0_GetSocketCommand(uint8 socket)
 565:.\Generated_Source\PSoC5/ETH0.c **** { return ETH0_W51_Read(ETH0_SOCKET_BASE(socket)+1); }
 1634              		.loc 1 565 0
 1635              		.cfi_startproc
 1636              		@ args = 0, pretend = 0, frame = 8
 1637              		@ frame_needed = 1, uses_anonymous_args = 0
 1638 0000 80B5     		push	{r7, lr}
 1639              	.LCFI107:
 1640              		.cfi_def_cfa_offset 8
 1641              		.cfi_offset 7, -8
ARM GAS  C:\Users\CHUCK~1.ERH\AppData\Local\Temp\ccSfgJB7.s 			page 40


 1642              		.cfi_offset 14, -4
 1643 0002 82B0     		sub	sp, sp, #8
 1644              	.LCFI108:
 1645              		.cfi_def_cfa_offset 16
 1646 0004 00AF     		add	r7, sp, #0
 1647              	.LCFI109:
 1648              		.cfi_def_cfa_register 7
 1649 0006 0346     		mov	r3, r0
 1650 0008 FB71     		strb	r3, [r7, #7]
 1651              		.loc 1 565 0
 1652 000a FB79     		ldrb	r3, [r7, #7]	@ zero_extendqisi2
 1653 000c 9BB2     		uxth	r3, r3
 1654 000e 4FEA0323 		lsl	r3, r3, #8
 1655 0012 9BB2     		uxth	r3, r3
 1656 0014 03F20143 		addw	r3, r3, #1025
 1657 0018 9BB2     		uxth	r3, r3
 1658 001a 1846     		mov	r0, r3
 1659 001c FFF7FEFF 		bl	ETH0_W51_Read
 1660 0020 0346     		mov	r3, r0
 1661 0022 1846     		mov	r0, r3
 1662 0024 07F10807 		add	r7, r7, #8
 1663 0028 BD46     		mov	sp, r7
 1664 002a 80BD     		pop	{r7, pc}
 1665              		.cfi_endproc
 1666              	.LFE40:
 1667              		.size	ETH0_GetSocketCommand, .-ETH0_GetSocketCommand
 1668              		.section	.text.ETH0_SetSocketIR,"ax",%progbits
 1669              		.align	2
 1670              		.thumb
 1671              		.thumb_func
 1672              		.type	ETH0_SetSocketIR, %function
 1673              	ETH0_SetSocketIR:
 1674              	.LFB41:
 566:.\Generated_Source\PSoC5/ETH0.c **** /* ------------------------------------------------------------------------ */
 567:.\Generated_Source\PSoC5/ETH0.c **** /**
 568:.\Generated_Source\PSoC5/ETH0.c ****  * \brief Write a value to the socket interrupt register
 569:.\Generated_Source\PSoC5/ETH0.c ****  * \param socket the socket number for the addressed register
 570:.\Generated_Source\PSoC5/ETH0.c ****  * \param ir the value to be written to the register
 571:.\Generated_Source\PSoC5/ETH0.c ****  */
 572:.\Generated_Source\PSoC5/ETH0.c **** static void ETH0_SetSocketIR(uint8 socket, uint8 ir)
 573:.\Generated_Source\PSoC5/ETH0.c **** { ETH0_W51_Write(ETH0_SOCKET_BASE(socket)+2,ir); }
 1675              		.loc 1 573 0
 1676              		.cfi_startproc
 1677              		@ args = 0, pretend = 0, frame = 8
 1678              		@ frame_needed = 1, uses_anonymous_args = 0
 1679 0000 80B5     		push	{r7, lr}
 1680              	.LCFI110:
 1681              		.cfi_def_cfa_offset 8
 1682              		.cfi_offset 7, -8
 1683              		.cfi_offset 14, -4
 1684 0002 82B0     		sub	sp, sp, #8
 1685              	.LCFI111:
 1686              		.cfi_def_cfa_offset 16
 1687 0004 00AF     		add	r7, sp, #0
 1688              	.LCFI112:
 1689              		.cfi_def_cfa_register 7
 1690 0006 0246     		mov	r2, r0
ARM GAS  C:\Users\CHUCK~1.ERH\AppData\Local\Temp\ccSfgJB7.s 			page 41


 1691 0008 0B46     		mov	r3, r1
 1692 000a FA71     		strb	r2, [r7, #7]
 1693 000c BB71     		strb	r3, [r7, #6]
 1694              		.loc 1 573 0
 1695 000e FB79     		ldrb	r3, [r7, #7]	@ zero_extendqisi2
 1696 0010 9BB2     		uxth	r3, r3
 1697 0012 4FEA0323 		lsl	r3, r3, #8
 1698 0016 9BB2     		uxth	r3, r3
 1699 0018 03F20243 		addw	r3, r3, #1026
 1700 001c 9AB2     		uxth	r2, r3
 1701 001e BB79     		ldrb	r3, [r7, #6]	@ zero_extendqisi2
 1702 0020 1046     		mov	r0, r2
 1703 0022 1946     		mov	r1, r3
 1704 0024 FFF7FEFF 		bl	ETH0_W51_Write
 1705 0028 07F10807 		add	r7, r7, #8
 1706 002c BD46     		mov	sp, r7
 1707 002e 80BD     		pop	{r7, pc}
 1708              		.cfi_endproc
 1709              	.LFE41:
 1710              		.size	ETH0_SetSocketIR, .-ETH0_SetSocketIR
 1711              		.section	.text.ETH0_GetSocketIR,"ax",%progbits
 1712              		.align	2
 1713              		.thumb
 1714              		.thumb_func
 1715              		.type	ETH0_GetSocketIR, %function
 1716              	ETH0_GetSocketIR:
 1717              	.LFB42:
 574:.\Generated_Source\PSoC5/ETH0.c **** /* ------------------------------------------------------------------------ */
 575:.\Generated_Source\PSoC5/ETH0.c **** /**
 576:.\Generated_Source\PSoC5/ETH0.c ****  * \brief Read a value from the socket interrupt register
 577:.\Generated_Source\PSoC5/ETH0.c ****  * \param socket the socket number for the addressed register
 578:.\Generated_Source\PSoC5/ETH0.c ****  * \returns the value read from the register
 579:.\Generated_Source\PSoC5/ETH0.c ****  */
 580:.\Generated_Source\PSoC5/ETH0.c **** static uint8 ETH0_GetSocketIR(uint8 socket)
 581:.\Generated_Source\PSoC5/ETH0.c **** { return ETH0_W51_Read(ETH0_SOCKET_BASE(socket)+2); }
 1718              		.loc 1 581 0
 1719              		.cfi_startproc
 1720              		@ args = 0, pretend = 0, frame = 8
 1721              		@ frame_needed = 1, uses_anonymous_args = 0
 1722 0000 80B5     		push	{r7, lr}
 1723              	.LCFI113:
 1724              		.cfi_def_cfa_offset 8
 1725              		.cfi_offset 7, -8
 1726              		.cfi_offset 14, -4
 1727 0002 82B0     		sub	sp, sp, #8
 1728              	.LCFI114:
 1729              		.cfi_def_cfa_offset 16
 1730 0004 00AF     		add	r7, sp, #0
 1731              	.LCFI115:
 1732              		.cfi_def_cfa_register 7
 1733 0006 0346     		mov	r3, r0
 1734 0008 FB71     		strb	r3, [r7, #7]
 1735              		.loc 1 581 0
 1736 000a FB79     		ldrb	r3, [r7, #7]	@ zero_extendqisi2
 1737 000c 9BB2     		uxth	r3, r3
 1738 000e 4FEA0323 		lsl	r3, r3, #8
 1739 0012 9BB2     		uxth	r3, r3
ARM GAS  C:\Users\CHUCK~1.ERH\AppData\Local\Temp\ccSfgJB7.s 			page 42


 1740 0014 03F20243 		addw	r3, r3, #1026
 1741 0018 9BB2     		uxth	r3, r3
 1742 001a 1846     		mov	r0, r3
 1743 001c FFF7FEFF 		bl	ETH0_W51_Read
 1744 0020 0346     		mov	r3, r0
 1745 0022 1846     		mov	r0, r3
 1746 0024 07F10807 		add	r7, r7, #8
 1747 0028 BD46     		mov	sp, r7
 1748 002a 80BD     		pop	{r7, pc}
 1749              		.cfi_endproc
 1750              	.LFE42:
 1751              		.size	ETH0_GetSocketIR, .-ETH0_GetSocketIR
 1752              		.section	.text.ETH0_SetSocketStatus,"ax",%progbits
 1753              		.align	2
 1754              		.thumb
 1755              		.thumb_func
 1756              		.type	ETH0_SetSocketStatus, %function
 1757              	ETH0_SetSocketStatus:
 1758              	.LFB43:
 582:.\Generated_Source\PSoC5/ETH0.c **** /* ------------------------------------------------------------------------ */
 583:.\Generated_Source\PSoC5/ETH0.c **** /**
 584:.\Generated_Source\PSoC5/ETH0.c ****  * \brief Write a value to the socket status register
 585:.\Generated_Source\PSoC5/ETH0.c ****  * \param socket the socket number for the addressed register
 586:.\Generated_Source\PSoC5/ETH0.c ****  * \param status the value to be written to the register
 587:.\Generated_Source\PSoC5/ETH0.c ****  */
 588:.\Generated_Source\PSoC5/ETH0.c **** static void ETH0_SetSocketStatus(uint8 socket, uint8 status)
 589:.\Generated_Source\PSoC5/ETH0.c **** { ETH0_W51_Write(ETH0_SOCKET_BASE(socket)+3,status); }
 1759              		.loc 1 589 0
 1760              		.cfi_startproc
 1761              		@ args = 0, pretend = 0, frame = 8
 1762              		@ frame_needed = 1, uses_anonymous_args = 0
 1763 0000 80B5     		push	{r7, lr}
 1764              	.LCFI116:
 1765              		.cfi_def_cfa_offset 8
 1766              		.cfi_offset 7, -8
 1767              		.cfi_offset 14, -4
 1768 0002 82B0     		sub	sp, sp, #8
 1769              	.LCFI117:
 1770              		.cfi_def_cfa_offset 16
 1771 0004 00AF     		add	r7, sp, #0
 1772              	.LCFI118:
 1773              		.cfi_def_cfa_register 7
 1774 0006 0246     		mov	r2, r0
 1775 0008 0B46     		mov	r3, r1
 1776 000a FA71     		strb	r2, [r7, #7]
 1777 000c BB71     		strb	r3, [r7, #6]
 1778              		.loc 1 589 0
 1779 000e FB79     		ldrb	r3, [r7, #7]	@ zero_extendqisi2
 1780 0010 9BB2     		uxth	r3, r3
 1781 0012 4FEA0323 		lsl	r3, r3, #8
 1782 0016 9BB2     		uxth	r3, r3
 1783 0018 03F20343 		addw	r3, r3, #1027
 1784 001c 9AB2     		uxth	r2, r3
 1785 001e BB79     		ldrb	r3, [r7, #6]	@ zero_extendqisi2
 1786 0020 1046     		mov	r0, r2
 1787 0022 1946     		mov	r1, r3
 1788 0024 FFF7FEFF 		bl	ETH0_W51_Write
ARM GAS  C:\Users\CHUCK~1.ERH\AppData\Local\Temp\ccSfgJB7.s 			page 43


 1789 0028 07F10807 		add	r7, r7, #8
 1790 002c BD46     		mov	sp, r7
 1791 002e 80BD     		pop	{r7, pc}
 1792              		.cfi_endproc
 1793              	.LFE43:
 1794              		.size	ETH0_SetSocketStatus, .-ETH0_SetSocketStatus
 1795              		.section	.text.ETH0_GetSocketStatus,"ax",%progbits
 1796              		.align	2
 1797              		.thumb
 1798              		.thumb_func
 1799              		.type	ETH0_GetSocketStatus, %function
 1800              	ETH0_GetSocketStatus:
 1801              	.LFB44:
 590:.\Generated_Source\PSoC5/ETH0.c **** /* ------------------------------------------------------------------------ */
 591:.\Generated_Source\PSoC5/ETH0.c **** /**
 592:.\Generated_Source\PSoC5/ETH0.c ****  * \brief Read a value from the socket status register
 593:.\Generated_Source\PSoC5/ETH0.c ****  * \param socket the socket number for the addressed register
 594:.\Generated_Source\PSoC5/ETH0.c ****  * \returns the value read from the register
 595:.\Generated_Source\PSoC5/ETH0.c ****  */
 596:.\Generated_Source\PSoC5/ETH0.c **** static uint8 ETH0_GetSocketStatus(uint8 socket)
 597:.\Generated_Source\PSoC5/ETH0.c **** { return ETH0_W51_Read(ETH0_SOCKET_BASE(socket)+3); }
 1802              		.loc 1 597 0
 1803              		.cfi_startproc
 1804              		@ args = 0, pretend = 0, frame = 8
 1805              		@ frame_needed = 1, uses_anonymous_args = 0
 1806 0000 80B5     		push	{r7, lr}
 1807              	.LCFI119:
 1808              		.cfi_def_cfa_offset 8
 1809              		.cfi_offset 7, -8
 1810              		.cfi_offset 14, -4
 1811 0002 82B0     		sub	sp, sp, #8
 1812              	.LCFI120:
 1813              		.cfi_def_cfa_offset 16
 1814 0004 00AF     		add	r7, sp, #0
 1815              	.LCFI121:
 1816              		.cfi_def_cfa_register 7
 1817 0006 0346     		mov	r3, r0
 1818 0008 FB71     		strb	r3, [r7, #7]
 1819              		.loc 1 597 0
 1820 000a FB79     		ldrb	r3, [r7, #7]	@ zero_extendqisi2
 1821 000c 9BB2     		uxth	r3, r3
 1822 000e 4FEA0323 		lsl	r3, r3, #8
 1823 0012 9BB2     		uxth	r3, r3
 1824 0014 03F20343 		addw	r3, r3, #1027
 1825 0018 9BB2     		uxth	r3, r3
 1826 001a 1846     		mov	r0, r3
 1827 001c FFF7FEFF 		bl	ETH0_W51_Read
 1828 0020 0346     		mov	r3, r0
 1829 0022 1846     		mov	r0, r3
 1830 0024 07F10807 		add	r7, r7, #8
 1831 0028 BD46     		mov	sp, r7
 1832 002a 80BD     		pop	{r7, pc}
 1833              		.cfi_endproc
 1834              	.LFE44:
 1835              		.size	ETH0_GetSocketStatus, .-ETH0_GetSocketStatus
 1836              		.section	.text.ETH0_SetSocketSourcePort,"ax",%progbits
 1837              		.align	2
ARM GAS  C:\Users\CHUCK~1.ERH\AppData\Local\Temp\ccSfgJB7.s 			page 44


 1838              		.thumb
 1839              		.thumb_func
 1840              		.type	ETH0_SetSocketSourcePort, %function
 1841              	ETH0_SetSocketSourcePort:
 1842              	.LFB45:
 598:.\Generated_Source\PSoC5/ETH0.c **** /* ------------------------------------------------------------------------ */
 599:.\Generated_Source\PSoC5/ETH0.c **** /**
 600:.\Generated_Source\PSoC5/ETH0.c ****  * \brief Write a value to the socket source port register
 601:.\Generated_Source\PSoC5/ETH0.c ****  * \param socket the socket number for the addressed register
 602:.\Generated_Source\PSoC5/ETH0.c ****  * \param port the value to be written to the register
 603:.\Generated_Source\PSoC5/ETH0.c ****  */
 604:.\Generated_Source\PSoC5/ETH0.c **** static void ETH0_SetSocketSourcePort(uint8 socket, uint16 port)
 605:.\Generated_Source\PSoC5/ETH0.c **** { ETH0_W51_Write16(ETH0_SOCKET_BASE(socket)+4,port); }
 1843              		.loc 1 605 0
 1844              		.cfi_startproc
 1845              		@ args = 0, pretend = 0, frame = 8
 1846              		@ frame_needed = 1, uses_anonymous_args = 0
 1847 0000 80B5     		push	{r7, lr}
 1848              	.LCFI122:
 1849              		.cfi_def_cfa_offset 8
 1850              		.cfi_offset 7, -8
 1851              		.cfi_offset 14, -4
 1852 0002 82B0     		sub	sp, sp, #8
 1853              	.LCFI123:
 1854              		.cfi_def_cfa_offset 16
 1855 0004 00AF     		add	r7, sp, #0
 1856              	.LCFI124:
 1857              		.cfi_def_cfa_register 7
 1858 0006 0246     		mov	r2, r0
 1859 0008 0B46     		mov	r3, r1
 1860 000a FA71     		strb	r2, [r7, #7]
 1861 000c BB80     		strh	r3, [r7, #4]	@ movhi
 1862              		.loc 1 605 0
 1863 000e FB79     		ldrb	r3, [r7, #7]	@ zero_extendqisi2
 1864 0010 9BB2     		uxth	r3, r3
 1865 0012 4FEA0323 		lsl	r3, r3, #8
 1866 0016 9BB2     		uxth	r3, r3
 1867 0018 03F20443 		addw	r3, r3, #1028
 1868 001c 9AB2     		uxth	r2, r3
 1869 001e BB88     		ldrh	r3, [r7, #4]
 1870 0020 1046     		mov	r0, r2
 1871 0022 1946     		mov	r1, r3
 1872 0024 FFF7FEFF 		bl	ETH0_W51_Write16
 1873 0028 07F10807 		add	r7, r7, #8
 1874 002c BD46     		mov	sp, r7
 1875 002e 80BD     		pop	{r7, pc}
 1876              		.cfi_endproc
 1877              	.LFE45:
 1878              		.size	ETH0_SetSocketSourcePort, .-ETH0_SetSocketSourcePort
 1879              		.section	.text.ETH0_GetSocketSourcePort,"ax",%progbits
 1880              		.align	2
 1881              		.thumb
 1882              		.thumb_func
 1883              		.type	ETH0_GetSocketSourcePort, %function
 1884              	ETH0_GetSocketSourcePort:
 1885              	.LFB46:
 606:.\Generated_Source\PSoC5/ETH0.c **** /* ------------------------------------------------------------------------ */
ARM GAS  C:\Users\CHUCK~1.ERH\AppData\Local\Temp\ccSfgJB7.s 			page 45


 607:.\Generated_Source\PSoC5/ETH0.c **** /**
 608:.\Generated_Source\PSoC5/ETH0.c ****  * \brief Read a value from the socket source port register
 609:.\Generated_Source\PSoC5/ETH0.c ****  * \param socket the socket number for the addressed register
 610:.\Generated_Source\PSoC5/ETH0.c ****  * \returns the value read from the register
 611:.\Generated_Source\PSoC5/ETH0.c ****  */
 612:.\Generated_Source\PSoC5/ETH0.c **** static uint16 ETH0_GetSocketSourcePort(uint8 socket)
 613:.\Generated_Source\PSoC5/ETH0.c **** { return ETH0_W51_Read16(ETH0_SOCKET_BASE(socket)+4); }
 1886              		.loc 1 613 0
 1887              		.cfi_startproc
 1888              		@ args = 0, pretend = 0, frame = 8
 1889              		@ frame_needed = 1, uses_anonymous_args = 0
 1890 0000 80B5     		push	{r7, lr}
 1891              	.LCFI125:
 1892              		.cfi_def_cfa_offset 8
 1893              		.cfi_offset 7, -8
 1894              		.cfi_offset 14, -4
 1895 0002 82B0     		sub	sp, sp, #8
 1896              	.LCFI126:
 1897              		.cfi_def_cfa_offset 16
 1898 0004 00AF     		add	r7, sp, #0
 1899              	.LCFI127:
 1900              		.cfi_def_cfa_register 7
 1901 0006 0346     		mov	r3, r0
 1902 0008 FB71     		strb	r3, [r7, #7]
 1903              		.loc 1 613 0
 1904 000a FB79     		ldrb	r3, [r7, #7]	@ zero_extendqisi2
 1905 000c 9BB2     		uxth	r3, r3
 1906 000e 4FEA0323 		lsl	r3, r3, #8
 1907 0012 9BB2     		uxth	r3, r3
 1908 0014 03F20443 		addw	r3, r3, #1028
 1909 0018 9BB2     		uxth	r3, r3
 1910 001a 1846     		mov	r0, r3
 1911 001c FFF7FEFF 		bl	ETH0_W51_Read16
 1912 0020 0346     		mov	r3, r0
 1913 0022 1846     		mov	r0, r3
 1914 0024 07F10807 		add	r7, r7, #8
 1915 0028 BD46     		mov	sp, r7
 1916 002a 80BD     		pop	{r7, pc}
 1917              		.cfi_endproc
 1918              	.LFE46:
 1919              		.size	ETH0_GetSocketSourcePort, .-ETH0_GetSocketSourcePort
 1920              		.section	.text.ETH0_SetSocketDestMAC,"ax",%progbits
 1921              		.align	2
 1922              		.thumb
 1923              		.thumb_func
 1924              		.type	ETH0_SetSocketDestMAC, %function
 1925              	ETH0_SetSocketDestMAC:
 1926              	.LFB47:
 614:.\Generated_Source\PSoC5/ETH0.c **** /* ------------------------------------------------------------------------ */
 615:.\Generated_Source\PSoC5/ETH0.c **** /**
 616:.\Generated_Source\PSoC5/ETH0.c ****  * \brief Write a value to the socket Destination hardware address register
 617:.\Generated_Source\PSoC5/ETH0.c ****  * \param socket the socket number for the addressed register
 618:.\Generated_Source\PSoC5/ETH0.c ****  * \param *mac poitner to the array holding the values to be written to the register
 619:.\Generated_Source\PSoC5/ETH0.c ****  */
 620:.\Generated_Source\PSoC5/ETH0.c **** static void ETH0_SetSocketDestMAC(uint8 socket, uint8* mac)
 621:.\Generated_Source\PSoC5/ETH0.c **** { ETH0_W51_SetMAC( ETH0_SOCKET_BASE(socket)+6, mac); }
 1927              		.loc 1 621 0
ARM GAS  C:\Users\CHUCK~1.ERH\AppData\Local\Temp\ccSfgJB7.s 			page 46


 1928              		.cfi_startproc
 1929              		@ args = 0, pretend = 0, frame = 8
 1930              		@ frame_needed = 1, uses_anonymous_args = 0
 1931 0000 80B5     		push	{r7, lr}
 1932              	.LCFI128:
 1933              		.cfi_def_cfa_offset 8
 1934              		.cfi_offset 7, -8
 1935              		.cfi_offset 14, -4
 1936 0002 82B0     		sub	sp, sp, #8
 1937              	.LCFI129:
 1938              		.cfi_def_cfa_offset 16
 1939 0004 00AF     		add	r7, sp, #0
 1940              	.LCFI130:
 1941              		.cfi_def_cfa_register 7
 1942 0006 0346     		mov	r3, r0
 1943 0008 3960     		str	r1, [r7, #0]
 1944 000a FB71     		strb	r3, [r7, #7]
 1945              		.loc 1 621 0
 1946 000c FB79     		ldrb	r3, [r7, #7]	@ zero_extendqisi2
 1947 000e 9BB2     		uxth	r3, r3
 1948 0010 4FEA0323 		lsl	r3, r3, #8
 1949 0014 9BB2     		uxth	r3, r3
 1950 0016 03F20643 		addw	r3, r3, #1030
 1951 001a 9BB2     		uxth	r3, r3
 1952 001c 1846     		mov	r0, r3
 1953 001e 3968     		ldr	r1, [r7, #0]
 1954 0020 FFF7FEFF 		bl	ETH0_W51_SetMAC
 1955 0024 07F10807 		add	r7, r7, #8
 1956 0028 BD46     		mov	sp, r7
 1957 002a 80BD     		pop	{r7, pc}
 1958              		.cfi_endproc
 1959              	.LFE47:
 1960              		.size	ETH0_SetSocketDestMAC, .-ETH0_SetSocketDestMAC
 1961              		.section	.text.ETH0_GetSocketDestMAC,"ax",%progbits
 1962              		.align	2
 1963              		.thumb
 1964              		.thumb_func
 1965              		.type	ETH0_GetSocketDestMAC, %function
 1966              	ETH0_GetSocketDestMAC:
 1967              	.LFB48:
 622:.\Generated_Source\PSoC5/ETH0.c **** /* ------------------------------------------------------------------------ */
 623:.\Generated_Source\PSoC5/ETH0.c **** /**
 624:.\Generated_Source\PSoC5/ETH0.c ****  * \brief Read a value from the socket destination hardware address (MAC) register
 625:.\Generated_Source\PSoC5/ETH0.c ****  * \param socket the socket number for the addressed register
 626:.\Generated_Source\PSoC5/ETH0.c ****  * \returns the value read from the register
 627:.\Generated_Source\PSoC5/ETH0.c ****  */
 628:.\Generated_Source\PSoC5/ETH0.c **** static void ETH0_GetSocketDestMAC(uint8 socket, uint8* mac)
 629:.\Generated_Source\PSoC5/ETH0.c **** { ETH0_W51_GetMAC( ETH0_SOCKET_BASE(socket)+6,mac); }
 1968              		.loc 1 629 0
 1969              		.cfi_startproc
 1970              		@ args = 0, pretend = 0, frame = 8
 1971              		@ frame_needed = 1, uses_anonymous_args = 0
 1972 0000 80B5     		push	{r7, lr}
 1973              	.LCFI131:
 1974              		.cfi_def_cfa_offset 8
 1975              		.cfi_offset 7, -8
 1976              		.cfi_offset 14, -4
ARM GAS  C:\Users\CHUCK~1.ERH\AppData\Local\Temp\ccSfgJB7.s 			page 47


 1977 0002 82B0     		sub	sp, sp, #8
 1978              	.LCFI132:
 1979              		.cfi_def_cfa_offset 16
 1980 0004 00AF     		add	r7, sp, #0
 1981              	.LCFI133:
 1982              		.cfi_def_cfa_register 7
 1983 0006 0346     		mov	r3, r0
 1984 0008 3960     		str	r1, [r7, #0]
 1985 000a FB71     		strb	r3, [r7, #7]
 1986              		.loc 1 629 0
 1987 000c FB79     		ldrb	r3, [r7, #7]	@ zero_extendqisi2
 1988 000e 9BB2     		uxth	r3, r3
 1989 0010 4FEA0323 		lsl	r3, r3, #8
 1990 0014 9BB2     		uxth	r3, r3
 1991 0016 03F20643 		addw	r3, r3, #1030
 1992 001a 9BB2     		uxth	r3, r3
 1993 001c 1846     		mov	r0, r3
 1994 001e 3968     		ldr	r1, [r7, #0]
 1995 0020 FFF7FEFF 		bl	ETH0_W51_GetMAC
 1996 0024 07F10807 		add	r7, r7, #8
 1997 0028 BD46     		mov	sp, r7
 1998 002a 80BD     		pop	{r7, pc}
 1999              		.cfi_endproc
 2000              	.LFE48:
 2001              		.size	ETH0_GetSocketDestMAC, .-ETH0_GetSocketDestMAC
 2002              		.section	.text.ETH0_SetSocketDestIP,"ax",%progbits
 2003              		.align	2
 2004              		.thumb
 2005              		.thumb_func
 2006              		.type	ETH0_SetSocketDestIP, %function
 2007              	ETH0_SetSocketDestIP:
 2008              	.LFB49:
 630:.\Generated_Source\PSoC5/ETH0.c **** /* ------------------------------------------------------------------------ */
 631:.\Generated_Source\PSoC5/ETH0.c **** /**
 632:.\Generated_Source\PSoC5/ETH0.c ****  * \brief Write a value to the socket Destination IP address register
 633:.\Generated_Source\PSoC5/ETH0.c ****  * \param socket the socket number for the addressed register
 634:.\Generated_Source\PSoC5/ETH0.c ****  * \param ip the value to be written to the register
 635:.\Generated_Source\PSoC5/ETH0.c ****  */
 636:.\Generated_Source\PSoC5/ETH0.c **** static void ETH0_SetSocketDestIP(uint8 socket, uint32 ip)
 637:.\Generated_Source\PSoC5/ETH0.c **** { ETH0_W51_SetIP(ETH0_SOCKET_BASE(socket)+12,ip); }
 2009              		.loc 1 637 0
 2010              		.cfi_startproc
 2011              		@ args = 0, pretend = 0, frame = 8
 2012              		@ frame_needed = 1, uses_anonymous_args = 0
 2013 0000 80B5     		push	{r7, lr}
 2014              	.LCFI134:
 2015              		.cfi_def_cfa_offset 8
 2016              		.cfi_offset 7, -8
 2017              		.cfi_offset 14, -4
 2018 0002 82B0     		sub	sp, sp, #8
 2019              	.LCFI135:
 2020              		.cfi_def_cfa_offset 16
 2021 0004 00AF     		add	r7, sp, #0
 2022              	.LCFI136:
 2023              		.cfi_def_cfa_register 7
 2024 0006 0346     		mov	r3, r0
 2025 0008 3960     		str	r1, [r7, #0]
ARM GAS  C:\Users\CHUCK~1.ERH\AppData\Local\Temp\ccSfgJB7.s 			page 48


 2026 000a FB71     		strb	r3, [r7, #7]
 2027              		.loc 1 637 0
 2028 000c FB79     		ldrb	r3, [r7, #7]	@ zero_extendqisi2
 2029 000e 9BB2     		uxth	r3, r3
 2030 0010 4FEA0323 		lsl	r3, r3, #8
 2031 0014 9BB2     		uxth	r3, r3
 2032 0016 03F20C43 		addw	r3, r3, #1036
 2033 001a 9BB2     		uxth	r3, r3
 2034 001c 1846     		mov	r0, r3
 2035 001e 3968     		ldr	r1, [r7, #0]
 2036 0020 FFF7FEFF 		bl	ETH0_W51_SetIP
 2037 0024 07F10807 		add	r7, r7, #8
 2038 0028 BD46     		mov	sp, r7
 2039 002a 80BD     		pop	{r7, pc}
 2040              		.cfi_endproc
 2041              	.LFE49:
 2042              		.size	ETH0_SetSocketDestIP, .-ETH0_SetSocketDestIP
 2043              		.section	.text.ETH0_GetSocketDestIP,"ax",%progbits
 2044              		.align	2
 2045              		.thumb
 2046              		.thumb_func
 2047              		.type	ETH0_GetSocketDestIP, %function
 2048              	ETH0_GetSocketDestIP:
 2049              	.LFB50:
 638:.\Generated_Source\PSoC5/ETH0.c **** /* ------------------------------------------------------------------------ */
 639:.\Generated_Source\PSoC5/ETH0.c **** /**
 640:.\Generated_Source\PSoC5/ETH0.c ****  * \brief Read a value from the socket destination IP register
 641:.\Generated_Source\PSoC5/ETH0.c ****  * \param socket the socket number for the addressed register
 642:.\Generated_Source\PSoC5/ETH0.c ****  * \returns the value read from the register
 643:.\Generated_Source\PSoC5/ETH0.c ****  */
 644:.\Generated_Source\PSoC5/ETH0.c **** static uint32 ETH0_GetSocketDestIP(uint8 socket )
 645:.\Generated_Source\PSoC5/ETH0.c **** { return ETH0_W51_GetIP(ETH0_SOCKET_BASE(socket)+12); }
 2050              		.loc 1 645 0
 2051              		.cfi_startproc
 2052              		@ args = 0, pretend = 0, frame = 8
 2053              		@ frame_needed = 1, uses_anonymous_args = 0
 2054 0000 80B5     		push	{r7, lr}
 2055              	.LCFI137:
 2056              		.cfi_def_cfa_offset 8
 2057              		.cfi_offset 7, -8
 2058              		.cfi_offset 14, -4
 2059 0002 82B0     		sub	sp, sp, #8
 2060              	.LCFI138:
 2061              		.cfi_def_cfa_offset 16
 2062 0004 00AF     		add	r7, sp, #0
 2063              	.LCFI139:
 2064              		.cfi_def_cfa_register 7
 2065 0006 0346     		mov	r3, r0
 2066 0008 FB71     		strb	r3, [r7, #7]
 2067              		.loc 1 645 0
 2068 000a FB79     		ldrb	r3, [r7, #7]	@ zero_extendqisi2
 2069 000c 9BB2     		uxth	r3, r3
 2070 000e 4FEA0323 		lsl	r3, r3, #8
 2071 0012 9BB2     		uxth	r3, r3
 2072 0014 03F20C43 		addw	r3, r3, #1036
 2073 0018 9BB2     		uxth	r3, r3
 2074 001a 1846     		mov	r0, r3
ARM GAS  C:\Users\CHUCK~1.ERH\AppData\Local\Temp\ccSfgJB7.s 			page 49


 2075 001c FFF7FEFF 		bl	ETH0_W51_GetIP
 2076 0020 0346     		mov	r3, r0
 2077 0022 1846     		mov	r0, r3
 2078 0024 07F10807 		add	r7, r7, #8
 2079 0028 BD46     		mov	sp, r7
 2080 002a 80BD     		pop	{r7, pc}
 2081              		.cfi_endproc
 2082              	.LFE50:
 2083              		.size	ETH0_GetSocketDestIP, .-ETH0_GetSocketDestIP
 2084              		.section	.text.ETH0_SetSocketDestPort,"ax",%progbits
 2085              		.align	2
 2086              		.thumb
 2087              		.thumb_func
 2088              		.type	ETH0_SetSocketDestPort, %function
 2089              	ETH0_SetSocketDestPort:
 2090              	.LFB51:
 646:.\Generated_Source\PSoC5/ETH0.c **** /* ------------------------------------------------------------------------ */
 647:.\Generated_Source\PSoC5/ETH0.c **** /**
 648:.\Generated_Source\PSoC5/ETH0.c ****  * \brief Write a value to the socket destination port register
 649:.\Generated_Source\PSoC5/ETH0.c ****  * \param socket the socket number for the addressed register
 650:.\Generated_Source\PSoC5/ETH0.c ****  * \param port the value to be written to the register
 651:.\Generated_Source\PSoC5/ETH0.c ****  */
 652:.\Generated_Source\PSoC5/ETH0.c **** static void ETH0_SetSocketDestPort(uint8 socket, uint16 port)
 653:.\Generated_Source\PSoC5/ETH0.c **** { ETH0_W51_Write16( ETH0_SOCKET_BASE(socket)+16, port); }
 2091              		.loc 1 653 0
 2092              		.cfi_startproc
 2093              		@ args = 0, pretend = 0, frame = 8
 2094              		@ frame_needed = 1, uses_anonymous_args = 0
 2095 0000 80B5     		push	{r7, lr}
 2096              	.LCFI140:
 2097              		.cfi_def_cfa_offset 8
 2098              		.cfi_offset 7, -8
 2099              		.cfi_offset 14, -4
 2100 0002 82B0     		sub	sp, sp, #8
 2101              	.LCFI141:
 2102              		.cfi_def_cfa_offset 16
 2103 0004 00AF     		add	r7, sp, #0
 2104              	.LCFI142:
 2105              		.cfi_def_cfa_register 7
 2106 0006 0246     		mov	r2, r0
 2107 0008 0B46     		mov	r3, r1
 2108 000a FA71     		strb	r2, [r7, #7]
 2109 000c BB80     		strh	r3, [r7, #4]	@ movhi
 2110              		.loc 1 653 0
 2111 000e FB79     		ldrb	r3, [r7, #7]	@ zero_extendqisi2
 2112 0010 9BB2     		uxth	r3, r3
 2113 0012 4FEA0323 		lsl	r3, r3, #8
 2114 0016 9BB2     		uxth	r3, r3
 2115 0018 03F58263 		add	r3, r3, #1040
 2116 001c 9AB2     		uxth	r2, r3
 2117 001e BB88     		ldrh	r3, [r7, #4]
 2118 0020 1046     		mov	r0, r2
 2119 0022 1946     		mov	r1, r3
 2120 0024 FFF7FEFF 		bl	ETH0_W51_Write16
 2121 0028 07F10807 		add	r7, r7, #8
 2122 002c BD46     		mov	sp, r7
 2123 002e 80BD     		pop	{r7, pc}
ARM GAS  C:\Users\CHUCK~1.ERH\AppData\Local\Temp\ccSfgJB7.s 			page 50


 2124              		.cfi_endproc
 2125              	.LFE51:
 2126              		.size	ETH0_SetSocketDestPort, .-ETH0_SetSocketDestPort
 2127              		.section	.text.ETH0_GetSocketDestPort,"ax",%progbits
 2128              		.align	2
 2129              		.thumb
 2130              		.thumb_func
 2131              		.type	ETH0_GetSocketDestPort, %function
 2132              	ETH0_GetSocketDestPort:
 2133              	.LFB52:
 654:.\Generated_Source\PSoC5/ETH0.c **** /* ------------------------------------------------------------------------ */
 655:.\Generated_Source\PSoC5/ETH0.c **** /**
 656:.\Generated_Source\PSoC5/ETH0.c ****  * \brief Read a value from the socket destination port register
 657:.\Generated_Source\PSoC5/ETH0.c ****  * \param socket the socket number for the addressed register
 658:.\Generated_Source\PSoC5/ETH0.c ****  * \returns the value read from the register
 659:.\Generated_Source\PSoC5/ETH0.c ****  */
 660:.\Generated_Source\PSoC5/ETH0.c **** static uint16 ETH0_GetSocketDestPort(uint8 socket)
 661:.\Generated_Source\PSoC5/ETH0.c **** { return ETH0_W51_Read16( ETH0_SOCKET_BASE(socket)+16 ); }
 2134              		.loc 1 661 0
 2135              		.cfi_startproc
 2136              		@ args = 0, pretend = 0, frame = 8
 2137              		@ frame_needed = 1, uses_anonymous_args = 0
 2138 0000 80B5     		push	{r7, lr}
 2139              	.LCFI143:
 2140              		.cfi_def_cfa_offset 8
 2141              		.cfi_offset 7, -8
 2142              		.cfi_offset 14, -4
 2143 0002 82B0     		sub	sp, sp, #8
 2144              	.LCFI144:
 2145              		.cfi_def_cfa_offset 16
 2146 0004 00AF     		add	r7, sp, #0
 2147              	.LCFI145:
 2148              		.cfi_def_cfa_register 7
 2149 0006 0346     		mov	r3, r0
 2150 0008 FB71     		strb	r3, [r7, #7]
 2151              		.loc 1 661 0
 2152 000a FB79     		ldrb	r3, [r7, #7]	@ zero_extendqisi2
 2153 000c 9BB2     		uxth	r3, r3
 2154 000e 4FEA0323 		lsl	r3, r3, #8
 2155 0012 9BB2     		uxth	r3, r3
 2156 0014 03F58263 		add	r3, r3, #1040
 2157 0018 9BB2     		uxth	r3, r3
 2158 001a 1846     		mov	r0, r3
 2159 001c FFF7FEFF 		bl	ETH0_W51_Read16
 2160 0020 0346     		mov	r3, r0
 2161 0022 1846     		mov	r0, r3
 2162 0024 07F10807 		add	r7, r7, #8
 2163 0028 BD46     		mov	sp, r7
 2164 002a 80BD     		pop	{r7, pc}
 2165              		.cfi_endproc
 2166              	.LFE52:
 2167              		.size	ETH0_GetSocketDestPort, .-ETH0_GetSocketDestPort
 2168              		.section	.text.ETH0_SetSocketMaxSegSize,"ax",%progbits
 2169              		.align	2
 2170              		.thumb
 2171              		.thumb_func
 2172              		.type	ETH0_SetSocketMaxSegSize, %function
ARM GAS  C:\Users\CHUCK~1.ERH\AppData\Local\Temp\ccSfgJB7.s 			page 51


 2173              	ETH0_SetSocketMaxSegSize:
 2174              	.LFB53:
 662:.\Generated_Source\PSoC5/ETH0.c **** /* ------------------------------------------------------------------------ */
 663:.\Generated_Source\PSoC5/ETH0.c **** /**
 664:.\Generated_Source\PSoC5/ETH0.c ****  * \brief Write a value to the socket max segment size register
 665:.\Generated_Source\PSoC5/ETH0.c ****  * \param socket the socket number for the addressed register
 666:.\Generated_Source\PSoC5/ETH0.c ****  * \param size the value to be written to the register
 667:.\Generated_Source\PSoC5/ETH0.c ****  */
 668:.\Generated_Source\PSoC5/ETH0.c **** static void ETH0_SetSocketMaxSegSize(uint8 socket, uint16 size)
 669:.\Generated_Source\PSoC5/ETH0.c **** { ETH0_W51_Write16(ETH0_SOCKET_BASE(socket)+18,size); }
 2175              		.loc 1 669 0
 2176              		.cfi_startproc
 2177              		@ args = 0, pretend = 0, frame = 8
 2178              		@ frame_needed = 1, uses_anonymous_args = 0
 2179 0000 80B5     		push	{r7, lr}
 2180              	.LCFI146:
 2181              		.cfi_def_cfa_offset 8
 2182              		.cfi_offset 7, -8
 2183              		.cfi_offset 14, -4
 2184 0002 82B0     		sub	sp, sp, #8
 2185              	.LCFI147:
 2186              		.cfi_def_cfa_offset 16
 2187 0004 00AF     		add	r7, sp, #0
 2188              	.LCFI148:
 2189              		.cfi_def_cfa_register 7
 2190 0006 0246     		mov	r2, r0
 2191 0008 0B46     		mov	r3, r1
 2192 000a FA71     		strb	r2, [r7, #7]
 2193 000c BB80     		strh	r3, [r7, #4]	@ movhi
 2194              		.loc 1 669 0
 2195 000e FB79     		ldrb	r3, [r7, #7]	@ zero_extendqisi2
 2196 0010 9BB2     		uxth	r3, r3
 2197 0012 4FEA0323 		lsl	r3, r3, #8
 2198 0016 9BB2     		uxth	r3, r3
 2199 0018 03F21243 		addw	r3, r3, #1042
 2200 001c 9AB2     		uxth	r2, r3
 2201 001e BB88     		ldrh	r3, [r7, #4]
 2202 0020 1046     		mov	r0, r2
 2203 0022 1946     		mov	r1, r3
 2204 0024 FFF7FEFF 		bl	ETH0_W51_Write16
 2205 0028 07F10807 		add	r7, r7, #8
 2206 002c BD46     		mov	sp, r7
 2207 002e 80BD     		pop	{r7, pc}
 2208              		.cfi_endproc
 2209              	.LFE53:
 2210              		.size	ETH0_SetSocketMaxSegSize, .-ETH0_SetSocketMaxSegSize
 2211              		.section	.text.ETH0_GetSocketMaxSegSize,"ax",%progbits
 2212              		.align	2
 2213              		.thumb
 2214              		.thumb_func
 2215              		.type	ETH0_GetSocketMaxSegSize, %function
 2216              	ETH0_GetSocketMaxSegSize:
 2217              	.LFB54:
 670:.\Generated_Source\PSoC5/ETH0.c **** /* ------------------------------------------------------------------------ */
 671:.\Generated_Source\PSoC5/ETH0.c **** /**
 672:.\Generated_Source\PSoC5/ETH0.c ****  * \brief Read a value from the socket maximum segment size register
 673:.\Generated_Source\PSoC5/ETH0.c ****  * \param socket the socket number for the addressed register
ARM GAS  C:\Users\CHUCK~1.ERH\AppData\Local\Temp\ccSfgJB7.s 			page 52


 674:.\Generated_Source\PSoC5/ETH0.c ****  * \returns the value read from the register
 675:.\Generated_Source\PSoC5/ETH0.c ****  */
 676:.\Generated_Source\PSoC5/ETH0.c **** static uint16 ETH0_GetSocketMaxSegSize(uint8 socket)
 677:.\Generated_Source\PSoC5/ETH0.c **** { return ETH0_W51_Read16(ETH0_SOCKET_BASE(socket)+18); }
 2218              		.loc 1 677 0
 2219              		.cfi_startproc
 2220              		@ args = 0, pretend = 0, frame = 8
 2221              		@ frame_needed = 1, uses_anonymous_args = 0
 2222 0000 80B5     		push	{r7, lr}
 2223              	.LCFI149:
 2224              		.cfi_def_cfa_offset 8
 2225              		.cfi_offset 7, -8
 2226              		.cfi_offset 14, -4
 2227 0002 82B0     		sub	sp, sp, #8
 2228              	.LCFI150:
 2229              		.cfi_def_cfa_offset 16
 2230 0004 00AF     		add	r7, sp, #0
 2231              	.LCFI151:
 2232              		.cfi_def_cfa_register 7
 2233 0006 0346     		mov	r3, r0
 2234 0008 FB71     		strb	r3, [r7, #7]
 2235              		.loc 1 677 0
 2236 000a FB79     		ldrb	r3, [r7, #7]	@ zero_extendqisi2
 2237 000c 9BB2     		uxth	r3, r3
 2238 000e 4FEA0323 		lsl	r3, r3, #8
 2239 0012 9BB2     		uxth	r3, r3
 2240 0014 03F21243 		addw	r3, r3, #1042
 2241 0018 9BB2     		uxth	r3, r3
 2242 001a 1846     		mov	r0, r3
 2243 001c FFF7FEFF 		bl	ETH0_W51_Read16
 2244 0020 0346     		mov	r3, r0
 2245 0022 1846     		mov	r0, r3
 2246 0024 07F10807 		add	r7, r7, #8
 2247 0028 BD46     		mov	sp, r7
 2248 002a 80BD     		pop	{r7, pc}
 2249              		.cfi_endproc
 2250              	.LFE54:
 2251              		.size	ETH0_GetSocketMaxSegSize, .-ETH0_GetSocketMaxSegSize
 2252              		.section	.text.ETH0_GetSocketProto,"ax",%progbits
 2253              		.align	2
 2254              		.thumb
 2255              		.thumb_func
 2256              		.type	ETH0_GetSocketProto, %function
 2257              	ETH0_GetSocketProto:
 2258              	.LFB55:
 678:.\Generated_Source\PSoC5/ETH0.c **** /* ------------------------------------------------------------------------ */
 679:.\Generated_Source\PSoC5/ETH0.c **** /**
 680:.\Generated_Source\PSoC5/ETH0.c ****  * \brief Read a value from the socket protocol register (IP RAW/MAC RAW mode)
 681:.\Generated_Source\PSoC5/ETH0.c ****  * \param socket the socket number for the addressed register
 682:.\Generated_Source\PSoC5/ETH0.c ****  * \returns the value read from the register
 683:.\Generated_Source\PSoC5/ETH0.c ****  */
 684:.\Generated_Source\PSoC5/ETH0.c **** static uint16  ETH0_GetSocketProto(uint8 socket)
 685:.\Generated_Source\PSoC5/ETH0.c **** { return ETH0_W51_Read(ETH0_SOCKET_BASE(socket)+20); }
 2259              		.loc 1 685 0
 2260              		.cfi_startproc
 2261              		@ args = 0, pretend = 0, frame = 8
 2262              		@ frame_needed = 1, uses_anonymous_args = 0
ARM GAS  C:\Users\CHUCK~1.ERH\AppData\Local\Temp\ccSfgJB7.s 			page 53


 2263 0000 80B5     		push	{r7, lr}
 2264              	.LCFI152:
 2265              		.cfi_def_cfa_offset 8
 2266              		.cfi_offset 7, -8
 2267              		.cfi_offset 14, -4
 2268 0002 82B0     		sub	sp, sp, #8
 2269              	.LCFI153:
 2270              		.cfi_def_cfa_offset 16
 2271 0004 00AF     		add	r7, sp, #0
 2272              	.LCFI154:
 2273              		.cfi_def_cfa_register 7
 2274 0006 0346     		mov	r3, r0
 2275 0008 FB71     		strb	r3, [r7, #7]
 2276              		.loc 1 685 0
 2277 000a FB79     		ldrb	r3, [r7, #7]	@ zero_extendqisi2
 2278 000c 9BB2     		uxth	r3, r3
 2279 000e 4FEA0323 		lsl	r3, r3, #8
 2280 0012 9BB2     		uxth	r3, r3
 2281 0014 03F21443 		addw	r3, r3, #1044
 2282 0018 9BB2     		uxth	r3, r3
 2283 001a 1846     		mov	r0, r3
 2284 001c FFF7FEFF 		bl	ETH0_W51_Read
 2285 0020 0346     		mov	r3, r0
 2286 0022 1846     		mov	r0, r3
 2287 0024 07F10807 		add	r7, r7, #8
 2288 0028 BD46     		mov	sp, r7
 2289 002a 80BD     		pop	{r7, pc}
 2290              		.cfi_endproc
 2291              	.LFE55:
 2292              		.size	ETH0_GetSocketProto, .-ETH0_GetSocketProto
 2293              		.section	.text.ETH0_SetSocketTOS,"ax",%progbits
 2294              		.align	2
 2295              		.thumb
 2296              		.thumb_func
 2297              		.type	ETH0_SetSocketTOS, %function
 2298              	ETH0_SetSocketTOS:
 2299              	.LFB56:
 686:.\Generated_Source\PSoC5/ETH0.c **** /* ------------------------------------------------------------------------ */
 687:.\Generated_Source\PSoC5/ETH0.c **** /**
 688:.\Generated_Source\PSoC5/ETH0.c ****  * \brief Write a value to the socket TOS register
 689:.\Generated_Source\PSoC5/ETH0.c ****  * \param socket the socket number for the addressed register
 690:.\Generated_Source\PSoC5/ETH0.c ****  * \param tos the value to be written to the register
 691:.\Generated_Source\PSoC5/ETH0.c ****  */
 692:.\Generated_Source\PSoC5/ETH0.c **** static void ETH0_SetSocketTOS(uint8 socket, uint8 tos)
 693:.\Generated_Source\PSoC5/ETH0.c **** { ETH0_W51_Write(ETH0_SOCKET_BASE(socket)+21, tos); }
 2300              		.loc 1 693 0
 2301              		.cfi_startproc
 2302              		@ args = 0, pretend = 0, frame = 8
 2303              		@ frame_needed = 1, uses_anonymous_args = 0
 2304 0000 80B5     		push	{r7, lr}
 2305              	.LCFI155:
 2306              		.cfi_def_cfa_offset 8
 2307              		.cfi_offset 7, -8
 2308              		.cfi_offset 14, -4
 2309 0002 82B0     		sub	sp, sp, #8
 2310              	.LCFI156:
 2311              		.cfi_def_cfa_offset 16
ARM GAS  C:\Users\CHUCK~1.ERH\AppData\Local\Temp\ccSfgJB7.s 			page 54


 2312 0004 00AF     		add	r7, sp, #0
 2313              	.LCFI157:
 2314              		.cfi_def_cfa_register 7
 2315 0006 0246     		mov	r2, r0
 2316 0008 0B46     		mov	r3, r1
 2317 000a FA71     		strb	r2, [r7, #7]
 2318 000c BB71     		strb	r3, [r7, #6]
 2319              		.loc 1 693 0
 2320 000e FB79     		ldrb	r3, [r7, #7]	@ zero_extendqisi2
 2321 0010 9BB2     		uxth	r3, r3
 2322 0012 4FEA0323 		lsl	r3, r3, #8
 2323 0016 9BB2     		uxth	r3, r3
 2324 0018 03F21543 		addw	r3, r3, #1045
 2325 001c 9AB2     		uxth	r2, r3
 2326 001e BB79     		ldrb	r3, [r7, #6]	@ zero_extendqisi2
 2327 0020 1046     		mov	r0, r2
 2328 0022 1946     		mov	r1, r3
 2329 0024 FFF7FEFF 		bl	ETH0_W51_Write
 2330 0028 07F10807 		add	r7, r7, #8
 2331 002c BD46     		mov	sp, r7
 2332 002e 80BD     		pop	{r7, pc}
 2333              		.cfi_endproc
 2334              	.LFE56:
 2335              		.size	ETH0_SetSocketTOS, .-ETH0_SetSocketTOS
 2336              		.section	.text.ETH0_GetSocketTOS,"ax",%progbits
 2337              		.align	2
 2338              		.thumb
 2339              		.thumb_func
 2340              		.type	ETH0_GetSocketTOS, %function
 2341              	ETH0_GetSocketTOS:
 2342              	.LFB57:
 694:.\Generated_Source\PSoC5/ETH0.c **** /* ------------------------------------------------------------------------ */
 695:.\Generated_Source\PSoC5/ETH0.c **** /**
 696:.\Generated_Source\PSoC5/ETH0.c ****  * \brief Read a value from the socket TOS register
 697:.\Generated_Source\PSoC5/ETH0.c ****  * \param socket the socket number for the addressed register
 698:.\Generated_Source\PSoC5/ETH0.c ****  * \returns the value read from the register
 699:.\Generated_Source\PSoC5/ETH0.c ****  */
 700:.\Generated_Source\PSoC5/ETH0.c **** static uint8 ETH0_GetSocketTOS(uint8 socket)
 701:.\Generated_Source\PSoC5/ETH0.c **** { return ETH0_W51_Read(ETH0_SOCKET_BASE(socket)+21); }
 2343              		.loc 1 701 0
 2344              		.cfi_startproc
 2345              		@ args = 0, pretend = 0, frame = 8
 2346              		@ frame_needed = 1, uses_anonymous_args = 0
 2347 0000 80B5     		push	{r7, lr}
 2348              	.LCFI158:
 2349              		.cfi_def_cfa_offset 8
 2350              		.cfi_offset 7, -8
 2351              		.cfi_offset 14, -4
 2352 0002 82B0     		sub	sp, sp, #8
 2353              	.LCFI159:
 2354              		.cfi_def_cfa_offset 16
 2355 0004 00AF     		add	r7, sp, #0
 2356              	.LCFI160:
 2357              		.cfi_def_cfa_register 7
 2358 0006 0346     		mov	r3, r0
 2359 0008 FB71     		strb	r3, [r7, #7]
 2360              		.loc 1 701 0
ARM GAS  C:\Users\CHUCK~1.ERH\AppData\Local\Temp\ccSfgJB7.s 			page 55


 2361 000a FB79     		ldrb	r3, [r7, #7]	@ zero_extendqisi2
 2362 000c 9BB2     		uxth	r3, r3
 2363 000e 4FEA0323 		lsl	r3, r3, #8
 2364 0012 9BB2     		uxth	r3, r3
 2365 0014 03F21543 		addw	r3, r3, #1045
 2366 0018 9BB2     		uxth	r3, r3
 2367 001a 1846     		mov	r0, r3
 2368 001c FFF7FEFF 		bl	ETH0_W51_Read
 2369 0020 0346     		mov	r3, r0
 2370 0022 1846     		mov	r0, r3
 2371 0024 07F10807 		add	r7, r7, #8
 2372 0028 BD46     		mov	sp, r7
 2373 002a 80BD     		pop	{r7, pc}
 2374              		.cfi_endproc
 2375              	.LFE57:
 2376              		.size	ETH0_GetSocketTOS, .-ETH0_GetSocketTOS
 2377              		.section	.text.ETH0_SetSocketTTL,"ax",%progbits
 2378              		.align	2
 2379              		.thumb
 2380              		.thumb_func
 2381              		.type	ETH0_SetSocketTTL, %function
 2382              	ETH0_SetSocketTTL:
 2383              	.LFB58:
 702:.\Generated_Source\PSoC5/ETH0.c **** /* ------------------------------------------------------------------------ */
 703:.\Generated_Source\PSoC5/ETH0.c **** /**
 704:.\Generated_Source\PSoC5/ETH0.c ****  * \brief Write a value to the socket Time-To_Live (TTL) register
 705:.\Generated_Source\PSoC5/ETH0.c ****  * \param socket the socket number for the addressed register
 706:.\Generated_Source\PSoC5/ETH0.c ****  * \param ttl the value to be written to the register
 707:.\Generated_Source\PSoC5/ETH0.c ****  */
 708:.\Generated_Source\PSoC5/ETH0.c **** static void ETH0_SetSocketTTL(uint8 socket, uint8 ttl)
 709:.\Generated_Source\PSoC5/ETH0.c **** { ETH0_W51_Write(ETH0_SOCKET_BASE(socket)+22,ttl); }
 2384              		.loc 1 709 0
 2385              		.cfi_startproc
 2386              		@ args = 0, pretend = 0, frame = 8
 2387              		@ frame_needed = 1, uses_anonymous_args = 0
 2388 0000 80B5     		push	{r7, lr}
 2389              	.LCFI161:
 2390              		.cfi_def_cfa_offset 8
 2391              		.cfi_offset 7, -8
 2392              		.cfi_offset 14, -4
 2393 0002 82B0     		sub	sp, sp, #8
 2394              	.LCFI162:
 2395              		.cfi_def_cfa_offset 16
 2396 0004 00AF     		add	r7, sp, #0
 2397              	.LCFI163:
 2398              		.cfi_def_cfa_register 7
 2399 0006 0246     		mov	r2, r0
 2400 0008 0B46     		mov	r3, r1
 2401 000a FA71     		strb	r2, [r7, #7]
 2402 000c BB71     		strb	r3, [r7, #6]
 2403              		.loc 1 709 0
 2404 000e FB79     		ldrb	r3, [r7, #7]	@ zero_extendqisi2
 2405 0010 9BB2     		uxth	r3, r3
 2406 0012 4FEA0323 		lsl	r3, r3, #8
 2407 0016 9BB2     		uxth	r3, r3
 2408 0018 03F21643 		addw	r3, r3, #1046
 2409 001c 9AB2     		uxth	r2, r3
ARM GAS  C:\Users\CHUCK~1.ERH\AppData\Local\Temp\ccSfgJB7.s 			page 56


 2410 001e BB79     		ldrb	r3, [r7, #6]	@ zero_extendqisi2
 2411 0020 1046     		mov	r0, r2
 2412 0022 1946     		mov	r1, r3
 2413 0024 FFF7FEFF 		bl	ETH0_W51_Write
 2414 0028 07F10807 		add	r7, r7, #8
 2415 002c BD46     		mov	sp, r7
 2416 002e 80BD     		pop	{r7, pc}
 2417              		.cfi_endproc
 2418              	.LFE58:
 2419              		.size	ETH0_SetSocketTTL, .-ETH0_SetSocketTTL
 2420              		.section	.text.ETH0_GetSocketTTL,"ax",%progbits
 2421              		.align	2
 2422              		.thumb
 2423              		.thumb_func
 2424              		.type	ETH0_GetSocketTTL, %function
 2425              	ETH0_GetSocketTTL:
 2426              	.LFB59:
 710:.\Generated_Source\PSoC5/ETH0.c **** /* ------------------------------------------------------------------------ */
 711:.\Generated_Source\PSoC5/ETH0.c **** /**
 712:.\Generated_Source\PSoC5/ETH0.c ****  * \brief Read a value from the socket time-to-live (TTL) register
 713:.\Generated_Source\PSoC5/ETH0.c ****  * \param socket the socket number for the addressed register
 714:.\Generated_Source\PSoC5/ETH0.c ****  * \returns the value read from the register
 715:.\Generated_Source\PSoC5/ETH0.c ****  */
 716:.\Generated_Source\PSoC5/ETH0.c **** static uint8 ETH0_GetSocketTTL(uint8 socket)
 717:.\Generated_Source\PSoC5/ETH0.c **** { return ETH0_W51_Read(ETH0_SOCKET_BASE(socket)+22); }
 2427              		.loc 1 717 0
 2428              		.cfi_startproc
 2429              		@ args = 0, pretend = 0, frame = 8
 2430              		@ frame_needed = 1, uses_anonymous_args = 0
 2431 0000 80B5     		push	{r7, lr}
 2432              	.LCFI164:
 2433              		.cfi_def_cfa_offset 8
 2434              		.cfi_offset 7, -8
 2435              		.cfi_offset 14, -4
 2436 0002 82B0     		sub	sp, sp, #8
 2437              	.LCFI165:
 2438              		.cfi_def_cfa_offset 16
 2439 0004 00AF     		add	r7, sp, #0
 2440              	.LCFI166:
 2441              		.cfi_def_cfa_register 7
 2442 0006 0346     		mov	r3, r0
 2443 0008 FB71     		strb	r3, [r7, #7]
 2444              		.loc 1 717 0
 2445 000a FB79     		ldrb	r3, [r7, #7]	@ zero_extendqisi2
 2446 000c 9BB2     		uxth	r3, r3
 2447 000e 4FEA0323 		lsl	r3, r3, #8
 2448 0012 9BB2     		uxth	r3, r3
 2449 0014 03F21643 		addw	r3, r3, #1046
 2450 0018 9BB2     		uxth	r3, r3
 2451 001a 1846     		mov	r0, r3
 2452 001c FFF7FEFF 		bl	ETH0_W51_Read
 2453 0020 0346     		mov	r3, r0
 2454 0022 1846     		mov	r0, r3
 2455 0024 07F10807 		add	r7, r7, #8
 2456 0028 BD46     		mov	sp, r7
 2457 002a 80BD     		pop	{r7, pc}
 2458              		.cfi_endproc
ARM GAS  C:\Users\CHUCK~1.ERH\AppData\Local\Temp\ccSfgJB7.s 			page 57


 2459              	.LFE59:
 2460              		.size	ETH0_GetSocketTTL, .-ETH0_GetSocketTTL
 2461              		.section	.text.ETH0_SetSocketTxFree,"ax",%progbits
 2462              		.align	2
 2463              		.thumb
 2464              		.thumb_func
 2465              		.type	ETH0_SetSocketTxFree, %function
 2466              	ETH0_SetSocketTxFree:
 2467              	.LFB60:
 718:.\Generated_Source\PSoC5/ETH0.c **** /* ------------------------------------------------------------------------ */
 719:.\Generated_Source\PSoC5/ETH0.c **** /**
 720:.\Generated_Source\PSoC5/ETH0.c ****  * \brief Write a value to the socket tx free size register
 721:.\Generated_Source\PSoC5/ETH0.c ****  * \param socket the socket number for the addressed register
 722:.\Generated_Source\PSoC5/ETH0.c ****  * \param size the value to be written to the register
 723:.\Generated_Source\PSoC5/ETH0.c ****  */
 724:.\Generated_Source\PSoC5/ETH0.c **** static void ETH0_SetSocketTxFree( uint8 socket, uint16 size)
 725:.\Generated_Source\PSoC5/ETH0.c **** { ETH0_W51_Write16(ETH0_SOCKET_BASE(socket)+0x20,size); }
 2468              		.loc 1 725 0
 2469              		.cfi_startproc
 2470              		@ args = 0, pretend = 0, frame = 8
 2471              		@ frame_needed = 1, uses_anonymous_args = 0
 2472 0000 80B5     		push	{r7, lr}
 2473              	.LCFI167:
 2474              		.cfi_def_cfa_offset 8
 2475              		.cfi_offset 7, -8
 2476              		.cfi_offset 14, -4
 2477 0002 82B0     		sub	sp, sp, #8
 2478              	.LCFI168:
 2479              		.cfi_def_cfa_offset 16
 2480 0004 00AF     		add	r7, sp, #0
 2481              	.LCFI169:
 2482              		.cfi_def_cfa_register 7
 2483 0006 0246     		mov	r2, r0
 2484 0008 0B46     		mov	r3, r1
 2485 000a FA71     		strb	r2, [r7, #7]
 2486 000c BB80     		strh	r3, [r7, #4]	@ movhi
 2487              		.loc 1 725 0
 2488 000e FB79     		ldrb	r3, [r7, #7]	@ zero_extendqisi2
 2489 0010 9BB2     		uxth	r3, r3
 2490 0012 4FEA0323 		lsl	r3, r3, #8
 2491 0016 9BB2     		uxth	r3, r3
 2492 0018 03F58463 		add	r3, r3, #1056
 2493 001c 9AB2     		uxth	r2, r3
 2494 001e BB88     		ldrh	r3, [r7, #4]
 2495 0020 1046     		mov	r0, r2
 2496 0022 1946     		mov	r1, r3
 2497 0024 FFF7FEFF 		bl	ETH0_W51_Write16
 2498 0028 07F10807 		add	r7, r7, #8
 2499 002c BD46     		mov	sp, r7
 2500 002e 80BD     		pop	{r7, pc}
 2501              		.cfi_endproc
 2502              	.LFE60:
 2503              		.size	ETH0_SetSocketTxFree, .-ETH0_SetSocketTxFree
 2504              		.section	.text.ETH0_GetSocketTxFree,"ax",%progbits
 2505              		.align	2
 2506              		.thumb
 2507              		.thumb_func
ARM GAS  C:\Users\CHUCK~1.ERH\AppData\Local\Temp\ccSfgJB7.s 			page 58


 2508              		.type	ETH0_GetSocketTxFree, %function
 2509              	ETH0_GetSocketTxFree:
 2510              	.LFB61:
 726:.\Generated_Source\PSoC5/ETH0.c **** /* ------------------------------------------------------------------------ */
 727:.\Generated_Source\PSoC5/ETH0.c **** /**
 728:.\Generated_Source\PSoC5/ETH0.c ****  * \brief Read a value from the socket Tx free size register
 729:.\Generated_Source\PSoC5/ETH0.c ****  * \param socket the socket number for the addressed register
 730:.\Generated_Source\PSoC5/ETH0.c ****  * \returns the value read from the register
 731:.\Generated_Source\PSoC5/ETH0.c ****  */
 732:.\Generated_Source\PSoC5/ETH0.c **** static uint16 ETH0_GetSocketTxFree(uint8 socket)
 733:.\Generated_Source\PSoC5/ETH0.c **** { return ETH0_W51_Read16(ETH0_SOCKET_BASE(socket)+0x20); }
 2511              		.loc 1 733 0
 2512              		.cfi_startproc
 2513              		@ args = 0, pretend = 0, frame = 8
 2514              		@ frame_needed = 1, uses_anonymous_args = 0
 2515 0000 80B5     		push	{r7, lr}
 2516              	.LCFI170:
 2517              		.cfi_def_cfa_offset 8
 2518              		.cfi_offset 7, -8
 2519              		.cfi_offset 14, -4
 2520 0002 82B0     		sub	sp, sp, #8
 2521              	.LCFI171:
 2522              		.cfi_def_cfa_offset 16
 2523 0004 00AF     		add	r7, sp, #0
 2524              	.LCFI172:
 2525              		.cfi_def_cfa_register 7
 2526 0006 0346     		mov	r3, r0
 2527 0008 FB71     		strb	r3, [r7, #7]
 2528              		.loc 1 733 0
 2529 000a FB79     		ldrb	r3, [r7, #7]	@ zero_extendqisi2
 2530 000c 9BB2     		uxth	r3, r3
 2531 000e 4FEA0323 		lsl	r3, r3, #8
 2532 0012 9BB2     		uxth	r3, r3
 2533 0014 03F58463 		add	r3, r3, #1056
 2534 0018 9BB2     		uxth	r3, r3
 2535 001a 1846     		mov	r0, r3
 2536 001c FFF7FEFF 		bl	ETH0_W51_Read16
 2537 0020 0346     		mov	r3, r0
 2538 0022 1846     		mov	r0, r3
 2539 0024 07F10807 		add	r7, r7, #8
 2540 0028 BD46     		mov	sp, r7
 2541 002a 80BD     		pop	{r7, pc}
 2542              		.cfi_endproc
 2543              	.LFE61:
 2544              		.size	ETH0_GetSocketTxFree, .-ETH0_GetSocketTxFree
 2545              		.section	.text.ETH0_SetSocketTxReadPtr,"ax",%progbits
 2546              		.align	2
 2547              		.thumb
 2548              		.thumb_func
 2549              		.type	ETH0_SetSocketTxReadPtr, %function
 2550              	ETH0_SetSocketTxReadPtr:
 2551              	.LFB62:
 734:.\Generated_Source\PSoC5/ETH0.c **** /* ------------------------------------------------------------------------ */
 735:.\Generated_Source\PSoC5/ETH0.c **** /**
 736:.\Generated_Source\PSoC5/ETH0.c ****  * \brief Write a value to the socket tx read pointer register
 737:.\Generated_Source\PSoC5/ETH0.c ****  * \param socket the socket number for the addressed register
 738:.\Generated_Source\PSoC5/ETH0.c ****  * \param ptr the value to be written to the register
ARM GAS  C:\Users\CHUCK~1.ERH\AppData\Local\Temp\ccSfgJB7.s 			page 59


 739:.\Generated_Source\PSoC5/ETH0.c ****  */
 740:.\Generated_Source\PSoC5/ETH0.c **** static void ETH0_SetSocketTxReadPtr(uint8 socket, uint16 ptr)
 741:.\Generated_Source\PSoC5/ETH0.c **** { ETH0_W51_Write16(ETH0_SOCKET_BASE(socket)+0x22,ptr); }
 2552              		.loc 1 741 0
 2553              		.cfi_startproc
 2554              		@ args = 0, pretend = 0, frame = 8
 2555              		@ frame_needed = 1, uses_anonymous_args = 0
 2556 0000 80B5     		push	{r7, lr}
 2557              	.LCFI173:
 2558              		.cfi_def_cfa_offset 8
 2559              		.cfi_offset 7, -8
 2560              		.cfi_offset 14, -4
 2561 0002 82B0     		sub	sp, sp, #8
 2562              	.LCFI174:
 2563              		.cfi_def_cfa_offset 16
 2564 0004 00AF     		add	r7, sp, #0
 2565              	.LCFI175:
 2566              		.cfi_def_cfa_register 7
 2567 0006 0246     		mov	r2, r0
 2568 0008 0B46     		mov	r3, r1
 2569 000a FA71     		strb	r2, [r7, #7]
 2570 000c BB80     		strh	r3, [r7, #4]	@ movhi
 2571              		.loc 1 741 0
 2572 000e FB79     		ldrb	r3, [r7, #7]	@ zero_extendqisi2
 2573 0010 9BB2     		uxth	r3, r3
 2574 0012 4FEA0323 		lsl	r3, r3, #8
 2575 0016 9BB2     		uxth	r3, r3
 2576 0018 03F22243 		addw	r3, r3, #1058
 2577 001c 9AB2     		uxth	r2, r3
 2578 001e BB88     		ldrh	r3, [r7, #4]
 2579 0020 1046     		mov	r0, r2
 2580 0022 1946     		mov	r1, r3
 2581 0024 FFF7FEFF 		bl	ETH0_W51_Write16
 2582 0028 07F10807 		add	r7, r7, #8
 2583 002c BD46     		mov	sp, r7
 2584 002e 80BD     		pop	{r7, pc}
 2585              		.cfi_endproc
 2586              	.LFE62:
 2587              		.size	ETH0_SetSocketTxReadPtr, .-ETH0_SetSocketTxReadPtr
 2588              		.section	.text.ETH0_GetSocketTxReadPtr,"ax",%progbits
 2589              		.align	2
 2590              		.thumb
 2591              		.thumb_func
 2592              		.type	ETH0_GetSocketTxReadPtr, %function
 2593              	ETH0_GetSocketTxReadPtr:
 2594              	.LFB63:
 742:.\Generated_Source\PSoC5/ETH0.c **** /* ------------------------------------------------------------------------ */
 743:.\Generated_Source\PSoC5/ETH0.c **** /**
 744:.\Generated_Source\PSoC5/ETH0.c ****  * \brief Read a value from the socket Tx buffer read pointer register
 745:.\Generated_Source\PSoC5/ETH0.c ****  * \param socket the socket number for the addressed register
 746:.\Generated_Source\PSoC5/ETH0.c ****  * \returns the value read from the register
 747:.\Generated_Source\PSoC5/ETH0.c ****  */
 748:.\Generated_Source\PSoC5/ETH0.c **** static uint16 ETH0_GetSocketTxReadPtr(uint8 socket)
 749:.\Generated_Source\PSoC5/ETH0.c **** { return ETH0_W51_Read16(ETH0_SOCKET_BASE(socket)+0x22); }
 2595              		.loc 1 749 0
 2596              		.cfi_startproc
 2597              		@ args = 0, pretend = 0, frame = 8
ARM GAS  C:\Users\CHUCK~1.ERH\AppData\Local\Temp\ccSfgJB7.s 			page 60


 2598              		@ frame_needed = 1, uses_anonymous_args = 0
 2599 0000 80B5     		push	{r7, lr}
 2600              	.LCFI176:
 2601              		.cfi_def_cfa_offset 8
 2602              		.cfi_offset 7, -8
 2603              		.cfi_offset 14, -4
 2604 0002 82B0     		sub	sp, sp, #8
 2605              	.LCFI177:
 2606              		.cfi_def_cfa_offset 16
 2607 0004 00AF     		add	r7, sp, #0
 2608              	.LCFI178:
 2609              		.cfi_def_cfa_register 7
 2610 0006 0346     		mov	r3, r0
 2611 0008 FB71     		strb	r3, [r7, #7]
 2612              		.loc 1 749 0
 2613 000a FB79     		ldrb	r3, [r7, #7]	@ zero_extendqisi2
 2614 000c 9BB2     		uxth	r3, r3
 2615 000e 4FEA0323 		lsl	r3, r3, #8
 2616 0012 9BB2     		uxth	r3, r3
 2617 0014 03F22243 		addw	r3, r3, #1058
 2618 0018 9BB2     		uxth	r3, r3
 2619 001a 1846     		mov	r0, r3
 2620 001c FFF7FEFF 		bl	ETH0_W51_Read16
 2621 0020 0346     		mov	r3, r0
 2622 0022 1846     		mov	r0, r3
 2623 0024 07F10807 		add	r7, r7, #8
 2624 0028 BD46     		mov	sp, r7
 2625 002a 80BD     		pop	{r7, pc}
 2626              		.cfi_endproc
 2627              	.LFE63:
 2628              		.size	ETH0_GetSocketTxReadPtr, .-ETH0_GetSocketTxReadPtr
 2629              		.section	.text.ETH0_SetSocketTxWritePtr,"ax",%progbits
 2630              		.align	2
 2631              		.thumb
 2632              		.thumb_func
 2633              		.type	ETH0_SetSocketTxWritePtr, %function
 2634              	ETH0_SetSocketTxWritePtr:
 2635              	.LFB64:
 750:.\Generated_Source\PSoC5/ETH0.c **** /* ------------------------------------------------------------------------ */
 751:.\Generated_Source\PSoC5/ETH0.c **** /**
 752:.\Generated_Source\PSoC5/ETH0.c ****  * \brief Write a value to the socket tx write pointer register
 753:.\Generated_Source\PSoC5/ETH0.c ****  * \param socket the socket number for the addressed register
 754:.\Generated_Source\PSoC5/ETH0.c ****  * \param ptr the value to be written to the register
 755:.\Generated_Source\PSoC5/ETH0.c ****  */
 756:.\Generated_Source\PSoC5/ETH0.c **** static void ETH0_SetSocketTxWritePtr(uint8 socket, uint16 ptr)
 757:.\Generated_Source\PSoC5/ETH0.c **** { ETH0_W51_Write16(ETH0_SOCKET_BASE(socket)+0x24,ptr); }
 2636              		.loc 1 757 0
 2637              		.cfi_startproc
 2638              		@ args = 0, pretend = 0, frame = 8
 2639              		@ frame_needed = 1, uses_anonymous_args = 0
 2640 0000 80B5     		push	{r7, lr}
 2641              	.LCFI179:
 2642              		.cfi_def_cfa_offset 8
 2643              		.cfi_offset 7, -8
 2644              		.cfi_offset 14, -4
 2645 0002 82B0     		sub	sp, sp, #8
 2646              	.LCFI180:
ARM GAS  C:\Users\CHUCK~1.ERH\AppData\Local\Temp\ccSfgJB7.s 			page 61


 2647              		.cfi_def_cfa_offset 16
 2648 0004 00AF     		add	r7, sp, #0
 2649              	.LCFI181:
 2650              		.cfi_def_cfa_register 7
 2651 0006 0246     		mov	r2, r0
 2652 0008 0B46     		mov	r3, r1
 2653 000a FA71     		strb	r2, [r7, #7]
 2654 000c BB80     		strh	r3, [r7, #4]	@ movhi
 2655              		.loc 1 757 0
 2656 000e FB79     		ldrb	r3, [r7, #7]	@ zero_extendqisi2
 2657 0010 9BB2     		uxth	r3, r3
 2658 0012 4FEA0323 		lsl	r3, r3, #8
 2659 0016 9BB2     		uxth	r3, r3
 2660 0018 03F22443 		addw	r3, r3, #1060
 2661 001c 9AB2     		uxth	r2, r3
 2662 001e BB88     		ldrh	r3, [r7, #4]
 2663 0020 1046     		mov	r0, r2
 2664 0022 1946     		mov	r1, r3
 2665 0024 FFF7FEFF 		bl	ETH0_W51_Write16
 2666 0028 07F10807 		add	r7, r7, #8
 2667 002c BD46     		mov	sp, r7
 2668 002e 80BD     		pop	{r7, pc}
 2669              		.cfi_endproc
 2670              	.LFE64:
 2671              		.size	ETH0_SetSocketTxWritePtr, .-ETH0_SetSocketTxWritePtr
 2672              		.section	.text.ETH0_GetSocketTxWritePtr,"ax",%progbits
 2673              		.align	2
 2674              		.thumb
 2675              		.thumb_func
 2676              		.type	ETH0_GetSocketTxWritePtr, %function
 2677              	ETH0_GetSocketTxWritePtr:
 2678              	.LFB65:
 758:.\Generated_Source\PSoC5/ETH0.c **** /* ------------------------------------------------------------------------ */
 759:.\Generated_Source\PSoC5/ETH0.c **** /**
 760:.\Generated_Source\PSoC5/ETH0.c ****  * \brief Read a value from the socket tx buffer write pointer register
 761:.\Generated_Source\PSoC5/ETH0.c ****  * \param socket the socket number for the addressed register
 762:.\Generated_Source\PSoC5/ETH0.c ****  * \returns the value read from the register
 763:.\Generated_Source\PSoC5/ETH0.c ****  */
 764:.\Generated_Source\PSoC5/ETH0.c **** static uint16 ETH0_GetSocketTxWritePtr(uint8 socket)
 765:.\Generated_Source\PSoC5/ETH0.c **** { return ETH0_W51_Read16(ETH0_SOCKET_BASE(socket)+0x24); }
 2679              		.loc 1 765 0
 2680              		.cfi_startproc
 2681              		@ args = 0, pretend = 0, frame = 8
 2682              		@ frame_needed = 1, uses_anonymous_args = 0
 2683 0000 80B5     		push	{r7, lr}
 2684              	.LCFI182:
 2685              		.cfi_def_cfa_offset 8
 2686              		.cfi_offset 7, -8
 2687              		.cfi_offset 14, -4
 2688 0002 82B0     		sub	sp, sp, #8
 2689              	.LCFI183:
 2690              		.cfi_def_cfa_offset 16
 2691 0004 00AF     		add	r7, sp, #0
 2692              	.LCFI184:
 2693              		.cfi_def_cfa_register 7
 2694 0006 0346     		mov	r3, r0
 2695 0008 FB71     		strb	r3, [r7, #7]
ARM GAS  C:\Users\CHUCK~1.ERH\AppData\Local\Temp\ccSfgJB7.s 			page 62


 2696              		.loc 1 765 0
 2697 000a FB79     		ldrb	r3, [r7, #7]	@ zero_extendqisi2
 2698 000c 9BB2     		uxth	r3, r3
 2699 000e 4FEA0323 		lsl	r3, r3, #8
 2700 0012 9BB2     		uxth	r3, r3
 2701 0014 03F22443 		addw	r3, r3, #1060
 2702 0018 9BB2     		uxth	r3, r3
 2703 001a 1846     		mov	r0, r3
 2704 001c FFF7FEFF 		bl	ETH0_W51_Read16
 2705 0020 0346     		mov	r3, r0
 2706 0022 1846     		mov	r0, r3
 2707 0024 07F10807 		add	r7, r7, #8
 2708 0028 BD46     		mov	sp, r7
 2709 002a 80BD     		pop	{r7, pc}
 2710              		.cfi_endproc
 2711              	.LFE65:
 2712              		.size	ETH0_GetSocketTxWritePtr, .-ETH0_GetSocketTxWritePtr
 2713              		.section	.text.ETH0_GetSocketRxSize,"ax",%progbits
 2714              		.align	2
 2715              		.thumb
 2716              		.thumb_func
 2717              		.type	ETH0_GetSocketRxSize, %function
 2718              	ETH0_GetSocketRxSize:
 2719              	.LFB66:
 766:.\Generated_Source\PSoC5/ETH0.c **** /* ------------------------------------------------------------------------ */
 767:.\Generated_Source\PSoC5/ETH0.c **** /**
 768:.\Generated_Source\PSoC5/ETH0.c ****  * \brief Read a value from the socket rx received data size register
 769:.\Generated_Source\PSoC5/ETH0.c ****  * \param socket the socket number for the addressed register
 770:.\Generated_Source\PSoC5/ETH0.c ****  * \returns the value read from the register
 771:.\Generated_Source\PSoC5/ETH0.c ****  */
 772:.\Generated_Source\PSoC5/ETH0.c **** static uint16 ETH0_GetSocketRxSize(uint8 socket)
 773:.\Generated_Source\PSoC5/ETH0.c **** { return ETH0_W51_Read16(ETH0_SOCKET_BASE(socket)+0x26); }
 2720              		.loc 1 773 0
 2721              		.cfi_startproc
 2722              		@ args = 0, pretend = 0, frame = 8
 2723              		@ frame_needed = 1, uses_anonymous_args = 0
 2724 0000 80B5     		push	{r7, lr}
 2725              	.LCFI185:
 2726              		.cfi_def_cfa_offset 8
 2727              		.cfi_offset 7, -8
 2728              		.cfi_offset 14, -4
 2729 0002 82B0     		sub	sp, sp, #8
 2730              	.LCFI186:
 2731              		.cfi_def_cfa_offset 16
 2732 0004 00AF     		add	r7, sp, #0
 2733              	.LCFI187:
 2734              		.cfi_def_cfa_register 7
 2735 0006 0346     		mov	r3, r0
 2736 0008 FB71     		strb	r3, [r7, #7]
 2737              		.loc 1 773 0
 2738 000a FB79     		ldrb	r3, [r7, #7]	@ zero_extendqisi2
 2739 000c 9BB2     		uxth	r3, r3
 2740 000e 4FEA0323 		lsl	r3, r3, #8
 2741 0012 9BB2     		uxth	r3, r3
 2742 0014 03F22643 		addw	r3, r3, #1062
 2743 0018 9BB2     		uxth	r3, r3
 2744 001a 1846     		mov	r0, r3
ARM GAS  C:\Users\CHUCK~1.ERH\AppData\Local\Temp\ccSfgJB7.s 			page 63


 2745 001c FFF7FEFF 		bl	ETH0_W51_Read16
 2746 0020 0346     		mov	r3, r0
 2747 0022 1846     		mov	r0, r3
 2748 0024 07F10807 		add	r7, r7, #8
 2749 0028 BD46     		mov	sp, r7
 2750 002a 80BD     		pop	{r7, pc}
 2751              		.cfi_endproc
 2752              	.LFE66:
 2753              		.size	ETH0_GetSocketRxSize, .-ETH0_GetSocketRxSize
 2754              		.section	.text.ETH0_SetSocketRxReadPtr,"ax",%progbits
 2755              		.align	2
 2756              		.thumb
 2757              		.thumb_func
 2758              		.type	ETH0_SetSocketRxReadPtr, %function
 2759              	ETH0_SetSocketRxReadPtr:
 2760              	.LFB67:
 774:.\Generated_Source\PSoC5/ETH0.c **** /* ------------------------------------------------------------------------ */
 775:.\Generated_Source\PSoC5/ETH0.c **** /**
 776:.\Generated_Source\PSoC5/ETH0.c ****  * \brief Write a value to the socket rx read pointer register
 777:.\Generated_Source\PSoC5/ETH0.c ****  * \param socket the socket number for the addressed register
 778:.\Generated_Source\PSoC5/ETH0.c ****  * \param ptr the value to be written to the register
 779:.\Generated_Source\PSoC5/ETH0.c ****  */
 780:.\Generated_Source\PSoC5/ETH0.c **** static void ETH0_SetSocketRxReadPtr(uint8 socket, uint16 ptr)
 781:.\Generated_Source\PSoC5/ETH0.c **** { ETH0_W51_Write16(ETH0_SOCKET_BASE(socket)+0x28,ptr); }
 2761              		.loc 1 781 0
 2762              		.cfi_startproc
 2763              		@ args = 0, pretend = 0, frame = 8
 2764              		@ frame_needed = 1, uses_anonymous_args = 0
 2765 0000 80B5     		push	{r7, lr}
 2766              	.LCFI188:
 2767              		.cfi_def_cfa_offset 8
 2768              		.cfi_offset 7, -8
 2769              		.cfi_offset 14, -4
 2770 0002 82B0     		sub	sp, sp, #8
 2771              	.LCFI189:
 2772              		.cfi_def_cfa_offset 16
 2773 0004 00AF     		add	r7, sp, #0
 2774              	.LCFI190:
 2775              		.cfi_def_cfa_register 7
 2776 0006 0246     		mov	r2, r0
 2777 0008 0B46     		mov	r3, r1
 2778 000a FA71     		strb	r2, [r7, #7]
 2779 000c BB80     		strh	r3, [r7, #4]	@ movhi
 2780              		.loc 1 781 0
 2781 000e FB79     		ldrb	r3, [r7, #7]	@ zero_extendqisi2
 2782 0010 9BB2     		uxth	r3, r3
 2783 0012 4FEA0323 		lsl	r3, r3, #8
 2784 0016 9BB2     		uxth	r3, r3
 2785 0018 03F58563 		add	r3, r3, #1064
 2786 001c 9AB2     		uxth	r2, r3
 2787 001e BB88     		ldrh	r3, [r7, #4]
 2788 0020 1046     		mov	r0, r2
 2789 0022 1946     		mov	r1, r3
 2790 0024 FFF7FEFF 		bl	ETH0_W51_Write16
 2791 0028 07F10807 		add	r7, r7, #8
 2792 002c BD46     		mov	sp, r7
 2793 002e 80BD     		pop	{r7, pc}
ARM GAS  C:\Users\CHUCK~1.ERH\AppData\Local\Temp\ccSfgJB7.s 			page 64


 2794              		.cfi_endproc
 2795              	.LFE67:
 2796              		.size	ETH0_SetSocketRxReadPtr, .-ETH0_SetSocketRxReadPtr
 2797              		.section	.text.ETH0_GetSocketRxReadPtr,"ax",%progbits
 2798              		.align	2
 2799              		.thumb
 2800              		.thumb_func
 2801              		.type	ETH0_GetSocketRxReadPtr, %function
 2802              	ETH0_GetSocketRxReadPtr:
 2803              	.LFB68:
 782:.\Generated_Source\PSoC5/ETH0.c **** /* ------------------------------------------------------------------------ */
 783:.\Generated_Source\PSoC5/ETH0.c **** /**
 784:.\Generated_Source\PSoC5/ETH0.c ****  * \brief Read a value from the socket rx buffer read pointer register
 785:.\Generated_Source\PSoC5/ETH0.c ****  * \param socket the socket number for the addressed register
 786:.\Generated_Source\PSoC5/ETH0.c ****  * \returns the value read from the register
 787:.\Generated_Source\PSoC5/ETH0.c ****  */
 788:.\Generated_Source\PSoC5/ETH0.c **** static uint16 ETH0_GetSocketRxReadPtr(uint8 socket)
 789:.\Generated_Source\PSoC5/ETH0.c **** { return ETH0_W51_Read16(ETH0_SOCKET_BASE(socket)+0x28); }
 2804              		.loc 1 789 0
 2805              		.cfi_startproc
 2806              		@ args = 0, pretend = 0, frame = 8
 2807              		@ frame_needed = 1, uses_anonymous_args = 0
 2808 0000 80B5     		push	{r7, lr}
 2809              	.LCFI191:
 2810              		.cfi_def_cfa_offset 8
 2811              		.cfi_offset 7, -8
 2812              		.cfi_offset 14, -4
 2813 0002 82B0     		sub	sp, sp, #8
 2814              	.LCFI192:
 2815              		.cfi_def_cfa_offset 16
 2816 0004 00AF     		add	r7, sp, #0
 2817              	.LCFI193:
 2818              		.cfi_def_cfa_register 7
 2819 0006 0346     		mov	r3, r0
 2820 0008 FB71     		strb	r3, [r7, #7]
 2821              		.loc 1 789 0
 2822 000a FB79     		ldrb	r3, [r7, #7]	@ zero_extendqisi2
 2823 000c 9BB2     		uxth	r3, r3
 2824 000e 4FEA0323 		lsl	r3, r3, #8
 2825 0012 9BB2     		uxth	r3, r3
 2826 0014 03F58563 		add	r3, r3, #1064
 2827 0018 9BB2     		uxth	r3, r3
 2828 001a 1846     		mov	r0, r3
 2829 001c FFF7FEFF 		bl	ETH0_W51_Read16
 2830 0020 0346     		mov	r3, r0
 2831 0022 1846     		mov	r0, r3
 2832 0024 07F10807 		add	r7, r7, #8
 2833 0028 BD46     		mov	sp, r7
 2834 002a 80BD     		pop	{r7, pc}
 2835              		.cfi_endproc
 2836              	.LFE68:
 2837              		.size	ETH0_GetSocketRxReadPtr, .-ETH0_GetSocketRxReadPtr
 2838              		.section	.text.ETH0_ExecuteSocketCommand,"ax",%progbits
 2839              		.align	2
 2840              		.thumb
 2841              		.thumb_func
 2842              		.type	ETH0_ExecuteSocketCommand, %function
ARM GAS  C:\Users\CHUCK~1.ERH\AppData\Local\Temp\ccSfgJB7.s 			page 65


 2843              	ETH0_ExecuteSocketCommand:
 2844              	.LFB69:
 790:.\Generated_Source\PSoC5/ETH0.c **** /* ------------------------------------------------------------------------ */
 791:.\Generated_Source\PSoC5/ETH0.c **** /**
 792:.\Generated_Source\PSoC5/ETH0.c ****  * \brief Write a command to the socket command register and wait for completion
 793:.\Generated_Source\PSoC5/ETH0.c ****  * \param socket the addressed socket for the command
 794:.\Generated_Source\PSoC5/ETH0.c ****  * \param cmd the command to execute
 795:.\Generated_Source\PSoC5/ETH0.c ****  */
 796:.\Generated_Source\PSoC5/ETH0.c **** static uint32 ETH0_ExecuteSocketCommand( uint8 socket, int cmd)
 797:.\Generated_Source\PSoC5/ETH0.c **** {
 2845              		.loc 1 797 0
 2846              		.cfi_startproc
 2847              		@ args = 0, pretend = 0, frame = 16
 2848              		@ frame_needed = 1, uses_anonymous_args = 0
 2849 0000 80B5     		push	{r7, lr}
 2850              	.LCFI194:
 2851              		.cfi_def_cfa_offset 8
 2852              		.cfi_offset 7, -8
 2853              		.cfi_offset 14, -4
 2854 0002 84B0     		sub	sp, sp, #16
 2855              	.LCFI195:
 2856              		.cfi_def_cfa_offset 24
 2857 0004 00AF     		add	r7, sp, #0
 2858              	.LCFI196:
 2859              		.cfi_def_cfa_register 7
 2860 0006 0346     		mov	r3, r0
 2861 0008 3960     		str	r1, [r7, #0]
 2862 000a FB71     		strb	r3, [r7, #7]
 798:.\Generated_Source\PSoC5/ETH0.c **** 	uint32 timeout;
 799:.\Generated_Source\PSoC5/ETH0.c **** 	timeout = 0;
 2863              		.loc 1 799 0
 2864 000c 4FF00003 		mov	r3, #0
 2865 0010 FB60     		str	r3, [r7, #12]
 800:.\Generated_Source\PSoC5/ETH0.c **** 	
 801:.\Generated_Source\PSoC5/ETH0.c **** 	ETH0_SetSocketCommand(socket,cmd);
 2866              		.loc 1 801 0
 2867 0012 3B68     		ldr	r3, [r7, #0]
 2868 0014 DBB2     		uxtb	r3, r3
 2869 0016 FA79     		ldrb	r2, [r7, #7]	@ zero_extendqisi2
 2870 0018 1046     		mov	r0, r2
 2871 001a 1946     		mov	r1, r3
 2872 001c FFF7FEFF 		bl	ETH0_SetSocketCommand
 802:.\Generated_Source\PSoC5/ETH0.c **** 	while ( ( ETH0_GetSocketCommand(socket) ) && (timeout < 125))
 2873              		.loc 1 802 0
 2874 0020 07E0     		b	.L116
 2875              	.L118:
 803:.\Generated_Source\PSoC5/ETH0.c **** 	{
 804:.\Generated_Source\PSoC5/ETH0.c **** 		++timeout;
 2876              		.loc 1 804 0
 2877 0022 FB68     		ldr	r3, [r7, #12]
 2878 0024 03F10103 		add	r3, r3, #1
 2879 0028 FB60     		str	r3, [r7, #12]
 805:.\Generated_Source\PSoC5/ETH0.c **** 		CyDelay(1);
 2880              		.loc 1 805 0
 2881 002a 4FF00100 		mov	r0, #1
 2882 002e FFF7FEFF 		bl	CyDelay
 2883              	.L116:
ARM GAS  C:\Users\CHUCK~1.ERH\AppData\Local\Temp\ccSfgJB7.s 			page 66


 802:.\Generated_Source\PSoC5/ETH0.c **** 	while ( ( ETH0_GetSocketCommand(socket) ) && (timeout < 125))
 2884              		.loc 1 802 0 discriminator 1
 2885 0032 FB79     		ldrb	r3, [r7, #7]	@ zero_extendqisi2
 2886 0034 1846     		mov	r0, r3
 2887 0036 FFF7FEFF 		bl	ETH0_GetSocketCommand
 2888 003a 0346     		mov	r3, r0
 2889 003c 002B     		cmp	r3, #0
 2890 003e 02D0     		beq	.L117
 802:.\Generated_Source\PSoC5/ETH0.c **** 	while ( ( ETH0_GetSocketCommand(socket) ) && (timeout < 125))
 2891              		.loc 1 802 0 is_stmt 0 discriminator 2
 2892 0040 FB68     		ldr	r3, [r7, #12]
 2893 0042 7C2B     		cmp	r3, #124
 2894 0044 EDD9     		bls	.L118
 2895              	.L117:
 806:.\Generated_Source\PSoC5/ETH0.c **** 	}
 807:.\Generated_Source\PSoC5/ETH0.c **** 	return( timeout );
 2896              		.loc 1 807 0 is_stmt 1
 2897 0046 FB68     		ldr	r3, [r7, #12]
 808:.\Generated_Source\PSoC5/ETH0.c **** }
 2898              		.loc 1 808 0
 2899 0048 1846     		mov	r0, r3
 2900 004a 07F11007 		add	r7, r7, #16
 2901 004e BD46     		mov	sp, r7
 2902 0050 80BD     		pop	{r7, pc}
 2903              		.cfi_endproc
 2904              	.LFE69:
 2905              		.size	ETH0_ExecuteSocketCommand, .-ETH0_ExecuteSocketCommand
 2906 0052 00BF     		.section	.text.ETH0_GetTxFreeSize,"ax",%progbits
 2907              		.align	2
 2908              		.thumb
 2909              		.thumb_func
 2910              		.type	ETH0_GetTxFreeSize, %function
 2911              	ETH0_GetTxFreeSize:
 2912              	.LFB70:
 809:.\Generated_Source\PSoC5/ETH0.c **** /* ------------------------------------------------------------------------ */
 810:.\Generated_Source\PSoC5/ETH0.c **** /**
 811:.\Generated_Source\PSoC5/ETH0.c ****  * \brief Execute a safe read fo the Tx buffer free size register
 812:.\Generated_Source\PSoC5/ETH0.c ****  * \param socket the addressed socket to read the available tx buffer
 813:.\Generated_Source\PSoC5/ETH0.c ****  * \returns the number of bytes available in the transmit buffer for the socket
 814:.\Generated_Source\PSoC5/ETH0.c ****  */
 815:.\Generated_Source\PSoC5/ETH0.c **** static uint16 ETH0_GetTxFreeSize( uint8 socket )
 816:.\Generated_Source\PSoC5/ETH0.c **** {
 2913              		.loc 1 816 0
 2914              		.cfi_startproc
 2915              		@ args = 0, pretend = 0, frame = 16
 2916              		@ frame_needed = 1, uses_anonymous_args = 0
 2917 0000 80B5     		push	{r7, lr}
 2918              	.LCFI197:
 2919              		.cfi_def_cfa_offset 8
 2920              		.cfi_offset 7, -8
 2921              		.cfi_offset 14, -4
 2922 0002 84B0     		sub	sp, sp, #16
 2923              	.LCFI198:
 2924              		.cfi_def_cfa_offset 24
 2925 0004 00AF     		add	r7, sp, #0
 2926              	.LCFI199:
 2927              		.cfi_def_cfa_register 7
ARM GAS  C:\Users\CHUCK~1.ERH\AppData\Local\Temp\ccSfgJB7.s 			page 67


 2928 0006 0346     		mov	r3, r0
 2929 0008 FB71     		strb	r3, [r7, #7]
 817:.\Generated_Source\PSoC5/ETH0.c **** 	uint16 first, second;
 818:.\Generated_Source\PSoC5/ETH0.c **** 	
 819:.\Generated_Source\PSoC5/ETH0.c **** 	first = 0;
 2930              		.loc 1 819 0
 2931 000a 4FF00003 		mov	r3, #0
 2932 000e BB81     		strh	r3, [r7, #12]	@ movhi
 820:.\Generated_Source\PSoC5/ETH0.c **** 	second = 0;
 2933              		.loc 1 820 0
 2934 0010 4FF00003 		mov	r3, #0
 2935 0014 FB81     		strh	r3, [r7, #14]	@ movhi
 2936              	.L122:
 821:.\Generated_Source\PSoC5/ETH0.c **** 	do {
 822:.\Generated_Source\PSoC5/ETH0.c **** 		first = ETH0_GetSocketTxFree( socket );
 2937              		.loc 1 822 0
 2938 0016 FB79     		ldrb	r3, [r7, #7]	@ zero_extendqisi2
 2939 0018 1846     		mov	r0, r3
 2940 001a FFF7FEFF 		bl	ETH0_GetSocketTxFree
 2941 001e 0346     		mov	r3, r0
 2942 0020 BB81     		strh	r3, [r7, #12]	@ movhi
 823:.\Generated_Source\PSoC5/ETH0.c **** 		if (first != 0) {
 2943              		.loc 1 823 0
 2944 0022 BB89     		ldrh	r3, [r7, #12]
 2945 0024 002B     		cmp	r3, #0
 2946 0026 05D0     		beq	.L121
 824:.\Generated_Source\PSoC5/ETH0.c **** 			second = ETH0_GetSocketTxFree( socket );
 2947              		.loc 1 824 0
 2948 0028 FB79     		ldrb	r3, [r7, #7]	@ zero_extendqisi2
 2949 002a 1846     		mov	r0, r3
 2950 002c FFF7FEFF 		bl	ETH0_GetSocketTxFree
 2951 0030 0346     		mov	r3, r0
 2952 0032 FB81     		strh	r3, [r7, #14]	@ movhi
 2953              	.L121:
 825:.\Generated_Source\PSoC5/ETH0.c **** 		}
 826:.\Generated_Source\PSoC5/ETH0.c **** 	}
 827:.\Generated_Source\PSoC5/ETH0.c **** 	while (first != second );
 2954              		.loc 1 827 0
 2955 0034 BA89     		ldrh	r2, [r7, #12]
 2956 0036 FB89     		ldrh	r3, [r7, #14]
 2957 0038 9A42     		cmp	r2, r3
 2958 003a ECD1     		bne	.L122
 828:.\Generated_Source\PSoC5/ETH0.c **** 	
 829:.\Generated_Source\PSoC5/ETH0.c **** 	return( second );
 2959              		.loc 1 829 0
 2960 003c FB89     		ldrh	r3, [r7, #14]
 830:.\Generated_Source\PSoC5/ETH0.c **** }
 2961              		.loc 1 830 0
 2962 003e 1846     		mov	r0, r3
 2963 0040 07F11007 		add	r7, r7, #16
 2964 0044 BD46     		mov	sp, r7
 2965 0046 80BD     		pop	{r7, pc}
 2966              		.cfi_endproc
 2967              	.LFE70:
 2968              		.size	ETH0_GetTxFreeSize, .-ETH0_GetTxFreeSize
 2969              		.section	.text.ETH0_GetRxSize,"ax",%progbits
 2970              		.align	2
ARM GAS  C:\Users\CHUCK~1.ERH\AppData\Local\Temp\ccSfgJB7.s 			page 68


 2971              		.thumb
 2972              		.thumb_func
 2973              		.type	ETH0_GetRxSize, %function
 2974              	ETH0_GetRxSize:
 2975              	.LFB71:
 831:.\Generated_Source\PSoC5/ETH0.c **** /* ------------------------------------------------------------------------ */
 832:.\Generated_Source\PSoC5/ETH0.c **** /**
 833:.\Generated_Source\PSoC5/ETH0.c ****  * \brief Execute a safe read of the received data size
 834:.\Generated_Source\PSoC5/ETH0.c ****  * \param socket the addressed socketfrom which the data will be read
 835:.\Generated_Source\PSoC5/ETH0.c ****  * \returns the number of bytes waiting in the recieve buffer of the socket
 836:.\Generated_Source\PSoC5/ETH0.c ****  */
 837:.\Generated_Source\PSoC5/ETH0.c **** static uint16 ETH0_GetRxSize( uint8 socket )
 838:.\Generated_Source\PSoC5/ETH0.c **** {
 2976              		.loc 1 838 0
 2977              		.cfi_startproc
 2978              		@ args = 0, pretend = 0, frame = 16
 2979              		@ frame_needed = 1, uses_anonymous_args = 0
 2980 0000 80B5     		push	{r7, lr}
 2981              	.LCFI200:
 2982              		.cfi_def_cfa_offset 8
 2983              		.cfi_offset 7, -8
 2984              		.cfi_offset 14, -4
 2985 0002 84B0     		sub	sp, sp, #16
 2986              	.LCFI201:
 2987              		.cfi_def_cfa_offset 24
 2988 0004 00AF     		add	r7, sp, #0
 2989              	.LCFI202:
 2990              		.cfi_def_cfa_register 7
 2991 0006 0346     		mov	r3, r0
 2992 0008 FB71     		strb	r3, [r7, #7]
 839:.\Generated_Source\PSoC5/ETH0.c **** 	uint16 first, second;
 840:.\Generated_Source\PSoC5/ETH0.c **** 	
 841:.\Generated_Source\PSoC5/ETH0.c **** 	first = 0;
 2993              		.loc 1 841 0
 2994 000a 4FF00003 		mov	r3, #0
 2995 000e BB81     		strh	r3, [r7, #12]	@ movhi
 842:.\Generated_Source\PSoC5/ETH0.c **** 	second = 0;
 2996              		.loc 1 842 0
 2997 0010 4FF00003 		mov	r3, #0
 2998 0014 FB81     		strh	r3, [r7, #14]	@ movhi
 2999              	.L126:
 843:.\Generated_Source\PSoC5/ETH0.c **** 	do {
 844:.\Generated_Source\PSoC5/ETH0.c **** 		first = ETH0_GetSocketRxSize( socket );
 3000              		.loc 1 844 0
 3001 0016 FB79     		ldrb	r3, [r7, #7]	@ zero_extendqisi2
 3002 0018 1846     		mov	r0, r3
 3003 001a FFF7FEFF 		bl	ETH0_GetSocketRxSize
 3004 001e 0346     		mov	r3, r0
 3005 0020 BB81     		strh	r3, [r7, #12]	@ movhi
 845:.\Generated_Source\PSoC5/ETH0.c **** 		if (first != 0) {
 3006              		.loc 1 845 0
 3007 0022 BB89     		ldrh	r3, [r7, #12]
 3008 0024 002B     		cmp	r3, #0
 3009 0026 05D0     		beq	.L125
 846:.\Generated_Source\PSoC5/ETH0.c **** 			second = ETH0_GetSocketRxSize( socket );
 3010              		.loc 1 846 0
 3011 0028 FB79     		ldrb	r3, [r7, #7]	@ zero_extendqisi2
ARM GAS  C:\Users\CHUCK~1.ERH\AppData\Local\Temp\ccSfgJB7.s 			page 69


 3012 002a 1846     		mov	r0, r3
 3013 002c FFF7FEFF 		bl	ETH0_GetSocketRxSize
 3014 0030 0346     		mov	r3, r0
 3015 0032 FB81     		strh	r3, [r7, #14]	@ movhi
 3016              	.L125:
 847:.\Generated_Source\PSoC5/ETH0.c **** 		}
 848:.\Generated_Source\PSoC5/ETH0.c **** 	}
 849:.\Generated_Source\PSoC5/ETH0.c **** 	while (first != second );
 3017              		.loc 1 849 0
 3018 0034 BA89     		ldrh	r2, [r7, #12]
 3019 0036 FB89     		ldrh	r3, [r7, #14]
 3020 0038 9A42     		cmp	r2, r3
 3021 003a ECD1     		bne	.L126
 850:.\Generated_Source\PSoC5/ETH0.c **** 	
 851:.\Generated_Source\PSoC5/ETH0.c **** 	return second;
 3022              		.loc 1 851 0
 3023 003c FB89     		ldrh	r3, [r7, #14]
 852:.\Generated_Source\PSoC5/ETH0.c **** }
 3024              		.loc 1 852 0
 3025 003e 1846     		mov	r0, r3
 3026 0040 07F11007 		add	r7, r7, #16
 3027 0044 BD46     		mov	sp, r7
 3028 0046 80BD     		pop	{r7, pc}
 3029              		.cfi_endproc
 3030              	.LFE71:
 3031              		.size	ETH0_GetRxSize, .-ETH0_GetRxSize
 3032              		.section	.text.ETH0_ProcessTxData,"ax",%progbits
 3033              		.align	2
 3034              		.thumb
 3035              		.thumb_func
 3036              		.type	ETH0_ProcessTxData, %function
 3037              	ETH0_ProcessTxData:
 3038              	.LFB72:
 853:.\Generated_Source\PSoC5/ETH0.c **** /* ------------------------------------------------------------------------ */
 854:.\Generated_Source\PSoC5/ETH0.c **** 
 855:.\Generated_Source\PSoC5/ETH0.c **** // END Socket Register access section
 856:.\Generated_Source\PSoC5/ETH0.c **** #endif
 857:.\Generated_Source\PSoC5/ETH0.c **** /* ======================================================================== */
 858:.\Generated_Source\PSoC5/ETH0.c **** /* W5100 Data Buffer Memory access primitives */
 859:.\Generated_Source\PSoC5/ETH0.c **** #if (1)
 860:.\Generated_Source\PSoC5/ETH0.c **** /* ------------------------------------------------------------------------ */
 861:.\Generated_Source\PSoC5/ETH0.c **** /**
 862:.\Generated_Source\PSoC5/ETH0.c ****  * \brief Transfer data from a local data buffer to the chip Tx fifo
 863:.\Generated_Source\PSoC5/ETH0.c ****  * \param socket the socket buffer to which the data will be written
 864:.\Generated_Source\PSoC5/ETH0.c ****  * \param offset The offest in to the socket buffer
 865:.\Generated_Source\PSoC5/ETH0.c ****  * \param *buffer pointer to the local buffer to copy to the transmit fifo
 866:.\Generated_Source\PSoC5/ETH0.c ****  * \param length the number of bytes to be copied to the transmit fifo
 867:.\Generated_Source\PSoC5/ETH0.c ****  */
 868:.\Generated_Source\PSoC5/ETH0.c **** static void ETH0_ProcessTxData(uint8 socket, uint16 offset, uint8* buffer, uint16 length)
 869:.\Generated_Source\PSoC5/ETH0.c **** {
 3039              		.loc 1 869 0
 3040              		.cfi_startproc
 3041              		@ args = 0, pretend = 0, frame = 24
 3042              		@ frame_needed = 1, uses_anonymous_args = 0
 3043 0000 80B5     		push	{r7, lr}
 3044              	.LCFI203:
 3045              		.cfi_def_cfa_offset 8
ARM GAS  C:\Users\CHUCK~1.ERH\AppData\Local\Temp\ccSfgJB7.s 			page 70


 3046              		.cfi_offset 7, -8
 3047              		.cfi_offset 14, -4
 3048 0002 86B0     		sub	sp, sp, #24
 3049              	.LCFI204:
 3050              		.cfi_def_cfa_offset 32
 3051 0004 00AF     		add	r7, sp, #0
 3052              	.LCFI205:
 3053              		.cfi_def_cfa_register 7
 3054 0006 BA60     		str	r2, [r7, #8]
 3055 0008 0246     		mov	r2, r0
 3056 000a FA73     		strb	r2, [r7, #15]
 3057 000c 0A46     		mov	r2, r1	@ movhi
 3058 000e BA81     		strh	r2, [r7, #12]	@ movhi
 3059 0010 FB80     		strh	r3, [r7, #6]	@ movhi
 870:.\Generated_Source\PSoC5/ETH0.c **** 	uint16 addr;
 871:.\Generated_Source\PSoC5/ETH0.c **** 	uint16 base;
 872:.\Generated_Source\PSoC5/ETH0.c **** 	uint16 PointerOffset;
 873:.\Generated_Source\PSoC5/ETH0.c **** 	uint16 size;
 874:.\Generated_Source\PSoC5/ETH0.c **** 	
 875:.\Generated_Source\PSoC5/ETH0.c **** 	/*
 876:.\Generated_Source\PSoC5/ETH0.c **** 	 * Read the offset pointer, and calculate the base address for the start of write
 877:.\Generated_Source\PSoC5/ETH0.c **** 	 * in to the chip buffers.  Written data will be offset by the offset byte count
 878:.\Generated_Source\PSoC5/ETH0.c **** 	 * specified in the parameters.
 879:.\Generated_Source\PSoC5/ETH0.c **** 	 */
 880:.\Generated_Source\PSoC5/ETH0.c **** 	base = ETH0_GetSocketTxWritePtr(socket) + offset;
 3060              		.loc 1 880 0
 3061 0012 FB7B     		ldrb	r3, [r7, #15]	@ zero_extendqisi2
 3062 0014 1846     		mov	r0, r3
 3063 0016 FFF7FEFF 		bl	ETH0_GetSocketTxWritePtr
 3064 001a 0346     		mov	r3, r0
 3065 001c 1A46     		mov	r2, r3
 3066 001e BB89     		ldrh	r3, [r7, #12]	@ movhi
 3067 0020 D318     		adds	r3, r2, r3
 3068 0022 FB82     		strh	r3, [r7, #22]	@ movhi
 881:.\Generated_Source\PSoC5/ETH0.c **** 	PointerOffset = (base & 0x07FF);
 3069              		.loc 1 881 0
 3070 0024 FB8A     		ldrh	r3, [r7, #22]	@ movhi
 3071 0026 4FEA4353 		lsl	r3, r3, #21
 3072 002a 4FEA5353 		lsr	r3, r3, #21
 3073 002e BB82     		strh	r3, [r7, #20]	@ movhi
 882:.\Generated_Source\PSoC5/ETH0.c **** 	addr = PointerOffset + ETH0_SOCKET_TX_BASE(socket);
 3074              		.loc 1 882 0
 3075 0030 FB7B     		ldrb	r3, [r7, #15]	@ zero_extendqisi2
 3076 0032 9BB2     		uxth	r3, r3
 3077 0034 4FEAC333 		lsl	r3, r3, #15
 3078 0038 9AB2     		uxth	r2, r3
 3079 003a BB8A     		ldrh	r3, [r7, #20]	@ movhi
 3080 003c D318     		adds	r3, r2, r3
 3081 003e 9BB2     		uxth	r3, r3
 3082 0040 03F58043 		add	r3, r3, #16384
 3083 0044 7B82     		strh	r3, [r7, #18]	@ movhi
 883:.\Generated_Source\PSoC5/ETH0.c **** 	/* calculate the number of bytes from the pointer to the end of the buffer */
 884:.\Generated_Source\PSoC5/ETH0.c **** 	size = 0x0800 - PointerOffset;
 3084              		.loc 1 884 0
 3085 0046 BB8A     		ldrh	r3, [r7, #20]	@ movhi
 3086 0048 C3F50063 		rsb	r3, r3, #2048
 3087 004c 3B82     		strh	r3, [r7, #16]	@ movhi
ARM GAS  C:\Users\CHUCK~1.ERH\AppData\Local\Temp\ccSfgJB7.s 			page 71


 885:.\Generated_Source\PSoC5/ETH0.c **** 	
 886:.\Generated_Source\PSoC5/ETH0.c **** 	/*
 887:.\Generated_Source\PSoC5/ETH0.c **** 	 * is there enough space to write the complete packet
 888:.\Generated_Source\PSoC5/ETH0.c **** 	 * or, shoudl the data be split in to two writes.
 889:.\Generated_Source\PSoC5/ETH0.c **** 	 */
 890:.\Generated_Source\PSoC5/ETH0.c **** 	if ( length > size) {
 3088              		.loc 1 890 0
 3089 004e FA88     		ldrh	r2, [r7, #6]
 3090 0050 3B8A     		ldrh	r3, [r7, #16]
 3091 0052 9A42     		cmp	r2, r3
 3092 0054 1BD9     		bls	.L129
 891:.\Generated_Source\PSoC5/ETH0.c **** 		/*
 892:.\Generated_Source\PSoC5/ETH0.c **** 		 * There is more data to send than will fit from the pointer to the end
 893:.\Generated_Source\PSoC5/ETH0.c **** 		 * of the memory, so we will write the data in two chunks.  First, write the
 894:.\Generated_Source\PSoC5/ETH0.c **** 		 * data from the pointer to the end of the buffer, then write the portion
 895:.\Generated_Source\PSoC5/ETH0.c **** 		 * remaining to the start (base ptr) of the socket buffer
 896:.\Generated_Source\PSoC5/ETH0.c **** 		 */
 897:.\Generated_Source\PSoC5/ETH0.c **** 		ETH0_W51_WriteBlock(addr, buffer, size);
 3093              		.loc 1 897 0
 3094 0056 7A8A     		ldrh	r2, [r7, #18]
 3095 0058 3B8A     		ldrh	r3, [r7, #16]
 3096 005a 1046     		mov	r0, r2
 3097 005c B968     		ldr	r1, [r7, #8]
 3098 005e 1A46     		mov	r2, r3
 3099 0060 FFF7FEFF 		bl	ETH0_W51_WriteBlock
 898:.\Generated_Source\PSoC5/ETH0.c **** 		ETH0_W51_WriteBlock(ETH0_SOCKET_TX_BASE(socket), &buffer[size], length - size);
 3100              		.loc 1 898 0
 3101 0064 FB7B     		ldrb	r3, [r7, #15]	@ zero_extendqisi2
 3102 0066 9BB2     		uxth	r3, r3
 3103 0068 4FEAC333 		lsl	r3, r3, #15
 3104 006c 9BB2     		uxth	r3, r3
 3105 006e 03F58043 		add	r3, r3, #16384
 3106 0072 99B2     		uxth	r1, r3
 3107 0074 3B8A     		ldrh	r3, [r7, #16]
 3108 0076 BA68     		ldr	r2, [r7, #8]
 3109 0078 D218     		adds	r2, r2, r3
 3110 007a F888     		ldrh	r0, [r7, #6]	@ movhi
 3111 007c 3B8A     		ldrh	r3, [r7, #16]	@ movhi
 3112 007e C31A     		subs	r3, r0, r3
 3113 0080 9BB2     		uxth	r3, r3
 3114 0082 0846     		mov	r0, r1
 3115 0084 1146     		mov	r1, r2
 3116 0086 1A46     		mov	r2, r3
 3117 0088 FFF7FEFF 		bl	ETH0_W51_WriteBlock
 3118 008c 06E0     		b	.L130
 3119              	.L129:
 899:.\Generated_Source\PSoC5/ETH0.c **** 	}
 900:.\Generated_Source\PSoC5/ETH0.c **** 	else {
 901:.\Generated_Source\PSoC5/ETH0.c **** 		/* 
 902:.\Generated_Source\PSoC5/ETH0.c **** 		 * there is enough available space from the write point to the end of buffer
 903:.\Generated_Source\PSoC5/ETH0.c **** 		 * to hold the whole packe of information, so just write it to the memory
 904:.\Generated_Source\PSoC5/ETH0.c **** 		 */
 905:.\Generated_Source\PSoC5/ETH0.c **** 		ETH0_W51_WriteBlock(addr,buffer,length);
 3120              		.loc 1 905 0
 3121 008e 7A8A     		ldrh	r2, [r7, #18]
 3122 0090 FB88     		ldrh	r3, [r7, #6]
 3123 0092 1046     		mov	r0, r2
ARM GAS  C:\Users\CHUCK~1.ERH\AppData\Local\Temp\ccSfgJB7.s 			page 72


 3124 0094 B968     		ldr	r1, [r7, #8]
 3125 0096 1A46     		mov	r2, r3
 3126 0098 FFF7FEFF 		bl	ETH0_W51_WriteBlock
 3127              	.L130:
 906:.\Generated_Source\PSoC5/ETH0.c **** 	}
 907:.\Generated_Source\PSoC5/ETH0.c **** 	/* move the write pointer */
 908:.\Generated_Source\PSoC5/ETH0.c **** 	base += length;
 3128              		.loc 1 908 0
 3129 009c FA8A     		ldrh	r2, [r7, #22]	@ movhi
 3130 009e FB88     		ldrh	r3, [r7, #6]	@ movhi
 3131 00a0 D318     		adds	r3, r2, r3
 3132 00a2 FB82     		strh	r3, [r7, #22]	@ movhi
 909:.\Generated_Source\PSoC5/ETH0.c **** 	/* 
 910:.\Generated_Source\PSoC5/ETH0.c **** 	 * Store the new write pointer so that the device knows that there is data waiting
 911:.\Generated_Source\PSoC5/ETH0.c **** 	 * to be transmitted over the link.
 912:.\Generated_Source\PSoC5/ETH0.c **** 	 */
 913:.\Generated_Source\PSoC5/ETH0.c **** 	ETH0_SetSocketTxWritePtr(socket, base);
 3133              		.loc 1 913 0
 3134 00a4 FA7B     		ldrb	r2, [r7, #15]	@ zero_extendqisi2
 3135 00a6 FB8A     		ldrh	r3, [r7, #22]
 3136 00a8 1046     		mov	r0, r2
 3137 00aa 1946     		mov	r1, r3
 3138 00ac FFF7FEFF 		bl	ETH0_SetSocketTxWritePtr
 914:.\Generated_Source\PSoC5/ETH0.c **** }
 3139              		.loc 1 914 0
 3140 00b0 07F11807 		add	r7, r7, #24
 3141 00b4 BD46     		mov	sp, r7
 3142 00b6 80BD     		pop	{r7, pc}
 3143              		.cfi_endproc
 3144              	.LFE72:
 3145              		.size	ETH0_ProcessTxData, .-ETH0_ProcessTxData
 3146              		.section	.text.ETH0_ProcessRxData,"ax",%progbits
 3147              		.align	2
 3148              		.thumb
 3149              		.thumb_func
 3150              		.type	ETH0_ProcessRxData, %function
 3151              	ETH0_ProcessRxData:
 3152              	.LFB73:
 915:.\Generated_Source\PSoC5/ETH0.c **** /* ------------------------------------------------------------------------ */
 916:.\Generated_Source\PSoC5/ETH0.c **** /**
 917:.\Generated_Source\PSoC5/ETH0.c ****  * \brief Transfer data from the chip receive buffer to a local buffer
 918:.\Generated_Source\PSoC5/ETH0.c ****  * \param socket the socket buffer from which the data will be read
 919:.\Generated_Source\PSoC5/ETH0.c ****  * \param offset The offest in to the socket buffer
 920:.\Generated_Source\PSoC5/ETH0.c ****  * \param *buffer pointer to the local buffer to hold the receive fifo data
 921:.\Generated_Source\PSoC5/ETH0.c ****  * \param length the max number of bytes to be copied to the local buffer
 922:.\Generated_Source\PSoC5/ETH0.c ****  * \param flags Flag settings to control read fifo options (lookahead)
 923:.\Generated_Source\PSoC5/ETH0.c ****  */
 924:.\Generated_Source\PSoC5/ETH0.c **** static void ETH0_ProcessRxData(uint8 socket, uint16 offset, uint8* buffer, uint16 length, uint8 fla
 925:.\Generated_Source\PSoC5/ETH0.c **** {
 3153              		.loc 1 925 0
 3154              		.cfi_startproc
 3155              		@ args = 4, pretend = 0, frame = 24
 3156              		@ frame_needed = 1, uses_anonymous_args = 0
 3157 0000 80B5     		push	{r7, lr}
 3158              	.LCFI206:
 3159              		.cfi_def_cfa_offset 8
 3160              		.cfi_offset 7, -8
ARM GAS  C:\Users\CHUCK~1.ERH\AppData\Local\Temp\ccSfgJB7.s 			page 73


 3161              		.cfi_offset 14, -4
 3162 0002 86B0     		sub	sp, sp, #24
 3163              	.LCFI207:
 3164              		.cfi_def_cfa_offset 32
 3165 0004 00AF     		add	r7, sp, #0
 3166              	.LCFI208:
 3167              		.cfi_def_cfa_register 7
 3168 0006 BA60     		str	r2, [r7, #8]
 3169 0008 0246     		mov	r2, r0
 3170 000a FA73     		strb	r2, [r7, #15]
 3171 000c 0A46     		mov	r2, r1	@ movhi
 3172 000e BA81     		strh	r2, [r7, #12]	@ movhi
 3173 0010 FB80     		strh	r3, [r7, #6]	@ movhi
 926:.\Generated_Source\PSoC5/ETH0.c **** 	uint16 addr;
 927:.\Generated_Source\PSoC5/ETH0.c **** 	uint16 base;
 928:.\Generated_Source\PSoC5/ETH0.c **** 	uint16 PointerOffset;
 929:.\Generated_Source\PSoC5/ETH0.c **** 	uint16 size;
 930:.\Generated_Source\PSoC5/ETH0.c **** 	
 931:.\Generated_Source\PSoC5/ETH0.c **** 	/*
 932:.\Generated_Source\PSoC5/ETH0.c **** 	 * Read the offset pointer, and calculate the base address for the start of read
 933:.\Generated_Source\PSoC5/ETH0.c **** 	 * in to the chip buffers.  The data read will be offset by the offset byte count
 934:.\Generated_Source\PSoC5/ETH0.c **** 	 * specified in the parameters.
 935:.\Generated_Source\PSoC5/ETH0.c **** 	 */
 936:.\Generated_Source\PSoC5/ETH0.c **** 	base = ETH0_GetSocketRxReadPtr(socket) + offset;
 3174              		.loc 1 936 0
 3175 0012 FB7B     		ldrb	r3, [r7, #15]	@ zero_extendqisi2
 3176 0014 1846     		mov	r0, r3
 3177 0016 FFF7FEFF 		bl	ETH0_GetSocketRxReadPtr
 3178 001a 0346     		mov	r3, r0
 3179 001c 1A46     		mov	r2, r3
 3180 001e BB89     		ldrh	r3, [r7, #12]	@ movhi
 3181 0020 D318     		adds	r3, r2, r3
 3182 0022 FB82     		strh	r3, [r7, #22]	@ movhi
 937:.\Generated_Source\PSoC5/ETH0.c **** 	PointerOffset = (base & 0x07FF);
 3183              		.loc 1 937 0
 3184 0024 FB8A     		ldrh	r3, [r7, #22]	@ movhi
 3185 0026 4FEA4353 		lsl	r3, r3, #21
 3186 002a 4FEA5353 		lsr	r3, r3, #21
 3187 002e BB82     		strh	r3, [r7, #20]	@ movhi
 938:.\Generated_Source\PSoC5/ETH0.c **** 	addr = PointerOffset + ETH0_SOCKET_RX_BASE(socket);
 3188              		.loc 1 938 0
 3189 0030 FB7B     		ldrb	r3, [r7, #15]	@ zero_extendqisi2
 3190 0032 9BB2     		uxth	r3, r3
 3191 0034 4FEAC333 		lsl	r3, r3, #15
 3192 0038 9AB2     		uxth	r2, r3
 3193 003a BB8A     		ldrh	r3, [r7, #20]	@ movhi
 3194 003c D318     		adds	r3, r2, r3
 3195 003e 9BB2     		uxth	r3, r3
 3196 0040 03F5C043 		add	r3, r3, #24576
 3197 0044 7B82     		strh	r3, [r7, #18]	@ movhi
 939:.\Generated_Source\PSoC5/ETH0.c **** 	/* calculate the number of bytes from the pointer to the end of the buffer */
 940:.\Generated_Source\PSoC5/ETH0.c **** 	size = 0x0800 - PointerOffset;
 3198              		.loc 1 940 0
 3199 0046 BB8A     		ldrh	r3, [r7, #20]	@ movhi
 3200 0048 C3F50063 		rsb	r3, r3, #2048
 3201 004c 3B82     		strh	r3, [r7, #16]	@ movhi
 941:.\Generated_Source\PSoC5/ETH0.c **** 	/*
ARM GAS  C:\Users\CHUCK~1.ERH\AppData\Local\Temp\ccSfgJB7.s 			page 74


 942:.\Generated_Source\PSoC5/ETH0.c **** 	 * is there enough space to read the complete packet
 943:.\Generated_Source\PSoC5/ETH0.c **** 	 * or, should the data be split in to two reads.
 944:.\Generated_Source\PSoC5/ETH0.c **** 	 */
 945:.\Generated_Source\PSoC5/ETH0.c **** 	if ( length > size) {
 3202              		.loc 1 945 0
 3203 004e FA88     		ldrh	r2, [r7, #6]
 3204 0050 3B8A     		ldrh	r3, [r7, #16]
 3205 0052 9A42     		cmp	r2, r3
 3206 0054 1BD9     		bls	.L132
 946:.\Generated_Source\PSoC5/ETH0.c **** 		/*
 947:.\Generated_Source\PSoC5/ETH0.c **** 		 * There is more data to send than will fit from the pointer to the end
 948:.\Generated_Source\PSoC5/ETH0.c **** 		 * of the memory, so we will write the data in two chunks.  First, write the
 949:.\Generated_Source\PSoC5/ETH0.c **** 		 * data from the pointer to the end of the buffer, then write the portion
 950:.\Generated_Source\PSoC5/ETH0.c **** 		 * remaining to the start (base ptr) of the socket buffer
 951:.\Generated_Source\PSoC5/ETH0.c **** 		 */
 952:.\Generated_Source\PSoC5/ETH0.c **** 		ETH0_W51_ReadBlock(addr, buffer, size);
 3207              		.loc 1 952 0
 3208 0056 7A8A     		ldrh	r2, [r7, #18]
 3209 0058 3B8A     		ldrh	r3, [r7, #16]
 3210 005a 1046     		mov	r0, r2
 3211 005c B968     		ldr	r1, [r7, #8]
 3212 005e 1A46     		mov	r2, r3
 3213 0060 FFF7FEFF 		bl	ETH0_W51_ReadBlock
 953:.\Generated_Source\PSoC5/ETH0.c **** 		ETH0_W51_ReadBlock(ETH0_SOCKET_RX_BASE(socket), &buffer[size], length - size);
 3214              		.loc 1 953 0
 3215 0064 FB7B     		ldrb	r3, [r7, #15]	@ zero_extendqisi2
 3216 0066 9BB2     		uxth	r3, r3
 3217 0068 4FEAC333 		lsl	r3, r3, #15
 3218 006c 9BB2     		uxth	r3, r3
 3219 006e 03F5C043 		add	r3, r3, #24576
 3220 0072 99B2     		uxth	r1, r3
 3221 0074 3B8A     		ldrh	r3, [r7, #16]
 3222 0076 BA68     		ldr	r2, [r7, #8]
 3223 0078 D218     		adds	r2, r2, r3
 3224 007a F888     		ldrh	r0, [r7, #6]	@ movhi
 3225 007c 3B8A     		ldrh	r3, [r7, #16]	@ movhi
 3226 007e C31A     		subs	r3, r0, r3
 3227 0080 9BB2     		uxth	r3, r3
 3228 0082 0846     		mov	r0, r1
 3229 0084 1146     		mov	r1, r2
 3230 0086 1A46     		mov	r2, r3
 3231 0088 FFF7FEFF 		bl	ETH0_W51_ReadBlock
 3232 008c 06E0     		b	.L133
 3233              	.L132:
 954:.\Generated_Source\PSoC5/ETH0.c **** 	}
 955:.\Generated_Source\PSoC5/ETH0.c **** 	else {
 956:.\Generated_Source\PSoC5/ETH0.c **** 		/* 
 957:.\Generated_Source\PSoC5/ETH0.c **** 		 * there is enough available space from the write point to the end of buffer
 958:.\Generated_Source\PSoC5/ETH0.c **** 		 * to hold the whole packe of information, so just write it to the memory
 959:.\Generated_Source\PSoC5/ETH0.c **** 		 */
 960:.\Generated_Source\PSoC5/ETH0.c **** 		ETH0_W51_ReadBlock(addr,buffer,length);
 3234              		.loc 1 960 0
 3235 008e 7A8A     		ldrh	r2, [r7, #18]
 3236 0090 FB88     		ldrh	r3, [r7, #6]
 3237 0092 1046     		mov	r0, r2
 3238 0094 B968     		ldr	r1, [r7, #8]
 3239 0096 1A46     		mov	r2, r3
ARM GAS  C:\Users\CHUCK~1.ERH\AppData\Local\Temp\ccSfgJB7.s 			page 75


 3240 0098 FFF7FEFF 		bl	ETH0_W51_ReadBlock
 3241              	.L133:
 961:.\Generated_Source\PSoC5/ETH0.c **** 	}
 962:.\Generated_Source\PSoC5/ETH0.c **** 	if (flags & 0x01) {
 3242              		.loc 1 962 0
 3243 009c 97F82030 		ldrb	r3, [r7, #32]	@ zero_extendqisi2
 3244 00a0 03F00103 		and	r3, r3, #1
 3245 00a4 002B     		cmp	r3, #0
 3246 00a6 09D0     		beq	.L131
 963:.\Generated_Source\PSoC5/ETH0.c **** 		/* move the write pointer */
 964:.\Generated_Source\PSoC5/ETH0.c **** 		base += length;
 3247              		.loc 1 964 0
 3248 00a8 FA8A     		ldrh	r2, [r7, #22]	@ movhi
 3249 00aa FB88     		ldrh	r3, [r7, #6]	@ movhi
 3250 00ac D318     		adds	r3, r2, r3
 3251 00ae FB82     		strh	r3, [r7, #22]	@ movhi
 965:.\Generated_Source\PSoC5/ETH0.c **** 		/* 
 966:.\Generated_Source\PSoC5/ETH0.c **** 		 * Store the new write pointer so that the device knows that there is data waiting
 967:.\Generated_Source\PSoC5/ETH0.c **** 		 * to be transmitted over the link.
 968:.\Generated_Source\PSoC5/ETH0.c **** 		 */
 969:.\Generated_Source\PSoC5/ETH0.c **** 		ETH0_SetSocketRxReadPtr(socket, base);
 3252              		.loc 1 969 0
 3253 00b0 FA7B     		ldrb	r2, [r7, #15]	@ zero_extendqisi2
 3254 00b2 FB8A     		ldrh	r3, [r7, #22]
 3255 00b4 1046     		mov	r0, r2
 3256 00b6 1946     		mov	r1, r3
 3257 00b8 FFF7FEFF 		bl	ETH0_SetSocketRxReadPtr
 3258              	.L131:
 970:.\Generated_Source\PSoC5/ETH0.c **** 	}
 971:.\Generated_Source\PSoC5/ETH0.c **** }
 3259              		.loc 1 971 0
 3260 00bc 07F11807 		add	r7, r7, #24
 3261 00c0 BD46     		mov	sp, r7
 3262 00c2 80BD     		pop	{r7, pc}
 3263              		.cfi_endproc
 3264              	.LFE73:
 3265              		.size	ETH0_ProcessRxData, .-ETH0_ProcessRxData
 3266              		.section	.text.ETH0_Init,"ax",%progbits
 3267              		.align	2
 3268              		.global	ETH0_Init
 3269              		.thumb
 3270              		.thumb_func
 3271              		.type	ETH0_Init, %function
 3272              	ETH0_Init:
 3273              	.LFB74:
 972:.\Generated_Source\PSoC5/ETH0.c **** #endif
 973:.\Generated_Source\PSoC5/ETH0.c **** /* ======================================================================== */
 974:.\Generated_Source\PSoC5/ETH0.c **** /* Driver Initialization */
 975:.\Generated_Source\PSoC5/ETH0.c **** #if (1)
 976:.\Generated_Source\PSoC5/ETH0.c **** /* ------------------------------------------------------------------------ */
 977:.\Generated_Source\PSoC5/ETH0.c **** void
 978:.\Generated_Source\PSoC5/ETH0.c **** ETH0_Init(uint8* mac, uint32 ip, uint32 subnet, uint32 gateway)
 979:.\Generated_Source\PSoC5/ETH0.c **** {
 3274              		.loc 1 979 0
 3275              		.cfi_startproc
 3276              		@ args = 0, pretend = 0, frame = 24
 3277              		@ frame_needed = 1, uses_anonymous_args = 0
ARM GAS  C:\Users\CHUCK~1.ERH\AppData\Local\Temp\ccSfgJB7.s 			page 76


 3278 0000 80B5     		push	{r7, lr}
 3279              	.LCFI209:
 3280              		.cfi_def_cfa_offset 8
 3281              		.cfi_offset 7, -8
 3282              		.cfi_offset 14, -4
 3283 0002 86B0     		sub	sp, sp, #24
 3284              	.LCFI210:
 3285              		.cfi_def_cfa_offset 32
 3286 0004 00AF     		add	r7, sp, #0
 3287              	.LCFI211:
 3288              		.cfi_def_cfa_register 7
 3289 0006 F860     		str	r0, [r7, #12]
 3290 0008 B960     		str	r1, [r7, #8]
 3291 000a 7A60     		str	r2, [r7, #4]
 3292 000c 3B60     		str	r3, [r7, #0]
 980:.\Generated_Source\PSoC5/ETH0.c **** 	/*
 981:.\Generated_Source\PSoC5/ETH0.c **** 	 * Initialize the device and the address configuration, then
 982:.\Generated_Source\PSoC5/ETH0.c **** 	 * execute socket memory initialization for the local allocation
 983:.\Generated_Source\PSoC5/ETH0.c **** 	 * table.
 984:.\Generated_Source\PSoC5/ETH0.c **** 	 */
 985:.\Generated_Source\PSoC5/ETH0.c **** 	int index;
 986:.\Generated_Source\PSoC5/ETH0.c **** 	
 987:.\Generated_Source\PSoC5/ETH0.c **** 	CyDelay( 250 ); /* Fixed Boot Delay or chip inintialization will fail */
 3293              		.loc 1 987 0
 3294 000e 4FF0FA00 		mov	r0, #250
 3295 0012 FFF7FEFF 		bl	CyDelay
 988:.\Generated_Source\PSoC5/ETH0.c **** 	
 989:.\Generated_Source\PSoC5/ETH0.c **** 	/* Reset the device */
 990:.\Generated_Source\PSoC5/ETH0.c **** 	ETH0_SetMode(0x80); /* Send Reset Command */
 3296              		.loc 1 990 0
 3297 0016 4FF08000 		mov	r0, #128
 3298 001a FFF7FEFF 		bl	ETH0_SetMode
 991:.\Generated_Source\PSoC5/ETH0.c **** 	/* Wait for the chip initialization delay */
 992:.\Generated_Source\PSoC5/ETH0.c **** 	CyDelay( 10 );
 3299              		.loc 1 992 0
 3300 001e 4FF00A00 		mov	r0, #10
 3301 0022 FFF7FEFF 		bl	CyDelay
 993:.\Generated_Source\PSoC5/ETH0.c **** 	
 994:.\Generated_Source\PSoC5/ETH0.c **** 	/* Close all of the socket, and clear the memory to make them available. */
 995:.\Generated_Source\PSoC5/ETH0.c **** 	for(index=0;index<4;++index) {
 3302              		.loc 1 995 0
 3303 0026 4FF00003 		mov	r3, #0
 3304 002a 7B61     		str	r3, [r7, #20]
 3305 002c 08E0     		b	.L136
 3306              	.L137:
 996:.\Generated_Source\PSoC5/ETH0.c **** 		ETH0_SocketClose( index );
 3307              		.loc 1 996 0 discriminator 2
 3308 002e 7B69     		ldr	r3, [r7, #20]
 3309 0030 DBB2     		uxtb	r3, r3
 3310 0032 1846     		mov	r0, r3
 3311 0034 FFF7FEFF 		bl	ETH0_SocketClose
 995:.\Generated_Source\PSoC5/ETH0.c **** 	for(index=0;index<4;++index) {
 3312              		.loc 1 995 0 discriminator 2
 3313 0038 7B69     		ldr	r3, [r7, #20]
 3314 003a 03F10103 		add	r3, r3, #1
 3315 003e 7B61     		str	r3, [r7, #20]
 3316              	.L136:
ARM GAS  C:\Users\CHUCK~1.ERH\AppData\Local\Temp\ccSfgJB7.s 			page 77


 995:.\Generated_Source\PSoC5/ETH0.c **** 	for(index=0;index<4;++index) {
 3317              		.loc 1 995 0 is_stmt 0 discriminator 1
 3318 0040 7B69     		ldr	r3, [r7, #20]
 3319 0042 032B     		cmp	r3, #3
 3320 0044 F3DD     		ble	.L137
 997:.\Generated_Source\PSoC5/ETH0.c **** 	}
 998:.\Generated_Source\PSoC5/ETH0.c **** 	/* Write the default configruation for memory size to the device */
 999:.\Generated_Source\PSoC5/ETH0.c **** 	ETH0_SetTxMemSize(0x55); /* 2K each */
 3321              		.loc 1 999 0 is_stmt 1
 3322 0046 4FF05500 		mov	r0, #85
 3323 004a FFF7FEFF 		bl	ETH0_SetTxMemSize
1000:.\Generated_Source\PSoC5/ETH0.c **** 	ETH0_SetRxMemSize(0x55); /* 2K Each */
 3324              		.loc 1 1000 0
 3325 004e 4FF05500 		mov	r0, #85
 3326 0052 FFF7FEFF 		bl	ETH0_SetRxMemSize
1001:.\Generated_Source\PSoC5/ETH0.c **** 	/* Set device gateway address */
1002:.\Generated_Source\PSoC5/ETH0.c **** 	ETH0_SetGatewayAddress(gateway);
 3327              		.loc 1 1002 0
 3328 0056 3868     		ldr	r0, [r7, #0]
 3329 0058 FFF7FEFF 		bl	ETH0_SetGatewayAddress
1003:.\Generated_Source\PSoC5/ETH0.c **** 	ETH0_SetSubnetMask( subnet );
 3330              		.loc 1 1003 0
 3331 005c 7868     		ldr	r0, [r7, #4]
 3332 005e FFF7FEFF 		bl	ETH0_SetSubnetMask
1004:.\Generated_Source\PSoC5/ETH0.c **** 	/* Store the subnet mask for later use, for ERRATA fix */
1005:.\Generated_Source\PSoC5/ETH0.c **** 	ETH0_SubnetMask = subnet;
 3333              		.loc 1 1005 0
 3334 0062 40F20003 		movw	r3, #:lower16:ETH0_SubnetMask
 3335 0066 C0F20003 		movt	r3, #:upper16:ETH0_SubnetMask
 3336 006a 7A68     		ldr	r2, [r7, #4]
 3337 006c 1A60     		str	r2, [r3, #0]
1006:.\Generated_Source\PSoC5/ETH0.c **** 	/* store the device mac */
1007:.\Generated_Source\PSoC5/ETH0.c **** 	ETH0_SetSourceMAC( mac );
 3338              		.loc 1 1007 0
 3339 006e F868     		ldr	r0, [r7, #12]
 3340 0070 FFF7FEFF 		bl	ETH0_SetSourceMAC
1008:.\Generated_Source\PSoC5/ETH0.c **** 	/* store the IP address */
1009:.\Generated_Source\PSoC5/ETH0.c **** 	ETH0_SetSourceIP( ip );
 3341              		.loc 1 1009 0
 3342 0074 B868     		ldr	r0, [r7, #8]
 3343 0076 FFF7FEFF 		bl	ETH0_SetSourceIP
1010:.\Generated_Source\PSoC5/ETH0.c **** 	/* clear pending interrupts */
1011:.\Generated_Source\PSoC5/ETH0.c **** 	ETH0_SetIR(0xFF);
 3344              		.loc 1 1011 0
 3345 007a 4FF0FF00 		mov	r0, #255
 3346 007e FFF7FEFF 		bl	ETH0_SetIR
1012:.\Generated_Source\PSoC5/ETH0.c **** 	/* clear the subnet mask register (W5100 Errata Fix) */
1013:.\Generated_Source\PSoC5/ETH0.c **** 	ETH0_SetSubnetMask( 0 );
 3347              		.loc 1 1013 0
 3348 0082 4FF00000 		mov	r0, #0
 3349 0086 FFF7FEFF 		bl	ETH0_SetSubnetMask
1014:.\Generated_Source\PSoC5/ETH0.c **** }
 3350              		.loc 1 1014 0
 3351 008a 07F11807 		add	r7, r7, #24
 3352 008e BD46     		mov	sp, r7
 3353 0090 80BD     		pop	{r7, pc}
 3354              		.cfi_endproc
ARM GAS  C:\Users\CHUCK~1.ERH\AppData\Local\Temp\ccSfgJB7.s 			page 78


 3355              	.LFE74:
 3356              		.size	ETH0_Init, .-ETH0_Init
 3357 0092 00BF     		.section	.rodata
 3358              		.align	2
 3359              	.LC0:
 3360 0000 3139322E 		.ascii	"192.168.1.101\000"
 3360      3136382E 
 3360      312E3130 
 3360      3100
 3361 000e 0000     		.align	2
 3362              	.LC1:
 3363 0010 3235352E 		.ascii	"255.255.255.0\000"
 3363      3235352E 
 3363      3235352E 
 3363      3000
 3364 001e 0000     		.align	2
 3365              	.LC2:
 3366 0020 3139322E 		.ascii	"192.168.1.1\000"
 3366      3136382E 
 3366      312E3100 
 3367              		.section	.text.ETH0_Start,"ax",%progbits
 3368              		.align	2
 3369              		.global	ETH0_Start
 3370              		.thumb
 3371              		.thumb_func
 3372              		.type	ETH0_Start, %function
 3373              	ETH0_Start:
 3374              	.LFB75:
1015:.\Generated_Source\PSoC5/ETH0.c **** /* ------------------------------------------------------------------------ */
1016:.\Generated_Source\PSoC5/ETH0.c **** void
1017:.\Generated_Source\PSoC5/ETH0.c **** ETH0_Start( void )
1018:.\Generated_Source\PSoC5/ETH0.c **** {
 3375              		.loc 1 1018 0
 3376              		.cfi_startproc
 3377              		@ args = 0, pretend = 0, frame = 16
 3378              		@ frame_needed = 1, uses_anonymous_args = 0
 3379 0000 80B5     		push	{r7, lr}
 3380              	.LCFI212:
 3381              		.cfi_def_cfa_offset 8
 3382              		.cfi_offset 7, -8
 3383              		.cfi_offset 14, -4
 3384 0002 84B0     		sub	sp, sp, #16
 3385              	.LCFI213:
 3386              		.cfi_def_cfa_offset 24
 3387 0004 00AF     		add	r7, sp, #0
 3388              	.LCFI214:
 3389              		.cfi_def_cfa_register 7
1019:.\Generated_Source\PSoC5/ETH0.c **** 	uint32 ip;
1020:.\Generated_Source\PSoC5/ETH0.c **** 	uint32 gateway;
1021:.\Generated_Source\PSoC5/ETH0.c **** 	uint32 sub;
1022:.\Generated_Source\PSoC5/ETH0.c **** 	
1023:.\Generated_Source\PSoC5/ETH0.c **** 	/* Check for SPI initialization */
1024:.\Generated_Source\PSoC5/ETH0.c **** 	if (SPI0_initVar == 0) {
 3390              		.loc 1 1024 0
 3391 0006 40F20003 		movw	r3, #:lower16:SPI0_initVar
 3392 000a C0F20003 		movt	r3, #:upper16:SPI0_initVar
 3393 000e 1B78     		ldrb	r3, [r3, #0]	@ zero_extendqisi2
ARM GAS  C:\Users\CHUCK~1.ERH\AppData\Local\Temp\ccSfgJB7.s 			page 79


 3394 0010 002B     		cmp	r3, #0
 3395 0012 01D1     		bne	.L139
1025:.\Generated_Source\PSoC5/ETH0.c **** 		/*
1026:.\Generated_Source\PSoC5/ETH0.c **** 		 * the hardware has not yet been initialized.  Before anything can be
1027:.\Generated_Source\PSoC5/ETH0.c **** 		 * initialized within the driver, the external hardware must be started
1028:.\Generated_Source\PSoC5/ETH0.c **** 		 */
1029:.\Generated_Source\PSoC5/ETH0.c **** 		SPI0_Start();
 3396              		.loc 1 1029 0
 3397 0014 FFF7FEFF 		bl	SPI0_Start
 3398              	.L139:
1030:.\Generated_Source\PSoC5/ETH0.c **** 	}
1031:.\Generated_Source\PSoC5/ETH0.c **** 		
1032:.\Generated_Source\PSoC5/ETH0.c **** 	/* wait for power on PLL Lock */
1033:.\Generated_Source\PSoC5/ETH0.c **** 	CyDelay( 10 );
 3399              		.loc 1 1033 0
 3400 0018 4FF00A00 		mov	r0, #10
 3401 001c FFF7FEFF 		bl	CyDelay
1034:.\Generated_Source\PSoC5/ETH0.c **** 	ip = ETH0_ParseIP("192.168.1.101");
 3402              		.loc 1 1034 0
 3403 0020 40F20000 		movw	r0, #:lower16:.LC0
 3404 0024 C0F20000 		movt	r0, #:upper16:.LC0
 3405 0028 FFF7FEFF 		bl	ETH0_ParseIP
 3406 002c F860     		str	r0, [r7, #12]
1035:.\Generated_Source\PSoC5/ETH0.c **** 	sub = ETH0_ParseIP("255.255.255.0");
 3407              		.loc 1 1035 0
 3408 002e 40F20000 		movw	r0, #:lower16:.LC1
 3409 0032 C0F20000 		movt	r0, #:upper16:.LC1
 3410 0036 FFF7FEFF 		bl	ETH0_ParseIP
 3411 003a B860     		str	r0, [r7, #8]
1036:.\Generated_Source\PSoC5/ETH0.c **** 	gateway = ETH0_ParseIP("192.168.1.1");
 3412              		.loc 1 1036 0
 3413 003c 40F20000 		movw	r0, #:lower16:.LC2
 3414 0040 C0F20000 		movt	r0, #:upper16:.LC2
 3415 0044 FFF7FEFF 		bl	ETH0_ParseIP
 3416 0048 7860     		str	r0, [r7, #4]
1037:.\Generated_Source\PSoC5/ETH0.c **** 	/* Initialize the device with the default data */
1038:.\Generated_Source\PSoC5/ETH0.c **** 	ETH0_Init( &ETH0_MAC[0], ip, sub, gateway  );
 3417              		.loc 1 1038 0
 3418 004a 40F20000 		movw	r0, #:lower16:ETH0_MAC
 3419 004e C0F20000 		movt	r0, #:upper16:ETH0_MAC
 3420 0052 F968     		ldr	r1, [r7, #12]
 3421 0054 BA68     		ldr	r2, [r7, #8]
 3422 0056 7B68     		ldr	r3, [r7, #4]
 3423 0058 FFF7FEFF 		bl	ETH0_Init
1039:.\Generated_Source\PSoC5/ETH0.c **** }
 3424              		.loc 1 1039 0
 3425 005c 07F11007 		add	r7, r7, #16
 3426 0060 BD46     		mov	sp, r7
 3427 0062 80BD     		pop	{r7, pc}
 3428              		.cfi_endproc
 3429              	.LFE75:
 3430              		.size	ETH0_Start, .-ETH0_Start
 3431              		.section	.text.ETH0_ParseIP,"ax",%progbits
 3432              		.align	2
 3433              		.global	ETH0_ParseIP
 3434              		.thumb
 3435              		.thumb_func
ARM GAS  C:\Users\CHUCK~1.ERH\AppData\Local\Temp\ccSfgJB7.s 			page 80


 3436              		.type	ETH0_ParseIP, %function
 3437              	ETH0_ParseIP:
 3438              	.LFB76:
1040:.\Generated_Source\PSoC5/ETH0.c **** /* ------------------------------------------------------------------------ */
1041:.\Generated_Source\PSoC5/ETH0.c **** uint32
1042:.\Generated_Source\PSoC5/ETH0.c **** ETH0_ParseIP( const char* ipString )
1043:.\Generated_Source\PSoC5/ETH0.c **** {
 3439              		.loc 1 1043 0
 3440              		.cfi_startproc
 3441              		@ args = 0, pretend = 0, frame = 32
 3442              		@ frame_needed = 1, uses_anonymous_args = 0
 3443 0000 90B5     		push	{r4, r7, lr}
 3444              	.LCFI215:
 3445              		.cfi_def_cfa_offset 12
 3446              		.cfi_offset 4, -12
 3447              		.cfi_offset 7, -8
 3448              		.cfi_offset 14, -4
 3449 0002 89B0     		sub	sp, sp, #36
 3450              	.LCFI216:
 3451              		.cfi_def_cfa_offset 48
 3452 0004 00AF     		add	r7, sp, #0
 3453              	.LCFI217:
 3454              		.cfi_def_cfa_register 7
 3455 0006 7860     		str	r0, [r7, #4]
1044:.\Generated_Source\PSoC5/ETH0.c **** 	/*
1045:.\Generated_Source\PSoC5/ETH0.c **** 	 * Parse a human readable string in to a IP address usable by the hardare
1046:.\Generated_Source\PSoC5/ETH0.c **** 	 */
1047:.\Generated_Source\PSoC5/ETH0.c **** 	int index;
1048:.\Generated_Source\PSoC5/ETH0.c **** 	char digit[5];
1049:.\Generated_Source\PSoC5/ETH0.c **** 	uint8 ip[4];
1050:.\Generated_Source\PSoC5/ETH0.c **** 	int counter;
1051:.\Generated_Source\PSoC5/ETH0.c **** 	int dindex;
1052:.\Generated_Source\PSoC5/ETH0.c **** 	
1053:.\Generated_Source\PSoC5/ETH0.c **** 	index = 0;
 3456              		.loc 1 1053 0
 3457 0008 4FF00003 		mov	r3, #0
 3458 000c FB61     		str	r3, [r7, #28]
1054:.\Generated_Source\PSoC5/ETH0.c **** 	dindex = 0;
 3459              		.loc 1 1054 0
 3460 000e 4FF00003 		mov	r3, #0
 3461 0012 7B61     		str	r3, [r7, #20]
1055:.\Generated_Source\PSoC5/ETH0.c **** 	counter = 0;
 3462              		.loc 1 1055 0
 3463 0014 4FF00003 		mov	r3, #0
 3464 0018 BB61     		str	r3, [r7, #24]
1056:.\Generated_Source\PSoC5/ETH0.c **** 	
1057:.\Generated_Source\PSoC5/ETH0.c **** 	while ( (counter < 4) && ((unsigned int)index < strlen(ipString) ) ) {
 3465              		.loc 1 1057 0
 3466 001a 6FE0     		b	.L141
 3467              	.L150:
1058:.\Generated_Source\PSoC5/ETH0.c **** 		if ( (ipString[index] >= '0' ) && (ipString[index] <= '9') ) {
 3468              		.loc 1 1058 0
 3469 001c FB69     		ldr	r3, [r7, #28]
 3470 001e 7A68     		ldr	r2, [r7, #4]
 3471 0020 D318     		adds	r3, r2, r3
 3472 0022 1B78     		ldrb	r3, [r3, #0]	@ zero_extendqisi2
 3473 0024 2F2B     		cmp	r3, #47
ARM GAS  C:\Users\CHUCK~1.ERH\AppData\Local\Temp\ccSfgJB7.s 			page 81


 3474 0026 18D9     		bls	.L142
 3475              		.loc 1 1058 0 is_stmt 0 discriminator 1
 3476 0028 FB69     		ldr	r3, [r7, #28]
 3477 002a 7A68     		ldr	r2, [r7, #4]
 3478 002c D318     		adds	r3, r2, r3
 3479 002e 1B78     		ldrb	r3, [r3, #0]	@ zero_extendqisi2
 3480 0030 392B     		cmp	r3, #57
 3481 0032 12D8     		bhi	.L142
1059:.\Generated_Source\PSoC5/ETH0.c **** 			if (dindex > 3) return( 0xFFFFFFFF );
 3482              		.loc 1 1059 0 is_stmt 1
 3483 0034 7B69     		ldr	r3, [r7, #20]
 3484 0036 032B     		cmp	r3, #3
 3485 0038 02DD     		ble	.L143
 3486              		.loc 1 1059 0 is_stmt 0 discriminator 1
 3487 003a 4FF0FF33 		mov	r3, #-1
 3488 003e 81E0     		b	.L152
 3489              	.L143:
1060:.\Generated_Source\PSoC5/ETH0.c **** 			digit[dindex++] = ipString[index];
 3490              		.loc 1 1060 0 is_stmt 1
 3491 0040 FB69     		ldr	r3, [r7, #28]
 3492 0042 7A68     		ldr	r2, [r7, #4]
 3493 0044 D318     		adds	r3, r2, r3
 3494 0046 1A78     		ldrb	r2, [r3, #0]	@ zero_extendqisi2
 3495 0048 07F10C01 		add	r1, r7, #12
 3496 004c 7B69     		ldr	r3, [r7, #20]
 3497 004e CB18     		adds	r3, r1, r3
 3498 0050 1A70     		strb	r2, [r3, #0]
 3499 0052 7B69     		ldr	r3, [r7, #20]
 3500 0054 03F10103 		add	r3, r3, #1
 3501 0058 7B61     		str	r3, [r7, #20]
 3502              	.L142:
1061:.\Generated_Source\PSoC5/ETH0.c **** 			
1062:.\Generated_Source\PSoC5/ETH0.c **** 		}
1063:.\Generated_Source\PSoC5/ETH0.c **** 		
1064:.\Generated_Source\PSoC5/ETH0.c **** 		if ( (ipString[index] == '.') || (ipString[index+1] == 0) ) {
 3503              		.loc 1 1064 0
 3504 005a FB69     		ldr	r3, [r7, #28]
 3505 005c 7A68     		ldr	r2, [r7, #4]
 3506 005e D318     		adds	r3, r2, r3
 3507 0060 1B78     		ldrb	r3, [r3, #0]	@ zero_extendqisi2
 3508 0062 2E2B     		cmp	r3, #46
 3509 0064 07D0     		beq	.L145
 3510              		.loc 1 1064 0 is_stmt 0 discriminator 1
 3511 0066 FB69     		ldr	r3, [r7, #28]
 3512 0068 03F10103 		add	r3, r3, #1
 3513 006c 7A68     		ldr	r2, [r7, #4]
 3514 006e D318     		adds	r3, r2, r3
 3515 0070 1B78     		ldrb	r3, [r3, #0]	@ zero_extendqisi2
 3516 0072 002B     		cmp	r3, #0
 3517 0074 3ED1     		bne	.L146
 3518              	.L145:
1065:.\Generated_Source\PSoC5/ETH0.c **** 			digit[dindex] = 0;
 3519              		.loc 1 1065 0 is_stmt 1
 3520 0076 07F10C02 		add	r2, r7, #12
 3521 007a 7B69     		ldr	r3, [r7, #20]
 3522 007c D318     		adds	r3, r2, r3
 3523 007e 4FF00002 		mov	r2, #0
ARM GAS  C:\Users\CHUCK~1.ERH\AppData\Local\Temp\ccSfgJB7.s 			page 82


 3524 0082 1A70     		strb	r2, [r3, #0]
1066:.\Generated_Source\PSoC5/ETH0.c **** 			dindex = 0;
 3525              		.loc 1 1066 0
 3526 0084 4FF00003 		mov	r3, #0
 3527 0088 7B61     		str	r3, [r7, #20]
1067:.\Generated_Source\PSoC5/ETH0.c **** 			/* convert the value and store in the buffer */
1068:.\Generated_Source\PSoC5/ETH0.c **** 			ip[counter] = 0;
 3528              		.loc 1 1068 0
 3529 008a 07F10802 		add	r2, r7, #8
 3530 008e BB69     		ldr	r3, [r7, #24]
 3531 0090 D318     		adds	r3, r2, r3
 3532 0092 4FF00002 		mov	r2, #0
 3533 0096 1A70     		strb	r2, [r3, #0]
1069:.\Generated_Source\PSoC5/ETH0.c **** 			while (digit[dindex] != 0) {
 3534              		.loc 1 1069 0
 3535 0098 1EE0     		b	.L147
 3536              	.L148:
1070:.\Generated_Source\PSoC5/ETH0.c **** 				ip[counter] = (ip[counter]*10) + (digit[dindex]-'0');
 3537              		.loc 1 1070 0
 3538 009a 07F10802 		add	r2, r7, #8
 3539 009e BB69     		ldr	r3, [r7, #24]
 3540 00a0 D318     		adds	r3, r2, r3
 3541 00a2 1B78     		ldrb	r3, [r3, #0]	@ zero_extendqisi2
 3542 00a4 1A46     		mov	r2, r3
 3543 00a6 4FEA8202 		lsl	r2, r2, #2
 3544 00aa D318     		adds	r3, r2, r3
 3545 00ac 4FEA4303 		lsl	r3, r3, #1
 3546 00b0 DAB2     		uxtb	r2, r3
 3547 00b2 07F10C01 		add	r1, r7, #12
 3548 00b6 7B69     		ldr	r3, [r7, #20]
 3549 00b8 CB18     		adds	r3, r1, r3
 3550 00ba 1B78     		ldrb	r3, [r3, #0]	@ zero_extendqisi2
 3551 00bc D318     		adds	r3, r2, r3
 3552 00be DBB2     		uxtb	r3, r3
 3553 00c0 A3F13003 		sub	r3, r3, #48
 3554 00c4 DAB2     		uxtb	r2, r3
 3555 00c6 07F10801 		add	r1, r7, #8
 3556 00ca BB69     		ldr	r3, [r7, #24]
 3557 00cc CB18     		adds	r3, r1, r3
 3558 00ce 1A70     		strb	r2, [r3, #0]
1071:.\Generated_Source\PSoC5/ETH0.c **** 				++dindex;
 3559              		.loc 1 1071 0
 3560 00d0 7B69     		ldr	r3, [r7, #20]
 3561 00d2 03F10103 		add	r3, r3, #1
 3562 00d6 7B61     		str	r3, [r7, #20]
 3563              	.L147:
1069:.\Generated_Source\PSoC5/ETH0.c **** 			while (digit[dindex] != 0) {
 3564              		.loc 1 1069 0 discriminator 1
 3565 00d8 07F10C02 		add	r2, r7, #12
 3566 00dc 7B69     		ldr	r3, [r7, #20]
 3567 00de D318     		adds	r3, r2, r3
 3568 00e0 1B78     		ldrb	r3, [r3, #0]	@ zero_extendqisi2
 3569 00e2 002B     		cmp	r3, #0
 3570 00e4 D9D1     		bne	.L148
1072:.\Generated_Source\PSoC5/ETH0.c **** 				// ip[counter] = ...
1073:.\Generated_Source\PSoC5/ETH0.c **** 			}
1074:.\Generated_Source\PSoC5/ETH0.c **** 			/* reset the digit index to start accumulating digits again*/
ARM GAS  C:\Users\CHUCK~1.ERH\AppData\Local\Temp\ccSfgJB7.s 			page 83


1075:.\Generated_Source\PSoC5/ETH0.c **** 			dindex = 0;
 3571              		.loc 1 1075 0
 3572 00e6 4FF00003 		mov	r3, #0
 3573 00ea 7B61     		str	r3, [r7, #20]
1076:.\Generated_Source\PSoC5/ETH0.c **** 			/* move to the next address byte */
1077:.\Generated_Source\PSoC5/ETH0.c **** 			++counter;
 3574              		.loc 1 1077 0
 3575 00ec BB69     		ldr	r3, [r7, #24]
 3576 00ee 03F10103 		add	r3, r3, #1
 3577 00f2 BB61     		str	r3, [r7, #24]
 3578              	.L146:
1078:.\Generated_Source\PSoC5/ETH0.c **** 		}
1079:.\Generated_Source\PSoC5/ETH0.c **** 		++index;
 3579              		.loc 1 1079 0
 3580 00f4 FB69     		ldr	r3, [r7, #28]
 3581 00f6 03F10103 		add	r3, r3, #1
 3582 00fa FB61     		str	r3, [r7, #28]
 3583              	.L141:
1057:.\Generated_Source\PSoC5/ETH0.c **** 	while ( (counter < 4) && ((unsigned int)index < strlen(ipString) ) ) {
 3584              		.loc 1 1057 0 discriminator 1
 3585 00fc BB69     		ldr	r3, [r7, #24]
 3586 00fe 032B     		cmp	r3, #3
 3587 0100 06DC     		bgt	.L149
1057:.\Generated_Source\PSoC5/ETH0.c **** 	while ( (counter < 4) && ((unsigned int)index < strlen(ipString) ) ) {
 3588              		.loc 1 1057 0 is_stmt 0 discriminator 2
 3589 0102 FC69     		ldr	r4, [r7, #28]
 3590 0104 7868     		ldr	r0, [r7, #4]
 3591 0106 FFF7FEFF 		bl	strlen
 3592 010a 0346     		mov	r3, r0
 3593 010c 9C42     		cmp	r4, r3
 3594 010e 85D3     		bcc	.L150
 3595              	.L149:
1080:.\Generated_Source\PSoC5/ETH0.c **** 	}
1081:.\Generated_Source\PSoC5/ETH0.c **** 	
1082:.\Generated_Source\PSoC5/ETH0.c **** 	if (counter != 4) {
 3596              		.loc 1 1082 0 is_stmt 1
 3597 0110 BB69     		ldr	r3, [r7, #24]
 3598 0112 042B     		cmp	r3, #4
 3599 0114 02D0     		beq	.L151
1083:.\Generated_Source\PSoC5/ETH0.c **** 		return( 0xFFFFFFFF );
 3600              		.loc 1 1083 0
 3601 0116 4FF0FF33 		mov	r3, #-1
 3602 011a 13E0     		b	.L152
 3603              	.L151:
1084:.\Generated_Source\PSoC5/ETH0.c **** 	}
1085:.\Generated_Source\PSoC5/ETH0.c **** 	else {
1086:.\Generated_Source\PSoC5/ETH0.c **** 		return( ETH0_IPADDRESS(ip[0], ip[1], ip[2], ip[3]) );
 3604              		.loc 1 1086 0
 3605 011c 3B7A     		ldrb	r3, [r7, #8]	@ zero_extendqisi2
 3606 011e 1A46     		mov	r2, r3
 3607 0120 7B7A     		ldrb	r3, [r7, #9]	@ zero_extendqisi2
 3608 0122 4FEA0323 		lsl	r3, r3, #8
 3609 0126 4FEA0343 		lsl	r3, r3, #16
 3610 012a 4FEA1343 		lsr	r3, r3, #16
 3611 012e D218     		adds	r2, r2, r3
 3612 0130 BB7A     		ldrb	r3, [r7, #10]	@ zero_extendqisi2
 3613 0132 4FEA0343 		lsl	r3, r3, #16
ARM GAS  C:\Users\CHUCK~1.ERH\AppData\Local\Temp\ccSfgJB7.s 			page 84


 3614 0136 03F47F03 		and	r3, r3, #16711680
 3615 013a D218     		adds	r2, r2, r3
 3616 013c FB7A     		ldrb	r3, [r7, #11]	@ zero_extendqisi2
 3617 013e 4FEA0363 		lsl	r3, r3, #24
 3618 0142 D318     		adds	r3, r2, r3
 3619              	.L152:
1087:.\Generated_Source\PSoC5/ETH0.c **** 	}
1088:.\Generated_Source\PSoC5/ETH0.c **** }
 3620              		.loc 1 1088 0
 3621 0144 1846     		mov	r0, r3
 3622 0146 07F12407 		add	r7, r7, #36
 3623 014a BD46     		mov	sp, r7
 3624 014c 90BD     		pop	{r4, r7, pc}
 3625              		.cfi_endproc
 3626              	.LFE76:
 3627              		.size	ETH0_ParseIP, .-ETH0_ParseIP
 3628 014e 00BF     		.section	.text.ETH0_SetIP,"ax",%progbits
 3629              		.align	2
 3630              		.global	ETH0_SetIP
 3631              		.thumb
 3632              		.thumb_func
 3633              		.type	ETH0_SetIP, %function
 3634              	ETH0_SetIP:
 3635              	.LFB77:
1089:.\Generated_Source\PSoC5/ETH0.c **** /* ------------------------------------------------------------------------ */
1090:.\Generated_Source\PSoC5/ETH0.c **** uint8
1091:.\Generated_Source\PSoC5/ETH0.c **** ETH0_SetIP( uint32 ip )
1092:.\Generated_Source\PSoC5/ETH0.c **** {
 3636              		.loc 1 1092 0
 3637              		.cfi_startproc
 3638              		@ args = 0, pretend = 0, frame = 16
 3639              		@ frame_needed = 1, uses_anonymous_args = 0
 3640 0000 80B5     		push	{r7, lr}
 3641              	.LCFI218:
 3642              		.cfi_def_cfa_offset 8
 3643              		.cfi_offset 7, -8
 3644              		.cfi_offset 14, -4
 3645 0002 84B0     		sub	sp, sp, #16
 3646              	.LCFI219:
 3647              		.cfi_def_cfa_offset 24
 3648 0004 00AF     		add	r7, sp, #0
 3649              	.LCFI220:
 3650              		.cfi_def_cfa_register 7
 3651 0006 7860     		str	r0, [r7, #4]
1093:.\Generated_Source\PSoC5/ETH0.c **** 	uint8 ok = 0;
 3652              		.loc 1 1093 0
 3653 0008 4FF00003 		mov	r3, #0
 3654 000c FB73     		strb	r3, [r7, #15]
1094:.\Generated_Source\PSoC5/ETH0.c **** 	
1095:.\Generated_Source\PSoC5/ETH0.c **** 	if ( ( ip != 0) && (ip != 0xFFFFFFFF) ) {
 3655              		.loc 1 1095 0
 3656 000e 7B68     		ldr	r3, [r7, #4]
 3657 0010 002B     		cmp	r3, #0
 3658 0012 09D0     		beq	.L154
 3659              		.loc 1 1095 0 is_stmt 0 discriminator 1
 3660 0014 7B68     		ldr	r3, [r7, #4]
 3661 0016 B3F1FF3F 		cmp	r3, #-1
ARM GAS  C:\Users\CHUCK~1.ERH\AppData\Local\Temp\ccSfgJB7.s 			page 85


 3662 001a 05D0     		beq	.L154
1096:.\Generated_Source\PSoC5/ETH0.c **** 		ETH0_SetSourceIP( ip );
 3663              		.loc 1 1096 0 is_stmt 1
 3664 001c 7868     		ldr	r0, [r7, #4]
 3665 001e FFF7FEFF 		bl	ETH0_SetSourceIP
1097:.\Generated_Source\PSoC5/ETH0.c **** 		ok = 0xFF;
 3666              		.loc 1 1097 0
 3667 0022 4FF0FF03 		mov	r3, #255
 3668 0026 FB73     		strb	r3, [r7, #15]
 3669              	.L154:
1098:.\Generated_Source\PSoC5/ETH0.c **** 	}
1099:.\Generated_Source\PSoC5/ETH0.c **** 	
1100:.\Generated_Source\PSoC5/ETH0.c **** 	return ok;
 3670              		.loc 1 1100 0
 3671 0028 FB7B     		ldrb	r3, [r7, #15]	@ zero_extendqisi2
1101:.\Generated_Source\PSoC5/ETH0.c **** }
 3672              		.loc 1 1101 0
 3673 002a 1846     		mov	r0, r3
 3674 002c 07F11007 		add	r7, r7, #16
 3675 0030 BD46     		mov	sp, r7
 3676 0032 80BD     		pop	{r7, pc}
 3677              		.cfi_endproc
 3678              	.LFE77:
 3679              		.size	ETH0_SetIP, .-ETH0_SetIP
 3680              		.section	.text.ETH0_GetIP,"ax",%progbits
 3681              		.align	2
 3682              		.global	ETH0_GetIP
 3683              		.thumb
 3684              		.thumb_func
 3685              		.type	ETH0_GetIP, %function
 3686              	ETH0_GetIP:
 3687              	.LFB78:
1102:.\Generated_Source\PSoC5/ETH0.c **** /* ------------------------------------------------------------------------ */
1103:.\Generated_Source\PSoC5/ETH0.c **** uint32
1104:.\Generated_Source\PSoC5/ETH0.c **** ETH0_GetIP( void )
1105:.\Generated_Source\PSoC5/ETH0.c **** {
 3688              		.loc 1 1105 0
 3689              		.cfi_startproc
 3690              		@ args = 0, pretend = 0, frame = 0
 3691              		@ frame_needed = 1, uses_anonymous_args = 0
 3692 0000 80B5     		push	{r7, lr}
 3693              	.LCFI221:
 3694              		.cfi_def_cfa_offset 8
 3695              		.cfi_offset 7, -8
 3696              		.cfi_offset 14, -4
 3697 0002 00AF     		add	r7, sp, #0
 3698              	.LCFI222:
 3699              		.cfi_def_cfa_register 7
1106:.\Generated_Source\PSoC5/ETH0.c **** 	return ETH0_GetSourceIP();
 3700              		.loc 1 1106 0
 3701 0004 FFF7FEFF 		bl	ETH0_GetSourceIP
 3702 0008 0346     		mov	r3, r0
1107:.\Generated_Source\PSoC5/ETH0.c **** }
 3703              		.loc 1 1107 0
 3704 000a 1846     		mov	r0, r3
 3705 000c 80BD     		pop	{r7, pc}
 3706              		.cfi_endproc
ARM GAS  C:\Users\CHUCK~1.ERH\AppData\Local\Temp\ccSfgJB7.s 			page 86


 3707              	.LFE78:
 3708              		.size	ETH0_GetIP, .-ETH0_GetIP
 3709 000e 00BF     		.section	.text.ETH0_SetMAC,"ax",%progbits
 3710              		.align	2
 3711              		.global	ETH0_SetMAC
 3712              		.thumb
 3713              		.thumb_func
 3714              		.type	ETH0_SetMAC, %function
 3715              	ETH0_SetMAC:
 3716              	.LFB79:
1108:.\Generated_Source\PSoC5/ETH0.c **** /* ------------------------------------------------------------------------ */
1109:.\Generated_Source\PSoC5/ETH0.c **** void
1110:.\Generated_Source\PSoC5/ETH0.c **** ETH0_SetMAC( uint8* mac )
1111:.\Generated_Source\PSoC5/ETH0.c **** {
 3717              		.loc 1 1111 0
 3718              		.cfi_startproc
 3719              		@ args = 0, pretend = 0, frame = 8
 3720              		@ frame_needed = 1, uses_anonymous_args = 0
 3721 0000 80B5     		push	{r7, lr}
 3722              	.LCFI223:
 3723              		.cfi_def_cfa_offset 8
 3724              		.cfi_offset 7, -8
 3725              		.cfi_offset 14, -4
 3726 0002 82B0     		sub	sp, sp, #8
 3727              	.LCFI224:
 3728              		.cfi_def_cfa_offset 16
 3729 0004 00AF     		add	r7, sp, #0
 3730              	.LCFI225:
 3731              		.cfi_def_cfa_register 7
 3732 0006 7860     		str	r0, [r7, #4]
1112:.\Generated_Source\PSoC5/ETH0.c **** 	ETH0_SetSourceMAC( mac );
 3733              		.loc 1 1112 0
 3734 0008 7868     		ldr	r0, [r7, #4]
 3735 000a FFF7FEFF 		bl	ETH0_SetSourceMAC
1113:.\Generated_Source\PSoC5/ETH0.c **** }
 3736              		.loc 1 1113 0
 3737 000e 07F10807 		add	r7, r7, #8
 3738 0012 BD46     		mov	sp, r7
 3739 0014 80BD     		pop	{r7, pc}
 3740              		.cfi_endproc
 3741              	.LFE79:
 3742              		.size	ETH0_SetMAC, .-ETH0_SetMAC
 3743 0016 00BF     		.section	.text.ETH0_GetMAC,"ax",%progbits
 3744              		.align	2
 3745              		.global	ETH0_GetMAC
 3746              		.thumb
 3747              		.thumb_func
 3748              		.type	ETH0_GetMAC, %function
 3749              	ETH0_GetMAC:
 3750              	.LFB80:
1114:.\Generated_Source\PSoC5/ETH0.c **** /* ------------------------------------------------------------------------ */
1115:.\Generated_Source\PSoC5/ETH0.c **** void
1116:.\Generated_Source\PSoC5/ETH0.c **** ETH0_GetMAC( uint8* mac )
1117:.\Generated_Source\PSoC5/ETH0.c **** {
 3751              		.loc 1 1117 0
 3752              		.cfi_startproc
 3753              		@ args = 0, pretend = 0, frame = 8
ARM GAS  C:\Users\CHUCK~1.ERH\AppData\Local\Temp\ccSfgJB7.s 			page 87


 3754              		@ frame_needed = 1, uses_anonymous_args = 0
 3755 0000 80B5     		push	{r7, lr}
 3756              	.LCFI226:
 3757              		.cfi_def_cfa_offset 8
 3758              		.cfi_offset 7, -8
 3759              		.cfi_offset 14, -4
 3760 0002 82B0     		sub	sp, sp, #8
 3761              	.LCFI227:
 3762              		.cfi_def_cfa_offset 16
 3763 0004 00AF     		add	r7, sp, #0
 3764              	.LCFI228:
 3765              		.cfi_def_cfa_register 7
 3766 0006 7860     		str	r0, [r7, #4]
1118:.\Generated_Source\PSoC5/ETH0.c **** 	ETH0_GetSourceMAC( mac );
 3767              		.loc 1 1118 0
 3768 0008 7868     		ldr	r0, [r7, #4]
 3769 000a FFF7FEFF 		bl	ETH0_GetSourceMAC
1119:.\Generated_Source\PSoC5/ETH0.c **** }
 3770              		.loc 1 1119 0
 3771 000e 07F10807 		add	r7, r7, #8
 3772 0012 BD46     		mov	sp, r7
 3773 0014 80BD     		pop	{r7, pc}
 3774              		.cfi_endproc
 3775              	.LFE80:
 3776              		.size	ETH0_GetMAC, .-ETH0_GetMAC
 3777 0016 00BF     		.section	.text.ETH0_SocketOpen,"ax",%progbits
 3778              		.align	2
 3779              		.global	ETH0_SocketOpen
 3780              		.thumb
 3781              		.thumb_func
 3782              		.type	ETH0_SocketOpen, %function
 3783              	ETH0_SocketOpen:
 3784              	.LFB81:
1120:.\Generated_Source\PSoC5/ETH0.c **** #endif
1121:.\Generated_Source\PSoC5/ETH0.c **** /* ======================================================================== */
1122:.\Generated_Source\PSoC5/ETH0.c **** /* Socket Controls */
1123:.\Generated_Source\PSoC5/ETH0.c **** #if (1)
1124:.\Generated_Source\PSoC5/ETH0.c **** /* ------------------------------------------------------------------------ */
1125:.\Generated_Source\PSoC5/ETH0.c **** uint8
1126:.\Generated_Source\PSoC5/ETH0.c **** ETH0_SocketOpen( uint8 Protocol, uint16 port, uint8 flags )
1127:.\Generated_Source\PSoC5/ETH0.c **** {
 3785              		.loc 1 1127 0
 3786              		.cfi_startproc
 3787              		@ args = 0, pretend = 0, frame = 16
 3788              		@ frame_needed = 1, uses_anonymous_args = 0
 3789 0000 80B5     		push	{r7, lr}
 3790              	.LCFI229:
 3791              		.cfi_def_cfa_offset 8
 3792              		.cfi_offset 7, -8
 3793              		.cfi_offset 14, -4
 3794 0002 84B0     		sub	sp, sp, #16
 3795              	.LCFI230:
 3796              		.cfi_def_cfa_offset 24
 3797 0004 00AF     		add	r7, sp, #0
 3798              	.LCFI231:
 3799              		.cfi_def_cfa_register 7
 3800 0006 1346     		mov	r3, r2
ARM GAS  C:\Users\CHUCK~1.ERH\AppData\Local\Temp\ccSfgJB7.s 			page 88


 3801 0008 0246     		mov	r2, r0
 3802 000a FA71     		strb	r2, [r7, #7]
 3803 000c 0A46     		mov	r2, r1	@ movhi
 3804 000e BA80     		strh	r2, [r7, #4]	@ movhi
 3805 0010 BB71     		strb	r3, [r7, #6]
1128:.\Generated_Source\PSoC5/ETH0.c **** 	uint8 socket;
1129:.\Generated_Source\PSoC5/ETH0.c **** 	int index;
1130:.\Generated_Source\PSoC5/ETH0.c **** 	
1131:.\Generated_Source\PSoC5/ETH0.c **** 	/*
1132:.\Generated_Source\PSoC5/ETH0.c **** 	 * This function will look for the first available socket for allocation
1133:.\Generated_Source\PSoC5/ETH0.c **** 	 * using the defined protocol.  The socket configuration will then be
1134:.\Generated_Source\PSoC5/ETH0.c **** 	 * initialized and saved in the allocation table. If the requested socket
1135:.\Generated_Source\PSoC5/ETH0.c **** 	 * can not be initialized, 0xFF is returned
1136:.\Generated_Source\PSoC5/ETH0.c **** 	 */
1137:.\Generated_Source\PSoC5/ETH0.c **** 	socket = 0xFF;
 3806              		.loc 1 1137 0
 3807 0012 4FF0FF03 		mov	r3, #255
 3808 0016 FB73     		strb	r3, [r7, #15]
1138:.\Generated_Source\PSoC5/ETH0.c **** 	/* find the first available socket to open, and how much memory is available */
1139:.\Generated_Source\PSoC5/ETH0.c **** 	for( index = 0;index<4;++index) {
 3809              		.loc 1 1139 0
 3810 0018 4FF00003 		mov	r3, #0
 3811 001c BB60     		str	r3, [r7, #8]
 3812 001e 1DE0     		b	.L161
 3813              	.L164:
1140:.\Generated_Source\PSoC5/ETH0.c **** 		if ( (socket == 0xFF) && (ETH0_SocketConfig[index].Protocol == 0) ) {
 3814              		.loc 1 1140 0
 3815 0020 FB7B     		ldrb	r3, [r7, #15]	@ zero_extendqisi2
 3816 0022 FF2B     		cmp	r3, #255
 3817 0024 16D1     		bne	.L162
 3818              		.loc 1 1140 0 is_stmt 0 discriminator 1
 3819 0026 40F20002 		movw	r2, #:lower16:ETH0_SocketConfig
 3820 002a C0F20002 		movt	r2, #:upper16:ETH0_SocketConfig
 3821 002e B968     		ldr	r1, [r7, #8]
 3822 0030 0B46     		mov	r3, r1
 3823 0032 4FEA4303 		lsl	r3, r3, #1
 3824 0036 5B18     		adds	r3, r3, r1
 3825 0038 4FEA4303 		lsl	r3, r3, #1
 3826 003c D318     		adds	r3, r2, r3
 3827 003e 1B78     		ldrb	r3, [r3, #0]	@ zero_extendqisi2
 3828 0040 002B     		cmp	r3, #0
 3829 0042 07D1     		bne	.L162
1141:.\Generated_Source\PSoC5/ETH0.c **** 			/*
1142:.\Generated_Source\PSoC5/ETH0.c **** 			 * Since the W5100 does not support MAC mode commucications, check to see
1143:.\Generated_Source\PSoC5/ETH0.c **** 			 * if the socket that is free was socket 0.  If the mac protocol was
1144:.\Generated_Source\PSoC5/ETH0.c **** 			 * selected, ignore socket 0
1145:.\Generated_Source\PSoC5/ETH0.c **** 			 */
1146:.\Generated_Source\PSoC5/ETH0.c **** 			if ( (Protocol != ETH0_PROTO_MAC) || (index != 0) ) {
 3830              		.loc 1 1146 0 is_stmt 1
 3831 0044 FB79     		ldrb	r3, [r7, #7]	@ zero_extendqisi2
 3832 0046 042B     		cmp	r3, #4
 3833 0048 02D1     		bne	.L163
 3834              		.loc 1 1146 0 is_stmt 0 discriminator 1
 3835 004a BB68     		ldr	r3, [r7, #8]
 3836 004c 002B     		cmp	r3, #0
 3837 004e 01D0     		beq	.L162
 3838              	.L163:
ARM GAS  C:\Users\CHUCK~1.ERH\AppData\Local\Temp\ccSfgJB7.s 			page 89


1147:.\Generated_Source\PSoC5/ETH0.c **** 				/* store this socket number for allocation */
1148:.\Generated_Source\PSoC5/ETH0.c **** 				socket = index;
 3839              		.loc 1 1148 0 is_stmt 1
 3840 0050 BB68     		ldr	r3, [r7, #8]
 3841 0052 FB73     		strb	r3, [r7, #15]
 3842              	.L162:
1139:.\Generated_Source\PSoC5/ETH0.c **** 	for( index = 0;index<4;++index) {
 3843              		.loc 1 1139 0
 3844 0054 BB68     		ldr	r3, [r7, #8]
 3845 0056 03F10103 		add	r3, r3, #1
 3846 005a BB60     		str	r3, [r7, #8]
 3847              	.L161:
1139:.\Generated_Source\PSoC5/ETH0.c **** 	for( index = 0;index<4;++index) {
 3848              		.loc 1 1139 0 is_stmt 0 discriminator 1
 3849 005c BB68     		ldr	r3, [r7, #8]
 3850 005e 032B     		cmp	r3, #3
 3851 0060 DEDD     		ble	.L164
1149:.\Generated_Source\PSoC5/ETH0.c **** 			}
1150:.\Generated_Source\PSoC5/ETH0.c **** 		}
1151:.\Generated_Source\PSoC5/ETH0.c **** 	}
1152:.\Generated_Source\PSoC5/ETH0.c **** 	if (socket != 0xFF ) {
 3852              		.loc 1 1152 0 is_stmt 1
 3853 0062 FB7B     		ldrb	r3, [r7, #15]	@ zero_extendqisi2
 3854 0064 FF2B     		cmp	r3, #255
 3855 0066 4DD0     		beq	.L165
1153:.\Generated_Source\PSoC5/ETH0.c **** 		/* Store the socket information in the allocation table */
1154:.\Generated_Source\PSoC5/ETH0.c **** 		ETH0_SocketConfig[socket].Protocol = Protocol;
 3856              		.loc 1 1154 0
 3857 0068 F97B     		ldrb	r1, [r7, #15]	@ zero_extendqisi2
 3858 006a 40F20002 		movw	r2, #:lower16:ETH0_SocketConfig
 3859 006e C0F20002 		movt	r2, #:upper16:ETH0_SocketConfig
 3860 0072 0B46     		mov	r3, r1
 3861 0074 4FEA4303 		lsl	r3, r3, #1
 3862 0078 5B18     		adds	r3, r3, r1
 3863 007a 4FEA4303 		lsl	r3, r3, #1
 3864 007e D318     		adds	r3, r2, r3
 3865 0080 FA79     		ldrb	r2, [r7, #7]
 3866 0082 1A70     		strb	r2, [r3, #0]
1155:.\Generated_Source\PSoC5/ETH0.c **** 		ETH0_SocketConfig[socket].SocketFlags = flags;
 3867              		.loc 1 1155 0
 3868 0084 F97B     		ldrb	r1, [r7, #15]	@ zero_extendqisi2
 3869 0086 40F20002 		movw	r2, #:lower16:ETH0_SocketConfig
 3870 008a C0F20002 		movt	r2, #:upper16:ETH0_SocketConfig
 3871 008e 0B46     		mov	r3, r1
 3872 0090 4FEA4303 		lsl	r3, r3, #1
 3873 0094 5B18     		adds	r3, r3, r1
 3874 0096 4FEA4303 		lsl	r3, r3, #1
 3875 009a D318     		adds	r3, r2, r3
 3876 009c BA79     		ldrb	r2, [r7, #6]
 3877 009e 5A70     		strb	r2, [r3, #1]
1156:.\Generated_Source\PSoC5/ETH0.c **** 		ETH0_SocketConfig[socket].SourcePort = port;
 3878              		.loc 1 1156 0
 3879 00a0 F97B     		ldrb	r1, [r7, #15]	@ zero_extendqisi2
 3880 00a2 40F20002 		movw	r2, #:lower16:ETH0_SocketConfig
 3881 00a6 C0F20002 		movt	r2, #:upper16:ETH0_SocketConfig
 3882 00aa 0B46     		mov	r3, r1
 3883 00ac 4FEA4303 		lsl	r3, r3, #1
ARM GAS  C:\Users\CHUCK~1.ERH\AppData\Local\Temp\ccSfgJB7.s 			page 90


 3884 00b0 5B18     		adds	r3, r3, r1
 3885 00b2 4FEA4303 		lsl	r3, r3, #1
 3886 00b6 D318     		adds	r3, r2, r3
 3887 00b8 BA88     		ldrh	r2, [r7, #4]	@ movhi
 3888 00ba 5A80     		strh	r2, [r3, #2]	@ movhi
1157:.\Generated_Source\PSoC5/ETH0.c **** 		ETH0_SocketConfig[socket].ServerFlag = 0;
 3889              		.loc 1 1157 0
 3890 00bc F97B     		ldrb	r1, [r7, #15]	@ zero_extendqisi2
 3891 00be 40F20002 		movw	r2, #:lower16:ETH0_SocketConfig
 3892 00c2 C0F20002 		movt	r2, #:upper16:ETH0_SocketConfig
 3893 00c6 0B46     		mov	r3, r1
 3894 00c8 4FEA4303 		lsl	r3, r3, #1
 3895 00cc 5B18     		adds	r3, r3, r1
 3896 00ce 4FEA4303 		lsl	r3, r3, #1
 3897 00d2 D318     		adds	r3, r2, r3
 3898 00d4 4FF00002 		mov	r2, #0
 3899 00d8 1A71     		strb	r2, [r3, #4]
1158:.\Generated_Source\PSoC5/ETH0.c **** 		/* Send the socket open with the correct protocol information */
1159:.\Generated_Source\PSoC5/ETH0.c **** 		ETH0_SetSocketSourcePort( socket, port );
 3900              		.loc 1 1159 0
 3901 00da FA7B     		ldrb	r2, [r7, #15]	@ zero_extendqisi2
 3902 00dc BB88     		ldrh	r3, [r7, #4]
 3903 00de 1046     		mov	r0, r2
 3904 00e0 1946     		mov	r1, r3
 3905 00e2 FFF7FEFF 		bl	ETH0_SetSocketSourcePort
1160:.\Generated_Source\PSoC5/ETH0.c **** 		ETH0_SetSocketMode( socket, Protocol | flags );
 3906              		.loc 1 1160 0
 3907 00e6 FA79     		ldrb	r2, [r7, #7]
 3908 00e8 BB79     		ldrb	r3, [r7, #6]
 3909 00ea 1343     		orrs	r3, r3, r2
 3910 00ec DBB2     		uxtb	r3, r3
 3911 00ee FA7B     		ldrb	r2, [r7, #15]	@ zero_extendqisi2
 3912 00f0 1046     		mov	r0, r2
 3913 00f2 1946     		mov	r1, r3
 3914 00f4 FFF7FEFF 		bl	ETH0_SetSocketMode
1161:.\Generated_Source\PSoC5/ETH0.c **** 		ETH0_ExecuteSocketCommand( socket, 1 );
 3915              		.loc 1 1161 0
 3916 00f8 FB7B     		ldrb	r3, [r7, #15]	@ zero_extendqisi2
 3917 00fa 1846     		mov	r0, r3
 3918 00fc 4FF00101 		mov	r1, #1
 3919 0100 FFF7FEFF 		bl	ETH0_ExecuteSocketCommand
 3920              	.L165:
1162:.\Generated_Source\PSoC5/ETH0.c **** 	}
1163:.\Generated_Source\PSoC5/ETH0.c **** 	return socket;
 3921              		.loc 1 1163 0
 3922 0104 FB7B     		ldrb	r3, [r7, #15]	@ zero_extendqisi2
1164:.\Generated_Source\PSoC5/ETH0.c **** }
 3923              		.loc 1 1164 0
 3924 0106 1846     		mov	r0, r3
 3925 0108 07F11007 		add	r7, r7, #16
 3926 010c BD46     		mov	sp, r7
 3927 010e 80BD     		pop	{r7, pc}
 3928              		.cfi_endproc
 3929              	.LFE81:
 3930              		.size	ETH0_SocketOpen, .-ETH0_SocketOpen
 3931              		.section	.text.ETH0_SocketClose,"ax",%progbits
 3932              		.align	2
ARM GAS  C:\Users\CHUCK~1.ERH\AppData\Local\Temp\ccSfgJB7.s 			page 91


 3933              		.global	ETH0_SocketClose
 3934              		.thumb
 3935              		.thumb_func
 3936              		.type	ETH0_SocketClose, %function
 3937              	ETH0_SocketClose:
 3938              	.LFB82:
1165:.\Generated_Source\PSoC5/ETH0.c **** /* ------------------------------------------------------------------------ */
1166:.\Generated_Source\PSoC5/ETH0.c **** void
1167:.\Generated_Source\PSoC5/ETH0.c **** ETH0_SocketClose( uint8 socket )
1168:.\Generated_Source\PSoC5/ETH0.c **** {
 3939              		.loc 1 1168 0
 3940              		.cfi_startproc
 3941              		@ args = 0, pretend = 0, frame = 8
 3942              		@ frame_needed = 1, uses_anonymous_args = 0
 3943 0000 80B5     		push	{r7, lr}
 3944              	.LCFI232:
 3945              		.cfi_def_cfa_offset 8
 3946              		.cfi_offset 7, -8
 3947              		.cfi_offset 14, -4
 3948 0002 82B0     		sub	sp, sp, #8
 3949              	.LCFI233:
 3950              		.cfi_def_cfa_offset 16
 3951 0004 00AF     		add	r7, sp, #0
 3952              	.LCFI234:
 3953              		.cfi_def_cfa_register 7
 3954 0006 0346     		mov	r3, r0
 3955 0008 FB71     		strb	r3, [r7, #7]
1169:.\Generated_Source\PSoC5/ETH0.c **** 	/*
1170:.\Generated_Source\PSoC5/ETH0.c **** 	 * Set the socket allocation to empty, and issue the close command
1171:.\Generated_Source\PSoC5/ETH0.c **** 	 * to the socket
1172:.\Generated_Source\PSoC5/ETH0.c **** 	 */
1173:.\Generated_Source\PSoC5/ETH0.c **** 	if (socket < 4) {
 3956              		.loc 1 1173 0
 3957 000a FB79     		ldrb	r3, [r7, #7]	@ zero_extendqisi2
 3958 000c 032B     		cmp	r3, #3
 3959 000e 29D8     		bhi	.L167
1174:.\Generated_Source\PSoC5/ETH0.c **** 		/* clear the socket memory allocations */
1175:.\Generated_Source\PSoC5/ETH0.c **** 		ETH0_SocketConfig[socket].Protocol = 0;
 3960              		.loc 1 1175 0
 3961 0010 F979     		ldrb	r1, [r7, #7]	@ zero_extendqisi2
 3962 0012 40F20002 		movw	r2, #:lower16:ETH0_SocketConfig
 3963 0016 C0F20002 		movt	r2, #:upper16:ETH0_SocketConfig
 3964 001a 0B46     		mov	r3, r1
 3965 001c 4FEA4303 		lsl	r3, r3, #1
 3966 0020 5B18     		adds	r3, r3, r1
 3967 0022 4FEA4303 		lsl	r3, r3, #1
 3968 0026 D318     		adds	r3, r2, r3
 3969 0028 4FF00002 		mov	r2, #0
 3970 002c 1A70     		strb	r2, [r3, #0]
1176:.\Generated_Source\PSoC5/ETH0.c **** 		ETH0_SocketConfig[socket].SocketFlags = 0;
 3971              		.loc 1 1176 0
 3972 002e F979     		ldrb	r1, [r7, #7]	@ zero_extendqisi2
 3973 0030 40F20002 		movw	r2, #:lower16:ETH0_SocketConfig
 3974 0034 C0F20002 		movt	r2, #:upper16:ETH0_SocketConfig
 3975 0038 0B46     		mov	r3, r1
 3976 003a 4FEA4303 		lsl	r3, r3, #1
 3977 003e 5B18     		adds	r3, r3, r1
ARM GAS  C:\Users\CHUCK~1.ERH\AppData\Local\Temp\ccSfgJB7.s 			page 92


 3978 0040 4FEA4303 		lsl	r3, r3, #1
 3979 0044 D318     		adds	r3, r2, r3
 3980 0046 4FF00002 		mov	r2, #0
 3981 004a 5A70     		strb	r2, [r3, #1]
1177:.\Generated_Source\PSoC5/ETH0.c **** 		/* close the socket */
1178:.\Generated_Source\PSoC5/ETH0.c **** 		ETH0_ExecuteSocketCommand( socket, 0x10 );
 3982              		.loc 1 1178 0
 3983 004c FB79     		ldrb	r3, [r7, #7]	@ zero_extendqisi2
 3984 004e 1846     		mov	r0, r3
 3985 0050 4FF01001 		mov	r1, #16
 3986 0054 FFF7FEFF 		bl	ETH0_ExecuteSocketCommand
1179:.\Generated_Source\PSoC5/ETH0.c **** 		/* Clear pending Interrupts */
1180:.\Generated_Source\PSoC5/ETH0.c **** 		ETH0_SetSocketIR( socket, 0xFF);
 3987              		.loc 1 1180 0
 3988 0058 FB79     		ldrb	r3, [r7, #7]	@ zero_extendqisi2
 3989 005a 1846     		mov	r0, r3
 3990 005c 4FF0FF01 		mov	r1, #255
 3991 0060 FFF7FEFF 		bl	ETH0_SetSocketIR
 3992              	.L167:
1181:.\Generated_Source\PSoC5/ETH0.c **** 	}
1182:.\Generated_Source\PSoC5/ETH0.c **** }
 3993              		.loc 1 1182 0
 3994 0064 07F10807 		add	r7, r7, #8
 3995 0068 BD46     		mov	sp, r7
 3996 006a 80BD     		pop	{r7, pc}
 3997              		.cfi_endproc
 3998              	.LFE82:
 3999              		.size	ETH0_SocketClose, .-ETH0_SocketClose
 4000              		.section	.text.ETH0_SocketProcessConnections,"ax",%progbits
 4001              		.align	2
 4002              		.global	ETH0_SocketProcessConnections
 4003              		.thumb
 4004              		.thumb_func
 4005              		.type	ETH0_SocketProcessConnections, %function
 4006              	ETH0_SocketProcessConnections:
 4007              	.LFB83:
1183:.\Generated_Source\PSoC5/ETH0.c **** /* ------------------------------------------------------------------------ */
1184:.\Generated_Source\PSoC5/ETH0.c **** uint8
1185:.\Generated_Source\PSoC5/ETH0.c **** ETH0_SocketProcessConnections( uint8 socket )
1186:.\Generated_Source\PSoC5/ETH0.c **** {
 4008              		.loc 1 1186 0
 4009              		.cfi_startproc
 4010              		@ args = 0, pretend = 0, frame = 16
 4011              		@ frame_needed = 1, uses_anonymous_args = 0
 4012 0000 80B5     		push	{r7, lr}
 4013              	.LCFI235:
 4014              		.cfi_def_cfa_offset 8
 4015              		.cfi_offset 7, -8
 4016              		.cfi_offset 14, -4
 4017 0002 84B0     		sub	sp, sp, #16
 4018              	.LCFI236:
 4019              		.cfi_def_cfa_offset 24
 4020 0004 00AF     		add	r7, sp, #0
 4021              	.LCFI237:
 4022              		.cfi_def_cfa_register 7
 4023 0006 0346     		mov	r3, r0
 4024 0008 FB71     		strb	r3, [r7, #7]
ARM GAS  C:\Users\CHUCK~1.ERH\AppData\Local\Temp\ccSfgJB7.s 			page 93


1187:.\Generated_Source\PSoC5/ETH0.c **** 	uint8 status;
1188:.\Generated_Source\PSoC5/ETH0.c **** 	
1189:.\Generated_Source\PSoC5/ETH0.c **** 	status = ETH0_GetSocketStatus(socket);
 4025              		.loc 1 1189 0
 4026 000a FB79     		ldrb	r3, [r7, #7]	@ zero_extendqisi2
 4027 000c 1846     		mov	r0, r3
 4028 000e FFF7FEFF 		bl	ETH0_GetSocketStatus
 4029 0012 0346     		mov	r3, r0
 4030 0014 FB73     		strb	r3, [r7, #15]
1190:.\Generated_Source\PSoC5/ETH0.c **** 	/* has a connection termination been requested by remote system */
1191:.\Generated_Source\PSoC5/ETH0.c **** 	if (status == 0x1C) {
 4031              		.loc 1 1191 0
 4032 0016 FB7B     		ldrb	r3, [r7, #15]	@ zero_extendqisi2
 4033 0018 1C2B     		cmp	r3, #28
 4034 001a 03D1     		bne	.L170
1192:.\Generated_Source\PSoC5/ETH0.c **** 		/* Close the socket on this end */
1193:.\Generated_Source\PSoC5/ETH0.c **** 		ETH0_SocketClose(socket);
 4035              		.loc 1 1193 0
 4036 001c FB79     		ldrb	r3, [r7, #7]	@ zero_extendqisi2
 4037 001e 1846     		mov	r0, r3
 4038 0020 FFF7FEFF 		bl	ETH0_SocketClose
 4039              	.L170:
1194:.\Generated_Source\PSoC5/ETH0.c **** 	}
1195:.\Generated_Source\PSoC5/ETH0.c **** 	return (ETH0_GetSocketStatus(socket) == 0x00);
 4040              		.loc 1 1195 0
 4041 0024 FB79     		ldrb	r3, [r7, #7]	@ zero_extendqisi2
 4042 0026 1846     		mov	r0, r3
 4043 0028 FFF7FEFF 		bl	ETH0_GetSocketStatus
 4044 002c 0346     		mov	r3, r0
 4045 002e 002B     		cmp	r3, #0
 4046 0030 14BF     		ite	ne
 4047 0032 0023     		movne	r3, #0
 4048 0034 0123     		moveq	r3, #1
 4049 0036 DBB2     		uxtb	r3, r3
1196:.\Generated_Source\PSoC5/ETH0.c **** }
 4050              		.loc 1 1196 0
 4051 0038 1846     		mov	r0, r3
 4052 003a 07F11007 		add	r7, r7, #16
 4053 003e BD46     		mov	sp, r7
 4054 0040 80BD     		pop	{r7, pc}
 4055              		.cfi_endproc
 4056              	.LFE83:
 4057              		.size	ETH0_SocketProcessConnections, .-ETH0_SocketProcessConnections
 4058 0042 00BF     		.section	.text.ETH0_SocketEstablished,"ax",%progbits
 4059              		.align	2
 4060              		.global	ETH0_SocketEstablished
 4061              		.thumb
 4062              		.thumb_func
 4063              		.type	ETH0_SocketEstablished, %function
 4064              	ETH0_SocketEstablished:
 4065              	.LFB84:
1197:.\Generated_Source\PSoC5/ETH0.c **** /* ------------------------------------------------------------------------ */
1198:.\Generated_Source\PSoC5/ETH0.c **** uint8
1199:.\Generated_Source\PSoC5/ETH0.c **** ETH0_SocketEstablished( uint8 socket )
1200:.\Generated_Source\PSoC5/ETH0.c **** {
 4066              		.loc 1 1200 0
 4067              		.cfi_startproc
ARM GAS  C:\Users\CHUCK~1.ERH\AppData\Local\Temp\ccSfgJB7.s 			page 94


 4068              		@ args = 0, pretend = 0, frame = 8
 4069              		@ frame_needed = 1, uses_anonymous_args = 0
 4070 0000 80B5     		push	{r7, lr}
 4071              	.LCFI238:
 4072              		.cfi_def_cfa_offset 8
 4073              		.cfi_offset 7, -8
 4074              		.cfi_offset 14, -4
 4075 0002 82B0     		sub	sp, sp, #8
 4076              	.LCFI239:
 4077              		.cfi_def_cfa_offset 16
 4078 0004 00AF     		add	r7, sp, #0
 4079              	.LCFI240:
 4080              		.cfi_def_cfa_register 7
 4081 0006 0346     		mov	r3, r0
 4082 0008 FB71     		strb	r3, [r7, #7]
1201:.\Generated_Source\PSoC5/ETH0.c **** 	return (ETH0_GetSocketStatus( socket ) == 0x17);
 4083              		.loc 1 1201 0
 4084 000a FB79     		ldrb	r3, [r7, #7]	@ zero_extendqisi2
 4085 000c 1846     		mov	r0, r3
 4086 000e FFF7FEFF 		bl	ETH0_GetSocketStatus
 4087 0012 0346     		mov	r3, r0
 4088 0014 172B     		cmp	r3, #23
 4089 0016 14BF     		ite	ne
 4090 0018 0023     		movne	r3, #0
 4091 001a 0123     		moveq	r3, #1
 4092 001c DBB2     		uxtb	r3, r3
1202:.\Generated_Source\PSoC5/ETH0.c **** }
 4093              		.loc 1 1202 0
 4094 001e 1846     		mov	r0, r3
 4095 0020 07F10807 		add	r7, r7, #8
 4096 0024 BD46     		mov	sp, r7
 4097 0026 80BD     		pop	{r7, pc}
 4098              		.cfi_endproc
 4099              	.LFE84:
 4100              		.size	ETH0_SocketEstablished, .-ETH0_SocketEstablished
 4101              		.section	.text.ETH0_SocketSend,"ax",%progbits
 4102              		.align	2
 4103              		.thumb
 4104              		.thumb_func
 4105              		.type	ETH0_SocketSend, %function
 4106              	ETH0_SocketSend:
 4107              	.LFB85:
1203:.\Generated_Source\PSoC5/ETH0.c **** /* ------------------------------------------------------------------------ */
1204:.\Generated_Source\PSoC5/ETH0.c **** /**
1205:.\Generated_Source\PSoC5/ETH0.c ****  * \brief Transmit a SEND operation over a socket
1206:.\Generated_Source\PSoC5/ETH0.c ****  * \param socket the socket to which the send command will be sent
1207:.\Generated_Source\PSoC5/ETH0.c ****  */
1208:.\Generated_Source\PSoC5/ETH0.c **** static void
1209:.\Generated_Source\PSoC5/ETH0.c **** ETH0_SocketSend(uint8 socket )
1210:.\Generated_Source\PSoC5/ETH0.c **** {
 4108              		.loc 1 1210 0
 4109              		.cfi_startproc
 4110              		@ args = 0, pretend = 0, frame = 16
 4111              		@ frame_needed = 1, uses_anonymous_args = 0
 4112 0000 80B5     		push	{r7, lr}
 4113              	.LCFI241:
 4114              		.cfi_def_cfa_offset 8
ARM GAS  C:\Users\CHUCK~1.ERH\AppData\Local\Temp\ccSfgJB7.s 			page 95


 4115              		.cfi_offset 7, -8
 4116              		.cfi_offset 14, -4
 4117 0002 84B0     		sub	sp, sp, #16
 4118              	.LCFI242:
 4119              		.cfi_def_cfa_offset 24
 4120 0004 00AF     		add	r7, sp, #0
 4121              	.LCFI243:
 4122              		.cfi_def_cfa_register 7
 4123 0006 0346     		mov	r3, r0
 4124 0008 FB71     		strb	r3, [r7, #7]
1211:.\Generated_Source\PSoC5/ETH0.c **** 	uint8 ir;
1212:.\Generated_Source\PSoC5/ETH0.c **** 	
1213:.\Generated_Source\PSoC5/ETH0.c **** 	/* initialize the subnet mask register : ERRATA FIX */
1214:.\Generated_Source\PSoC5/ETH0.c **** 	ETH0_SetSubnetMask( ETH0_SubnetMask );
 4125              		.loc 1 1214 0
 4126 000a 40F20003 		movw	r3, #:lower16:ETH0_SubnetMask
 4127 000e C0F20003 		movt	r3, #:upper16:ETH0_SubnetMask
 4128 0012 1B68     		ldr	r3, [r3, #0]
 4129 0014 1846     		mov	r0, r3
 4130 0016 FFF7FEFF 		bl	ETH0_SetSubnetMask
1215:.\Generated_Source\PSoC5/ETH0.c **** 	/* Issue the SEND command */
1216:.\Generated_Source\PSoC5/ETH0.c **** 	ETH0_ExecuteSocketCommand( socket, 0x20 );
 4131              		.loc 1 1216 0
 4132 001a FB79     		ldrb	r3, [r7, #7]	@ zero_extendqisi2
 4133 001c 1846     		mov	r0, r3
 4134 001e 4FF02001 		mov	r1, #32
 4135 0022 FFF7FEFF 		bl	ETH0_ExecuteSocketCommand
1217:.\Generated_Source\PSoC5/ETH0.c **** 	/* wait for the SEND to complete, or for a timeout */
1218:.\Generated_Source\PSoC5/ETH0.c **** 	ir = ETH0_GetSocketIR( socket );
 4136              		.loc 1 1218 0
 4137 0026 FB79     		ldrb	r3, [r7, #7]	@ zero_extendqisi2
 4138 0028 1846     		mov	r0, r3
 4139 002a FFF7FEFF 		bl	ETH0_GetSocketIR
 4140 002e 0346     		mov	r3, r0
 4141 0030 FB73     		strb	r3, [r7, #15]
1219:.\Generated_Source\PSoC5/ETH0.c **** 	/* while SEND is not done, and the socket hasnot timed out or been dsconnected */
1220:.\Generated_Source\PSoC5/ETH0.c **** 	while ( ((ir & 0x10) == 0) && (!(ir&0x0A)) ) {
 4142              		.loc 1 1220 0
 4143 0032 09E0     		b	.L175
 4144              	.L177:
1221:.\Generated_Source\PSoC5/ETH0.c **** 		CyDelay(1);
 4145              		.loc 1 1221 0
 4146 0034 4FF00100 		mov	r0, #1
 4147 0038 FFF7FEFF 		bl	CyDelay
1222:.\Generated_Source\PSoC5/ETH0.c **** 		ir = ETH0_GetSocketIR( socket );
 4148              		.loc 1 1222 0
 4149 003c FB79     		ldrb	r3, [r7, #7]	@ zero_extendqisi2
 4150 003e 1846     		mov	r0, r3
 4151 0040 FFF7FEFF 		bl	ETH0_GetSocketIR
 4152 0044 0346     		mov	r3, r0
 4153 0046 FB73     		strb	r3, [r7, #15]
 4154              	.L175:
1220:.\Generated_Source\PSoC5/ETH0.c **** 	while ( ((ir & 0x10) == 0) && (!(ir&0x0A)) ) {
 4155              		.loc 1 1220 0 discriminator 1
 4156 0048 FB7B     		ldrb	r3, [r7, #15]	@ zero_extendqisi2
 4157 004a 03F01003 		and	r3, r3, #16
 4158 004e 002B     		cmp	r3, #0
ARM GAS  C:\Users\CHUCK~1.ERH\AppData\Local\Temp\ccSfgJB7.s 			page 96


 4159 0050 04D1     		bne	.L176
1220:.\Generated_Source\PSoC5/ETH0.c **** 	while ( ((ir & 0x10) == 0) && (!(ir&0x0A)) ) {
 4160              		.loc 1 1220 0 is_stmt 0 discriminator 2
 4161 0052 FB7B     		ldrb	r3, [r7, #15]	@ zero_extendqisi2
 4162 0054 03F00A03 		and	r3, r3, #10
 4163 0058 002B     		cmp	r3, #0
 4164 005a EBD0     		beq	.L177
 4165              	.L176:
1223:.\Generated_Source\PSoC5/ETH0.c **** 		
1224:.\Generated_Source\PSoC5/ETH0.c **** 	}
1225:.\Generated_Source\PSoC5/ETH0.c **** 	/* clear the SEND_OK flag from the register */
1226:.\Generated_Source\PSoC5/ETH0.c **** 	ETH0_SetSocketIR( socket, 0x10 );
 4166              		.loc 1 1226 0 is_stmt 1
 4167 005c FB79     		ldrb	r3, [r7, #7]	@ zero_extendqisi2
 4168 005e 1846     		mov	r0, r3
 4169 0060 4FF01001 		mov	r1, #16
 4170 0064 FFF7FEFF 		bl	ETH0_SetSocketIR
1227:.\Generated_Source\PSoC5/ETH0.c **** 	/* reset the subnet mask : ERRATA FIX */
1228:.\Generated_Source\PSoC5/ETH0.c **** 	ETH0_SetSubnetMask( 0 );
 4171              		.loc 1 1228 0
 4172 0068 4FF00000 		mov	r0, #0
 4173 006c FFF7FEFF 		bl	ETH0_SetSubnetMask
1229:.\Generated_Source\PSoC5/ETH0.c **** }
 4174              		.loc 1 1229 0
 4175 0070 07F11007 		add	r7, r7, #16
 4176 0074 BD46     		mov	sp, r7
 4177 0076 80BD     		pop	{r7, pc}
 4178              		.cfi_endproc
 4179              	.LFE85:
 4180              		.size	ETH0_SocketSend, .-ETH0_SocketSend
 4181              		.section	.text.ETH0_SocketSendMac,"ax",%progbits
 4182              		.align	2
 4183              		.thumb
 4184              		.thumb_func
 4185              		.type	ETH0_SocketSendMac, %function
 4186              	ETH0_SocketSendMac:
 4187              	.LFB86:
1230:.\Generated_Source\PSoC5/ETH0.c **** /* ------------------------------------------------------------------------ */
1231:.\Generated_Source\PSoC5/ETH0.c **** /**
1232:.\Generated_Source\PSoC5/ETH0.c ****  * \brief Execute a SEND without an ARP.
1233:.\Generated_Source\PSoC5/ETH0.c ****  * \param socket the socket to which the SEND will be executed.
1234:.\Generated_Source\PSoC5/ETH0.c ****  */
1235:.\Generated_Source\PSoC5/ETH0.c **** static void
1236:.\Generated_Source\PSoC5/ETH0.c **** ETH0_SocketSendMac(uint8 socket )
1237:.\Generated_Source\PSoC5/ETH0.c **** {
 4188              		.loc 1 1237 0
 4189              		.cfi_startproc
 4190              		@ args = 0, pretend = 0, frame = 16
 4191              		@ frame_needed = 1, uses_anonymous_args = 0
 4192 0000 80B5     		push	{r7, lr}
 4193              	.LCFI244:
 4194              		.cfi_def_cfa_offset 8
 4195              		.cfi_offset 7, -8
 4196              		.cfi_offset 14, -4
 4197 0002 84B0     		sub	sp, sp, #16
 4198              	.LCFI245:
 4199              		.cfi_def_cfa_offset 24
ARM GAS  C:\Users\CHUCK~1.ERH\AppData\Local\Temp\ccSfgJB7.s 			page 97


 4200 0004 00AF     		add	r7, sp, #0
 4201              	.LCFI246:
 4202              		.cfi_def_cfa_register 7
 4203 0006 0346     		mov	r3, r0
 4204 0008 FB71     		strb	r3, [r7, #7]
1238:.\Generated_Source\PSoC5/ETH0.c **** 	uint8 ir;
1239:.\Generated_Source\PSoC5/ETH0.c **** 	
1240:.\Generated_Source\PSoC5/ETH0.c **** 	/* initialize the subnet mask register : ERRATA FIX */
1241:.\Generated_Source\PSoC5/ETH0.c **** 	ETH0_SetSubnetMask( ETH0_SubnetMask );
 4205              		.loc 1 1241 0
 4206 000a 40F20003 		movw	r3, #:lower16:ETH0_SubnetMask
 4207 000e C0F20003 		movt	r3, #:upper16:ETH0_SubnetMask
 4208 0012 1B68     		ldr	r3, [r3, #0]
 4209 0014 1846     		mov	r0, r3
 4210 0016 FFF7FEFF 		bl	ETH0_SetSubnetMask
1242:.\Generated_Source\PSoC5/ETH0.c **** 	/* Issue the SEND command */
1243:.\Generated_Source\PSoC5/ETH0.c **** 	ETH0_ExecuteSocketCommand( socket, 0x21 );
 4211              		.loc 1 1243 0
 4212 001a FB79     		ldrb	r3, [r7, #7]	@ zero_extendqisi2
 4213 001c 1846     		mov	r0, r3
 4214 001e 4FF02101 		mov	r1, #33
 4215 0022 FFF7FEFF 		bl	ETH0_ExecuteSocketCommand
1244:.\Generated_Source\PSoC5/ETH0.c **** 	/* wait for the SEND to complete, or for a timeout */
1245:.\Generated_Source\PSoC5/ETH0.c **** 	ir = ETH0_GetSocketIR( socket );
 4216              		.loc 1 1245 0
 4217 0026 FB79     		ldrb	r3, [r7, #7]	@ zero_extendqisi2
 4218 0028 1846     		mov	r0, r3
 4219 002a FFF7FEFF 		bl	ETH0_GetSocketIR
 4220 002e 0346     		mov	r3, r0
 4221 0030 FB73     		strb	r3, [r7, #15]
1246:.\Generated_Source\PSoC5/ETH0.c **** 	/* while SEND is not done, and the socket hasnot timed out or been dsconnected */
1247:.\Generated_Source\PSoC5/ETH0.c **** 	while ( ((ir & 0x10) == 0) && (!(ir&0x0A)) ) {
 4222              		.loc 1 1247 0
 4223 0032 09E0     		b	.L179
 4224              	.L181:
1248:.\Generated_Source\PSoC5/ETH0.c **** 		CyDelay(1);
 4225              		.loc 1 1248 0
 4226 0034 4FF00100 		mov	r0, #1
 4227 0038 FFF7FEFF 		bl	CyDelay
1249:.\Generated_Source\PSoC5/ETH0.c **** 		ir = ETH0_GetSocketIR( socket );
 4228              		.loc 1 1249 0
 4229 003c FB79     		ldrb	r3, [r7, #7]	@ zero_extendqisi2
 4230 003e 1846     		mov	r0, r3
 4231 0040 FFF7FEFF 		bl	ETH0_GetSocketIR
 4232 0044 0346     		mov	r3, r0
 4233 0046 FB73     		strb	r3, [r7, #15]
 4234              	.L179:
1247:.\Generated_Source\PSoC5/ETH0.c **** 	while ( ((ir & 0x10) == 0) && (!(ir&0x0A)) ) {
 4235              		.loc 1 1247 0 discriminator 1
 4236 0048 FB7B     		ldrb	r3, [r7, #15]	@ zero_extendqisi2
 4237 004a 03F01003 		and	r3, r3, #16
 4238 004e 002B     		cmp	r3, #0
 4239 0050 04D1     		bne	.L180
1247:.\Generated_Source\PSoC5/ETH0.c **** 	while ( ((ir & 0x10) == 0) && (!(ir&0x0A)) ) {
 4240              		.loc 1 1247 0 is_stmt 0 discriminator 2
 4241 0052 FB7B     		ldrb	r3, [r7, #15]	@ zero_extendqisi2
 4242 0054 03F00A03 		and	r3, r3, #10
ARM GAS  C:\Users\CHUCK~1.ERH\AppData\Local\Temp\ccSfgJB7.s 			page 98


 4243 0058 002B     		cmp	r3, #0
 4244 005a EBD0     		beq	.L181
 4245              	.L180:
1250:.\Generated_Source\PSoC5/ETH0.c **** 		
1251:.\Generated_Source\PSoC5/ETH0.c **** 	}
1252:.\Generated_Source\PSoC5/ETH0.c **** 	/* clear the SEND_OK flag from the register */
1253:.\Generated_Source\PSoC5/ETH0.c **** 	ETH0_SetSocketIR( socket, 0x10 );
 4246              		.loc 1 1253 0 is_stmt 1
 4247 005c FB79     		ldrb	r3, [r7, #7]	@ zero_extendqisi2
 4248 005e 1846     		mov	r0, r3
 4249 0060 4FF01001 		mov	r1, #16
 4250 0064 FFF7FEFF 		bl	ETH0_SetSocketIR
1254:.\Generated_Source\PSoC5/ETH0.c **** 	/* reset the subnet mask : ERRATA FIX */
1255:.\Generated_Source\PSoC5/ETH0.c **** 	ETH0_SetSubnetMask( 0 );
 4251              		.loc 1 1255 0
 4252 0068 4FF00000 		mov	r0, #0
 4253 006c FFF7FEFF 		bl	ETH0_SetSubnetMask
1256:.\Generated_Source\PSoC5/ETH0.c **** }
 4254              		.loc 1 1256 0
 4255 0070 07F11007 		add	r7, r7, #16
 4256 0074 BD46     		mov	sp, r7
 4257 0076 80BD     		pop	{r7, pc}
 4258              		.cfi_endproc
 4259              	.LFE86:
 4260              		.size	ETH0_SocketSendMac, .-ETH0_SocketSendMac
 4261              		.section	.text.ETH0_SocketRxDataWaiting,"ax",%progbits
 4262              		.align	2
 4263              		.global	ETH0_SocketRxDataWaiting
 4264              		.thumb
 4265              		.thumb_func
 4266              		.type	ETH0_SocketRxDataWaiting, %function
 4267              	ETH0_SocketRxDataWaiting:
 4268              	.LFB87:
1257:.\Generated_Source\PSoC5/ETH0.c **** /* ------------------------------------------------------------------------ */
1258:.\Generated_Source\PSoC5/ETH0.c **** uint16
1259:.\Generated_Source\PSoC5/ETH0.c **** ETH0_SocketRxDataWaiting( uint8 socket )
1260:.\Generated_Source\PSoC5/ETH0.c **** {
 4269              		.loc 1 1260 0
 4270              		.cfi_startproc
 4271              		@ args = 0, pretend = 0, frame = 8
 4272              		@ frame_needed = 1, uses_anonymous_args = 0
 4273 0000 80B5     		push	{r7, lr}
 4274              	.LCFI247:
 4275              		.cfi_def_cfa_offset 8
 4276              		.cfi_offset 7, -8
 4277              		.cfi_offset 14, -4
 4278 0002 82B0     		sub	sp, sp, #8
 4279              	.LCFI248:
 4280              		.cfi_def_cfa_offset 16
 4281 0004 00AF     		add	r7, sp, #0
 4282              	.LCFI249:
 4283              		.cfi_def_cfa_register 7
 4284 0006 0346     		mov	r3, r0
 4285 0008 FB71     		strb	r3, [r7, #7]
1261:.\Generated_Source\PSoC5/ETH0.c **** 	return ETH0_GetRxSize( socket );
 4286              		.loc 1 1261 0
 4287 000a FB79     		ldrb	r3, [r7, #7]	@ zero_extendqisi2
ARM GAS  C:\Users\CHUCK~1.ERH\AppData\Local\Temp\ccSfgJB7.s 			page 99


 4288 000c 1846     		mov	r0, r3
 4289 000e FFF7FEFF 		bl	ETH0_GetRxSize
 4290 0012 0346     		mov	r3, r0
1262:.\Generated_Source\PSoC5/ETH0.c **** }
 4291              		.loc 1 1262 0
 4292 0014 1846     		mov	r0, r3
 4293 0016 07F10807 		add	r7, r7, #8
 4294 001a BD46     		mov	sp, r7
 4295 001c 80BD     		pop	{r7, pc}
 4296              		.cfi_endproc
 4297              	.LFE87:
 4298              		.size	ETH0_SocketRxDataWaiting, .-ETH0_SocketRxDataWaiting
 4299 001e 00BF     		.section	.text.ETH0_TcpOpen,"ax",%progbits
 4300              		.align	2
 4301              		.global	ETH0_TcpOpen
 4302              		.thumb
 4303              		.thumb_func
 4304              		.type	ETH0_TcpOpen, %function
 4305              	ETH0_TcpOpen:
 4306              	.LFB88:
1263:.\Generated_Source\PSoC5/ETH0.c **** #endif
1264:.\Generated_Source\PSoC5/ETH0.c **** /* ======================================================================== */
1265:.\Generated_Source\PSoC5/ETH0.c **** /* TCP/IP */
1266:.\Generated_Source\PSoC5/ETH0.c **** #if (1)
1267:.\Generated_Source\PSoC5/ETH0.c **** /* ------------------------------------------------------------------------ */
1268:.\Generated_Source\PSoC5/ETH0.c **** uint8
1269:.\Generated_Source\PSoC5/ETH0.c **** ETH0_TcpOpen(uint16 port)
1270:.\Generated_Source\PSoC5/ETH0.c **** {
 4307              		.loc 1 1270 0
 4308              		.cfi_startproc
 4309              		@ args = 0, pretend = 0, frame = 8
 4310              		@ frame_needed = 1, uses_anonymous_args = 0
 4311 0000 80B5     		push	{r7, lr}
 4312              	.LCFI250:
 4313              		.cfi_def_cfa_offset 8
 4314              		.cfi_offset 7, -8
 4315              		.cfi_offset 14, -4
 4316 0002 82B0     		sub	sp, sp, #8
 4317              	.LCFI251:
 4318              		.cfi_def_cfa_offset 16
 4319 0004 00AF     		add	r7, sp, #0
 4320              	.LCFI252:
 4321              		.cfi_def_cfa_register 7
 4322 0006 0346     		mov	r3, r0
 4323 0008 FB80     		strh	r3, [r7, #6]	@ movhi
1271:.\Generated_Source\PSoC5/ETH0.c **** 	return ETH0_SocketOpen(ETH0_PROTO_TCP, port, 0);
 4324              		.loc 1 1271 0
 4325 000a FB88     		ldrh	r3, [r7, #6]
 4326 000c 4FF00100 		mov	r0, #1
 4327 0010 1946     		mov	r1, r3
 4328 0012 4FF00002 		mov	r2, #0
 4329 0016 FFF7FEFF 		bl	ETH0_SocketOpen
 4330 001a 0346     		mov	r3, r0
1272:.\Generated_Source\PSoC5/ETH0.c **** }
 4331              		.loc 1 1272 0
 4332 001c 1846     		mov	r0, r3
 4333 001e 07F10807 		add	r7, r7, #8
ARM GAS  C:\Users\CHUCK~1.ERH\AppData\Local\Temp\ccSfgJB7.s 			page 100


 4334 0022 BD46     		mov	sp, r7
 4335 0024 80BD     		pop	{r7, pc}
 4336              		.cfi_endproc
 4337              	.LFE88:
 4338              		.size	ETH0_TcpOpen, .-ETH0_TcpOpen
 4339 0026 00BF     		.section	.text.ETH0_TcpStartServer,"ax",%progbits
 4340              		.align	2
 4341              		.global	ETH0_TcpStartServer
 4342              		.thumb
 4343              		.thumb_func
 4344              		.type	ETH0_TcpStartServer, %function
 4345              	ETH0_TcpStartServer:
 4346              	.LFB89:
1273:.\Generated_Source\PSoC5/ETH0.c **** /* ------------------------------------------------------------------------ */
1274:.\Generated_Source\PSoC5/ETH0.c **** void
1275:.\Generated_Source\PSoC5/ETH0.c **** ETH0_TcpStartServer( uint8 socket )
1276:.\Generated_Source\PSoC5/ETH0.c **** {
 4347              		.loc 1 1276 0
 4348              		.cfi_startproc
 4349              		@ args = 0, pretend = 0, frame = 8
 4350              		@ frame_needed = 1, uses_anonymous_args = 0
 4351 0000 80B5     		push	{r7, lr}
 4352              	.LCFI253:
 4353              		.cfi_def_cfa_offset 8
 4354              		.cfi_offset 7, -8
 4355              		.cfi_offset 14, -4
 4356 0002 82B0     		sub	sp, sp, #8
 4357              	.LCFI254:
 4358              		.cfi_def_cfa_offset 16
 4359 0004 00AF     		add	r7, sp, #0
 4360              	.LCFI255:
 4361              		.cfi_def_cfa_register 7
 4362 0006 0346     		mov	r3, r0
 4363 0008 FB71     		strb	r3, [r7, #7]
1277:.\Generated_Source\PSoC5/ETH0.c **** 	/*
1278:.\Generated_Source\PSoC5/ETH0.c **** 	 * Start a open socket listening for a connection
1279:.\Generated_Source\PSoC5/ETH0.c **** 	 */
1280:.\Generated_Source\PSoC5/ETH0.c **** 	/* was this a valid socket? */
1281:.\Generated_Source\PSoC5/ETH0.c **** 	if (socket < 4) {
 4364              		.loc 1 1281 0
 4365 000a FB79     		ldrb	r3, [r7, #7]	@ zero_extendqisi2
 4366 000c 032B     		cmp	r3, #3
 4367 000e 05D8     		bhi	.L186
1282:.\Generated_Source\PSoC5/ETH0.c **** 		/* Execute the listen command */
1283:.\Generated_Source\PSoC5/ETH0.c **** 		ETH0_ExecuteSocketCommand( socket, 0x02 );
 4368              		.loc 1 1283 0
 4369 0010 FB79     		ldrb	r3, [r7, #7]	@ zero_extendqisi2
 4370 0012 1846     		mov	r0, r3
 4371 0014 4FF00201 		mov	r1, #2
 4372 0018 FFF7FEFF 		bl	ETH0_ExecuteSocketCommand
 4373              	.L186:
1284:.\Generated_Source\PSoC5/ETH0.c **** 	}
1285:.\Generated_Source\PSoC5/ETH0.c **** }
 4374              		.loc 1 1285 0
 4375 001c 07F10807 		add	r7, r7, #8
 4376 0020 BD46     		mov	sp, r7
 4377 0022 80BD     		pop	{r7, pc}
ARM GAS  C:\Users\CHUCK~1.ERH\AppData\Local\Temp\ccSfgJB7.s 			page 101


 4378              		.cfi_endproc
 4379              	.LFE89:
 4380              		.size	ETH0_TcpStartServer, .-ETH0_TcpStartServer
 4381              		.section	.text.ETH0_TcpStartServerWait,"ax",%progbits
 4382              		.align	2
 4383              		.global	ETH0_TcpStartServerWait
 4384              		.thumb
 4385              		.thumb_func
 4386              		.type	ETH0_TcpStartServerWait, %function
 4387              	ETH0_TcpStartServerWait:
 4388              	.LFB90:
1286:.\Generated_Source\PSoC5/ETH0.c **** /* ------------------------------------------------------------------------ */
1287:.\Generated_Source\PSoC5/ETH0.c **** void
1288:.\Generated_Source\PSoC5/ETH0.c **** ETH0_TcpStartServerWait( uint8 socket )
1289:.\Generated_Source\PSoC5/ETH0.c **** {
 4389              		.loc 1 1289 0
 4390              		.cfi_startproc
 4391              		@ args = 0, pretend = 0, frame = 8
 4392              		@ frame_needed = 1, uses_anonymous_args = 0
 4393 0000 80B5     		push	{r7, lr}
 4394              	.LCFI256:
 4395              		.cfi_def_cfa_offset 8
 4396              		.cfi_offset 7, -8
 4397              		.cfi_offset 14, -4
 4398 0002 82B0     		sub	sp, sp, #8
 4399              	.LCFI257:
 4400              		.cfi_def_cfa_offset 16
 4401 0004 00AF     		add	r7, sp, #0
 4402              	.LCFI258:
 4403              		.cfi_def_cfa_register 7
 4404 0006 0346     		mov	r3, r0
 4405 0008 FB71     		strb	r3, [r7, #7]
1290:.\Generated_Source\PSoC5/ETH0.c **** 	ETH0_TcpStartServer(socket);
 4406              		.loc 1 1290 0
 4407 000a FB79     		ldrb	r3, [r7, #7]	@ zero_extendqisi2
 4408 000c 1846     		mov	r0, r3
 4409 000e FFF7FEFF 		bl	ETH0_TcpStartServer
1291:.\Generated_Source\PSoC5/ETH0.c **** 	/* wait for socket establishment */
1292:.\Generated_Source\PSoC5/ETH0.c **** 	while ( !ETH0_SocketEstablished(socket) ) {
 4410              		.loc 1 1292 0
 4411 0012 03E0     		b	.L189
 4412              	.L190:
1293:.\Generated_Source\PSoC5/ETH0.c **** 		CyDelay(1);
 4413              		.loc 1 1293 0
 4414 0014 4FF00100 		mov	r0, #1
 4415 0018 FFF7FEFF 		bl	CyDelay
 4416              	.L189:
1292:.\Generated_Source\PSoC5/ETH0.c **** 	while ( !ETH0_SocketEstablished(socket) ) {
 4417              		.loc 1 1292 0 discriminator 1
 4418 001c FB79     		ldrb	r3, [r7, #7]	@ zero_extendqisi2
 4419 001e 1846     		mov	r0, r3
 4420 0020 FFF7FEFF 		bl	ETH0_SocketEstablished
 4421 0024 0346     		mov	r3, r0
 4422 0026 002B     		cmp	r3, #0
 4423 0028 F4D0     		beq	.L190
1294:.\Generated_Source\PSoC5/ETH0.c **** 	}
1295:.\Generated_Source\PSoC5/ETH0.c **** }
ARM GAS  C:\Users\CHUCK~1.ERH\AppData\Local\Temp\ccSfgJB7.s 			page 102


 4424              		.loc 1 1295 0
 4425 002a 07F10807 		add	r7, r7, #8
 4426 002e BD46     		mov	sp, r7
 4427 0030 80BD     		pop	{r7, pc}
 4428              		.cfi_endproc
 4429              	.LFE90:
 4430              		.size	ETH0_TcpStartServerWait, .-ETH0_TcpStartServerWait
 4431 0032 00BF     		.section	.text.ETH0_TcpConnect,"ax",%progbits
 4432              		.align	2
 4433              		.global	ETH0_TcpConnect
 4434              		.thumb
 4435              		.thumb_func
 4436              		.type	ETH0_TcpConnect, %function
 4437              	ETH0_TcpConnect:
 4438              	.LFB91:
1296:.\Generated_Source\PSoC5/ETH0.c **** /* ------------------------------------------------------------------------ */
1297:.\Generated_Source\PSoC5/ETH0.c **** void
1298:.\Generated_Source\PSoC5/ETH0.c **** ETH0_TcpConnect( uint8 socket, uint32 ip, uint16 port )
1299:.\Generated_Source\PSoC5/ETH0.c **** {
 4439              		.loc 1 1299 0
 4440              		.cfi_startproc
 4441              		@ args = 0, pretend = 0, frame = 16
 4442              		@ frame_needed = 1, uses_anonymous_args = 0
 4443 0000 80B5     		push	{r7, lr}
 4444              	.LCFI259:
 4445              		.cfi_def_cfa_offset 8
 4446              		.cfi_offset 7, -8
 4447              		.cfi_offset 14, -4
 4448 0002 84B0     		sub	sp, sp, #16
 4449              	.LCFI260:
 4450              		.cfi_def_cfa_offset 24
 4451 0004 00AF     		add	r7, sp, #0
 4452              	.LCFI261:
 4453              		.cfi_def_cfa_register 7
 4454 0006 3960     		str	r1, [r7, #0]
 4455 0008 1346     		mov	r3, r2
 4456 000a 0246     		mov	r2, r0
 4457 000c FA71     		strb	r2, [r7, #7]
 4458 000e BB80     		strh	r3, [r7, #4]	@ movhi
1300:.\Generated_Source\PSoC5/ETH0.c **** 	uint32 timeout;
1301:.\Generated_Source\PSoC5/ETH0.c **** 	uint8 ir;
1302:.\Generated_Source\PSoC5/ETH0.c **** 	
1303:.\Generated_Source\PSoC5/ETH0.c **** 	if ( (ip != 0xFFFFFFFF) && (ip != 0) ) {
 4459              		.loc 1 1303 0
 4460 0010 3B68     		ldr	r3, [r7, #0]
 4461 0012 B3F1FF3F 		cmp	r3, #-1
 4462 0016 42D0     		beq	.L191
 4463              		.loc 1 1303 0 is_stmt 0 discriminator 1
 4464 0018 3B68     		ldr	r3, [r7, #0]
 4465 001a 002B     		cmp	r3, #0
 4466 001c 3FD0     		beq	.L191
1304:.\Generated_Source\PSoC5/ETH0.c **** 		ETH0_SetSocketDestIP( socket, ip );
 4467              		.loc 1 1304 0 is_stmt 1
 4468 001e FB79     		ldrb	r3, [r7, #7]	@ zero_extendqisi2
 4469 0020 1846     		mov	r0, r3
 4470 0022 3968     		ldr	r1, [r7, #0]
 4471 0024 FFF7FEFF 		bl	ETH0_SetSocketDestIP
ARM GAS  C:\Users\CHUCK~1.ERH\AppData\Local\Temp\ccSfgJB7.s 			page 103


1305:.\Generated_Source\PSoC5/ETH0.c **** 		ETH0_SetSocketDestPort( socket, port );
 4472              		.loc 1 1305 0
 4473 0028 FA79     		ldrb	r2, [r7, #7]	@ zero_extendqisi2
 4474 002a BB88     		ldrh	r3, [r7, #4]
 4475 002c 1046     		mov	r0, r2
 4476 002e 1946     		mov	r1, r3
 4477 0030 FFF7FEFF 		bl	ETH0_SetSocketDestPort
1306:.\Generated_Source\PSoC5/ETH0.c **** 		/* set socket subnet mask */
1307:.\Generated_Source\PSoC5/ETH0.c **** 		ETH0_SetSubnetMask( ETH0_SubnetMask );
 4478              		.loc 1 1307 0
 4479 0034 40F20003 		movw	r3, #:lower16:ETH0_SubnetMask
 4480 0038 C0F20003 		movt	r3, #:upper16:ETH0_SubnetMask
 4481 003c 1B68     		ldr	r3, [r3, #0]
 4482 003e 1846     		mov	r0, r3
 4483 0040 FFF7FEFF 		bl	ETH0_SetSubnetMask
1308:.\Generated_Source\PSoC5/ETH0.c **** 		ETH0_ExecuteSocketCommand( socket, 0x04);
 4484              		.loc 1 1308 0
 4485 0044 FB79     		ldrb	r3, [r7, #7]	@ zero_extendqisi2
 4486 0046 1846     		mov	r0, r3
 4487 0048 4FF00401 		mov	r1, #4
 4488 004c FFF7FEFF 		bl	ETH0_ExecuteSocketCommand
1309:.\Generated_Source\PSoC5/ETH0.c **** 		/* wait for the socket connection to the remote host is established */
1310:.\Generated_Source\PSoC5/ETH0.c **** 		while ( (!ETH0_SocketEstablished(socket))  && (timeout < 3000) ) {
 4489              		.loc 1 1310 0
 4490 0050 15E0     		b	.L193
 4491              	.L195:
1311:.\Generated_Source\PSoC5/ETH0.c **** 			CyDelay(1);
 4492              		.loc 1 1311 0
 4493 0052 4FF00100 		mov	r0, #1
 4494 0056 FFF7FEFF 		bl	CyDelay
1312:.\Generated_Source\PSoC5/ETH0.c **** 			++timeout;
 4495              		.loc 1 1312 0
 4496 005a FB68     		ldr	r3, [r7, #12]
 4497 005c 03F10103 		add	r3, r3, #1
 4498 0060 FB60     		str	r3, [r7, #12]
1313:.\Generated_Source\PSoC5/ETH0.c **** 			ir = ETH0_GetSocketIR( socket );
 4499              		.loc 1 1313 0
 4500 0062 FB79     		ldrb	r3, [r7, #7]	@ zero_extendqisi2
 4501 0064 1846     		mov	r0, r3
 4502 0066 FFF7FEFF 		bl	ETH0_GetSocketIR
 4503 006a 0346     		mov	r3, r0
 4504 006c FB72     		strb	r3, [r7, #11]
1314:.\Generated_Source\PSoC5/ETH0.c **** 			if ( (ir & 0x08) != 0 ) {
 4505              		.loc 1 1314 0
 4506 006e FB7A     		ldrb	r3, [r7, #11]	@ zero_extendqisi2
 4507 0070 03F00803 		and	r3, r3, #8
 4508 0074 002B     		cmp	r3, #0
 4509 0076 02D0     		beq	.L193
1315:.\Generated_Source\PSoC5/ETH0.c **** 				/* internal chip timeout occured */
1316:.\Generated_Source\PSoC5/ETH0.c **** 				timeout = 3000;
 4510              		.loc 1 1316 0
 4511 0078 40F6B833 		movw	r3, #3000
 4512 007c FB60     		str	r3, [r7, #12]
 4513              	.L193:
1310:.\Generated_Source\PSoC5/ETH0.c **** 		while ( (!ETH0_SocketEstablished(socket))  && (timeout < 3000) ) {
 4514              		.loc 1 1310 0 discriminator 1
 4515 007e FB79     		ldrb	r3, [r7, #7]	@ zero_extendqisi2
ARM GAS  C:\Users\CHUCK~1.ERH\AppData\Local\Temp\ccSfgJB7.s 			page 104


 4516 0080 1846     		mov	r0, r3
 4517 0082 FFF7FEFF 		bl	ETH0_SocketEstablished
 4518 0086 0346     		mov	r3, r0
 4519 0088 002B     		cmp	r3, #0
 4520 008a 04D1     		bne	.L194
1310:.\Generated_Source\PSoC5/ETH0.c **** 		while ( (!ETH0_SocketEstablished(socket))  && (timeout < 3000) ) {
 4521              		.loc 1 1310 0 is_stmt 0 discriminator 2
 4522 008c FA68     		ldr	r2, [r7, #12]
 4523 008e 40F6B733 		movw	r3, #2999
 4524 0092 9A42     		cmp	r2, r3
 4525 0094 DDD9     		bls	.L195
 4526              	.L194:
1317:.\Generated_Source\PSoC5/ETH0.c **** 			}
1318:.\Generated_Source\PSoC5/ETH0.c **** 		}
1319:.\Generated_Source\PSoC5/ETH0.c **** 		/* clear the Subnet mask register */
1320:.\Generated_Source\PSoC5/ETH0.c **** 		ETH0_SetSubnetMask(0);
 4527              		.loc 1 1320 0 is_stmt 1
 4528 0096 4FF00000 		mov	r0, #0
 4529 009a FFF7FEFF 		bl	ETH0_SetSubnetMask
 4530              	.L191:
1321:.\Generated_Source\PSoC5/ETH0.c **** 	}
1322:.\Generated_Source\PSoC5/ETH0.c **** }
 4531              		.loc 1 1322 0
 4532 009e 07F11007 		add	r7, r7, #16
 4533 00a2 BD46     		mov	sp, r7
 4534 00a4 80BD     		pop	{r7, pc}
 4535              		.cfi_endproc
 4536              	.LFE91:
 4537              		.size	ETH0_TcpConnect, .-ETH0_TcpConnect
 4538 00a6 00BF     		.section	.text.ETH0_TcpConnected,"ax",%progbits
 4539              		.align	2
 4540              		.global	ETH0_TcpConnected
 4541              		.thumb
 4542              		.thumb_func
 4543              		.type	ETH0_TcpConnected, %function
 4544              	ETH0_TcpConnected:
 4545              	.LFB92:
1323:.\Generated_Source\PSoC5/ETH0.c **** /* ------------------------------------------------------------------------ */
1324:.\Generated_Source\PSoC5/ETH0.c **** uint8
1325:.\Generated_Source\PSoC5/ETH0.c **** ETH0_TcpConnected( uint8 socket )
1326:.\Generated_Source\PSoC5/ETH0.c **** { return ETH0_SocketEstablished(socket); }
 4546              		.loc 1 1326 0
 4547              		.cfi_startproc
 4548              		@ args = 0, pretend = 0, frame = 8
 4549              		@ frame_needed = 1, uses_anonymous_args = 0
 4550 0000 80B5     		push	{r7, lr}
 4551              	.LCFI262:
 4552              		.cfi_def_cfa_offset 8
 4553              		.cfi_offset 7, -8
 4554              		.cfi_offset 14, -4
 4555 0002 82B0     		sub	sp, sp, #8
 4556              	.LCFI263:
 4557              		.cfi_def_cfa_offset 16
 4558 0004 00AF     		add	r7, sp, #0
 4559              	.LCFI264:
 4560              		.cfi_def_cfa_register 7
 4561 0006 0346     		mov	r3, r0
ARM GAS  C:\Users\CHUCK~1.ERH\AppData\Local\Temp\ccSfgJB7.s 			page 105


 4562 0008 FB71     		strb	r3, [r7, #7]
 4563              		.loc 1 1326 0
 4564 000a FB79     		ldrb	r3, [r7, #7]	@ zero_extendqisi2
 4565 000c 1846     		mov	r0, r3
 4566 000e FFF7FEFF 		bl	ETH0_SocketEstablished
 4567 0012 0346     		mov	r3, r0
 4568 0014 1846     		mov	r0, r3
 4569 0016 07F10807 		add	r7, r7, #8
 4570 001a BD46     		mov	sp, r7
 4571 001c 80BD     		pop	{r7, pc}
 4572              		.cfi_endproc
 4573              	.LFE92:
 4574              		.size	ETH0_TcpConnected, .-ETH0_TcpConnected
 4575 001e 00BF     		.section	.text.ETH0_TcpDisconnect,"ax",%progbits
 4576              		.align	2
 4577              		.global	ETH0_TcpDisconnect
 4578              		.thumb
 4579              		.thumb_func
 4580              		.type	ETH0_TcpDisconnect, %function
 4581              	ETH0_TcpDisconnect:
 4582              	.LFB93:
1327:.\Generated_Source\PSoC5/ETH0.c **** /* ------------------------------------------------------------------------ */
1328:.\Generated_Source\PSoC5/ETH0.c **** void
1329:.\Generated_Source\PSoC5/ETH0.c **** ETH0_TcpDisconnect( uint8 socket )
1330:.\Generated_Source\PSoC5/ETH0.c **** {
 4583              		.loc 1 1330 0
 4584              		.cfi_startproc
 4585              		@ args = 0, pretend = 0, frame = 8
 4586              		@ frame_needed = 1, uses_anonymous_args = 0
 4587 0000 80B5     		push	{r7, lr}
 4588              	.LCFI265:
 4589              		.cfi_def_cfa_offset 8
 4590              		.cfi_offset 7, -8
 4591              		.cfi_offset 14, -4
 4592 0002 82B0     		sub	sp, sp, #8
 4593              	.LCFI266:
 4594              		.cfi_def_cfa_offset 16
 4595 0004 00AF     		add	r7, sp, #0
 4596              	.LCFI267:
 4597              		.cfi_def_cfa_register 7
 4598 0006 0346     		mov	r3, r0
 4599 0008 FB71     		strb	r3, [r7, #7]
1331:.\Generated_Source\PSoC5/ETH0.c **** 	ETH0_ExecuteSocketCommand(socket, 0x08);
 4600              		.loc 1 1331 0
 4601 000a FB79     		ldrb	r3, [r7, #7]	@ zero_extendqisi2
 4602 000c 1846     		mov	r0, r3
 4603 000e 4FF00801 		mov	r1, #8
 4604 0012 FFF7FEFF 		bl	ETH0_ExecuteSocketCommand
1332:.\Generated_Source\PSoC5/ETH0.c **** }
 4605              		.loc 1 1332 0
 4606 0016 07F10807 		add	r7, r7, #8
 4607 001a BD46     		mov	sp, r7
 4608 001c 80BD     		pop	{r7, pc}
 4609              		.cfi_endproc
 4610              	.LFE93:
 4611              		.size	ETH0_TcpDisconnect, .-ETH0_TcpDisconnect
 4612 001e 00BF     		.section	.text.ETH0_TcpSend,"ax",%progbits
ARM GAS  C:\Users\CHUCK~1.ERH\AppData\Local\Temp\ccSfgJB7.s 			page 106


 4613              		.align	2
 4614              		.global	ETH0_TcpSend
 4615              		.thumb
 4616              		.thumb_func
 4617              		.type	ETH0_TcpSend, %function
 4618              	ETH0_TcpSend:
 4619              	.LFB94:
1333:.\Generated_Source\PSoC5/ETH0.c **** /* ------------------------------------------------------------------------ */
1334:.\Generated_Source\PSoC5/ETH0.c **** uint16
1335:.\Generated_Source\PSoC5/ETH0.c **** ETH0_TcpSend(uint8 socket, uint8* buffer, uint16 len)
1336:.\Generated_Source\PSoC5/ETH0.c **** {
 4620              		.loc 1 1336 0
 4621              		.cfi_startproc
 4622              		@ args = 0, pretend = 0, frame = 16
 4623              		@ frame_needed = 1, uses_anonymous_args = 0
 4624 0000 80B5     		push	{r7, lr}
 4625              	.LCFI268:
 4626              		.cfi_def_cfa_offset 8
 4627              		.cfi_offset 7, -8
 4628              		.cfi_offset 14, -4
 4629 0002 84B0     		sub	sp, sp, #16
 4630              	.LCFI269:
 4631              		.cfi_def_cfa_offset 24
 4632 0004 00AF     		add	r7, sp, #0
 4633              	.LCFI270:
 4634              		.cfi_def_cfa_register 7
 4635 0006 3960     		str	r1, [r7, #0]
 4636 0008 1346     		mov	r3, r2
 4637 000a 0246     		mov	r2, r0
 4638 000c FA71     		strb	r2, [r7, #7]
 4639 000e BB80     		strh	r3, [r7, #4]	@ movhi
1337:.\Generated_Source\PSoC5/ETH0.c **** 	uint16 TxSize;
1338:.\Generated_Source\PSoC5/ETH0.c **** 	uint16 FreeSpace;
1339:.\Generated_Source\PSoC5/ETH0.c **** 	uint8 status;
1340:.\Generated_Source\PSoC5/ETH0.c **** 	
1341:.\Generated_Source\PSoC5/ETH0.c **** 	TxSize =  (len > 0x0800) ? 0x0800 : len;
 4640              		.loc 1 1341 0
 4641 0010 BB88     		ldrh	r3, [r7, #4]
 4642 0012 B3F5006F 		cmp	r3, #2048
 4643 0016 28BF     		it	cs
 4644 0018 4FF40063 		movcs	r3, #2048
 4645 001c FB81     		strh	r3, [r7, #14]	@ movhi
1342:.\Generated_Source\PSoC5/ETH0.c **** 	/* check the connection status, and protocol of the socket */
1343:.\Generated_Source\PSoC5/ETH0.c **** 	status = ETH0_GetSocketStatus(socket);
 4646              		.loc 1 1343 0
 4647 001e FB79     		ldrb	r3, [r7, #7]	@ zero_extendqisi2
 4648 0020 1846     		mov	r0, r3
 4649 0022 FFF7FEFF 		bl	ETH0_GetSocketStatus
 4650 0026 0346     		mov	r3, r0
 4651 0028 FB72     		strb	r3, [r7, #11]
1344:.\Generated_Source\PSoC5/ETH0.c **** 	if ( ( status == 0x17) && (ETH0_SocketConfig[socket].Protocol == ETH0_PROTO_TCP) ) {
 4652              		.loc 1 1344 0
 4653 002a FB7A     		ldrb	r3, [r7, #11]	@ zero_extendqisi2
 4654 002c 172B     		cmp	r3, #23
 4655 002e 38D1     		bne	.L200
 4656              		.loc 1 1344 0 is_stmt 0 discriminator 1
 4657 0030 F979     		ldrb	r1, [r7, #7]	@ zero_extendqisi2
ARM GAS  C:\Users\CHUCK~1.ERH\AppData\Local\Temp\ccSfgJB7.s 			page 107


 4658 0032 40F20002 		movw	r2, #:lower16:ETH0_SocketConfig
 4659 0036 C0F20002 		movt	r2, #:upper16:ETH0_SocketConfig
 4660 003a 0B46     		mov	r3, r1
 4661 003c 4FEA4303 		lsl	r3, r3, #1
 4662 0040 5B18     		adds	r3, r3, r1
 4663 0042 4FEA4303 		lsl	r3, r3, #1
 4664 0046 D318     		adds	r3, r2, r3
 4665 0048 1B78     		ldrb	r3, [r3, #0]	@ zero_extendqisi2
 4666 004a 012B     		cmp	r3, #1
 4667 004c 29D1     		bne	.L200
1345:.\Generated_Source\PSoC5/ETH0.c **** 		/* 
1346:.\Generated_Source\PSoC5/ETH0.c **** 		 * The socket was open with the correct protocol and is connected to
1347:.\Generated_Source\PSoC5/ETH0.c **** 		 * a valid remote system. In order to send the requested packet data,
1348:.\Generated_Source\PSoC5/ETH0.c **** 		 * first, we must wait for the available buffer memory to be free
1349:.\Generated_Source\PSoC5/ETH0.c **** 		 * in the transmit buffer fifo.
1350:.\Generated_Source\PSoC5/ETH0.c **** 		 */
1351:.\Generated_Source\PSoC5/ETH0.c **** 		FreeSpace = 0;
 4668              		.loc 1 1351 0 is_stmt 1
 4669 004e 4FF00003 		mov	r3, #0
 4670 0052 BB81     		strh	r3, [r7, #12]	@ movhi
1352:.\Generated_Source\PSoC5/ETH0.c **** 		status = 0x17;
 4671              		.loc 1 1352 0
 4672 0054 4FF01703 		mov	r3, #23
 4673 0058 FB72     		strb	r3, [r7, #11]
1353:.\Generated_Source\PSoC5/ETH0.c **** 		while ( (FreeSpace < TxSize) && ( (status == 0x17) && (status != 0x1C) ) ) {
 4674              		.loc 1 1353 0
 4675 005a 0BE0     		b	.L201
 4676              	.L203:
1354:.\Generated_Source\PSoC5/ETH0.c **** 			FreeSpace = ETH0_GetTxFreeSize( socket );
 4677              		.loc 1 1354 0
 4678 005c FB79     		ldrb	r3, [r7, #7]	@ zero_extendqisi2
 4679 005e 1846     		mov	r0, r3
 4680 0060 FFF7FEFF 		bl	ETH0_GetTxFreeSize
 4681 0064 0346     		mov	r3, r0
 4682 0066 BB81     		strh	r3, [r7, #12]	@ movhi
1355:.\Generated_Source\PSoC5/ETH0.c **** 			status = ETH0_GetSocketStatus( socket );
 4683              		.loc 1 1355 0
 4684 0068 FB79     		ldrb	r3, [r7, #7]	@ zero_extendqisi2
 4685 006a 1846     		mov	r0, r3
 4686 006c FFF7FEFF 		bl	ETH0_GetSocketStatus
 4687 0070 0346     		mov	r3, r0
 4688 0072 FB72     		strb	r3, [r7, #11]
 4689              	.L201:
1353:.\Generated_Source\PSoC5/ETH0.c **** 		while ( (FreeSpace < TxSize) && ( (status == 0x17) && (status != 0x1C) ) ) {
 4690              		.loc 1 1353 0 discriminator 1
 4691 0074 BA89     		ldrh	r2, [r7, #12]
 4692 0076 FB89     		ldrh	r3, [r7, #14]
 4693 0078 9A42     		cmp	r2, r3
 4694 007a 05D2     		bcs	.L202
1353:.\Generated_Source\PSoC5/ETH0.c **** 		while ( (FreeSpace < TxSize) && ( (status == 0x17) && (status != 0x1C) ) ) {
 4695              		.loc 1 1353 0 is_stmt 0 discriminator 2
 4696 007c FB7A     		ldrb	r3, [r7, #11]	@ zero_extendqisi2
 4697 007e 172B     		cmp	r3, #23
 4698 0080 02D1     		bne	.L202
1353:.\Generated_Source\PSoC5/ETH0.c **** 		while ( (FreeSpace < TxSize) && ( (status == 0x17) && (status != 0x1C) ) ) {
 4699              		.loc 1 1353 0 discriminator 1
 4700 0082 FB7A     		ldrb	r3, [r7, #11]	@ zero_extendqisi2
ARM GAS  C:\Users\CHUCK~1.ERH\AppData\Local\Temp\ccSfgJB7.s 			page 108


 4701 0084 1C2B     		cmp	r3, #28
 4702 0086 E9D1     		bne	.L203
 4703              	.L202:
1356:.\Generated_Source\PSoC5/ETH0.c **** 		}
1357:.\Generated_Source\PSoC5/ETH0.c **** 		/*
1358:.\Generated_Source\PSoC5/ETH0.c **** 		 * Write the data buffer to the chip Tx Buffer, then issue
1359:.\Generated_Source\PSoC5/ETH0.c **** 		 * the chip SEND command
1360:.\Generated_Source\PSoC5/ETH0.c **** 		 */
1361:.\Generated_Source\PSoC5/ETH0.c **** 		ETH0_ProcessTxData(socket, 0, buffer, TxSize);
 4704              		.loc 1 1361 0 is_stmt 1
 4705 0088 FA79     		ldrb	r2, [r7, #7]	@ zero_extendqisi2
 4706 008a FB89     		ldrh	r3, [r7, #14]
 4707 008c 1046     		mov	r0, r2
 4708 008e 4FF00001 		mov	r1, #0
 4709 0092 3A68     		ldr	r2, [r7, #0]
 4710 0094 FFF7FEFF 		bl	ETH0_ProcessTxData
1362:.\Generated_Source\PSoC5/ETH0.c **** 		ETH0_SocketSend( socket );
 4711              		.loc 1 1362 0
 4712 0098 FB79     		ldrb	r3, [r7, #7]	@ zero_extendqisi2
 4713 009a 1846     		mov	r0, r3
 4714 009c FFF7FEFF 		bl	ETH0_SocketSend
 4715 00a0 02E0     		b	.L204
 4716              	.L200:
1363:.\Generated_Source\PSoC5/ETH0.c **** 	}
1364:.\Generated_Source\PSoC5/ETH0.c **** 	else {
1365:.\Generated_Source\PSoC5/ETH0.c **** 		/*
1366:.\Generated_Source\PSoC5/ETH0.c **** 		 * the socket was not establised, or there was an error, so clear
1367:.\Generated_Source\PSoC5/ETH0.c **** 		 * the TxSize to signal that no data has bee sent
1368:.\Generated_Source\PSoC5/ETH0.c **** 		 */
1369:.\Generated_Source\PSoC5/ETH0.c **** 		TxSize = 0;
 4717              		.loc 1 1369 0
 4718 00a2 4FF00003 		mov	r3, #0
 4719 00a6 FB81     		strh	r3, [r7, #14]	@ movhi
 4720              	.L204:
1370:.\Generated_Source\PSoC5/ETH0.c **** 	}
1371:.\Generated_Source\PSoC5/ETH0.c **** 	return TxSize;
 4721              		.loc 1 1371 0
 4722 00a8 FB89     		ldrh	r3, [r7, #14]
1372:.\Generated_Source\PSoC5/ETH0.c **** }
 4723              		.loc 1 1372 0
 4724 00aa 1846     		mov	r0, r3
 4725 00ac 07F11007 		add	r7, r7, #16
 4726 00b0 BD46     		mov	sp, r7
 4727 00b2 80BD     		pop	{r7, pc}
 4728              		.cfi_endproc
 4729              	.LFE94:
 4730              		.size	ETH0_TcpSend, .-ETH0_TcpSend
 4731              		.section	.text.ETH0_TcpReceive,"ax",%progbits
 4732              		.align	2
 4733              		.global	ETH0_TcpReceive
 4734              		.thumb
 4735              		.thumb_func
 4736              		.type	ETH0_TcpReceive, %function
 4737              	ETH0_TcpReceive:
 4738              	.LFB95:
1373:.\Generated_Source\PSoC5/ETH0.c **** /* ------------------------------------------------------------------------ */
1374:.\Generated_Source\PSoC5/ETH0.c **** uint16
ARM GAS  C:\Users\CHUCK~1.ERH\AppData\Local\Temp\ccSfgJB7.s 			page 109


1375:.\Generated_Source\PSoC5/ETH0.c **** ETH0_TcpReceive( uint8 socket, uint8* buffer, uint16 length )
1376:.\Generated_Source\PSoC5/ETH0.c **** {
 4739              		.loc 1 1376 0
 4740              		.cfi_startproc
 4741              		@ args = 0, pretend = 0, frame = 16
 4742              		@ frame_needed = 1, uses_anonymous_args = 0
 4743 0000 80B5     		push	{r7, lr}
 4744              	.LCFI271:
 4745              		.cfi_def_cfa_offset 8
 4746              		.cfi_offset 7, -8
 4747              		.cfi_offset 14, -4
 4748 0002 86B0     		sub	sp, sp, #24
 4749              	.LCFI272:
 4750              		.cfi_def_cfa_offset 32
 4751 0004 02AF     		add	r7, sp, #8
 4752              	.LCFI273:
 4753              		.cfi_def_cfa 7, 24
 4754 0006 3960     		str	r1, [r7, #0]
 4755 0008 1346     		mov	r3, r2
 4756 000a 0246     		mov	r2, r0
 4757 000c FA71     		strb	r2, [r7, #7]
 4758 000e BB80     		strh	r3, [r7, #4]	@ movhi
1377:.\Generated_Source\PSoC5/ETH0.c **** 	uint16 RxSize;
1378:.\Generated_Source\PSoC5/ETH0.c **** 	
1379:.\Generated_Source\PSoC5/ETH0.c **** 	/*
1380:.\Generated_Source\PSoC5/ETH0.c **** 	 * First thing to do is to check to see if the socket is connected
1381:.\Generated_Source\PSoC5/ETH0.c **** 	 * and that there is data waiting
1382:.\Generated_Source\PSoC5/ETH0.c **** 	 */
1383:.\Generated_Source\PSoC5/ETH0.c **** 	RxSize = 0;
 4759              		.loc 1 1383 0
 4760 0010 4FF00003 		mov	r3, #0
 4761 0014 FB81     		strh	r3, [r7, #14]	@ movhi
1384:.\Generated_Source\PSoC5/ETH0.c **** 	if (ETH0_GetSocketStatus( socket ) == 0x17) {
 4762              		.loc 1 1384 0
 4763 0016 FB79     		ldrb	r3, [r7, #7]	@ zero_extendqisi2
 4764 0018 1846     		mov	r0, r3
 4765 001a FFF7FEFF 		bl	ETH0_GetSocketStatus
 4766 001e 0346     		mov	r3, r0
 4767 0020 172B     		cmp	r3, #23
 4768 0022 1FD1     		bne	.L207
1385:.\Generated_Source\PSoC5/ETH0.c **** 		/*
1386:.\Generated_Source\PSoC5/ETH0.c **** 		 * read the number of waiting bytes in the buffer memory
1387:.\Generated_Source\PSoC5/ETH0.c **** 		 * but, clip the length of data read to the requested
1388:.\Generated_Source\PSoC5/ETH0.c **** 		 * length of data.
1389:.\Generated_Source\PSoC5/ETH0.c **** 		 */
1390:.\Generated_Source\PSoC5/ETH0.c **** 		RxSize = ETH0_GetRxSize( socket );
 4769              		.loc 1 1390 0
 4770 0024 FB79     		ldrb	r3, [r7, #7]	@ zero_extendqisi2
 4771 0026 1846     		mov	r0, r3
 4772 0028 FFF7FEFF 		bl	ETH0_GetRxSize
 4773 002c 0346     		mov	r3, r0
 4774 002e FB81     		strh	r3, [r7, #14]	@ movhi
1391:.\Generated_Source\PSoC5/ETH0.c **** 		RxSize = (RxSize > length) ? length : RxSize;
 4775              		.loc 1 1391 0
 4776 0030 FA89     		ldrh	r2, [r7, #14]
 4777 0032 BB88     		ldrh	r3, [r7, #4]
 4778 0034 9A42     		cmp	r2, r3
ARM GAS  C:\Users\CHUCK~1.ERH\AppData\Local\Temp\ccSfgJB7.s 			page 110


 4779 0036 38BF     		it	cc
 4780 0038 1346     		movcc	r3, r2
 4781 003a FB81     		strh	r3, [r7, #14]	@ movhi
1392:.\Generated_Source\PSoC5/ETH0.c **** 		/* If there was waiting data, read it from the buffer */
1393:.\Generated_Source\PSoC5/ETH0.c **** 		if (RxSize > 0) {
 4782              		.loc 1 1393 0
 4783 003c FB89     		ldrh	r3, [r7, #14]
 4784 003e 002B     		cmp	r3, #0
 4785 0040 10D0     		beq	.L207
1394:.\Generated_Source\PSoC5/ETH0.c **** 			ETH0_ProcessRxData( socket, 0, buffer, RxSize, 0);
 4786              		.loc 1 1394 0
 4787 0042 FA79     		ldrb	r2, [r7, #7]	@ zero_extendqisi2
 4788 0044 FB89     		ldrh	r3, [r7, #14]
 4789 0046 4FF00001 		mov	r1, #0
 4790 004a 0091     		str	r1, [sp, #0]
 4791 004c 1046     		mov	r0, r2
 4792 004e 4FF00001 		mov	r1, #0
 4793 0052 3A68     		ldr	r2, [r7, #0]
 4794 0054 FFF7FEFF 		bl	ETH0_ProcessRxData
1395:.\Generated_Source\PSoC5/ETH0.c **** 			/* 
1396:.\Generated_Source\PSoC5/ETH0.c **** 			 * after reading the buffer data, send the receive command
1397:.\Generated_Source\PSoC5/ETH0.c **** 			 * to the socket so that the W5100 completes the read
1398:.\Generated_Source\PSoC5/ETH0.c **** 			 */
1399:.\Generated_Source\PSoC5/ETH0.c **** 			ETH0_ExecuteSocketCommand(socket, 0x40);
 4795              		.loc 1 1399 0
 4796 0058 FB79     		ldrb	r3, [r7, #7]	@ zero_extendqisi2
 4797 005a 1846     		mov	r0, r3
 4798 005c 4FF04001 		mov	r1, #64
 4799 0060 FFF7FEFF 		bl	ETH0_ExecuteSocketCommand
 4800              	.L207:
1400:.\Generated_Source\PSoC5/ETH0.c **** 		}
1401:.\Generated_Source\PSoC5/ETH0.c **** 	}
1402:.\Generated_Source\PSoC5/ETH0.c **** 	
1403:.\Generated_Source\PSoC5/ETH0.c **** 	/* return the number of read bytes from the buffer memory */
1404:.\Generated_Source\PSoC5/ETH0.c **** 	return RxSize;
 4801              		.loc 1 1404 0
 4802 0064 FB89     		ldrh	r3, [r7, #14]
1405:.\Generated_Source\PSoC5/ETH0.c **** }
 4803              		.loc 1 1405 0
 4804 0066 1846     		mov	r0, r3
 4805 0068 07F11007 		add	r7, r7, #16
 4806 006c BD46     		mov	sp, r7
 4807 006e 80BD     		pop	{r7, pc}
 4808              		.cfi_endproc
 4809              	.LFE95:
 4810              		.size	ETH0_TcpReceive, .-ETH0_TcpReceive
 4811              		.section	.text.ETH0_TcpPrint,"ax",%progbits
 4812              		.align	2
 4813              		.global	ETH0_TcpPrint
 4814              		.thumb
 4815              		.thumb_func
 4816              		.type	ETH0_TcpPrint, %function
 4817              	ETH0_TcpPrint:
 4818              	.LFB96:
1406:.\Generated_Source\PSoC5/ETH0.c **** /* ------------------------------------------------------------------------ */
1407:.\Generated_Source\PSoC5/ETH0.c **** void
1408:.\Generated_Source\PSoC5/ETH0.c **** ETH0_TcpPrint( uint8 socket, const char* str )
ARM GAS  C:\Users\CHUCK~1.ERH\AppData\Local\Temp\ccSfgJB7.s 			page 111


1409:.\Generated_Source\PSoC5/ETH0.c **** {
 4819              		.loc 1 1409 0
 4820              		.cfi_startproc
 4821              		@ args = 0, pretend = 0, frame = 8
 4822              		@ frame_needed = 1, uses_anonymous_args = 0
 4823 0000 80B5     		push	{r7, lr}
 4824              	.LCFI274:
 4825              		.cfi_def_cfa_offset 8
 4826              		.cfi_offset 7, -8
 4827              		.cfi_offset 14, -4
 4828 0002 82B0     		sub	sp, sp, #8
 4829              	.LCFI275:
 4830              		.cfi_def_cfa_offset 16
 4831 0004 00AF     		add	r7, sp, #0
 4832              	.LCFI276:
 4833              		.cfi_def_cfa_register 7
 4834 0006 0346     		mov	r3, r0
 4835 0008 3960     		str	r1, [r7, #0]
 4836 000a FB71     		strb	r3, [r7, #7]
1410:.\Generated_Source\PSoC5/ETH0.c **** 	ETH0_TcpSend(socket, (uint8*)str, strlen(str));
 4837              		.loc 1 1410 0
 4838 000c 3868     		ldr	r0, [r7, #0]
 4839 000e FFF7FEFF 		bl	strlen
 4840 0012 0346     		mov	r3, r0
 4841 0014 9BB2     		uxth	r3, r3
 4842 0016 FA79     		ldrb	r2, [r7, #7]	@ zero_extendqisi2
 4843 0018 1046     		mov	r0, r2
 4844 001a 3968     		ldr	r1, [r7, #0]
 4845 001c 1A46     		mov	r2, r3
 4846 001e FFF7FEFF 		bl	ETH0_TcpSend
1411:.\Generated_Source\PSoC5/ETH0.c **** }
 4847              		.loc 1 1411 0
 4848 0022 07F10807 		add	r7, r7, #8
 4849 0026 BD46     		mov	sp, r7
 4850 0028 80BD     		pop	{r7, pc}
 4851              		.cfi_endproc
 4852              	.LFE96:
 4853              		.size	ETH0_TcpPrint, .-ETH0_TcpPrint
 4854 002a 00BF     		.section	.text.ETH0_UdpOpen,"ax",%progbits
 4855              		.align	2
 4856              		.global	ETH0_UdpOpen
 4857              		.thumb
 4858              		.thumb_func
 4859              		.type	ETH0_UdpOpen, %function
 4860              	ETH0_UdpOpen:
 4861              	.LFB97:
1412:.\Generated_Source\PSoC5/ETH0.c **** #endif
1413:.\Generated_Source\PSoC5/ETH0.c **** /* ======================================================================== */
1414:.\Generated_Source\PSoC5/ETH0.c **** /* UDP */
1415:.\Generated_Source\PSoC5/ETH0.c **** #if (1)
1416:.\Generated_Source\PSoC5/ETH0.c **** /* ------------------------------------------------------------------------ */
1417:.\Generated_Source\PSoC5/ETH0.c **** uint8
1418:.\Generated_Source\PSoC5/ETH0.c **** ETH0_UdpOpen(uint16 port)
1419:.\Generated_Source\PSoC5/ETH0.c **** {
 4862              		.loc 1 1419 0
 4863              		.cfi_startproc
 4864              		@ args = 0, pretend = 0, frame = 8
ARM GAS  C:\Users\CHUCK~1.ERH\AppData\Local\Temp\ccSfgJB7.s 			page 112


 4865              		@ frame_needed = 1, uses_anonymous_args = 0
 4866 0000 80B5     		push	{r7, lr}
 4867              	.LCFI277:
 4868              		.cfi_def_cfa_offset 8
 4869              		.cfi_offset 7, -8
 4870              		.cfi_offset 14, -4
 4871 0002 82B0     		sub	sp, sp, #8
 4872              	.LCFI278:
 4873              		.cfi_def_cfa_offset 16
 4874 0004 00AF     		add	r7, sp, #0
 4875              	.LCFI279:
 4876              		.cfi_def_cfa_register 7
 4877 0006 0346     		mov	r3, r0
 4878 0008 FB80     		strh	r3, [r7, #6]	@ movhi
1420:.\Generated_Source\PSoC5/ETH0.c **** 	return ETH0_SocketOpen(ETH0_PROTO_UDP, port, 0);
 4879              		.loc 1 1420 0
 4880 000a FB88     		ldrh	r3, [r7, #6]
 4881 000c 4FF00200 		mov	r0, #2
 4882 0010 1946     		mov	r1, r3
 4883 0012 4FF00002 		mov	r2, #0
 4884 0016 FFF7FEFF 		bl	ETH0_SocketOpen
 4885 001a 0346     		mov	r3, r0
1421:.\Generated_Source\PSoC5/ETH0.c **** }
 4886              		.loc 1 1421 0
 4887 001c 1846     		mov	r0, r3
 4888 001e 07F10807 		add	r7, r7, #8
 4889 0022 BD46     		mov	sp, r7
 4890 0024 80BD     		pop	{r7, pc}
 4891              		.cfi_endproc
 4892              	.LFE97:
 4893              		.size	ETH0_UdpOpen, .-ETH0_UdpOpen
 4894 0026 00BF     		.section	.text.ETH0_UdpSend,"ax",%progbits
 4895              		.align	2
 4896              		.global	ETH0_UdpSend
 4897              		.thumb
 4898              		.thumb_func
 4899              		.type	ETH0_UdpSend, %function
 4900              	ETH0_UdpSend:
 4901              	.LFB98:
1422:.\Generated_Source\PSoC5/ETH0.c **** /* ------------------------------------------------------------------------ */	
1423:.\Generated_Source\PSoC5/ETH0.c **** uint16
1424:.\Generated_Source\PSoC5/ETH0.c **** ETH0_UdpSend(uint8 socket, uint32 ip, uint16 port, uint8* buffer, uint16 length)
1425:.\Generated_Source\PSoC5/ETH0.c **** {
 4902              		.loc 1 1425 0
 4903              		.cfi_startproc
 4904              		@ args = 4, pretend = 0, frame = 24
 4905              		@ frame_needed = 1, uses_anonymous_args = 0
 4906 0000 80B5     		push	{r7, lr}
 4907              	.LCFI280:
 4908              		.cfi_def_cfa_offset 8
 4909              		.cfi_offset 7, -8
 4910              		.cfi_offset 14, -4
 4911 0002 86B0     		sub	sp, sp, #24
 4912              	.LCFI281:
 4913              		.cfi_def_cfa_offset 32
 4914 0004 00AF     		add	r7, sp, #0
 4915              	.LCFI282:
ARM GAS  C:\Users\CHUCK~1.ERH\AppData\Local\Temp\ccSfgJB7.s 			page 113


 4916              		.cfi_def_cfa_register 7
 4917 0006 B960     		str	r1, [r7, #8]
 4918 0008 7B60     		str	r3, [r7, #4]
 4919 000a 0346     		mov	r3, r0
 4920 000c FB73     		strb	r3, [r7, #15]
 4921 000e 1346     		mov	r3, r2	@ movhi
 4922 0010 BB81     		strh	r3, [r7, #12]	@ movhi
1426:.\Generated_Source\PSoC5/ETH0.c **** 	uint16 TxSize;
1427:.\Generated_Source\PSoC5/ETH0.c **** 	
1428:.\Generated_Source\PSoC5/ETH0.c **** 	/*
1429:.\Generated_Source\PSoC5/ETH0.c **** 	 * Transmit a buffer of data to a specified remote system using UDP.
1430:.\Generated_Source\PSoC5/ETH0.c **** 	 */
1431:.\Generated_Source\PSoC5/ETH0.c **** 	if (ETH0_GetSocketStatus(socket) == 0x17) {
 4923              		.loc 1 1431 0
 4924 0012 FB7B     		ldrb	r3, [r7, #15]	@ zero_extendqisi2
 4925 0014 1846     		mov	r0, r3
 4926 0016 FFF7FEFF 		bl	ETH0_GetSocketStatus
 4927 001a 0346     		mov	r3, r0
 4928 001c 172B     		cmp	r3, #23
 4929 001e 28D1     		bne	.L213
1432:.\Generated_Source\PSoC5/ETH0.c **** 		/*
1433:.\Generated_Source\PSoC5/ETH0.c **** 		 * The socket has been established, so wait for available
1434:.\Generated_Source\PSoC5/ETH0.c **** 		 * room in the transmit buffer of the socket, but, trim the
1435:.\Generated_Source\PSoC5/ETH0.c **** 		 * transmitted data length to no more than the available
1436:.\Generated_Source\PSoC5/ETH0.c **** 		 * buffer size in the device. (2K)
1437:.\Generated_Source\PSoC5/ETH0.c **** 		 */
1438:.\Generated_Source\PSoC5/ETH0.c **** 		TxSize = (length > 0x0800) ? 0x0800 : length;
 4930              		.loc 1 1438 0
 4931 0020 3B8C     		ldrh	r3, [r7, #32]
 4932 0022 B3F5006F 		cmp	r3, #2048
 4933 0026 28BF     		it	cs
 4934 0028 4FF40063 		movcs	r3, #2048
 4935 002c FB82     		strh	r3, [r7, #22]	@ movhi
1439:.\Generated_Source\PSoC5/ETH0.c **** 		if ( (ip != 0) && (ip != 0xFFFFFFFF) ) {
 4936              		.loc 1 1439 0
 4937 002e BB68     		ldr	r3, [r7, #8]
 4938 0030 002B     		cmp	r3, #0
 4939 0032 1BD0     		beq	.L214
 4940              		.loc 1 1439 0 is_stmt 0 discriminator 1
 4941 0034 BB68     		ldr	r3, [r7, #8]
 4942 0036 B3F1FF3F 		cmp	r3, #-1
 4943 003a 17D0     		beq	.L214
1440:.\Generated_Source\PSoC5/ETH0.c **** 			/*
1441:.\Generated_Source\PSoC5/ETH0.c **** 			 * Store the destination IP and port in the chip
1442:.\Generated_Source\PSoC5/ETH0.c **** 			 * socket registers.
1443:.\Generated_Source\PSoC5/ETH0.c **** 			 */
1444:.\Generated_Source\PSoC5/ETH0.c **** 			ETH0_SetSocketDestIP( socket, ip );
 4944              		.loc 1 1444 0 is_stmt 1
 4945 003c FB7B     		ldrb	r3, [r7, #15]	@ zero_extendqisi2
 4946 003e 1846     		mov	r0, r3
 4947 0040 B968     		ldr	r1, [r7, #8]
 4948 0042 FFF7FEFF 		bl	ETH0_SetSocketDestIP
1445:.\Generated_Source\PSoC5/ETH0.c **** 			ETH0_SetSocketDestPort( socket, port );
 4949              		.loc 1 1445 0
 4950 0046 FA7B     		ldrb	r2, [r7, #15]	@ zero_extendqisi2
 4951 0048 BB89     		ldrh	r3, [r7, #12]
 4952 004a 1046     		mov	r0, r2
ARM GAS  C:\Users\CHUCK~1.ERH\AppData\Local\Temp\ccSfgJB7.s 			page 114


 4953 004c 1946     		mov	r1, r3
 4954 004e FFF7FEFF 		bl	ETH0_SetSocketDestPort
1446:.\Generated_Source\PSoC5/ETH0.c **** 			/*
1447:.\Generated_Source\PSoC5/ETH0.c **** 			 * process the transmission buffer, and write it in to
1448:.\Generated_Source\PSoC5/ETH0.c **** 			 * the chip buffer memory.
1449:.\Generated_Source\PSoC5/ETH0.c **** 			 */
1450:.\Generated_Source\PSoC5/ETH0.c **** 			ETH0_ProcessTxData(socket,0,buffer,TxSize);
 4955              		.loc 1 1450 0
 4956 0052 FA7B     		ldrb	r2, [r7, #15]	@ zero_extendqisi2
 4957 0054 FB8A     		ldrh	r3, [r7, #22]
 4958 0056 1046     		mov	r0, r2
 4959 0058 4FF00001 		mov	r1, #0
 4960 005c 7A68     		ldr	r2, [r7, #4]
 4961 005e FFF7FEFF 		bl	ETH0_ProcessTxData
1451:.\Generated_Source\PSoC5/ETH0.c **** 			/*
1452:.\Generated_Source\PSoC5/ETH0.c **** 			 * Issue the send command to transmit the buffer.
1453:.\Generated_Source\PSoC5/ETH0.c **** 			 */
1454:.\Generated_Source\PSoC5/ETH0.c **** 			ETH0_SocketSend( socket ); 
 4962              		.loc 1 1454 0
 4963 0062 FB7B     		ldrb	r3, [r7, #15]	@ zero_extendqisi2
 4964 0064 1846     		mov	r0, r3
 4965 0066 FFF7FEFF 		bl	ETH0_SocketSend
 4966 006a 02E0     		b	.L213
 4967              	.L214:
1455:.\Generated_Source\PSoC5/ETH0.c **** 		}
1456:.\Generated_Source\PSoC5/ETH0.c **** 		else {
1457:.\Generated_Source\PSoC5/ETH0.c **** 			/* an invalid IP address was issued, so return that no data was sent. */
1458:.\Generated_Source\PSoC5/ETH0.c **** 			TxSize = 0;
 4968              		.loc 1 1458 0
 4969 006c 4FF00003 		mov	r3, #0
 4970 0070 FB82     		strh	r3, [r7, #22]	@ movhi
 4971              	.L213:
1459:.\Generated_Source\PSoC5/ETH0.c **** 		}
1460:.\Generated_Source\PSoC5/ETH0.c **** 	}
1461:.\Generated_Source\PSoC5/ETH0.c **** 	return TxSize;
 4972              		.loc 1 1461 0
 4973 0072 FB8A     		ldrh	r3, [r7, #22]
1462:.\Generated_Source\PSoC5/ETH0.c **** }
 4974              		.loc 1 1462 0
 4975 0074 1846     		mov	r0, r3
 4976 0076 07F11807 		add	r7, r7, #24
 4977 007a BD46     		mov	sp, r7
 4978 007c 80BD     		pop	{r7, pc}
 4979              		.cfi_endproc
 4980              	.LFE98:
 4981              		.size	ETH0_UdpSend, .-ETH0_UdpSend
 4982 007e 00BF     		.section	.text.ETH0_UdpReceive,"ax",%progbits
 4983              		.align	2
 4984              		.global	ETH0_UdpReceive
 4985              		.thumb
 4986              		.thumb_func
 4987              		.type	ETH0_UdpReceive, %function
 4988              	ETH0_UdpReceive:
 4989              	.LFB99:
1463:.\Generated_Source\PSoC5/ETH0.c **** /* ------------------------------------------------------------------------ */
1464:.\Generated_Source\PSoC5/ETH0.c **** uint16
1465:.\Generated_Source\PSoC5/ETH0.c **** ETH0_UdpReceive(uint8 socket, uint32 *ip, uint16 *port, uint8* buffer, uint16 length)
ARM GAS  C:\Users\CHUCK~1.ERH\AppData\Local\Temp\ccSfgJB7.s 			page 115


1466:.\Generated_Source\PSoC5/ETH0.c **** {
 4990              		.loc 1 1466 0
 4991              		.cfi_startproc
 4992              		@ args = 4, pretend = 0, frame = 32
 4993              		@ frame_needed = 1, uses_anonymous_args = 0
 4994 0000 80B5     		push	{r7, lr}
 4995              	.LCFI283:
 4996              		.cfi_def_cfa_offset 8
 4997              		.cfi_offset 7, -8
 4998              		.cfi_offset 14, -4
 4999 0002 8AB0     		sub	sp, sp, #40
 5000              	.LCFI284:
 5001              		.cfi_def_cfa_offset 48
 5002 0004 02AF     		add	r7, sp, #8
 5003              	.LCFI285:
 5004              		.cfi_def_cfa 7, 40
 5005 0006 B960     		str	r1, [r7, #8]
 5006 0008 7A60     		str	r2, [r7, #4]
 5007 000a 3B60     		str	r3, [r7, #0]
 5008 000c 0346     		mov	r3, r0
 5009 000e FB73     		strb	r3, [r7, #15]
1467:.\Generated_Source\PSoC5/ETH0.c **** 	uint16 RxSize;
1468:.\Generated_Source\PSoC5/ETH0.c **** 	uint16 PacketSize;
1469:.\Generated_Source\PSoC5/ETH0.c **** 	uint8  PacketHeader[8];
1470:.\Generated_Source\PSoC5/ETH0.c **** 	
1471:.\Generated_Source\PSoC5/ETH0.c **** 	/*
1472:.\Generated_Source\PSoC5/ETH0.c **** 	 * First thing to do is to check to see if the socket is connected
1473:.\Generated_Source\PSoC5/ETH0.c **** 	 * and that there is data waiting
1474:.\Generated_Source\PSoC5/ETH0.c **** 	 */
1475:.\Generated_Source\PSoC5/ETH0.c **** 	RxSize = 0;
 5010              		.loc 1 1475 0
 5011 0010 4FF00003 		mov	r3, #0
 5012 0014 FB83     		strh	r3, [r7, #30]	@ movhi
1476:.\Generated_Source\PSoC5/ETH0.c **** 	if (ETH0_GetSocketStatus( socket ) == 0x17) {
 5013              		.loc 1 1476 0
 5014 0016 FB7B     		ldrb	r3, [r7, #15]	@ zero_extendqisi2
 5015 0018 1846     		mov	r0, r3
 5016 001a FFF7FEFF 		bl	ETH0_GetSocketStatus
 5017 001e 0346     		mov	r3, r0
 5018 0020 172B     		cmp	r3, #23
 5019 0022 6BD1     		bne	.L217
1477:.\Generated_Source\PSoC5/ETH0.c **** 		/*
1478:.\Generated_Source\PSoC5/ETH0.c **** 		 * read the number of waiting bytes in the buffer memory
1479:.\Generated_Source\PSoC5/ETH0.c **** 		 * but, clip the length of data read to the requested
1480:.\Generated_Source\PSoC5/ETH0.c **** 		 * length of data.
1481:.\Generated_Source\PSoC5/ETH0.c **** 		 */
1482:.\Generated_Source\PSoC5/ETH0.c **** 		RxSize = ETH0_GetRxSize( socket );
 5020              		.loc 1 1482 0
 5021 0024 FB7B     		ldrb	r3, [r7, #15]	@ zero_extendqisi2
 5022 0026 1846     		mov	r0, r3
 5023 0028 FFF7FEFF 		bl	ETH0_GetRxSize
 5024 002c 0346     		mov	r3, r0
 5025 002e FB83     		strh	r3, [r7, #30]	@ movhi
1483:.\Generated_Source\PSoC5/ETH0.c **** 		RxSize = (RxSize > length+8) ? length : RxSize;
 5026              		.loc 1 1483 0
 5027 0030 FA8B     		ldrh	r2, [r7, #30]
 5028 0032 3B8D     		ldrh	r3, [r7, #40]
ARM GAS  C:\Users\CHUCK~1.ERH\AppData\Local\Temp\ccSfgJB7.s 			page 116


 5029 0034 03F10803 		add	r3, r3, #8
 5030 0038 9A42     		cmp	r2, r3
 5031 003a 01DD     		ble	.L218
 5032              		.loc 1 1483 0 is_stmt 0 discriminator 1
 5033 003c 3B8D     		ldrh	r3, [r7, #40]
 5034 003e 00E0     		b	.L219
 5035              	.L218:
 5036              		.loc 1 1483 0 discriminator 2
 5037 0040 FB8B     		ldrh	r3, [r7, #30]
 5038              	.L219:
 5039              		.loc 1 1483 0 discriminator 3
 5040 0042 FB83     		strh	r3, [r7, #30]	@ movhi
1484:.\Generated_Source\PSoC5/ETH0.c **** 		/* If there was waiting data, read it from the buffer */
1485:.\Generated_Source\PSoC5/ETH0.c **** 		if (RxSize > 0) {
 5041              		.loc 1 1485 0 is_stmt 1 discriminator 3
 5042 0044 FB8B     		ldrh	r3, [r7, #30]
 5043 0046 002B     		cmp	r3, #0
 5044 0048 58D0     		beq	.L217
1486:.\Generated_Source\PSoC5/ETH0.c **** 			/*
1487:.\Generated_Source\PSoC5/ETH0.c **** 			 * the UDP packet is stored in the buffer memory as an 8-byte
1488:.\Generated_Source\PSoC5/ETH0.c **** 			 * packet header followed by the packet data.
1489:.\Generated_Source\PSoC5/ETH0.c **** 			*/
1490:.\Generated_Source\PSoC5/ETH0.c **** 			ETH0_ProcessRxData( socket, 0, &PacketHeader[0], 8, 0);
 5045              		.loc 1 1490 0
 5046 004a FA7B     		ldrb	r2, [r7, #15]	@ zero_extendqisi2
 5047 004c 07F11403 		add	r3, r7, #20
 5048 0050 4FF00001 		mov	r1, #0
 5049 0054 0091     		str	r1, [sp, #0]
 5050 0056 1046     		mov	r0, r2
 5051 0058 4FF00001 		mov	r1, #0
 5052 005c 1A46     		mov	r2, r3
 5053 005e 4FF00803 		mov	r3, #8
 5054 0062 FFF7FEFF 		bl	ETH0_ProcessRxData
1491:.\Generated_Source\PSoC5/ETH0.c **** 			/*
1492:.\Generated_Source\PSoC5/ETH0.c **** 			 * The packet header contains the 4-byte IP address followed by the
1493:.\Generated_Source\PSoC5/ETH0.c **** 			 * 2-byte port number and the 2-byte packet data length
1494:.\Generated_Source\PSoC5/ETH0.c **** 			 */
1495:.\Generated_Source\PSoC5/ETH0.c **** 			*ip = ETH0_IPADDRESS(PacketHeader[0], PacketHeader[1], PacketHeader[2], PacketHeader[3]);
 5055              		.loc 1 1495 0
 5056 0066 3B7D     		ldrb	r3, [r7, #20]	@ zero_extendqisi2
 5057 0068 1A46     		mov	r2, r3
 5058 006a 7B7D     		ldrb	r3, [r7, #21]	@ zero_extendqisi2
 5059 006c 4FEA0323 		lsl	r3, r3, #8
 5060 0070 4FEA0343 		lsl	r3, r3, #16
 5061 0074 4FEA1343 		lsr	r3, r3, #16
 5062 0078 D218     		adds	r2, r2, r3
 5063 007a BB7D     		ldrb	r3, [r7, #22]	@ zero_extendqisi2
 5064 007c 4FEA0343 		lsl	r3, r3, #16
 5065 0080 03F47F03 		and	r3, r3, #16711680
 5066 0084 D218     		adds	r2, r2, r3
 5067 0086 FB7D     		ldrb	r3, [r7, #23]	@ zero_extendqisi2
 5068 0088 4FEA0363 		lsl	r3, r3, #24
 5069 008c D218     		adds	r2, r2, r3
 5070 008e BB68     		ldr	r3, [r7, #8]
 5071 0090 1A60     		str	r2, [r3, #0]
1496:.\Generated_Source\PSoC5/ETH0.c **** 			*port = (uint16)((PacketHeader[4]<<8)&0xFF00) | (PacketHeader[5]&0x00FF);
 5072              		.loc 1 1496 0
ARM GAS  C:\Users\CHUCK~1.ERH\AppData\Local\Temp\ccSfgJB7.s 			page 117


 5073 0092 3B7E     		ldrb	r3, [r7, #24]	@ zero_extendqisi2
 5074 0094 4FEA0323 		lsl	r3, r3, #8
 5075 0098 9BB2     		uxth	r3, r3
 5076 009a 23F0FF03 		bic	r3, r3, #255
 5077 009e 9AB2     		uxth	r2, r3
 5078 00a0 7B7E     		ldrb	r3, [r7, #25]	@ zero_extendqisi2
 5079 00a2 1343     		orrs	r3, r3, r2
 5080 00a4 9BB2     		uxth	r3, r3
 5081 00a6 9AB2     		uxth	r2, r3
 5082 00a8 7B68     		ldr	r3, [r7, #4]
 5083 00aa 1A80     		strh	r2, [r3, #0]	@ movhi
1497:.\Generated_Source\PSoC5/ETH0.c **** 			PacketSize = (uint16)((PacketHeader[6]<<8)&0xFF00) | (PacketHeader[7]&0x00FF);
 5084              		.loc 1 1497 0
 5085 00ac BB7E     		ldrb	r3, [r7, #26]	@ zero_extendqisi2
 5086 00ae 4FEA0323 		lsl	r3, r3, #8
 5087 00b2 9BB2     		uxth	r3, r3
 5088 00b4 23F0FF03 		bic	r3, r3, #255
 5089 00b8 9AB2     		uxth	r2, r3
 5090 00ba FB7E     		ldrb	r3, [r7, #27]	@ zero_extendqisi2
 5091 00bc 1343     		orrs	r3, r3, r2
 5092 00be 9BB2     		uxth	r3, r3
 5093 00c0 BB83     		strh	r3, [r7, #28]	@ movhi
1498:.\Generated_Source\PSoC5/ETH0.c **** 			/*
1499:.\Generated_Source\PSoC5/ETH0.c **** 			 * Check to make sure that the packet data has been received completely
1500:.\Generated_Source\PSoC5/ETH0.c **** 			 */
1501:.\Generated_Source\PSoC5/ETH0.c **** 			if (RxSize >= (PacketSize+8) ) {
 5094              		.loc 1 1501 0
 5095 00c2 FA8B     		ldrh	r2, [r7, #30]
 5096 00c4 BB8B     		ldrh	r3, [r7, #28]
 5097 00c6 03F10803 		add	r3, r3, #8
 5098 00ca 9A42     		cmp	r2, r3
 5099 00cc 13DB     		blt	.L220
1502:.\Generated_Source\PSoC5/ETH0.c **** 			
1503:.\Generated_Source\PSoC5/ETH0.c **** 				ETH0_ProcessRxData( socket, 8, buffer, PacketSize, 0);
 5100              		.loc 1 1503 0
 5101 00ce FA7B     		ldrb	r2, [r7, #15]	@ zero_extendqisi2
 5102 00d0 BB8B     		ldrh	r3, [r7, #28]
 5103 00d2 4FF00001 		mov	r1, #0
 5104 00d6 0091     		str	r1, [sp, #0]
 5105 00d8 1046     		mov	r0, r2
 5106 00da 4FF00801 		mov	r1, #8
 5107 00de 3A68     		ldr	r2, [r7, #0]
 5108 00e0 FFF7FEFF 		bl	ETH0_ProcessRxData
1504:.\Generated_Source\PSoC5/ETH0.c **** 				/* 
1505:.\Generated_Source\PSoC5/ETH0.c **** 				 * after reading the buffer data, send the receive command
1506:.\Generated_Source\PSoC5/ETH0.c **** 				 * to the socket so that the W5100 completes the read
1507:.\Generated_Source\PSoC5/ETH0.c **** 				 */
1508:.\Generated_Source\PSoC5/ETH0.c **** 				ETH0_ExecuteSocketCommand(socket, 0x40);
 5109              		.loc 1 1508 0
 5110 00e4 FB7B     		ldrb	r3, [r7, #15]	@ zero_extendqisi2
 5111 00e6 1846     		mov	r0, r3
 5112 00e8 4FF04001 		mov	r1, #64
 5113 00ec FFF7FEFF 		bl	ETH0_ExecuteSocketCommand
1509:.\Generated_Source\PSoC5/ETH0.c **** 				RxSize = PacketSize;
 5114              		.loc 1 1509 0
 5115 00f0 BB8B     		ldrh	r3, [r7, #28]	@ movhi
 5116 00f2 FB83     		strh	r3, [r7, #30]	@ movhi
ARM GAS  C:\Users\CHUCK~1.ERH\AppData\Local\Temp\ccSfgJB7.s 			page 118


 5117 00f4 02E0     		b	.L217
 5118              	.L220:
1510:.\Generated_Source\PSoC5/ETH0.c **** 			}
1511:.\Generated_Source\PSoC5/ETH0.c **** 			else {
1512:.\Generated_Source\PSoC5/ETH0.c **** 				RxSize = 8;
 5119              		.loc 1 1512 0
 5120 00f6 4FF00803 		mov	r3, #8
 5121 00fa FB83     		strh	r3, [r7, #30]	@ movhi
 5122              	.L217:
1513:.\Generated_Source\PSoC5/ETH0.c **** 			}
1514:.\Generated_Source\PSoC5/ETH0.c **** 		}
1515:.\Generated_Source\PSoC5/ETH0.c **** 	}
1516:.\Generated_Source\PSoC5/ETH0.c **** 	
1517:.\Generated_Source\PSoC5/ETH0.c **** 	/* return the number of read bytes from the buffer memory */
1518:.\Generated_Source\PSoC5/ETH0.c **** 	return RxSize;
 5123              		.loc 1 1518 0
 5124 00fc FB8B     		ldrh	r3, [r7, #30]
1519:.\Generated_Source\PSoC5/ETH0.c **** }
 5125              		.loc 1 1519 0
 5126 00fe 1846     		mov	r0, r3
 5127 0100 07F12007 		add	r7, r7, #32
 5128 0104 BD46     		mov	sp, r7
 5129 0106 80BD     		pop	{r7, pc}
 5130              		.cfi_endproc
 5131              	.LFE99:
 5132              		.size	ETH0_UdpReceive, .-ETH0_UdpReceive
 5133              		.text
 5134              	.Letext0:
 5135              		.file 2 "./Generated_Source/PSoC5/cytypes.h"
 5136              		.section	.debug_info,"",%progbits
 5137              	.Ldebug_info0:
 5138 0000 A6170000 		.4byte	0x17a6
 5139 0004 0200     		.2byte	0x2
 5140 0006 00000000 		.4byte	.Ldebug_abbrev0
 5141 000a 04       		.byte	0x4
 5142 000b 01       		.uleb128 0x1
 5143 000c AC080000 		.4byte	.LASF151
 5144 0010 01       		.byte	0x1
 5145 0011 23000000 		.4byte	.LASF152
 5146 0015 61090000 		.4byte	.LASF153
 5147 0019 00000000 		.4byte	.Ldebug_ranges0+0
 5148 001d 00000000 		.4byte	0
 5149 0021 00000000 		.4byte	0
 5150 0025 00000000 		.4byte	.Ldebug_line0
 5151 0029 02       		.uleb128 0x2
 5152 002a 01       		.byte	0x1
 5153 002b 06       		.byte	0x6
 5154 002c 5C080000 		.4byte	.LASF0
 5155 0030 02       		.uleb128 0x2
 5156 0031 01       		.byte	0x1
 5157 0032 08       		.byte	0x8
 5158 0033 A3070000 		.4byte	.LASF1
 5159 0037 02       		.uleb128 0x2
 5160 0038 02       		.byte	0x2
 5161 0039 05       		.byte	0x5
 5162 003a 15060000 		.4byte	.LASF2
 5163 003e 02       		.uleb128 0x2
ARM GAS  C:\Users\CHUCK~1.ERH\AppData\Local\Temp\ccSfgJB7.s 			page 119


 5164 003f 02       		.byte	0x2
 5165 0040 07       		.byte	0x7
 5166 0041 7B080000 		.4byte	.LASF3
 5167 0045 02       		.uleb128 0x2
 5168 0046 04       		.byte	0x4
 5169 0047 05       		.byte	0x5
 5170 0048 1F060000 		.4byte	.LASF4
 5171 004c 02       		.uleb128 0x2
 5172 004d 04       		.byte	0x4
 5173 004e 07       		.byte	0x7
 5174 004f 19070000 		.4byte	.LASF5
 5175 0053 02       		.uleb128 0x2
 5176 0054 08       		.byte	0x8
 5177 0055 05       		.byte	0x5
 5178 0056 57040000 		.4byte	.LASF6
 5179 005a 02       		.uleb128 0x2
 5180 005b 08       		.byte	0x8
 5181 005c 07       		.byte	0x7
 5182 005d 73020000 		.4byte	.LASF7
 5183 0061 03       		.uleb128 0x3
 5184 0062 04       		.byte	0x4
 5185 0063 05       		.byte	0x5
 5186 0064 696E7400 		.ascii	"int\000"
 5187 0068 02       		.uleb128 0x2
 5188 0069 04       		.byte	0x4
 5189 006a 07       		.byte	0x7
 5190 006b A3000000 		.4byte	.LASF8
 5191 006f 04       		.uleb128 0x4
 5192 0070 18090000 		.4byte	.LASF9
 5193 0074 02       		.byte	0x2
 5194 0075 5B       		.byte	0x5b
 5195 0076 30000000 		.4byte	0x30
 5196 007a 04       		.uleb128 0x4
 5197 007b DE030000 		.4byte	.LASF10
 5198 007f 02       		.byte	0x2
 5199 0080 5C       		.byte	0x5c
 5200 0081 3E000000 		.4byte	0x3e
 5201 0085 04       		.uleb128 0x4
 5202 0086 3D050000 		.4byte	.LASF11
 5203 008a 02       		.byte	0x2
 5204 008b 5D       		.byte	0x5d
 5205 008c 4C000000 		.4byte	0x4c
 5206 0090 02       		.uleb128 0x2
 5207 0091 04       		.byte	0x4
 5208 0092 04       		.byte	0x4
 5209 0093 2D020000 		.4byte	.LASF12
 5210 0097 02       		.uleb128 0x2
 5211 0098 08       		.byte	0x8
 5212 0099 04       		.byte	0x4
 5213 009a 1E090000 		.4byte	.LASF13
 5214 009e 02       		.uleb128 0x2
 5215 009f 01       		.byte	0x1
 5216 00a0 08       		.byte	0x8
 5217 00a1 A2030000 		.4byte	.LASF14
 5218 00a5 02       		.uleb128 0x2
 5219 00a6 04       		.byte	0x4
 5220 00a7 07       		.byte	0x7
ARM GAS  C:\Users\CHUCK~1.ERH\AppData\Local\Temp\ccSfgJB7.s 			page 120


 5221 00a8 FE060000 		.4byte	.LASF15
 5222 00ac 05       		.uleb128 0x5
 5223 00ad 04       		.byte	0x4
 5224 00ae B2000000 		.4byte	0xb2
 5225 00b2 06       		.uleb128 0x6
 5226 00b3 9E000000 		.4byte	0x9e
 5227 00b7 07       		.uleb128 0x7
 5228 00b8 06       		.byte	0x6
 5229 00b9 01       		.byte	0x1
 5230 00ba 19       		.byte	0x19
 5231 00bb F8000000 		.4byte	0xf8
 5232 00bf 08       		.uleb128 0x8
 5233 00c0 F9040000 		.4byte	.LASF16
 5234 00c4 01       		.byte	0x1
 5235 00c5 1B       		.byte	0x1b
 5236 00c6 6F000000 		.4byte	0x6f
 5237 00ca 02       		.byte	0x2
 5238 00cb 23       		.byte	0x23
 5239 00cc 00       		.uleb128 0
 5240 00cd 08       		.uleb128 0x8
 5241 00ce 86070000 		.4byte	.LASF17
 5242 00d2 01       		.byte	0x1
 5243 00d3 1C       		.byte	0x1c
 5244 00d4 6F000000 		.4byte	0x6f
 5245 00d8 02       		.byte	0x2
 5246 00d9 23       		.byte	0x23
 5247 00da 01       		.uleb128 0x1
 5248 00db 08       		.uleb128 0x8
 5249 00dc 23030000 		.4byte	.LASF18
 5250 00e0 01       		.byte	0x1
 5251 00e1 1D       		.byte	0x1d
 5252 00e2 7A000000 		.4byte	0x7a
 5253 00e6 02       		.byte	0x2
 5254 00e7 23       		.byte	0x23
 5255 00e8 02       		.uleb128 0x2
 5256 00e9 08       		.uleb128 0x8
 5257 00ea B9010000 		.4byte	.LASF19
 5258 00ee 01       		.byte	0x1
 5259 00ef 1E       		.byte	0x1e
 5260 00f0 6F000000 		.4byte	0x6f
 5261 00f4 02       		.byte	0x2
 5262 00f5 23       		.byte	0x23
 5263 00f6 04       		.uleb128 0x4
 5264 00f7 00       		.byte	0
 5265 00f8 04       		.uleb128 0x4
 5266 00f9 FC050000 		.4byte	.LASF20
 5267 00fd 01       		.byte	0x1
 5268 00fe 1F       		.byte	0x1f
 5269 00ff B7000000 		.4byte	0xb7
 5270 0103 09       		.uleb128 0x9
 5271 0104 58000000 		.4byte	.LASF154
 5272 0108 01       		.byte	0x1
 5273 0109 3B       		.byte	0x3b
 5274 010a 01       		.byte	0x1
 5275 010b 00000000 		.4byte	.LFB0
 5276 010f 0A000000 		.4byte	.LFE0
 5277 0113 00000000 		.4byte	.LLST0
ARM GAS  C:\Users\CHUCK~1.ERH\AppData\Local\Temp\ccSfgJB7.s 			page 121


 5278 0117 01       		.byte	0x1
 5279 0118 0A       		.uleb128 0xa
 5280 0119 01       		.byte	0x1
 5281 011a 00000000 		.4byte	.LASF110
 5282 011e 01       		.byte	0x1
 5283 011f 53       		.byte	0x53
 5284 0120 01       		.byte	0x1
 5285 0121 00000000 		.4byte	.LFB1
 5286 0125 50000000 		.4byte	.LFE1
 5287 0129 2C000000 		.4byte	.LLST1
 5288 012d 01       		.byte	0x1
 5289 012e 4F010000 		.4byte	0x14f
 5290 0132 0B       		.uleb128 0xb
 5291 0133 29080000 		.4byte	.LASF21
 5292 0137 01       		.byte	0x1
 5293 0138 53       		.byte	0x53
 5294 0139 7A000000 		.4byte	0x7a
 5295 013d 02       		.byte	0x2
 5296 013e 91       		.byte	0x91
 5297 013f 76       		.sleb128 -10
 5298 0140 0C       		.uleb128 0xc
 5299 0141 64617400 		.ascii	"dat\000"
 5300 0145 01       		.byte	0x1
 5301 0146 53       		.byte	0x53
 5302 0147 6F000000 		.4byte	0x6f
 5303 014b 02       		.byte	0x2
 5304 014c 91       		.byte	0x91
 5305 014d 75       		.sleb128 -11
 5306 014e 00       		.byte	0
 5307 014f 0D       		.uleb128 0xd
 5308 0150 01       		.byte	0x1
 5309 0151 6D060000 		.4byte	.LASF115
 5310 0155 01       		.byte	0x1
 5311 0156 70       		.byte	0x70
 5312 0157 01       		.byte	0x1
 5313 0158 6F000000 		.4byte	0x6f
 5314 015c 00000000 		.4byte	.LFB2
 5315 0160 72000000 		.4byte	.LFE2
 5316 0164 64000000 		.4byte	.LLST2
 5317 0168 01       		.byte	0x1
 5318 0169 98010000 		.4byte	0x198
 5319 016d 0B       		.uleb128 0xb
 5320 016e 29080000 		.4byte	.LASF21
 5321 0172 01       		.byte	0x1
 5322 0173 70       		.byte	0x70
 5323 0174 7A000000 		.4byte	0x7a
 5324 0178 02       		.byte	0x2
 5325 0179 91       		.byte	0x91
 5326 017a 6E       		.sleb128 -18
 5327 017b 0E       		.uleb128 0xe
 5328 017c 64617400 		.ascii	"dat\000"
 5329 0180 01       		.byte	0x1
 5330 0181 72       		.byte	0x72
 5331 0182 85000000 		.4byte	0x85
 5332 0186 02       		.byte	0x2
 5333 0187 91       		.byte	0x91
 5334 0188 74       		.sleb128 -12
ARM GAS  C:\Users\CHUCK~1.ERH\AppData\Local\Temp\ccSfgJB7.s 			page 122


 5335 0189 0F       		.uleb128 0xf
 5336 018a 4E020000 		.4byte	.LASF22
 5337 018e 01       		.byte	0x1
 5338 018f 73       		.byte	0x73
 5339 0190 85000000 		.4byte	0x85
 5340 0194 02       		.byte	0x2
 5341 0195 91       		.byte	0x91
 5342 0196 70       		.sleb128 -16
 5343 0197 00       		.byte	0
 5344 0198 10       		.uleb128 0x10
 5345 0199 19080000 		.4byte	.LASF24
 5346 019d 01       		.byte	0x1
 5347 019e F7       		.byte	0xf7
 5348 019f 01       		.byte	0x1
 5349 01a0 00000000 		.4byte	.LFB3
 5350 01a4 44000000 		.4byte	.LFE3
 5351 01a8 9C000000 		.4byte	.LLST3
 5352 01ac 01       		.byte	0x1
 5353 01ad DC010000 		.4byte	0x1dc
 5354 01b1 0B       		.uleb128 0xb
 5355 01b2 29080000 		.4byte	.LASF21
 5356 01b6 01       		.byte	0x1
 5357 01b7 F7       		.byte	0xf7
 5358 01b8 7A000000 		.4byte	0x7a
 5359 01bc 02       		.byte	0x2
 5360 01bd 91       		.byte	0x91
 5361 01be 6E       		.sleb128 -18
 5362 01bf 0C       		.uleb128 0xc
 5363 01c0 6D616300 		.ascii	"mac\000"
 5364 01c4 01       		.byte	0x1
 5365 01c5 F7       		.byte	0xf7
 5366 01c6 DC010000 		.4byte	0x1dc
 5367 01ca 02       		.byte	0x2
 5368 01cb 91       		.byte	0x91
 5369 01cc 68       		.sleb128 -24
 5370 01cd 0F       		.uleb128 0xf
 5371 01ce 54020000 		.4byte	.LASF23
 5372 01d2 01       		.byte	0x1
 5373 01d3 F9       		.byte	0xf9
 5374 01d4 85000000 		.4byte	0x85
 5375 01d8 02       		.byte	0x2
 5376 01d9 91       		.byte	0x91
 5377 01da 74       		.sleb128 -12
 5378 01db 00       		.byte	0
 5379 01dc 05       		.uleb128 0x5
 5380 01dd 04       		.byte	0x4
 5381 01de 6F000000 		.4byte	0x6f
 5382 01e2 11       		.uleb128 0x11
 5383 01e3 9C040000 		.4byte	.LASF25
 5384 01e7 01       		.byte	0x1
 5385 01e8 0601     		.2byte	0x106
 5386 01ea 01       		.byte	0x1
 5387 01eb 00000000 		.4byte	.LFB4
 5388 01ef 44000000 		.4byte	.LFE4
 5389 01f3 D4000000 		.4byte	.LLST4
 5390 01f7 01       		.byte	0x1
 5391 01f8 2A020000 		.4byte	0x22a
ARM GAS  C:\Users\CHUCK~1.ERH\AppData\Local\Temp\ccSfgJB7.s 			page 123


 5392 01fc 12       		.uleb128 0x12
 5393 01fd 29080000 		.4byte	.LASF21
 5394 0201 01       		.byte	0x1
 5395 0202 0601     		.2byte	0x106
 5396 0204 7A000000 		.4byte	0x7a
 5397 0208 02       		.byte	0x2
 5398 0209 91       		.byte	0x91
 5399 020a 66       		.sleb128 -26
 5400 020b 13       		.uleb128 0x13
 5401 020c 6D616300 		.ascii	"mac\000"
 5402 0210 01       		.byte	0x1
 5403 0211 0601     		.2byte	0x106
 5404 0213 DC010000 		.4byte	0x1dc
 5405 0217 02       		.byte	0x2
 5406 0218 91       		.byte	0x91
 5407 0219 60       		.sleb128 -32
 5408 021a 14       		.uleb128 0x14
 5409 021b 54020000 		.4byte	.LASF23
 5410 021f 01       		.byte	0x1
 5411 0220 0801     		.2byte	0x108
 5412 0222 85000000 		.4byte	0x85
 5413 0226 02       		.byte	0x2
 5414 0227 91       		.byte	0x91
 5415 0228 6C       		.sleb128 -20
 5416 0229 00       		.byte	0
 5417 022a 11       		.uleb128 0x11
 5418 022b A7030000 		.4byte	.LASF26
 5419 022f 01       		.byte	0x1
 5420 0230 1301     		.2byte	0x113
 5421 0232 01       		.byte	0x1
 5422 0233 00000000 		.4byte	.LFB5
 5423 0237 48000000 		.4byte	.LFE5
 5424 023b 0C010000 		.4byte	.LLST5
 5425 023f 01       		.byte	0x1
 5426 0240 80020000 		.4byte	0x280
 5427 0244 12       		.uleb128 0x12
 5428 0245 29080000 		.4byte	.LASF21
 5429 0249 01       		.byte	0x1
 5430 024a 1301     		.2byte	0x113
 5431 024c 7A000000 		.4byte	0x7a
 5432 0250 02       		.byte	0x2
 5433 0251 91       		.byte	0x91
 5434 0252 6E       		.sleb128 -18
 5435 0253 13       		.uleb128 0x13
 5436 0254 697000   		.ascii	"ip\000"
 5437 0257 01       		.byte	0x1
 5438 0258 1301     		.2byte	0x113
 5439 025a 85000000 		.4byte	0x85
 5440 025e 02       		.byte	0x2
 5441 025f 91       		.byte	0x91
 5442 0260 68       		.sleb128 -24
 5443 0261 14       		.uleb128 0x14
 5444 0262 54020000 		.4byte	.LASF23
 5445 0266 01       		.byte	0x1
 5446 0267 1501     		.2byte	0x115
 5447 0269 85000000 		.4byte	0x85
 5448 026d 02       		.byte	0x2
ARM GAS  C:\Users\CHUCK~1.ERH\AppData\Local\Temp\ccSfgJB7.s 			page 124


 5449 026e 91       		.byte	0x91
 5450 026f 74       		.sleb128 -12
 5451 0270 14       		.uleb128 0x14
 5452 0271 6E000000 		.4byte	.LASF27
 5453 0275 01       		.byte	0x1
 5454 0276 1601     		.2byte	0x116
 5455 0278 DC010000 		.4byte	0x1dc
 5456 027c 02       		.byte	0x2
 5457 027d 91       		.byte	0x91
 5458 027e 70       		.sleb128 -16
 5459 027f 00       		.byte	0
 5460 0280 15       		.uleb128 0x15
 5461 0281 B1050000 		.4byte	.LASF29
 5462 0285 01       		.byte	0x1
 5463 0286 2301     		.2byte	0x123
 5464 0288 01       		.byte	0x1
 5465 0289 85000000 		.4byte	0x85
 5466 028d 00000000 		.4byte	.LFB6
 5467 0291 5A000000 		.4byte	.LFE6
 5468 0295 44010000 		.4byte	.LLST6
 5469 0299 01       		.byte	0x1
 5470 029a DA020000 		.4byte	0x2da
 5471 029e 12       		.uleb128 0x12
 5472 029f 29080000 		.4byte	.LASF21
 5473 02a3 01       		.byte	0x1
 5474 02a4 2301     		.2byte	0x123
 5475 02a6 7A000000 		.4byte	0x7a
 5476 02aa 02       		.byte	0x2
 5477 02ab 91       		.byte	0x91
 5478 02ac 66       		.sleb128 -26
 5479 02ad 14       		.uleb128 0x14
 5480 02ae 6E000000 		.4byte	.LASF27
 5481 02b2 01       		.byte	0x1
 5482 02b3 2501     		.2byte	0x125
 5483 02b5 DA020000 		.4byte	0x2da
 5484 02b9 02       		.byte	0x2
 5485 02ba 91       		.byte	0x91
 5486 02bb 6C       		.sleb128 -20
 5487 02bc 14       		.uleb128 0x14
 5488 02bd 54020000 		.4byte	.LASF23
 5489 02c1 01       		.byte	0x1
 5490 02c2 2601     		.2byte	0x126
 5491 02c4 61000000 		.4byte	0x61
 5492 02c8 02       		.byte	0x2
 5493 02c9 91       		.byte	0x91
 5494 02ca 74       		.sleb128 -12
 5495 02cb 16       		.uleb128 0x16
 5496 02cc 697000   		.ascii	"ip\000"
 5497 02cf 01       		.byte	0x1
 5498 02d0 2701     		.2byte	0x127
 5499 02d2 EA020000 		.4byte	0x2ea
 5500 02d6 02       		.byte	0x2
 5501 02d7 91       		.byte	0x91
 5502 02d8 70       		.sleb128 -16
 5503 02d9 00       		.byte	0
 5504 02da 17       		.uleb128 0x17
 5505 02db 6F000000 		.4byte	0x6f
ARM GAS  C:\Users\CHUCK~1.ERH\AppData\Local\Temp\ccSfgJB7.s 			page 125


 5506 02df EA020000 		.4byte	0x2ea
 5507 02e3 18       		.uleb128 0x18
 5508 02e4 A5000000 		.4byte	0xa5
 5509 02e8 03       		.byte	0x3
 5510 02e9 00       		.byte	0
 5511 02ea 05       		.uleb128 0x5
 5512 02eb 04       		.byte	0x4
 5513 02ec 85000000 		.4byte	0x85
 5514 02f0 11       		.uleb128 0x11
 5515 02f1 91030000 		.4byte	.LASF28
 5516 02f5 01       		.byte	0x1
 5517 02f6 3601     		.2byte	0x136
 5518 02f8 01       		.byte	0x1
 5519 02f9 00000000 		.4byte	.LFB7
 5520 02fd 3E000000 		.4byte	.LFE7
 5521 0301 7C010000 		.4byte	.LLST7
 5522 0305 01       		.byte	0x1
 5523 0306 29030000 		.4byte	0x329
 5524 030a 12       		.uleb128 0x12
 5525 030b 29080000 		.4byte	.LASF21
 5526 030f 01       		.byte	0x1
 5527 0310 3601     		.2byte	0x136
 5528 0312 7A000000 		.4byte	0x7a
 5529 0316 02       		.byte	0x2
 5530 0317 91       		.byte	0x91
 5531 0318 76       		.sleb128 -10
 5532 0319 13       		.uleb128 0x13
 5533 031a 76616C00 		.ascii	"val\000"
 5534 031e 01       		.byte	0x1
 5535 031f 3601     		.2byte	0x136
 5536 0321 7A000000 		.4byte	0x7a
 5537 0325 02       		.byte	0x2
 5538 0326 91       		.byte	0x91
 5539 0327 74       		.sleb128 -12
 5540 0328 00       		.byte	0
 5541 0329 15       		.uleb128 0x15
 5542 032a CD020000 		.4byte	.LASF30
 5543 032e 01       		.byte	0x1
 5544 032f 4101     		.2byte	0x141
 5545 0331 01       		.byte	0x1
 5546 0332 7A000000 		.4byte	0x7a
 5547 0336 00000000 		.4byte	.LFB8
 5548 033a 42000000 		.4byte	.LFE8
 5549 033e B4010000 		.4byte	.LLST8
 5550 0342 01       		.byte	0x1
 5551 0343 66030000 		.4byte	0x366
 5552 0347 12       		.uleb128 0x12
 5553 0348 29080000 		.4byte	.LASF21
 5554 034c 01       		.byte	0x1
 5555 034d 4101     		.2byte	0x141
 5556 034f 7A000000 		.4byte	0x7a
 5557 0353 02       		.byte	0x2
 5558 0354 91       		.byte	0x91
 5559 0355 6E       		.sleb128 -18
 5560 0356 16       		.uleb128 0x16
 5561 0357 76616C00 		.ascii	"val\000"
 5562 035b 01       		.byte	0x1
ARM GAS  C:\Users\CHUCK~1.ERH\AppData\Local\Temp\ccSfgJB7.s 			page 126


 5563 035c 4301     		.2byte	0x143
 5564 035e 7A000000 		.4byte	0x7a
 5565 0362 02       		.byte	0x2
 5566 0363 91       		.byte	0x91
 5567 0364 76       		.sleb128 -10
 5568 0365 00       		.byte	0
 5569 0366 11       		.uleb128 0x11
 5570 0367 75000000 		.4byte	.LASF31
 5571 036b 01       		.byte	0x1
 5572 036c 5201     		.2byte	0x152
 5573 036e 01       		.byte	0x1
 5574 036f 00000000 		.4byte	.LFB9
 5575 0373 4A000000 		.4byte	.LFE9
 5576 0377 EC010000 		.4byte	.LLST9
 5577 037b 01       		.byte	0x1
 5578 037c BD030000 		.4byte	0x3bd
 5579 0380 12       		.uleb128 0x12
 5580 0381 29080000 		.4byte	.LASF21
 5581 0385 01       		.byte	0x1
 5582 0386 5201     		.2byte	0x152
 5583 0388 7A000000 		.4byte	0x7a
 5584 038c 02       		.byte	0x2
 5585 038d 91       		.byte	0x91
 5586 038e 6E       		.sleb128 -18
 5587 038f 12       		.uleb128 0x12
 5588 0390 6E000000 		.4byte	.LASF27
 5589 0394 01       		.byte	0x1
 5590 0395 5201     		.2byte	0x152
 5591 0397 DC010000 		.4byte	0x1dc
 5592 039b 02       		.byte	0x2
 5593 039c 91       		.byte	0x91
 5594 039d 68       		.sleb128 -24
 5595 039e 12       		.uleb128 0x12
 5596 039f 28060000 		.4byte	.LASF32
 5597 03a3 01       		.byte	0x1
 5598 03a4 5201     		.2byte	0x152
 5599 03a6 7A000000 		.4byte	0x7a
 5600 03aa 02       		.byte	0x2
 5601 03ab 91       		.byte	0x91
 5602 03ac 6C       		.sleb128 -20
 5603 03ad 14       		.uleb128 0x14
 5604 03ae 54020000 		.4byte	.LASF23
 5605 03b2 01       		.byte	0x1
 5606 03b3 5401     		.2byte	0x154
 5607 03b5 61000000 		.4byte	0x61
 5608 03b9 02       		.byte	0x2
 5609 03ba 91       		.byte	0x91
 5610 03bb 74       		.sleb128 -12
 5611 03bc 00       		.byte	0
 5612 03bd 11       		.uleb128 0x11
 5613 03be C4010000 		.4byte	.LASF33
 5614 03c2 01       		.byte	0x1
 5615 03c3 6001     		.2byte	0x160
 5616 03c5 01       		.byte	0x1
 5617 03c6 00000000 		.4byte	.LFB10
 5618 03ca 4A000000 		.4byte	.LFE10
 5619 03ce 24020000 		.4byte	.LLST10
ARM GAS  C:\Users\CHUCK~1.ERH\AppData\Local\Temp\ccSfgJB7.s 			page 127


 5620 03d2 01       		.byte	0x1
 5621 03d3 14040000 		.4byte	0x414
 5622 03d7 12       		.uleb128 0x12
 5623 03d8 29080000 		.4byte	.LASF21
 5624 03dc 01       		.byte	0x1
 5625 03dd 6001     		.2byte	0x160
 5626 03df 7A000000 		.4byte	0x7a
 5627 03e3 02       		.byte	0x2
 5628 03e4 91       		.byte	0x91
 5629 03e5 66       		.sleb128 -26
 5630 03e6 12       		.uleb128 0x12
 5631 03e7 6E000000 		.4byte	.LASF27
 5632 03eb 01       		.byte	0x1
 5633 03ec 6001     		.2byte	0x160
 5634 03ee DC010000 		.4byte	0x1dc
 5635 03f2 02       		.byte	0x2
 5636 03f3 91       		.byte	0x91
 5637 03f4 60       		.sleb128 -32
 5638 03f5 12       		.uleb128 0x12
 5639 03f6 28060000 		.4byte	.LASF32
 5640 03fa 01       		.byte	0x1
 5641 03fb 6001     		.2byte	0x160
 5642 03fd 7A000000 		.4byte	0x7a
 5643 0401 02       		.byte	0x2
 5644 0402 91       		.byte	0x91
 5645 0403 64       		.sleb128 -28
 5646 0404 14       		.uleb128 0x14
 5647 0405 54020000 		.4byte	.LASF23
 5648 0409 01       		.byte	0x1
 5649 040a 6201     		.2byte	0x162
 5650 040c 61000000 		.4byte	0x61
 5651 0410 02       		.byte	0x2
 5652 0411 91       		.byte	0x91
 5653 0412 6C       		.sleb128 -20
 5654 0413 00       		.byte	0
 5655 0414 11       		.uleb128 0x11
 5656 0415 9A060000 		.4byte	.LASF34
 5657 0419 01       		.byte	0x1
 5658 041a 7401     		.2byte	0x174
 5659 041c 01       		.byte	0x1
 5660 041d 00000000 		.4byte	.LFB11
 5661 0421 1A000000 		.4byte	.LFE11
 5662 0425 5C020000 		.4byte	.LLST11
 5663 0429 01       		.byte	0x1
 5664 042a 3E040000 		.4byte	0x43e
 5665 042e 13       		.uleb128 0x13
 5666 042f 6D616300 		.ascii	"mac\000"
 5667 0433 01       		.byte	0x1
 5668 0434 7401     		.2byte	0x174
 5669 0436 DC010000 		.4byte	0x1dc
 5670 043a 02       		.byte	0x2
 5671 043b 91       		.byte	0x91
 5672 043c 74       		.sleb128 -12
 5673 043d 00       		.byte	0
 5674 043e 11       		.uleb128 0x11
 5675 043f 45040000 		.4byte	.LASF35
 5676 0443 01       		.byte	0x1
ARM GAS  C:\Users\CHUCK~1.ERH\AppData\Local\Temp\ccSfgJB7.s 			page 128


 5677 0444 7A01     		.2byte	0x17a
 5678 0446 01       		.byte	0x1
 5679 0447 00000000 		.4byte	.LFB12
 5680 044b 1A000000 		.4byte	.LFE12
 5681 044f 94020000 		.4byte	.LLST12
 5682 0453 01       		.byte	0x1
 5683 0454 68040000 		.4byte	0x468
 5684 0458 13       		.uleb128 0x13
 5685 0459 6D616300 		.ascii	"mac\000"
 5686 045d 01       		.byte	0x1
 5687 045e 7A01     		.2byte	0x17a
 5688 0460 DC010000 		.4byte	0x1dc
 5689 0464 02       		.byte	0x2
 5690 0465 91       		.byte	0x91
 5691 0466 74       		.sleb128 -12
 5692 0467 00       		.byte	0
 5693 0468 11       		.uleb128 0x11
 5694 0469 8E080000 		.4byte	.LASF36
 5695 046d 01       		.byte	0x1
 5696 046e 8001     		.2byte	0x180
 5697 0470 01       		.byte	0x1
 5698 0471 00000000 		.4byte	.LFB13
 5699 0475 1A000000 		.4byte	.LFE13
 5700 0479 CC020000 		.4byte	.LLST13
 5701 047d 01       		.byte	0x1
 5702 047e 91040000 		.4byte	0x491
 5703 0482 13       		.uleb128 0x13
 5704 0483 697000   		.ascii	"ip\000"
 5705 0486 01       		.byte	0x1
 5706 0487 8001     		.2byte	0x180
 5707 0489 85000000 		.4byte	0x85
 5708 048d 02       		.byte	0x2
 5709 048e 91       		.byte	0x91
 5710 048f 74       		.sleb128 -12
 5711 0490 00       		.byte	0
 5712 0491 19       		.uleb128 0x19
 5713 0492 4A090000 		.4byte	.LASF38
 5714 0496 01       		.byte	0x1
 5715 0497 8601     		.2byte	0x186
 5716 0499 01       		.byte	0x1
 5717 049a 85000000 		.4byte	0x85
 5718 049e 00000000 		.4byte	.LFB14
 5719 04a2 12000000 		.4byte	.LFE14
 5720 04a6 04030000 		.4byte	.LLST14
 5721 04aa 01       		.byte	0x1
 5722 04ab 11       		.uleb128 0x11
 5723 04ac 8E050000 		.4byte	.LASF37
 5724 04b0 01       		.byte	0x1
 5725 04b1 8C01     		.2byte	0x18c
 5726 04b3 01       		.byte	0x1
 5727 04b4 00000000 		.4byte	.LFB15
 5728 04b8 1A000000 		.4byte	.LFE15
 5729 04bc 30030000 		.4byte	.LLST15
 5730 04c0 01       		.byte	0x1
 5731 04c1 D4040000 		.4byte	0x4d4
 5732 04c5 13       		.uleb128 0x13
 5733 04c6 697000   		.ascii	"ip\000"
ARM GAS  C:\Users\CHUCK~1.ERH\AppData\Local\Temp\ccSfgJB7.s 			page 129


 5734 04c9 01       		.byte	0x1
 5735 04ca 8C01     		.2byte	0x18c
 5736 04cc 85000000 		.4byte	0x85
 5737 04d0 02       		.byte	0x2
 5738 04d1 91       		.byte	0x91
 5739 04d2 74       		.sleb128 -12
 5740 04d3 00       		.byte	0
 5741 04d4 19       		.uleb128 0x19
 5742 04d5 E9050000 		.4byte	.LASF39
 5743 04d9 01       		.byte	0x1
 5744 04da 9201     		.2byte	0x192
 5745 04dc 01       		.byte	0x1
 5746 04dd 85000000 		.4byte	0x85
 5747 04e1 00000000 		.4byte	.LFB16
 5748 04e5 12000000 		.4byte	.LFE16
 5749 04e9 68030000 		.4byte	.LLST16
 5750 04ed 01       		.byte	0x1
 5751 04ee 11       		.uleb128 0x11
 5752 04ef 4A010000 		.4byte	.LASF40
 5753 04f3 01       		.byte	0x1
 5754 04f4 9801     		.2byte	0x198
 5755 04f6 01       		.byte	0x1
 5756 04f7 00000000 		.4byte	.LFB17
 5757 04fb 1A000000 		.4byte	.LFE17
 5758 04ff 94030000 		.4byte	.LLST17
 5759 0503 01       		.byte	0x1
 5760 0504 17050000 		.4byte	0x517
 5761 0508 13       		.uleb128 0x13
 5762 0509 697000   		.ascii	"ip\000"
 5763 050c 01       		.byte	0x1
 5764 050d 9801     		.2byte	0x198
 5765 050f 85000000 		.4byte	0x85
 5766 0513 02       		.byte	0x2
 5767 0514 91       		.byte	0x91
 5768 0515 74       		.sleb128 -12
 5769 0516 00       		.byte	0
 5770 0517 19       		.uleb128 0x19
 5771 0518 8A020000 		.4byte	.LASF41
 5772 051c 01       		.byte	0x1
 5773 051d 9E01     		.2byte	0x19e
 5774 051f 01       		.byte	0x1
 5775 0520 85000000 		.4byte	0x85
 5776 0524 00000000 		.4byte	.LFB18
 5777 0528 12000000 		.4byte	.LFE18
 5778 052c CC030000 		.4byte	.LLST18
 5779 0530 01       		.byte	0x1
 5780 0531 11       		.uleb128 0x11
 5781 0532 16030000 		.4byte	.LASF42
 5782 0536 01       		.byte	0x1
 5783 0537 A401     		.2byte	0x1a4
 5784 0539 01       		.byte	0x1
 5785 053a 00000000 		.4byte	.LFB19
 5786 053e 1E000000 		.4byte	.LFE19
 5787 0542 F8030000 		.4byte	.LLST19
 5788 0546 01       		.byte	0x1
 5789 0547 5B050000 		.4byte	0x55b
 5790 054b 12       		.uleb128 0x12
ARM GAS  C:\Users\CHUCK~1.ERH\AppData\Local\Temp\ccSfgJB7.s 			page 130


 5791 054c 5B010000 		.4byte	.LASF43
 5792 0550 01       		.byte	0x1
 5793 0551 A401     		.2byte	0x1a4
 5794 0553 6F000000 		.4byte	0x6f
 5795 0557 02       		.byte	0x2
 5796 0558 91       		.byte	0x91
 5797 0559 77       		.sleb128 -9
 5798 055a 00       		.byte	0
 5799 055b 19       		.uleb128 0x19
 5800 055c 81050000 		.4byte	.LASF44
 5801 0560 01       		.byte	0x1
 5802 0561 AA01     		.2byte	0x1aa
 5803 0563 01       		.byte	0x1
 5804 0564 6F000000 		.4byte	0x6f
 5805 0568 00000000 		.4byte	.LFB20
 5806 056c 12000000 		.4byte	.LFE20
 5807 0570 30040000 		.4byte	.LLST20
 5808 0574 01       		.byte	0x1
 5809 0575 11       		.uleb128 0x11
 5810 0576 39030000 		.4byte	.LASF45
 5811 057a 01       		.byte	0x1
 5812 057b B001     		.2byte	0x1b0
 5813 057d 01       		.byte	0x1
 5814 057e 00000000 		.4byte	.LFB21
 5815 0582 1E000000 		.4byte	.LFE21
 5816 0586 5C040000 		.4byte	.LLST21
 5817 058a 01       		.byte	0x1
 5818 058b 9E050000 		.4byte	0x59e
 5819 058f 13       		.uleb128 0x13
 5820 0590 697200   		.ascii	"ir\000"
 5821 0593 01       		.byte	0x1
 5822 0594 B001     		.2byte	0x1b0
 5823 0596 6F000000 		.4byte	0x6f
 5824 059a 02       		.byte	0x2
 5825 059b 91       		.byte	0x91
 5826 059c 77       		.sleb128 -9
 5827 059d 00       		.byte	0
 5828 059e 19       		.uleb128 0x19
 5829 059f 0D050000 		.4byte	.LASF46
 5830 05a3 01       		.byte	0x1
 5831 05a4 B601     		.2byte	0x1b6
 5832 05a6 01       		.byte	0x1
 5833 05a7 6F000000 		.4byte	0x6f
 5834 05ab 00000000 		.4byte	.LFB22
 5835 05af 12000000 		.4byte	.LFE22
 5836 05b3 94040000 		.4byte	.LLST22
 5837 05b7 01       		.byte	0x1
 5838 05b8 11       		.uleb128 0x11
 5839 05b9 F4090000 		.4byte	.LASF47
 5840 05bd 01       		.byte	0x1
 5841 05be BC01     		.2byte	0x1bc
 5842 05c0 01       		.byte	0x1
 5843 05c1 00000000 		.4byte	.LFB23
 5844 05c5 1E000000 		.4byte	.LFE23
 5845 05c9 C0040000 		.4byte	.LLST23
 5846 05cd 01       		.byte	0x1
 5847 05ce E2050000 		.4byte	0x5e2
ARM GAS  C:\Users\CHUCK~1.ERH\AppData\Local\Temp\ccSfgJB7.s 			page 131


 5848 05d2 13       		.uleb128 0x13
 5849 05d3 696D7200 		.ascii	"imr\000"
 5850 05d7 01       		.byte	0x1
 5851 05d8 BC01     		.2byte	0x1bc
 5852 05da 6F000000 		.4byte	0x6f
 5853 05de 02       		.byte	0x2
 5854 05df 91       		.byte	0x91
 5855 05e0 77       		.sleb128 -9
 5856 05e1 00       		.byte	0
 5857 05e2 19       		.uleb128 0x19
 5858 05e3 7B060000 		.4byte	.LASF48
 5859 05e7 01       		.byte	0x1
 5860 05e8 C201     		.2byte	0x1c2
 5861 05ea 01       		.byte	0x1
 5862 05eb 6F000000 		.4byte	0x6f
 5863 05ef 00000000 		.4byte	.LFB24
 5864 05f3 12000000 		.4byte	.LFE24
 5865 05f7 F8040000 		.4byte	.LLST24
 5866 05fb 01       		.byte	0x1
 5867 05fc 11       		.uleb128 0x11
 5868 05fd 5B070000 		.4byte	.LASF49
 5869 0601 01       		.byte	0x1
 5870 0602 C801     		.2byte	0x1c8
 5871 0604 01       		.byte	0x1
 5872 0605 00000000 		.4byte	.LFB25
 5873 0609 1E000000 		.4byte	.LFE25
 5874 060d 24050000 		.4byte	.LLST25
 5875 0611 01       		.byte	0x1
 5876 0612 26060000 		.4byte	0x626
 5877 0616 12       		.uleb128 0x12
 5878 0617 B1020000 		.4byte	.LASF50
 5879 061b 01       		.byte	0x1
 5880 061c C801     		.2byte	0x1c8
 5881 061e 7A000000 		.4byte	0x7a
 5882 0622 02       		.byte	0x2
 5883 0623 91       		.byte	0x91
 5884 0624 76       		.sleb128 -10
 5885 0625 00       		.byte	0
 5886 0626 19       		.uleb128 0x19
 5887 0627 E7040000 		.4byte	.LASF51
 5888 062b 01       		.byte	0x1
 5889 062c CE01     		.2byte	0x1ce
 5890 062e 01       		.byte	0x1
 5891 062f 7A000000 		.4byte	0x7a
 5892 0633 00000000 		.4byte	.LFB26
 5893 0637 12000000 		.4byte	.LFE26
 5894 063b 5C050000 		.4byte	.LLST26
 5895 063f 01       		.byte	0x1
 5896 0640 11       		.uleb128 0x11
 5897 0641 68080000 		.4byte	.LASF52
 5898 0645 01       		.byte	0x1
 5899 0646 D401     		.2byte	0x1d4
 5900 0648 01       		.byte	0x1
 5901 0649 00000000 		.4byte	.LFB27
 5902 064d 1E000000 		.4byte	.LFE27
 5903 0651 88050000 		.4byte	.LLST27
 5904 0655 01       		.byte	0x1
ARM GAS  C:\Users\CHUCK~1.ERH\AppData\Local\Temp\ccSfgJB7.s 			page 132


 5905 0656 6A060000 		.4byte	0x66a
 5906 065a 12       		.uleb128 0x12
 5907 065b 4E020000 		.4byte	.LASF22
 5908 065f 01       		.byte	0x1
 5909 0660 D401     		.2byte	0x1d4
 5910 0662 6F000000 		.4byte	0x6f
 5911 0666 02       		.byte	0x2
 5912 0667 91       		.byte	0x91
 5913 0668 77       		.sleb128 -9
 5914 0669 00       		.byte	0
 5915 066a 19       		.uleb128 0x19
 5916 066b D6090000 		.4byte	.LASF53
 5917 066f 01       		.byte	0x1
 5918 0670 DA01     		.2byte	0x1da
 5919 0672 01       		.byte	0x1
 5920 0673 6F000000 		.4byte	0x6f
 5921 0677 00000000 		.4byte	.LFB28
 5922 067b 12000000 		.4byte	.LFE28
 5923 067f C0050000 		.4byte	.LLST28
 5924 0683 01       		.byte	0x1
 5925 0684 11       		.uleb128 0x11
 5926 0685 8A040000 		.4byte	.LASF54
 5927 0689 01       		.byte	0x1
 5928 068a E001     		.2byte	0x1e0
 5929 068c 01       		.byte	0x1
 5930 068d 00000000 		.4byte	.LFB29
 5931 0691 1E000000 		.4byte	.LFE29
 5932 0695 EC050000 		.4byte	.LLST29
 5933 0699 01       		.byte	0x1
 5934 069a AE060000 		.4byte	0x6ae
 5935 069e 12       		.uleb128 0x12
 5936 069f 38050000 		.4byte	.LASF55
 5937 06a3 01       		.byte	0x1
 5938 06a4 E001     		.2byte	0x1e0
 5939 06a6 6F000000 		.4byte	0x6f
 5940 06aa 02       		.byte	0x2
 5941 06ab 91       		.byte	0x91
 5942 06ac 77       		.sleb128 -9
 5943 06ad 00       		.byte	0
 5944 06ae 19       		.uleb128 0x19
 5945 06af 04030000 		.4byte	.LASF56
 5946 06b3 01       		.byte	0x1
 5947 06b4 E601     		.2byte	0x1e6
 5948 06b6 01       		.byte	0x1
 5949 06b7 6F000000 		.4byte	0x6f
 5950 06bb 00000000 		.4byte	.LFB30
 5951 06bf 12000000 		.4byte	.LFE30
 5952 06c3 24060000 		.4byte	.LLST30
 5953 06c7 01       		.byte	0x1
 5954 06c8 11       		.uleb128 0x11
 5955 06c9 BD000000 		.4byte	.LASF57
 5956 06cd 01       		.byte	0x1
 5957 06ce EC01     		.2byte	0x1ec
 5958 06d0 01       		.byte	0x1
 5959 06d1 00000000 		.4byte	.LFB31
 5960 06d5 1E000000 		.4byte	.LFE31
 5961 06d9 50060000 		.4byte	.LLST31
ARM GAS  C:\Users\CHUCK~1.ERH\AppData\Local\Temp\ccSfgJB7.s 			page 133


 5962 06dd 01       		.byte	0x1
 5963 06de F2060000 		.4byte	0x6f2
 5964 06e2 12       		.uleb128 0x12
 5965 06e3 38050000 		.4byte	.LASF55
 5966 06e7 01       		.byte	0x1
 5967 06e8 EC01     		.2byte	0x1ec
 5968 06ea 6F000000 		.4byte	0x6f
 5969 06ee 02       		.byte	0x2
 5970 06ef 91       		.byte	0x91
 5971 06f0 77       		.sleb128 -9
 5972 06f1 00       		.byte	0
 5973 06f2 19       		.uleb128 0x19
 5974 06f3 F5080000 		.4byte	.LASF58
 5975 06f7 01       		.byte	0x1
 5976 06f8 F201     		.2byte	0x1f2
 5977 06fa 01       		.byte	0x1
 5978 06fb 6F000000 		.4byte	0x6f
 5979 06ff 00000000 		.4byte	.LFB32
 5980 0703 12000000 		.4byte	.LFE32
 5981 0707 88060000 		.4byte	.LLST32
 5982 070b 01       		.byte	0x1
 5983 070c 11       		.uleb128 0x11
 5984 070d C8030000 		.4byte	.LASF59
 5985 0711 01       		.byte	0x1
 5986 0712 F801     		.2byte	0x1f8
 5987 0714 01       		.byte	0x1
 5988 0715 00000000 		.4byte	.LFB33
 5989 0719 1A000000 		.4byte	.LFE33
 5990 071d B4060000 		.4byte	.LLST33
 5991 0721 01       		.byte	0x1
 5992 0722 35070000 		.4byte	0x735
 5993 0726 13       		.uleb128 0x13
 5994 0727 697000   		.ascii	"ip\000"
 5995 072a 01       		.byte	0x1
 5996 072b F801     		.2byte	0x1f8
 5997 072d 85000000 		.4byte	0x85
 5998 0731 02       		.byte	0x2
 5999 0732 91       		.byte	0x91
 6000 0733 74       		.sleb128 -12
 6001 0734 00       		.byte	0
 6002 0735 19       		.uleb128 0x19
 6003 0736 59050000 		.4byte	.LASF60
 6004 073a 01       		.byte	0x1
 6005 073b FE01     		.2byte	0x1fe
 6006 073d 01       		.byte	0x1
 6007 073e 85000000 		.4byte	0x85
 6008 0742 00000000 		.4byte	.LFB34
 6009 0746 12000000 		.4byte	.LFE34
 6010 074a EC060000 		.4byte	.LLST34
 6011 074e 01       		.byte	0x1
 6012 074f 11       		.uleb128 0x11
 6013 0750 F5030000 		.4byte	.LASF61
 6014 0754 01       		.byte	0x1
 6015 0755 0402     		.2byte	0x204
 6016 0757 01       		.byte	0x1
 6017 0758 00000000 		.4byte	.LFB35
 6018 075c 1E000000 		.4byte	.LFE35
ARM GAS  C:\Users\CHUCK~1.ERH\AppData\Local\Temp\ccSfgJB7.s 			page 134


 6019 0760 18070000 		.4byte	.LLST35
 6020 0764 01       		.byte	0x1
 6021 0765 79070000 		.4byte	0x779
 6022 0769 12       		.uleb128 0x12
 6023 076a 56070000 		.4byte	.LASF62
 6024 076e 01       		.byte	0x1
 6025 076f 0402     		.2byte	0x204
 6026 0771 7A000000 		.4byte	0x7a
 6027 0775 02       		.byte	0x2
 6028 0776 91       		.byte	0x91
 6029 0777 76       		.sleb128 -10
 6030 0778 00       		.byte	0
 6031 0779 19       		.uleb128 0x19
 6032 077a 3E070000 		.4byte	.LASF63
 6033 077e 01       		.byte	0x1
 6034 077f 0A02     		.2byte	0x20a
 6035 0781 01       		.byte	0x1
 6036 0782 7A000000 		.4byte	0x7a
 6037 0786 00000000 		.4byte	.LFB36
 6038 078a 12000000 		.4byte	.LFE36
 6039 078e 50070000 		.4byte	.LLST36
 6040 0792 01       		.byte	0x1
 6041 0793 11       		.uleb128 0x11
 6042 0794 24010000 		.4byte	.LASF64
 6043 0798 01       		.byte	0x1
 6044 0799 1C02     		.2byte	0x21c
 6045 079b 01       		.byte	0x1
 6046 079c 00000000 		.4byte	.LFB37
 6047 07a0 30000000 		.4byte	.LFE37
 6048 07a4 7C070000 		.4byte	.LLST37
 6049 07a8 01       		.byte	0x1
 6050 07a9 CC070000 		.4byte	0x7cc
 6051 07ad 12       		.uleb128 0x12
 6052 07ae 5C060000 		.4byte	.LASF65
 6053 07b2 01       		.byte	0x1
 6054 07b3 1C02     		.2byte	0x21c
 6055 07b5 6F000000 		.4byte	0x6f
 6056 07b9 02       		.byte	0x2
 6057 07ba 91       		.byte	0x91
 6058 07bb 77       		.sleb128 -9
 6059 07bc 12       		.uleb128 0x12
 6060 07bd 5B010000 		.4byte	.LASF43
 6061 07c1 01       		.byte	0x1
 6062 07c2 1C02     		.2byte	0x21c
 6063 07c4 6F000000 		.4byte	0x6f
 6064 07c8 02       		.byte	0x2
 6065 07c9 91       		.byte	0x91
 6066 07ca 76       		.sleb128 -10
 6067 07cb 00       		.byte	0
 6068 07cc 15       		.uleb128 0x15
 6069 07cd A6010000 		.4byte	.LASF66
 6070 07d1 01       		.byte	0x1
 6071 07d2 2402     		.2byte	0x224
 6072 07d4 01       		.byte	0x1
 6073 07d5 6F000000 		.4byte	0x6f
 6074 07d9 00000000 		.4byte	.LFB38
 6075 07dd 2C000000 		.4byte	.LFE38
ARM GAS  C:\Users\CHUCK~1.ERH\AppData\Local\Temp\ccSfgJB7.s 			page 135


 6076 07e1 B4070000 		.4byte	.LLST38
 6077 07e5 01       		.byte	0x1
 6078 07e6 FA070000 		.4byte	0x7fa
 6079 07ea 12       		.uleb128 0x12
 6080 07eb 5C060000 		.4byte	.LASF65
 6081 07ef 01       		.byte	0x1
 6082 07f0 2402     		.2byte	0x224
 6083 07f2 6F000000 		.4byte	0x6f
 6084 07f6 02       		.byte	0x2
 6085 07f7 91       		.byte	0x91
 6086 07f8 77       		.sleb128 -9
 6087 07f9 00       		.byte	0
 6088 07fa 11       		.uleb128 0x11
 6089 07fb 33020000 		.4byte	.LASF67
 6090 07ff 01       		.byte	0x1
 6091 0800 2C02     		.2byte	0x22c
 6092 0802 01       		.byte	0x1
 6093 0803 00000000 		.4byte	.LFB39
 6094 0807 30000000 		.4byte	.LFE39
 6095 080b EC070000 		.4byte	.LLST39
 6096 080f 01       		.byte	0x1
 6097 0810 33080000 		.4byte	0x833
 6098 0814 12       		.uleb128 0x12
 6099 0815 5C060000 		.4byte	.LASF65
 6100 0819 01       		.byte	0x1
 6101 081a 2C02     		.2byte	0x22c
 6102 081c 6F000000 		.4byte	0x6f
 6103 0820 02       		.byte	0x2
 6104 0821 91       		.byte	0x91
 6105 0822 77       		.sleb128 -9
 6106 0823 13       		.uleb128 0x13
 6107 0824 636D6400 		.ascii	"cmd\000"
 6108 0828 01       		.byte	0x1
 6109 0829 2C02     		.2byte	0x22c
 6110 082b 6F000000 		.4byte	0x6f
 6111 082f 02       		.byte	0x2
 6112 0830 91       		.byte	0x91
 6113 0831 76       		.sleb128 -10
 6114 0832 00       		.byte	0
 6115 0833 15       		.uleb128 0x15
 6116 0834 46060000 		.4byte	.LASF68
 6117 0838 01       		.byte	0x1
 6118 0839 3402     		.2byte	0x234
 6119 083b 01       		.byte	0x1
 6120 083c 6F000000 		.4byte	0x6f
 6121 0840 00000000 		.4byte	.LFB40
 6122 0844 2C000000 		.4byte	.LFE40
 6123 0848 24080000 		.4byte	.LLST40
 6124 084c 01       		.byte	0x1
 6125 084d 61080000 		.4byte	0x861
 6126 0851 12       		.uleb128 0x12
 6127 0852 5C060000 		.4byte	.LASF65
 6128 0856 01       		.byte	0x1
 6129 0857 3402     		.2byte	0x234
 6130 0859 6F000000 		.4byte	0x6f
 6131 085d 02       		.byte	0x2
 6132 085e 91       		.byte	0x91
ARM GAS  C:\Users\CHUCK~1.ERH\AppData\Local\Temp\ccSfgJB7.s 			page 136


 6133 085f 77       		.sleb128 -9
 6134 0860 00       		.byte	0
 6135 0861 11       		.uleb128 0x11
 6136 0862 92070000 		.4byte	.LASF69
 6137 0866 01       		.byte	0x1
 6138 0867 3C02     		.2byte	0x23c
 6139 0869 01       		.byte	0x1
 6140 086a 00000000 		.4byte	.LFB41
 6141 086e 30000000 		.4byte	.LFE41
 6142 0872 5C080000 		.4byte	.LLST41
 6143 0876 01       		.byte	0x1
 6144 0877 99080000 		.4byte	0x899
 6145 087b 12       		.uleb128 0x12
 6146 087c 5C060000 		.4byte	.LASF65
 6147 0880 01       		.byte	0x1
 6148 0881 3C02     		.2byte	0x23c
 6149 0883 6F000000 		.4byte	0x6f
 6150 0887 02       		.byte	0x2
 6151 0888 91       		.byte	0x91
 6152 0889 77       		.sleb128 -9
 6153 088a 13       		.uleb128 0x13
 6154 088b 697200   		.ascii	"ir\000"
 6155 088e 01       		.byte	0x1
 6156 088f 3C02     		.2byte	0x23c
 6157 0891 6F000000 		.4byte	0x6f
 6158 0895 02       		.byte	0x2
 6159 0896 91       		.byte	0x91
 6160 0897 76       		.sleb128 -10
 6161 0898 00       		.byte	0
 6162 0899 15       		.uleb128 0x15
 6163 089a 07090000 		.4byte	.LASF70
 6164 089e 01       		.byte	0x1
 6165 089f 4402     		.2byte	0x244
 6166 08a1 01       		.byte	0x1
 6167 08a2 6F000000 		.4byte	0x6f
 6168 08a6 00000000 		.4byte	.LFB42
 6169 08aa 2C000000 		.4byte	.LFE42
 6170 08ae 94080000 		.4byte	.LLST42
 6171 08b2 01       		.byte	0x1
 6172 08b3 C7080000 		.4byte	0x8c7
 6173 08b7 12       		.uleb128 0x12
 6174 08b8 5C060000 		.4byte	.LASF65
 6175 08bc 01       		.byte	0x1
 6176 08bd 4402     		.2byte	0x244
 6177 08bf 6F000000 		.4byte	0x6f
 6178 08c3 02       		.byte	0x2
 6179 08c4 91       		.byte	0x91
 6180 08c5 77       		.sleb128 -9
 6181 08c6 00       		.byte	0
 6182 08c7 11       		.uleb128 0x11
 6183 08c8 44050000 		.4byte	.LASF71
 6184 08cc 01       		.byte	0x1
 6185 08cd 4C02     		.2byte	0x24c
 6186 08cf 01       		.byte	0x1
 6187 08d0 00000000 		.4byte	.LFB43
 6188 08d4 30000000 		.4byte	.LFE43
 6189 08d8 CC080000 		.4byte	.LLST43
ARM GAS  C:\Users\CHUCK~1.ERH\AppData\Local\Temp\ccSfgJB7.s 			page 137


 6190 08dc 01       		.byte	0x1
 6191 08dd 00090000 		.4byte	0x900
 6192 08e1 12       		.uleb128 0x12
 6193 08e2 5C060000 		.4byte	.LASF65
 6194 08e6 01       		.byte	0x1
 6195 08e7 4C02     		.2byte	0x24c
 6196 08e9 6F000000 		.4byte	0x6f
 6197 08ed 02       		.byte	0x2
 6198 08ee 91       		.byte	0x91
 6199 08ef 77       		.sleb128 -9
 6200 08f0 12       		.uleb128 0x12
 6201 08f1 2F060000 		.4byte	.LASF72
 6202 08f5 01       		.byte	0x1
 6203 08f6 4C02     		.2byte	0x24c
 6204 08f8 6F000000 		.4byte	0x6f
 6205 08fc 02       		.byte	0x2
 6206 08fd 91       		.byte	0x91
 6207 08fe 76       		.sleb128 -10
 6208 08ff 00       		.byte	0
 6209 0900 15       		.uleb128 0x15
 6210 0901 43000000 		.4byte	.LASF73
 6211 0905 01       		.byte	0x1
 6212 0906 5402     		.2byte	0x254
 6213 0908 01       		.byte	0x1
 6214 0909 6F000000 		.4byte	0x6f
 6215 090d 00000000 		.4byte	.LFB44
 6216 0911 2C000000 		.4byte	.LFE44
 6217 0915 04090000 		.4byte	.LLST44
 6218 0919 01       		.byte	0x1
 6219 091a 2E090000 		.4byte	0x92e
 6220 091e 12       		.uleb128 0x12
 6221 091f 5C060000 		.4byte	.LASF65
 6222 0923 01       		.byte	0x1
 6223 0924 5402     		.2byte	0x254
 6224 0926 6F000000 		.4byte	0x6f
 6225 092a 02       		.byte	0x2
 6226 092b 91       		.byte	0x91
 6227 092c 77       		.sleb128 -9
 6228 092d 00       		.byte	0
 6229 092e 11       		.uleb128 0x11
 6230 092f B1070000 		.4byte	.LASF74
 6231 0933 01       		.byte	0x1
 6232 0934 5C02     		.2byte	0x25c
 6233 0936 01       		.byte	0x1
 6234 0937 00000000 		.4byte	.LFB45
 6235 093b 30000000 		.4byte	.LFE45
 6236 093f 3C090000 		.4byte	.LLST45
 6237 0943 01       		.byte	0x1
 6238 0944 67090000 		.4byte	0x967
 6239 0948 12       		.uleb128 0x12
 6240 0949 5C060000 		.4byte	.LASF65
 6241 094d 01       		.byte	0x1
 6242 094e 5C02     		.2byte	0x25c
 6243 0950 6F000000 		.4byte	0x6f
 6244 0954 02       		.byte	0x2
 6245 0955 91       		.byte	0x91
 6246 0956 77       		.sleb128 -9
ARM GAS  C:\Users\CHUCK~1.ERH\AppData\Local\Temp\ccSfgJB7.s 			page 138


 6247 0957 12       		.uleb128 0x12
 6248 0958 56070000 		.4byte	.LASF62
 6249 095c 01       		.byte	0x1
 6250 095d 5C02     		.2byte	0x25c
 6251 095f 7A000000 		.4byte	0x7a
 6252 0963 02       		.byte	0x2
 6253 0964 91       		.byte	0x91
 6254 0965 74       		.sleb128 -12
 6255 0966 00       		.byte	0
 6256 0967 15       		.uleb128 0x15
 6257 0968 1F050000 		.4byte	.LASF75
 6258 096c 01       		.byte	0x1
 6259 096d 6402     		.2byte	0x264
 6260 096f 01       		.byte	0x1
 6261 0970 7A000000 		.4byte	0x7a
 6262 0974 00000000 		.4byte	.LFB46
 6263 0978 2C000000 		.4byte	.LFE46
 6264 097c 74090000 		.4byte	.LLST46
 6265 0980 01       		.byte	0x1
 6266 0981 95090000 		.4byte	0x995
 6267 0985 12       		.uleb128 0x12
 6268 0986 5C060000 		.4byte	.LASF65
 6269 098a 01       		.byte	0x1
 6270 098b 6402     		.2byte	0x264
 6271 098d 6F000000 		.4byte	0x6f
 6272 0991 02       		.byte	0x2
 6273 0992 91       		.byte	0x91
 6274 0993 77       		.sleb128 -9
 6275 0994 00       		.byte	0
 6276 0995 11       		.uleb128 0x11
 6277 0996 FC000000 		.4byte	.LASF76
 6278 099a 01       		.byte	0x1
 6279 099b 6C02     		.2byte	0x26c
 6280 099d 01       		.byte	0x1
 6281 099e 00000000 		.4byte	.LFB47
 6282 09a2 2C000000 		.4byte	.LFE47
 6283 09a6 AC090000 		.4byte	.LLST47
 6284 09aa 01       		.byte	0x1
 6285 09ab CE090000 		.4byte	0x9ce
 6286 09af 12       		.uleb128 0x12
 6287 09b0 5C060000 		.4byte	.LASF65
 6288 09b4 01       		.byte	0x1
 6289 09b5 6C02     		.2byte	0x26c
 6290 09b7 6F000000 		.4byte	0x6f
 6291 09bb 02       		.byte	0x2
 6292 09bc 91       		.byte	0x91
 6293 09bd 77       		.sleb128 -9
 6294 09be 13       		.uleb128 0x13
 6295 09bf 6D616300 		.ascii	"mac\000"
 6296 09c3 01       		.byte	0x1
 6297 09c4 6C02     		.2byte	0x26c
 6298 09c6 DC010000 		.4byte	0x1dc
 6299 09ca 02       		.byte	0x2
 6300 09cb 91       		.byte	0x91
 6301 09cc 70       		.sleb128 -16
 6302 09cd 00       		.byte	0
 6303 09ce 11       		.uleb128 0x11
ARM GAS  C:\Users\CHUCK~1.ERH\AppData\Local\Temp\ccSfgJB7.s 			page 139


 6304 09cf 9B020000 		.4byte	.LASF77
 6305 09d3 01       		.byte	0x1
 6306 09d4 7402     		.2byte	0x274
 6307 09d6 01       		.byte	0x1
 6308 09d7 00000000 		.4byte	.LFB48
 6309 09db 2C000000 		.4byte	.LFE48
 6310 09df E4090000 		.4byte	.LLST48
 6311 09e3 01       		.byte	0x1
 6312 09e4 070A0000 		.4byte	0xa07
 6313 09e8 12       		.uleb128 0x12
 6314 09e9 5C060000 		.4byte	.LASF65
 6315 09ed 01       		.byte	0x1
 6316 09ee 7402     		.2byte	0x274
 6317 09f0 6F000000 		.4byte	0x6f
 6318 09f4 02       		.byte	0x2
 6319 09f5 91       		.byte	0x91
 6320 09f6 77       		.sleb128 -9
 6321 09f7 13       		.uleb128 0x13
 6322 09f8 6D616300 		.ascii	"mac\000"
 6323 09fc 01       		.byte	0x1
 6324 09fd 7402     		.2byte	0x274
 6325 09ff DC010000 		.4byte	0x1dc
 6326 0a03 02       		.byte	0x2
 6327 0a04 91       		.byte	0x91
 6328 0a05 70       		.sleb128 -16
 6329 0a06 00       		.byte	0
 6330 0a07 11       		.uleb128 0x11
 6331 0a08 18020000 		.4byte	.LASF78
 6332 0a0c 01       		.byte	0x1
 6333 0a0d 7C02     		.2byte	0x27c
 6334 0a0f 01       		.byte	0x1
 6335 0a10 00000000 		.4byte	.LFB49
 6336 0a14 2C000000 		.4byte	.LFE49
 6337 0a18 1C0A0000 		.4byte	.LLST49
 6338 0a1c 01       		.byte	0x1
 6339 0a1d 3F0A0000 		.4byte	0xa3f
 6340 0a21 12       		.uleb128 0x12
 6341 0a22 5C060000 		.4byte	.LASF65
 6342 0a26 01       		.byte	0x1
 6343 0a27 7C02     		.2byte	0x27c
 6344 0a29 6F000000 		.4byte	0x6f
 6345 0a2d 02       		.byte	0x2
 6346 0a2e 91       		.byte	0x91
 6347 0a2f 77       		.sleb128 -9
 6348 0a30 13       		.uleb128 0x13
 6349 0a31 697000   		.ascii	"ip\000"
 6350 0a34 01       		.byte	0x1
 6351 0a35 7C02     		.2byte	0x27c
 6352 0a37 85000000 		.4byte	0x85
 6353 0a3b 02       		.byte	0x2
 6354 0a3c 91       		.byte	0x91
 6355 0a3d 70       		.sleb128 -16
 6356 0a3e 00       		.byte	0
 6357 0a3f 15       		.uleb128 0x15
 6358 0a40 47080000 		.4byte	.LASF79
 6359 0a44 01       		.byte	0x1
 6360 0a45 8402     		.2byte	0x284
ARM GAS  C:\Users\CHUCK~1.ERH\AppData\Local\Temp\ccSfgJB7.s 			page 140


 6361 0a47 01       		.byte	0x1
 6362 0a48 85000000 		.4byte	0x85
 6363 0a4c 00000000 		.4byte	.LFB50
 6364 0a50 2C000000 		.4byte	.LFE50
 6365 0a54 540A0000 		.4byte	.LLST50
 6366 0a58 01       		.byte	0x1
 6367 0a59 6D0A0000 		.4byte	0xa6d
 6368 0a5d 12       		.uleb128 0x12
 6369 0a5e 5C060000 		.4byte	.LASF65
 6370 0a62 01       		.byte	0x1
 6371 0a63 8402     		.2byte	0x284
 6372 0a65 6F000000 		.4byte	0x6f
 6373 0a69 02       		.byte	0x2
 6374 0a6a 91       		.byte	0x91
 6375 0a6b 77       		.sleb128 -9
 6376 0a6c 00       		.byte	0
 6377 0a6d 11       		.uleb128 0x11
 6378 0a6e 0D040000 		.4byte	.LASF80
 6379 0a72 01       		.byte	0x1
 6380 0a73 8C02     		.2byte	0x28c
 6381 0a75 01       		.byte	0x1
 6382 0a76 00000000 		.4byte	.LFB51
 6383 0a7a 30000000 		.4byte	.LFE51
 6384 0a7e 8C0A0000 		.4byte	.LLST51
 6385 0a82 01       		.byte	0x1
 6386 0a83 A60A0000 		.4byte	0xaa6
 6387 0a87 12       		.uleb128 0x12
 6388 0a88 5C060000 		.4byte	.LASF65
 6389 0a8c 01       		.byte	0x1
 6390 0a8d 8C02     		.2byte	0x28c
 6391 0a8f 6F000000 		.4byte	0x6f
 6392 0a93 02       		.byte	0x2
 6393 0a94 91       		.byte	0x91
 6394 0a95 77       		.sleb128 -9
 6395 0a96 12       		.uleb128 0x12
 6396 0a97 56070000 		.4byte	.LASF62
 6397 0a9b 01       		.byte	0x1
 6398 0a9c 8C02     		.2byte	0x28c
 6399 0a9e 7A000000 		.4byte	0x7a
 6400 0aa2 02       		.byte	0x2
 6401 0aa3 91       		.byte	0x91
 6402 0aa4 74       		.sleb128 -12
 6403 0aa5 00       		.byte	0
 6404 0aa6 15       		.uleb128 0x15
 6405 0aa7 AC040000 		.4byte	.LASF81
 6406 0aab 01       		.byte	0x1
 6407 0aac 9402     		.2byte	0x294
 6408 0aae 01       		.byte	0x1
 6409 0aaf 7A000000 		.4byte	0x7a
 6410 0ab3 00000000 		.4byte	.LFB52
 6411 0ab7 2C000000 		.4byte	.LFE52
 6412 0abb C40A0000 		.4byte	.LLST52
 6413 0abf 01       		.byte	0x1
 6414 0ac0 D40A0000 		.4byte	0xad4
 6415 0ac4 12       		.uleb128 0x12
 6416 0ac5 5C060000 		.4byte	.LASF65
 6417 0ac9 01       		.byte	0x1
ARM GAS  C:\Users\CHUCK~1.ERH\AppData\Local\Temp\ccSfgJB7.s 			page 141


 6418 0aca 9402     		.2byte	0x294
 6419 0acc 6F000000 		.4byte	0x6f
 6420 0ad0 02       		.byte	0x2
 6421 0ad1 91       		.byte	0x91
 6422 0ad2 77       		.sleb128 -9
 6423 0ad3 00       		.byte	0
 6424 0ad4 11       		.uleb128 0x11
 6425 0ad5 5A020000 		.4byte	.LASF82
 6426 0ad9 01       		.byte	0x1
 6427 0ada 9C02     		.2byte	0x29c
 6428 0adc 01       		.byte	0x1
 6429 0add 00000000 		.4byte	.LFB53
 6430 0ae1 30000000 		.4byte	.LFE53
 6431 0ae5 FC0A0000 		.4byte	.LLST53
 6432 0ae9 01       		.byte	0x1
 6433 0aea 0D0B0000 		.4byte	0xb0d
 6434 0aee 12       		.uleb128 0x12
 6435 0aef 5C060000 		.4byte	.LASF65
 6436 0af3 01       		.byte	0x1
 6437 0af4 9C02     		.2byte	0x29c
 6438 0af6 6F000000 		.4byte	0x6f
 6439 0afa 02       		.byte	0x2
 6440 0afb 91       		.byte	0x91
 6441 0afc 77       		.sleb128 -9
 6442 0afd 12       		.uleb128 0x12
 6443 0afe 38050000 		.4byte	.LASF55
 6444 0b02 01       		.byte	0x1
 6445 0b03 9C02     		.2byte	0x29c
 6446 0b05 7A000000 		.4byte	0x7a
 6447 0b09 02       		.byte	0x2
 6448 0b0a 91       		.byte	0x91
 6449 0b0b 74       		.sleb128 -12
 6450 0b0c 00       		.byte	0
 6451 0b0d 15       		.uleb128 0x15
 6452 0b0e E2070000 		.4byte	.LASF83
 6453 0b12 01       		.byte	0x1
 6454 0b13 A402     		.2byte	0x2a4
 6455 0b15 01       		.byte	0x1
 6456 0b16 7A000000 		.4byte	0x7a
 6457 0b1a 00000000 		.4byte	.LFB54
 6458 0b1e 2C000000 		.4byte	.LFE54
 6459 0b22 340B0000 		.4byte	.LLST54
 6460 0b26 01       		.byte	0x1
 6461 0b27 3B0B0000 		.4byte	0xb3b
 6462 0b2b 12       		.uleb128 0x12
 6463 0b2c 5C060000 		.4byte	.LASF65
 6464 0b30 01       		.byte	0x1
 6465 0b31 A402     		.2byte	0x2a4
 6466 0b33 6F000000 		.4byte	0x6f
 6467 0b37 02       		.byte	0x2
 6468 0b38 91       		.byte	0x91
 6469 0b39 77       		.sleb128 -9
 6470 0b3a 00       		.byte	0
 6471 0b3b 15       		.uleb128 0x15
 6472 0b3c 0F000000 		.4byte	.LASF84
 6473 0b40 01       		.byte	0x1
 6474 0b41 AC02     		.2byte	0x2ac
ARM GAS  C:\Users\CHUCK~1.ERH\AppData\Local\Temp\ccSfgJB7.s 			page 142


 6475 0b43 01       		.byte	0x1
 6476 0b44 7A000000 		.4byte	0x7a
 6477 0b48 00000000 		.4byte	.LFB55
 6478 0b4c 2C000000 		.4byte	.LFE55
 6479 0b50 6C0B0000 		.4byte	.LLST55
 6480 0b54 01       		.byte	0x1
 6481 0b55 690B0000 		.4byte	0xb69
 6482 0b59 12       		.uleb128 0x12
 6483 0b5a 5C060000 		.4byte	.LASF65
 6484 0b5e 01       		.byte	0x1
 6485 0b5f AC02     		.2byte	0x2ac
 6486 0b61 6F000000 		.4byte	0x6f
 6487 0b65 02       		.byte	0x2
 6488 0b66 91       		.byte	0x91
 6489 0b67 77       		.sleb128 -9
 6490 0b68 00       		.byte	0
 6491 0b69 11       		.uleb128 0x11
 6492 0b6a 12010000 		.4byte	.LASF85
 6493 0b6e 01       		.byte	0x1
 6494 0b6f B402     		.2byte	0x2b4
 6495 0b71 01       		.byte	0x1
 6496 0b72 00000000 		.4byte	.LFB56
 6497 0b76 30000000 		.4byte	.LFE56
 6498 0b7a A40B0000 		.4byte	.LLST56
 6499 0b7e 01       		.byte	0x1
 6500 0b7f A20B0000 		.4byte	0xba2
 6501 0b83 12       		.uleb128 0x12
 6502 0b84 5C060000 		.4byte	.LASF65
 6503 0b88 01       		.byte	0x1
 6504 0b89 B402     		.2byte	0x2b4
 6505 0b8b 6F000000 		.4byte	0x6f
 6506 0b8f 02       		.byte	0x2
 6507 0b90 91       		.byte	0x91
 6508 0b91 77       		.sleb128 -9
 6509 0b92 13       		.uleb128 0x13
 6510 0b93 746F7300 		.ascii	"tos\000"
 6511 0b97 01       		.byte	0x1
 6512 0b98 B402     		.2byte	0x2b4
 6513 0b9a 6F000000 		.4byte	0x6f
 6514 0b9e 02       		.byte	0x2
 6515 0b9f 91       		.byte	0x91
 6516 0ba0 76       		.sleb128 -10
 6517 0ba1 00       		.byte	0
 6518 0ba2 15       		.uleb128 0x15
 6519 0ba3 CA070000 		.4byte	.LASF86
 6520 0ba7 01       		.byte	0x1
 6521 0ba8 BC02     		.2byte	0x2bc
 6522 0baa 01       		.byte	0x1
 6523 0bab 6F000000 		.4byte	0x6f
 6524 0baf 00000000 		.4byte	.LFB57
 6525 0bb3 2C000000 		.4byte	.LFE57
 6526 0bb7 DC0B0000 		.4byte	.LLST57
 6527 0bbb 01       		.byte	0x1
 6528 0bbc D00B0000 		.4byte	0xbd0
 6529 0bc0 12       		.uleb128 0x12
 6530 0bc1 5C060000 		.4byte	.LASF65
 6531 0bc5 01       		.byte	0x1
ARM GAS  C:\Users\CHUCK~1.ERH\AppData\Local\Temp\ccSfgJB7.s 			page 143


 6532 0bc6 BC02     		.2byte	0x2bc
 6533 0bc8 6F000000 		.4byte	0x6f
 6534 0bcc 02       		.byte	0x2
 6535 0bcd 91       		.byte	0x91
 6536 0bce 77       		.sleb128 -9
 6537 0bcf 00       		.byte	0
 6538 0bd0 11       		.uleb128 0x11
 6539 0bd1 B6030000 		.4byte	.LASF87
 6540 0bd5 01       		.byte	0x1
 6541 0bd6 C402     		.2byte	0x2c4
 6542 0bd8 01       		.byte	0x1
 6543 0bd9 00000000 		.4byte	.LFB58
 6544 0bdd 30000000 		.4byte	.LFE58
 6545 0be1 140C0000 		.4byte	.LLST58
 6546 0be5 01       		.byte	0x1
 6547 0be6 090C0000 		.4byte	0xc09
 6548 0bea 12       		.uleb128 0x12
 6549 0beb 5C060000 		.4byte	.LASF65
 6550 0bef 01       		.byte	0x1
 6551 0bf0 C402     		.2byte	0x2c4
 6552 0bf2 6F000000 		.4byte	0x6f
 6553 0bf6 02       		.byte	0x2
 6554 0bf7 91       		.byte	0x91
 6555 0bf8 77       		.sleb128 -9
 6556 0bf9 13       		.uleb128 0x13
 6557 0bfa 74746C00 		.ascii	"ttl\000"
 6558 0bfe 01       		.byte	0x1
 6559 0bff C402     		.2byte	0x2c4
 6560 0c01 6F000000 		.4byte	0x6f
 6561 0c05 02       		.byte	0x2
 6562 0c06 91       		.byte	0x91
 6563 0c07 76       		.sleb128 -10
 6564 0c08 00       		.byte	0
 6565 0c09 15       		.uleb128 0x15
 6566 0c0a 94010000 		.4byte	.LASF88
 6567 0c0e 01       		.byte	0x1
 6568 0c0f CC02     		.2byte	0x2cc
 6569 0c11 01       		.byte	0x1
 6570 0c12 6F000000 		.4byte	0x6f
 6571 0c16 00000000 		.4byte	.LFB59
 6572 0c1a 2C000000 		.4byte	.LFE59
 6573 0c1e 4C0C0000 		.4byte	.LLST59
 6574 0c22 01       		.byte	0x1
 6575 0c23 370C0000 		.4byte	0xc37
 6576 0c27 12       		.uleb128 0x12
 6577 0c28 5C060000 		.4byte	.LASF65
 6578 0c2c 01       		.byte	0x1
 6579 0c2d CC02     		.2byte	0x2cc
 6580 0c2f 6F000000 		.4byte	0x6f
 6581 0c33 02       		.byte	0x2
 6582 0c34 91       		.byte	0x91
 6583 0c35 77       		.sleb128 -9
 6584 0c36 00       		.byte	0
 6585 0c37 11       		.uleb128 0x11
 6586 0c38 58030000 		.4byte	.LASF89
 6587 0c3c 01       		.byte	0x1
 6588 0c3d D402     		.2byte	0x2d4
ARM GAS  C:\Users\CHUCK~1.ERH\AppData\Local\Temp\ccSfgJB7.s 			page 144


 6589 0c3f 01       		.byte	0x1
 6590 0c40 00000000 		.4byte	.LFB60
 6591 0c44 30000000 		.4byte	.LFE60
 6592 0c48 840C0000 		.4byte	.LLST60
 6593 0c4c 01       		.byte	0x1
 6594 0c4d 700C0000 		.4byte	0xc70
 6595 0c51 12       		.uleb128 0x12
 6596 0c52 5C060000 		.4byte	.LASF65
 6597 0c56 01       		.byte	0x1
 6598 0c57 D402     		.2byte	0x2d4
 6599 0c59 6F000000 		.4byte	0x6f
 6600 0c5d 02       		.byte	0x2
 6601 0c5e 91       		.byte	0x91
 6602 0c5f 77       		.sleb128 -9
 6603 0c60 12       		.uleb128 0x12
 6604 0c61 38050000 		.4byte	.LASF55
 6605 0c65 01       		.byte	0x1
 6606 0c66 D402     		.2byte	0x2d4
 6607 0c68 7A000000 		.4byte	0x7a
 6608 0c6c 02       		.byte	0x2
 6609 0c6d 91       		.byte	0x91
 6610 0c6e 74       		.sleb128 -12
 6611 0c6f 00       		.byte	0
 6612 0c70 15       		.uleb128 0x15
 6613 0c71 35090000 		.4byte	.LASF90
 6614 0c75 01       		.byte	0x1
 6615 0c76 DC02     		.2byte	0x2dc
 6616 0c78 01       		.byte	0x1
 6617 0c79 7A000000 		.4byte	0x7a
 6618 0c7d 00000000 		.4byte	.LFB61
 6619 0c81 2C000000 		.4byte	.LFE61
 6620 0c85 BC0C0000 		.4byte	.LLST61
 6621 0c89 01       		.byte	0x1
 6622 0c8a 9E0C0000 		.4byte	0xc9e
 6623 0c8e 12       		.uleb128 0x12
 6624 0c8f 5C060000 		.4byte	.LASF65
 6625 0c93 01       		.byte	0x1
 6626 0c94 DC02     		.2byte	0x2dc
 6627 0c96 6F000000 		.4byte	0x6f
 6628 0c9a 02       		.byte	0x2
 6629 0c9b 91       		.byte	0x91
 6630 0c9c 77       		.sleb128 -9
 6631 0c9d 00       		.byte	0
 6632 0c9e 11       		.uleb128 0x11
 6633 0c9f D9060000 		.4byte	.LASF91
 6634 0ca3 01       		.byte	0x1
 6635 0ca4 E402     		.2byte	0x2e4
 6636 0ca6 01       		.byte	0x1
 6637 0ca7 00000000 		.4byte	.LFB62
 6638 0cab 30000000 		.4byte	.LFE62
 6639 0caf F40C0000 		.4byte	.LLST62
 6640 0cb3 01       		.byte	0x1
 6641 0cb4 D70C0000 		.4byte	0xcd7
 6642 0cb8 12       		.uleb128 0x12
 6643 0cb9 5C060000 		.4byte	.LASF65
 6644 0cbd 01       		.byte	0x1
 6645 0cbe E402     		.2byte	0x2e4
ARM GAS  C:\Users\CHUCK~1.ERH\AppData\Local\Temp\ccSfgJB7.s 			page 145


 6646 0cc0 6F000000 		.4byte	0x6f
 6647 0cc4 02       		.byte	0x2
 6648 0cc5 91       		.byte	0x91
 6649 0cc6 77       		.sleb128 -9
 6650 0cc7 13       		.uleb128 0x13
 6651 0cc8 70747200 		.ascii	"ptr\000"
 6652 0ccc 01       		.byte	0x1
 6653 0ccd E402     		.2byte	0x2e4
 6654 0ccf 7A000000 		.4byte	0x7a
 6655 0cd3 02       		.byte	0x2
 6656 0cd4 91       		.byte	0x91
 6657 0cd5 74       		.sleb128 -12
 6658 0cd6 00       		.byte	0
 6659 0cd7 15       		.uleb128 0x15
 6660 0cd8 E4000000 		.4byte	.LASF92
 6661 0cdc 01       		.byte	0x1
 6662 0cdd EC02     		.2byte	0x2ec
 6663 0cdf 01       		.byte	0x1
 6664 0ce0 7A000000 		.4byte	0x7a
 6665 0ce4 00000000 		.4byte	.LFB63
 6666 0ce8 2C000000 		.4byte	.LFE63
 6667 0cec 2C0D0000 		.4byte	.LLST63
 6668 0cf0 01       		.byte	0x1
 6669 0cf1 050D0000 		.4byte	0xd05
 6670 0cf5 12       		.uleb128 0x12
 6671 0cf6 5C060000 		.4byte	.LASF65
 6672 0cfa 01       		.byte	0x1
 6673 0cfb EC02     		.2byte	0x2ec
 6674 0cfd 6F000000 		.4byte	0x6f
 6675 0d01 02       		.byte	0x2
 6676 0d02 91       		.byte	0x91
 6677 0d03 77       		.sleb128 -9
 6678 0d04 00       		.byte	0
 6679 0d05 11       		.uleb128 0x11
 6680 0d06 7B010000 		.4byte	.LASF93
 6681 0d0a 01       		.byte	0x1
 6682 0d0b F402     		.2byte	0x2f4
 6683 0d0d 01       		.byte	0x1
 6684 0d0e 00000000 		.4byte	.LFB64
 6685 0d12 30000000 		.4byte	.LFE64
 6686 0d16 640D0000 		.4byte	.LLST64
 6687 0d1a 01       		.byte	0x1
 6688 0d1b 3E0D0000 		.4byte	0xd3e
 6689 0d1f 12       		.uleb128 0x12
 6690 0d20 5C060000 		.4byte	.LASF65
 6691 0d24 01       		.byte	0x1
 6692 0d25 F402     		.2byte	0x2f4
 6693 0d27 6F000000 		.4byte	0x6f
 6694 0d2b 02       		.byte	0x2
 6695 0d2c 91       		.byte	0x91
 6696 0d2d 77       		.sleb128 -9
 6697 0d2e 13       		.uleb128 0x13
 6698 0d2f 70747200 		.ascii	"ptr\000"
 6699 0d33 01       		.byte	0x1
 6700 0d34 F402     		.2byte	0x2f4
 6701 0d36 7A000000 		.4byte	0x7a
 6702 0d3a 02       		.byte	0x2
ARM GAS  C:\Users\CHUCK~1.ERH\AppData\Local\Temp\ccSfgJB7.s 			page 146


 6703 0d3b 91       		.byte	0x91
 6704 0d3c 74       		.sleb128 -12
 6705 0d3d 00       		.byte	0
 6706 0d3e 15       		.uleb128 0x15
 6707 0d3f 2E080000 		.4byte	.LASF94
 6708 0d43 01       		.byte	0x1
 6709 0d44 FC02     		.2byte	0x2fc
 6710 0d46 01       		.byte	0x1
 6711 0d47 7A000000 		.4byte	0x7a
 6712 0d4b 00000000 		.4byte	.LFB65
 6713 0d4f 2C000000 		.4byte	.LFE65
 6714 0d53 9C0D0000 		.4byte	.LLST65
 6715 0d57 01       		.byte	0x1
 6716 0d58 6C0D0000 		.4byte	0xd6c
 6717 0d5c 12       		.uleb128 0x12
 6718 0d5d 5C060000 		.4byte	.LASF65
 6719 0d61 01       		.byte	0x1
 6720 0d62 FC02     		.2byte	0x2fc
 6721 0d64 6F000000 		.4byte	0x6f
 6722 0d68 02       		.byte	0x2
 6723 0d69 91       		.byte	0x91
 6724 0d6a 77       		.sleb128 -9
 6725 0d6b 00       		.byte	0
 6726 0d6c 15       		.uleb128 0x15
 6727 0d6d CF000000 		.4byte	.LASF95
 6728 0d71 01       		.byte	0x1
 6729 0d72 0403     		.2byte	0x304
 6730 0d74 01       		.byte	0x1
 6731 0d75 7A000000 		.4byte	0x7a
 6732 0d79 00000000 		.4byte	.LFB66
 6733 0d7d 2C000000 		.4byte	.LFE66
 6734 0d81 D40D0000 		.4byte	.LLST66
 6735 0d85 01       		.byte	0x1
 6736 0d86 9A0D0000 		.4byte	0xd9a
 6737 0d8a 12       		.uleb128 0x12
 6738 0d8b 5C060000 		.4byte	.LASF65
 6739 0d8f 01       		.byte	0x1
 6740 0d90 0403     		.2byte	0x304
 6741 0d92 6F000000 		.4byte	0x6f
 6742 0d96 02       		.byte	0x2
 6743 0d97 91       		.byte	0x91
 6744 0d98 77       		.sleb128 -9
 6745 0d99 00       		.byte	0
 6746 0d9a 11       		.uleb128 0x11
 6747 0d9b F5010000 		.4byte	.LASF96
 6748 0d9f 01       		.byte	0x1
 6749 0da0 0C03     		.2byte	0x30c
 6750 0da2 01       		.byte	0x1
 6751 0da3 00000000 		.4byte	.LFB67
 6752 0da7 30000000 		.4byte	.LFE67
 6753 0dab 0C0E0000 		.4byte	.LLST67
 6754 0daf 01       		.byte	0x1
 6755 0db0 D30D0000 		.4byte	0xdd3
 6756 0db4 12       		.uleb128 0x12
 6757 0db5 5C060000 		.4byte	.LASF65
 6758 0db9 01       		.byte	0x1
 6759 0dba 0C03     		.2byte	0x30c
ARM GAS  C:\Users\CHUCK~1.ERH\AppData\Local\Temp\ccSfgJB7.s 			page 147


 6760 0dbc 6F000000 		.4byte	0x6f
 6761 0dc0 02       		.byte	0x2
 6762 0dc1 91       		.byte	0x91
 6763 0dc2 77       		.sleb128 -9
 6764 0dc3 13       		.uleb128 0x13
 6765 0dc4 70747200 		.ascii	"ptr\000"
 6766 0dc8 01       		.byte	0x1
 6767 0dc9 0C03     		.2byte	0x30c
 6768 0dcb 7A000000 		.4byte	0x7a
 6769 0dcf 02       		.byte	0x2
 6770 0dd0 91       		.byte	0x91
 6771 0dd1 74       		.sleb128 -12
 6772 0dd2 00       		.byte	0
 6773 0dd3 15       		.uleb128 0x15
 6774 0dd4 CF040000 		.4byte	.LASF97
 6775 0dd8 01       		.byte	0x1
 6776 0dd9 1403     		.2byte	0x314
 6777 0ddb 01       		.byte	0x1
 6778 0ddc 7A000000 		.4byte	0x7a
 6779 0de0 00000000 		.4byte	.LFB68
 6780 0de4 2C000000 		.4byte	.LFE68
 6781 0de8 440E0000 		.4byte	.LLST68
 6782 0dec 01       		.byte	0x1
 6783 0ded 010E0000 		.4byte	0xe01
 6784 0df1 12       		.uleb128 0x12
 6785 0df2 5C060000 		.4byte	.LASF65
 6786 0df6 01       		.byte	0x1
 6787 0df7 1403     		.2byte	0x314
 6788 0df9 6F000000 		.4byte	0x6f
 6789 0dfd 02       		.byte	0x2
 6790 0dfe 91       		.byte	0x91
 6791 0dff 77       		.sleb128 -9
 6792 0e00 00       		.byte	0
 6793 0e01 15       		.uleb128 0x15
 6794 0e02 89000000 		.4byte	.LASF98
 6795 0e06 01       		.byte	0x1
 6796 0e07 1C03     		.2byte	0x31c
 6797 0e09 01       		.byte	0x1
 6798 0e0a 85000000 		.4byte	0x85
 6799 0e0e 00000000 		.4byte	.LFB69
 6800 0e12 52000000 		.4byte	.LFE69
 6801 0e16 7C0E0000 		.4byte	.LLST69
 6802 0e1a 01       		.byte	0x1
 6803 0e1b 4D0E0000 		.4byte	0xe4d
 6804 0e1f 12       		.uleb128 0x12
 6805 0e20 5C060000 		.4byte	.LASF65
 6806 0e24 01       		.byte	0x1
 6807 0e25 1C03     		.2byte	0x31c
 6808 0e27 6F000000 		.4byte	0x6f
 6809 0e2b 02       		.byte	0x2
 6810 0e2c 91       		.byte	0x91
 6811 0e2d 6F       		.sleb128 -17
 6812 0e2e 13       		.uleb128 0x13
 6813 0e2f 636D6400 		.ascii	"cmd\000"
 6814 0e33 01       		.byte	0x1
 6815 0e34 1C03     		.2byte	0x31c
 6816 0e36 61000000 		.4byte	0x61
ARM GAS  C:\Users\CHUCK~1.ERH\AppData\Local\Temp\ccSfgJB7.s 			page 148


 6817 0e3a 02       		.byte	0x2
 6818 0e3b 91       		.byte	0x91
 6819 0e3c 68       		.sleb128 -24
 6820 0e3d 14       		.uleb128 0x14
 6821 0e3e E1050000 		.4byte	.LASF99
 6822 0e42 01       		.byte	0x1
 6823 0e43 1E03     		.2byte	0x31e
 6824 0e45 85000000 		.4byte	0x85
 6825 0e49 02       		.byte	0x2
 6826 0e4a 91       		.byte	0x91
 6827 0e4b 74       		.sleb128 -12
 6828 0e4c 00       		.byte	0
 6829 0e4d 15       		.uleb128 0x15
 6830 0e4e 37010000 		.4byte	.LASF100
 6831 0e52 01       		.byte	0x1
 6832 0e53 2F03     		.2byte	0x32f
 6833 0e55 01       		.byte	0x1
 6834 0e56 7A000000 		.4byte	0x7a
 6835 0e5a 00000000 		.4byte	.LFB70
 6836 0e5e 48000000 		.4byte	.LFE70
 6837 0e62 B40E0000 		.4byte	.LLST70
 6838 0e66 01       		.byte	0x1
 6839 0e67 990E0000 		.4byte	0xe99
 6840 0e6b 12       		.uleb128 0x12
 6841 0e6c 5C060000 		.4byte	.LASF65
 6842 0e70 01       		.byte	0x1
 6843 0e71 2F03     		.2byte	0x32f
 6844 0e73 6F000000 		.4byte	0x6f
 6845 0e77 02       		.byte	0x2
 6846 0e78 91       		.byte	0x91
 6847 0e79 6F       		.sleb128 -17
 6848 0e7a 14       		.uleb128 0x14
 6849 0e7b DC070000 		.4byte	.LASF101
 6850 0e7f 01       		.byte	0x1
 6851 0e80 3103     		.2byte	0x331
 6852 0e82 7A000000 		.4byte	0x7a
 6853 0e86 02       		.byte	0x2
 6854 0e87 91       		.byte	0x91
 6855 0e88 74       		.sleb128 -12
 6856 0e89 14       		.uleb128 0x14
 6857 0e8a AA050000 		.4byte	.LASF102
 6858 0e8e 01       		.byte	0x1
 6859 0e8f 3103     		.2byte	0x331
 6860 0e91 7A000000 		.4byte	0x7a
 6861 0e95 02       		.byte	0x2
 6862 0e96 91       		.byte	0x91
 6863 0e97 76       		.sleb128 -10
 6864 0e98 00       		.byte	0
 6865 0e99 15       		.uleb128 0x15
 6866 0e9a B6020000 		.4byte	.LASF103
 6867 0e9e 01       		.byte	0x1
 6868 0e9f 4503     		.2byte	0x345
 6869 0ea1 01       		.byte	0x1
 6870 0ea2 7A000000 		.4byte	0x7a
 6871 0ea6 00000000 		.4byte	.LFB71
 6872 0eaa 48000000 		.4byte	.LFE71
 6873 0eae EC0E0000 		.4byte	.LLST71
ARM GAS  C:\Users\CHUCK~1.ERH\AppData\Local\Temp\ccSfgJB7.s 			page 149


 6874 0eb2 01       		.byte	0x1
 6875 0eb3 E50E0000 		.4byte	0xee5
 6876 0eb7 12       		.uleb128 0x12
 6877 0eb8 5C060000 		.4byte	.LASF65
 6878 0ebc 01       		.byte	0x1
 6879 0ebd 4503     		.2byte	0x345
 6880 0ebf 6F000000 		.4byte	0x6f
 6881 0ec3 02       		.byte	0x2
 6882 0ec4 91       		.byte	0x91
 6883 0ec5 6F       		.sleb128 -17
 6884 0ec6 14       		.uleb128 0x14
 6885 0ec7 DC070000 		.4byte	.LASF101
 6886 0ecb 01       		.byte	0x1
 6887 0ecc 4703     		.2byte	0x347
 6888 0ece 7A000000 		.4byte	0x7a
 6889 0ed2 02       		.byte	0x2
 6890 0ed3 91       		.byte	0x91
 6891 0ed4 74       		.sleb128 -12
 6892 0ed5 14       		.uleb128 0x14
 6893 0ed6 AA050000 		.4byte	.LASF102
 6894 0eda 01       		.byte	0x1
 6895 0edb 4703     		.2byte	0x347
 6896 0edd 7A000000 		.4byte	0x7a
 6897 0ee1 02       		.byte	0x2
 6898 0ee2 91       		.byte	0x91
 6899 0ee3 76       		.sleb128 -10
 6900 0ee4 00       		.byte	0
 6901 0ee5 11       		.uleb128 0x11
 6902 0ee6 2B070000 		.4byte	.LASF104
 6903 0eea 01       		.byte	0x1
 6904 0eeb 6403     		.2byte	0x364
 6905 0eed 01       		.byte	0x1
 6906 0eee 00000000 		.4byte	.LFB72
 6907 0ef2 B8000000 		.4byte	.LFE72
 6908 0ef6 240F0000 		.4byte	.LLST72
 6909 0efa 01       		.byte	0x1
 6910 0efb 780F0000 		.4byte	0xf78
 6911 0eff 12       		.uleb128 0x12
 6912 0f00 5C060000 		.4byte	.LASF65
 6913 0f04 01       		.byte	0x1
 6914 0f05 6403     		.2byte	0x364
 6915 0f07 6F000000 		.4byte	0x6f
 6916 0f0b 02       		.byte	0x2
 6917 0f0c 91       		.byte	0x91
 6918 0f0d 6F       		.sleb128 -17
 6919 0f0e 12       		.uleb128 0x12
 6920 0f0f DD020000 		.4byte	.LASF105
 6921 0f13 01       		.byte	0x1
 6922 0f14 6403     		.2byte	0x364
 6923 0f16 7A000000 		.4byte	0x7a
 6924 0f1a 02       		.byte	0x2
 6925 0f1b 91       		.byte	0x91
 6926 0f1c 6C       		.sleb128 -20
 6927 0f1d 12       		.uleb128 0x12
 6928 0f1e 6E000000 		.4byte	.LASF27
 6929 0f22 01       		.byte	0x1
 6930 0f23 6403     		.2byte	0x364
ARM GAS  C:\Users\CHUCK~1.ERH\AppData\Local\Temp\ccSfgJB7.s 			page 150


 6931 0f25 DC010000 		.4byte	0x1dc
 6932 0f29 02       		.byte	0x2
 6933 0f2a 91       		.byte	0x91
 6934 0f2b 68       		.sleb128 -24
 6935 0f2c 12       		.uleb128 0x12
 6936 0f2d 28060000 		.4byte	.LASF32
 6937 0f31 01       		.byte	0x1
 6938 0f32 6403     		.2byte	0x364
 6939 0f34 7A000000 		.4byte	0x7a
 6940 0f38 02       		.byte	0x2
 6941 0f39 91       		.byte	0x91
 6942 0f3a 66       		.sleb128 -26
 6943 0f3b 14       		.uleb128 0x14
 6944 0f3c 29080000 		.4byte	.LASF21
 6945 0f40 01       		.byte	0x1
 6946 0f41 6603     		.2byte	0x366
 6947 0f43 7A000000 		.4byte	0x7a
 6948 0f47 02       		.byte	0x2
 6949 0f48 91       		.byte	0x91
 6950 0f49 72       		.sleb128 -14
 6951 0f4a 14       		.uleb128 0x14
 6952 0f4b 49020000 		.4byte	.LASF106
 6953 0f4f 01       		.byte	0x1
 6954 0f50 6703     		.2byte	0x367
 6955 0f52 7A000000 		.4byte	0x7a
 6956 0f56 02       		.byte	0x2
 6957 0f57 91       		.byte	0x91
 6958 0f58 76       		.sleb128 -10
 6959 0f59 14       		.uleb128 0x14
 6960 0f5a AC060000 		.4byte	.LASF107
 6961 0f5e 01       		.byte	0x1
 6962 0f5f 6803     		.2byte	0x368
 6963 0f61 7A000000 		.4byte	0x7a
 6964 0f65 02       		.byte	0x2
 6965 0f66 91       		.byte	0x91
 6966 0f67 74       		.sleb128 -12
 6967 0f68 14       		.uleb128 0x14
 6968 0f69 38050000 		.4byte	.LASF55
 6969 0f6d 01       		.byte	0x1
 6970 0f6e 6903     		.2byte	0x369
 6971 0f70 7A000000 		.4byte	0x7a
 6972 0f74 02       		.byte	0x2
 6973 0f75 91       		.byte	0x91
 6974 0f76 70       		.sleb128 -16
 6975 0f77 00       		.byte	0
 6976 0f78 11       		.uleb128 0x11
 6977 0f79 CE050000 		.4byte	.LASF108
 6978 0f7d 01       		.byte	0x1
 6979 0f7e 9C03     		.2byte	0x39c
 6980 0f80 01       		.byte	0x1
 6981 0f81 00000000 		.4byte	.LFB73
 6982 0f85 C4000000 		.4byte	.LFE73
 6983 0f89 5C0F0000 		.4byte	.LLST73
 6984 0f8d 01       		.byte	0x1
 6985 0f8e 1A100000 		.4byte	0x101a
 6986 0f92 12       		.uleb128 0x12
 6987 0f93 5C060000 		.4byte	.LASF65
ARM GAS  C:\Users\CHUCK~1.ERH\AppData\Local\Temp\ccSfgJB7.s 			page 151


 6988 0f97 01       		.byte	0x1
 6989 0f98 9C03     		.2byte	0x39c
 6990 0f9a 6F000000 		.4byte	0x6f
 6991 0f9e 02       		.byte	0x2
 6992 0f9f 91       		.byte	0x91
 6993 0fa0 6F       		.sleb128 -17
 6994 0fa1 12       		.uleb128 0x12
 6995 0fa2 DD020000 		.4byte	.LASF105
 6996 0fa6 01       		.byte	0x1
 6997 0fa7 9C03     		.2byte	0x39c
 6998 0fa9 7A000000 		.4byte	0x7a
 6999 0fad 02       		.byte	0x2
 7000 0fae 91       		.byte	0x91
 7001 0faf 6C       		.sleb128 -20
 7002 0fb0 12       		.uleb128 0x12
 7003 0fb1 6E000000 		.4byte	.LASF27
 7004 0fb5 01       		.byte	0x1
 7005 0fb6 9C03     		.2byte	0x39c
 7006 0fb8 DC010000 		.4byte	0x1dc
 7007 0fbc 02       		.byte	0x2
 7008 0fbd 91       		.byte	0x91
 7009 0fbe 68       		.sleb128 -24
 7010 0fbf 12       		.uleb128 0x12
 7011 0fc0 28060000 		.4byte	.LASF32
 7012 0fc4 01       		.byte	0x1
 7013 0fc5 9C03     		.2byte	0x39c
 7014 0fc7 7A000000 		.4byte	0x7a
 7015 0fcb 02       		.byte	0x2
 7016 0fcc 91       		.byte	0x91
 7017 0fcd 66       		.sleb128 -26
 7018 0fce 12       		.uleb128 0x12
 7019 0fcf 68000000 		.4byte	.LASF109
 7020 0fd3 01       		.byte	0x1
 7021 0fd4 9C03     		.2byte	0x39c
 7022 0fd6 6F000000 		.4byte	0x6f
 7023 0fda 02       		.byte	0x2
 7024 0fdb 91       		.byte	0x91
 7025 0fdc 00       		.sleb128 0
 7026 0fdd 14       		.uleb128 0x14
 7027 0fde 29080000 		.4byte	.LASF21
 7028 0fe2 01       		.byte	0x1
 7029 0fe3 9E03     		.2byte	0x39e
 7030 0fe5 7A000000 		.4byte	0x7a
 7031 0fe9 02       		.byte	0x2
 7032 0fea 91       		.byte	0x91
 7033 0feb 72       		.sleb128 -14
 7034 0fec 14       		.uleb128 0x14
 7035 0fed 49020000 		.4byte	.LASF106
 7036 0ff1 01       		.byte	0x1
 7037 0ff2 9F03     		.2byte	0x39f
 7038 0ff4 7A000000 		.4byte	0x7a
 7039 0ff8 02       		.byte	0x2
 7040 0ff9 91       		.byte	0x91
 7041 0ffa 76       		.sleb128 -10
 7042 0ffb 14       		.uleb128 0x14
 7043 0ffc AC060000 		.4byte	.LASF107
 7044 1000 01       		.byte	0x1
ARM GAS  C:\Users\CHUCK~1.ERH\AppData\Local\Temp\ccSfgJB7.s 			page 152


 7045 1001 A003     		.2byte	0x3a0
 7046 1003 7A000000 		.4byte	0x7a
 7047 1007 02       		.byte	0x2
 7048 1008 91       		.byte	0x91
 7049 1009 74       		.sleb128 -12
 7050 100a 14       		.uleb128 0x14
 7051 100b 38050000 		.4byte	.LASF55
 7052 100f 01       		.byte	0x1
 7053 1010 A103     		.2byte	0x3a1
 7054 1012 7A000000 		.4byte	0x7a
 7055 1016 02       		.byte	0x2
 7056 1017 91       		.byte	0x91
 7057 1018 70       		.sleb128 -16
 7058 1019 00       		.byte	0
 7059 101a 1A       		.uleb128 0x1a
 7060 101b 01       		.byte	0x1
 7061 101c EB010000 		.4byte	.LASF111
 7062 1020 01       		.byte	0x1
 7063 1021 D203     		.2byte	0x3d2
 7064 1023 01       		.byte	0x1
 7065 1024 00000000 		.4byte	.LFB74
 7066 1028 92000000 		.4byte	.LFE74
 7067 102c 940F0000 		.4byte	.LLST74
 7068 1030 01       		.byte	0x1
 7069 1031 80100000 		.4byte	0x1080
 7070 1035 13       		.uleb128 0x13
 7071 1036 6D616300 		.ascii	"mac\000"
 7072 103a 01       		.byte	0x1
 7073 103b D203     		.2byte	0x3d2
 7074 103d DC010000 		.4byte	0x1dc
 7075 1041 02       		.byte	0x2
 7076 1042 91       		.byte	0x91
 7077 1043 6C       		.sleb128 -20
 7078 1044 13       		.uleb128 0x13
 7079 1045 697000   		.ascii	"ip\000"
 7080 1048 01       		.byte	0x1
 7081 1049 D203     		.2byte	0x3d2
 7082 104b 85000000 		.4byte	0x85
 7083 104f 02       		.byte	0x2
 7084 1050 91       		.byte	0x91
 7085 1051 68       		.sleb128 -24
 7086 1052 12       		.uleb128 0x12
 7087 1053 18050000 		.4byte	.LASF112
 7088 1057 01       		.byte	0x1
 7089 1058 D203     		.2byte	0x3d2
 7090 105a 85000000 		.4byte	0x85
 7091 105e 02       		.byte	0x2
 7092 105f 91       		.byte	0x91
 7093 1060 64       		.sleb128 -28
 7094 1061 12       		.uleb128 0x12
 7095 1062 60010000 		.4byte	.LASF113
 7096 1066 01       		.byte	0x1
 7097 1067 D203     		.2byte	0x3d2
 7098 1069 85000000 		.4byte	0x85
 7099 106d 02       		.byte	0x2
 7100 106e 91       		.byte	0x91
 7101 106f 60       		.sleb128 -32
ARM GAS  C:\Users\CHUCK~1.ERH\AppData\Local\Temp\ccSfgJB7.s 			page 153


 7102 1070 14       		.uleb128 0x14
 7103 1071 54020000 		.4byte	.LASF23
 7104 1075 01       		.byte	0x1
 7105 1076 D903     		.2byte	0x3d9
 7106 1078 61000000 		.4byte	0x61
 7107 107c 02       		.byte	0x2
 7108 107d 91       		.byte	0x91
 7109 107e 74       		.sleb128 -12
 7110 107f 00       		.byte	0
 7111 1080 1A       		.uleb128 0x1a
 7112 1081 01       		.byte	0x1
 7113 1082 0D020000 		.4byte	.LASF114
 7114 1086 01       		.byte	0x1
 7115 1087 F903     		.2byte	0x3f9
 7116 1089 01       		.byte	0x1
 7117 108a 00000000 		.4byte	.LFB75
 7118 108e 64000000 		.4byte	.LFE75
 7119 1092 CC0F0000 		.4byte	.LLST75
 7120 1096 01       		.byte	0x1
 7121 1097 C8100000 		.4byte	0x10c8
 7122 109b 16       		.uleb128 0x16
 7123 109c 697000   		.ascii	"ip\000"
 7124 109f 01       		.byte	0x1
 7125 10a0 FB03     		.2byte	0x3fb
 7126 10a2 85000000 		.4byte	0x85
 7127 10a6 02       		.byte	0x2
 7128 10a7 91       		.byte	0x91
 7129 10a8 74       		.sleb128 -12
 7130 10a9 14       		.uleb128 0x14
 7131 10aa 60010000 		.4byte	.LASF113
 7132 10ae 01       		.byte	0x1
 7133 10af FC03     		.2byte	0x3fc
 7134 10b1 85000000 		.4byte	0x85
 7135 10b5 02       		.byte	0x2
 7136 10b6 91       		.byte	0x91
 7137 10b7 6C       		.sleb128 -20
 7138 10b8 16       		.uleb128 0x16
 7139 10b9 73756200 		.ascii	"sub\000"
 7140 10bd 01       		.byte	0x1
 7141 10be FD03     		.2byte	0x3fd
 7142 10c0 85000000 		.4byte	0x85
 7143 10c4 02       		.byte	0x2
 7144 10c5 91       		.byte	0x91
 7145 10c6 70       		.sleb128 -16
 7146 10c7 00       		.byte	0
 7147 10c8 1B       		.uleb128 0x1b
 7148 10c9 01       		.byte	0x1
 7149 10ca B0000000 		.4byte	.LASF116
 7150 10ce 01       		.byte	0x1
 7151 10cf 1204     		.2byte	0x412
 7152 10d1 01       		.byte	0x1
 7153 10d2 85000000 		.4byte	0x85
 7154 10d6 00000000 		.4byte	.LFB76
 7155 10da 4E010000 		.4byte	.LFE76
 7156 10de 04100000 		.4byte	.LLST76
 7157 10e2 01       		.byte	0x1
 7158 10e3 41110000 		.4byte	0x1141
ARM GAS  C:\Users\CHUCK~1.ERH\AppData\Local\Temp\ccSfgJB7.s 			page 154


 7159 10e7 12       		.uleb128 0x12
 7160 10e8 A1050000 		.4byte	.LASF117
 7161 10ec 01       		.byte	0x1
 7162 10ed 1204     		.2byte	0x412
 7163 10ef AC000000 		.4byte	0xac
 7164 10f3 02       		.byte	0x2
 7165 10f4 91       		.byte	0x91
 7166 10f5 54       		.sleb128 -44
 7167 10f6 14       		.uleb128 0x14
 7168 10f7 54020000 		.4byte	.LASF23
 7169 10fb 01       		.byte	0x1
 7170 10fc 1704     		.2byte	0x417
 7171 10fe 61000000 		.4byte	0x61
 7172 1102 02       		.byte	0x2
 7173 1103 91       		.byte	0x91
 7174 1104 6C       		.sleb128 -20
 7175 1105 14       		.uleb128 0x14
 7176 1106 75010000 		.4byte	.LASF118
 7177 110a 01       		.byte	0x1
 7178 110b 1804     		.2byte	0x418
 7179 110d 41110000 		.4byte	0x1141
 7180 1111 02       		.byte	0x2
 7181 1112 91       		.byte	0x91
 7182 1113 5C       		.sleb128 -36
 7183 1114 16       		.uleb128 0x16
 7184 1115 697000   		.ascii	"ip\000"
 7185 1118 01       		.byte	0x1
 7186 1119 1904     		.2byte	0x419
 7187 111b DA020000 		.4byte	0x2da
 7188 111f 02       		.byte	0x2
 7189 1120 91       		.byte	0x91
 7190 1121 58       		.sleb128 -40
 7191 1122 14       		.uleb128 0x14
 7192 1123 C5020000 		.4byte	.LASF119
 7193 1127 01       		.byte	0x1
 7194 1128 1A04     		.2byte	0x41a
 7195 112a 61000000 		.4byte	0x61
 7196 112e 02       		.byte	0x2
 7197 112f 91       		.byte	0x91
 7198 1130 68       		.sleb128 -24
 7199 1131 14       		.uleb128 0x14
 7200 1132 FD020000 		.4byte	.LASF120
 7201 1136 01       		.byte	0x1
 7202 1137 1B04     		.2byte	0x41b
 7203 1139 61000000 		.4byte	0x61
 7204 113d 02       		.byte	0x2
 7205 113e 91       		.byte	0x91
 7206 113f 64       		.sleb128 -28
 7207 1140 00       		.byte	0
 7208 1141 17       		.uleb128 0x17
 7209 1142 9E000000 		.4byte	0x9e
 7210 1146 51110000 		.4byte	0x1151
 7211 114a 18       		.uleb128 0x18
 7212 114b A5000000 		.4byte	0xa5
 7213 114f 04       		.byte	0x4
 7214 1150 00       		.byte	0
 7215 1151 1B       		.uleb128 0x1b
ARM GAS  C:\Users\CHUCK~1.ERH\AppData\Local\Temp\ccSfgJB7.s 			page 155


 7216 1152 01       		.byte	0x1
 7217 1153 2E030000 		.4byte	.LASF121
 7218 1157 01       		.byte	0x1
 7219 1158 4304     		.2byte	0x443
 7220 115a 01       		.byte	0x1
 7221 115b 6F000000 		.4byte	0x6f
 7222 115f 00000000 		.4byte	.LFB77
 7223 1163 34000000 		.4byte	.LFE77
 7224 1167 3C100000 		.4byte	.LLST77
 7225 116b 01       		.byte	0x1
 7226 116c 8D110000 		.4byte	0x118d
 7227 1170 13       		.uleb128 0x13
 7228 1171 697000   		.ascii	"ip\000"
 7229 1174 01       		.byte	0x1
 7230 1175 4304     		.2byte	0x443
 7231 1177 85000000 		.4byte	0x85
 7232 117b 02       		.byte	0x2
 7233 117c 91       		.byte	0x91
 7234 117d 6C       		.sleb128 -20
 7235 117e 16       		.uleb128 0x16
 7236 117f 6F6B00   		.ascii	"ok\000"
 7237 1182 01       		.byte	0x1
 7238 1183 4504     		.2byte	0x445
 7239 1185 6F000000 		.4byte	0x6f
 7240 1189 02       		.byte	0x2
 7241 118a 91       		.byte	0x91
 7242 118b 77       		.sleb128 -9
 7243 118c 00       		.byte	0
 7244 118d 1C       		.uleb128 0x1c
 7245 118e 01       		.byte	0x1
 7246 118f 02050000 		.4byte	.LASF155
 7247 1193 01       		.byte	0x1
 7248 1194 5004     		.2byte	0x450
 7249 1196 01       		.byte	0x1
 7250 1197 85000000 		.4byte	0x85
 7251 119b 00000000 		.4byte	.LFB78
 7252 119f 0E000000 		.4byte	.LFE78
 7253 11a3 74100000 		.4byte	.LLST78
 7254 11a7 01       		.byte	0x1
 7255 11a8 1A       		.uleb128 0x1a
 7256 11a9 01       		.byte	0x1
 7257 11aa BA060000 		.4byte	.LASF122
 7258 11ae 01       		.byte	0x1
 7259 11af 5604     		.2byte	0x456
 7260 11b1 01       		.byte	0x1
 7261 11b2 00000000 		.4byte	.LFB79
 7262 11b6 16000000 		.4byte	.LFE79
 7263 11ba A0100000 		.4byte	.LLST79
 7264 11be 01       		.byte	0x1
 7265 11bf D3110000 		.4byte	0x11d3
 7266 11c3 13       		.uleb128 0x13
 7267 11c4 6D616300 		.ascii	"mac\000"
 7268 11c8 01       		.byte	0x1
 7269 11c9 5604     		.2byte	0x456
 7270 11cb DC010000 		.4byte	0x1dc
 7271 11cf 02       		.byte	0x2
 7272 11d0 91       		.byte	0x91
ARM GAS  C:\Users\CHUCK~1.ERH\AppData\Local\Temp\ccSfgJB7.s 			page 156


 7273 11d1 74       		.sleb128 -12
 7274 11d2 00       		.byte	0
 7275 11d3 1A       		.uleb128 0x1a
 7276 11d4 01       		.byte	0x1
 7277 11d5 C3040000 		.4byte	.LASF123
 7278 11d9 01       		.byte	0x1
 7279 11da 5C04     		.2byte	0x45c
 7280 11dc 01       		.byte	0x1
 7281 11dd 00000000 		.4byte	.LFB80
 7282 11e1 16000000 		.4byte	.LFE80
 7283 11e5 D8100000 		.4byte	.LLST80
 7284 11e9 01       		.byte	0x1
 7285 11ea FE110000 		.4byte	0x11fe
 7286 11ee 13       		.uleb128 0x13
 7287 11ef 6D616300 		.ascii	"mac\000"
 7288 11f3 01       		.byte	0x1
 7289 11f4 5C04     		.2byte	0x45c
 7290 11f6 DC010000 		.4byte	0x1dc
 7291 11fa 02       		.byte	0x2
 7292 11fb 91       		.byte	0x91
 7293 11fc 74       		.sleb128 -12
 7294 11fd 00       		.byte	0
 7295 11fe 1B       		.uleb128 0x1b
 7296 11ff 01       		.byte	0x1
 7297 1200 25090000 		.4byte	.LASF124
 7298 1204 01       		.byte	0x1
 7299 1205 6604     		.2byte	0x466
 7300 1207 01       		.byte	0x1
 7301 1208 6F000000 		.4byte	0x6f
 7302 120c 00000000 		.4byte	.LFB81
 7303 1210 10010000 		.4byte	.LFE81
 7304 1214 10110000 		.4byte	.LLST81
 7305 1218 01       		.byte	0x1
 7306 1219 69120000 		.4byte	0x1269
 7307 121d 12       		.uleb128 0x12
 7308 121e F9040000 		.4byte	.LASF16
 7309 1222 01       		.byte	0x1
 7310 1223 6604     		.2byte	0x466
 7311 1225 6F000000 		.4byte	0x6f
 7312 1229 02       		.byte	0x2
 7313 122a 91       		.byte	0x91
 7314 122b 6F       		.sleb128 -17
 7315 122c 12       		.uleb128 0x12
 7316 122d 56070000 		.4byte	.LASF62
 7317 1231 01       		.byte	0x1
 7318 1232 6604     		.2byte	0x466
 7319 1234 7A000000 		.4byte	0x7a
 7320 1238 02       		.byte	0x2
 7321 1239 91       		.byte	0x91
 7322 123a 6C       		.sleb128 -20
 7323 123b 12       		.uleb128 0x12
 7324 123c 68000000 		.4byte	.LASF109
 7325 1240 01       		.byte	0x1
 7326 1241 6604     		.2byte	0x466
 7327 1243 6F000000 		.4byte	0x6f
 7328 1247 02       		.byte	0x2
 7329 1248 91       		.byte	0x91
ARM GAS  C:\Users\CHUCK~1.ERH\AppData\Local\Temp\ccSfgJB7.s 			page 157


 7330 1249 6E       		.sleb128 -18
 7331 124a 14       		.uleb128 0x14
 7332 124b 5C060000 		.4byte	.LASF65
 7333 124f 01       		.byte	0x1
 7334 1250 6804     		.2byte	0x468
 7335 1252 6F000000 		.4byte	0x6f
 7336 1256 02       		.byte	0x2
 7337 1257 91       		.byte	0x91
 7338 1258 77       		.sleb128 -9
 7339 1259 14       		.uleb128 0x14
 7340 125a 54020000 		.4byte	.LASF23
 7341 125e 01       		.byte	0x1
 7342 125f 6904     		.2byte	0x469
 7343 1261 61000000 		.4byte	0x61
 7344 1265 02       		.byte	0x2
 7345 1266 91       		.byte	0x91
 7346 1267 70       		.sleb128 -16
 7347 1268 00       		.byte	0
 7348 1269 1A       		.uleb128 0x1a
 7349 126a 01       		.byte	0x1
 7350 126b 24040000 		.4byte	.LASF125
 7351 126f 01       		.byte	0x1
 7352 1270 8F04     		.2byte	0x48f
 7353 1272 01       		.byte	0x1
 7354 1273 00000000 		.4byte	.LFB82
 7355 1277 6C000000 		.4byte	.LFE82
 7356 127b 48110000 		.4byte	.LLST82
 7357 127f 01       		.byte	0x1
 7358 1280 94120000 		.4byte	0x1294
 7359 1284 12       		.uleb128 0x12
 7360 1285 5C060000 		.4byte	.LASF65
 7361 1289 01       		.byte	0x1
 7362 128a 8F04     		.2byte	0x48f
 7363 128c 6F000000 		.4byte	0x6f
 7364 1290 02       		.byte	0x2
 7365 1291 91       		.byte	0x91
 7366 1292 77       		.sleb128 -9
 7367 1293 00       		.byte	0
 7368 1294 1B       		.uleb128 0x1b
 7369 1295 01       		.byte	0x1
 7370 1296 FB070000 		.4byte	.LASF126
 7371 129a 01       		.byte	0x1
 7372 129b A104     		.2byte	0x4a1
 7373 129d 01       		.byte	0x1
 7374 129e 6F000000 		.4byte	0x6f
 7375 12a2 00000000 		.4byte	.LFB83
 7376 12a6 42000000 		.4byte	.LFE83
 7377 12aa 80110000 		.4byte	.LLST83
 7378 12ae 01       		.byte	0x1
 7379 12af D2120000 		.4byte	0x12d2
 7380 12b3 12       		.uleb128 0x12
 7381 12b4 5C060000 		.4byte	.LASF65
 7382 12b8 01       		.byte	0x1
 7383 12b9 A104     		.2byte	0x4a1
 7384 12bb 6F000000 		.4byte	0x6f
 7385 12bf 02       		.byte	0x2
 7386 12c0 91       		.byte	0x91
ARM GAS  C:\Users\CHUCK~1.ERH\AppData\Local\Temp\ccSfgJB7.s 			page 158


 7387 12c1 6F       		.sleb128 -17
 7388 12c2 14       		.uleb128 0x14
 7389 12c3 2F060000 		.4byte	.LASF72
 7390 12c7 01       		.byte	0x1
 7391 12c8 A304     		.2byte	0x4a3
 7392 12ca 6F000000 		.4byte	0x6f
 7393 12ce 02       		.byte	0x2
 7394 12cf 91       		.byte	0x91
 7395 12d0 77       		.sleb128 -9
 7396 12d1 00       		.byte	0
 7397 12d2 1B       		.uleb128 0x1b
 7398 12d3 01       		.byte	0x1
 7399 12d4 6D030000 		.4byte	.LASF127
 7400 12d8 01       		.byte	0x1
 7401 12d9 AF04     		.2byte	0x4af
 7402 12db 01       		.byte	0x1
 7403 12dc 6F000000 		.4byte	0x6f
 7404 12e0 00000000 		.4byte	.LFB84
 7405 12e4 28000000 		.4byte	.LFE84
 7406 12e8 B8110000 		.4byte	.LLST84
 7407 12ec 01       		.byte	0x1
 7408 12ed 01130000 		.4byte	0x1301
 7409 12f1 12       		.uleb128 0x12
 7410 12f2 5C060000 		.4byte	.LASF65
 7411 12f6 01       		.byte	0x1
 7412 12f7 AF04     		.2byte	0x4af
 7413 12f9 6F000000 		.4byte	0x6f
 7414 12fd 02       		.byte	0x2
 7415 12fe 91       		.byte	0x91
 7416 12ff 77       		.sleb128 -9
 7417 1300 00       		.byte	0
 7418 1301 11       		.uleb128 0x11
 7419 1302 35040000 		.4byte	.LASF128
 7420 1306 01       		.byte	0x1
 7421 1307 B904     		.2byte	0x4b9
 7422 1309 01       		.byte	0x1
 7423 130a 00000000 		.4byte	.LFB85
 7424 130e 78000000 		.4byte	.LFE85
 7425 1312 F0110000 		.4byte	.LLST85
 7426 1316 01       		.byte	0x1
 7427 1317 39130000 		.4byte	0x1339
 7428 131b 12       		.uleb128 0x12
 7429 131c 5C060000 		.4byte	.LASF65
 7430 1320 01       		.byte	0x1
 7431 1321 B904     		.2byte	0x4b9
 7432 1323 6F000000 		.4byte	0x6f
 7433 1327 02       		.byte	0x2
 7434 1328 91       		.byte	0x91
 7435 1329 6F       		.sleb128 -17
 7436 132a 16       		.uleb128 0x16
 7437 132b 697200   		.ascii	"ir\000"
 7438 132e 01       		.byte	0x1
 7439 132f BB04     		.2byte	0x4bb
 7440 1331 6F000000 		.4byte	0x6f
 7441 1335 02       		.byte	0x2
 7442 1336 91       		.byte	0x91
 7443 1337 77       		.sleb128 -9
ARM GAS  C:\Users\CHUCK~1.ERH\AppData\Local\Temp\ccSfgJB7.s 			page 159


 7444 1338 00       		.byte	0
 7445 1339 11       		.uleb128 0x11
 7446 133a 87060000 		.4byte	.LASF129
 7447 133e 01       		.byte	0x1
 7448 133f D404     		.2byte	0x4d4
 7449 1341 01       		.byte	0x1
 7450 1342 00000000 		.4byte	.LFB86
 7451 1346 78000000 		.4byte	.LFE86
 7452 134a 28120000 		.4byte	.LLST86
 7453 134e 01       		.byte	0x1
 7454 134f 71130000 		.4byte	0x1371
 7455 1353 12       		.uleb128 0x12
 7456 1354 5C060000 		.4byte	.LASF65
 7457 1358 01       		.byte	0x1
 7458 1359 D404     		.2byte	0x4d4
 7459 135b 6F000000 		.4byte	0x6f
 7460 135f 02       		.byte	0x2
 7461 1360 91       		.byte	0x91
 7462 1361 6F       		.sleb128 -17
 7463 1362 16       		.uleb128 0x16
 7464 1363 697200   		.ascii	"ir\000"
 7465 1366 01       		.byte	0x1
 7466 1367 D604     		.2byte	0x4d6
 7467 1369 6F000000 		.4byte	0x6f
 7468 136d 02       		.byte	0x2
 7469 136e 91       		.byte	0x91
 7470 136f 77       		.sleb128 -9
 7471 1370 00       		.byte	0
 7472 1371 1B       		.uleb128 0x1b
 7473 1372 01       		.byte	0x1
 7474 1373 E4020000 		.4byte	.LASF130
 7475 1377 01       		.byte	0x1
 7476 1378 EB04     		.2byte	0x4eb
 7477 137a 01       		.byte	0x1
 7478 137b 7A000000 		.4byte	0x7a
 7479 137f 00000000 		.4byte	.LFB87
 7480 1383 1E000000 		.4byte	.LFE87
 7481 1387 60120000 		.4byte	.LLST87
 7482 138b 01       		.byte	0x1
 7483 138c A0130000 		.4byte	0x13a0
 7484 1390 12       		.uleb128 0x12
 7485 1391 5C060000 		.4byte	.LASF65
 7486 1395 01       		.byte	0x1
 7487 1396 EB04     		.2byte	0x4eb
 7488 1398 6F000000 		.4byte	0x6f
 7489 139c 02       		.byte	0x2
 7490 139d 91       		.byte	0x91
 7491 139e 77       		.sleb128 -9
 7492 139f 00       		.byte	0
 7493 13a0 1B       		.uleb128 0x1b
 7494 13a1 01       		.byte	0x1
 7495 13a2 08060000 		.4byte	.LASF131
 7496 13a6 01       		.byte	0x1
 7497 13a7 F504     		.2byte	0x4f5
 7498 13a9 01       		.byte	0x1
 7499 13aa 6F000000 		.4byte	0x6f
 7500 13ae 00000000 		.4byte	.LFB88
ARM GAS  C:\Users\CHUCK~1.ERH\AppData\Local\Temp\ccSfgJB7.s 			page 160


 7501 13b2 26000000 		.4byte	.LFE88
 7502 13b6 98120000 		.4byte	.LLST88
 7503 13ba 01       		.byte	0x1
 7504 13bb CF130000 		.4byte	0x13cf
 7505 13bf 12       		.uleb128 0x12
 7506 13c0 56070000 		.4byte	.LASF62
 7507 13c4 01       		.byte	0x1
 7508 13c5 F504     		.2byte	0x4f5
 7509 13c7 7A000000 		.4byte	0x7a
 7510 13cb 02       		.byte	0x2
 7511 13cc 91       		.byte	0x91
 7512 13cd 76       		.sleb128 -10
 7513 13ce 00       		.byte	0
 7514 13cf 1A       		.uleb128 0x1a
 7515 13d0 01       		.byte	0x1
 7516 13d1 44030000 		.4byte	.LASF132
 7517 13d5 01       		.byte	0x1
 7518 13d6 FB04     		.2byte	0x4fb
 7519 13d8 01       		.byte	0x1
 7520 13d9 00000000 		.4byte	.LFB89
 7521 13dd 24000000 		.4byte	.LFE89
 7522 13e1 D0120000 		.4byte	.LLST89
 7523 13e5 01       		.byte	0x1
 7524 13e6 FA130000 		.4byte	0x13fa
 7525 13ea 12       		.uleb128 0x12
 7526 13eb 5C060000 		.4byte	.LASF65
 7527 13ef 01       		.byte	0x1
 7528 13f0 FB04     		.2byte	0x4fb
 7529 13f2 6F000000 		.4byte	0x6f
 7530 13f6 02       		.byte	0x2
 7531 13f7 91       		.byte	0x91
 7532 13f8 77       		.sleb128 -9
 7533 13f9 00       		.byte	0
 7534 13fa 1A       		.uleb128 0x1a
 7535 13fb 01       		.byte	0x1
 7536 13fc 65040000 		.4byte	.LASF133
 7537 1400 01       		.byte	0x1
 7538 1401 0805     		.2byte	0x508
 7539 1403 01       		.byte	0x1
 7540 1404 00000000 		.4byte	.LFB90
 7541 1408 32000000 		.4byte	.LFE90
 7542 140c 08130000 		.4byte	.LLST90
 7543 1410 01       		.byte	0x1
 7544 1411 25140000 		.4byte	0x1425
 7545 1415 12       		.uleb128 0x12
 7546 1416 5C060000 		.4byte	.LASF65
 7547 141a 01       		.byte	0x1
 7548 141b 0805     		.2byte	0x508
 7549 141d 6F000000 		.4byte	0x6f
 7550 1421 02       		.byte	0x2
 7551 1422 91       		.byte	0x91
 7552 1423 77       		.sleb128 -9
 7553 1424 00       		.byte	0
 7554 1425 1A       		.uleb128 0x1a
 7555 1426 01       		.byte	0x1
 7556 1427 36060000 		.4byte	.LASF134
 7557 142b 01       		.byte	0x1
ARM GAS  C:\Users\CHUCK~1.ERH\AppData\Local\Temp\ccSfgJB7.s 			page 161


 7558 142c 1205     		.2byte	0x512
 7559 142e 01       		.byte	0x1
 7560 142f 00000000 		.4byte	.LFB91
 7561 1433 A6000000 		.4byte	.LFE91
 7562 1437 40130000 		.4byte	.LLST91
 7563 143b 01       		.byte	0x1
 7564 143c 8A140000 		.4byte	0x148a
 7565 1440 12       		.uleb128 0x12
 7566 1441 5C060000 		.4byte	.LASF65
 7567 1445 01       		.byte	0x1
 7568 1446 1205     		.2byte	0x512
 7569 1448 6F000000 		.4byte	0x6f
 7570 144c 02       		.byte	0x2
 7571 144d 91       		.byte	0x91
 7572 144e 6F       		.sleb128 -17
 7573 144f 13       		.uleb128 0x13
 7574 1450 697000   		.ascii	"ip\000"
 7575 1453 01       		.byte	0x1
 7576 1454 1205     		.2byte	0x512
 7577 1456 85000000 		.4byte	0x85
 7578 145a 02       		.byte	0x2
 7579 145b 91       		.byte	0x91
 7580 145c 68       		.sleb128 -24
 7581 145d 12       		.uleb128 0x12
 7582 145e 56070000 		.4byte	.LASF62
 7583 1462 01       		.byte	0x1
 7584 1463 1205     		.2byte	0x512
 7585 1465 7A000000 		.4byte	0x7a
 7586 1469 02       		.byte	0x2
 7587 146a 91       		.byte	0x91
 7588 146b 6C       		.sleb128 -20
 7589 146c 14       		.uleb128 0x14
 7590 146d E1050000 		.4byte	.LASF99
 7591 1471 01       		.byte	0x1
 7592 1472 1405     		.2byte	0x514
 7593 1474 85000000 		.4byte	0x85
 7594 1478 02       		.byte	0x2
 7595 1479 91       		.byte	0x91
 7596 147a 74       		.sleb128 -12
 7597 147b 16       		.uleb128 0x16
 7598 147c 697200   		.ascii	"ir\000"
 7599 147f 01       		.byte	0x1
 7600 1480 1505     		.2byte	0x515
 7601 1482 6F000000 		.4byte	0x6f
 7602 1486 02       		.byte	0x2
 7603 1487 91       		.byte	0x91
 7604 1488 73       		.sleb128 -13
 7605 1489 00       		.byte	0
 7606 148a 1B       		.uleb128 0x1b
 7607 148b 01       		.byte	0x1
 7608 148c 6F050000 		.4byte	.LASF135
 7609 1490 01       		.byte	0x1
 7610 1491 2D05     		.2byte	0x52d
 7611 1493 01       		.byte	0x1
 7612 1494 6F000000 		.4byte	0x6f
 7613 1498 00000000 		.4byte	.LFB92
 7614 149c 1E000000 		.4byte	.LFE92
ARM GAS  C:\Users\CHUCK~1.ERH\AppData\Local\Temp\ccSfgJB7.s 			page 162


 7615 14a0 78130000 		.4byte	.LLST92
 7616 14a4 01       		.byte	0x1
 7617 14a5 B9140000 		.4byte	0x14b9
 7618 14a9 12       		.uleb128 0x12
 7619 14aa 5C060000 		.4byte	.LASF65
 7620 14ae 01       		.byte	0x1
 7621 14af 2D05     		.2byte	0x52d
 7622 14b1 6F000000 		.4byte	0x6f
 7623 14b5 02       		.byte	0x2
 7624 14b6 91       		.byte	0x91
 7625 14b7 77       		.sleb128 -9
 7626 14b8 00       		.byte	0
 7627 14b9 1A       		.uleb128 0x1a
 7628 14ba 01       		.byte	0x1
 7629 14bb C6060000 		.4byte	.LASF136
 7630 14bf 01       		.byte	0x1
 7631 14c0 3105     		.2byte	0x531
 7632 14c2 01       		.byte	0x1
 7633 14c3 00000000 		.4byte	.LFB93
 7634 14c7 1E000000 		.4byte	.LFE93
 7635 14cb B0130000 		.4byte	.LLST93
 7636 14cf 01       		.byte	0x1
 7637 14d0 E4140000 		.4byte	0x14e4
 7638 14d4 12       		.uleb128 0x12
 7639 14d5 5C060000 		.4byte	.LASF65
 7640 14d9 01       		.byte	0x1
 7641 14da 3105     		.2byte	0x531
 7642 14dc 6F000000 		.4byte	0x6f
 7643 14e0 02       		.byte	0x2
 7644 14e1 91       		.byte	0x91
 7645 14e2 77       		.sleb128 -9
 7646 14e3 00       		.byte	0
 7647 14e4 1B       		.uleb128 0x1b
 7648 14e5 01       		.byte	0x1
 7649 14e6 D7010000 		.4byte	.LASF137
 7650 14ea 01       		.byte	0x1
 7651 14eb 3705     		.2byte	0x537
 7652 14ed 01       		.byte	0x1
 7653 14ee 7A000000 		.4byte	0x7a
 7654 14f2 00000000 		.4byte	.LFB94
 7655 14f6 B4000000 		.4byte	.LFE94
 7656 14fa E8130000 		.4byte	.LLST94
 7657 14fe 01       		.byte	0x1
 7658 14ff 5E150000 		.4byte	0x155e
 7659 1503 12       		.uleb128 0x12
 7660 1504 5C060000 		.4byte	.LASF65
 7661 1508 01       		.byte	0x1
 7662 1509 3705     		.2byte	0x537
 7663 150b 6F000000 		.4byte	0x6f
 7664 150f 02       		.byte	0x2
 7665 1510 91       		.byte	0x91
 7666 1511 6F       		.sleb128 -17
 7667 1512 12       		.uleb128 0x12
 7668 1513 6E000000 		.4byte	.LASF27
 7669 1517 01       		.byte	0x1
 7670 1518 3705     		.2byte	0x537
 7671 151a DC010000 		.4byte	0x1dc
ARM GAS  C:\Users\CHUCK~1.ERH\AppData\Local\Temp\ccSfgJB7.s 			page 163


 7672 151e 02       		.byte	0x2
 7673 151f 91       		.byte	0x91
 7674 1520 68       		.sleb128 -24
 7675 1521 13       		.uleb128 0x13
 7676 1522 6C656E00 		.ascii	"len\000"
 7677 1526 01       		.byte	0x1
 7678 1527 3705     		.2byte	0x537
 7679 1529 7A000000 		.4byte	0x7a
 7680 152d 02       		.byte	0x2
 7681 152e 91       		.byte	0x91
 7682 152f 6C       		.sleb128 -20
 7683 1530 14       		.uleb128 0x14
 7684 1531 E4010000 		.4byte	.LASF138
 7685 1535 01       		.byte	0x1
 7686 1536 3905     		.2byte	0x539
 7687 1538 7A000000 		.4byte	0x7a
 7688 153c 02       		.byte	0x2
 7689 153d 91       		.byte	0x91
 7690 153e 76       		.sleb128 -10
 7691 153f 14       		.uleb128 0x14
 7692 1540 63060000 		.4byte	.LASF139
 7693 1544 01       		.byte	0x1
 7694 1545 3A05     		.2byte	0x53a
 7695 1547 7A000000 		.4byte	0x7a
 7696 154b 02       		.byte	0x2
 7697 154c 91       		.byte	0x91
 7698 154d 74       		.sleb128 -12
 7699 154e 14       		.uleb128 0x14
 7700 154f 2F060000 		.4byte	.LASF72
 7701 1553 01       		.byte	0x1
 7702 1554 3B05     		.2byte	0x53b
 7703 1556 6F000000 		.4byte	0x6f
 7704 155a 02       		.byte	0x2
 7705 155b 91       		.byte	0x91
 7706 155c 73       		.sleb128 -13
 7707 155d 00       		.byte	0
 7708 155e 1B       		.uleb128 0x1b
 7709 155f 01       		.byte	0x1
 7710 1560 E5030000 		.4byte	.LASF140
 7711 1564 01       		.byte	0x1
 7712 1565 5F05     		.2byte	0x55f
 7713 1567 01       		.byte	0x1
 7714 1568 7A000000 		.4byte	0x7a
 7715 156c 00000000 		.4byte	.LFB95
 7716 1570 70000000 		.4byte	.LFE95
 7717 1574 20140000 		.4byte	.LLST95
 7718 1578 01       		.byte	0x1
 7719 1579 BA150000 		.4byte	0x15ba
 7720 157d 12       		.uleb128 0x12
 7721 157e 5C060000 		.4byte	.LASF65
 7722 1582 01       		.byte	0x1
 7723 1583 5F05     		.2byte	0x55f
 7724 1585 6F000000 		.4byte	0x6f
 7725 1589 02       		.byte	0x2
 7726 158a 91       		.byte	0x91
 7727 158b 6F       		.sleb128 -17
 7728 158c 12       		.uleb128 0x12
ARM GAS  C:\Users\CHUCK~1.ERH\AppData\Local\Temp\ccSfgJB7.s 			page 164


 7729 158d 6E000000 		.4byte	.LASF27
 7730 1591 01       		.byte	0x1
 7731 1592 5F05     		.2byte	0x55f
 7732 1594 DC010000 		.4byte	0x1dc
 7733 1598 02       		.byte	0x2
 7734 1599 91       		.byte	0x91
 7735 159a 68       		.sleb128 -24
 7736 159b 12       		.uleb128 0x12
 7737 159c 28060000 		.4byte	.LASF32
 7738 15a0 01       		.byte	0x1
 7739 15a1 5F05     		.2byte	0x55f
 7740 15a3 7A000000 		.4byte	0x7a
 7741 15a7 02       		.byte	0x2
 7742 15a8 91       		.byte	0x91
 7743 15a9 6C       		.sleb128 -20
 7744 15aa 14       		.uleb128 0x14
 7745 15ab A5080000 		.4byte	.LASF141
 7746 15af 01       		.byte	0x1
 7747 15b0 6105     		.2byte	0x561
 7748 15b2 7A000000 		.4byte	0x7a
 7749 15b6 02       		.byte	0x2
 7750 15b7 91       		.byte	0x91
 7751 15b8 76       		.sleb128 -10
 7752 15b9 00       		.byte	0
 7753 15ba 1A       		.uleb128 0x1a
 7754 15bb 01       		.byte	0x1
 7755 15bc C0050000 		.4byte	.LASF142
 7756 15c0 01       		.byte	0x1
 7757 15c1 8005     		.2byte	0x580
 7758 15c3 01       		.byte	0x1
 7759 15c4 00000000 		.4byte	.LFB96
 7760 15c8 2A000000 		.4byte	.LFE96
 7761 15cc 58140000 		.4byte	.LLST96
 7762 15d0 01       		.byte	0x1
 7763 15d1 F4150000 		.4byte	0x15f4
 7764 15d5 12       		.uleb128 0x12
 7765 15d6 5C060000 		.4byte	.LASF65
 7766 15da 01       		.byte	0x1
 7767 15db 8005     		.2byte	0x580
 7768 15dd 6F000000 		.4byte	0x6f
 7769 15e1 02       		.byte	0x2
 7770 15e2 91       		.byte	0x91
 7771 15e3 77       		.sleb128 -9
 7772 15e4 13       		.uleb128 0x13
 7773 15e5 73747200 		.ascii	"str\000"
 7774 15e9 01       		.byte	0x1
 7775 15ea 8005     		.2byte	0x580
 7776 15ec AC000000 		.4byte	0xac
 7777 15f0 02       		.byte	0x2
 7778 15f1 91       		.byte	0x91
 7779 15f2 70       		.sleb128 -16
 7780 15f3 00       		.byte	0
 7781 15f4 1B       		.uleb128 0x1b
 7782 15f5 01       		.byte	0x1
 7783 15f6 7D040000 		.4byte	.LASF143
 7784 15fa 01       		.byte	0x1
 7785 15fb 8A05     		.2byte	0x58a
ARM GAS  C:\Users\CHUCK~1.ERH\AppData\Local\Temp\ccSfgJB7.s 			page 165


 7786 15fd 01       		.byte	0x1
 7787 15fe 6F000000 		.4byte	0x6f
 7788 1602 00000000 		.4byte	.LFB97
 7789 1606 26000000 		.4byte	.LFE97
 7790 160a 90140000 		.4byte	.LLST97
 7791 160e 01       		.byte	0x1
 7792 160f 23160000 		.4byte	0x1623
 7793 1613 12       		.uleb128 0x12
 7794 1614 56070000 		.4byte	.LASF62
 7795 1618 01       		.byte	0x1
 7796 1619 8A05     		.2byte	0x58a
 7797 161b 7A000000 		.4byte	0x7a
 7798 161f 02       		.byte	0x2
 7799 1620 91       		.byte	0x91
 7800 1621 76       		.sleb128 -10
 7801 1622 00       		.byte	0
 7802 1623 1B       		.uleb128 0x1b
 7803 1624 01       		.byte	0x1
 7804 1625 84030000 		.4byte	.LASF144
 7805 1629 01       		.byte	0x1
 7806 162a 9005     		.2byte	0x590
 7807 162c 01       		.byte	0x1
 7808 162d 7A000000 		.4byte	0x7a
 7809 1631 00000000 		.4byte	.LFB98
 7810 1635 7E000000 		.4byte	.LFE98
 7811 1639 C8140000 		.4byte	.LLST98
 7812 163d 01       		.byte	0x1
 7813 163e 9C160000 		.4byte	0x169c
 7814 1642 12       		.uleb128 0x12
 7815 1643 5C060000 		.4byte	.LASF65
 7816 1647 01       		.byte	0x1
 7817 1648 9005     		.2byte	0x590
 7818 164a 6F000000 		.4byte	0x6f
 7819 164e 02       		.byte	0x2
 7820 164f 91       		.byte	0x91
 7821 1650 6F       		.sleb128 -17
 7822 1651 13       		.uleb128 0x13
 7823 1652 697000   		.ascii	"ip\000"
 7824 1655 01       		.byte	0x1
 7825 1656 9005     		.2byte	0x590
 7826 1658 85000000 		.4byte	0x85
 7827 165c 02       		.byte	0x2
 7828 165d 91       		.byte	0x91
 7829 165e 68       		.sleb128 -24
 7830 165f 12       		.uleb128 0x12
 7831 1660 56070000 		.4byte	.LASF62
 7832 1664 01       		.byte	0x1
 7833 1665 9005     		.2byte	0x590
 7834 1667 7A000000 		.4byte	0x7a
 7835 166b 02       		.byte	0x2
 7836 166c 91       		.byte	0x91
 7837 166d 6C       		.sleb128 -20
 7838 166e 12       		.uleb128 0x12
 7839 166f 6E000000 		.4byte	.LASF27
 7840 1673 01       		.byte	0x1
 7841 1674 9005     		.2byte	0x590
 7842 1676 DC010000 		.4byte	0x1dc
ARM GAS  C:\Users\CHUCK~1.ERH\AppData\Local\Temp\ccSfgJB7.s 			page 166


 7843 167a 02       		.byte	0x2
 7844 167b 91       		.byte	0x91
 7845 167c 64       		.sleb128 -28
 7846 167d 12       		.uleb128 0x12
 7847 167e 28060000 		.4byte	.LASF32
 7848 1682 01       		.byte	0x1
 7849 1683 9005     		.2byte	0x590
 7850 1685 7A000000 		.4byte	0x7a
 7851 1689 02       		.byte	0x2
 7852 168a 91       		.byte	0x91
 7853 168b 00       		.sleb128 0
 7854 168c 14       		.uleb128 0x14
 7855 168d E4010000 		.4byte	.LASF138
 7856 1691 01       		.byte	0x1
 7857 1692 9205     		.2byte	0x592
 7858 1694 7A000000 		.4byte	0x7a
 7859 1698 02       		.byte	0x2
 7860 1699 91       		.byte	0x91
 7861 169a 76       		.sleb128 -10
 7862 169b 00       		.byte	0
 7863 169c 1B       		.uleb128 0x1b
 7864 169d 01       		.byte	0x1
 7865 169e C6090000 		.4byte	.LASF145
 7866 16a2 01       		.byte	0x1
 7867 16a3 B905     		.2byte	0x5b9
 7868 16a5 01       		.byte	0x1
 7869 16a6 7A000000 		.4byte	0x7a
 7870 16aa 00000000 		.4byte	.LFB99
 7871 16ae 08010000 		.4byte	.LFE99
 7872 16b2 00150000 		.4byte	.LLST99
 7873 16b6 01       		.byte	0x1
 7874 16b7 33170000 		.4byte	0x1733
 7875 16bb 12       		.uleb128 0x12
 7876 16bc 5C060000 		.4byte	.LASF65
 7877 16c0 01       		.byte	0x1
 7878 16c1 B905     		.2byte	0x5b9
 7879 16c3 6F000000 		.4byte	0x6f
 7880 16c7 02       		.byte	0x2
 7881 16c8 91       		.byte	0x91
 7882 16c9 67       		.sleb128 -25
 7883 16ca 13       		.uleb128 0x13
 7884 16cb 697000   		.ascii	"ip\000"
 7885 16ce 01       		.byte	0x1
 7886 16cf B905     		.2byte	0x5b9
 7887 16d1 EA020000 		.4byte	0x2ea
 7888 16d5 02       		.byte	0x2
 7889 16d6 91       		.byte	0x91
 7890 16d7 60       		.sleb128 -32
 7891 16d8 12       		.uleb128 0x12
 7892 16d9 56070000 		.4byte	.LASF62
 7893 16dd 01       		.byte	0x1
 7894 16de B905     		.2byte	0x5b9
 7895 16e0 33170000 		.4byte	0x1733
 7896 16e4 02       		.byte	0x2
 7897 16e5 91       		.byte	0x91
 7898 16e6 5C       		.sleb128 -36
 7899 16e7 12       		.uleb128 0x12
ARM GAS  C:\Users\CHUCK~1.ERH\AppData\Local\Temp\ccSfgJB7.s 			page 167


 7900 16e8 6E000000 		.4byte	.LASF27
 7901 16ec 01       		.byte	0x1
 7902 16ed B905     		.2byte	0x5b9
 7903 16ef DC010000 		.4byte	0x1dc
 7904 16f3 02       		.byte	0x2
 7905 16f4 91       		.byte	0x91
 7906 16f5 58       		.sleb128 -40
 7907 16f6 12       		.uleb128 0x12
 7908 16f7 28060000 		.4byte	.LASF32
 7909 16fb 01       		.byte	0x1
 7910 16fc B905     		.2byte	0x5b9
 7911 16fe 7A000000 		.4byte	0x7a
 7912 1702 02       		.byte	0x2
 7913 1703 91       		.byte	0x91
 7914 1704 00       		.sleb128 0
 7915 1705 14       		.uleb128 0x14
 7916 1706 A5080000 		.4byte	.LASF141
 7917 170a 01       		.byte	0x1
 7918 170b BB05     		.2byte	0x5bb
 7919 170d 7A000000 		.4byte	0x7a
 7920 1711 02       		.byte	0x2
 7921 1712 91       		.byte	0x91
 7922 1713 76       		.sleb128 -10
 7923 1714 14       		.uleb128 0x14
 7924 1715 E9090000 		.4byte	.LASF146
 7925 1719 01       		.byte	0x1
 7926 171a BC05     		.2byte	0x5bc
 7927 171c 7A000000 		.4byte	0x7a
 7928 1720 02       		.byte	0x2
 7929 1721 91       		.byte	0x91
 7930 1722 74       		.sleb128 -12
 7931 1723 14       		.uleb128 0x14
 7932 1724 F1060000 		.4byte	.LASF147
 7933 1728 01       		.byte	0x1
 7934 1729 BD05     		.2byte	0x5bd
 7935 172b 39170000 		.4byte	0x1739
 7936 172f 02       		.byte	0x2
 7937 1730 91       		.byte	0x91
 7938 1731 6C       		.sleb128 -20
 7939 1732 00       		.byte	0
 7940 1733 05       		.uleb128 0x5
 7941 1734 04       		.byte	0x4
 7942 1735 7A000000 		.4byte	0x7a
 7943 1739 17       		.uleb128 0x17
 7944 173a 6F000000 		.4byte	0x6f
 7945 173e 49170000 		.4byte	0x1749
 7946 1742 18       		.uleb128 0x18
 7947 1743 A5000000 		.4byte	0xa5
 7948 1747 07       		.byte	0x7
 7949 1748 00       		.byte	0
 7950 1749 17       		.uleb128 0x17
 7951 174a F8000000 		.4byte	0xf8
 7952 174e 59170000 		.4byte	0x1759
 7953 1752 18       		.uleb128 0x18
 7954 1753 A5000000 		.4byte	0xa5
 7955 1757 03       		.byte	0x3
 7956 1758 00       		.byte	0
ARM GAS  C:\Users\CHUCK~1.ERH\AppData\Local\Temp\ccSfgJB7.s 			page 168


 7957 1759 0F       		.uleb128 0xf
 7958 175a 07070000 		.4byte	.LASF148
 7959 175e 01       		.byte	0x1
 7960 175f 24       		.byte	0x24
 7961 1760 49170000 		.4byte	0x1749
 7962 1764 05       		.byte	0x5
 7963 1765 03       		.byte	0x3
 7964 1766 00000000 		.4byte	ETH0_SocketConfig
 7965 176a 0F       		.uleb128 0xf
 7966 176b 6D070000 		.4byte	.LASF149
 7967 176f 01       		.byte	0x1
 7968 1770 25       		.byte	0x25
 7969 1771 85000000 		.4byte	0x85
 7970 1775 05       		.byte	0x5
 7971 1776 03       		.byte	0x3
 7972 1777 18000000 		.4byte	ETH0_SubnetMask
 7973 177b 17       		.uleb128 0x17
 7974 177c 6F000000 		.4byte	0x6f
 7975 1780 8B170000 		.4byte	0x178b
 7976 1784 18       		.uleb128 0x18
 7977 1785 A5000000 		.4byte	0xa5
 7978 1789 05       		.byte	0x5
 7979 178a 00       		.byte	0
 7980 178b 0F       		.uleb128 0xf
 7981 178c 7D070000 		.4byte	.LASF150
 7982 1790 01       		.byte	0x1
 7983 1791 27       		.byte	0x27
 7984 1792 7B170000 		.4byte	0x177b
 7985 1796 05       		.byte	0x5
 7986 1797 03       		.byte	0x3
 7987 1798 00000000 		.4byte	ETH0_MAC
 7988 179c 1D       		.uleb128 0x1d
 7989 179d 68010000 		.4byte	.LASF156
 7990 17a1 01       		.byte	0x1
 7991 17a2 17       		.byte	0x17
 7992 17a3 6F000000 		.4byte	0x6f
 7993 17a7 01       		.byte	0x1
 7994 17a8 01       		.byte	0x1
 7995 17a9 00       		.byte	0
 7996              		.section	.debug_abbrev,"",%progbits
 7997              	.Ldebug_abbrev0:
 7998 0000 01       		.uleb128 0x1
 7999 0001 11       		.uleb128 0x11
 8000 0002 01       		.byte	0x1
 8001 0003 25       		.uleb128 0x25
 8002 0004 0E       		.uleb128 0xe
 8003 0005 13       		.uleb128 0x13
 8004 0006 0B       		.uleb128 0xb
 8005 0007 03       		.uleb128 0x3
 8006 0008 0E       		.uleb128 0xe
 8007 0009 1B       		.uleb128 0x1b
 8008 000a 0E       		.uleb128 0xe
 8009 000b 55       		.uleb128 0x55
 8010 000c 06       		.uleb128 0x6
 8011 000d 11       		.uleb128 0x11
 8012 000e 01       		.uleb128 0x1
 8013 000f 52       		.uleb128 0x52
ARM GAS  C:\Users\CHUCK~1.ERH\AppData\Local\Temp\ccSfgJB7.s 			page 169


 8014 0010 01       		.uleb128 0x1
 8015 0011 10       		.uleb128 0x10
 8016 0012 06       		.uleb128 0x6
 8017 0013 00       		.byte	0
 8018 0014 00       		.byte	0
 8019 0015 02       		.uleb128 0x2
 8020 0016 24       		.uleb128 0x24
 8021 0017 00       		.byte	0
 8022 0018 0B       		.uleb128 0xb
 8023 0019 0B       		.uleb128 0xb
 8024 001a 3E       		.uleb128 0x3e
 8025 001b 0B       		.uleb128 0xb
 8026 001c 03       		.uleb128 0x3
 8027 001d 0E       		.uleb128 0xe
 8028 001e 00       		.byte	0
 8029 001f 00       		.byte	0
 8030 0020 03       		.uleb128 0x3
 8031 0021 24       		.uleb128 0x24
 8032 0022 00       		.byte	0
 8033 0023 0B       		.uleb128 0xb
 8034 0024 0B       		.uleb128 0xb
 8035 0025 3E       		.uleb128 0x3e
 8036 0026 0B       		.uleb128 0xb
 8037 0027 03       		.uleb128 0x3
 8038 0028 08       		.uleb128 0x8
 8039 0029 00       		.byte	0
 8040 002a 00       		.byte	0
 8041 002b 04       		.uleb128 0x4
 8042 002c 16       		.uleb128 0x16
 8043 002d 00       		.byte	0
 8044 002e 03       		.uleb128 0x3
 8045 002f 0E       		.uleb128 0xe
 8046 0030 3A       		.uleb128 0x3a
 8047 0031 0B       		.uleb128 0xb
 8048 0032 3B       		.uleb128 0x3b
 8049 0033 0B       		.uleb128 0xb
 8050 0034 49       		.uleb128 0x49
 8051 0035 13       		.uleb128 0x13
 8052 0036 00       		.byte	0
 8053 0037 00       		.byte	0
 8054 0038 05       		.uleb128 0x5
 8055 0039 0F       		.uleb128 0xf
 8056 003a 00       		.byte	0
 8057 003b 0B       		.uleb128 0xb
 8058 003c 0B       		.uleb128 0xb
 8059 003d 49       		.uleb128 0x49
 8060 003e 13       		.uleb128 0x13
 8061 003f 00       		.byte	0
 8062 0040 00       		.byte	0
 8063 0041 06       		.uleb128 0x6
 8064 0042 26       		.uleb128 0x26
 8065 0043 00       		.byte	0
 8066 0044 49       		.uleb128 0x49
 8067 0045 13       		.uleb128 0x13
 8068 0046 00       		.byte	0
 8069 0047 00       		.byte	0
 8070 0048 07       		.uleb128 0x7
ARM GAS  C:\Users\CHUCK~1.ERH\AppData\Local\Temp\ccSfgJB7.s 			page 170


 8071 0049 13       		.uleb128 0x13
 8072 004a 01       		.byte	0x1
 8073 004b 0B       		.uleb128 0xb
 8074 004c 0B       		.uleb128 0xb
 8075 004d 3A       		.uleb128 0x3a
 8076 004e 0B       		.uleb128 0xb
 8077 004f 3B       		.uleb128 0x3b
 8078 0050 0B       		.uleb128 0xb
 8079 0051 01       		.uleb128 0x1
 8080 0052 13       		.uleb128 0x13
 8081 0053 00       		.byte	0
 8082 0054 00       		.byte	0
 8083 0055 08       		.uleb128 0x8
 8084 0056 0D       		.uleb128 0xd
 8085 0057 00       		.byte	0
 8086 0058 03       		.uleb128 0x3
 8087 0059 0E       		.uleb128 0xe
 8088 005a 3A       		.uleb128 0x3a
 8089 005b 0B       		.uleb128 0xb
 8090 005c 3B       		.uleb128 0x3b
 8091 005d 0B       		.uleb128 0xb
 8092 005e 49       		.uleb128 0x49
 8093 005f 13       		.uleb128 0x13
 8094 0060 38       		.uleb128 0x38
 8095 0061 0A       		.uleb128 0xa
 8096 0062 00       		.byte	0
 8097 0063 00       		.byte	0
 8098 0064 09       		.uleb128 0x9
 8099 0065 2E       		.uleb128 0x2e
 8100 0066 00       		.byte	0
 8101 0067 03       		.uleb128 0x3
 8102 0068 0E       		.uleb128 0xe
 8103 0069 3A       		.uleb128 0x3a
 8104 006a 0B       		.uleb128 0xb
 8105 006b 3B       		.uleb128 0x3b
 8106 006c 0B       		.uleb128 0xb
 8107 006d 27       		.uleb128 0x27
 8108 006e 0C       		.uleb128 0xc
 8109 006f 11       		.uleb128 0x11
 8110 0070 01       		.uleb128 0x1
 8111 0071 12       		.uleb128 0x12
 8112 0072 01       		.uleb128 0x1
 8113 0073 40       		.uleb128 0x40
 8114 0074 06       		.uleb128 0x6
 8115 0075 9742     		.uleb128 0x2117
 8116 0077 0C       		.uleb128 0xc
 8117 0078 00       		.byte	0
 8118 0079 00       		.byte	0
 8119 007a 0A       		.uleb128 0xa
 8120 007b 2E       		.uleb128 0x2e
 8121 007c 01       		.byte	0x1
 8122 007d 3F       		.uleb128 0x3f
 8123 007e 0C       		.uleb128 0xc
 8124 007f 03       		.uleb128 0x3
 8125 0080 0E       		.uleb128 0xe
 8126 0081 3A       		.uleb128 0x3a
 8127 0082 0B       		.uleb128 0xb
ARM GAS  C:\Users\CHUCK~1.ERH\AppData\Local\Temp\ccSfgJB7.s 			page 171


 8128 0083 3B       		.uleb128 0x3b
 8129 0084 0B       		.uleb128 0xb
 8130 0085 27       		.uleb128 0x27
 8131 0086 0C       		.uleb128 0xc
 8132 0087 11       		.uleb128 0x11
 8133 0088 01       		.uleb128 0x1
 8134 0089 12       		.uleb128 0x12
 8135 008a 01       		.uleb128 0x1
 8136 008b 40       		.uleb128 0x40
 8137 008c 06       		.uleb128 0x6
 8138 008d 9642     		.uleb128 0x2116
 8139 008f 0C       		.uleb128 0xc
 8140 0090 01       		.uleb128 0x1
 8141 0091 13       		.uleb128 0x13
 8142 0092 00       		.byte	0
 8143 0093 00       		.byte	0
 8144 0094 0B       		.uleb128 0xb
 8145 0095 05       		.uleb128 0x5
 8146 0096 00       		.byte	0
 8147 0097 03       		.uleb128 0x3
 8148 0098 0E       		.uleb128 0xe
 8149 0099 3A       		.uleb128 0x3a
 8150 009a 0B       		.uleb128 0xb
 8151 009b 3B       		.uleb128 0x3b
 8152 009c 0B       		.uleb128 0xb
 8153 009d 49       		.uleb128 0x49
 8154 009e 13       		.uleb128 0x13
 8155 009f 02       		.uleb128 0x2
 8156 00a0 0A       		.uleb128 0xa
 8157 00a1 00       		.byte	0
 8158 00a2 00       		.byte	0
 8159 00a3 0C       		.uleb128 0xc
 8160 00a4 05       		.uleb128 0x5
 8161 00a5 00       		.byte	0
 8162 00a6 03       		.uleb128 0x3
 8163 00a7 08       		.uleb128 0x8
 8164 00a8 3A       		.uleb128 0x3a
 8165 00a9 0B       		.uleb128 0xb
 8166 00aa 3B       		.uleb128 0x3b
 8167 00ab 0B       		.uleb128 0xb
 8168 00ac 49       		.uleb128 0x49
 8169 00ad 13       		.uleb128 0x13
 8170 00ae 02       		.uleb128 0x2
 8171 00af 0A       		.uleb128 0xa
 8172 00b0 00       		.byte	0
 8173 00b1 00       		.byte	0
 8174 00b2 0D       		.uleb128 0xd
 8175 00b3 2E       		.uleb128 0x2e
 8176 00b4 01       		.byte	0x1
 8177 00b5 3F       		.uleb128 0x3f
 8178 00b6 0C       		.uleb128 0xc
 8179 00b7 03       		.uleb128 0x3
 8180 00b8 0E       		.uleb128 0xe
 8181 00b9 3A       		.uleb128 0x3a
 8182 00ba 0B       		.uleb128 0xb
 8183 00bb 3B       		.uleb128 0x3b
 8184 00bc 0B       		.uleb128 0xb
ARM GAS  C:\Users\CHUCK~1.ERH\AppData\Local\Temp\ccSfgJB7.s 			page 172


 8185 00bd 27       		.uleb128 0x27
 8186 00be 0C       		.uleb128 0xc
 8187 00bf 49       		.uleb128 0x49
 8188 00c0 13       		.uleb128 0x13
 8189 00c1 11       		.uleb128 0x11
 8190 00c2 01       		.uleb128 0x1
 8191 00c3 12       		.uleb128 0x12
 8192 00c4 01       		.uleb128 0x1
 8193 00c5 40       		.uleb128 0x40
 8194 00c6 06       		.uleb128 0x6
 8195 00c7 9642     		.uleb128 0x2116
 8196 00c9 0C       		.uleb128 0xc
 8197 00ca 01       		.uleb128 0x1
 8198 00cb 13       		.uleb128 0x13
 8199 00cc 00       		.byte	0
 8200 00cd 00       		.byte	0
 8201 00ce 0E       		.uleb128 0xe
 8202 00cf 34       		.uleb128 0x34
 8203 00d0 00       		.byte	0
 8204 00d1 03       		.uleb128 0x3
 8205 00d2 08       		.uleb128 0x8
 8206 00d3 3A       		.uleb128 0x3a
 8207 00d4 0B       		.uleb128 0xb
 8208 00d5 3B       		.uleb128 0x3b
 8209 00d6 0B       		.uleb128 0xb
 8210 00d7 49       		.uleb128 0x49
 8211 00d8 13       		.uleb128 0x13
 8212 00d9 02       		.uleb128 0x2
 8213 00da 0A       		.uleb128 0xa
 8214 00db 00       		.byte	0
 8215 00dc 00       		.byte	0
 8216 00dd 0F       		.uleb128 0xf
 8217 00de 34       		.uleb128 0x34
 8218 00df 00       		.byte	0
 8219 00e0 03       		.uleb128 0x3
 8220 00e1 0E       		.uleb128 0xe
 8221 00e2 3A       		.uleb128 0x3a
 8222 00e3 0B       		.uleb128 0xb
 8223 00e4 3B       		.uleb128 0x3b
 8224 00e5 0B       		.uleb128 0xb
 8225 00e6 49       		.uleb128 0x49
 8226 00e7 13       		.uleb128 0x13
 8227 00e8 02       		.uleb128 0x2
 8228 00e9 0A       		.uleb128 0xa
 8229 00ea 00       		.byte	0
 8230 00eb 00       		.byte	0
 8231 00ec 10       		.uleb128 0x10
 8232 00ed 2E       		.uleb128 0x2e
 8233 00ee 01       		.byte	0x1
 8234 00ef 03       		.uleb128 0x3
 8235 00f0 0E       		.uleb128 0xe
 8236 00f1 3A       		.uleb128 0x3a
 8237 00f2 0B       		.uleb128 0xb
 8238 00f3 3B       		.uleb128 0x3b
 8239 00f4 0B       		.uleb128 0xb
 8240 00f5 27       		.uleb128 0x27
 8241 00f6 0C       		.uleb128 0xc
ARM GAS  C:\Users\CHUCK~1.ERH\AppData\Local\Temp\ccSfgJB7.s 			page 173


 8242 00f7 11       		.uleb128 0x11
 8243 00f8 01       		.uleb128 0x1
 8244 00f9 12       		.uleb128 0x12
 8245 00fa 01       		.uleb128 0x1
 8246 00fb 40       		.uleb128 0x40
 8247 00fc 06       		.uleb128 0x6
 8248 00fd 9642     		.uleb128 0x2116
 8249 00ff 0C       		.uleb128 0xc
 8250 0100 01       		.uleb128 0x1
 8251 0101 13       		.uleb128 0x13
 8252 0102 00       		.byte	0
 8253 0103 00       		.byte	0
 8254 0104 11       		.uleb128 0x11
 8255 0105 2E       		.uleb128 0x2e
 8256 0106 01       		.byte	0x1
 8257 0107 03       		.uleb128 0x3
 8258 0108 0E       		.uleb128 0xe
 8259 0109 3A       		.uleb128 0x3a
 8260 010a 0B       		.uleb128 0xb
 8261 010b 3B       		.uleb128 0x3b
 8262 010c 05       		.uleb128 0x5
 8263 010d 27       		.uleb128 0x27
 8264 010e 0C       		.uleb128 0xc
 8265 010f 11       		.uleb128 0x11
 8266 0110 01       		.uleb128 0x1
 8267 0111 12       		.uleb128 0x12
 8268 0112 01       		.uleb128 0x1
 8269 0113 40       		.uleb128 0x40
 8270 0114 06       		.uleb128 0x6
 8271 0115 9642     		.uleb128 0x2116
 8272 0117 0C       		.uleb128 0xc
 8273 0118 01       		.uleb128 0x1
 8274 0119 13       		.uleb128 0x13
 8275 011a 00       		.byte	0
 8276 011b 00       		.byte	0
 8277 011c 12       		.uleb128 0x12
 8278 011d 05       		.uleb128 0x5
 8279 011e 00       		.byte	0
 8280 011f 03       		.uleb128 0x3
 8281 0120 0E       		.uleb128 0xe
 8282 0121 3A       		.uleb128 0x3a
 8283 0122 0B       		.uleb128 0xb
 8284 0123 3B       		.uleb128 0x3b
 8285 0124 05       		.uleb128 0x5
 8286 0125 49       		.uleb128 0x49
 8287 0126 13       		.uleb128 0x13
 8288 0127 02       		.uleb128 0x2
 8289 0128 0A       		.uleb128 0xa
 8290 0129 00       		.byte	0
 8291 012a 00       		.byte	0
 8292 012b 13       		.uleb128 0x13
 8293 012c 05       		.uleb128 0x5
 8294 012d 00       		.byte	0
 8295 012e 03       		.uleb128 0x3
 8296 012f 08       		.uleb128 0x8
 8297 0130 3A       		.uleb128 0x3a
 8298 0131 0B       		.uleb128 0xb
ARM GAS  C:\Users\CHUCK~1.ERH\AppData\Local\Temp\ccSfgJB7.s 			page 174


 8299 0132 3B       		.uleb128 0x3b
 8300 0133 05       		.uleb128 0x5
 8301 0134 49       		.uleb128 0x49
 8302 0135 13       		.uleb128 0x13
 8303 0136 02       		.uleb128 0x2
 8304 0137 0A       		.uleb128 0xa
 8305 0138 00       		.byte	0
 8306 0139 00       		.byte	0
 8307 013a 14       		.uleb128 0x14
 8308 013b 34       		.uleb128 0x34
 8309 013c 00       		.byte	0
 8310 013d 03       		.uleb128 0x3
 8311 013e 0E       		.uleb128 0xe
 8312 013f 3A       		.uleb128 0x3a
 8313 0140 0B       		.uleb128 0xb
 8314 0141 3B       		.uleb128 0x3b
 8315 0142 05       		.uleb128 0x5
 8316 0143 49       		.uleb128 0x49
 8317 0144 13       		.uleb128 0x13
 8318 0145 02       		.uleb128 0x2
 8319 0146 0A       		.uleb128 0xa
 8320 0147 00       		.byte	0
 8321 0148 00       		.byte	0
 8322 0149 15       		.uleb128 0x15
 8323 014a 2E       		.uleb128 0x2e
 8324 014b 01       		.byte	0x1
 8325 014c 03       		.uleb128 0x3
 8326 014d 0E       		.uleb128 0xe
 8327 014e 3A       		.uleb128 0x3a
 8328 014f 0B       		.uleb128 0xb
 8329 0150 3B       		.uleb128 0x3b
 8330 0151 05       		.uleb128 0x5
 8331 0152 27       		.uleb128 0x27
 8332 0153 0C       		.uleb128 0xc
 8333 0154 49       		.uleb128 0x49
 8334 0155 13       		.uleb128 0x13
 8335 0156 11       		.uleb128 0x11
 8336 0157 01       		.uleb128 0x1
 8337 0158 12       		.uleb128 0x12
 8338 0159 01       		.uleb128 0x1
 8339 015a 40       		.uleb128 0x40
 8340 015b 06       		.uleb128 0x6
 8341 015c 9642     		.uleb128 0x2116
 8342 015e 0C       		.uleb128 0xc
 8343 015f 01       		.uleb128 0x1
 8344 0160 13       		.uleb128 0x13
 8345 0161 00       		.byte	0
 8346 0162 00       		.byte	0
 8347 0163 16       		.uleb128 0x16
 8348 0164 34       		.uleb128 0x34
 8349 0165 00       		.byte	0
 8350 0166 03       		.uleb128 0x3
 8351 0167 08       		.uleb128 0x8
 8352 0168 3A       		.uleb128 0x3a
 8353 0169 0B       		.uleb128 0xb
 8354 016a 3B       		.uleb128 0x3b
 8355 016b 05       		.uleb128 0x5
ARM GAS  C:\Users\CHUCK~1.ERH\AppData\Local\Temp\ccSfgJB7.s 			page 175


 8356 016c 49       		.uleb128 0x49
 8357 016d 13       		.uleb128 0x13
 8358 016e 02       		.uleb128 0x2
 8359 016f 0A       		.uleb128 0xa
 8360 0170 00       		.byte	0
 8361 0171 00       		.byte	0
 8362 0172 17       		.uleb128 0x17
 8363 0173 01       		.uleb128 0x1
 8364 0174 01       		.byte	0x1
 8365 0175 49       		.uleb128 0x49
 8366 0176 13       		.uleb128 0x13
 8367 0177 01       		.uleb128 0x1
 8368 0178 13       		.uleb128 0x13
 8369 0179 00       		.byte	0
 8370 017a 00       		.byte	0
 8371 017b 18       		.uleb128 0x18
 8372 017c 21       		.uleb128 0x21
 8373 017d 00       		.byte	0
 8374 017e 49       		.uleb128 0x49
 8375 017f 13       		.uleb128 0x13
 8376 0180 2F       		.uleb128 0x2f
 8377 0181 0B       		.uleb128 0xb
 8378 0182 00       		.byte	0
 8379 0183 00       		.byte	0
 8380 0184 19       		.uleb128 0x19
 8381 0185 2E       		.uleb128 0x2e
 8382 0186 00       		.byte	0
 8383 0187 03       		.uleb128 0x3
 8384 0188 0E       		.uleb128 0xe
 8385 0189 3A       		.uleb128 0x3a
 8386 018a 0B       		.uleb128 0xb
 8387 018b 3B       		.uleb128 0x3b
 8388 018c 05       		.uleb128 0x5
 8389 018d 27       		.uleb128 0x27
 8390 018e 0C       		.uleb128 0xc
 8391 018f 49       		.uleb128 0x49
 8392 0190 13       		.uleb128 0x13
 8393 0191 11       		.uleb128 0x11
 8394 0192 01       		.uleb128 0x1
 8395 0193 12       		.uleb128 0x12
 8396 0194 01       		.uleb128 0x1
 8397 0195 40       		.uleb128 0x40
 8398 0196 06       		.uleb128 0x6
 8399 0197 9642     		.uleb128 0x2116
 8400 0199 0C       		.uleb128 0xc
 8401 019a 00       		.byte	0
 8402 019b 00       		.byte	0
 8403 019c 1A       		.uleb128 0x1a
 8404 019d 2E       		.uleb128 0x2e
 8405 019e 01       		.byte	0x1
 8406 019f 3F       		.uleb128 0x3f
 8407 01a0 0C       		.uleb128 0xc
 8408 01a1 03       		.uleb128 0x3
 8409 01a2 0E       		.uleb128 0xe
 8410 01a3 3A       		.uleb128 0x3a
 8411 01a4 0B       		.uleb128 0xb
 8412 01a5 3B       		.uleb128 0x3b
ARM GAS  C:\Users\CHUCK~1.ERH\AppData\Local\Temp\ccSfgJB7.s 			page 176


 8413 01a6 05       		.uleb128 0x5
 8414 01a7 27       		.uleb128 0x27
 8415 01a8 0C       		.uleb128 0xc
 8416 01a9 11       		.uleb128 0x11
 8417 01aa 01       		.uleb128 0x1
 8418 01ab 12       		.uleb128 0x12
 8419 01ac 01       		.uleb128 0x1
 8420 01ad 40       		.uleb128 0x40
 8421 01ae 06       		.uleb128 0x6
 8422 01af 9642     		.uleb128 0x2116
 8423 01b1 0C       		.uleb128 0xc
 8424 01b2 01       		.uleb128 0x1
 8425 01b3 13       		.uleb128 0x13
 8426 01b4 00       		.byte	0
 8427 01b5 00       		.byte	0
 8428 01b6 1B       		.uleb128 0x1b
 8429 01b7 2E       		.uleb128 0x2e
 8430 01b8 01       		.byte	0x1
 8431 01b9 3F       		.uleb128 0x3f
 8432 01ba 0C       		.uleb128 0xc
 8433 01bb 03       		.uleb128 0x3
 8434 01bc 0E       		.uleb128 0xe
 8435 01bd 3A       		.uleb128 0x3a
 8436 01be 0B       		.uleb128 0xb
 8437 01bf 3B       		.uleb128 0x3b
 8438 01c0 05       		.uleb128 0x5
 8439 01c1 27       		.uleb128 0x27
 8440 01c2 0C       		.uleb128 0xc
 8441 01c3 49       		.uleb128 0x49
 8442 01c4 13       		.uleb128 0x13
 8443 01c5 11       		.uleb128 0x11
 8444 01c6 01       		.uleb128 0x1
 8445 01c7 12       		.uleb128 0x12
 8446 01c8 01       		.uleb128 0x1
 8447 01c9 40       		.uleb128 0x40
 8448 01ca 06       		.uleb128 0x6
 8449 01cb 9642     		.uleb128 0x2116
 8450 01cd 0C       		.uleb128 0xc
 8451 01ce 01       		.uleb128 0x1
 8452 01cf 13       		.uleb128 0x13
 8453 01d0 00       		.byte	0
 8454 01d1 00       		.byte	0
 8455 01d2 1C       		.uleb128 0x1c
 8456 01d3 2E       		.uleb128 0x2e
 8457 01d4 00       		.byte	0
 8458 01d5 3F       		.uleb128 0x3f
 8459 01d6 0C       		.uleb128 0xc
 8460 01d7 03       		.uleb128 0x3
 8461 01d8 0E       		.uleb128 0xe
 8462 01d9 3A       		.uleb128 0x3a
 8463 01da 0B       		.uleb128 0xb
 8464 01db 3B       		.uleb128 0x3b
 8465 01dc 05       		.uleb128 0x5
 8466 01dd 27       		.uleb128 0x27
 8467 01de 0C       		.uleb128 0xc
 8468 01df 49       		.uleb128 0x49
 8469 01e0 13       		.uleb128 0x13
ARM GAS  C:\Users\CHUCK~1.ERH\AppData\Local\Temp\ccSfgJB7.s 			page 177


 8470 01e1 11       		.uleb128 0x11
 8471 01e2 01       		.uleb128 0x1
 8472 01e3 12       		.uleb128 0x12
 8473 01e4 01       		.uleb128 0x1
 8474 01e5 40       		.uleb128 0x40
 8475 01e6 06       		.uleb128 0x6
 8476 01e7 9642     		.uleb128 0x2116
 8477 01e9 0C       		.uleb128 0xc
 8478 01ea 00       		.byte	0
 8479 01eb 00       		.byte	0
 8480 01ec 1D       		.uleb128 0x1d
 8481 01ed 34       		.uleb128 0x34
 8482 01ee 00       		.byte	0
 8483 01ef 03       		.uleb128 0x3
 8484 01f0 0E       		.uleb128 0xe
 8485 01f1 3A       		.uleb128 0x3a
 8486 01f2 0B       		.uleb128 0xb
 8487 01f3 3B       		.uleb128 0x3b
 8488 01f4 0B       		.uleb128 0xb
 8489 01f5 49       		.uleb128 0x49
 8490 01f6 13       		.uleb128 0x13
 8491 01f7 3F       		.uleb128 0x3f
 8492 01f8 0C       		.uleb128 0xc
 8493 01f9 3C       		.uleb128 0x3c
 8494 01fa 0C       		.uleb128 0xc
 8495 01fb 00       		.byte	0
 8496 01fc 00       		.byte	0
 8497 01fd 00       		.byte	0
 8498              		.section	.debug_loc,"",%progbits
 8499              	.Ldebug_loc0:
 8500              	.LLST0:
 8501 0000 00000000 		.4byte	.LFB0
 8502 0004 02000000 		.4byte	.LCFI0
 8503 0008 0200     		.2byte	0x2
 8504 000a 7D       		.byte	0x7d
 8505 000b 00       		.sleb128 0
 8506 000c 02000000 		.4byte	.LCFI0
 8507 0010 04000000 		.4byte	.LCFI1
 8508 0014 0200     		.2byte	0x2
 8509 0016 7D       		.byte	0x7d
 8510 0017 04       		.sleb128 4
 8511 0018 04000000 		.4byte	.LCFI1
 8512 001c 0A000000 		.4byte	.LFE0
 8513 0020 0200     		.2byte	0x2
 8514 0022 77       		.byte	0x77
 8515 0023 04       		.sleb128 4
 8516 0024 00000000 		.4byte	0
 8517 0028 00000000 		.4byte	0
 8518              	.LLST1:
 8519 002c 00000000 		.4byte	.LFB1
 8520 0030 02000000 		.4byte	.LCFI2
 8521 0034 0200     		.2byte	0x2
 8522 0036 7D       		.byte	0x7d
 8523 0037 00       		.sleb128 0
 8524 0038 02000000 		.4byte	.LCFI2
 8525 003c 04000000 		.4byte	.LCFI3
 8526 0040 0200     		.2byte	0x2
ARM GAS  C:\Users\CHUCK~1.ERH\AppData\Local\Temp\ccSfgJB7.s 			page 178


 8527 0042 7D       		.byte	0x7d
 8528 0043 08       		.sleb128 8
 8529 0044 04000000 		.4byte	.LCFI3
 8530 0048 06000000 		.4byte	.LCFI4
 8531 004c 0200     		.2byte	0x2
 8532 004e 7D       		.byte	0x7d
 8533 004f 10       		.sleb128 16
 8534 0050 06000000 		.4byte	.LCFI4
 8535 0054 50000000 		.4byte	.LFE1
 8536 0058 0200     		.2byte	0x2
 8537 005a 77       		.byte	0x77
 8538 005b 10       		.sleb128 16
 8539 005c 00000000 		.4byte	0
 8540 0060 00000000 		.4byte	0
 8541              	.LLST2:
 8542 0064 00000000 		.4byte	.LFB2
 8543 0068 02000000 		.4byte	.LCFI5
 8544 006c 0200     		.2byte	0x2
 8545 006e 7D       		.byte	0x7d
 8546 006f 00       		.sleb128 0
 8547 0070 02000000 		.4byte	.LCFI5
 8548 0074 04000000 		.4byte	.LCFI6
 8549 0078 0200     		.2byte	0x2
 8550 007a 7D       		.byte	0x7d
 8551 007b 08       		.sleb128 8
 8552 007c 04000000 		.4byte	.LCFI6
 8553 0080 06000000 		.4byte	.LCFI7
 8554 0084 0200     		.2byte	0x2
 8555 0086 7D       		.byte	0x7d
 8556 0087 18       		.sleb128 24
 8557 0088 06000000 		.4byte	.LCFI7
 8558 008c 72000000 		.4byte	.LFE2
 8559 0090 0200     		.2byte	0x2
 8560 0092 77       		.byte	0x77
 8561 0093 18       		.sleb128 24
 8562 0094 00000000 		.4byte	0
 8563 0098 00000000 		.4byte	0
 8564              	.LLST3:
 8565 009c 00000000 		.4byte	.LFB3
 8566 00a0 02000000 		.4byte	.LCFI8
 8567 00a4 0200     		.2byte	0x2
 8568 00a6 7D       		.byte	0x7d
 8569 00a7 00       		.sleb128 0
 8570 00a8 02000000 		.4byte	.LCFI8
 8571 00ac 04000000 		.4byte	.LCFI9
 8572 00b0 0200     		.2byte	0x2
 8573 00b2 7D       		.byte	0x7d
 8574 00b3 08       		.sleb128 8
 8575 00b4 04000000 		.4byte	.LCFI9
 8576 00b8 06000000 		.4byte	.LCFI10
 8577 00bc 0200     		.2byte	0x2
 8578 00be 7D       		.byte	0x7d
 8579 00bf 18       		.sleb128 24
 8580 00c0 06000000 		.4byte	.LCFI10
 8581 00c4 44000000 		.4byte	.LFE3
 8582 00c8 0200     		.2byte	0x2
 8583 00ca 77       		.byte	0x77
ARM GAS  C:\Users\CHUCK~1.ERH\AppData\Local\Temp\ccSfgJB7.s 			page 179


 8584 00cb 18       		.sleb128 24
 8585 00cc 00000000 		.4byte	0
 8586 00d0 00000000 		.4byte	0
 8587              	.LLST4:
 8588 00d4 00000000 		.4byte	.LFB4
 8589 00d8 02000000 		.4byte	.LCFI11
 8590 00dc 0200     		.2byte	0x2
 8591 00de 7D       		.byte	0x7d
 8592 00df 00       		.sleb128 0
 8593 00e0 02000000 		.4byte	.LCFI11
 8594 00e4 04000000 		.4byte	.LCFI12
 8595 00e8 0200     		.2byte	0x2
 8596 00ea 7D       		.byte	0x7d
 8597 00eb 0C       		.sleb128 12
 8598 00ec 04000000 		.4byte	.LCFI12
 8599 00f0 06000000 		.4byte	.LCFI13
 8600 00f4 0200     		.2byte	0x2
 8601 00f6 7D       		.byte	0x7d
 8602 00f7 20       		.sleb128 32
 8603 00f8 06000000 		.4byte	.LCFI13
 8604 00fc 44000000 		.4byte	.LFE4
 8605 0100 0200     		.2byte	0x2
 8606 0102 77       		.byte	0x77
 8607 0103 20       		.sleb128 32
 8608 0104 00000000 		.4byte	0
 8609 0108 00000000 		.4byte	0
 8610              	.LLST5:
 8611 010c 00000000 		.4byte	.LFB5
 8612 0110 02000000 		.4byte	.LCFI14
 8613 0114 0200     		.2byte	0x2
 8614 0116 7D       		.byte	0x7d
 8615 0117 00       		.sleb128 0
 8616 0118 02000000 		.4byte	.LCFI14
 8617 011c 04000000 		.4byte	.LCFI15
 8618 0120 0200     		.2byte	0x2
 8619 0122 7D       		.byte	0x7d
 8620 0123 08       		.sleb128 8
 8621 0124 04000000 		.4byte	.LCFI15
 8622 0128 06000000 		.4byte	.LCFI16
 8623 012c 0200     		.2byte	0x2
 8624 012e 7D       		.byte	0x7d
 8625 012f 18       		.sleb128 24
 8626 0130 06000000 		.4byte	.LCFI16
 8627 0134 48000000 		.4byte	.LFE5
 8628 0138 0200     		.2byte	0x2
 8629 013a 77       		.byte	0x77
 8630 013b 18       		.sleb128 24
 8631 013c 00000000 		.4byte	0
 8632 0140 00000000 		.4byte	0
 8633              	.LLST6:
 8634 0144 00000000 		.4byte	.LFB6
 8635 0148 02000000 		.4byte	.LCFI17
 8636 014c 0200     		.2byte	0x2
 8637 014e 7D       		.byte	0x7d
 8638 014f 00       		.sleb128 0
 8639 0150 02000000 		.4byte	.LCFI17
 8640 0154 04000000 		.4byte	.LCFI18
ARM GAS  C:\Users\CHUCK~1.ERH\AppData\Local\Temp\ccSfgJB7.s 			page 180


 8641 0158 0200     		.2byte	0x2
 8642 015a 7D       		.byte	0x7d
 8643 015b 08       		.sleb128 8
 8644 015c 04000000 		.4byte	.LCFI18
 8645 0160 06000000 		.4byte	.LCFI19
 8646 0164 0200     		.2byte	0x2
 8647 0166 7D       		.byte	0x7d
 8648 0167 20       		.sleb128 32
 8649 0168 06000000 		.4byte	.LCFI19
 8650 016c 5A000000 		.4byte	.LFE6
 8651 0170 0200     		.2byte	0x2
 8652 0172 77       		.byte	0x77
 8653 0173 20       		.sleb128 32
 8654 0174 00000000 		.4byte	0
 8655 0178 00000000 		.4byte	0
 8656              	.LLST7:
 8657 017c 00000000 		.4byte	.LFB7
 8658 0180 02000000 		.4byte	.LCFI20
 8659 0184 0200     		.2byte	0x2
 8660 0186 7D       		.byte	0x7d
 8661 0187 00       		.sleb128 0
 8662 0188 02000000 		.4byte	.LCFI20
 8663 018c 04000000 		.4byte	.LCFI21
 8664 0190 0200     		.2byte	0x2
 8665 0192 7D       		.byte	0x7d
 8666 0193 08       		.sleb128 8
 8667 0194 04000000 		.4byte	.LCFI21
 8668 0198 06000000 		.4byte	.LCFI22
 8669 019c 0200     		.2byte	0x2
 8670 019e 7D       		.byte	0x7d
 8671 019f 10       		.sleb128 16
 8672 01a0 06000000 		.4byte	.LCFI22
 8673 01a4 3E000000 		.4byte	.LFE7
 8674 01a8 0200     		.2byte	0x2
 8675 01aa 77       		.byte	0x77
 8676 01ab 10       		.sleb128 16
 8677 01ac 00000000 		.4byte	0
 8678 01b0 00000000 		.4byte	0
 8679              	.LLST8:
 8680 01b4 00000000 		.4byte	.LFB8
 8681 01b8 02000000 		.4byte	.LCFI23
 8682 01bc 0200     		.2byte	0x2
 8683 01be 7D       		.byte	0x7d
 8684 01bf 00       		.sleb128 0
 8685 01c0 02000000 		.4byte	.LCFI23
 8686 01c4 04000000 		.4byte	.LCFI24
 8687 01c8 0200     		.2byte	0x2
 8688 01ca 7D       		.byte	0x7d
 8689 01cb 08       		.sleb128 8
 8690 01cc 04000000 		.4byte	.LCFI24
 8691 01d0 06000000 		.4byte	.LCFI25
 8692 01d4 0200     		.2byte	0x2
 8693 01d6 7D       		.byte	0x7d
 8694 01d7 18       		.sleb128 24
 8695 01d8 06000000 		.4byte	.LCFI25
 8696 01dc 42000000 		.4byte	.LFE8
 8697 01e0 0200     		.2byte	0x2
ARM GAS  C:\Users\CHUCK~1.ERH\AppData\Local\Temp\ccSfgJB7.s 			page 181


 8698 01e2 77       		.byte	0x77
 8699 01e3 18       		.sleb128 24
 8700 01e4 00000000 		.4byte	0
 8701 01e8 00000000 		.4byte	0
 8702              	.LLST9:
 8703 01ec 00000000 		.4byte	.LFB9
 8704 01f0 02000000 		.4byte	.LCFI26
 8705 01f4 0200     		.2byte	0x2
 8706 01f6 7D       		.byte	0x7d
 8707 01f7 00       		.sleb128 0
 8708 01f8 02000000 		.4byte	.LCFI26
 8709 01fc 04000000 		.4byte	.LCFI27
 8710 0200 0200     		.2byte	0x2
 8711 0202 7D       		.byte	0x7d
 8712 0203 08       		.sleb128 8
 8713 0204 04000000 		.4byte	.LCFI27
 8714 0208 06000000 		.4byte	.LCFI28
 8715 020c 0200     		.2byte	0x2
 8716 020e 7D       		.byte	0x7d
 8717 020f 18       		.sleb128 24
 8718 0210 06000000 		.4byte	.LCFI28
 8719 0214 4A000000 		.4byte	.LFE9
 8720 0218 0200     		.2byte	0x2
 8721 021a 77       		.byte	0x77
 8722 021b 18       		.sleb128 24
 8723 021c 00000000 		.4byte	0
 8724 0220 00000000 		.4byte	0
 8725              	.LLST10:
 8726 0224 00000000 		.4byte	.LFB10
 8727 0228 02000000 		.4byte	.LCFI29
 8728 022c 0200     		.2byte	0x2
 8729 022e 7D       		.byte	0x7d
 8730 022f 00       		.sleb128 0
 8731 0230 02000000 		.4byte	.LCFI29
 8732 0234 04000000 		.4byte	.LCFI30
 8733 0238 0200     		.2byte	0x2
 8734 023a 7D       		.byte	0x7d
 8735 023b 0C       		.sleb128 12
 8736 023c 04000000 		.4byte	.LCFI30
 8737 0240 06000000 		.4byte	.LCFI31
 8738 0244 0200     		.2byte	0x2
 8739 0246 7D       		.byte	0x7d
 8740 0247 20       		.sleb128 32
 8741 0248 06000000 		.4byte	.LCFI31
 8742 024c 4A000000 		.4byte	.LFE10
 8743 0250 0200     		.2byte	0x2
 8744 0252 77       		.byte	0x77
 8745 0253 20       		.sleb128 32
 8746 0254 00000000 		.4byte	0
 8747 0258 00000000 		.4byte	0
 8748              	.LLST11:
 8749 025c 00000000 		.4byte	.LFB11
 8750 0260 02000000 		.4byte	.LCFI32
 8751 0264 0200     		.2byte	0x2
 8752 0266 7D       		.byte	0x7d
 8753 0267 00       		.sleb128 0
 8754 0268 02000000 		.4byte	.LCFI32
ARM GAS  C:\Users\CHUCK~1.ERH\AppData\Local\Temp\ccSfgJB7.s 			page 182


 8755 026c 04000000 		.4byte	.LCFI33
 8756 0270 0200     		.2byte	0x2
 8757 0272 7D       		.byte	0x7d
 8758 0273 08       		.sleb128 8
 8759 0274 04000000 		.4byte	.LCFI33
 8760 0278 06000000 		.4byte	.LCFI34
 8761 027c 0200     		.2byte	0x2
 8762 027e 7D       		.byte	0x7d
 8763 027f 10       		.sleb128 16
 8764 0280 06000000 		.4byte	.LCFI34
 8765 0284 1A000000 		.4byte	.LFE11
 8766 0288 0200     		.2byte	0x2
 8767 028a 77       		.byte	0x77
 8768 028b 10       		.sleb128 16
 8769 028c 00000000 		.4byte	0
 8770 0290 00000000 		.4byte	0
 8771              	.LLST12:
 8772 0294 00000000 		.4byte	.LFB12
 8773 0298 02000000 		.4byte	.LCFI35
 8774 029c 0200     		.2byte	0x2
 8775 029e 7D       		.byte	0x7d
 8776 029f 00       		.sleb128 0
 8777 02a0 02000000 		.4byte	.LCFI35
 8778 02a4 04000000 		.4byte	.LCFI36
 8779 02a8 0200     		.2byte	0x2
 8780 02aa 7D       		.byte	0x7d
 8781 02ab 08       		.sleb128 8
 8782 02ac 04000000 		.4byte	.LCFI36
 8783 02b0 06000000 		.4byte	.LCFI37
 8784 02b4 0200     		.2byte	0x2
 8785 02b6 7D       		.byte	0x7d
 8786 02b7 10       		.sleb128 16
 8787 02b8 06000000 		.4byte	.LCFI37
 8788 02bc 1A000000 		.4byte	.LFE12
 8789 02c0 0200     		.2byte	0x2
 8790 02c2 77       		.byte	0x77
 8791 02c3 10       		.sleb128 16
 8792 02c4 00000000 		.4byte	0
 8793 02c8 00000000 		.4byte	0
 8794              	.LLST13:
 8795 02cc 00000000 		.4byte	.LFB13
 8796 02d0 02000000 		.4byte	.LCFI38
 8797 02d4 0200     		.2byte	0x2
 8798 02d6 7D       		.byte	0x7d
 8799 02d7 00       		.sleb128 0
 8800 02d8 02000000 		.4byte	.LCFI38
 8801 02dc 04000000 		.4byte	.LCFI39
 8802 02e0 0200     		.2byte	0x2
 8803 02e2 7D       		.byte	0x7d
 8804 02e3 08       		.sleb128 8
 8805 02e4 04000000 		.4byte	.LCFI39
 8806 02e8 06000000 		.4byte	.LCFI40
 8807 02ec 0200     		.2byte	0x2
 8808 02ee 7D       		.byte	0x7d
 8809 02ef 10       		.sleb128 16
 8810 02f0 06000000 		.4byte	.LCFI40
 8811 02f4 1A000000 		.4byte	.LFE13
ARM GAS  C:\Users\CHUCK~1.ERH\AppData\Local\Temp\ccSfgJB7.s 			page 183


 8812 02f8 0200     		.2byte	0x2
 8813 02fa 77       		.byte	0x77
 8814 02fb 10       		.sleb128 16
 8815 02fc 00000000 		.4byte	0
 8816 0300 00000000 		.4byte	0
 8817              	.LLST14:
 8818 0304 00000000 		.4byte	.LFB14
 8819 0308 02000000 		.4byte	.LCFI41
 8820 030c 0200     		.2byte	0x2
 8821 030e 7D       		.byte	0x7d
 8822 030f 00       		.sleb128 0
 8823 0310 02000000 		.4byte	.LCFI41
 8824 0314 04000000 		.4byte	.LCFI42
 8825 0318 0200     		.2byte	0x2
 8826 031a 7D       		.byte	0x7d
 8827 031b 08       		.sleb128 8
 8828 031c 04000000 		.4byte	.LCFI42
 8829 0320 12000000 		.4byte	.LFE14
 8830 0324 0200     		.2byte	0x2
 8831 0326 77       		.byte	0x77
 8832 0327 08       		.sleb128 8
 8833 0328 00000000 		.4byte	0
 8834 032c 00000000 		.4byte	0
 8835              	.LLST15:
 8836 0330 00000000 		.4byte	.LFB15
 8837 0334 02000000 		.4byte	.LCFI43
 8838 0338 0200     		.2byte	0x2
 8839 033a 7D       		.byte	0x7d
 8840 033b 00       		.sleb128 0
 8841 033c 02000000 		.4byte	.LCFI43
 8842 0340 04000000 		.4byte	.LCFI44
 8843 0344 0200     		.2byte	0x2
 8844 0346 7D       		.byte	0x7d
 8845 0347 08       		.sleb128 8
 8846 0348 04000000 		.4byte	.LCFI44
 8847 034c 06000000 		.4byte	.LCFI45
 8848 0350 0200     		.2byte	0x2
 8849 0352 7D       		.byte	0x7d
 8850 0353 10       		.sleb128 16
 8851 0354 06000000 		.4byte	.LCFI45
 8852 0358 1A000000 		.4byte	.LFE15
 8853 035c 0200     		.2byte	0x2
 8854 035e 77       		.byte	0x77
 8855 035f 10       		.sleb128 16
 8856 0360 00000000 		.4byte	0
 8857 0364 00000000 		.4byte	0
 8858              	.LLST16:
 8859 0368 00000000 		.4byte	.LFB16
 8860 036c 02000000 		.4byte	.LCFI46
 8861 0370 0200     		.2byte	0x2
 8862 0372 7D       		.byte	0x7d
 8863 0373 00       		.sleb128 0
 8864 0374 02000000 		.4byte	.LCFI46
 8865 0378 04000000 		.4byte	.LCFI47
 8866 037c 0200     		.2byte	0x2
 8867 037e 7D       		.byte	0x7d
 8868 037f 08       		.sleb128 8
ARM GAS  C:\Users\CHUCK~1.ERH\AppData\Local\Temp\ccSfgJB7.s 			page 184


 8869 0380 04000000 		.4byte	.LCFI47
 8870 0384 12000000 		.4byte	.LFE16
 8871 0388 0200     		.2byte	0x2
 8872 038a 77       		.byte	0x77
 8873 038b 08       		.sleb128 8
 8874 038c 00000000 		.4byte	0
 8875 0390 00000000 		.4byte	0
 8876              	.LLST17:
 8877 0394 00000000 		.4byte	.LFB17
 8878 0398 02000000 		.4byte	.LCFI48
 8879 039c 0200     		.2byte	0x2
 8880 039e 7D       		.byte	0x7d
 8881 039f 00       		.sleb128 0
 8882 03a0 02000000 		.4byte	.LCFI48
 8883 03a4 04000000 		.4byte	.LCFI49
 8884 03a8 0200     		.2byte	0x2
 8885 03aa 7D       		.byte	0x7d
 8886 03ab 08       		.sleb128 8
 8887 03ac 04000000 		.4byte	.LCFI49
 8888 03b0 06000000 		.4byte	.LCFI50
 8889 03b4 0200     		.2byte	0x2
 8890 03b6 7D       		.byte	0x7d
 8891 03b7 10       		.sleb128 16
 8892 03b8 06000000 		.4byte	.LCFI50
 8893 03bc 1A000000 		.4byte	.LFE17
 8894 03c0 0200     		.2byte	0x2
 8895 03c2 77       		.byte	0x77
 8896 03c3 10       		.sleb128 16
 8897 03c4 00000000 		.4byte	0
 8898 03c8 00000000 		.4byte	0
 8899              	.LLST18:
 8900 03cc 00000000 		.4byte	.LFB18
 8901 03d0 02000000 		.4byte	.LCFI51
 8902 03d4 0200     		.2byte	0x2
 8903 03d6 7D       		.byte	0x7d
 8904 03d7 00       		.sleb128 0
 8905 03d8 02000000 		.4byte	.LCFI51
 8906 03dc 04000000 		.4byte	.LCFI52
 8907 03e0 0200     		.2byte	0x2
 8908 03e2 7D       		.byte	0x7d
 8909 03e3 08       		.sleb128 8
 8910 03e4 04000000 		.4byte	.LCFI52
 8911 03e8 12000000 		.4byte	.LFE18
 8912 03ec 0200     		.2byte	0x2
 8913 03ee 77       		.byte	0x77
 8914 03ef 08       		.sleb128 8
 8915 03f0 00000000 		.4byte	0
 8916 03f4 00000000 		.4byte	0
 8917              	.LLST19:
 8918 03f8 00000000 		.4byte	.LFB19
 8919 03fc 02000000 		.4byte	.LCFI53
 8920 0400 0200     		.2byte	0x2
 8921 0402 7D       		.byte	0x7d
 8922 0403 00       		.sleb128 0
 8923 0404 02000000 		.4byte	.LCFI53
 8924 0408 04000000 		.4byte	.LCFI54
 8925 040c 0200     		.2byte	0x2
ARM GAS  C:\Users\CHUCK~1.ERH\AppData\Local\Temp\ccSfgJB7.s 			page 185


 8926 040e 7D       		.byte	0x7d
 8927 040f 08       		.sleb128 8
 8928 0410 04000000 		.4byte	.LCFI54
 8929 0414 06000000 		.4byte	.LCFI55
 8930 0418 0200     		.2byte	0x2
 8931 041a 7D       		.byte	0x7d
 8932 041b 10       		.sleb128 16
 8933 041c 06000000 		.4byte	.LCFI55
 8934 0420 1E000000 		.4byte	.LFE19
 8935 0424 0200     		.2byte	0x2
 8936 0426 77       		.byte	0x77
 8937 0427 10       		.sleb128 16
 8938 0428 00000000 		.4byte	0
 8939 042c 00000000 		.4byte	0
 8940              	.LLST20:
 8941 0430 00000000 		.4byte	.LFB20
 8942 0434 02000000 		.4byte	.LCFI56
 8943 0438 0200     		.2byte	0x2
 8944 043a 7D       		.byte	0x7d
 8945 043b 00       		.sleb128 0
 8946 043c 02000000 		.4byte	.LCFI56
 8947 0440 04000000 		.4byte	.LCFI57
 8948 0444 0200     		.2byte	0x2
 8949 0446 7D       		.byte	0x7d
 8950 0447 08       		.sleb128 8
 8951 0448 04000000 		.4byte	.LCFI57
 8952 044c 12000000 		.4byte	.LFE20
 8953 0450 0200     		.2byte	0x2
 8954 0452 77       		.byte	0x77
 8955 0453 08       		.sleb128 8
 8956 0454 00000000 		.4byte	0
 8957 0458 00000000 		.4byte	0
 8958              	.LLST21:
 8959 045c 00000000 		.4byte	.LFB21
 8960 0460 02000000 		.4byte	.LCFI58
 8961 0464 0200     		.2byte	0x2
 8962 0466 7D       		.byte	0x7d
 8963 0467 00       		.sleb128 0
 8964 0468 02000000 		.4byte	.LCFI58
 8965 046c 04000000 		.4byte	.LCFI59
 8966 0470 0200     		.2byte	0x2
 8967 0472 7D       		.byte	0x7d
 8968 0473 08       		.sleb128 8
 8969 0474 04000000 		.4byte	.LCFI59
 8970 0478 06000000 		.4byte	.LCFI60
 8971 047c 0200     		.2byte	0x2
 8972 047e 7D       		.byte	0x7d
 8973 047f 10       		.sleb128 16
 8974 0480 06000000 		.4byte	.LCFI60
 8975 0484 1E000000 		.4byte	.LFE21
 8976 0488 0200     		.2byte	0x2
 8977 048a 77       		.byte	0x77
 8978 048b 10       		.sleb128 16
 8979 048c 00000000 		.4byte	0
 8980 0490 00000000 		.4byte	0
 8981              	.LLST22:
 8982 0494 00000000 		.4byte	.LFB22
ARM GAS  C:\Users\CHUCK~1.ERH\AppData\Local\Temp\ccSfgJB7.s 			page 186


 8983 0498 02000000 		.4byte	.LCFI61
 8984 049c 0200     		.2byte	0x2
 8985 049e 7D       		.byte	0x7d
 8986 049f 00       		.sleb128 0
 8987 04a0 02000000 		.4byte	.LCFI61
 8988 04a4 04000000 		.4byte	.LCFI62
 8989 04a8 0200     		.2byte	0x2
 8990 04aa 7D       		.byte	0x7d
 8991 04ab 08       		.sleb128 8
 8992 04ac 04000000 		.4byte	.LCFI62
 8993 04b0 12000000 		.4byte	.LFE22
 8994 04b4 0200     		.2byte	0x2
 8995 04b6 77       		.byte	0x77
 8996 04b7 08       		.sleb128 8
 8997 04b8 00000000 		.4byte	0
 8998 04bc 00000000 		.4byte	0
 8999              	.LLST23:
 9000 04c0 00000000 		.4byte	.LFB23
 9001 04c4 02000000 		.4byte	.LCFI63
 9002 04c8 0200     		.2byte	0x2
 9003 04ca 7D       		.byte	0x7d
 9004 04cb 00       		.sleb128 0
 9005 04cc 02000000 		.4byte	.LCFI63
 9006 04d0 04000000 		.4byte	.LCFI64
 9007 04d4 0200     		.2byte	0x2
 9008 04d6 7D       		.byte	0x7d
 9009 04d7 08       		.sleb128 8
 9010 04d8 04000000 		.4byte	.LCFI64
 9011 04dc 06000000 		.4byte	.LCFI65
 9012 04e0 0200     		.2byte	0x2
 9013 04e2 7D       		.byte	0x7d
 9014 04e3 10       		.sleb128 16
 9015 04e4 06000000 		.4byte	.LCFI65
 9016 04e8 1E000000 		.4byte	.LFE23
 9017 04ec 0200     		.2byte	0x2
 9018 04ee 77       		.byte	0x77
 9019 04ef 10       		.sleb128 16
 9020 04f0 00000000 		.4byte	0
 9021 04f4 00000000 		.4byte	0
 9022              	.LLST24:
 9023 04f8 00000000 		.4byte	.LFB24
 9024 04fc 02000000 		.4byte	.LCFI66
 9025 0500 0200     		.2byte	0x2
 9026 0502 7D       		.byte	0x7d
 9027 0503 00       		.sleb128 0
 9028 0504 02000000 		.4byte	.LCFI66
 9029 0508 04000000 		.4byte	.LCFI67
 9030 050c 0200     		.2byte	0x2
 9031 050e 7D       		.byte	0x7d
 9032 050f 08       		.sleb128 8
 9033 0510 04000000 		.4byte	.LCFI67
 9034 0514 12000000 		.4byte	.LFE24
 9035 0518 0200     		.2byte	0x2
 9036 051a 77       		.byte	0x77
 9037 051b 08       		.sleb128 8
 9038 051c 00000000 		.4byte	0
 9039 0520 00000000 		.4byte	0
ARM GAS  C:\Users\CHUCK~1.ERH\AppData\Local\Temp\ccSfgJB7.s 			page 187


 9040              	.LLST25:
 9041 0524 00000000 		.4byte	.LFB25
 9042 0528 02000000 		.4byte	.LCFI68
 9043 052c 0200     		.2byte	0x2
 9044 052e 7D       		.byte	0x7d
 9045 052f 00       		.sleb128 0
 9046 0530 02000000 		.4byte	.LCFI68
 9047 0534 04000000 		.4byte	.LCFI69
 9048 0538 0200     		.2byte	0x2
 9049 053a 7D       		.byte	0x7d
 9050 053b 08       		.sleb128 8
 9051 053c 04000000 		.4byte	.LCFI69
 9052 0540 06000000 		.4byte	.LCFI70
 9053 0544 0200     		.2byte	0x2
 9054 0546 7D       		.byte	0x7d
 9055 0547 10       		.sleb128 16
 9056 0548 06000000 		.4byte	.LCFI70
 9057 054c 1E000000 		.4byte	.LFE25
 9058 0550 0200     		.2byte	0x2
 9059 0552 77       		.byte	0x77
 9060 0553 10       		.sleb128 16
 9061 0554 00000000 		.4byte	0
 9062 0558 00000000 		.4byte	0
 9063              	.LLST26:
 9064 055c 00000000 		.4byte	.LFB26
 9065 0560 02000000 		.4byte	.LCFI71
 9066 0564 0200     		.2byte	0x2
 9067 0566 7D       		.byte	0x7d
 9068 0567 00       		.sleb128 0
 9069 0568 02000000 		.4byte	.LCFI71
 9070 056c 04000000 		.4byte	.LCFI72
 9071 0570 0200     		.2byte	0x2
 9072 0572 7D       		.byte	0x7d
 9073 0573 08       		.sleb128 8
 9074 0574 04000000 		.4byte	.LCFI72
 9075 0578 12000000 		.4byte	.LFE26
 9076 057c 0200     		.2byte	0x2
 9077 057e 77       		.byte	0x77
 9078 057f 08       		.sleb128 8
 9079 0580 00000000 		.4byte	0
 9080 0584 00000000 		.4byte	0
 9081              	.LLST27:
 9082 0588 00000000 		.4byte	.LFB27
 9083 058c 02000000 		.4byte	.LCFI73
 9084 0590 0200     		.2byte	0x2
 9085 0592 7D       		.byte	0x7d
 9086 0593 00       		.sleb128 0
 9087 0594 02000000 		.4byte	.LCFI73
 9088 0598 04000000 		.4byte	.LCFI74
 9089 059c 0200     		.2byte	0x2
 9090 059e 7D       		.byte	0x7d
 9091 059f 08       		.sleb128 8
 9092 05a0 04000000 		.4byte	.LCFI74
 9093 05a4 06000000 		.4byte	.LCFI75
 9094 05a8 0200     		.2byte	0x2
 9095 05aa 7D       		.byte	0x7d
 9096 05ab 10       		.sleb128 16
ARM GAS  C:\Users\CHUCK~1.ERH\AppData\Local\Temp\ccSfgJB7.s 			page 188


 9097 05ac 06000000 		.4byte	.LCFI75
 9098 05b0 1E000000 		.4byte	.LFE27
 9099 05b4 0200     		.2byte	0x2
 9100 05b6 77       		.byte	0x77
 9101 05b7 10       		.sleb128 16
 9102 05b8 00000000 		.4byte	0
 9103 05bc 00000000 		.4byte	0
 9104              	.LLST28:
 9105 05c0 00000000 		.4byte	.LFB28
 9106 05c4 02000000 		.4byte	.LCFI76
 9107 05c8 0200     		.2byte	0x2
 9108 05ca 7D       		.byte	0x7d
 9109 05cb 00       		.sleb128 0
 9110 05cc 02000000 		.4byte	.LCFI76
 9111 05d0 04000000 		.4byte	.LCFI77
 9112 05d4 0200     		.2byte	0x2
 9113 05d6 7D       		.byte	0x7d
 9114 05d7 08       		.sleb128 8
 9115 05d8 04000000 		.4byte	.LCFI77
 9116 05dc 12000000 		.4byte	.LFE28
 9117 05e0 0200     		.2byte	0x2
 9118 05e2 77       		.byte	0x77
 9119 05e3 08       		.sleb128 8
 9120 05e4 00000000 		.4byte	0
 9121 05e8 00000000 		.4byte	0
 9122              	.LLST29:
 9123 05ec 00000000 		.4byte	.LFB29
 9124 05f0 02000000 		.4byte	.LCFI78
 9125 05f4 0200     		.2byte	0x2
 9126 05f6 7D       		.byte	0x7d
 9127 05f7 00       		.sleb128 0
 9128 05f8 02000000 		.4byte	.LCFI78
 9129 05fc 04000000 		.4byte	.LCFI79
 9130 0600 0200     		.2byte	0x2
 9131 0602 7D       		.byte	0x7d
 9132 0603 08       		.sleb128 8
 9133 0604 04000000 		.4byte	.LCFI79
 9134 0608 06000000 		.4byte	.LCFI80
 9135 060c 0200     		.2byte	0x2
 9136 060e 7D       		.byte	0x7d
 9137 060f 10       		.sleb128 16
 9138 0610 06000000 		.4byte	.LCFI80
 9139 0614 1E000000 		.4byte	.LFE29
 9140 0618 0200     		.2byte	0x2
 9141 061a 77       		.byte	0x77
 9142 061b 10       		.sleb128 16
 9143 061c 00000000 		.4byte	0
 9144 0620 00000000 		.4byte	0
 9145              	.LLST30:
 9146 0624 00000000 		.4byte	.LFB30
 9147 0628 02000000 		.4byte	.LCFI81
 9148 062c 0200     		.2byte	0x2
 9149 062e 7D       		.byte	0x7d
 9150 062f 00       		.sleb128 0
 9151 0630 02000000 		.4byte	.LCFI81
 9152 0634 04000000 		.4byte	.LCFI82
 9153 0638 0200     		.2byte	0x2
ARM GAS  C:\Users\CHUCK~1.ERH\AppData\Local\Temp\ccSfgJB7.s 			page 189


 9154 063a 7D       		.byte	0x7d
 9155 063b 08       		.sleb128 8
 9156 063c 04000000 		.4byte	.LCFI82
 9157 0640 12000000 		.4byte	.LFE30
 9158 0644 0200     		.2byte	0x2
 9159 0646 77       		.byte	0x77
 9160 0647 08       		.sleb128 8
 9161 0648 00000000 		.4byte	0
 9162 064c 00000000 		.4byte	0
 9163              	.LLST31:
 9164 0650 00000000 		.4byte	.LFB31
 9165 0654 02000000 		.4byte	.LCFI83
 9166 0658 0200     		.2byte	0x2
 9167 065a 7D       		.byte	0x7d
 9168 065b 00       		.sleb128 0
 9169 065c 02000000 		.4byte	.LCFI83
 9170 0660 04000000 		.4byte	.LCFI84
 9171 0664 0200     		.2byte	0x2
 9172 0666 7D       		.byte	0x7d
 9173 0667 08       		.sleb128 8
 9174 0668 04000000 		.4byte	.LCFI84
 9175 066c 06000000 		.4byte	.LCFI85
 9176 0670 0200     		.2byte	0x2
 9177 0672 7D       		.byte	0x7d
 9178 0673 10       		.sleb128 16
 9179 0674 06000000 		.4byte	.LCFI85
 9180 0678 1E000000 		.4byte	.LFE31
 9181 067c 0200     		.2byte	0x2
 9182 067e 77       		.byte	0x77
 9183 067f 10       		.sleb128 16
 9184 0680 00000000 		.4byte	0
 9185 0684 00000000 		.4byte	0
 9186              	.LLST32:
 9187 0688 00000000 		.4byte	.LFB32
 9188 068c 02000000 		.4byte	.LCFI86
 9189 0690 0200     		.2byte	0x2
 9190 0692 7D       		.byte	0x7d
 9191 0693 00       		.sleb128 0
 9192 0694 02000000 		.4byte	.LCFI86
 9193 0698 04000000 		.4byte	.LCFI87
 9194 069c 0200     		.2byte	0x2
 9195 069e 7D       		.byte	0x7d
 9196 069f 08       		.sleb128 8
 9197 06a0 04000000 		.4byte	.LCFI87
 9198 06a4 12000000 		.4byte	.LFE32
 9199 06a8 0200     		.2byte	0x2
 9200 06aa 77       		.byte	0x77
 9201 06ab 08       		.sleb128 8
 9202 06ac 00000000 		.4byte	0
 9203 06b0 00000000 		.4byte	0
 9204              	.LLST33:
 9205 06b4 00000000 		.4byte	.LFB33
 9206 06b8 02000000 		.4byte	.LCFI88
 9207 06bc 0200     		.2byte	0x2
 9208 06be 7D       		.byte	0x7d
 9209 06bf 00       		.sleb128 0
 9210 06c0 02000000 		.4byte	.LCFI88
ARM GAS  C:\Users\CHUCK~1.ERH\AppData\Local\Temp\ccSfgJB7.s 			page 190


 9211 06c4 04000000 		.4byte	.LCFI89
 9212 06c8 0200     		.2byte	0x2
 9213 06ca 7D       		.byte	0x7d
 9214 06cb 08       		.sleb128 8
 9215 06cc 04000000 		.4byte	.LCFI89
 9216 06d0 06000000 		.4byte	.LCFI90
 9217 06d4 0200     		.2byte	0x2
 9218 06d6 7D       		.byte	0x7d
 9219 06d7 10       		.sleb128 16
 9220 06d8 06000000 		.4byte	.LCFI90
 9221 06dc 1A000000 		.4byte	.LFE33
 9222 06e0 0200     		.2byte	0x2
 9223 06e2 77       		.byte	0x77
 9224 06e3 10       		.sleb128 16
 9225 06e4 00000000 		.4byte	0
 9226 06e8 00000000 		.4byte	0
 9227              	.LLST34:
 9228 06ec 00000000 		.4byte	.LFB34
 9229 06f0 02000000 		.4byte	.LCFI91
 9230 06f4 0200     		.2byte	0x2
 9231 06f6 7D       		.byte	0x7d
 9232 06f7 00       		.sleb128 0
 9233 06f8 02000000 		.4byte	.LCFI91
 9234 06fc 04000000 		.4byte	.LCFI92
 9235 0700 0200     		.2byte	0x2
 9236 0702 7D       		.byte	0x7d
 9237 0703 08       		.sleb128 8
 9238 0704 04000000 		.4byte	.LCFI92
 9239 0708 12000000 		.4byte	.LFE34
 9240 070c 0200     		.2byte	0x2
 9241 070e 77       		.byte	0x77
 9242 070f 08       		.sleb128 8
 9243 0710 00000000 		.4byte	0
 9244 0714 00000000 		.4byte	0
 9245              	.LLST35:
 9246 0718 00000000 		.4byte	.LFB35
 9247 071c 02000000 		.4byte	.LCFI93
 9248 0720 0200     		.2byte	0x2
 9249 0722 7D       		.byte	0x7d
 9250 0723 00       		.sleb128 0
 9251 0724 02000000 		.4byte	.LCFI93
 9252 0728 04000000 		.4byte	.LCFI94
 9253 072c 0200     		.2byte	0x2
 9254 072e 7D       		.byte	0x7d
 9255 072f 08       		.sleb128 8
 9256 0730 04000000 		.4byte	.LCFI94
 9257 0734 06000000 		.4byte	.LCFI95
 9258 0738 0200     		.2byte	0x2
 9259 073a 7D       		.byte	0x7d
 9260 073b 10       		.sleb128 16
 9261 073c 06000000 		.4byte	.LCFI95
 9262 0740 1E000000 		.4byte	.LFE35
 9263 0744 0200     		.2byte	0x2
 9264 0746 77       		.byte	0x77
 9265 0747 10       		.sleb128 16
 9266 0748 00000000 		.4byte	0
 9267 074c 00000000 		.4byte	0
ARM GAS  C:\Users\CHUCK~1.ERH\AppData\Local\Temp\ccSfgJB7.s 			page 191


 9268              	.LLST36:
 9269 0750 00000000 		.4byte	.LFB36
 9270 0754 02000000 		.4byte	.LCFI96
 9271 0758 0200     		.2byte	0x2
 9272 075a 7D       		.byte	0x7d
 9273 075b 00       		.sleb128 0
 9274 075c 02000000 		.4byte	.LCFI96
 9275 0760 04000000 		.4byte	.LCFI97
 9276 0764 0200     		.2byte	0x2
 9277 0766 7D       		.byte	0x7d
 9278 0767 08       		.sleb128 8
 9279 0768 04000000 		.4byte	.LCFI97
 9280 076c 12000000 		.4byte	.LFE36
 9281 0770 0200     		.2byte	0x2
 9282 0772 77       		.byte	0x77
 9283 0773 08       		.sleb128 8
 9284 0774 00000000 		.4byte	0
 9285 0778 00000000 		.4byte	0
 9286              	.LLST37:
 9287 077c 00000000 		.4byte	.LFB37
 9288 0780 02000000 		.4byte	.LCFI98
 9289 0784 0200     		.2byte	0x2
 9290 0786 7D       		.byte	0x7d
 9291 0787 00       		.sleb128 0
 9292 0788 02000000 		.4byte	.LCFI98
 9293 078c 04000000 		.4byte	.LCFI99
 9294 0790 0200     		.2byte	0x2
 9295 0792 7D       		.byte	0x7d
 9296 0793 08       		.sleb128 8
 9297 0794 04000000 		.4byte	.LCFI99
 9298 0798 06000000 		.4byte	.LCFI100
 9299 079c 0200     		.2byte	0x2
 9300 079e 7D       		.byte	0x7d
 9301 079f 10       		.sleb128 16
 9302 07a0 06000000 		.4byte	.LCFI100
 9303 07a4 30000000 		.4byte	.LFE37
 9304 07a8 0200     		.2byte	0x2
 9305 07aa 77       		.byte	0x77
 9306 07ab 10       		.sleb128 16
 9307 07ac 00000000 		.4byte	0
 9308 07b0 00000000 		.4byte	0
 9309              	.LLST38:
 9310 07b4 00000000 		.4byte	.LFB38
 9311 07b8 02000000 		.4byte	.LCFI101
 9312 07bc 0200     		.2byte	0x2
 9313 07be 7D       		.byte	0x7d
 9314 07bf 00       		.sleb128 0
 9315 07c0 02000000 		.4byte	.LCFI101
 9316 07c4 04000000 		.4byte	.LCFI102
 9317 07c8 0200     		.2byte	0x2
 9318 07ca 7D       		.byte	0x7d
 9319 07cb 08       		.sleb128 8
 9320 07cc 04000000 		.4byte	.LCFI102
 9321 07d0 06000000 		.4byte	.LCFI103
 9322 07d4 0200     		.2byte	0x2
 9323 07d6 7D       		.byte	0x7d
 9324 07d7 10       		.sleb128 16
ARM GAS  C:\Users\CHUCK~1.ERH\AppData\Local\Temp\ccSfgJB7.s 			page 192


 9325 07d8 06000000 		.4byte	.LCFI103
 9326 07dc 2C000000 		.4byte	.LFE38
 9327 07e0 0200     		.2byte	0x2
 9328 07e2 77       		.byte	0x77
 9329 07e3 10       		.sleb128 16
 9330 07e4 00000000 		.4byte	0
 9331 07e8 00000000 		.4byte	0
 9332              	.LLST39:
 9333 07ec 00000000 		.4byte	.LFB39
 9334 07f0 02000000 		.4byte	.LCFI104
 9335 07f4 0200     		.2byte	0x2
 9336 07f6 7D       		.byte	0x7d
 9337 07f7 00       		.sleb128 0
 9338 07f8 02000000 		.4byte	.LCFI104
 9339 07fc 04000000 		.4byte	.LCFI105
 9340 0800 0200     		.2byte	0x2
 9341 0802 7D       		.byte	0x7d
 9342 0803 08       		.sleb128 8
 9343 0804 04000000 		.4byte	.LCFI105
 9344 0808 06000000 		.4byte	.LCFI106
 9345 080c 0200     		.2byte	0x2
 9346 080e 7D       		.byte	0x7d
 9347 080f 10       		.sleb128 16
 9348 0810 06000000 		.4byte	.LCFI106
 9349 0814 30000000 		.4byte	.LFE39
 9350 0818 0200     		.2byte	0x2
 9351 081a 77       		.byte	0x77
 9352 081b 10       		.sleb128 16
 9353 081c 00000000 		.4byte	0
 9354 0820 00000000 		.4byte	0
 9355              	.LLST40:
 9356 0824 00000000 		.4byte	.LFB40
 9357 0828 02000000 		.4byte	.LCFI107
 9358 082c 0200     		.2byte	0x2
 9359 082e 7D       		.byte	0x7d
 9360 082f 00       		.sleb128 0
 9361 0830 02000000 		.4byte	.LCFI107
 9362 0834 04000000 		.4byte	.LCFI108
 9363 0838 0200     		.2byte	0x2
 9364 083a 7D       		.byte	0x7d
 9365 083b 08       		.sleb128 8
 9366 083c 04000000 		.4byte	.LCFI108
 9367 0840 06000000 		.4byte	.LCFI109
 9368 0844 0200     		.2byte	0x2
 9369 0846 7D       		.byte	0x7d
 9370 0847 10       		.sleb128 16
 9371 0848 06000000 		.4byte	.LCFI109
 9372 084c 2C000000 		.4byte	.LFE40
 9373 0850 0200     		.2byte	0x2
 9374 0852 77       		.byte	0x77
 9375 0853 10       		.sleb128 16
 9376 0854 00000000 		.4byte	0
 9377 0858 00000000 		.4byte	0
 9378              	.LLST41:
 9379 085c 00000000 		.4byte	.LFB41
 9380 0860 02000000 		.4byte	.LCFI110
 9381 0864 0200     		.2byte	0x2
ARM GAS  C:\Users\CHUCK~1.ERH\AppData\Local\Temp\ccSfgJB7.s 			page 193


 9382 0866 7D       		.byte	0x7d
 9383 0867 00       		.sleb128 0
 9384 0868 02000000 		.4byte	.LCFI110
 9385 086c 04000000 		.4byte	.LCFI111
 9386 0870 0200     		.2byte	0x2
 9387 0872 7D       		.byte	0x7d
 9388 0873 08       		.sleb128 8
 9389 0874 04000000 		.4byte	.LCFI111
 9390 0878 06000000 		.4byte	.LCFI112
 9391 087c 0200     		.2byte	0x2
 9392 087e 7D       		.byte	0x7d
 9393 087f 10       		.sleb128 16
 9394 0880 06000000 		.4byte	.LCFI112
 9395 0884 30000000 		.4byte	.LFE41
 9396 0888 0200     		.2byte	0x2
 9397 088a 77       		.byte	0x77
 9398 088b 10       		.sleb128 16
 9399 088c 00000000 		.4byte	0
 9400 0890 00000000 		.4byte	0
 9401              	.LLST42:
 9402 0894 00000000 		.4byte	.LFB42
 9403 0898 02000000 		.4byte	.LCFI113
 9404 089c 0200     		.2byte	0x2
 9405 089e 7D       		.byte	0x7d
 9406 089f 00       		.sleb128 0
 9407 08a0 02000000 		.4byte	.LCFI113
 9408 08a4 04000000 		.4byte	.LCFI114
 9409 08a8 0200     		.2byte	0x2
 9410 08aa 7D       		.byte	0x7d
 9411 08ab 08       		.sleb128 8
 9412 08ac 04000000 		.4byte	.LCFI114
 9413 08b0 06000000 		.4byte	.LCFI115
 9414 08b4 0200     		.2byte	0x2
 9415 08b6 7D       		.byte	0x7d
 9416 08b7 10       		.sleb128 16
 9417 08b8 06000000 		.4byte	.LCFI115
 9418 08bc 2C000000 		.4byte	.LFE42
 9419 08c0 0200     		.2byte	0x2
 9420 08c2 77       		.byte	0x77
 9421 08c3 10       		.sleb128 16
 9422 08c4 00000000 		.4byte	0
 9423 08c8 00000000 		.4byte	0
 9424              	.LLST43:
 9425 08cc 00000000 		.4byte	.LFB43
 9426 08d0 02000000 		.4byte	.LCFI116
 9427 08d4 0200     		.2byte	0x2
 9428 08d6 7D       		.byte	0x7d
 9429 08d7 00       		.sleb128 0
 9430 08d8 02000000 		.4byte	.LCFI116
 9431 08dc 04000000 		.4byte	.LCFI117
 9432 08e0 0200     		.2byte	0x2
 9433 08e2 7D       		.byte	0x7d
 9434 08e3 08       		.sleb128 8
 9435 08e4 04000000 		.4byte	.LCFI117
 9436 08e8 06000000 		.4byte	.LCFI118
 9437 08ec 0200     		.2byte	0x2
 9438 08ee 7D       		.byte	0x7d
ARM GAS  C:\Users\CHUCK~1.ERH\AppData\Local\Temp\ccSfgJB7.s 			page 194


 9439 08ef 10       		.sleb128 16
 9440 08f0 06000000 		.4byte	.LCFI118
 9441 08f4 30000000 		.4byte	.LFE43
 9442 08f8 0200     		.2byte	0x2
 9443 08fa 77       		.byte	0x77
 9444 08fb 10       		.sleb128 16
 9445 08fc 00000000 		.4byte	0
 9446 0900 00000000 		.4byte	0
 9447              	.LLST44:
 9448 0904 00000000 		.4byte	.LFB44
 9449 0908 02000000 		.4byte	.LCFI119
 9450 090c 0200     		.2byte	0x2
 9451 090e 7D       		.byte	0x7d
 9452 090f 00       		.sleb128 0
 9453 0910 02000000 		.4byte	.LCFI119
 9454 0914 04000000 		.4byte	.LCFI120
 9455 0918 0200     		.2byte	0x2
 9456 091a 7D       		.byte	0x7d
 9457 091b 08       		.sleb128 8
 9458 091c 04000000 		.4byte	.LCFI120
 9459 0920 06000000 		.4byte	.LCFI121
 9460 0924 0200     		.2byte	0x2
 9461 0926 7D       		.byte	0x7d
 9462 0927 10       		.sleb128 16
 9463 0928 06000000 		.4byte	.LCFI121
 9464 092c 2C000000 		.4byte	.LFE44
 9465 0930 0200     		.2byte	0x2
 9466 0932 77       		.byte	0x77
 9467 0933 10       		.sleb128 16
 9468 0934 00000000 		.4byte	0
 9469 0938 00000000 		.4byte	0
 9470              	.LLST45:
 9471 093c 00000000 		.4byte	.LFB45
 9472 0940 02000000 		.4byte	.LCFI122
 9473 0944 0200     		.2byte	0x2
 9474 0946 7D       		.byte	0x7d
 9475 0947 00       		.sleb128 0
 9476 0948 02000000 		.4byte	.LCFI122
 9477 094c 04000000 		.4byte	.LCFI123
 9478 0950 0200     		.2byte	0x2
 9479 0952 7D       		.byte	0x7d
 9480 0953 08       		.sleb128 8
 9481 0954 04000000 		.4byte	.LCFI123
 9482 0958 06000000 		.4byte	.LCFI124
 9483 095c 0200     		.2byte	0x2
 9484 095e 7D       		.byte	0x7d
 9485 095f 10       		.sleb128 16
 9486 0960 06000000 		.4byte	.LCFI124
 9487 0964 30000000 		.4byte	.LFE45
 9488 0968 0200     		.2byte	0x2
 9489 096a 77       		.byte	0x77
 9490 096b 10       		.sleb128 16
 9491 096c 00000000 		.4byte	0
 9492 0970 00000000 		.4byte	0
 9493              	.LLST46:
 9494 0974 00000000 		.4byte	.LFB46
 9495 0978 02000000 		.4byte	.LCFI125
ARM GAS  C:\Users\CHUCK~1.ERH\AppData\Local\Temp\ccSfgJB7.s 			page 195


 9496 097c 0200     		.2byte	0x2
 9497 097e 7D       		.byte	0x7d
 9498 097f 00       		.sleb128 0
 9499 0980 02000000 		.4byte	.LCFI125
 9500 0984 04000000 		.4byte	.LCFI126
 9501 0988 0200     		.2byte	0x2
 9502 098a 7D       		.byte	0x7d
 9503 098b 08       		.sleb128 8
 9504 098c 04000000 		.4byte	.LCFI126
 9505 0990 06000000 		.4byte	.LCFI127
 9506 0994 0200     		.2byte	0x2
 9507 0996 7D       		.byte	0x7d
 9508 0997 10       		.sleb128 16
 9509 0998 06000000 		.4byte	.LCFI127
 9510 099c 2C000000 		.4byte	.LFE46
 9511 09a0 0200     		.2byte	0x2
 9512 09a2 77       		.byte	0x77
 9513 09a3 10       		.sleb128 16
 9514 09a4 00000000 		.4byte	0
 9515 09a8 00000000 		.4byte	0
 9516              	.LLST47:
 9517 09ac 00000000 		.4byte	.LFB47
 9518 09b0 02000000 		.4byte	.LCFI128
 9519 09b4 0200     		.2byte	0x2
 9520 09b6 7D       		.byte	0x7d
 9521 09b7 00       		.sleb128 0
 9522 09b8 02000000 		.4byte	.LCFI128
 9523 09bc 04000000 		.4byte	.LCFI129
 9524 09c0 0200     		.2byte	0x2
 9525 09c2 7D       		.byte	0x7d
 9526 09c3 08       		.sleb128 8
 9527 09c4 04000000 		.4byte	.LCFI129
 9528 09c8 06000000 		.4byte	.LCFI130
 9529 09cc 0200     		.2byte	0x2
 9530 09ce 7D       		.byte	0x7d
 9531 09cf 10       		.sleb128 16
 9532 09d0 06000000 		.4byte	.LCFI130
 9533 09d4 2C000000 		.4byte	.LFE47
 9534 09d8 0200     		.2byte	0x2
 9535 09da 77       		.byte	0x77
 9536 09db 10       		.sleb128 16
 9537 09dc 00000000 		.4byte	0
 9538 09e0 00000000 		.4byte	0
 9539              	.LLST48:
 9540 09e4 00000000 		.4byte	.LFB48
 9541 09e8 02000000 		.4byte	.LCFI131
 9542 09ec 0200     		.2byte	0x2
 9543 09ee 7D       		.byte	0x7d
 9544 09ef 00       		.sleb128 0
 9545 09f0 02000000 		.4byte	.LCFI131
 9546 09f4 04000000 		.4byte	.LCFI132
 9547 09f8 0200     		.2byte	0x2
 9548 09fa 7D       		.byte	0x7d
 9549 09fb 08       		.sleb128 8
 9550 09fc 04000000 		.4byte	.LCFI132
 9551 0a00 06000000 		.4byte	.LCFI133
 9552 0a04 0200     		.2byte	0x2
ARM GAS  C:\Users\CHUCK~1.ERH\AppData\Local\Temp\ccSfgJB7.s 			page 196


 9553 0a06 7D       		.byte	0x7d
 9554 0a07 10       		.sleb128 16
 9555 0a08 06000000 		.4byte	.LCFI133
 9556 0a0c 2C000000 		.4byte	.LFE48
 9557 0a10 0200     		.2byte	0x2
 9558 0a12 77       		.byte	0x77
 9559 0a13 10       		.sleb128 16
 9560 0a14 00000000 		.4byte	0
 9561 0a18 00000000 		.4byte	0
 9562              	.LLST49:
 9563 0a1c 00000000 		.4byte	.LFB49
 9564 0a20 02000000 		.4byte	.LCFI134
 9565 0a24 0200     		.2byte	0x2
 9566 0a26 7D       		.byte	0x7d
 9567 0a27 00       		.sleb128 0
 9568 0a28 02000000 		.4byte	.LCFI134
 9569 0a2c 04000000 		.4byte	.LCFI135
 9570 0a30 0200     		.2byte	0x2
 9571 0a32 7D       		.byte	0x7d
 9572 0a33 08       		.sleb128 8
 9573 0a34 04000000 		.4byte	.LCFI135
 9574 0a38 06000000 		.4byte	.LCFI136
 9575 0a3c 0200     		.2byte	0x2
 9576 0a3e 7D       		.byte	0x7d
 9577 0a3f 10       		.sleb128 16
 9578 0a40 06000000 		.4byte	.LCFI136
 9579 0a44 2C000000 		.4byte	.LFE49
 9580 0a48 0200     		.2byte	0x2
 9581 0a4a 77       		.byte	0x77
 9582 0a4b 10       		.sleb128 16
 9583 0a4c 00000000 		.4byte	0
 9584 0a50 00000000 		.4byte	0
 9585              	.LLST50:
 9586 0a54 00000000 		.4byte	.LFB50
 9587 0a58 02000000 		.4byte	.LCFI137
 9588 0a5c 0200     		.2byte	0x2
 9589 0a5e 7D       		.byte	0x7d
 9590 0a5f 00       		.sleb128 0
 9591 0a60 02000000 		.4byte	.LCFI137
 9592 0a64 04000000 		.4byte	.LCFI138
 9593 0a68 0200     		.2byte	0x2
 9594 0a6a 7D       		.byte	0x7d
 9595 0a6b 08       		.sleb128 8
 9596 0a6c 04000000 		.4byte	.LCFI138
 9597 0a70 06000000 		.4byte	.LCFI139
 9598 0a74 0200     		.2byte	0x2
 9599 0a76 7D       		.byte	0x7d
 9600 0a77 10       		.sleb128 16
 9601 0a78 06000000 		.4byte	.LCFI139
 9602 0a7c 2C000000 		.4byte	.LFE50
 9603 0a80 0200     		.2byte	0x2
 9604 0a82 77       		.byte	0x77
 9605 0a83 10       		.sleb128 16
 9606 0a84 00000000 		.4byte	0
 9607 0a88 00000000 		.4byte	0
 9608              	.LLST51:
 9609 0a8c 00000000 		.4byte	.LFB51
ARM GAS  C:\Users\CHUCK~1.ERH\AppData\Local\Temp\ccSfgJB7.s 			page 197


 9610 0a90 02000000 		.4byte	.LCFI140
 9611 0a94 0200     		.2byte	0x2
 9612 0a96 7D       		.byte	0x7d
 9613 0a97 00       		.sleb128 0
 9614 0a98 02000000 		.4byte	.LCFI140
 9615 0a9c 04000000 		.4byte	.LCFI141
 9616 0aa0 0200     		.2byte	0x2
 9617 0aa2 7D       		.byte	0x7d
 9618 0aa3 08       		.sleb128 8
 9619 0aa4 04000000 		.4byte	.LCFI141
 9620 0aa8 06000000 		.4byte	.LCFI142
 9621 0aac 0200     		.2byte	0x2
 9622 0aae 7D       		.byte	0x7d
 9623 0aaf 10       		.sleb128 16
 9624 0ab0 06000000 		.4byte	.LCFI142
 9625 0ab4 30000000 		.4byte	.LFE51
 9626 0ab8 0200     		.2byte	0x2
 9627 0aba 77       		.byte	0x77
 9628 0abb 10       		.sleb128 16
 9629 0abc 00000000 		.4byte	0
 9630 0ac0 00000000 		.4byte	0
 9631              	.LLST52:
 9632 0ac4 00000000 		.4byte	.LFB52
 9633 0ac8 02000000 		.4byte	.LCFI143
 9634 0acc 0200     		.2byte	0x2
 9635 0ace 7D       		.byte	0x7d
 9636 0acf 00       		.sleb128 0
 9637 0ad0 02000000 		.4byte	.LCFI143
 9638 0ad4 04000000 		.4byte	.LCFI144
 9639 0ad8 0200     		.2byte	0x2
 9640 0ada 7D       		.byte	0x7d
 9641 0adb 08       		.sleb128 8
 9642 0adc 04000000 		.4byte	.LCFI144
 9643 0ae0 06000000 		.4byte	.LCFI145
 9644 0ae4 0200     		.2byte	0x2
 9645 0ae6 7D       		.byte	0x7d
 9646 0ae7 10       		.sleb128 16
 9647 0ae8 06000000 		.4byte	.LCFI145
 9648 0aec 2C000000 		.4byte	.LFE52
 9649 0af0 0200     		.2byte	0x2
 9650 0af2 77       		.byte	0x77
 9651 0af3 10       		.sleb128 16
 9652 0af4 00000000 		.4byte	0
 9653 0af8 00000000 		.4byte	0
 9654              	.LLST53:
 9655 0afc 00000000 		.4byte	.LFB53
 9656 0b00 02000000 		.4byte	.LCFI146
 9657 0b04 0200     		.2byte	0x2
 9658 0b06 7D       		.byte	0x7d
 9659 0b07 00       		.sleb128 0
 9660 0b08 02000000 		.4byte	.LCFI146
 9661 0b0c 04000000 		.4byte	.LCFI147
 9662 0b10 0200     		.2byte	0x2
 9663 0b12 7D       		.byte	0x7d
 9664 0b13 08       		.sleb128 8
 9665 0b14 04000000 		.4byte	.LCFI147
 9666 0b18 06000000 		.4byte	.LCFI148
ARM GAS  C:\Users\CHUCK~1.ERH\AppData\Local\Temp\ccSfgJB7.s 			page 198


 9667 0b1c 0200     		.2byte	0x2
 9668 0b1e 7D       		.byte	0x7d
 9669 0b1f 10       		.sleb128 16
 9670 0b20 06000000 		.4byte	.LCFI148
 9671 0b24 30000000 		.4byte	.LFE53
 9672 0b28 0200     		.2byte	0x2
 9673 0b2a 77       		.byte	0x77
 9674 0b2b 10       		.sleb128 16
 9675 0b2c 00000000 		.4byte	0
 9676 0b30 00000000 		.4byte	0
 9677              	.LLST54:
 9678 0b34 00000000 		.4byte	.LFB54
 9679 0b38 02000000 		.4byte	.LCFI149
 9680 0b3c 0200     		.2byte	0x2
 9681 0b3e 7D       		.byte	0x7d
 9682 0b3f 00       		.sleb128 0
 9683 0b40 02000000 		.4byte	.LCFI149
 9684 0b44 04000000 		.4byte	.LCFI150
 9685 0b48 0200     		.2byte	0x2
 9686 0b4a 7D       		.byte	0x7d
 9687 0b4b 08       		.sleb128 8
 9688 0b4c 04000000 		.4byte	.LCFI150
 9689 0b50 06000000 		.4byte	.LCFI151
 9690 0b54 0200     		.2byte	0x2
 9691 0b56 7D       		.byte	0x7d
 9692 0b57 10       		.sleb128 16
 9693 0b58 06000000 		.4byte	.LCFI151
 9694 0b5c 2C000000 		.4byte	.LFE54
 9695 0b60 0200     		.2byte	0x2
 9696 0b62 77       		.byte	0x77
 9697 0b63 10       		.sleb128 16
 9698 0b64 00000000 		.4byte	0
 9699 0b68 00000000 		.4byte	0
 9700              	.LLST55:
 9701 0b6c 00000000 		.4byte	.LFB55
 9702 0b70 02000000 		.4byte	.LCFI152
 9703 0b74 0200     		.2byte	0x2
 9704 0b76 7D       		.byte	0x7d
 9705 0b77 00       		.sleb128 0
 9706 0b78 02000000 		.4byte	.LCFI152
 9707 0b7c 04000000 		.4byte	.LCFI153
 9708 0b80 0200     		.2byte	0x2
 9709 0b82 7D       		.byte	0x7d
 9710 0b83 08       		.sleb128 8
 9711 0b84 04000000 		.4byte	.LCFI153
 9712 0b88 06000000 		.4byte	.LCFI154
 9713 0b8c 0200     		.2byte	0x2
 9714 0b8e 7D       		.byte	0x7d
 9715 0b8f 10       		.sleb128 16
 9716 0b90 06000000 		.4byte	.LCFI154
 9717 0b94 2C000000 		.4byte	.LFE55
 9718 0b98 0200     		.2byte	0x2
 9719 0b9a 77       		.byte	0x77
 9720 0b9b 10       		.sleb128 16
 9721 0b9c 00000000 		.4byte	0
 9722 0ba0 00000000 		.4byte	0
 9723              	.LLST56:
ARM GAS  C:\Users\CHUCK~1.ERH\AppData\Local\Temp\ccSfgJB7.s 			page 199


 9724 0ba4 00000000 		.4byte	.LFB56
 9725 0ba8 02000000 		.4byte	.LCFI155
 9726 0bac 0200     		.2byte	0x2
 9727 0bae 7D       		.byte	0x7d
 9728 0baf 00       		.sleb128 0
 9729 0bb0 02000000 		.4byte	.LCFI155
 9730 0bb4 04000000 		.4byte	.LCFI156
 9731 0bb8 0200     		.2byte	0x2
 9732 0bba 7D       		.byte	0x7d
 9733 0bbb 08       		.sleb128 8
 9734 0bbc 04000000 		.4byte	.LCFI156
 9735 0bc0 06000000 		.4byte	.LCFI157
 9736 0bc4 0200     		.2byte	0x2
 9737 0bc6 7D       		.byte	0x7d
 9738 0bc7 10       		.sleb128 16
 9739 0bc8 06000000 		.4byte	.LCFI157
 9740 0bcc 30000000 		.4byte	.LFE56
 9741 0bd0 0200     		.2byte	0x2
 9742 0bd2 77       		.byte	0x77
 9743 0bd3 10       		.sleb128 16
 9744 0bd4 00000000 		.4byte	0
 9745 0bd8 00000000 		.4byte	0
 9746              	.LLST57:
 9747 0bdc 00000000 		.4byte	.LFB57
 9748 0be0 02000000 		.4byte	.LCFI158
 9749 0be4 0200     		.2byte	0x2
 9750 0be6 7D       		.byte	0x7d
 9751 0be7 00       		.sleb128 0
 9752 0be8 02000000 		.4byte	.LCFI158
 9753 0bec 04000000 		.4byte	.LCFI159
 9754 0bf0 0200     		.2byte	0x2
 9755 0bf2 7D       		.byte	0x7d
 9756 0bf3 08       		.sleb128 8
 9757 0bf4 04000000 		.4byte	.LCFI159
 9758 0bf8 06000000 		.4byte	.LCFI160
 9759 0bfc 0200     		.2byte	0x2
 9760 0bfe 7D       		.byte	0x7d
 9761 0bff 10       		.sleb128 16
 9762 0c00 06000000 		.4byte	.LCFI160
 9763 0c04 2C000000 		.4byte	.LFE57
 9764 0c08 0200     		.2byte	0x2
 9765 0c0a 77       		.byte	0x77
 9766 0c0b 10       		.sleb128 16
 9767 0c0c 00000000 		.4byte	0
 9768 0c10 00000000 		.4byte	0
 9769              	.LLST58:
 9770 0c14 00000000 		.4byte	.LFB58
 9771 0c18 02000000 		.4byte	.LCFI161
 9772 0c1c 0200     		.2byte	0x2
 9773 0c1e 7D       		.byte	0x7d
 9774 0c1f 00       		.sleb128 0
 9775 0c20 02000000 		.4byte	.LCFI161
 9776 0c24 04000000 		.4byte	.LCFI162
 9777 0c28 0200     		.2byte	0x2
 9778 0c2a 7D       		.byte	0x7d
 9779 0c2b 08       		.sleb128 8
 9780 0c2c 04000000 		.4byte	.LCFI162
ARM GAS  C:\Users\CHUCK~1.ERH\AppData\Local\Temp\ccSfgJB7.s 			page 200


 9781 0c30 06000000 		.4byte	.LCFI163
 9782 0c34 0200     		.2byte	0x2
 9783 0c36 7D       		.byte	0x7d
 9784 0c37 10       		.sleb128 16
 9785 0c38 06000000 		.4byte	.LCFI163
 9786 0c3c 30000000 		.4byte	.LFE58
 9787 0c40 0200     		.2byte	0x2
 9788 0c42 77       		.byte	0x77
 9789 0c43 10       		.sleb128 16
 9790 0c44 00000000 		.4byte	0
 9791 0c48 00000000 		.4byte	0
 9792              	.LLST59:
 9793 0c4c 00000000 		.4byte	.LFB59
 9794 0c50 02000000 		.4byte	.LCFI164
 9795 0c54 0200     		.2byte	0x2
 9796 0c56 7D       		.byte	0x7d
 9797 0c57 00       		.sleb128 0
 9798 0c58 02000000 		.4byte	.LCFI164
 9799 0c5c 04000000 		.4byte	.LCFI165
 9800 0c60 0200     		.2byte	0x2
 9801 0c62 7D       		.byte	0x7d
 9802 0c63 08       		.sleb128 8
 9803 0c64 04000000 		.4byte	.LCFI165
 9804 0c68 06000000 		.4byte	.LCFI166
 9805 0c6c 0200     		.2byte	0x2
 9806 0c6e 7D       		.byte	0x7d
 9807 0c6f 10       		.sleb128 16
 9808 0c70 06000000 		.4byte	.LCFI166
 9809 0c74 2C000000 		.4byte	.LFE59
 9810 0c78 0200     		.2byte	0x2
 9811 0c7a 77       		.byte	0x77
 9812 0c7b 10       		.sleb128 16
 9813 0c7c 00000000 		.4byte	0
 9814 0c80 00000000 		.4byte	0
 9815              	.LLST60:
 9816 0c84 00000000 		.4byte	.LFB60
 9817 0c88 02000000 		.4byte	.LCFI167
 9818 0c8c 0200     		.2byte	0x2
 9819 0c8e 7D       		.byte	0x7d
 9820 0c8f 00       		.sleb128 0
 9821 0c90 02000000 		.4byte	.LCFI167
 9822 0c94 04000000 		.4byte	.LCFI168
 9823 0c98 0200     		.2byte	0x2
 9824 0c9a 7D       		.byte	0x7d
 9825 0c9b 08       		.sleb128 8
 9826 0c9c 04000000 		.4byte	.LCFI168
 9827 0ca0 06000000 		.4byte	.LCFI169
 9828 0ca4 0200     		.2byte	0x2
 9829 0ca6 7D       		.byte	0x7d
 9830 0ca7 10       		.sleb128 16
 9831 0ca8 06000000 		.4byte	.LCFI169
 9832 0cac 30000000 		.4byte	.LFE60
 9833 0cb0 0200     		.2byte	0x2
 9834 0cb2 77       		.byte	0x77
 9835 0cb3 10       		.sleb128 16
 9836 0cb4 00000000 		.4byte	0
 9837 0cb8 00000000 		.4byte	0
ARM GAS  C:\Users\CHUCK~1.ERH\AppData\Local\Temp\ccSfgJB7.s 			page 201


 9838              	.LLST61:
 9839 0cbc 00000000 		.4byte	.LFB61
 9840 0cc0 02000000 		.4byte	.LCFI170
 9841 0cc4 0200     		.2byte	0x2
 9842 0cc6 7D       		.byte	0x7d
 9843 0cc7 00       		.sleb128 0
 9844 0cc8 02000000 		.4byte	.LCFI170
 9845 0ccc 04000000 		.4byte	.LCFI171
 9846 0cd0 0200     		.2byte	0x2
 9847 0cd2 7D       		.byte	0x7d
 9848 0cd3 08       		.sleb128 8
 9849 0cd4 04000000 		.4byte	.LCFI171
 9850 0cd8 06000000 		.4byte	.LCFI172
 9851 0cdc 0200     		.2byte	0x2
 9852 0cde 7D       		.byte	0x7d
 9853 0cdf 10       		.sleb128 16
 9854 0ce0 06000000 		.4byte	.LCFI172
 9855 0ce4 2C000000 		.4byte	.LFE61
 9856 0ce8 0200     		.2byte	0x2
 9857 0cea 77       		.byte	0x77
 9858 0ceb 10       		.sleb128 16
 9859 0cec 00000000 		.4byte	0
 9860 0cf0 00000000 		.4byte	0
 9861              	.LLST62:
 9862 0cf4 00000000 		.4byte	.LFB62
 9863 0cf8 02000000 		.4byte	.LCFI173
 9864 0cfc 0200     		.2byte	0x2
 9865 0cfe 7D       		.byte	0x7d
 9866 0cff 00       		.sleb128 0
 9867 0d00 02000000 		.4byte	.LCFI173
 9868 0d04 04000000 		.4byte	.LCFI174
 9869 0d08 0200     		.2byte	0x2
 9870 0d0a 7D       		.byte	0x7d
 9871 0d0b 08       		.sleb128 8
 9872 0d0c 04000000 		.4byte	.LCFI174
 9873 0d10 06000000 		.4byte	.LCFI175
 9874 0d14 0200     		.2byte	0x2
 9875 0d16 7D       		.byte	0x7d
 9876 0d17 10       		.sleb128 16
 9877 0d18 06000000 		.4byte	.LCFI175
 9878 0d1c 30000000 		.4byte	.LFE62
 9879 0d20 0200     		.2byte	0x2
 9880 0d22 77       		.byte	0x77
 9881 0d23 10       		.sleb128 16
 9882 0d24 00000000 		.4byte	0
 9883 0d28 00000000 		.4byte	0
 9884              	.LLST63:
 9885 0d2c 00000000 		.4byte	.LFB63
 9886 0d30 02000000 		.4byte	.LCFI176
 9887 0d34 0200     		.2byte	0x2
 9888 0d36 7D       		.byte	0x7d
 9889 0d37 00       		.sleb128 0
 9890 0d38 02000000 		.4byte	.LCFI176
 9891 0d3c 04000000 		.4byte	.LCFI177
 9892 0d40 0200     		.2byte	0x2
 9893 0d42 7D       		.byte	0x7d
 9894 0d43 08       		.sleb128 8
ARM GAS  C:\Users\CHUCK~1.ERH\AppData\Local\Temp\ccSfgJB7.s 			page 202


 9895 0d44 04000000 		.4byte	.LCFI177
 9896 0d48 06000000 		.4byte	.LCFI178
 9897 0d4c 0200     		.2byte	0x2
 9898 0d4e 7D       		.byte	0x7d
 9899 0d4f 10       		.sleb128 16
 9900 0d50 06000000 		.4byte	.LCFI178
 9901 0d54 2C000000 		.4byte	.LFE63
 9902 0d58 0200     		.2byte	0x2
 9903 0d5a 77       		.byte	0x77
 9904 0d5b 10       		.sleb128 16
 9905 0d5c 00000000 		.4byte	0
 9906 0d60 00000000 		.4byte	0
 9907              	.LLST64:
 9908 0d64 00000000 		.4byte	.LFB64
 9909 0d68 02000000 		.4byte	.LCFI179
 9910 0d6c 0200     		.2byte	0x2
 9911 0d6e 7D       		.byte	0x7d
 9912 0d6f 00       		.sleb128 0
 9913 0d70 02000000 		.4byte	.LCFI179
 9914 0d74 04000000 		.4byte	.LCFI180
 9915 0d78 0200     		.2byte	0x2
 9916 0d7a 7D       		.byte	0x7d
 9917 0d7b 08       		.sleb128 8
 9918 0d7c 04000000 		.4byte	.LCFI180
 9919 0d80 06000000 		.4byte	.LCFI181
 9920 0d84 0200     		.2byte	0x2
 9921 0d86 7D       		.byte	0x7d
 9922 0d87 10       		.sleb128 16
 9923 0d88 06000000 		.4byte	.LCFI181
 9924 0d8c 30000000 		.4byte	.LFE64
 9925 0d90 0200     		.2byte	0x2
 9926 0d92 77       		.byte	0x77
 9927 0d93 10       		.sleb128 16
 9928 0d94 00000000 		.4byte	0
 9929 0d98 00000000 		.4byte	0
 9930              	.LLST65:
 9931 0d9c 00000000 		.4byte	.LFB65
 9932 0da0 02000000 		.4byte	.LCFI182
 9933 0da4 0200     		.2byte	0x2
 9934 0da6 7D       		.byte	0x7d
 9935 0da7 00       		.sleb128 0
 9936 0da8 02000000 		.4byte	.LCFI182
 9937 0dac 04000000 		.4byte	.LCFI183
 9938 0db0 0200     		.2byte	0x2
 9939 0db2 7D       		.byte	0x7d
 9940 0db3 08       		.sleb128 8
 9941 0db4 04000000 		.4byte	.LCFI183
 9942 0db8 06000000 		.4byte	.LCFI184
 9943 0dbc 0200     		.2byte	0x2
 9944 0dbe 7D       		.byte	0x7d
 9945 0dbf 10       		.sleb128 16
 9946 0dc0 06000000 		.4byte	.LCFI184
 9947 0dc4 2C000000 		.4byte	.LFE65
 9948 0dc8 0200     		.2byte	0x2
 9949 0dca 77       		.byte	0x77
 9950 0dcb 10       		.sleb128 16
 9951 0dcc 00000000 		.4byte	0
ARM GAS  C:\Users\CHUCK~1.ERH\AppData\Local\Temp\ccSfgJB7.s 			page 203


 9952 0dd0 00000000 		.4byte	0
 9953              	.LLST66:
 9954 0dd4 00000000 		.4byte	.LFB66
 9955 0dd8 02000000 		.4byte	.LCFI185
 9956 0ddc 0200     		.2byte	0x2
 9957 0dde 7D       		.byte	0x7d
 9958 0ddf 00       		.sleb128 0
 9959 0de0 02000000 		.4byte	.LCFI185
 9960 0de4 04000000 		.4byte	.LCFI186
 9961 0de8 0200     		.2byte	0x2
 9962 0dea 7D       		.byte	0x7d
 9963 0deb 08       		.sleb128 8
 9964 0dec 04000000 		.4byte	.LCFI186
 9965 0df0 06000000 		.4byte	.LCFI187
 9966 0df4 0200     		.2byte	0x2
 9967 0df6 7D       		.byte	0x7d
 9968 0df7 10       		.sleb128 16
 9969 0df8 06000000 		.4byte	.LCFI187
 9970 0dfc 2C000000 		.4byte	.LFE66
 9971 0e00 0200     		.2byte	0x2
 9972 0e02 77       		.byte	0x77
 9973 0e03 10       		.sleb128 16
 9974 0e04 00000000 		.4byte	0
 9975 0e08 00000000 		.4byte	0
 9976              	.LLST67:
 9977 0e0c 00000000 		.4byte	.LFB67
 9978 0e10 02000000 		.4byte	.LCFI188
 9979 0e14 0200     		.2byte	0x2
 9980 0e16 7D       		.byte	0x7d
 9981 0e17 00       		.sleb128 0
 9982 0e18 02000000 		.4byte	.LCFI188
 9983 0e1c 04000000 		.4byte	.LCFI189
 9984 0e20 0200     		.2byte	0x2
 9985 0e22 7D       		.byte	0x7d
 9986 0e23 08       		.sleb128 8
 9987 0e24 04000000 		.4byte	.LCFI189
 9988 0e28 06000000 		.4byte	.LCFI190
 9989 0e2c 0200     		.2byte	0x2
 9990 0e2e 7D       		.byte	0x7d
 9991 0e2f 10       		.sleb128 16
 9992 0e30 06000000 		.4byte	.LCFI190
 9993 0e34 30000000 		.4byte	.LFE67
 9994 0e38 0200     		.2byte	0x2
 9995 0e3a 77       		.byte	0x77
 9996 0e3b 10       		.sleb128 16
 9997 0e3c 00000000 		.4byte	0
 9998 0e40 00000000 		.4byte	0
 9999              	.LLST68:
 10000 0e44 00000000 		.4byte	.LFB68
 10001 0e48 02000000 		.4byte	.LCFI191
 10002 0e4c 0200     		.2byte	0x2
 10003 0e4e 7D       		.byte	0x7d
 10004 0e4f 00       		.sleb128 0
 10005 0e50 02000000 		.4byte	.LCFI191
 10006 0e54 04000000 		.4byte	.LCFI192
 10007 0e58 0200     		.2byte	0x2
 10008 0e5a 7D       		.byte	0x7d
ARM GAS  C:\Users\CHUCK~1.ERH\AppData\Local\Temp\ccSfgJB7.s 			page 204


 10009 0e5b 08       		.sleb128 8
 10010 0e5c 04000000 		.4byte	.LCFI192
 10011 0e60 06000000 		.4byte	.LCFI193
 10012 0e64 0200     		.2byte	0x2
 10013 0e66 7D       		.byte	0x7d
 10014 0e67 10       		.sleb128 16
 10015 0e68 06000000 		.4byte	.LCFI193
 10016 0e6c 2C000000 		.4byte	.LFE68
 10017 0e70 0200     		.2byte	0x2
 10018 0e72 77       		.byte	0x77
 10019 0e73 10       		.sleb128 16
 10020 0e74 00000000 		.4byte	0
 10021 0e78 00000000 		.4byte	0
 10022              	.LLST69:
 10023 0e7c 00000000 		.4byte	.LFB69
 10024 0e80 02000000 		.4byte	.LCFI194
 10025 0e84 0200     		.2byte	0x2
 10026 0e86 7D       		.byte	0x7d
 10027 0e87 00       		.sleb128 0
 10028 0e88 02000000 		.4byte	.LCFI194
 10029 0e8c 04000000 		.4byte	.LCFI195
 10030 0e90 0200     		.2byte	0x2
 10031 0e92 7D       		.byte	0x7d
 10032 0e93 08       		.sleb128 8
 10033 0e94 04000000 		.4byte	.LCFI195
 10034 0e98 06000000 		.4byte	.LCFI196
 10035 0e9c 0200     		.2byte	0x2
 10036 0e9e 7D       		.byte	0x7d
 10037 0e9f 18       		.sleb128 24
 10038 0ea0 06000000 		.4byte	.LCFI196
 10039 0ea4 52000000 		.4byte	.LFE69
 10040 0ea8 0200     		.2byte	0x2
 10041 0eaa 77       		.byte	0x77
 10042 0eab 18       		.sleb128 24
 10043 0eac 00000000 		.4byte	0
 10044 0eb0 00000000 		.4byte	0
 10045              	.LLST70:
 10046 0eb4 00000000 		.4byte	.LFB70
 10047 0eb8 02000000 		.4byte	.LCFI197
 10048 0ebc 0200     		.2byte	0x2
 10049 0ebe 7D       		.byte	0x7d
 10050 0ebf 00       		.sleb128 0
 10051 0ec0 02000000 		.4byte	.LCFI197
 10052 0ec4 04000000 		.4byte	.LCFI198
 10053 0ec8 0200     		.2byte	0x2
 10054 0eca 7D       		.byte	0x7d
 10055 0ecb 08       		.sleb128 8
 10056 0ecc 04000000 		.4byte	.LCFI198
 10057 0ed0 06000000 		.4byte	.LCFI199
 10058 0ed4 0200     		.2byte	0x2
 10059 0ed6 7D       		.byte	0x7d
 10060 0ed7 18       		.sleb128 24
 10061 0ed8 06000000 		.4byte	.LCFI199
 10062 0edc 48000000 		.4byte	.LFE70
 10063 0ee0 0200     		.2byte	0x2
 10064 0ee2 77       		.byte	0x77
 10065 0ee3 18       		.sleb128 24
ARM GAS  C:\Users\CHUCK~1.ERH\AppData\Local\Temp\ccSfgJB7.s 			page 205


 10066 0ee4 00000000 		.4byte	0
 10067 0ee8 00000000 		.4byte	0
 10068              	.LLST71:
 10069 0eec 00000000 		.4byte	.LFB71
 10070 0ef0 02000000 		.4byte	.LCFI200
 10071 0ef4 0200     		.2byte	0x2
 10072 0ef6 7D       		.byte	0x7d
 10073 0ef7 00       		.sleb128 0
 10074 0ef8 02000000 		.4byte	.LCFI200
 10075 0efc 04000000 		.4byte	.LCFI201
 10076 0f00 0200     		.2byte	0x2
 10077 0f02 7D       		.byte	0x7d
 10078 0f03 08       		.sleb128 8
 10079 0f04 04000000 		.4byte	.LCFI201
 10080 0f08 06000000 		.4byte	.LCFI202
 10081 0f0c 0200     		.2byte	0x2
 10082 0f0e 7D       		.byte	0x7d
 10083 0f0f 18       		.sleb128 24
 10084 0f10 06000000 		.4byte	.LCFI202
 10085 0f14 48000000 		.4byte	.LFE71
 10086 0f18 0200     		.2byte	0x2
 10087 0f1a 77       		.byte	0x77
 10088 0f1b 18       		.sleb128 24
 10089 0f1c 00000000 		.4byte	0
 10090 0f20 00000000 		.4byte	0
 10091              	.LLST72:
 10092 0f24 00000000 		.4byte	.LFB72
 10093 0f28 02000000 		.4byte	.LCFI203
 10094 0f2c 0200     		.2byte	0x2
 10095 0f2e 7D       		.byte	0x7d
 10096 0f2f 00       		.sleb128 0
 10097 0f30 02000000 		.4byte	.LCFI203
 10098 0f34 04000000 		.4byte	.LCFI204
 10099 0f38 0200     		.2byte	0x2
 10100 0f3a 7D       		.byte	0x7d
 10101 0f3b 08       		.sleb128 8
 10102 0f3c 04000000 		.4byte	.LCFI204
 10103 0f40 06000000 		.4byte	.LCFI205
 10104 0f44 0200     		.2byte	0x2
 10105 0f46 7D       		.byte	0x7d
 10106 0f47 20       		.sleb128 32
 10107 0f48 06000000 		.4byte	.LCFI205
 10108 0f4c B8000000 		.4byte	.LFE72
 10109 0f50 0200     		.2byte	0x2
 10110 0f52 77       		.byte	0x77
 10111 0f53 20       		.sleb128 32
 10112 0f54 00000000 		.4byte	0
 10113 0f58 00000000 		.4byte	0
 10114              	.LLST73:
 10115 0f5c 00000000 		.4byte	.LFB73
 10116 0f60 02000000 		.4byte	.LCFI206
 10117 0f64 0200     		.2byte	0x2
 10118 0f66 7D       		.byte	0x7d
 10119 0f67 00       		.sleb128 0
 10120 0f68 02000000 		.4byte	.LCFI206
 10121 0f6c 04000000 		.4byte	.LCFI207
 10122 0f70 0200     		.2byte	0x2
ARM GAS  C:\Users\CHUCK~1.ERH\AppData\Local\Temp\ccSfgJB7.s 			page 206


 10123 0f72 7D       		.byte	0x7d
 10124 0f73 08       		.sleb128 8
 10125 0f74 04000000 		.4byte	.LCFI207
 10126 0f78 06000000 		.4byte	.LCFI208
 10127 0f7c 0200     		.2byte	0x2
 10128 0f7e 7D       		.byte	0x7d
 10129 0f7f 20       		.sleb128 32
 10130 0f80 06000000 		.4byte	.LCFI208
 10131 0f84 C4000000 		.4byte	.LFE73
 10132 0f88 0200     		.2byte	0x2
 10133 0f8a 77       		.byte	0x77
 10134 0f8b 20       		.sleb128 32
 10135 0f8c 00000000 		.4byte	0
 10136 0f90 00000000 		.4byte	0
 10137              	.LLST74:
 10138 0f94 00000000 		.4byte	.LFB74
 10139 0f98 02000000 		.4byte	.LCFI209
 10140 0f9c 0200     		.2byte	0x2
 10141 0f9e 7D       		.byte	0x7d
 10142 0f9f 00       		.sleb128 0
 10143 0fa0 02000000 		.4byte	.LCFI209
 10144 0fa4 04000000 		.4byte	.LCFI210
 10145 0fa8 0200     		.2byte	0x2
 10146 0faa 7D       		.byte	0x7d
 10147 0fab 08       		.sleb128 8
 10148 0fac 04000000 		.4byte	.LCFI210
 10149 0fb0 06000000 		.4byte	.LCFI211
 10150 0fb4 0200     		.2byte	0x2
 10151 0fb6 7D       		.byte	0x7d
 10152 0fb7 20       		.sleb128 32
 10153 0fb8 06000000 		.4byte	.LCFI211
 10154 0fbc 92000000 		.4byte	.LFE74
 10155 0fc0 0200     		.2byte	0x2
 10156 0fc2 77       		.byte	0x77
 10157 0fc3 20       		.sleb128 32
 10158 0fc4 00000000 		.4byte	0
 10159 0fc8 00000000 		.4byte	0
 10160              	.LLST75:
 10161 0fcc 00000000 		.4byte	.LFB75
 10162 0fd0 02000000 		.4byte	.LCFI212
 10163 0fd4 0200     		.2byte	0x2
 10164 0fd6 7D       		.byte	0x7d
 10165 0fd7 00       		.sleb128 0
 10166 0fd8 02000000 		.4byte	.LCFI212
 10167 0fdc 04000000 		.4byte	.LCFI213
 10168 0fe0 0200     		.2byte	0x2
 10169 0fe2 7D       		.byte	0x7d
 10170 0fe3 08       		.sleb128 8
 10171 0fe4 04000000 		.4byte	.LCFI213
 10172 0fe8 06000000 		.4byte	.LCFI214
 10173 0fec 0200     		.2byte	0x2
 10174 0fee 7D       		.byte	0x7d
 10175 0fef 18       		.sleb128 24
 10176 0ff0 06000000 		.4byte	.LCFI214
 10177 0ff4 64000000 		.4byte	.LFE75
 10178 0ff8 0200     		.2byte	0x2
 10179 0ffa 77       		.byte	0x77
ARM GAS  C:\Users\CHUCK~1.ERH\AppData\Local\Temp\ccSfgJB7.s 			page 207


 10180 0ffb 18       		.sleb128 24
 10181 0ffc 00000000 		.4byte	0
 10182 1000 00000000 		.4byte	0
 10183              	.LLST76:
 10184 1004 00000000 		.4byte	.LFB76
 10185 1008 02000000 		.4byte	.LCFI215
 10186 100c 0200     		.2byte	0x2
 10187 100e 7D       		.byte	0x7d
 10188 100f 00       		.sleb128 0
 10189 1010 02000000 		.4byte	.LCFI215
 10190 1014 04000000 		.4byte	.LCFI216
 10191 1018 0200     		.2byte	0x2
 10192 101a 7D       		.byte	0x7d
 10193 101b 0C       		.sleb128 12
 10194 101c 04000000 		.4byte	.LCFI216
 10195 1020 06000000 		.4byte	.LCFI217
 10196 1024 0200     		.2byte	0x2
 10197 1026 7D       		.byte	0x7d
 10198 1027 30       		.sleb128 48
 10199 1028 06000000 		.4byte	.LCFI217
 10200 102c 4E010000 		.4byte	.LFE76
 10201 1030 0200     		.2byte	0x2
 10202 1032 77       		.byte	0x77
 10203 1033 30       		.sleb128 48
 10204 1034 00000000 		.4byte	0
 10205 1038 00000000 		.4byte	0
 10206              	.LLST77:
 10207 103c 00000000 		.4byte	.LFB77
 10208 1040 02000000 		.4byte	.LCFI218
 10209 1044 0200     		.2byte	0x2
 10210 1046 7D       		.byte	0x7d
 10211 1047 00       		.sleb128 0
 10212 1048 02000000 		.4byte	.LCFI218
 10213 104c 04000000 		.4byte	.LCFI219
 10214 1050 0200     		.2byte	0x2
 10215 1052 7D       		.byte	0x7d
 10216 1053 08       		.sleb128 8
 10217 1054 04000000 		.4byte	.LCFI219
 10218 1058 06000000 		.4byte	.LCFI220
 10219 105c 0200     		.2byte	0x2
 10220 105e 7D       		.byte	0x7d
 10221 105f 18       		.sleb128 24
 10222 1060 06000000 		.4byte	.LCFI220
 10223 1064 34000000 		.4byte	.LFE77
 10224 1068 0200     		.2byte	0x2
 10225 106a 77       		.byte	0x77
 10226 106b 18       		.sleb128 24
 10227 106c 00000000 		.4byte	0
 10228 1070 00000000 		.4byte	0
 10229              	.LLST78:
 10230 1074 00000000 		.4byte	.LFB78
 10231 1078 02000000 		.4byte	.LCFI221
 10232 107c 0200     		.2byte	0x2
 10233 107e 7D       		.byte	0x7d
 10234 107f 00       		.sleb128 0
 10235 1080 02000000 		.4byte	.LCFI221
 10236 1084 04000000 		.4byte	.LCFI222
ARM GAS  C:\Users\CHUCK~1.ERH\AppData\Local\Temp\ccSfgJB7.s 			page 208


 10237 1088 0200     		.2byte	0x2
 10238 108a 7D       		.byte	0x7d
 10239 108b 08       		.sleb128 8
 10240 108c 04000000 		.4byte	.LCFI222
 10241 1090 0E000000 		.4byte	.LFE78
 10242 1094 0200     		.2byte	0x2
 10243 1096 77       		.byte	0x77
 10244 1097 08       		.sleb128 8
 10245 1098 00000000 		.4byte	0
 10246 109c 00000000 		.4byte	0
 10247              	.LLST79:
 10248 10a0 00000000 		.4byte	.LFB79
 10249 10a4 02000000 		.4byte	.LCFI223
 10250 10a8 0200     		.2byte	0x2
 10251 10aa 7D       		.byte	0x7d
 10252 10ab 00       		.sleb128 0
 10253 10ac 02000000 		.4byte	.LCFI223
 10254 10b0 04000000 		.4byte	.LCFI224
 10255 10b4 0200     		.2byte	0x2
 10256 10b6 7D       		.byte	0x7d
 10257 10b7 08       		.sleb128 8
 10258 10b8 04000000 		.4byte	.LCFI224
 10259 10bc 06000000 		.4byte	.LCFI225
 10260 10c0 0200     		.2byte	0x2
 10261 10c2 7D       		.byte	0x7d
 10262 10c3 10       		.sleb128 16
 10263 10c4 06000000 		.4byte	.LCFI225
 10264 10c8 16000000 		.4byte	.LFE79
 10265 10cc 0200     		.2byte	0x2
 10266 10ce 77       		.byte	0x77
 10267 10cf 10       		.sleb128 16
 10268 10d0 00000000 		.4byte	0
 10269 10d4 00000000 		.4byte	0
 10270              	.LLST80:
 10271 10d8 00000000 		.4byte	.LFB80
 10272 10dc 02000000 		.4byte	.LCFI226
 10273 10e0 0200     		.2byte	0x2
 10274 10e2 7D       		.byte	0x7d
 10275 10e3 00       		.sleb128 0
 10276 10e4 02000000 		.4byte	.LCFI226
 10277 10e8 04000000 		.4byte	.LCFI227
 10278 10ec 0200     		.2byte	0x2
 10279 10ee 7D       		.byte	0x7d
 10280 10ef 08       		.sleb128 8
 10281 10f0 04000000 		.4byte	.LCFI227
 10282 10f4 06000000 		.4byte	.LCFI228
 10283 10f8 0200     		.2byte	0x2
 10284 10fa 7D       		.byte	0x7d
 10285 10fb 10       		.sleb128 16
 10286 10fc 06000000 		.4byte	.LCFI228
 10287 1100 16000000 		.4byte	.LFE80
 10288 1104 0200     		.2byte	0x2
 10289 1106 77       		.byte	0x77
 10290 1107 10       		.sleb128 16
 10291 1108 00000000 		.4byte	0
 10292 110c 00000000 		.4byte	0
 10293              	.LLST81:
ARM GAS  C:\Users\CHUCK~1.ERH\AppData\Local\Temp\ccSfgJB7.s 			page 209


 10294 1110 00000000 		.4byte	.LFB81
 10295 1114 02000000 		.4byte	.LCFI229
 10296 1118 0200     		.2byte	0x2
 10297 111a 7D       		.byte	0x7d
 10298 111b 00       		.sleb128 0
 10299 111c 02000000 		.4byte	.LCFI229
 10300 1120 04000000 		.4byte	.LCFI230
 10301 1124 0200     		.2byte	0x2
 10302 1126 7D       		.byte	0x7d
 10303 1127 08       		.sleb128 8
 10304 1128 04000000 		.4byte	.LCFI230
 10305 112c 06000000 		.4byte	.LCFI231
 10306 1130 0200     		.2byte	0x2
 10307 1132 7D       		.byte	0x7d
 10308 1133 18       		.sleb128 24
 10309 1134 06000000 		.4byte	.LCFI231
 10310 1138 10010000 		.4byte	.LFE81
 10311 113c 0200     		.2byte	0x2
 10312 113e 77       		.byte	0x77
 10313 113f 18       		.sleb128 24
 10314 1140 00000000 		.4byte	0
 10315 1144 00000000 		.4byte	0
 10316              	.LLST82:
 10317 1148 00000000 		.4byte	.LFB82
 10318 114c 02000000 		.4byte	.LCFI232
 10319 1150 0200     		.2byte	0x2
 10320 1152 7D       		.byte	0x7d
 10321 1153 00       		.sleb128 0
 10322 1154 02000000 		.4byte	.LCFI232
 10323 1158 04000000 		.4byte	.LCFI233
 10324 115c 0200     		.2byte	0x2
 10325 115e 7D       		.byte	0x7d
 10326 115f 08       		.sleb128 8
 10327 1160 04000000 		.4byte	.LCFI233
 10328 1164 06000000 		.4byte	.LCFI234
 10329 1168 0200     		.2byte	0x2
 10330 116a 7D       		.byte	0x7d
 10331 116b 10       		.sleb128 16
 10332 116c 06000000 		.4byte	.LCFI234
 10333 1170 6C000000 		.4byte	.LFE82
 10334 1174 0200     		.2byte	0x2
 10335 1176 77       		.byte	0x77
 10336 1177 10       		.sleb128 16
 10337 1178 00000000 		.4byte	0
 10338 117c 00000000 		.4byte	0
 10339              	.LLST83:
 10340 1180 00000000 		.4byte	.LFB83
 10341 1184 02000000 		.4byte	.LCFI235
 10342 1188 0200     		.2byte	0x2
 10343 118a 7D       		.byte	0x7d
 10344 118b 00       		.sleb128 0
 10345 118c 02000000 		.4byte	.LCFI235
 10346 1190 04000000 		.4byte	.LCFI236
 10347 1194 0200     		.2byte	0x2
 10348 1196 7D       		.byte	0x7d
 10349 1197 08       		.sleb128 8
 10350 1198 04000000 		.4byte	.LCFI236
ARM GAS  C:\Users\CHUCK~1.ERH\AppData\Local\Temp\ccSfgJB7.s 			page 210


 10351 119c 06000000 		.4byte	.LCFI237
 10352 11a0 0200     		.2byte	0x2
 10353 11a2 7D       		.byte	0x7d
 10354 11a3 18       		.sleb128 24
 10355 11a4 06000000 		.4byte	.LCFI237
 10356 11a8 42000000 		.4byte	.LFE83
 10357 11ac 0200     		.2byte	0x2
 10358 11ae 77       		.byte	0x77
 10359 11af 18       		.sleb128 24
 10360 11b0 00000000 		.4byte	0
 10361 11b4 00000000 		.4byte	0
 10362              	.LLST84:
 10363 11b8 00000000 		.4byte	.LFB84
 10364 11bc 02000000 		.4byte	.LCFI238
 10365 11c0 0200     		.2byte	0x2
 10366 11c2 7D       		.byte	0x7d
 10367 11c3 00       		.sleb128 0
 10368 11c4 02000000 		.4byte	.LCFI238
 10369 11c8 04000000 		.4byte	.LCFI239
 10370 11cc 0200     		.2byte	0x2
 10371 11ce 7D       		.byte	0x7d
 10372 11cf 08       		.sleb128 8
 10373 11d0 04000000 		.4byte	.LCFI239
 10374 11d4 06000000 		.4byte	.LCFI240
 10375 11d8 0200     		.2byte	0x2
 10376 11da 7D       		.byte	0x7d
 10377 11db 10       		.sleb128 16
 10378 11dc 06000000 		.4byte	.LCFI240
 10379 11e0 28000000 		.4byte	.LFE84
 10380 11e4 0200     		.2byte	0x2
 10381 11e6 77       		.byte	0x77
 10382 11e7 10       		.sleb128 16
 10383 11e8 00000000 		.4byte	0
 10384 11ec 00000000 		.4byte	0
 10385              	.LLST85:
 10386 11f0 00000000 		.4byte	.LFB85
 10387 11f4 02000000 		.4byte	.LCFI241
 10388 11f8 0200     		.2byte	0x2
 10389 11fa 7D       		.byte	0x7d
 10390 11fb 00       		.sleb128 0
 10391 11fc 02000000 		.4byte	.LCFI241
 10392 1200 04000000 		.4byte	.LCFI242
 10393 1204 0200     		.2byte	0x2
 10394 1206 7D       		.byte	0x7d
 10395 1207 08       		.sleb128 8
 10396 1208 04000000 		.4byte	.LCFI242
 10397 120c 06000000 		.4byte	.LCFI243
 10398 1210 0200     		.2byte	0x2
 10399 1212 7D       		.byte	0x7d
 10400 1213 18       		.sleb128 24
 10401 1214 06000000 		.4byte	.LCFI243
 10402 1218 78000000 		.4byte	.LFE85
 10403 121c 0200     		.2byte	0x2
 10404 121e 77       		.byte	0x77
 10405 121f 18       		.sleb128 24
 10406 1220 00000000 		.4byte	0
 10407 1224 00000000 		.4byte	0
ARM GAS  C:\Users\CHUCK~1.ERH\AppData\Local\Temp\ccSfgJB7.s 			page 211


 10408              	.LLST86:
 10409 1228 00000000 		.4byte	.LFB86
 10410 122c 02000000 		.4byte	.LCFI244
 10411 1230 0200     		.2byte	0x2
 10412 1232 7D       		.byte	0x7d
 10413 1233 00       		.sleb128 0
 10414 1234 02000000 		.4byte	.LCFI244
 10415 1238 04000000 		.4byte	.LCFI245
 10416 123c 0200     		.2byte	0x2
 10417 123e 7D       		.byte	0x7d
 10418 123f 08       		.sleb128 8
 10419 1240 04000000 		.4byte	.LCFI245
 10420 1244 06000000 		.4byte	.LCFI246
 10421 1248 0200     		.2byte	0x2
 10422 124a 7D       		.byte	0x7d
 10423 124b 18       		.sleb128 24
 10424 124c 06000000 		.4byte	.LCFI246
 10425 1250 78000000 		.4byte	.LFE86
 10426 1254 0200     		.2byte	0x2
 10427 1256 77       		.byte	0x77
 10428 1257 18       		.sleb128 24
 10429 1258 00000000 		.4byte	0
 10430 125c 00000000 		.4byte	0
 10431              	.LLST87:
 10432 1260 00000000 		.4byte	.LFB87
 10433 1264 02000000 		.4byte	.LCFI247
 10434 1268 0200     		.2byte	0x2
 10435 126a 7D       		.byte	0x7d
 10436 126b 00       		.sleb128 0
 10437 126c 02000000 		.4byte	.LCFI247
 10438 1270 04000000 		.4byte	.LCFI248
 10439 1274 0200     		.2byte	0x2
 10440 1276 7D       		.byte	0x7d
 10441 1277 08       		.sleb128 8
 10442 1278 04000000 		.4byte	.LCFI248
 10443 127c 06000000 		.4byte	.LCFI249
 10444 1280 0200     		.2byte	0x2
 10445 1282 7D       		.byte	0x7d
 10446 1283 10       		.sleb128 16
 10447 1284 06000000 		.4byte	.LCFI249
 10448 1288 1E000000 		.4byte	.LFE87
 10449 128c 0200     		.2byte	0x2
 10450 128e 77       		.byte	0x77
 10451 128f 10       		.sleb128 16
 10452 1290 00000000 		.4byte	0
 10453 1294 00000000 		.4byte	0
 10454              	.LLST88:
 10455 1298 00000000 		.4byte	.LFB88
 10456 129c 02000000 		.4byte	.LCFI250
 10457 12a0 0200     		.2byte	0x2
 10458 12a2 7D       		.byte	0x7d
 10459 12a3 00       		.sleb128 0
 10460 12a4 02000000 		.4byte	.LCFI250
 10461 12a8 04000000 		.4byte	.LCFI251
 10462 12ac 0200     		.2byte	0x2
 10463 12ae 7D       		.byte	0x7d
 10464 12af 08       		.sleb128 8
ARM GAS  C:\Users\CHUCK~1.ERH\AppData\Local\Temp\ccSfgJB7.s 			page 212


 10465 12b0 04000000 		.4byte	.LCFI251
 10466 12b4 06000000 		.4byte	.LCFI252
 10467 12b8 0200     		.2byte	0x2
 10468 12ba 7D       		.byte	0x7d
 10469 12bb 10       		.sleb128 16
 10470 12bc 06000000 		.4byte	.LCFI252
 10471 12c0 26000000 		.4byte	.LFE88
 10472 12c4 0200     		.2byte	0x2
 10473 12c6 77       		.byte	0x77
 10474 12c7 10       		.sleb128 16
 10475 12c8 00000000 		.4byte	0
 10476 12cc 00000000 		.4byte	0
 10477              	.LLST89:
 10478 12d0 00000000 		.4byte	.LFB89
 10479 12d4 02000000 		.4byte	.LCFI253
 10480 12d8 0200     		.2byte	0x2
 10481 12da 7D       		.byte	0x7d
 10482 12db 00       		.sleb128 0
 10483 12dc 02000000 		.4byte	.LCFI253
 10484 12e0 04000000 		.4byte	.LCFI254
 10485 12e4 0200     		.2byte	0x2
 10486 12e6 7D       		.byte	0x7d
 10487 12e7 08       		.sleb128 8
 10488 12e8 04000000 		.4byte	.LCFI254
 10489 12ec 06000000 		.4byte	.LCFI255
 10490 12f0 0200     		.2byte	0x2
 10491 12f2 7D       		.byte	0x7d
 10492 12f3 10       		.sleb128 16
 10493 12f4 06000000 		.4byte	.LCFI255
 10494 12f8 24000000 		.4byte	.LFE89
 10495 12fc 0200     		.2byte	0x2
 10496 12fe 77       		.byte	0x77
 10497 12ff 10       		.sleb128 16
 10498 1300 00000000 		.4byte	0
 10499 1304 00000000 		.4byte	0
 10500              	.LLST90:
 10501 1308 00000000 		.4byte	.LFB90
 10502 130c 02000000 		.4byte	.LCFI256
 10503 1310 0200     		.2byte	0x2
 10504 1312 7D       		.byte	0x7d
 10505 1313 00       		.sleb128 0
 10506 1314 02000000 		.4byte	.LCFI256
 10507 1318 04000000 		.4byte	.LCFI257
 10508 131c 0200     		.2byte	0x2
 10509 131e 7D       		.byte	0x7d
 10510 131f 08       		.sleb128 8
 10511 1320 04000000 		.4byte	.LCFI257
 10512 1324 06000000 		.4byte	.LCFI258
 10513 1328 0200     		.2byte	0x2
 10514 132a 7D       		.byte	0x7d
 10515 132b 10       		.sleb128 16
 10516 132c 06000000 		.4byte	.LCFI258
 10517 1330 32000000 		.4byte	.LFE90
 10518 1334 0200     		.2byte	0x2
 10519 1336 77       		.byte	0x77
 10520 1337 10       		.sleb128 16
 10521 1338 00000000 		.4byte	0
ARM GAS  C:\Users\CHUCK~1.ERH\AppData\Local\Temp\ccSfgJB7.s 			page 213


 10522 133c 00000000 		.4byte	0
 10523              	.LLST91:
 10524 1340 00000000 		.4byte	.LFB91
 10525 1344 02000000 		.4byte	.LCFI259
 10526 1348 0200     		.2byte	0x2
 10527 134a 7D       		.byte	0x7d
 10528 134b 00       		.sleb128 0
 10529 134c 02000000 		.4byte	.LCFI259
 10530 1350 04000000 		.4byte	.LCFI260
 10531 1354 0200     		.2byte	0x2
 10532 1356 7D       		.byte	0x7d
 10533 1357 08       		.sleb128 8
 10534 1358 04000000 		.4byte	.LCFI260
 10535 135c 06000000 		.4byte	.LCFI261
 10536 1360 0200     		.2byte	0x2
 10537 1362 7D       		.byte	0x7d
 10538 1363 18       		.sleb128 24
 10539 1364 06000000 		.4byte	.LCFI261
 10540 1368 A6000000 		.4byte	.LFE91
 10541 136c 0200     		.2byte	0x2
 10542 136e 77       		.byte	0x77
 10543 136f 18       		.sleb128 24
 10544 1370 00000000 		.4byte	0
 10545 1374 00000000 		.4byte	0
 10546              	.LLST92:
 10547 1378 00000000 		.4byte	.LFB92
 10548 137c 02000000 		.4byte	.LCFI262
 10549 1380 0200     		.2byte	0x2
 10550 1382 7D       		.byte	0x7d
 10551 1383 00       		.sleb128 0
 10552 1384 02000000 		.4byte	.LCFI262
 10553 1388 04000000 		.4byte	.LCFI263
 10554 138c 0200     		.2byte	0x2
 10555 138e 7D       		.byte	0x7d
 10556 138f 08       		.sleb128 8
 10557 1390 04000000 		.4byte	.LCFI263
 10558 1394 06000000 		.4byte	.LCFI264
 10559 1398 0200     		.2byte	0x2
 10560 139a 7D       		.byte	0x7d
 10561 139b 10       		.sleb128 16
 10562 139c 06000000 		.4byte	.LCFI264
 10563 13a0 1E000000 		.4byte	.LFE92
 10564 13a4 0200     		.2byte	0x2
 10565 13a6 77       		.byte	0x77
 10566 13a7 10       		.sleb128 16
 10567 13a8 00000000 		.4byte	0
 10568 13ac 00000000 		.4byte	0
 10569              	.LLST93:
 10570 13b0 00000000 		.4byte	.LFB93
 10571 13b4 02000000 		.4byte	.LCFI265
 10572 13b8 0200     		.2byte	0x2
 10573 13ba 7D       		.byte	0x7d
 10574 13bb 00       		.sleb128 0
 10575 13bc 02000000 		.4byte	.LCFI265
 10576 13c0 04000000 		.4byte	.LCFI266
 10577 13c4 0200     		.2byte	0x2
 10578 13c6 7D       		.byte	0x7d
ARM GAS  C:\Users\CHUCK~1.ERH\AppData\Local\Temp\ccSfgJB7.s 			page 214


 10579 13c7 08       		.sleb128 8
 10580 13c8 04000000 		.4byte	.LCFI266
 10581 13cc 06000000 		.4byte	.LCFI267
 10582 13d0 0200     		.2byte	0x2
 10583 13d2 7D       		.byte	0x7d
 10584 13d3 10       		.sleb128 16
 10585 13d4 06000000 		.4byte	.LCFI267
 10586 13d8 1E000000 		.4byte	.LFE93
 10587 13dc 0200     		.2byte	0x2
 10588 13de 77       		.byte	0x77
 10589 13df 10       		.sleb128 16
 10590 13e0 00000000 		.4byte	0
 10591 13e4 00000000 		.4byte	0
 10592              	.LLST94:
 10593 13e8 00000000 		.4byte	.LFB94
 10594 13ec 02000000 		.4byte	.LCFI268
 10595 13f0 0200     		.2byte	0x2
 10596 13f2 7D       		.byte	0x7d
 10597 13f3 00       		.sleb128 0
 10598 13f4 02000000 		.4byte	.LCFI268
 10599 13f8 04000000 		.4byte	.LCFI269
 10600 13fc 0200     		.2byte	0x2
 10601 13fe 7D       		.byte	0x7d
 10602 13ff 08       		.sleb128 8
 10603 1400 04000000 		.4byte	.LCFI269
 10604 1404 06000000 		.4byte	.LCFI270
 10605 1408 0200     		.2byte	0x2
 10606 140a 7D       		.byte	0x7d
 10607 140b 18       		.sleb128 24
 10608 140c 06000000 		.4byte	.LCFI270
 10609 1410 B4000000 		.4byte	.LFE94
 10610 1414 0200     		.2byte	0x2
 10611 1416 77       		.byte	0x77
 10612 1417 18       		.sleb128 24
 10613 1418 00000000 		.4byte	0
 10614 141c 00000000 		.4byte	0
 10615              	.LLST95:
 10616 1420 00000000 		.4byte	.LFB95
 10617 1424 02000000 		.4byte	.LCFI271
 10618 1428 0200     		.2byte	0x2
 10619 142a 7D       		.byte	0x7d
 10620 142b 00       		.sleb128 0
 10621 142c 02000000 		.4byte	.LCFI271
 10622 1430 04000000 		.4byte	.LCFI272
 10623 1434 0200     		.2byte	0x2
 10624 1436 7D       		.byte	0x7d
 10625 1437 08       		.sleb128 8
 10626 1438 04000000 		.4byte	.LCFI272
 10627 143c 06000000 		.4byte	.LCFI273
 10628 1440 0200     		.2byte	0x2
 10629 1442 7D       		.byte	0x7d
 10630 1443 20       		.sleb128 32
 10631 1444 06000000 		.4byte	.LCFI273
 10632 1448 70000000 		.4byte	.LFE95
 10633 144c 0200     		.2byte	0x2
 10634 144e 77       		.byte	0x77
 10635 144f 18       		.sleb128 24
ARM GAS  C:\Users\CHUCK~1.ERH\AppData\Local\Temp\ccSfgJB7.s 			page 215


 10636 1450 00000000 		.4byte	0
 10637 1454 00000000 		.4byte	0
 10638              	.LLST96:
 10639 1458 00000000 		.4byte	.LFB96
 10640 145c 02000000 		.4byte	.LCFI274
 10641 1460 0200     		.2byte	0x2
 10642 1462 7D       		.byte	0x7d
 10643 1463 00       		.sleb128 0
 10644 1464 02000000 		.4byte	.LCFI274
 10645 1468 04000000 		.4byte	.LCFI275
 10646 146c 0200     		.2byte	0x2
 10647 146e 7D       		.byte	0x7d
 10648 146f 08       		.sleb128 8
 10649 1470 04000000 		.4byte	.LCFI275
 10650 1474 06000000 		.4byte	.LCFI276
 10651 1478 0200     		.2byte	0x2
 10652 147a 7D       		.byte	0x7d
 10653 147b 10       		.sleb128 16
 10654 147c 06000000 		.4byte	.LCFI276
 10655 1480 2A000000 		.4byte	.LFE96
 10656 1484 0200     		.2byte	0x2
 10657 1486 77       		.byte	0x77
 10658 1487 10       		.sleb128 16
 10659 1488 00000000 		.4byte	0
 10660 148c 00000000 		.4byte	0
 10661              	.LLST97:
 10662 1490 00000000 		.4byte	.LFB97
 10663 1494 02000000 		.4byte	.LCFI277
 10664 1498 0200     		.2byte	0x2
 10665 149a 7D       		.byte	0x7d
 10666 149b 00       		.sleb128 0
 10667 149c 02000000 		.4byte	.LCFI277
 10668 14a0 04000000 		.4byte	.LCFI278
 10669 14a4 0200     		.2byte	0x2
 10670 14a6 7D       		.byte	0x7d
 10671 14a7 08       		.sleb128 8
 10672 14a8 04000000 		.4byte	.LCFI278
 10673 14ac 06000000 		.4byte	.LCFI279
 10674 14b0 0200     		.2byte	0x2
 10675 14b2 7D       		.byte	0x7d
 10676 14b3 10       		.sleb128 16
 10677 14b4 06000000 		.4byte	.LCFI279
 10678 14b8 26000000 		.4byte	.LFE97
 10679 14bc 0200     		.2byte	0x2
 10680 14be 77       		.byte	0x77
 10681 14bf 10       		.sleb128 16
 10682 14c0 00000000 		.4byte	0
 10683 14c4 00000000 		.4byte	0
 10684              	.LLST98:
 10685 14c8 00000000 		.4byte	.LFB98
 10686 14cc 02000000 		.4byte	.LCFI280
 10687 14d0 0200     		.2byte	0x2
 10688 14d2 7D       		.byte	0x7d
 10689 14d3 00       		.sleb128 0
 10690 14d4 02000000 		.4byte	.LCFI280
 10691 14d8 04000000 		.4byte	.LCFI281
 10692 14dc 0200     		.2byte	0x2
ARM GAS  C:\Users\CHUCK~1.ERH\AppData\Local\Temp\ccSfgJB7.s 			page 216


 10693 14de 7D       		.byte	0x7d
 10694 14df 08       		.sleb128 8
 10695 14e0 04000000 		.4byte	.LCFI281
 10696 14e4 06000000 		.4byte	.LCFI282
 10697 14e8 0200     		.2byte	0x2
 10698 14ea 7D       		.byte	0x7d
 10699 14eb 20       		.sleb128 32
 10700 14ec 06000000 		.4byte	.LCFI282
 10701 14f0 7E000000 		.4byte	.LFE98
 10702 14f4 0200     		.2byte	0x2
 10703 14f6 77       		.byte	0x77
 10704 14f7 20       		.sleb128 32
 10705 14f8 00000000 		.4byte	0
 10706 14fc 00000000 		.4byte	0
 10707              	.LLST99:
 10708 1500 00000000 		.4byte	.LFB99
 10709 1504 02000000 		.4byte	.LCFI283
 10710 1508 0200     		.2byte	0x2
 10711 150a 7D       		.byte	0x7d
 10712 150b 00       		.sleb128 0
 10713 150c 02000000 		.4byte	.LCFI283
 10714 1510 04000000 		.4byte	.LCFI284
 10715 1514 0200     		.2byte	0x2
 10716 1516 7D       		.byte	0x7d
 10717 1517 08       		.sleb128 8
 10718 1518 04000000 		.4byte	.LCFI284
 10719 151c 06000000 		.4byte	.LCFI285
 10720 1520 0200     		.2byte	0x2
 10721 1522 7D       		.byte	0x7d
 10722 1523 30       		.sleb128 48
 10723 1524 06000000 		.4byte	.LCFI285
 10724 1528 08010000 		.4byte	.LFE99
 10725 152c 0200     		.2byte	0x2
 10726 152e 77       		.byte	0x77
 10727 152f 28       		.sleb128 40
 10728 1530 00000000 		.4byte	0
 10729 1534 00000000 		.4byte	0
 10730              		.section	.debug_aranges,"",%progbits
 10731 0000 34030000 		.4byte	0x334
 10732 0004 0200     		.2byte	0x2
 10733 0006 00000000 		.4byte	.Ldebug_info0
 10734 000a 04       		.byte	0x4
 10735 000b 00       		.byte	0
 10736 000c 0000     		.2byte	0
 10737 000e 0000     		.2byte	0
 10738 0010 00000000 		.4byte	.LFB0
 10739 0014 0A000000 		.4byte	.LFE0-.LFB0
 10740 0018 00000000 		.4byte	.LFB1
 10741 001c 50000000 		.4byte	.LFE1-.LFB1
 10742 0020 00000000 		.4byte	.LFB2
 10743 0024 72000000 		.4byte	.LFE2-.LFB2
 10744 0028 00000000 		.4byte	.LFB3
 10745 002c 44000000 		.4byte	.LFE3-.LFB3
 10746 0030 00000000 		.4byte	.LFB4
 10747 0034 44000000 		.4byte	.LFE4-.LFB4
 10748 0038 00000000 		.4byte	.LFB5
 10749 003c 48000000 		.4byte	.LFE5-.LFB5
ARM GAS  C:\Users\CHUCK~1.ERH\AppData\Local\Temp\ccSfgJB7.s 			page 217


 10750 0040 00000000 		.4byte	.LFB6
 10751 0044 5A000000 		.4byte	.LFE6-.LFB6
 10752 0048 00000000 		.4byte	.LFB7
 10753 004c 3E000000 		.4byte	.LFE7-.LFB7
 10754 0050 00000000 		.4byte	.LFB8
 10755 0054 42000000 		.4byte	.LFE8-.LFB8
 10756 0058 00000000 		.4byte	.LFB9
 10757 005c 4A000000 		.4byte	.LFE9-.LFB9
 10758 0060 00000000 		.4byte	.LFB10
 10759 0064 4A000000 		.4byte	.LFE10-.LFB10
 10760 0068 00000000 		.4byte	.LFB11
 10761 006c 1A000000 		.4byte	.LFE11-.LFB11
 10762 0070 00000000 		.4byte	.LFB12
 10763 0074 1A000000 		.4byte	.LFE12-.LFB12
 10764 0078 00000000 		.4byte	.LFB13
 10765 007c 1A000000 		.4byte	.LFE13-.LFB13
 10766 0080 00000000 		.4byte	.LFB14
 10767 0084 12000000 		.4byte	.LFE14-.LFB14
 10768 0088 00000000 		.4byte	.LFB15
 10769 008c 1A000000 		.4byte	.LFE15-.LFB15
 10770 0090 00000000 		.4byte	.LFB16
 10771 0094 12000000 		.4byte	.LFE16-.LFB16
 10772 0098 00000000 		.4byte	.LFB17
 10773 009c 1A000000 		.4byte	.LFE17-.LFB17
 10774 00a0 00000000 		.4byte	.LFB18
 10775 00a4 12000000 		.4byte	.LFE18-.LFB18
 10776 00a8 00000000 		.4byte	.LFB19
 10777 00ac 1E000000 		.4byte	.LFE19-.LFB19
 10778 00b0 00000000 		.4byte	.LFB20
 10779 00b4 12000000 		.4byte	.LFE20-.LFB20
 10780 00b8 00000000 		.4byte	.LFB21
 10781 00bc 1E000000 		.4byte	.LFE21-.LFB21
 10782 00c0 00000000 		.4byte	.LFB22
 10783 00c4 12000000 		.4byte	.LFE22-.LFB22
 10784 00c8 00000000 		.4byte	.LFB23
 10785 00cc 1E000000 		.4byte	.LFE23-.LFB23
 10786 00d0 00000000 		.4byte	.LFB24
 10787 00d4 12000000 		.4byte	.LFE24-.LFB24
 10788 00d8 00000000 		.4byte	.LFB25
 10789 00dc 1E000000 		.4byte	.LFE25-.LFB25
 10790 00e0 00000000 		.4byte	.LFB26
 10791 00e4 12000000 		.4byte	.LFE26-.LFB26
 10792 00e8 00000000 		.4byte	.LFB27
 10793 00ec 1E000000 		.4byte	.LFE27-.LFB27
 10794 00f0 00000000 		.4byte	.LFB28
 10795 00f4 12000000 		.4byte	.LFE28-.LFB28
 10796 00f8 00000000 		.4byte	.LFB29
 10797 00fc 1E000000 		.4byte	.LFE29-.LFB29
 10798 0100 00000000 		.4byte	.LFB30
 10799 0104 12000000 		.4byte	.LFE30-.LFB30
 10800 0108 00000000 		.4byte	.LFB31
 10801 010c 1E000000 		.4byte	.LFE31-.LFB31
 10802 0110 00000000 		.4byte	.LFB32
 10803 0114 12000000 		.4byte	.LFE32-.LFB32
 10804 0118 00000000 		.4byte	.LFB33
 10805 011c 1A000000 		.4byte	.LFE33-.LFB33
 10806 0120 00000000 		.4byte	.LFB34
ARM GAS  C:\Users\CHUCK~1.ERH\AppData\Local\Temp\ccSfgJB7.s 			page 218


 10807 0124 12000000 		.4byte	.LFE34-.LFB34
 10808 0128 00000000 		.4byte	.LFB35
 10809 012c 1E000000 		.4byte	.LFE35-.LFB35
 10810 0130 00000000 		.4byte	.LFB36
 10811 0134 12000000 		.4byte	.LFE36-.LFB36
 10812 0138 00000000 		.4byte	.LFB37
 10813 013c 30000000 		.4byte	.LFE37-.LFB37
 10814 0140 00000000 		.4byte	.LFB38
 10815 0144 2C000000 		.4byte	.LFE38-.LFB38
 10816 0148 00000000 		.4byte	.LFB39
 10817 014c 30000000 		.4byte	.LFE39-.LFB39
 10818 0150 00000000 		.4byte	.LFB40
 10819 0154 2C000000 		.4byte	.LFE40-.LFB40
 10820 0158 00000000 		.4byte	.LFB41
 10821 015c 30000000 		.4byte	.LFE41-.LFB41
 10822 0160 00000000 		.4byte	.LFB42
 10823 0164 2C000000 		.4byte	.LFE42-.LFB42
 10824 0168 00000000 		.4byte	.LFB43
 10825 016c 30000000 		.4byte	.LFE43-.LFB43
 10826 0170 00000000 		.4byte	.LFB44
 10827 0174 2C000000 		.4byte	.LFE44-.LFB44
 10828 0178 00000000 		.4byte	.LFB45
 10829 017c 30000000 		.4byte	.LFE45-.LFB45
 10830 0180 00000000 		.4byte	.LFB46
 10831 0184 2C000000 		.4byte	.LFE46-.LFB46
 10832 0188 00000000 		.4byte	.LFB47
 10833 018c 2C000000 		.4byte	.LFE47-.LFB47
 10834 0190 00000000 		.4byte	.LFB48
 10835 0194 2C000000 		.4byte	.LFE48-.LFB48
 10836 0198 00000000 		.4byte	.LFB49
 10837 019c 2C000000 		.4byte	.LFE49-.LFB49
 10838 01a0 00000000 		.4byte	.LFB50
 10839 01a4 2C000000 		.4byte	.LFE50-.LFB50
 10840 01a8 00000000 		.4byte	.LFB51
 10841 01ac 30000000 		.4byte	.LFE51-.LFB51
 10842 01b0 00000000 		.4byte	.LFB52
 10843 01b4 2C000000 		.4byte	.LFE52-.LFB52
 10844 01b8 00000000 		.4byte	.LFB53
 10845 01bc 30000000 		.4byte	.LFE53-.LFB53
 10846 01c0 00000000 		.4byte	.LFB54
 10847 01c4 2C000000 		.4byte	.LFE54-.LFB54
 10848 01c8 00000000 		.4byte	.LFB55
 10849 01cc 2C000000 		.4byte	.LFE55-.LFB55
 10850 01d0 00000000 		.4byte	.LFB56
 10851 01d4 30000000 		.4byte	.LFE56-.LFB56
 10852 01d8 00000000 		.4byte	.LFB57
 10853 01dc 2C000000 		.4byte	.LFE57-.LFB57
 10854 01e0 00000000 		.4byte	.LFB58
 10855 01e4 30000000 		.4byte	.LFE58-.LFB58
 10856 01e8 00000000 		.4byte	.LFB59
 10857 01ec 2C000000 		.4byte	.LFE59-.LFB59
 10858 01f0 00000000 		.4byte	.LFB60
 10859 01f4 30000000 		.4byte	.LFE60-.LFB60
 10860 01f8 00000000 		.4byte	.LFB61
 10861 01fc 2C000000 		.4byte	.LFE61-.LFB61
 10862 0200 00000000 		.4byte	.LFB62
 10863 0204 30000000 		.4byte	.LFE62-.LFB62
ARM GAS  C:\Users\CHUCK~1.ERH\AppData\Local\Temp\ccSfgJB7.s 			page 219


 10864 0208 00000000 		.4byte	.LFB63
 10865 020c 2C000000 		.4byte	.LFE63-.LFB63
 10866 0210 00000000 		.4byte	.LFB64
 10867 0214 30000000 		.4byte	.LFE64-.LFB64
 10868 0218 00000000 		.4byte	.LFB65
 10869 021c 2C000000 		.4byte	.LFE65-.LFB65
 10870 0220 00000000 		.4byte	.LFB66
 10871 0224 2C000000 		.4byte	.LFE66-.LFB66
 10872 0228 00000000 		.4byte	.LFB67
 10873 022c 30000000 		.4byte	.LFE67-.LFB67
 10874 0230 00000000 		.4byte	.LFB68
 10875 0234 2C000000 		.4byte	.LFE68-.LFB68
 10876 0238 00000000 		.4byte	.LFB69
 10877 023c 52000000 		.4byte	.LFE69-.LFB69
 10878 0240 00000000 		.4byte	.LFB70
 10879 0244 48000000 		.4byte	.LFE70-.LFB70
 10880 0248 00000000 		.4byte	.LFB71
 10881 024c 48000000 		.4byte	.LFE71-.LFB71
 10882 0250 00000000 		.4byte	.LFB72
 10883 0254 B8000000 		.4byte	.LFE72-.LFB72
 10884 0258 00000000 		.4byte	.LFB73
 10885 025c C4000000 		.4byte	.LFE73-.LFB73
 10886 0260 00000000 		.4byte	.LFB74
 10887 0264 92000000 		.4byte	.LFE74-.LFB74
 10888 0268 00000000 		.4byte	.LFB75
 10889 026c 64000000 		.4byte	.LFE75-.LFB75
 10890 0270 00000000 		.4byte	.LFB76
 10891 0274 4E010000 		.4byte	.LFE76-.LFB76
 10892 0278 00000000 		.4byte	.LFB77
 10893 027c 34000000 		.4byte	.LFE77-.LFB77
 10894 0280 00000000 		.4byte	.LFB78
 10895 0284 0E000000 		.4byte	.LFE78-.LFB78
 10896 0288 00000000 		.4byte	.LFB79
 10897 028c 16000000 		.4byte	.LFE79-.LFB79
 10898 0290 00000000 		.4byte	.LFB80
 10899 0294 16000000 		.4byte	.LFE80-.LFB80
 10900 0298 00000000 		.4byte	.LFB81
 10901 029c 10010000 		.4byte	.LFE81-.LFB81
 10902 02a0 00000000 		.4byte	.LFB82
 10903 02a4 6C000000 		.4byte	.LFE82-.LFB82
 10904 02a8 00000000 		.4byte	.LFB83
 10905 02ac 42000000 		.4byte	.LFE83-.LFB83
 10906 02b0 00000000 		.4byte	.LFB84
 10907 02b4 28000000 		.4byte	.LFE84-.LFB84
 10908 02b8 00000000 		.4byte	.LFB85
 10909 02bc 78000000 		.4byte	.LFE85-.LFB85
 10910 02c0 00000000 		.4byte	.LFB86
 10911 02c4 78000000 		.4byte	.LFE86-.LFB86
 10912 02c8 00000000 		.4byte	.LFB87
 10913 02cc 1E000000 		.4byte	.LFE87-.LFB87
 10914 02d0 00000000 		.4byte	.LFB88
 10915 02d4 26000000 		.4byte	.LFE88-.LFB88
 10916 02d8 00000000 		.4byte	.LFB89
 10917 02dc 24000000 		.4byte	.LFE89-.LFB89
 10918 02e0 00000000 		.4byte	.LFB90
 10919 02e4 32000000 		.4byte	.LFE90-.LFB90
 10920 02e8 00000000 		.4byte	.LFB91
ARM GAS  C:\Users\CHUCK~1.ERH\AppData\Local\Temp\ccSfgJB7.s 			page 220


 10921 02ec A6000000 		.4byte	.LFE91-.LFB91
 10922 02f0 00000000 		.4byte	.LFB92
 10923 02f4 1E000000 		.4byte	.LFE92-.LFB92
 10924 02f8 00000000 		.4byte	.LFB93
 10925 02fc 1E000000 		.4byte	.LFE93-.LFB93
 10926 0300 00000000 		.4byte	.LFB94
 10927 0304 B4000000 		.4byte	.LFE94-.LFB94
 10928 0308 00000000 		.4byte	.LFB95
 10929 030c 70000000 		.4byte	.LFE95-.LFB95
 10930 0310 00000000 		.4byte	.LFB96
 10931 0314 2A000000 		.4byte	.LFE96-.LFB96
 10932 0318 00000000 		.4byte	.LFB97
 10933 031c 26000000 		.4byte	.LFE97-.LFB97
 10934 0320 00000000 		.4byte	.LFB98
 10935 0324 7E000000 		.4byte	.LFE98-.LFB98
 10936 0328 00000000 		.4byte	.LFB99
 10937 032c 08010000 		.4byte	.LFE99-.LFB99
 10938 0330 00000000 		.4byte	0
 10939 0334 00000000 		.4byte	0
 10940              		.section	.debug_ranges,"",%progbits
 10941              	.Ldebug_ranges0:
 10942 0000 00000000 		.4byte	.LFB0
 10943 0004 0A000000 		.4byte	.LFE0
 10944 0008 00000000 		.4byte	.LFB1
 10945 000c 50000000 		.4byte	.LFE1
 10946 0010 00000000 		.4byte	.LFB2
 10947 0014 72000000 		.4byte	.LFE2
 10948 0018 00000000 		.4byte	.LFB3
 10949 001c 44000000 		.4byte	.LFE3
 10950 0020 00000000 		.4byte	.LFB4
 10951 0024 44000000 		.4byte	.LFE4
 10952 0028 00000000 		.4byte	.LFB5
 10953 002c 48000000 		.4byte	.LFE5
 10954 0030 00000000 		.4byte	.LFB6
 10955 0034 5A000000 		.4byte	.LFE6
 10956 0038 00000000 		.4byte	.LFB7
 10957 003c 3E000000 		.4byte	.LFE7
 10958 0040 00000000 		.4byte	.LFB8
 10959 0044 42000000 		.4byte	.LFE8
 10960 0048 00000000 		.4byte	.LFB9
 10961 004c 4A000000 		.4byte	.LFE9
 10962 0050 00000000 		.4byte	.LFB10
 10963 0054 4A000000 		.4byte	.LFE10
 10964 0058 00000000 		.4byte	.LFB11
 10965 005c 1A000000 		.4byte	.LFE11
 10966 0060 00000000 		.4byte	.LFB12
 10967 0064 1A000000 		.4byte	.LFE12
 10968 0068 00000000 		.4byte	.LFB13
 10969 006c 1A000000 		.4byte	.LFE13
 10970 0070 00000000 		.4byte	.LFB14
 10971 0074 12000000 		.4byte	.LFE14
 10972 0078 00000000 		.4byte	.LFB15
 10973 007c 1A000000 		.4byte	.LFE15
 10974 0080 00000000 		.4byte	.LFB16
 10975 0084 12000000 		.4byte	.LFE16
 10976 0088 00000000 		.4byte	.LFB17
 10977 008c 1A000000 		.4byte	.LFE17
ARM GAS  C:\Users\CHUCK~1.ERH\AppData\Local\Temp\ccSfgJB7.s 			page 221


 10978 0090 00000000 		.4byte	.LFB18
 10979 0094 12000000 		.4byte	.LFE18
 10980 0098 00000000 		.4byte	.LFB19
 10981 009c 1E000000 		.4byte	.LFE19
 10982 00a0 00000000 		.4byte	.LFB20
 10983 00a4 12000000 		.4byte	.LFE20
 10984 00a8 00000000 		.4byte	.LFB21
 10985 00ac 1E000000 		.4byte	.LFE21
 10986 00b0 00000000 		.4byte	.LFB22
 10987 00b4 12000000 		.4byte	.LFE22
 10988 00b8 00000000 		.4byte	.LFB23
 10989 00bc 1E000000 		.4byte	.LFE23
 10990 00c0 00000000 		.4byte	.LFB24
 10991 00c4 12000000 		.4byte	.LFE24
 10992 00c8 00000000 		.4byte	.LFB25
 10993 00cc 1E000000 		.4byte	.LFE25
 10994 00d0 00000000 		.4byte	.LFB26
 10995 00d4 12000000 		.4byte	.LFE26
 10996 00d8 00000000 		.4byte	.LFB27
 10997 00dc 1E000000 		.4byte	.LFE27
 10998 00e0 00000000 		.4byte	.LFB28
 10999 00e4 12000000 		.4byte	.LFE28
 11000 00e8 00000000 		.4byte	.LFB29
 11001 00ec 1E000000 		.4byte	.LFE29
 11002 00f0 00000000 		.4byte	.LFB30
 11003 00f4 12000000 		.4byte	.LFE30
 11004 00f8 00000000 		.4byte	.LFB31
 11005 00fc 1E000000 		.4byte	.LFE31
 11006 0100 00000000 		.4byte	.LFB32
 11007 0104 12000000 		.4byte	.LFE32
 11008 0108 00000000 		.4byte	.LFB33
 11009 010c 1A000000 		.4byte	.LFE33
 11010 0110 00000000 		.4byte	.LFB34
 11011 0114 12000000 		.4byte	.LFE34
 11012 0118 00000000 		.4byte	.LFB35
 11013 011c 1E000000 		.4byte	.LFE35
 11014 0120 00000000 		.4byte	.LFB36
 11015 0124 12000000 		.4byte	.LFE36
 11016 0128 00000000 		.4byte	.LFB37
 11017 012c 30000000 		.4byte	.LFE37
 11018 0130 00000000 		.4byte	.LFB38
 11019 0134 2C000000 		.4byte	.LFE38
 11020 0138 00000000 		.4byte	.LFB39
 11021 013c 30000000 		.4byte	.LFE39
 11022 0140 00000000 		.4byte	.LFB40
 11023 0144 2C000000 		.4byte	.LFE40
 11024 0148 00000000 		.4byte	.LFB41
 11025 014c 30000000 		.4byte	.LFE41
 11026 0150 00000000 		.4byte	.LFB42
 11027 0154 2C000000 		.4byte	.LFE42
 11028 0158 00000000 		.4byte	.LFB43
 11029 015c 30000000 		.4byte	.LFE43
 11030 0160 00000000 		.4byte	.LFB44
 11031 0164 2C000000 		.4byte	.LFE44
 11032 0168 00000000 		.4byte	.LFB45
 11033 016c 30000000 		.4byte	.LFE45
 11034 0170 00000000 		.4byte	.LFB46
ARM GAS  C:\Users\CHUCK~1.ERH\AppData\Local\Temp\ccSfgJB7.s 			page 222


 11035 0174 2C000000 		.4byte	.LFE46
 11036 0178 00000000 		.4byte	.LFB47
 11037 017c 2C000000 		.4byte	.LFE47
 11038 0180 00000000 		.4byte	.LFB48
 11039 0184 2C000000 		.4byte	.LFE48
 11040 0188 00000000 		.4byte	.LFB49
 11041 018c 2C000000 		.4byte	.LFE49
 11042 0190 00000000 		.4byte	.LFB50
 11043 0194 2C000000 		.4byte	.LFE50
 11044 0198 00000000 		.4byte	.LFB51
 11045 019c 30000000 		.4byte	.LFE51
 11046 01a0 00000000 		.4byte	.LFB52
 11047 01a4 2C000000 		.4byte	.LFE52
 11048 01a8 00000000 		.4byte	.LFB53
 11049 01ac 30000000 		.4byte	.LFE53
 11050 01b0 00000000 		.4byte	.LFB54
 11051 01b4 2C000000 		.4byte	.LFE54
 11052 01b8 00000000 		.4byte	.LFB55
 11053 01bc 2C000000 		.4byte	.LFE55
 11054 01c0 00000000 		.4byte	.LFB56
 11055 01c4 30000000 		.4byte	.LFE56
 11056 01c8 00000000 		.4byte	.LFB57
 11057 01cc 2C000000 		.4byte	.LFE57
 11058 01d0 00000000 		.4byte	.LFB58
 11059 01d4 30000000 		.4byte	.LFE58
 11060 01d8 00000000 		.4byte	.LFB59
 11061 01dc 2C000000 		.4byte	.LFE59
 11062 01e0 00000000 		.4byte	.LFB60
 11063 01e4 30000000 		.4byte	.LFE60
 11064 01e8 00000000 		.4byte	.LFB61
 11065 01ec 2C000000 		.4byte	.LFE61
 11066 01f0 00000000 		.4byte	.LFB62
 11067 01f4 30000000 		.4byte	.LFE62
 11068 01f8 00000000 		.4byte	.LFB63
 11069 01fc 2C000000 		.4byte	.LFE63
 11070 0200 00000000 		.4byte	.LFB64
 11071 0204 30000000 		.4byte	.LFE64
 11072 0208 00000000 		.4byte	.LFB65
 11073 020c 2C000000 		.4byte	.LFE65
 11074 0210 00000000 		.4byte	.LFB66
 11075 0214 2C000000 		.4byte	.LFE66
 11076 0218 00000000 		.4byte	.LFB67
 11077 021c 30000000 		.4byte	.LFE67
 11078 0220 00000000 		.4byte	.LFB68
 11079 0224 2C000000 		.4byte	.LFE68
 11080 0228 00000000 		.4byte	.LFB69
 11081 022c 52000000 		.4byte	.LFE69
 11082 0230 00000000 		.4byte	.LFB70
 11083 0234 48000000 		.4byte	.LFE70
 11084 0238 00000000 		.4byte	.LFB71
 11085 023c 48000000 		.4byte	.LFE71
 11086 0240 00000000 		.4byte	.LFB72
 11087 0244 B8000000 		.4byte	.LFE72
 11088 0248 00000000 		.4byte	.LFB73
 11089 024c C4000000 		.4byte	.LFE73
 11090 0250 00000000 		.4byte	.LFB74
 11091 0254 92000000 		.4byte	.LFE74
ARM GAS  C:\Users\CHUCK~1.ERH\AppData\Local\Temp\ccSfgJB7.s 			page 223


 11092 0258 00000000 		.4byte	.LFB75
 11093 025c 64000000 		.4byte	.LFE75
 11094 0260 00000000 		.4byte	.LFB76
 11095 0264 4E010000 		.4byte	.LFE76
 11096 0268 00000000 		.4byte	.LFB77
 11097 026c 34000000 		.4byte	.LFE77
 11098 0270 00000000 		.4byte	.LFB78
 11099 0274 0E000000 		.4byte	.LFE78
 11100 0278 00000000 		.4byte	.LFB79
 11101 027c 16000000 		.4byte	.LFE79
 11102 0280 00000000 		.4byte	.LFB80
 11103 0284 16000000 		.4byte	.LFE80
 11104 0288 00000000 		.4byte	.LFB81
 11105 028c 10010000 		.4byte	.LFE81
 11106 0290 00000000 		.4byte	.LFB82
 11107 0294 6C000000 		.4byte	.LFE82
 11108 0298 00000000 		.4byte	.LFB83
 11109 029c 42000000 		.4byte	.LFE83
 11110 02a0 00000000 		.4byte	.LFB84
 11111 02a4 28000000 		.4byte	.LFE84
 11112 02a8 00000000 		.4byte	.LFB85
 11113 02ac 78000000 		.4byte	.LFE85
 11114 02b0 00000000 		.4byte	.LFB86
 11115 02b4 78000000 		.4byte	.LFE86
 11116 02b8 00000000 		.4byte	.LFB87
 11117 02bc 1E000000 		.4byte	.LFE87
 11118 02c0 00000000 		.4byte	.LFB88
 11119 02c4 26000000 		.4byte	.LFE88
 11120 02c8 00000000 		.4byte	.LFB89
 11121 02cc 24000000 		.4byte	.LFE89
 11122 02d0 00000000 		.4byte	.LFB90
 11123 02d4 32000000 		.4byte	.LFE90
 11124 02d8 00000000 		.4byte	.LFB91
 11125 02dc A6000000 		.4byte	.LFE91
 11126 02e0 00000000 		.4byte	.LFB92
 11127 02e4 1E000000 		.4byte	.LFE92
 11128 02e8 00000000 		.4byte	.LFB93
 11129 02ec 1E000000 		.4byte	.LFE93
 11130 02f0 00000000 		.4byte	.LFB94
 11131 02f4 B4000000 		.4byte	.LFE94
 11132 02f8 00000000 		.4byte	.LFB95
 11133 02fc 70000000 		.4byte	.LFE95
 11134 0300 00000000 		.4byte	.LFB96
 11135 0304 2A000000 		.4byte	.LFE96
 11136 0308 00000000 		.4byte	.LFB97
 11137 030c 26000000 		.4byte	.LFE97
 11138 0310 00000000 		.4byte	.LFB98
 11139 0314 7E000000 		.4byte	.LFE98
 11140 0318 00000000 		.4byte	.LFB99
 11141 031c 08010000 		.4byte	.LFE99
 11142 0320 00000000 		.4byte	0
 11143 0324 00000000 		.4byte	0
 11144              		.section	.debug_line,"",%progbits
 11145              	.Ldebug_line0:
 11146 0000 01090000 		.section	.debug_str,"MS",%progbits,1
 11146      02004300 
 11146      00000201 
ARM GAS  C:\Users\CHUCK~1.ERH\AppData\Local\Temp\ccSfgJB7.s 			page 224


 11146      FB0E0D00 
 11146      01010101 
 11147              	.LASF110:
 11148 0000 45544830 		.ascii	"ETH0_W51_Write\000"
 11148      5F573531 
 11148      5F577269 
 11148      746500
 11149              	.LASF84:
 11150 000f 45544830 		.ascii	"ETH0_GetSocketProto\000"
 11150      5F476574 
 11150      536F636B 
 11150      65745072 
 11150      6F746F00 
 11151              	.LASF152:
 11152 0023 2E5C4765 		.ascii	".\\Generated_Source\\PSoC5\\ETH0.c\000"
 11152      6E657261 
 11152      7465645F 
 11152      536F7572 
 11152      63655C50 
 11153              	.LASF73:
 11154 0043 45544830 		.ascii	"ETH0_GetSocketStatus\000"
 11154      5F476574 
 11154      536F636B 
 11154      65745374 
 11154      61747573 
 11155              	.LASF154:
 11156 0058 45544830 		.ascii	"ETH0_W51_Select\000"
 11156      5F573531 
 11156      5F53656C 
 11156      65637400 
 11157              	.LASF109:
 11158 0068 666C6167 		.ascii	"flags\000"
 11158      7300
 11159              	.LASF27:
 11160 006e 62756666 		.ascii	"buffer\000"
 11160      657200
 11161              	.LASF31:
 11162 0075 45544830 		.ascii	"ETH0_W51_WriteBlock\000"
 11162      5F573531 
 11162      5F577269 
 11162      7465426C 
 11162      6F636B00 
 11163              	.LASF98:
 11164 0089 45544830 		.ascii	"ETH0_ExecuteSocketCommand\000"
 11164      5F457865 
 11164      63757465 
 11164      536F636B 
 11164      6574436F 
 11165              	.LASF8:
 11166 00a3 756E7369 		.ascii	"unsigned int\000"
 11166      676E6564 
 11166      20696E74 
 11166      00
 11167              	.LASF116:
 11168 00b0 45544830 		.ascii	"ETH0_ParseIP\000"
 11168      5F506172 
 11168      73654950 
ARM GAS  C:\Users\CHUCK~1.ERH\AppData\Local\Temp\ccSfgJB7.s 			page 225


 11168      00
 11169              	.LASF57:
 11170 00bd 45544830 		.ascii	"ETH0_SetTxMemSize\000"
 11170      5F536574 
 11170      54784D65 
 11170      6D53697A 
 11170      6500
 11171              	.LASF95:
 11172 00cf 45544830 		.ascii	"ETH0_GetSocketRxSize\000"
 11172      5F476574 
 11172      536F636B 
 11172      65745278 
 11172      53697A65 
 11173              	.LASF92:
 11174 00e4 45544830 		.ascii	"ETH0_GetSocketTxReadPtr\000"
 11174      5F476574 
 11174      536F636B 
 11174      65745478 
 11174      52656164 
 11175              	.LASF76:
 11176 00fc 45544830 		.ascii	"ETH0_SetSocketDestMAC\000"
 11176      5F536574 
 11176      536F636B 
 11176      65744465 
 11176      73744D41 
 11177              	.LASF85:
 11178 0112 45544830 		.ascii	"ETH0_SetSocketTOS\000"
 11178      5F536574 
 11178      536F636B 
 11178      6574544F 
 11178      5300
 11179              	.LASF64:
 11180 0124 45544830 		.ascii	"ETH0_SetSocketMode\000"
 11180      5F536574 
 11180      536F636B 
 11180      65744D6F 
 11180      646500
 11181              	.LASF100:
 11182 0137 45544830 		.ascii	"ETH0_GetTxFreeSize\000"
 11182      5F476574 
 11182      54784672 
 11182      65655369 
 11182      7A6500
 11183              	.LASF40:
 11184 014a 45544830 		.ascii	"ETH0_SetSourceIP\000"
 11184      5F536574 
 11184      536F7572 
 11184      63654950 
 11184      00
 11185              	.LASF43:
 11186 015b 6D6F6465 		.ascii	"mode\000"
 11186      00
 11187              	.LASF113:
 11188 0160 67617465 		.ascii	"gateway\000"
 11188      77617900 
 11189              	.LASF156:
 11190 0168 53504930 		.ascii	"SPI0_initVar\000"
ARM GAS  C:\Users\CHUCK~1.ERH\AppData\Local\Temp\ccSfgJB7.s 			page 226


 11190      5F696E69 
 11190      74566172 
 11190      00
 11191              	.LASF118:
 11192 0175 64696769 		.ascii	"digit\000"
 11192      7400
 11193              	.LASF93:
 11194 017b 45544830 		.ascii	"ETH0_SetSocketTxWritePtr\000"
 11194      5F536574 
 11194      536F636B 
 11194      65745478 
 11194      57726974 
 11195              	.LASF88:
 11196 0194 45544830 		.ascii	"ETH0_GetSocketTTL\000"
 11196      5F476574 
 11196      536F636B 
 11196      65745454 
 11196      4C00
 11197              	.LASF66:
 11198 01a6 45544830 		.ascii	"ETH0_GetSocketMode\000"
 11198      5F476574 
 11198      536F636B 
 11198      65744D6F 
 11198      646500
 11199              	.LASF19:
 11200 01b9 53657276 		.ascii	"ServerFlag\000"
 11200      6572466C 
 11200      616700
 11201              	.LASF33:
 11202 01c4 45544830 		.ascii	"ETH0_W51_ReadBlock\000"
 11202      5F573531 
 11202      5F526561 
 11202      64426C6F 
 11202      636B00
 11203              	.LASF137:
 11204 01d7 45544830 		.ascii	"ETH0_TcpSend\000"
 11204      5F546370 
 11204      53656E64 
 11204      00
 11205              	.LASF138:
 11206 01e4 54785369 		.ascii	"TxSize\000"
 11206      7A6500
 11207              	.LASF111:
 11208 01eb 45544830 		.ascii	"ETH0_Init\000"
 11208      5F496E69 
 11208      7400
 11209              	.LASF96:
 11210 01f5 45544830 		.ascii	"ETH0_SetSocketRxReadPtr\000"
 11210      5F536574 
 11210      536F636B 
 11210      65745278 
 11210      52656164 
 11211              	.LASF114:
 11212 020d 45544830 		.ascii	"ETH0_Start\000"
 11212      5F537461 
 11212      727400
 11213              	.LASF78:
ARM GAS  C:\Users\CHUCK~1.ERH\AppData\Local\Temp\ccSfgJB7.s 			page 227


 11214 0218 45544830 		.ascii	"ETH0_SetSocketDestIP\000"
 11214      5F536574 
 11214      536F636B 
 11214      65744465 
 11214      73744950 
 11215              	.LASF12:
 11216 022d 666C6F61 		.ascii	"float\000"
 11216      7400
 11217              	.LASF67:
 11218 0233 45544830 		.ascii	"ETH0_SetSocketCommand\000"
 11218      5F536574 
 11218      536F636B 
 11218      6574436F 
 11218      6D6D616E 
 11219              	.LASF106:
 11220 0249 62617365 		.ascii	"base\000"
 11220      00
 11221              	.LASF22:
 11222 024e 636F756E 		.ascii	"count\000"
 11222      7400
 11223              	.LASF23:
 11224 0254 696E6465 		.ascii	"index\000"
 11224      7800
 11225              	.LASF82:
 11226 025a 45544830 		.ascii	"ETH0_SetSocketMaxSegSize\000"
 11226      5F536574 
 11226      536F636B 
 11226      65744D61 
 11226      78536567 
 11227              	.LASF7:
 11228 0273 6C6F6E67 		.ascii	"long long unsigned int\000"
 11228      206C6F6E 
 11228      6720756E 
 11228      7369676E 
 11228      65642069 
 11229              	.LASF41:
 11230 028a 45544830 		.ascii	"ETH0_GetSourceIP\000"
 11230      5F476574 
 11230      536F7572 
 11230      63654950 
 11230      00
 11231              	.LASF77:
 11232 029b 45544830 		.ascii	"ETH0_GetSocketDestMAC\000"
 11232      5F476574 
 11232      536F636B 
 11232      65744465 
 11232      73744D41 
 11233              	.LASF50:
 11234 02b1 74696D65 		.ascii	"time\000"
 11234      00
 11235              	.LASF103:
 11236 02b6 45544830 		.ascii	"ETH0_GetRxSize\000"
 11236      5F476574 
 11236      52785369 
 11236      7A6500
 11237              	.LASF119:
 11238 02c5 636F756E 		.ascii	"counter\000"
ARM GAS  C:\Users\CHUCK~1.ERH\AppData\Local\Temp\ccSfgJB7.s 			page 228


 11238      74657200 
 11239              	.LASF30:
 11240 02cd 45544830 		.ascii	"ETH0_W51_Read16\000"
 11240      5F573531 
 11240      5F526561 
 11240      64313600 
 11241              	.LASF105:
 11242 02dd 6F666673 		.ascii	"offset\000"
 11242      657400
 11243              	.LASF130:
 11244 02e4 45544830 		.ascii	"ETH0_SocketRxDataWaiting\000"
 11244      5F536F63 
 11244      6B657452 
 11244      78446174 
 11244      61576169 
 11245              	.LASF120:
 11246 02fd 64696E64 		.ascii	"dindex\000"
 11246      657800
 11247              	.LASF56:
 11248 0304 45544830 		.ascii	"ETH0_GetRxMemSize\000"
 11248      5F476574 
 11248      52784D65 
 11248      6D53697A 
 11248      6500
 11249              	.LASF42:
 11250 0316 45544830 		.ascii	"ETH0_SetMode\000"
 11250      5F536574 
 11250      4D6F6465 
 11250      00
 11251              	.LASF18:
 11252 0323 536F7572 		.ascii	"SourcePort\000"
 11252      6365506F 
 11252      727400
 11253              	.LASF121:
 11254 032e 45544830 		.ascii	"ETH0_SetIP\000"
 11254      5F536574 
 11254      495000
 11255              	.LASF45:
 11256 0339 45544830 		.ascii	"ETH0_SetIR\000"
 11256      5F536574 
 11256      495200
 11257              	.LASF132:
 11258 0344 45544830 		.ascii	"ETH0_TcpStartServer\000"
 11258      5F546370 
 11258      53746172 
 11258      74536572 
 11258      76657200 
 11259              	.LASF89:
 11260 0358 45544830 		.ascii	"ETH0_SetSocketTxFree\000"
 11260      5F536574 
 11260      536F636B 
 11260      65745478 
 11260      46726565 
 11261              	.LASF127:
 11262 036d 45544830 		.ascii	"ETH0_SocketEstablished\000"
 11262      5F536F63 
 11262      6B657445 
ARM GAS  C:\Users\CHUCK~1.ERH\AppData\Local\Temp\ccSfgJB7.s 			page 229


 11262      73746162 
 11262      6C697368 
 11263              	.LASF144:
 11264 0384 45544830 		.ascii	"ETH0_UdpSend\000"
 11264      5F556470 
 11264      53656E64 
 11264      00
 11265              	.LASF28:
 11266 0391 45544830 		.ascii	"ETH0_W51_Write16\000"
 11266      5F573531 
 11266      5F577269 
 11266      74653136 
 11266      00
 11267              	.LASF14:
 11268 03a2 63686172 		.ascii	"char\000"
 11268      00
 11269              	.LASF26:
 11270 03a7 45544830 		.ascii	"ETH0_W51_SetIP\000"
 11270      5F573531 
 11270      5F536574 
 11270      495000
 11271              	.LASF87:
 11272 03b6 45544830 		.ascii	"ETH0_SetSocketTTL\000"
 11272      5F536574 
 11272      536F636B 
 11272      65745454 
 11272      4C00
 11273              	.LASF59:
 11274 03c8 45544830 		.ascii	"ETH0_SetUnreachableIP\000"
 11274      5F536574 
 11274      556E7265 
 11274      61636861 
 11274      626C6549 
 11275              	.LASF10:
 11276 03de 75696E74 		.ascii	"uint16\000"
 11276      313600
 11277              	.LASF140:
 11278 03e5 45544830 		.ascii	"ETH0_TcpReceive\000"
 11278      5F546370 
 11278      52656365 
 11278      69766500 
 11279              	.LASF61:
 11280 03f5 45544830 		.ascii	"ETH0_SetUnreachablePort\000"
 11280      5F536574 
 11280      556E7265 
 11280      61636861 
 11280      626C6550 
 11281              	.LASF80:
 11282 040d 45544830 		.ascii	"ETH0_SetSocketDestPort\000"
 11282      5F536574 
 11282      536F636B 
 11282      65744465 
 11282      7374506F 
 11283              	.LASF125:
 11284 0424 45544830 		.ascii	"ETH0_SocketClose\000"
 11284      5F536F63 
 11284      6B657443 
ARM GAS  C:\Users\CHUCK~1.ERH\AppData\Local\Temp\ccSfgJB7.s 			page 230


 11284      6C6F7365 
 11284      00
 11285              	.LASF128:
 11286 0435 45544830 		.ascii	"ETH0_SocketSend\000"
 11286      5F536F63 
 11286      6B657453 
 11286      656E6400 
 11287              	.LASF35:
 11288 0445 45544830 		.ascii	"ETH0_GetSourceMAC\000"
 11288      5F476574 
 11288      536F7572 
 11288      63654D41 
 11288      4300
 11289              	.LASF6:
 11290 0457 6C6F6E67 		.ascii	"long long int\000"
 11290      206C6F6E 
 11290      6720696E 
 11290      7400
 11291              	.LASF133:
 11292 0465 45544830 		.ascii	"ETH0_TcpStartServerWait\000"
 11292      5F546370 
 11292      53746172 
 11292      74536572 
 11292      76657257 
 11293              	.LASF143:
 11294 047d 45544830 		.ascii	"ETH0_UdpOpen\000"
 11294      5F556470 
 11294      4F70656E 
 11294      00
 11295              	.LASF54:
 11296 048a 45544830 		.ascii	"ETH0_SetRxMemSize\000"
 11296      5F536574 
 11296      52784D65 
 11296      6D53697A 
 11296      6500
 11297              	.LASF25:
 11298 049c 45544830 		.ascii	"ETH0_W51_GetMAC\000"
 11298      5F573531 
 11298      5F476574 
 11298      4D414300 
 11299              	.LASF81:
 11300 04ac 45544830 		.ascii	"ETH0_GetSocketDestPort\000"
 11300      5F476574 
 11300      536F636B 
 11300      65744465 
 11300      7374506F 
 11301              	.LASF123:
 11302 04c3 45544830 		.ascii	"ETH0_GetMAC\000"
 11302      5F476574 
 11302      4D414300 
 11303              	.LASF97:
 11304 04cf 45544830 		.ascii	"ETH0_GetSocketRxReadPtr\000"
 11304      5F476574 
 11304      536F636B 
 11304      65745278 
 11304      52656164 
 11305              	.LASF51:
ARM GAS  C:\Users\CHUCK~1.ERH\AppData\Local\Temp\ccSfgJB7.s 			page 231


 11306 04e7 45544830 		.ascii	"ETH0_GetRetryTime\000"
 11306      5F476574 
 11306      52657472 
 11306      7954696D 
 11306      6500
 11307              	.LASF16:
 11308 04f9 50726F74 		.ascii	"Protocol\000"
 11308      6F636F6C 
 11308      00
 11309              	.LASF155:
 11310 0502 45544830 		.ascii	"ETH0_GetIP\000"
 11310      5F476574 
 11310      495000
 11311              	.LASF46:
 11312 050d 45544830 		.ascii	"ETH0_GetIR\000"
 11312      5F476574 
 11312      495200
 11313              	.LASF112:
 11314 0518 7375626E 		.ascii	"subnet\000"
 11314      657400
 11315              	.LASF75:
 11316 051f 45544830 		.ascii	"ETH0_GetSocketSourcePort\000"
 11316      5F476574 
 11316      536F636B 
 11316      6574536F 
 11316      75726365 
 11317              	.LASF55:
 11318 0538 73697A65 		.ascii	"size\000"
 11318      00
 11319              	.LASF11:
 11320 053d 75696E74 		.ascii	"uint32\000"
 11320      333200
 11321              	.LASF71:
 11322 0544 45544830 		.ascii	"ETH0_SetSocketStatus\000"
 11322      5F536574 
 11322      536F636B 
 11322      65745374 
 11322      61747573 
 11323              	.LASF60:
 11324 0559 45544830 		.ascii	"ETH0_GetUnreachableIP\000"
 11324      5F476574 
 11324      556E7265 
 11324      61636861 
 11324      626C6549 
 11325              	.LASF135:
 11326 056f 45544830 		.ascii	"ETH0_TcpConnected\000"
 11326      5F546370 
 11326      436F6E6E 
 11326      65637465 
 11326      6400
 11327              	.LASF44:
 11328 0581 45544830 		.ascii	"ETH0_GetMode\000"
 11328      5F476574 
 11328      4D6F6465 
 11328      00
 11329              	.LASF37:
 11330 058e 45544830 		.ascii	"ETH0_SetSubnetMask\000"
ARM GAS  C:\Users\CHUCK~1.ERH\AppData\Local\Temp\ccSfgJB7.s 			page 232


 11330      5F536574 
 11330      5375626E 
 11330      65744D61 
 11330      736B00
 11331              	.LASF117:
 11332 05a1 69705374 		.ascii	"ipString\000"
 11332      72696E67 
 11332      00
 11333              	.LASF102:
 11334 05aa 7365636F 		.ascii	"second\000"
 11334      6E6400
 11335              	.LASF29:
 11336 05b1 45544830 		.ascii	"ETH0_W51_GetIP\000"
 11336      5F573531 
 11336      5F476574 
 11336      495000
 11337              	.LASF142:
 11338 05c0 45544830 		.ascii	"ETH0_TcpPrint\000"
 11338      5F546370 
 11338      5072696E 
 11338      7400
 11339              	.LASF108:
 11340 05ce 45544830 		.ascii	"ETH0_ProcessRxData\000"
 11340      5F50726F 
 11340      63657373 
 11340      52784461 
 11340      746100
 11341              	.LASF99:
 11342 05e1 74696D65 		.ascii	"timeout\000"
 11342      6F757400 
 11343              	.LASF39:
 11344 05e9 45544830 		.ascii	"ETH0_GetSubnetMask\000"
 11344      5F476574 
 11344      5375626E 
 11344      65744D61 
 11344      736B00
 11345              	.LASF20:
 11346 05fc 45544830 		.ascii	"ETH0_SOCKET\000"
 11346      5F534F43 
 11346      4B455400 
 11347              	.LASF131:
 11348 0608 45544830 		.ascii	"ETH0_TcpOpen\000"
 11348      5F546370 
 11348      4F70656E 
 11348      00
 11349              	.LASF2:
 11350 0615 73686F72 		.ascii	"short int\000"
 11350      7420696E 
 11350      7400
 11351              	.LASF4:
 11352 061f 6C6F6E67 		.ascii	"long int\000"
 11352      20696E74 
 11352      00
 11353              	.LASF32:
 11354 0628 6C656E67 		.ascii	"length\000"
 11354      746800
 11355              	.LASF72:
ARM GAS  C:\Users\CHUCK~1.ERH\AppData\Local\Temp\ccSfgJB7.s 			page 233


 11356 062f 73746174 		.ascii	"status\000"
 11356      757300
 11357              	.LASF134:
 11358 0636 45544830 		.ascii	"ETH0_TcpConnect\000"
 11358      5F546370 
 11358      436F6E6E 
 11358      65637400 
 11359              	.LASF68:
 11360 0646 45544830 		.ascii	"ETH0_GetSocketCommand\000"
 11360      5F476574 
 11360      536F636B 
 11360      6574436F 
 11360      6D6D616E 
 11361              	.LASF65:
 11362 065c 736F636B 		.ascii	"socket\000"
 11362      657400
 11363              	.LASF139:
 11364 0663 46726565 		.ascii	"FreeSpace\000"
 11364      53706163 
 11364      6500
 11365              	.LASF115:
 11366 066d 45544830 		.ascii	"ETH0_W51_Read\000"
 11366      5F573531 
 11366      5F526561 
 11366      6400
 11367              	.LASF48:
 11368 067b 45544830 		.ascii	"ETH0_GetIMR\000"
 11368      5F476574 
 11368      494D5200 
 11369              	.LASF129:
 11370 0687 45544830 		.ascii	"ETH0_SocketSendMac\000"
 11370      5F536F63 
 11370      6B657453 
 11370      656E644D 
 11370      616300
 11371              	.LASF34:
 11372 069a 45544830 		.ascii	"ETH0_SetSourceMAC\000"
 11372      5F536574 
 11372      536F7572 
 11372      63654D41 
 11372      4300
 11373              	.LASF107:
 11374 06ac 506F696E 		.ascii	"PointerOffset\000"
 11374      7465724F 
 11374      66667365 
 11374      7400
 11375              	.LASF122:
 11376 06ba 45544830 		.ascii	"ETH0_SetMAC\000"
 11376      5F536574 
 11376      4D414300 
 11377              	.LASF136:
 11378 06c6 45544830 		.ascii	"ETH0_TcpDisconnect\000"
 11378      5F546370 
 11378      44697363 
 11378      6F6E6E65 
 11378      637400
 11379              	.LASF91:
ARM GAS  C:\Users\CHUCK~1.ERH\AppData\Local\Temp\ccSfgJB7.s 			page 234


 11380 06d9 45544830 		.ascii	"ETH0_SetSocketTxReadPtr\000"
 11380      5F536574 
 11380      536F636B 
 11380      65745478 
 11380      52656164 
 11381              	.LASF147:
 11382 06f1 5061636B 		.ascii	"PacketHeader\000"
 11382      65744865 
 11382      61646572 
 11382      00
 11383              	.LASF15:
 11384 06fe 73697A65 		.ascii	"sizetype\000"
 11384      74797065 
 11384      00
 11385              	.LASF148:
 11386 0707 45544830 		.ascii	"ETH0_SocketConfig\000"
 11386      5F536F63 
 11386      6B657443 
 11386      6F6E6669 
 11386      6700
 11387              	.LASF5:
 11388 0719 6C6F6E67 		.ascii	"long unsigned int\000"
 11388      20756E73 
 11388      69676E65 
 11388      6420696E 
 11388      7400
 11389              	.LASF104:
 11390 072b 45544830 		.ascii	"ETH0_ProcessTxData\000"
 11390      5F50726F 
 11390      63657373 
 11390      54784461 
 11390      746100
 11391              	.LASF63:
 11392 073e 45544830 		.ascii	"ETH0_GetUnreachablePort\000"
 11392      5F476574 
 11392      556E7265 
 11392      61636861 
 11392      626C6550 
 11393              	.LASF62:
 11394 0756 706F7274 		.ascii	"port\000"
 11394      00
 11395              	.LASF49:
 11396 075b 45544830 		.ascii	"ETH0_SetRetryTime\000"
 11396      5F536574 
 11396      52657472 
 11396      7954696D 
 11396      6500
 11397              	.LASF149:
 11398 076d 45544830 		.ascii	"ETH0_SubnetMask\000"
 11398      5F537562 
 11398      6E65744D 
 11398      61736B00 
 11399              	.LASF150:
 11400 077d 45544830 		.ascii	"ETH0_MAC\000"
 11400      5F4D4143 
 11400      00
 11401              	.LASF17:
ARM GAS  C:\Users\CHUCK~1.ERH\AppData\Local\Temp\ccSfgJB7.s 			page 235


 11402 0786 536F636B 		.ascii	"SocketFlags\000"
 11402      6574466C 
 11402      61677300 
 11403              	.LASF69:
 11404 0792 45544830 		.ascii	"ETH0_SetSocketIR\000"
 11404      5F536574 
 11404      536F636B 
 11404      65744952 
 11404      00
 11405              	.LASF1:
 11406 07a3 756E7369 		.ascii	"unsigned char\000"
 11406      676E6564 
 11406      20636861 
 11406      7200
 11407              	.LASF74:
 11408 07b1 45544830 		.ascii	"ETH0_SetSocketSourcePort\000"
 11408      5F536574 
 11408      536F636B 
 11408      6574536F 
 11408      75726365 
 11409              	.LASF86:
 11410 07ca 45544830 		.ascii	"ETH0_GetSocketTOS\000"
 11410      5F476574 
 11410      536F636B 
 11410      6574544F 
 11410      5300
 11411              	.LASF101:
 11412 07dc 66697273 		.ascii	"first\000"
 11412      7400
 11413              	.LASF83:
 11414 07e2 45544830 		.ascii	"ETH0_GetSocketMaxSegSize\000"
 11414      5F476574 
 11414      536F636B 
 11414      65744D61 
 11414      78536567 
 11415              	.LASF126:
 11416 07fb 45544830 		.ascii	"ETH0_SocketProcessConnections\000"
 11416      5F536F63 
 11416      6B657450 
 11416      726F6365 
 11416      7373436F 
 11417              	.LASF24:
 11418 0819 45544830 		.ascii	"ETH0_W51_SetMAC\000"
 11418      5F573531 
 11418      5F536574 
 11418      4D414300 
 11419              	.LASF21:
 11420 0829 61646472 		.ascii	"addr\000"
 11420      00
 11421              	.LASF94:
 11422 082e 45544830 		.ascii	"ETH0_GetSocketTxWritePtr\000"
 11422      5F476574 
 11422      536F636B 
 11422      65745478 
 11422      57726974 
 11423              	.LASF79:
 11424 0847 45544830 		.ascii	"ETH0_GetSocketDestIP\000"
ARM GAS  C:\Users\CHUCK~1.ERH\AppData\Local\Temp\ccSfgJB7.s 			page 236


 11424      5F476574 
 11424      536F636B 
 11424      65744465 
 11424      73744950 
 11425              	.LASF0:
 11426 085c 7369676E 		.ascii	"signed char\000"
 11426      65642063 
 11426      68617200 
 11427              	.LASF52:
 11428 0868 45544830 		.ascii	"ETH0_SetRetryCount\000"
 11428      5F536574 
 11428      52657472 
 11428      79436F75 
 11428      6E7400
 11429              	.LASF3:
 11430 087b 73686F72 		.ascii	"short unsigned int\000"
 11430      7420756E 
 11430      7369676E 
 11430      65642069 
 11430      6E7400
 11431              	.LASF36:
 11432 088e 45544830 		.ascii	"ETH0_SetGatewayAddress\000"
 11432      5F536574 
 11432      47617465 
 11432      77617941 
 11432      64647265 
 11433              	.LASF141:
 11434 08a5 52785369 		.ascii	"RxSize\000"
 11434      7A6500
 11435              	.LASF151:
 11436 08ac 474E5520 		.ascii	"GNU C 4.7.3 20130312 (release) [ARM/embedded-4_7-br"
 11436      4320342E 
 11436      372E3320 
 11436      32303133 
 11436      30333132 
 11437 08df 616E6368 		.ascii	"anch revision 196615]\000"
 11437      20726576 
 11437      6973696F 
 11437      6E203139 
 11437      36363135 
 11438              	.LASF58:
 11439 08f5 45544830 		.ascii	"ETH0_GetTxMemSize\000"
 11439      5F476574 
 11439      54784D65 
 11439      6D53697A 
 11439      6500
 11440              	.LASF70:
 11441 0907 45544830 		.ascii	"ETH0_GetSocketIR\000"
 11441      5F476574 
 11441      536F636B 
 11441      65744952 
 11441      00
 11442              	.LASF9:
 11443 0918 75696E74 		.ascii	"uint8\000"
 11443      3800
 11444              	.LASF13:
 11445 091e 646F7562 		.ascii	"double\000"
ARM GAS  C:\Users\CHUCK~1.ERH\AppData\Local\Temp\ccSfgJB7.s 			page 237


 11445      6C6500
 11446              	.LASF124:
 11447 0925 45544830 		.ascii	"ETH0_SocketOpen\000"
 11447      5F536F63 
 11447      6B65744F 
 11447      70656E00 
 11448              	.LASF90:
 11449 0935 45544830 		.ascii	"ETH0_GetSocketTxFree\000"
 11449      5F476574 
 11449      536F636B 
 11449      65745478 
 11449      46726565 
 11450              	.LASF38:
 11451 094a 45544830 		.ascii	"ETH0_GetGatewayAddress\000"
 11451      5F476574 
 11451      47617465 
 11451      77617941 
 11451      64647265 
 11452              	.LASF153:
 11453 0961 433A5C55 		.ascii	"C:\\Users\\chuck.erhardt\\Documents\\GitHub\\PSoC-W"
 11453      73657273 
 11453      5C636875 
 11453      636B2E65 
 11453      72686172 
 11454 098f 35313030 		.ascii	"5100-Driver\\freeSoCExplorer+ArduinoSheld_Example.c"
 11454      2D447269 
 11454      7665725C 
 11454      66726565 
 11454      536F4345 
 11455 09c1 7964736E 		.ascii	"ydsn\000"
 11455      00
 11456              	.LASF145:
 11457 09c6 45544830 		.ascii	"ETH0_UdpReceive\000"
 11457      5F556470 
 11457      52656365 
 11457      69766500 
 11458              	.LASF53:
 11459 09d6 45544830 		.ascii	"ETH0_GetRetryCount\000"
 11459      5F476574 
 11459      52657472 
 11459      79436F75 
 11459      6E7400
 11460              	.LASF146:
 11461 09e9 5061636B 		.ascii	"PacketSize\000"
 11461      65745369 
 11461      7A6500
 11462              	.LASF47:
 11463 09f4 45544830 		.ascii	"ETH0_SetIMR\000"
 11463      5F536574 
 11463      494D5200 
 11464              		.ident	"GCC: (GNU Tools for ARM Embedded Processors) 4.7.3 20130312 (release) [ARM/embedded-4_7-br
