ARM GAS  C:\Users\CHUCK~1.ERH\AppData\Local\Temp\cco8cCZX.s 			page 1


   1              		.syntax unified
   2              		.cpu cortex-m3
   3              		.fpu softvfp
   4              		.eabi_attribute 20, 1
   5              		.eabi_attribute 21, 1
   6              		.eabi_attribute 23, 3
   7              		.eabi_attribute 24, 1
   8              		.eabi_attribute 25, 1
   9              		.eabi_attribute 26, 1
  10              		.eabi_attribute 30, 6
  11              		.eabi_attribute 34, 1
  12              		.eabi_attribute 18, 4
  13              		.thumb
  14              		.file	"ETH0.c"
  15              		.text
  16              	.Ltext0:
  17              		.cfi_sections	.debug_frame
  18              		.bss
  19              		.align	2
  20              	ETH0_SocketConfig:
  21 0000 00000000 		.space	24
  21      00000000 
  21      00000000 
  21      00000000 
  21      00000000 
  22              		.align	2
  23              	ETH0_SubnetMask:
  24 0018 00000000 		.space	4
  25              		.data
  26              		.align	2
  27              		.type	ETH0_MAC, %object
  28              		.size	ETH0_MAC, 6
  29              	ETH0_MAC:
  30 0000 00       		.byte	0
  31 0001 DE       		.byte	-34
  32 0002 AD       		.byte	-83
  33 0003 BE       		.byte	-66
  34 0004 EF       		.byte	-17
  35 0005 00       		.byte	0
  36 0006 0000     		.section	.text.ETH0_W51_Select,"ax",%progbits
  37              		.align	2
  38              		.thumb
  39              		.thumb_func
  40              		.type	ETH0_W51_Select, %function
  41              	ETH0_W51_Select:
  42              	.LFB0:
  43              		.file 1 ".\\Generated_Source\\PSoC5\\ETH0.c"
   1:.\Generated_Source\PSoC5/ETH0.c **** /**
   2:.\Generated_Source\PSoC5/ETH0.c ****  * \addtogroup w5100
   3:.\Generated_Source\PSoC5/ETH0.c ****  * @{
   4:.\Generated_Source\PSoC5/ETH0.c ****  */
   5:.\Generated_Source\PSoC5/ETH0.c **** 
   6:.\Generated_Source\PSoC5/ETH0.c **** /**
   7:.\Generated_Source\PSoC5/ETH0.c ****  * \file Driver implementation for interfacing with the W5100 device
   8:.\Generated_Source\PSoC5/ETH0.c ****  * \author Chuck Erhardt (chuck@e2forlife.com)
   9:.\Generated_Source\PSoC5/ETH0.c ****  *
  10:.\Generated_Source\PSoC5/ETH0.c ****  * This file contains the main driver implementation for control
ARM GAS  C:\Users\CHUCK~1.ERH\AppData\Local\Temp\cco8cCZX.s 			page 2


  11:.\Generated_Source\PSoC5/ETH0.c ****  * of the W5100 device.
  12:.\Generated_Source\PSoC5/ETH0.c **** */
  13:.\Generated_Source\PSoC5/ETH0.c **** 
  14:.\Generated_Source\PSoC5/ETH0.c **** /* Cypress library includes */
  15:.\Generated_Source\PSoC5/ETH0.c **** #include <cytypes.h>
  16:.\Generated_Source\PSoC5/ETH0.c **** #include <cylib.h>
  17:.\Generated_Source\PSoC5/ETH0.c **** 
  18:.\Generated_Source\PSoC5/ETH0.c **** /*  include functions and types for the driver */
  19:.\Generated_Source\PSoC5/ETH0.c **** #include "ETH0.h"
  20:.\Generated_Source\PSoC5/ETH0.c **** /* include the serial interface functions */
  21:.\Generated_Source\PSoC5/ETH0.c **** #include <SPI0.h>
  22:.\Generated_Source\PSoC5/ETH0.c **** 
  23:.\Generated_Source\PSoC5/ETH0.c **** extern uint8 SPI0_initVar;
  24:.\Generated_Source\PSoC5/ETH0.c **** 
  25:.\Generated_Source\PSoC5/ETH0.c **** typedef struct
  26:.\Generated_Source\PSoC5/ETH0.c **** {
  27:.\Generated_Source\PSoC5/ETH0.c **** 	uint8  Protocol;
  28:.\Generated_Source\PSoC5/ETH0.c **** 	uint8  SocketFlags;
  29:.\Generated_Source\PSoC5/ETH0.c **** 	uint16 SourcePort;
  30:.\Generated_Source\PSoC5/ETH0.c **** 	uint8  ServerFlag;
  31:.\Generated_Source\PSoC5/ETH0.c **** } ETH0_SOCKET;
  32:.\Generated_Source\PSoC5/ETH0.c **** 
  33:.\Generated_Source\PSoC5/ETH0.c **** #define ETH0_SOCKET_TX_BASE(s)    ( 0x4000 + (s<<15) )
  34:.\Generated_Source\PSoC5/ETH0.c **** #define ETH0_SOCKET_RX_BASE(s)    ( 0x6000 + (s<<15) )
  35:.\Generated_Source\PSoC5/ETH0.c **** 
  36:.\Generated_Source\PSoC5/ETH0.c **** static ETH0_SOCKET ETH0_SocketConfig[4];
  37:.\Generated_Source\PSoC5/ETH0.c **** static uint32 ETH0_SubnetMask;
  38:.\Generated_Source\PSoC5/ETH0.c **** 
  39:.\Generated_Source\PSoC5/ETH0.c **** static uint8 ETH0_MAC[6] = { 0x00, 0xDE, 0xAD, 0xBE, 0xEF, 0x00 };
  40:.\Generated_Source\PSoC5/ETH0.c **** 
  41:.\Generated_Source\PSoC5/ETH0.c **** 
  42:.\Generated_Source\PSoC5/ETH0.c **** /* ======================================================================== */
  43:.\Generated_Source\PSoC5/ETH0.c **** /* Generic SPI Functions */
  44:.\Generated_Source\PSoC5/ETH0.c **** /*
  45:.\Generated_Source\PSoC5/ETH0.c ****  * NOTE: when using the SPIM, there must be a buffer length of at least 4
  46:.\Generated_Source\PSoC5/ETH0.c ****  * bytes to allow the transfer/receive cycle for each read/write operation
  47:.\Generated_Source\PSoC5/ETH0.c ****  * to be contained within the FIFO buffer.
  48:.\Generated_Source\PSoC5/ETH0.c ****  */
  49:.\Generated_Source\PSoC5/ETH0.c **** #if !defined(CY_SCB_SPI0_H)
  50:.\Generated_Source\PSoC5/ETH0.c **** /* ------------------------------------------------------------------------ */
  51:.\Generated_Source\PSoC5/ETH0.c **** /**
  52:.\Generated_Source\PSoC5/ETH0.c ****  * \brief Select the active SCB chip select connected to the W51
  53:.\Generated_Source\PSoC5/ETH0.c ****  *
  54:.\Generated_Source\PSoC5/ETH0.c ****  * this fucntion will set the active SS line within the SCB to select and
  55:.\Generated_Source\PSoC5/ETH0.c ****  * communicate with the W5100 device.
  56:.\Generated_Source\PSoC5/ETH0.c ****  * \note this functions requires that the device chip select is originating
  57:.\Generated_Source\PSoC5/ETH0.c ****  *  from the SPI device.
  58:.\Generated_Source\PSoC5/ETH0.c ****  */
  59:.\Generated_Source\PSoC5/ETH0.c **** static void ETH0_W51_Select( void )
  60:.\Generated_Source\PSoC5/ETH0.c **** {
  44              		.loc 1 60 0
  45              		.cfi_startproc
  46              		@ args = 0, pretend = 0, frame = 0
  47              		@ frame_needed = 1, uses_anonymous_args = 0
  48              		@ link register save eliminated.
  49 0000 80B4     		push	{r7}
  50              	.LCFI0:
ARM GAS  C:\Users\CHUCK~1.ERH\AppData\Local\Temp\cco8cCZX.s 			page 3


  51              		.cfi_def_cfa_offset 4
  52              		.cfi_offset 7, -4
  53 0002 00AF     		add	r7, sp, #0
  54              	.LCFI1:
  55              		.cfi_def_cfa_register 7
  61:.\Generated_Source\PSoC5/ETH0.c **** 	/*
  62:.\Generated_Source\PSoC5/ETH0.c **** 	 * User code for setting the chip select enable.  This is called once
  63:.\Generated_Source\PSoC5/ETH0.c **** 	 * at the beginning of each tranfer to/from the W5100, so we recommend
  64:.\Generated_Source\PSoC5/ETH0.c **** 	 * either doing nothing (SPIM SS straight out), or to switch the demux
  65:.\Generated_Source\PSoC5/ETH0.c **** 	 * component to select the correct output for the SS routing.  This
  66:.\Generated_Source\PSoC5/ETH0.c **** 	 * should probably not drive a pin directly since there is no return
  67:.\Generated_Source\PSoC5/ETH0.c **** 	 * call from the driver that would allow an enable/disable type of
  68:.\Generated_Source\PSoC5/ETH0.c **** 	 * implementation for CSN control.
  69:.\Generated_Source\PSoC5/ETH0.c **** 	 */
  70:.\Generated_Source\PSoC5/ETH0.c **** 	/* `#START CHIP_SELECT_GENERATION` */
  71:.\Generated_Source\PSoC5/ETH0.c **** 
  72:.\Generated_Source\PSoC5/ETH0.c **** 	/* `#END` */
  73:.\Generated_Source\PSoC5/ETH0.c **** }
  56              		.loc 1 73 0
  57 0004 BD46     		mov	sp, r7
  58 0006 80BC     		pop	{r7}
  59 0008 7047     		bx	lr
  60              		.cfi_endproc
  61              	.LFE0:
  62              		.size	ETH0_W51_Select, .-ETH0_W51_Select
  63 000a 00BF     		.section	.text.ETH0_W51_Write,"ax",%progbits
  64              		.align	2
  65              		.global	ETH0_W51_Write
  66              		.thumb
  67              		.thumb_func
  68              		.type	ETH0_W51_Write, %function
  69              	ETH0_W51_Write:
  70              	.LFB1:
  74:.\Generated_Source\PSoC5/ETH0.c **** /* ------------------------------------------------------------------------ */
  75:.\Generated_Source\PSoC5/ETH0.c **** /**
  76:.\Generated_Source\PSoC5/ETH0.c ****  * \brief write Data to the W5100 at the specified address
  77:.\Generated_Source\PSoC5/ETH0.c ****  * \param addr Address of register or memory buffer
  78:.\Generated_Source\PSoC5/ETH0.c ****  * \param dat Data to write to the device
  79:.\Generated_Source\PSoC5/ETH0.c ****  *
  80:.\Generated_Source\PSoC5/ETH0.c ****  * This function will send the WRITE opcode, address and data to the W5100
  81:.\Generated_Source\PSoC5/ETH0.c ****  * in order to write the data to the specified register.
  82:.\Generated_Source\PSoC5/ETH0.c ****  */
  83:.\Generated_Source\PSoC5/ETH0.c **** void ETH0_W51_Write(uint16 addr, uint8 dat)
  84:.\Generated_Source\PSoC5/ETH0.c **** {
  71              		.loc 1 84 0
  72              		.cfi_startproc
  73              		@ args = 0, pretend = 0, frame = 8
  74              		@ frame_needed = 1, uses_anonymous_args = 0
  75 0000 80B5     		push	{r7, lr}
  76              	.LCFI2:
  77              		.cfi_def_cfa_offset 8
  78              		.cfi_offset 7, -8
  79              		.cfi_offset 14, -4
  80 0002 82B0     		sub	sp, sp, #8
  81              	.LCFI3:
  82              		.cfi_def_cfa_offset 16
  83 0004 00AF     		add	r7, sp, #0
ARM GAS  C:\Users\CHUCK~1.ERH\AppData\Local\Temp\cco8cCZX.s 			page 4


  84              	.LCFI4:
  85              		.cfi_def_cfa_register 7
  86 0006 0246     		mov	r2, r0
  87 0008 0B46     		mov	r3, r1
  88 000a FA80     		strh	r2, [r7, #6]	@ movhi
  89 000c 7B71     		strb	r3, [r7, #5]
  85:.\Generated_Source\PSoC5/ETH0.c **** 	/* Using internal device SS generation */
  86:.\Generated_Source\PSoC5/ETH0.c **** 	ETH0_W51_Select();
  90              		.loc 1 86 0
  91 000e FFF7FEFF 		bl	ETH0_W51_Select
  87:.\Generated_Source\PSoC5/ETH0.c **** 	/*
  88:.\Generated_Source\PSoC5/ETH0.c **** 	 * The first thing to do is to clear the Rx Buffer of any lingering
  89:.\Generated_Source\PSoC5/ETH0.c **** 	 * data left from other transfers.  Then send the data per the W5100
  90:.\Generated_Source\PSoC5/ETH0.c **** 	 * datasheet p.62
  91:.\Generated_Source\PSoC5/ETH0.c **** 	 */
  92:.\Generated_Source\PSoC5/ETH0.c **** 	SPI0_ClearRxBuffer();
  92              		.loc 1 92 0
  93 0012 FFF7FEFF 		bl	SPI0_ClearRxBuffer
  93:.\Generated_Source\PSoC5/ETH0.c **** 	/* Begin transfer of data to device */
  94:.\Generated_Source\PSoC5/ETH0.c **** 	SPI0_WriteTxData(ETH0_WRITE_OP);
  94              		.loc 1 94 0
  95 0016 4FF0F000 		mov	r0, #240
  96 001a FFF7FEFF 		bl	SPI0_WriteTxData
  95:.\Generated_Source\PSoC5/ETH0.c **** 	SPI0_WriteTxData((addr>>8)&0x00FF);
  97              		.loc 1 95 0
  98 001e FB88     		ldrh	r3, [r7, #6]
  99 0020 4FEA1323 		lsr	r3, r3, #8
 100 0024 9BB2     		uxth	r3, r3
 101 0026 DBB2     		uxtb	r3, r3
 102 0028 1846     		mov	r0, r3
 103 002a FFF7FEFF 		bl	SPI0_WriteTxData
  96:.\Generated_Source\PSoC5/ETH0.c **** 	SPI0_WriteTxData(addr&0x00FF);
 104              		.loc 1 96 0
 105 002e FB88     		ldrh	r3, [r7, #6]	@ movhi
 106 0030 DBB2     		uxtb	r3, r3
 107 0032 1846     		mov	r0, r3
 108 0034 FFF7FEFF 		bl	SPI0_WriteTxData
  97:.\Generated_Source\PSoC5/ETH0.c **** 	SPI0_WriteTxData(dat);
 109              		.loc 1 97 0
 110 0038 7B79     		ldrb	r3, [r7, #5]	@ zero_extendqisi2
 111 003a 1846     		mov	r0, r3
 112 003c FFF7FEFF 		bl	SPI0_WriteTxData
  98:.\Generated_Source\PSoC5/ETH0.c **** 	/* Wait for operation to end */
  99:.\Generated_Source\PSoC5/ETH0.c **** 	CyDelayUs(5); /* At 6 MBPS it will take approx 6 uS to send the data */
 113              		.loc 1 99 0
 114 0040 4FF00500 		mov	r0, #5
 115 0044 FFF7FEFF 		bl	CyDelayUs
 100:.\Generated_Source\PSoC5/ETH0.c **** 
 101:.\Generated_Source\PSoC5/ETH0.c **** }
 116              		.loc 1 101 0
 117 0048 07F10807 		add	r7, r7, #8
 118 004c BD46     		mov	sp, r7
 119 004e 80BD     		pop	{r7, pc}
 120              		.cfi_endproc
 121              	.LFE1:
 122              		.size	ETH0_W51_Write, .-ETH0_W51_Write
 123              		.section	.text.ETH0_W51_Read,"ax",%progbits
ARM GAS  C:\Users\CHUCK~1.ERH\AppData\Local\Temp\cco8cCZX.s 			page 5


 124              		.align	2
 125              		.global	ETH0_W51_Read
 126              		.thumb
 127              		.thumb_func
 128              		.type	ETH0_W51_Read, %function
 129              	ETH0_W51_Read:
 130              	.LFB2:
 102:.\Generated_Source\PSoC5/ETH0.c **** 
 103:.\Generated_Source\PSoC5/ETH0.c **** /* ------------------------------------------------------------------------ */
 104:.\Generated_Source\PSoC5/ETH0.c **** /**
 105:.\Generated_Source\PSoC5/ETH0.c ****  * \brief Read data from the W5100 at the spsecified address
 106:.\Generated_Source\PSoC5/ETH0.c ****  * \param addr Address from which to read
 107:.\Generated_Source\PSoC5/ETH0.c ****  * \returns the data read from the address
 108:.\Generated_Source\PSoC5/ETH0.c ****  *
 109:.\Generated_Source\PSoC5/ETH0.c ****  * this fucntion will access a W5100 memory location and read the contents
 110:.\Generated_Source\PSoC5/ETH0.c ****  * using the serial protocol specified on P.61 of the datasheet.
 111:.\Generated_Source\PSoC5/ETH0.c ****  */
 112:.\Generated_Source\PSoC5/ETH0.c **** uint8 ETH0_W51_Read(uint16 addr)
 113:.\Generated_Source\PSoC5/ETH0.c **** {
 131              		.loc 1 113 0
 132              		.cfi_startproc
 133              		@ args = 0, pretend = 0, frame = 16
 134              		@ frame_needed = 1, uses_anonymous_args = 0
 135 0000 80B5     		push	{r7, lr}
 136              	.LCFI5:
 137              		.cfi_def_cfa_offset 8
 138              		.cfi_offset 7, -8
 139              		.cfi_offset 14, -4
 140 0002 84B0     		sub	sp, sp, #16
 141              	.LCFI6:
 142              		.cfi_def_cfa_offset 24
 143 0004 00AF     		add	r7, sp, #0
 144              	.LCFI7:
 145              		.cfi_def_cfa_register 7
 146 0006 0346     		mov	r3, r0
 147 0008 FB80     		strh	r3, [r7, #6]	@ movhi
 114:.\Generated_Source\PSoC5/ETH0.c **** 	uint32 dat;
 115:.\Generated_Source\PSoC5/ETH0.c **** 	uint32 count;
 116:.\Generated_Source\PSoC5/ETH0.c **** 	
 117:.\Generated_Source\PSoC5/ETH0.c **** 	/* Using internal device SS generation */
 118:.\Generated_Source\PSoC5/ETH0.c **** 	ETH0_W51_Select();
 148              		.loc 1 118 0
 149 000a FFF7FEFF 		bl	ETH0_W51_Select
 119:.\Generated_Source\PSoC5/ETH0.c **** 	/*
 120:.\Generated_Source\PSoC5/ETH0.c **** 	 * First, clear the Rx Buffer of any waiting data.  Then begin the
 121:.\Generated_Source\PSoC5/ETH0.c **** 	 * read operation by sending the op code, followed byte the address
 122:.\Generated_Source\PSoC5/ETH0.c **** 	 * from which the read will be executed, then send a dummy byte
 123:.\Generated_Source\PSoC5/ETH0.c **** 	 * of zeros to read the data from the device.
 124:.\Generated_Source\PSoC5/ETH0.c **** 	 */
 125:.\Generated_Source\PSoC5/ETH0.c **** 	SPI0_ClearRxBuffer();
 150              		.loc 1 125 0
 151 000e FFF7FEFF 		bl	SPI0_ClearRxBuffer
 126:.\Generated_Source\PSoC5/ETH0.c **** 	/* Begin data read */
 127:.\Generated_Source\PSoC5/ETH0.c **** 	SPI0_WriteTxData(ETH0_READ_OP);
 152              		.loc 1 127 0
 153 0012 4FF00F00 		mov	r0, #15
 154 0016 FFF7FEFF 		bl	SPI0_WriteTxData
ARM GAS  C:\Users\CHUCK~1.ERH\AppData\Local\Temp\cco8cCZX.s 			page 6


 128:.\Generated_Source\PSoC5/ETH0.c **** 	SPI0_WriteTxData(addr>>8);
 155              		.loc 1 128 0
 156 001a FB88     		ldrh	r3, [r7, #6]
 157 001c 4FEA1323 		lsr	r3, r3, #8
 158 0020 9BB2     		uxth	r3, r3
 159 0022 DBB2     		uxtb	r3, r3
 160 0024 1846     		mov	r0, r3
 161 0026 FFF7FEFF 		bl	SPI0_WriteTxData
 129:.\Generated_Source\PSoC5/ETH0.c **** 	SPI0_WriteTxData(addr&0x00FF);
 162              		.loc 1 129 0
 163 002a FB88     		ldrh	r3, [r7, #6]	@ movhi
 164 002c DBB2     		uxtb	r3, r3
 165 002e 1846     		mov	r0, r3
 166 0030 FFF7FEFF 		bl	SPI0_WriteTxData
 130:.\Generated_Source\PSoC5/ETH0.c **** 	SPI0_WriteTxData( 0 );
 167              		.loc 1 130 0
 168 0034 4FF00000 		mov	r0, #0
 169 0038 FFF7FEFF 		bl	SPI0_WriteTxData
 131:.\Generated_Source\PSoC5/ETH0.c **** 	/* Wait for operations to complete. */
 132:.\Generated_Source\PSoC5/ETH0.c **** 	CyDelayUs( 5 );
 170              		.loc 1 132 0
 171 003c 4FF00500 		mov	r0, #5
 172 0040 FFF7FEFF 		bl	CyDelayUs
 133:.\Generated_Source\PSoC5/ETH0.c **** 	count = SPI0_GetRxBufferSize();
 173              		.loc 1 133 0
 174 0044 FFF7FEFF 		bl	SPI0_GetRxBufferSize
 175 0048 0346     		mov	r3, r0
 176 004a BB60     		str	r3, [r7, #8]
 134:.\Generated_Source\PSoC5/ETH0.c **** 	while( count > 0 )
 177              		.loc 1 134 0
 178 004c 07E0     		b	.L4
 179              	.L5:
 135:.\Generated_Source\PSoC5/ETH0.c **** 	{
 136:.\Generated_Source\PSoC5/ETH0.c **** 		dat = SPI0_ReadRxData(); 
 180              		.loc 1 136 0
 181 004e FFF7FEFF 		bl	SPI0_ReadRxData
 182 0052 0346     		mov	r3, r0
 183 0054 FB60     		str	r3, [r7, #12]
 137:.\Generated_Source\PSoC5/ETH0.c **** 		count = SPI0_GetRxBufferSize();
 184              		.loc 1 137 0
 185 0056 FFF7FEFF 		bl	SPI0_GetRxBufferSize
 186 005a 0346     		mov	r3, r0
 187 005c BB60     		str	r3, [r7, #8]
 188              	.L4:
 134:.\Generated_Source\PSoC5/ETH0.c **** 	while( count > 0 )
 189              		.loc 1 134 0 discriminator 1
 190 005e BB68     		ldr	r3, [r7, #8]
 191 0060 002B     		cmp	r3, #0
 192 0062 F4D1     		bne	.L5
 138:.\Generated_Source\PSoC5/ETH0.c **** 	}
 139:.\Generated_Source\PSoC5/ETH0.c **** 	
 140:.\Generated_Source\PSoC5/ETH0.c **** 	return( dat&0xFF );
 193              		.loc 1 140 0
 194 0064 FB68     		ldr	r3, [r7, #12]
 195 0066 DBB2     		uxtb	r3, r3
 141:.\Generated_Source\PSoC5/ETH0.c **** }
 196              		.loc 1 141 0
ARM GAS  C:\Users\CHUCK~1.ERH\AppData\Local\Temp\cco8cCZX.s 			page 7


 197 0068 1846     		mov	r0, r3
 198 006a 07F11007 		add	r7, r7, #16
 199 006e BD46     		mov	sp, r7
 200 0070 80BD     		pop	{r7, pc}
 201              		.cfi_endproc
 202              	.LFE2:
 203              		.size	ETH0_W51_Read, .-ETH0_W51_Read
 204 0072 00BF     		.section	.text.ETH0_W51_SetMAC,"ax",%progbits
 205              		.align	2
 206              		.thumb
 207              		.thumb_func
 208              		.type	ETH0_W51_SetMAC, %function
 209              	ETH0_W51_SetMAC:
 210              	.LFB3:
 142:.\Generated_Source\PSoC5/ETH0.c **** /* ======================================================================== */
 143:.\Generated_Source\PSoC5/ETH0.c **** /* SCB Specific Functions */
 144:.\Generated_Source\PSoC5/ETH0.c **** #else
 145:.\Generated_Source\PSoC5/ETH0.c **** /* include SPI function header for the SCB */
 146:.\Generated_Source\PSoC5/ETH0.c **** #include <SPI0_SPI_UART.h>
 147:.\Generated_Source\PSoC5/ETH0.c **** 	
 148:.\Generated_Source\PSoC5/ETH0.c **** /* ------------------------------------------------------------------------ */
 149:.\Generated_Source\PSoC5/ETH0.c **** /**
 150:.\Generated_Source\PSoC5/ETH0.c ****  * \brief Select the active SCB chip select connected to the W51
 151:.\Generated_Source\PSoC5/ETH0.c ****  *
 152:.\Generated_Source\PSoC5/ETH0.c ****  * this fucntion will set the active SS line within the SCB to select and
 153:.\Generated_Source\PSoC5/ETH0.c ****  * communicate with the W5100 device.
 154:.\Generated_Source\PSoC5/ETH0.c ****  */
 155:.\Generated_Source\PSoC5/ETH0.c **** static inline void ETH0_W51_Select( void )
 156:.\Generated_Source\PSoC5/ETH0.c **** {
 157:.\Generated_Source\PSoC5/ETH0.c **** #if (0 == 0)
 158:.\Generated_Source\PSoC5/ETH0.c **** 	SPI0_SpiSetActiveSlaveSelect( SPI0_SPIM_ACTIVE_SS0 );
 159:.\Generated_Source\PSoC5/ETH0.c **** #elif (0 == 1)
 160:.\Generated_Source\PSoC5/ETH0.c **** 	SPI0_SpiSetActiveSlaveSelect( SPI0_SPIM_ACTIVE_SS1 );
 161:.\Generated_Source\PSoC5/ETH0.c **** #elif (0 == 2)
 162:.\Generated_Source\PSoC5/ETH0.c **** 	SPI0_SpiSetActiveSlaveSelect( SPI0_SPIM_ACTIVE_SS2 );
 163:.\Generated_Source\PSoC5/ETH0.c **** #elif (0 == 3)
 164:.\Generated_Source\PSoC5/ETH0.c **** 	SPI0_SpiSetActiveSlaveSelect( SPI0_SPIM_ACTIVE_SS3 );
 165:.\Generated_Source\PSoC5/ETH0.c **** #else
 166:.\Generated_Source\PSoC5/ETH0.c **** 		SPI0_SpiSetActiveSlaveSelect(0);
 167:.\Generated_Source\PSoC5/ETH0.c **** #endif
 168:.\Generated_Source\PSoC5/ETH0.c **** }
 169:.\Generated_Source\PSoC5/ETH0.c **** /* ------------------------------------------------------------------------ */
 170:.\Generated_Source\PSoC5/ETH0.c **** /**
 171:.\Generated_Source\PSoC5/ETH0.c ****  * \brief write Data to the W5100 at the specified address
 172:.\Generated_Source\PSoC5/ETH0.c ****  * \param addr Address of register or memory buffer
 173:.\Generated_Source\PSoC5/ETH0.c ****  * \param dat Data to write to the device
 174:.\Generated_Source\PSoC5/ETH0.c ****  *
 175:.\Generated_Source\PSoC5/ETH0.c ****  * This function will send the WRITE opcode, address and data to the W5100
 176:.\Generated_Source\PSoC5/ETH0.c ****  * in order to write the data to the specified register.
 177:.\Generated_Source\PSoC5/ETH0.c ****  */
 178:.\Generated_Source\PSoC5/ETH0.c **** void ETH0_W51_Write(uint16 addr, uint8 dat)
 179:.\Generated_Source\PSoC5/ETH0.c **** {
 180:.\Generated_Source\PSoC5/ETH0.c **** 	/* Using internal device SS generation */
 181:.\Generated_Source\PSoC5/ETH0.c **** 	ETH0_W51_Select();
 182:.\Generated_Source\PSoC5/ETH0.c **** 	/*
 183:.\Generated_Source\PSoC5/ETH0.c **** 	 * The first thing to do is to clear the Rx Buffer of any lingering
 184:.\Generated_Source\PSoC5/ETH0.c **** 	 * data left from other transfers.  Then send the data per the W5100
ARM GAS  C:\Users\CHUCK~1.ERH\AppData\Local\Temp\cco8cCZX.s 			page 8


 185:.\Generated_Source\PSoC5/ETH0.c **** 	 * datasheet p.62
 186:.\Generated_Source\PSoC5/ETH0.c **** 	 */
 187:.\Generated_Source\PSoC5/ETH0.c **** 	SPI0_SpiUartClearRxBuffer();
 188:.\Generated_Source\PSoC5/ETH0.c **** 	/* Begin transfer of data to device */
 189:.\Generated_Source\PSoC5/ETH0.c **** 	SPI0_SpiUartWriteTxData(ETH0_WRITE_OP);
 190:.\Generated_Source\PSoC5/ETH0.c **** 	SPI0_SpiUartWriteTxData((addr>>8)&0x00FF);
 191:.\Generated_Source\PSoC5/ETH0.c **** 	SPI0_SpiUartWriteTxData(addr&0x00FF);
 192:.\Generated_Source\PSoC5/ETH0.c **** 	SPI0_SpiUartWriteTxData(dat);
 193:.\Generated_Source\PSoC5/ETH0.c **** 	/* Wait for operation to end */
 194:.\Generated_Source\PSoC5/ETH0.c **** 	CyDelayUs(5); /* At 6 MBPS it will take approx 6 uS to send the data */
 195:.\Generated_Source\PSoC5/ETH0.c **** }
 196:.\Generated_Source\PSoC5/ETH0.c **** /* ------------------------------------------------------------------------ */
 197:.\Generated_Source\PSoC5/ETH0.c **** /**
 198:.\Generated_Source\PSoC5/ETH0.c ****  * \brief Read data from the W5100 at the spsecified address
 199:.\Generated_Source\PSoC5/ETH0.c ****  * \param addr Address from which to read
 200:.\Generated_Source\PSoC5/ETH0.c ****  * \returns the data read from the address
 201:.\Generated_Source\PSoC5/ETH0.c ****  *
 202:.\Generated_Source\PSoC5/ETH0.c ****  * this fucntion will access a W5100 memory location and read the contents
 203:.\Generated_Source\PSoC5/ETH0.c ****  * using the serial protocol specified on P.61 of the datasheet.
 204:.\Generated_Source\PSoC5/ETH0.c ****  */
 205:.\Generated_Source\PSoC5/ETH0.c **** uint8 ETH0_W51_Read(uint16 addr)
 206:.\Generated_Source\PSoC5/ETH0.c **** {
 207:.\Generated_Source\PSoC5/ETH0.c **** 	uint32 dat;
 208:.\Generated_Source\PSoC5/ETH0.c **** 	uint32 count;
 209:.\Generated_Source\PSoC5/ETH0.c **** 	
 210:.\Generated_Source\PSoC5/ETH0.c **** 	/* Using internal device SS generation */
 211:.\Generated_Source\PSoC5/ETH0.c **** 	ETH0_W51_Select();
 212:.\Generated_Source\PSoC5/ETH0.c **** 	/*
 213:.\Generated_Source\PSoC5/ETH0.c **** 	 * First, clear the Rx Buffer of any waiting data.  Then begin the
 214:.\Generated_Source\PSoC5/ETH0.c **** 	 * read operation by sending the op code, followed byte the address
 215:.\Generated_Source\PSoC5/ETH0.c **** 	 * from which the read will be executed, then send a dummy byte
 216:.\Generated_Source\PSoC5/ETH0.c **** 	 * of zeros to read the data from the device.
 217:.\Generated_Source\PSoC5/ETH0.c **** 	 */
 218:.\Generated_Source\PSoC5/ETH0.c **** 	SPI0_SpiUartClearRxBuffer();
 219:.\Generated_Source\PSoC5/ETH0.c **** 	/* Begin data read */
 220:.\Generated_Source\PSoC5/ETH0.c **** 	SPI0_SpiUartWriteTxData(ETH0_READ_OP);
 221:.\Generated_Source\PSoC5/ETH0.c **** 	SPI0_SpiUartWriteTxData(addr>>8);
 222:.\Generated_Source\PSoC5/ETH0.c **** 	SPI0_SpiUartWriteTxData(addr&0x00FF);
 223:.\Generated_Source\PSoC5/ETH0.c **** 	SPI0_SpiUartWriteTxData( 0 );
 224:.\Generated_Source\PSoC5/ETH0.c **** 	/* Wait for operations to complete. */
 225:.\Generated_Source\PSoC5/ETH0.c **** 	CyDelayUs( 5 );
 226:.\Generated_Source\PSoC5/ETH0.c **** 	count = SPI0_SpiUartGetRxBufferSize();
 227:.\Generated_Source\PSoC5/ETH0.c **** 	while( count > 0 )
 228:.\Generated_Source\PSoC5/ETH0.c **** 	{
 229:.\Generated_Source\PSoC5/ETH0.c **** 		dat = SPI0_SpiUartReadRxData(); 
 230:.\Generated_Source\PSoC5/ETH0.c **** 		count = SPI0_SpiUartGetRxBufferSize();
 231:.\Generated_Source\PSoC5/ETH0.c **** 	}
 232:.\Generated_Source\PSoC5/ETH0.c **** 	
 233:.\Generated_Source\PSoC5/ETH0.c **** 	return( dat&0xFF );
 234:.\Generated_Source\PSoC5/ETH0.c **** }
 235:.\Generated_Source\PSoC5/ETH0.c **** 
 236:.\Generated_Source\PSoC5/ETH0.c **** #endif
 237:.\Generated_Source\PSoC5/ETH0.c **** 
 238:.\Generated_Source\PSoC5/ETH0.c **** /* ======================================================================== */
 239:.\Generated_Source\PSoC5/ETH0.c **** /* W5100 Register Access Primitaves */
 240:.\Generated_Source\PSoC5/ETH0.c **** #if (1)
 241:.\Generated_Source\PSoC5/ETH0.c **** /* ------------------------------------------------------------------------ */
ARM GAS  C:\Users\CHUCK~1.ERH\AppData\Local\Temp\cco8cCZX.s 			page 9


 242:.\Generated_Source\PSoC5/ETH0.c **** /**
 243:.\Generated_Source\PSoC5/ETH0.c ****  * \brief Write a MAC (hardware) address to a group of registers
 244:.\Generated_Source\PSoC5/ETH0.c ****  * \param addr The starting address of the registers/memory for the MAC address
 245:.\Generated_Source\PSoC5/ETH0.c ****  * \param *mac pointer to the array of bytes holding the MAC address.
 246:.\Generated_Source\PSoC5/ETH0.c ****  */
 247:.\Generated_Source\PSoC5/ETH0.c **** static void ETH0_W51_SetMAC(uint16 addr, uint8 *mac)
 248:.\Generated_Source\PSoC5/ETH0.c **** {
 211              		.loc 1 248 0
 212              		.cfi_startproc
 213              		@ args = 0, pretend = 0, frame = 16
 214              		@ frame_needed = 1, uses_anonymous_args = 0
 215 0000 80B5     		push	{r7, lr}
 216              	.LCFI8:
 217              		.cfi_def_cfa_offset 8
 218              		.cfi_offset 7, -8
 219              		.cfi_offset 14, -4
 220 0002 84B0     		sub	sp, sp, #16
 221              	.LCFI9:
 222              		.cfi_def_cfa_offset 24
 223 0004 00AF     		add	r7, sp, #0
 224              	.LCFI10:
 225              		.cfi_def_cfa_register 7
 226 0006 0346     		mov	r3, r0
 227 0008 3960     		str	r1, [r7, #0]
 228 000a FB80     		strh	r3, [r7, #6]	@ movhi
 249:.\Generated_Source\PSoC5/ETH0.c **** 	uint32 index;
 250:.\Generated_Source\PSoC5/ETH0.c **** 	
 251:.\Generated_Source\PSoC5/ETH0.c **** 	for(index = 0;index<6;++index)
 229              		.loc 1 251 0
 230 000c 4FF00003 		mov	r3, #0
 231 0010 FB60     		str	r3, [r7, #12]
 232 0012 10E0     		b	.L8
 233              	.L9:
 252:.\Generated_Source\PSoC5/ETH0.c **** 	{
 253:.\Generated_Source\PSoC5/ETH0.c **** 		ETH0_W51_Write(addr+index,mac[index]);
 234              		.loc 1 253 0 discriminator 2
 235 0014 FB68     		ldr	r3, [r7, #12]
 236 0016 9AB2     		uxth	r2, r3
 237 0018 FB88     		ldrh	r3, [r7, #6]	@ movhi
 238 001a D318     		adds	r3, r2, r3
 239 001c 9AB2     		uxth	r2, r3
 240 001e 3968     		ldr	r1, [r7, #0]
 241 0020 FB68     		ldr	r3, [r7, #12]
 242 0022 CB18     		adds	r3, r1, r3
 243 0024 1B78     		ldrb	r3, [r3, #0]	@ zero_extendqisi2
 244 0026 1046     		mov	r0, r2
 245 0028 1946     		mov	r1, r3
 246 002a FFF7FEFF 		bl	ETH0_W51_Write
 251:.\Generated_Source\PSoC5/ETH0.c **** 	for(index = 0;index<6;++index)
 247              		.loc 1 251 0 discriminator 2
 248 002e FB68     		ldr	r3, [r7, #12]
 249 0030 03F10103 		add	r3, r3, #1
 250 0034 FB60     		str	r3, [r7, #12]
 251              	.L8:
 251:.\Generated_Source\PSoC5/ETH0.c **** 	for(index = 0;index<6;++index)
 252              		.loc 1 251 0 is_stmt 0 discriminator 1
 253 0036 FB68     		ldr	r3, [r7, #12]
ARM GAS  C:\Users\CHUCK~1.ERH\AppData\Local\Temp\cco8cCZX.s 			page 10


 254 0038 052B     		cmp	r3, #5
 255 003a EBD9     		bls	.L9
 254:.\Generated_Source\PSoC5/ETH0.c **** 	}
 255:.\Generated_Source\PSoC5/ETH0.c **** }
 256              		.loc 1 255 0 is_stmt 1
 257 003c 07F11007 		add	r7, r7, #16
 258 0040 BD46     		mov	sp, r7
 259 0042 80BD     		pop	{r7, pc}
 260              		.cfi_endproc
 261              	.LFE3:
 262              		.size	ETH0_W51_SetMAC, .-ETH0_W51_SetMAC
 263              		.section	.text.ETH0_W51_GetMAC,"ax",%progbits
 264              		.align	2
 265              		.thumb
 266              		.thumb_func
 267              		.type	ETH0_W51_GetMAC, %function
 268              	ETH0_W51_GetMAC:
 269              	.LFB4:
 256:.\Generated_Source\PSoC5/ETH0.c **** /* ------------------------------------------------------------------------ */
 257:.\Generated_Source\PSoC5/ETH0.c **** /**
 258:.\Generated_Source\PSoC5/ETH0.c ****  * \brief Read a MAC (hardware) address from a set of registers.
 259:.\Generated_Source\PSoC5/ETH0.c ****  * \param addr the address from which the data will be read
 260:.\Generated_Source\PSoC5/ETH0.c ****  * \param *mac pointer to the array of bytes to hold the output mac address.
 261:.\Generated_Source\PSoC5/ETH0.c ****  */
 262:.\Generated_Source\PSoC5/ETH0.c **** static void ETH0_W51_GetMAC( uint16 addr, uint8* mac )
 263:.\Generated_Source\PSoC5/ETH0.c **** {
 270              		.loc 1 263 0
 271              		.cfi_startproc
 272              		@ args = 0, pretend = 0, frame = 16
 273              		@ frame_needed = 1, uses_anonymous_args = 0
 274 0000 90B5     		push	{r4, r7, lr}
 275              	.LCFI11:
 276              		.cfi_def_cfa_offset 12
 277              		.cfi_offset 4, -12
 278              		.cfi_offset 7, -8
 279              		.cfi_offset 14, -4
 280 0002 85B0     		sub	sp, sp, #20
 281              	.LCFI12:
 282              		.cfi_def_cfa_offset 32
 283 0004 00AF     		add	r7, sp, #0
 284              	.LCFI13:
 285              		.cfi_def_cfa_register 7
 286 0006 0346     		mov	r3, r0
 287 0008 3960     		str	r1, [r7, #0]
 288 000a FB80     		strh	r3, [r7, #6]	@ movhi
 264:.\Generated_Source\PSoC5/ETH0.c **** 	uint32 index;
 265:.\Generated_Source\PSoC5/ETH0.c **** 	for(index=0;index<6;++index) {
 289              		.loc 1 265 0
 290 000c 4FF00003 		mov	r3, #0
 291 0010 FB60     		str	r3, [r7, #12]
 292 0012 10E0     		b	.L11
 293              	.L12:
 266:.\Generated_Source\PSoC5/ETH0.c **** 		mac[index] = ETH0_W51_Read(addr+index);
 294              		.loc 1 266 0 discriminator 2
 295 0014 3A68     		ldr	r2, [r7, #0]
 296 0016 FB68     		ldr	r3, [r7, #12]
 297 0018 D418     		adds	r4, r2, r3
ARM GAS  C:\Users\CHUCK~1.ERH\AppData\Local\Temp\cco8cCZX.s 			page 11


 298 001a FB68     		ldr	r3, [r7, #12]
 299 001c 9AB2     		uxth	r2, r3
 300 001e FB88     		ldrh	r3, [r7, #6]	@ movhi
 301 0020 D318     		adds	r3, r2, r3
 302 0022 9BB2     		uxth	r3, r3
 303 0024 1846     		mov	r0, r3
 304 0026 FFF7FEFF 		bl	ETH0_W51_Read
 305 002a 0346     		mov	r3, r0
 306 002c 2370     		strb	r3, [r4, #0]
 265:.\Generated_Source\PSoC5/ETH0.c **** 	for(index=0;index<6;++index) {
 307              		.loc 1 265 0 discriminator 2
 308 002e FB68     		ldr	r3, [r7, #12]
 309 0030 03F10103 		add	r3, r3, #1
 310 0034 FB60     		str	r3, [r7, #12]
 311              	.L11:
 265:.\Generated_Source\PSoC5/ETH0.c **** 	for(index=0;index<6;++index) {
 312              		.loc 1 265 0 is_stmt 0 discriminator 1
 313 0036 FB68     		ldr	r3, [r7, #12]
 314 0038 052B     		cmp	r3, #5
 315 003a EBD9     		bls	.L12
 267:.\Generated_Source\PSoC5/ETH0.c **** 	}
 268:.\Generated_Source\PSoC5/ETH0.c **** }
 316              		.loc 1 268 0 is_stmt 1
 317 003c 07F11407 		add	r7, r7, #20
 318 0040 BD46     		mov	sp, r7
 319 0042 90BD     		pop	{r4, r7, pc}
 320              		.cfi_endproc
 321              	.LFE4:
 322              		.size	ETH0_W51_GetMAC, .-ETH0_W51_GetMAC
 323              		.section	.text.ETH0_W51_SetIP,"ax",%progbits
 324              		.align	2
 325              		.thumb
 326              		.thumb_func
 327              		.type	ETH0_W51_SetIP, %function
 328              	ETH0_W51_SetIP:
 329              	.LFB5:
 269:.\Generated_Source\PSoC5/ETH0.c **** /* ------------------------------------------------------------------------ */
 270:.\Generated_Source\PSoC5/ETH0.c **** /**
 271:.\Generated_Source\PSoC5/ETH0.c ****  * \brief Write an IPv4 address to the device.
 272:.\Generated_Source\PSoC5/ETH0.c ****  * \param addr the address of the memory/registers to write the IPv4 Address
 273:.\Generated_Source\PSoC5/ETH0.c ****  * \param ip the IP address to write
 274:.\Generated_Source\PSoC5/ETH0.c ****  */
 275:.\Generated_Source\PSoC5/ETH0.c **** static void ETH0_W51_SetIP( uint16 addr, uint32 ip )
 276:.\Generated_Source\PSoC5/ETH0.c **** {
 330              		.loc 1 276 0
 331              		.cfi_startproc
 332              		@ args = 0, pretend = 0, frame = 16
 333              		@ frame_needed = 1, uses_anonymous_args = 0
 334 0000 80B5     		push	{r7, lr}
 335              	.LCFI14:
 336              		.cfi_def_cfa_offset 8
 337              		.cfi_offset 7, -8
 338              		.cfi_offset 14, -4
 339 0002 84B0     		sub	sp, sp, #16
 340              	.LCFI15:
 341              		.cfi_def_cfa_offset 24
 342 0004 00AF     		add	r7, sp, #0
ARM GAS  C:\Users\CHUCK~1.ERH\AppData\Local\Temp\cco8cCZX.s 			page 12


 343              	.LCFI16:
 344              		.cfi_def_cfa_register 7
 345 0006 0346     		mov	r3, r0
 346 0008 3960     		str	r1, [r7, #0]
 347 000a FB80     		strh	r3, [r7, #6]	@ movhi
 277:.\Generated_Source\PSoC5/ETH0.c **** 	uint32 index;
 278:.\Generated_Source\PSoC5/ETH0.c **** 	uint8* buffer;
 279:.\Generated_Source\PSoC5/ETH0.c **** 
 280:.\Generated_Source\PSoC5/ETH0.c **** 	buffer = (uint8*)&ip;
 348              		.loc 1 280 0
 349 000c 3B46     		mov	r3, r7
 350 000e BB60     		str	r3, [r7, #8]
 281:.\Generated_Source\PSoC5/ETH0.c **** 	for(index = 0;index<4;++index) {
 351              		.loc 1 281 0
 352 0010 4FF00003 		mov	r3, #0
 353 0014 FB60     		str	r3, [r7, #12]
 354 0016 10E0     		b	.L14
 355              	.L15:
 282:.\Generated_Source\PSoC5/ETH0.c **** 		ETH0_W51_Write(addr+index,buffer[index]);
 356              		.loc 1 282 0 discriminator 2
 357 0018 FB68     		ldr	r3, [r7, #12]
 358 001a 9AB2     		uxth	r2, r3
 359 001c FB88     		ldrh	r3, [r7, #6]	@ movhi
 360 001e D318     		adds	r3, r2, r3
 361 0020 9AB2     		uxth	r2, r3
 362 0022 B968     		ldr	r1, [r7, #8]
 363 0024 FB68     		ldr	r3, [r7, #12]
 364 0026 CB18     		adds	r3, r1, r3
 365 0028 1B78     		ldrb	r3, [r3, #0]	@ zero_extendqisi2
 366 002a 1046     		mov	r0, r2
 367 002c 1946     		mov	r1, r3
 368 002e FFF7FEFF 		bl	ETH0_W51_Write
 281:.\Generated_Source\PSoC5/ETH0.c **** 	for(index = 0;index<4;++index) {
 369              		.loc 1 281 0 discriminator 2
 370 0032 FB68     		ldr	r3, [r7, #12]
 371 0034 03F10103 		add	r3, r3, #1
 372 0038 FB60     		str	r3, [r7, #12]
 373              	.L14:
 281:.\Generated_Source\PSoC5/ETH0.c **** 	for(index = 0;index<4;++index) {
 374              		.loc 1 281 0 is_stmt 0 discriminator 1
 375 003a FB68     		ldr	r3, [r7, #12]
 376 003c 032B     		cmp	r3, #3
 377 003e EBD9     		bls	.L15
 283:.\Generated_Source\PSoC5/ETH0.c **** 	}
 284:.\Generated_Source\PSoC5/ETH0.c **** }
 378              		.loc 1 284 0 is_stmt 1
 379 0040 07F11007 		add	r7, r7, #16
 380 0044 BD46     		mov	sp, r7
 381 0046 80BD     		pop	{r7, pc}
 382              		.cfi_endproc
 383              	.LFE5:
 384              		.size	ETH0_W51_SetIP, .-ETH0_W51_SetIP
 385              		.section	.text.ETH0_W51_GetIP,"ax",%progbits
 386              		.align	2
 387              		.thumb
 388              		.thumb_func
 389              		.type	ETH0_W51_GetIP, %function
ARM GAS  C:\Users\CHUCK~1.ERH\AppData\Local\Temp\cco8cCZX.s 			page 13


 390              	ETH0_W51_GetIP:
 391              	.LFB6:
 285:.\Generated_Source\PSoC5/ETH0.c **** /* ------------------------------------------------------------------------ */
 286:.\Generated_Source\PSoC5/ETH0.c **** /**
 287:.\Generated_Source\PSoC5/ETH0.c ****  * \brief Read an IPv4 address from a set of registers
 288:.\Generated_Source\PSoC5/ETH0.c ****  * \param addr the address from which the IP address will be retrieved.
 289:.\Generated_Source\PSoC5/ETH0.c ****  * \returns the IP address read from the device.
 290:.\Generated_Source\PSoC5/ETH0.c ****  */
 291:.\Generated_Source\PSoC5/ETH0.c **** static uint32 ETH0_W51_GetIP( uint16 addr )
 292:.\Generated_Source\PSoC5/ETH0.c **** {
 392              		.loc 1 292 0
 393              		.cfi_startproc
 394              		@ args = 0, pretend = 0, frame = 24
 395              		@ frame_needed = 1, uses_anonymous_args = 0
 396 0000 80B5     		push	{r7, lr}
 397              	.LCFI17:
 398              		.cfi_def_cfa_offset 8
 399              		.cfi_offset 7, -8
 400              		.cfi_offset 14, -4
 401 0002 86B0     		sub	sp, sp, #24
 402              	.LCFI18:
 403              		.cfi_def_cfa_offset 32
 404 0004 00AF     		add	r7, sp, #0
 405              	.LCFI19:
 406              		.cfi_def_cfa_register 7
 407 0006 0346     		mov	r3, r0
 408 0008 FB80     		strh	r3, [r7, #6]	@ movhi
 293:.\Generated_Source\PSoC5/ETH0.c **** 	uint8 buffer[4];
 294:.\Generated_Source\PSoC5/ETH0.c **** 	int index;
 295:.\Generated_Source\PSoC5/ETH0.c **** 	uint32* ip;
 296:.\Generated_Source\PSoC5/ETH0.c **** 	
 297:.\Generated_Source\PSoC5/ETH0.c **** 	ip = (uint32*) &buffer[0];
 409              		.loc 1 297 0
 410 000a 07F10C03 		add	r3, r7, #12
 411 000e 3B61     		str	r3, [r7, #16]
 298:.\Generated_Source\PSoC5/ETH0.c **** 	*ip = 0;
 412              		.loc 1 298 0
 413 0010 3B69     		ldr	r3, [r7, #16]
 414 0012 4FF00002 		mov	r2, #0
 415 0016 1A60     		str	r2, [r3, #0]
 299:.\Generated_Source\PSoC5/ETH0.c **** 	for(index=0;index<4;++index) {
 416              		.loc 1 299 0
 417 0018 4FF00003 		mov	r3, #0
 418 001c 7B61     		str	r3, [r7, #20]
 419 001e 12E0     		b	.L17
 420              	.L18:
 300:.\Generated_Source\PSoC5/ETH0.c **** 		buffer[index] = ETH0_W51_Read(addr+index);
 421              		.loc 1 300 0 discriminator 2
 422 0020 7B69     		ldr	r3, [r7, #20]
 423 0022 9AB2     		uxth	r2, r3
 424 0024 FB88     		ldrh	r3, [r7, #6]	@ movhi
 425 0026 D318     		adds	r3, r2, r3
 426 0028 9BB2     		uxth	r3, r3
 427 002a 1846     		mov	r0, r3
 428 002c FFF7FEFF 		bl	ETH0_W51_Read
 429 0030 0346     		mov	r3, r0
 430 0032 1A46     		mov	r2, r3
ARM GAS  C:\Users\CHUCK~1.ERH\AppData\Local\Temp\cco8cCZX.s 			page 14


 431 0034 07F10C01 		add	r1, r7, #12
 432 0038 7B69     		ldr	r3, [r7, #20]
 433 003a CB18     		adds	r3, r1, r3
 434 003c 1A70     		strb	r2, [r3, #0]
 299:.\Generated_Source\PSoC5/ETH0.c **** 	for(index=0;index<4;++index) {
 435              		.loc 1 299 0 discriminator 2
 436 003e 7B69     		ldr	r3, [r7, #20]
 437 0040 03F10103 		add	r3, r3, #1
 438 0044 7B61     		str	r3, [r7, #20]
 439              	.L17:
 299:.\Generated_Source\PSoC5/ETH0.c **** 	for(index=0;index<4;++index) {
 440              		.loc 1 299 0 is_stmt 0 discriminator 1
 441 0046 7B69     		ldr	r3, [r7, #20]
 442 0048 032B     		cmp	r3, #3
 443 004a E9DD     		ble	.L18
 301:.\Generated_Source\PSoC5/ETH0.c **** 	}
 302:.\Generated_Source\PSoC5/ETH0.c **** 	return( *ip );
 444              		.loc 1 302 0 is_stmt 1
 445 004c 3B69     		ldr	r3, [r7, #16]
 446 004e 1B68     		ldr	r3, [r3, #0]
 303:.\Generated_Source\PSoC5/ETH0.c **** }
 447              		.loc 1 303 0
 448 0050 1846     		mov	r0, r3
 449 0052 07F11807 		add	r7, r7, #24
 450 0056 BD46     		mov	sp, r7
 451 0058 80BD     		pop	{r7, pc}
 452              		.cfi_endproc
 453              	.LFE6:
 454              		.size	ETH0_W51_GetIP, .-ETH0_W51_GetIP
 455 005a 00BF     		.section	.text.ETH0_W51_Write16,"ax",%progbits
 456              		.align	2
 457              		.thumb
 458              		.thumb_func
 459              		.type	ETH0_W51_Write16, %function
 460              	ETH0_W51_Write16:
 461              	.LFB7:
 304:.\Generated_Source\PSoC5/ETH0.c **** /* ------------------------------------------------------------------------ */
 305:.\Generated_Source\PSoC5/ETH0.c **** /**
 306:.\Generated_Source\PSoC5/ETH0.c ****  * \brief Write a 16-bit word to the device
 307:.\Generated_Source\PSoC5/ETH0.c ****  * \param addr the starting address to which the data will be written
 308:.\Generated_Source\PSoC5/ETH0.c ****  * \param val the 16-bit value to write
 309:.\Generated_Source\PSoC5/ETH0.c ****  */
 310:.\Generated_Source\PSoC5/ETH0.c **** static void ETH0_W51_Write16( uint16 addr, uint16 val )
 311:.\Generated_Source\PSoC5/ETH0.c **** {
 462              		.loc 1 311 0
 463              		.cfi_startproc
 464              		@ args = 0, pretend = 0, frame = 8
 465              		@ frame_needed = 1, uses_anonymous_args = 0
 466 0000 80B5     		push	{r7, lr}
 467              	.LCFI20:
 468              		.cfi_def_cfa_offset 8
 469              		.cfi_offset 7, -8
 470              		.cfi_offset 14, -4
 471 0002 82B0     		sub	sp, sp, #8
 472              	.LCFI21:
 473              		.cfi_def_cfa_offset 16
 474 0004 00AF     		add	r7, sp, #0
ARM GAS  C:\Users\CHUCK~1.ERH\AppData\Local\Temp\cco8cCZX.s 			page 15


 475              	.LCFI22:
 476              		.cfi_def_cfa_register 7
 477 0006 0246     		mov	r2, r0
 478 0008 0B46     		mov	r3, r1
 479 000a FA80     		strh	r2, [r7, #6]	@ movhi
 480 000c BB80     		strh	r3, [r7, #4]	@ movhi
 312:.\Generated_Source\PSoC5/ETH0.c **** 	ETH0_W51_Write( addr, val>>8);
 481              		.loc 1 312 0
 482 000e BB88     		ldrh	r3, [r7, #4]
 483 0010 4FEA1323 		lsr	r3, r3, #8
 484 0014 9BB2     		uxth	r3, r3
 485 0016 DBB2     		uxtb	r3, r3
 486 0018 FA88     		ldrh	r2, [r7, #6]
 487 001a 1046     		mov	r0, r2
 488 001c 1946     		mov	r1, r3
 489 001e FFF7FEFF 		bl	ETH0_W51_Write
 313:.\Generated_Source\PSoC5/ETH0.c **** 	ETH0_W51_Write( addr + 1, val&0x00FF);
 490              		.loc 1 313 0
 491 0022 FB88     		ldrh	r3, [r7, #6]	@ movhi
 492 0024 03F10103 		add	r3, r3, #1
 493 0028 9AB2     		uxth	r2, r3
 494 002a BB88     		ldrh	r3, [r7, #4]	@ movhi
 495 002c DBB2     		uxtb	r3, r3
 496 002e 1046     		mov	r0, r2
 497 0030 1946     		mov	r1, r3
 498 0032 FFF7FEFF 		bl	ETH0_W51_Write
 314:.\Generated_Source\PSoC5/ETH0.c **** }
 499              		.loc 1 314 0
 500 0036 07F10807 		add	r7, r7, #8
 501 003a BD46     		mov	sp, r7
 502 003c 80BD     		pop	{r7, pc}
 503              		.cfi_endproc
 504              	.LFE7:
 505              		.size	ETH0_W51_Write16, .-ETH0_W51_Write16
 506 003e 00BF     		.section	.text.ETH0_W51_Read16,"ax",%progbits
 507              		.align	2
 508              		.thumb
 509              		.thumb_func
 510              		.type	ETH0_W51_Read16, %function
 511              	ETH0_W51_Read16:
 512              	.LFB8:
 315:.\Generated_Source\PSoC5/ETH0.c **** /* ------------------------------------------------------------------------ */
 316:.\Generated_Source\PSoC5/ETH0.c **** /**
 317:.\Generated_Source\PSoC5/ETH0.c ****  * \brief Read a 16-bit value from the device
 318:.\Generated_Source\PSoC5/ETH0.c ****  * \param addr The starting address from which data will be read
 319:.\Generated_Source\PSoC5/ETH0.c ****  * \returns the 16-bit value read from the memory.
 320:.\Generated_Source\PSoC5/ETH0.c ****  */
 321:.\Generated_Source\PSoC5/ETH0.c **** static uint16 ETH0_W51_Read16( uint16 addr )
 322:.\Generated_Source\PSoC5/ETH0.c **** {
 513              		.loc 1 322 0
 514              		.cfi_startproc
 515              		@ args = 0, pretend = 0, frame = 16
 516              		@ frame_needed = 1, uses_anonymous_args = 0
 517 0000 80B5     		push	{r7, lr}
 518              	.LCFI23:
 519              		.cfi_def_cfa_offset 8
 520              		.cfi_offset 7, -8
ARM GAS  C:\Users\CHUCK~1.ERH\AppData\Local\Temp\cco8cCZX.s 			page 16


 521              		.cfi_offset 14, -4
 522 0002 84B0     		sub	sp, sp, #16
 523              	.LCFI24:
 524              		.cfi_def_cfa_offset 24
 525 0004 00AF     		add	r7, sp, #0
 526              	.LCFI25:
 527              		.cfi_def_cfa_register 7
 528 0006 0346     		mov	r3, r0
 529 0008 FB80     		strh	r3, [r7, #6]	@ movhi
 323:.\Generated_Source\PSoC5/ETH0.c **** 	uint16 val;
 324:.\Generated_Source\PSoC5/ETH0.c **** 	
 325:.\Generated_Source\PSoC5/ETH0.c **** 	val = ETH0_W51_Read( addr );
 530              		.loc 1 325 0
 531 000a FB88     		ldrh	r3, [r7, #6]
 532 000c 1846     		mov	r0, r3
 533 000e FFF7FEFF 		bl	ETH0_W51_Read
 534 0012 0346     		mov	r3, r0
 535 0014 FB81     		strh	r3, [r7, #14]	@ movhi
 326:.\Generated_Source\PSoC5/ETH0.c **** 	val <<= 8;
 536              		.loc 1 326 0
 537 0016 FB89     		ldrh	r3, [r7, #14]	@ movhi
 538 0018 4FEA0323 		lsl	r3, r3, #8
 539 001c FB81     		strh	r3, [r7, #14]	@ movhi
 327:.\Generated_Source\PSoC5/ETH0.c **** 	val += ETH0_W51_Read( addr + 1);
 540              		.loc 1 327 0
 541 001e FB88     		ldrh	r3, [r7, #6]	@ movhi
 542 0020 03F10103 		add	r3, r3, #1
 543 0024 9BB2     		uxth	r3, r3
 544 0026 1846     		mov	r0, r3
 545 0028 FFF7FEFF 		bl	ETH0_W51_Read
 546 002c 0346     		mov	r3, r0
 547 002e 1A46     		mov	r2, r3
 548 0030 FB89     		ldrh	r3, [r7, #14]	@ movhi
 549 0032 D318     		adds	r3, r2, r3
 550 0034 FB81     		strh	r3, [r7, #14]	@ movhi
 328:.\Generated_Source\PSoC5/ETH0.c **** 	
 329:.\Generated_Source\PSoC5/ETH0.c **** 	return( val );
 551              		.loc 1 329 0
 552 0036 FB89     		ldrh	r3, [r7, #14]
 330:.\Generated_Source\PSoC5/ETH0.c **** }
 553              		.loc 1 330 0
 554 0038 1846     		mov	r0, r3
 555 003a 07F11007 		add	r7, r7, #16
 556 003e BD46     		mov	sp, r7
 557 0040 80BD     		pop	{r7, pc}
 558              		.cfi_endproc
 559              	.LFE8:
 560              		.size	ETH0_W51_Read16, .-ETH0_W51_Read16
 561 0042 00BF     		.section	.text.ETH0_W51_WriteBlock,"ax",%progbits
 562              		.align	2
 563              		.thumb
 564              		.thumb_func
 565              		.type	ETH0_W51_WriteBlock, %function
 566              	ETH0_W51_WriteBlock:
 567              	.LFB9:
 331:.\Generated_Source\PSoC5/ETH0.c **** /* ------------------------------------------------------------------------ */
 332:.\Generated_Source\PSoC5/ETH0.c **** /**
ARM GAS  C:\Users\CHUCK~1.ERH\AppData\Local\Temp\cco8cCZX.s 			page 17


 333:.\Generated_Source\PSoC5/ETH0.c ****  * \brief Write a block of data to consecutive memory addresses
 334:.\Generated_Source\PSoC5/ETH0.c ****  * \param addr the starting address of the write
 335:.\Generated_Source\PSoC5/ETH0.c ****  * \param *buffer pointer to the data buffer holding the data to write
 336:.\Generated_Source\PSoC5/ETH0.c ****  * \param length the length of data to be written
 337:.\Generated_Source\PSoC5/ETH0.c ****  */
 338:.\Generated_Source\PSoC5/ETH0.c **** static void ETH0_W51_WriteBlock(uint16 addr, uint8* buffer, uint16 length)
 339:.\Generated_Source\PSoC5/ETH0.c **** {
 568              		.loc 1 339 0
 569              		.cfi_startproc
 570              		@ args = 0, pretend = 0, frame = 16
 571              		@ frame_needed = 1, uses_anonymous_args = 0
 572 0000 80B5     		push	{r7, lr}
 573              	.LCFI26:
 574              		.cfi_def_cfa_offset 8
 575              		.cfi_offset 7, -8
 576              		.cfi_offset 14, -4
 577 0002 84B0     		sub	sp, sp, #16
 578              	.LCFI27:
 579              		.cfi_def_cfa_offset 24
 580 0004 00AF     		add	r7, sp, #0
 581              	.LCFI28:
 582              		.cfi_def_cfa_register 7
 583 0006 3960     		str	r1, [r7, #0]
 584 0008 1346     		mov	r3, r2
 585 000a 0246     		mov	r2, r0	@ movhi
 586 000c FA80     		strh	r2, [r7, #6]	@ movhi
 587 000e BB80     		strh	r3, [r7, #4]	@ movhi
 340:.\Generated_Source\PSoC5/ETH0.c **** 	int index;
 341:.\Generated_Source\PSoC5/ETH0.c **** 	for(index=0;index<length;++index) {
 588              		.loc 1 341 0
 589 0010 4FF00003 		mov	r3, #0
 590 0014 FB60     		str	r3, [r7, #12]
 591 0016 10E0     		b	.L24
 592              	.L25:
 342:.\Generated_Source\PSoC5/ETH0.c **** 		ETH0_W51_Write(addr+index,buffer[index]);
 593              		.loc 1 342 0 discriminator 2
 594 0018 FB68     		ldr	r3, [r7, #12]
 595 001a 9AB2     		uxth	r2, r3
 596 001c FB88     		ldrh	r3, [r7, #6]	@ movhi
 597 001e D318     		adds	r3, r2, r3
 598 0020 9AB2     		uxth	r2, r3
 599 0022 FB68     		ldr	r3, [r7, #12]
 600 0024 3968     		ldr	r1, [r7, #0]
 601 0026 CB18     		adds	r3, r1, r3
 602 0028 1B78     		ldrb	r3, [r3, #0]	@ zero_extendqisi2
 603 002a 1046     		mov	r0, r2
 604 002c 1946     		mov	r1, r3
 605 002e FFF7FEFF 		bl	ETH0_W51_Write
 341:.\Generated_Source\PSoC5/ETH0.c **** 	for(index=0;index<length;++index) {
 606              		.loc 1 341 0 discriminator 2
 607 0032 FB68     		ldr	r3, [r7, #12]
 608 0034 03F10103 		add	r3, r3, #1
 609 0038 FB60     		str	r3, [r7, #12]
 610              	.L24:
 341:.\Generated_Source\PSoC5/ETH0.c **** 	for(index=0;index<length;++index) {
 611              		.loc 1 341 0 is_stmt 0 discriminator 1
 612 003a BA88     		ldrh	r2, [r7, #4]
ARM GAS  C:\Users\CHUCK~1.ERH\AppData\Local\Temp\cco8cCZX.s 			page 18


 613 003c FB68     		ldr	r3, [r7, #12]
 614 003e 9A42     		cmp	r2, r3
 615 0040 EADC     		bgt	.L25
 343:.\Generated_Source\PSoC5/ETH0.c **** 	}
 344:.\Generated_Source\PSoC5/ETH0.c **** }
 616              		.loc 1 344 0 is_stmt 1
 617 0042 07F11007 		add	r7, r7, #16
 618 0046 BD46     		mov	sp, r7
 619 0048 80BD     		pop	{r7, pc}
 620              		.cfi_endproc
 621              	.LFE9:
 622              		.size	ETH0_W51_WriteBlock, .-ETH0_W51_WriteBlock
 623 004a 00BF     		.section	.text.ETH0_W51_ReadBlock,"ax",%progbits
 624              		.align	2
 625              		.thumb
 626              		.thumb_func
 627              		.type	ETH0_W51_ReadBlock, %function
 628              	ETH0_W51_ReadBlock:
 629              	.LFB10:
 345:.\Generated_Source\PSoC5/ETH0.c **** /* ------------------------------------------------------------------------ */
 346:.\Generated_Source\PSoC5/ETH0.c **** /**
 347:.\Generated_Source\PSoC5/ETH0.c ****  * \brief read a block of data from consecutive memory addresses
 348:.\Generated_Source\PSoC5/ETH0.c ****  * \param addr the address from which the read will begin
 349:.\Generated_Source\PSoC5/ETH0.c ****  * \param *buffer pointer to the memory buffer which will hold the read data
 350:.\Generated_Source\PSoC5/ETH0.c ****  * \param length the length of data to read from the buffer.
 351:.\Generated_Source\PSoC5/ETH0.c ****  */
 352:.\Generated_Source\PSoC5/ETH0.c **** static void ETH0_W51_ReadBlock(uint16 addr, uint8* buffer, uint16 length)
 353:.\Generated_Source\PSoC5/ETH0.c **** {
 630              		.loc 1 353 0
 631              		.cfi_startproc
 632              		@ args = 0, pretend = 0, frame = 16
 633              		@ frame_needed = 1, uses_anonymous_args = 0
 634 0000 90B5     		push	{r4, r7, lr}
 635              	.LCFI29:
 636              		.cfi_def_cfa_offset 12
 637              		.cfi_offset 4, -12
 638              		.cfi_offset 7, -8
 639              		.cfi_offset 14, -4
 640 0002 85B0     		sub	sp, sp, #20
 641              	.LCFI30:
 642              		.cfi_def_cfa_offset 32
 643 0004 00AF     		add	r7, sp, #0
 644              	.LCFI31:
 645              		.cfi_def_cfa_register 7
 646 0006 3960     		str	r1, [r7, #0]
 647 0008 1346     		mov	r3, r2
 648 000a 0246     		mov	r2, r0	@ movhi
 649 000c FA80     		strh	r2, [r7, #6]	@ movhi
 650 000e BB80     		strh	r3, [r7, #4]	@ movhi
 354:.\Generated_Source\PSoC5/ETH0.c **** 	int index;
 355:.\Generated_Source\PSoC5/ETH0.c **** 	
 356:.\Generated_Source\PSoC5/ETH0.c **** 	for(index=0;index<length;++index) {
 651              		.loc 1 356 0
 652 0010 4FF00003 		mov	r3, #0
 653 0014 FB60     		str	r3, [r7, #12]
 654 0016 10E0     		b	.L27
 655              	.L28:
ARM GAS  C:\Users\CHUCK~1.ERH\AppData\Local\Temp\cco8cCZX.s 			page 19


 357:.\Generated_Source\PSoC5/ETH0.c **** 		buffer[index] = ETH0_W51_Read(addr+index);
 656              		.loc 1 357 0 discriminator 2
 657 0018 FB68     		ldr	r3, [r7, #12]
 658 001a 3A68     		ldr	r2, [r7, #0]
 659 001c D418     		adds	r4, r2, r3
 660 001e FB68     		ldr	r3, [r7, #12]
 661 0020 9AB2     		uxth	r2, r3
 662 0022 FB88     		ldrh	r3, [r7, #6]	@ movhi
 663 0024 D318     		adds	r3, r2, r3
 664 0026 9BB2     		uxth	r3, r3
 665 0028 1846     		mov	r0, r3
 666 002a FFF7FEFF 		bl	ETH0_W51_Read
 667 002e 0346     		mov	r3, r0
 668 0030 2370     		strb	r3, [r4, #0]
 356:.\Generated_Source\PSoC5/ETH0.c **** 	for(index=0;index<length;++index) {
 669              		.loc 1 356 0 discriminator 2
 670 0032 FB68     		ldr	r3, [r7, #12]
 671 0034 03F10103 		add	r3, r3, #1
 672 0038 FB60     		str	r3, [r7, #12]
 673              	.L27:
 356:.\Generated_Source\PSoC5/ETH0.c **** 	for(index=0;index<length;++index) {
 674              		.loc 1 356 0 is_stmt 0 discriminator 1
 675 003a BA88     		ldrh	r2, [r7, #4]
 676 003c FB68     		ldr	r3, [r7, #12]
 677 003e 9A42     		cmp	r2, r3
 678 0040 EADC     		bgt	.L28
 358:.\Generated_Source\PSoC5/ETH0.c **** 	}
 359:.\Generated_Source\PSoC5/ETH0.c **** }
 679              		.loc 1 359 0 is_stmt 1
 680 0042 07F11407 		add	r7, r7, #20
 681 0046 BD46     		mov	sp, r7
 682 0048 90BD     		pop	{r4, r7, pc}
 683              		.cfi_endproc
 684              	.LFE10:
 685              		.size	ETH0_W51_ReadBlock, .-ETH0_W51_ReadBlock
 686 004a 00BF     		.section	.text.ETH0_SetSourceMAC,"ax",%progbits
 687              		.align	2
 688              		.thumb
 689              		.thumb_func
 690              		.type	ETH0_SetSourceMAC, %function
 691              	ETH0_SetSourceMAC:
 692              	.LFB11:
 360:.\Generated_Source\PSoC5/ETH0.c **** /* ======================================================================== */
 361:.\Generated_Source\PSoC5/ETH0.c **** /* END SECTION */
 362:.\Generated_Source\PSoC5/ETH0.c **** #endif
 363:.\Generated_Source\PSoC5/ETH0.c **** /* ======================================================================== */
 364:.\Generated_Source\PSoC5/ETH0.c **** /* Chip Register access */
 365:.\Generated_Source\PSoC5/ETH0.c **** #if (1)
 366:.\Generated_Source\PSoC5/ETH0.c **** // Common Registers
 367:.\Generated_Source\PSoC5/ETH0.c **** /* ------------------------------------------------------------------------ */
 368:.\Generated_Source\PSoC5/ETH0.c **** /**
 369:.\Generated_Source\PSoC5/ETH0.c ****  * \brief Set teh chip mac address to teh specified address
 370:.\Generated_Source\PSoC5/ETH0.c ****  * \param *mac pointer to the array holding the MAC address
 371:.\Generated_Source\PSoC5/ETH0.c ****  */
 372:.\Generated_Source\PSoC5/ETH0.c **** static inline void ETH0_SetSourceMAC( uint8* mac ) { ETH0_W51_SetMAC(9,mac); }
 693              		.loc 1 372 0
 694              		.cfi_startproc
ARM GAS  C:\Users\CHUCK~1.ERH\AppData\Local\Temp\cco8cCZX.s 			page 20


 695              		@ args = 0, pretend = 0, frame = 8
 696              		@ frame_needed = 1, uses_anonymous_args = 0
 697 0000 80B5     		push	{r7, lr}
 698              	.LCFI32:
 699              		.cfi_def_cfa_offset 8
 700              		.cfi_offset 7, -8
 701              		.cfi_offset 14, -4
 702 0002 82B0     		sub	sp, sp, #8
 703              	.LCFI33:
 704              		.cfi_def_cfa_offset 16
 705 0004 00AF     		add	r7, sp, #0
 706              	.LCFI34:
 707              		.cfi_def_cfa_register 7
 708 0006 7860     		str	r0, [r7, #4]
 709              		.loc 1 372 0
 710 0008 4FF00900 		mov	r0, #9
 711 000c 7968     		ldr	r1, [r7, #4]
 712 000e FFF7FEFF 		bl	ETH0_W51_SetMAC
 713 0012 07F10807 		add	r7, r7, #8
 714 0016 BD46     		mov	sp, r7
 715 0018 80BD     		pop	{r7, pc}
 716              		.cfi_endproc
 717              	.LFE11:
 718              		.size	ETH0_SetSourceMAC, .-ETH0_SetSourceMAC
 719 001a 00BF     		.section	.text.ETH0_GetSourceMAC,"ax",%progbits
 720              		.align	2
 721              		.thumb
 722              		.thumb_func
 723              		.type	ETH0_GetSourceMAC, %function
 724              	ETH0_GetSourceMAC:
 725              	.LFB12:
 373:.\Generated_Source\PSoC5/ETH0.c **** /* ------------------------------------------------------------------------ */
 374:.\Generated_Source\PSoC5/ETH0.c **** /**
 375:.\Generated_Source\PSoC5/ETH0.c ****  * \brief Read the chip source MAC address from the MAC registers
 376:.\Generated_Source\PSoC5/ETH0.c ****  * \param *mac pointer to the address of the buffer to hold the read MAC address
 377:.\Generated_Source\PSoC5/ETH0.c ****  */
 378:.\Generated_Source\PSoC5/ETH0.c **** static inline void ETH0_GetSourceMAC( uint8* mac ) { ETH0_W51_GetMAC(9,mac); }
 726              		.loc 1 378 0
 727              		.cfi_startproc
 728              		@ args = 0, pretend = 0, frame = 8
 729              		@ frame_needed = 1, uses_anonymous_args = 0
 730 0000 80B5     		push	{r7, lr}
 731              	.LCFI35:
 732              		.cfi_def_cfa_offset 8
 733              		.cfi_offset 7, -8
 734              		.cfi_offset 14, -4
 735 0002 82B0     		sub	sp, sp, #8
 736              	.LCFI36:
 737              		.cfi_def_cfa_offset 16
 738 0004 00AF     		add	r7, sp, #0
 739              	.LCFI37:
 740              		.cfi_def_cfa_register 7
 741 0006 7860     		str	r0, [r7, #4]
 742              		.loc 1 378 0
 743 0008 4FF00900 		mov	r0, #9
 744 000c 7968     		ldr	r1, [r7, #4]
 745 000e FFF7FEFF 		bl	ETH0_W51_GetMAC
ARM GAS  C:\Users\CHUCK~1.ERH\AppData\Local\Temp\cco8cCZX.s 			page 21


 746 0012 07F10807 		add	r7, r7, #8
 747 0016 BD46     		mov	sp, r7
 748 0018 80BD     		pop	{r7, pc}
 749              		.cfi_endproc
 750              	.LFE12:
 751              		.size	ETH0_GetSourceMAC, .-ETH0_GetSourceMAC
 752 001a 00BF     		.section	.text.ETH0_SetGatewayAddress,"ax",%progbits
 753              		.align	2
 754              		.thumb
 755              		.thumb_func
 756              		.type	ETH0_SetGatewayAddress, %function
 757              	ETH0_SetGatewayAddress:
 758              	.LFB13:
 379:.\Generated_Source\PSoC5/ETH0.c **** /* ------------------------------------------------------------------------ */
 380:.\Generated_Source\PSoC5/ETH0.c **** /**
 381:.\Generated_Source\PSoC5/ETH0.c ****  * \brief Set the IPv4 address of the network gateway
 382:.\Generated_Source\PSoC5/ETH0.c ****  * \param ip IP address of the gateway
 383:.\Generated_Source\PSoC5/ETH0.c ****  */
 384:.\Generated_Source\PSoC5/ETH0.c **** static inline void ETH0_SetGatewayAddress(uint32 ip) { ETH0_W51_SetIP(1,ip); }
 759              		.loc 1 384 0
 760              		.cfi_startproc
 761              		@ args = 0, pretend = 0, frame = 8
 762              		@ frame_needed = 1, uses_anonymous_args = 0
 763 0000 80B5     		push	{r7, lr}
 764              	.LCFI38:
 765              		.cfi_def_cfa_offset 8
 766              		.cfi_offset 7, -8
 767              		.cfi_offset 14, -4
 768 0002 82B0     		sub	sp, sp, #8
 769              	.LCFI39:
 770              		.cfi_def_cfa_offset 16
 771 0004 00AF     		add	r7, sp, #0
 772              	.LCFI40:
 773              		.cfi_def_cfa_register 7
 774 0006 7860     		str	r0, [r7, #4]
 775              		.loc 1 384 0
 776 0008 4FF00100 		mov	r0, #1
 777 000c 7968     		ldr	r1, [r7, #4]
 778 000e FFF7FEFF 		bl	ETH0_W51_SetIP
 779 0012 07F10807 		add	r7, r7, #8
 780 0016 BD46     		mov	sp, r7
 781 0018 80BD     		pop	{r7, pc}
 782              		.cfi_endproc
 783              	.LFE13:
 784              		.size	ETH0_SetGatewayAddress, .-ETH0_SetGatewayAddress
 785 001a 00BF     		.section	.text.ETH0_SetSubnetMask,"ax",%progbits
 786              		.align	2
 787              		.thumb
 788              		.thumb_func
 789              		.type	ETH0_SetSubnetMask, %function
 790              	ETH0_SetSubnetMask:
 791              	.LFB15:
 385:.\Generated_Source\PSoC5/ETH0.c **** /* ------------------------------------------------------------------------ */
 386:.\Generated_Source\PSoC5/ETH0.c **** /**
 387:.\Generated_Source\PSoC5/ETH0.c ****  * \brief Read the gateway address from the device
 388:.\Generated_Source\PSoC5/ETH0.c ****  * \returns the IP address of the gateway
 389:.\Generated_Source\PSoC5/ETH0.c ****  */
ARM GAS  C:\Users\CHUCK~1.ERH\AppData\Local\Temp\cco8cCZX.s 			page 22


 390:.\Generated_Source\PSoC5/ETH0.c **** static inline uint32 ETH0_GetGatewayAddress( void ) { return ETH0_W51_GetIP(1); }
 391:.\Generated_Source\PSoC5/ETH0.c **** /* ------------------------------------------------------------------------ */
 392:.\Generated_Source\PSoC5/ETH0.c **** /**
 393:.\Generated_Source\PSoC5/ETH0.c ****  * \brief set the subnet mask of the ethernet device
 394:.\Generated_Source\PSoC5/ETH0.c ****  * \param the subnet mask (IPv4)
 395:.\Generated_Source\PSoC5/ETH0.c ****  */
 396:.\Generated_Source\PSoC5/ETH0.c **** static inline void ETH0_SetSubnetMask( uint32 ip ) { ETH0_W51_SetIP(5, ip); }
 792              		.loc 1 396 0
 793              		.cfi_startproc
 794              		@ args = 0, pretend = 0, frame = 8
 795              		@ frame_needed = 1, uses_anonymous_args = 0
 796 0000 80B5     		push	{r7, lr}
 797              	.LCFI41:
 798              		.cfi_def_cfa_offset 8
 799              		.cfi_offset 7, -8
 800              		.cfi_offset 14, -4
 801 0002 82B0     		sub	sp, sp, #8
 802              	.LCFI42:
 803              		.cfi_def_cfa_offset 16
 804 0004 00AF     		add	r7, sp, #0
 805              	.LCFI43:
 806              		.cfi_def_cfa_register 7
 807 0006 7860     		str	r0, [r7, #4]
 808              		.loc 1 396 0
 809 0008 4FF00500 		mov	r0, #5
 810 000c 7968     		ldr	r1, [r7, #4]
 811 000e FFF7FEFF 		bl	ETH0_W51_SetIP
 812 0012 07F10807 		add	r7, r7, #8
 813 0016 BD46     		mov	sp, r7
 814 0018 80BD     		pop	{r7, pc}
 815              		.cfi_endproc
 816              	.LFE15:
 817              		.size	ETH0_SetSubnetMask, .-ETH0_SetSubnetMask
 818 001a 00BF     		.section	.text.ETH0_SetSourceIP,"ax",%progbits
 819              		.align	2
 820              		.thumb
 821              		.thumb_func
 822              		.type	ETH0_SetSourceIP, %function
 823              	ETH0_SetSourceIP:
 824              	.LFB17:
 397:.\Generated_Source\PSoC5/ETH0.c **** /* ------------------------------------------------------------------------ */
 398:.\Generated_Source\PSoC5/ETH0.c **** /**
 399:.\Generated_Source\PSoC5/ETH0.c ****  * \brief Read the subnet mask from the device
 400:.\Generated_Source\PSoC5/ETH0.c ****  * \returns the subnet mask that was read from the device.
 401:.\Generated_Source\PSoC5/ETH0.c ****  */
 402:.\Generated_Source\PSoC5/ETH0.c **** static inline uint32 ETH0_GetSubnetMask( void ) { return ETH0_W51_GetIP(5); }
 403:.\Generated_Source\PSoC5/ETH0.c **** /* ------------------------------------------------------------------------ */
 404:.\Generated_Source\PSoC5/ETH0.c **** /**
 405:.\Generated_Source\PSoC5/ETH0.c ****  * \brief Write the device source IPv4 address
 406:.\Generated_Source\PSoC5/ETH0.c ****  * \param ip the ip address to set as the chip IP address
 407:.\Generated_Source\PSoC5/ETH0.c ****  */
 408:.\Generated_Source\PSoC5/ETH0.c **** static inline void ETH0_SetSourceIP( uint32 ip ) { ETH0_W51_SetIP( 0x0F, ip ); }
 825              		.loc 1 408 0
 826              		.cfi_startproc
 827              		@ args = 0, pretend = 0, frame = 8
 828              		@ frame_needed = 1, uses_anonymous_args = 0
 829 0000 80B5     		push	{r7, lr}
ARM GAS  C:\Users\CHUCK~1.ERH\AppData\Local\Temp\cco8cCZX.s 			page 23


 830              	.LCFI44:
 831              		.cfi_def_cfa_offset 8
 832              		.cfi_offset 7, -8
 833              		.cfi_offset 14, -4
 834 0002 82B0     		sub	sp, sp, #8
 835              	.LCFI45:
 836              		.cfi_def_cfa_offset 16
 837 0004 00AF     		add	r7, sp, #0
 838              	.LCFI46:
 839              		.cfi_def_cfa_register 7
 840 0006 7860     		str	r0, [r7, #4]
 841              		.loc 1 408 0
 842 0008 4FF00F00 		mov	r0, #15
 843 000c 7968     		ldr	r1, [r7, #4]
 844 000e FFF7FEFF 		bl	ETH0_W51_SetIP
 845 0012 07F10807 		add	r7, r7, #8
 846 0016 BD46     		mov	sp, r7
 847 0018 80BD     		pop	{r7, pc}
 848              		.cfi_endproc
 849              	.LFE17:
 850              		.size	ETH0_SetSourceIP, .-ETH0_SetSourceIP
 851 001a 00BF     		.section	.text.ETH0_GetSourceIP,"ax",%progbits
 852              		.align	2
 853              		.thumb
 854              		.thumb_func
 855              		.type	ETH0_GetSourceIP, %function
 856              	ETH0_GetSourceIP:
 857              	.LFB18:
 409:.\Generated_Source\PSoC5/ETH0.c **** /* ------------------------------------------------------------------------ */
 410:.\Generated_Source\PSoC5/ETH0.c **** /**
 411:.\Generated_Source\PSoC5/ETH0.c ****  * \brief Read the device's programmed IP address
 412:.\Generated_Source\PSoC5/ETH0.c ****  * \returns The IPv4 address to which the device is set.
 413:.\Generated_Source\PSoC5/ETH0.c ****  */
 414:.\Generated_Source\PSoC5/ETH0.c **** static inline uint32 ETH0_GetSourceIP( void ) { return ETH0_W51_GetIP( 0x0F ); }
 858              		.loc 1 414 0
 859              		.cfi_startproc
 860              		@ args = 0, pretend = 0, frame = 0
 861              		@ frame_needed = 1, uses_anonymous_args = 0
 862 0000 80B5     		push	{r7, lr}
 863              	.LCFI47:
 864              		.cfi_def_cfa_offset 8
 865              		.cfi_offset 7, -8
 866              		.cfi_offset 14, -4
 867 0002 00AF     		add	r7, sp, #0
 868              	.LCFI48:
 869              		.cfi_def_cfa_register 7
 870              		.loc 1 414 0
 871 0004 4FF00F00 		mov	r0, #15
 872 0008 FFF7FEFF 		bl	ETH0_W51_GetIP
 873 000c 0346     		mov	r3, r0
 874 000e 1846     		mov	r0, r3
 875 0010 80BD     		pop	{r7, pc}
 876              		.cfi_endproc
 877              	.LFE18:
 878              		.size	ETH0_GetSourceIP, .-ETH0_GetSourceIP
 879 0012 00BF     		.section	.text.ETH0_SetMode,"ax",%progbits
 880              		.align	2
ARM GAS  C:\Users\CHUCK~1.ERH\AppData\Local\Temp\cco8cCZX.s 			page 24


 881              		.thumb
 882              		.thumb_func
 883              		.type	ETH0_SetMode, %function
 884              	ETH0_SetMode:
 885              	.LFB19:
 415:.\Generated_Source\PSoC5/ETH0.c **** /* ------------------------------------------------------------------------ */
 416:.\Generated_Source\PSoC5/ETH0.c **** /**
 417:.\Generated_Source\PSoC5/ETH0.c ****  * \brief Write a value to the device internal MODE register
 418:.\Generated_Source\PSoC5/ETH0.c ****  * \param mode the value to be written to the mode register.
 419:.\Generated_Source\PSoC5/ETH0.c ****  */
 420:.\Generated_Source\PSoC5/ETH0.c **** static inline void ETH0_SetMode( uint8 mode ) { ETH0_W51_Write(0,mode); }
 886              		.loc 1 420 0
 887              		.cfi_startproc
 888              		@ args = 0, pretend = 0, frame = 8
 889              		@ frame_needed = 1, uses_anonymous_args = 0
 890 0000 80B5     		push	{r7, lr}
 891              	.LCFI49:
 892              		.cfi_def_cfa_offset 8
 893              		.cfi_offset 7, -8
 894              		.cfi_offset 14, -4
 895 0002 82B0     		sub	sp, sp, #8
 896              	.LCFI50:
 897              		.cfi_def_cfa_offset 16
 898 0004 00AF     		add	r7, sp, #0
 899              	.LCFI51:
 900              		.cfi_def_cfa_register 7
 901 0006 0346     		mov	r3, r0
 902 0008 FB71     		strb	r3, [r7, #7]
 903              		.loc 1 420 0
 904 000a FB79     		ldrb	r3, [r7, #7]	@ zero_extendqisi2
 905 000c 4FF00000 		mov	r0, #0
 906 0010 1946     		mov	r1, r3
 907 0012 FFF7FEFF 		bl	ETH0_W51_Write
 908 0016 07F10807 		add	r7, r7, #8
 909 001a BD46     		mov	sp, r7
 910 001c 80BD     		pop	{r7, pc}
 911              		.cfi_endproc
 912              	.LFE19:
 913              		.size	ETH0_SetMode, .-ETH0_SetMode
 914 001e 00BF     		.section	.text.ETH0_SetIR,"ax",%progbits
 915              		.align	2
 916              		.thumb
 917              		.thumb_func
 918              		.type	ETH0_SetIR, %function
 919              	ETH0_SetIR:
 920              	.LFB21:
 421:.\Generated_Source\PSoC5/ETH0.c **** /* ------------------------------------------------------------------------ */
 422:.\Generated_Source\PSoC5/ETH0.c **** /**
 423:.\Generated_Source\PSoC5/ETH0.c ****  * \brief Read the present contents of the device internal mode register
 424:.\Generated_Source\PSoC5/ETH0.c ****  * \returns the value of the mode register
 425:.\Generated_Source\PSoC5/ETH0.c ****  */
 426:.\Generated_Source\PSoC5/ETH0.c **** static inline uint8 ETH0_GetMode( void ) { return ETH0_W51_Read(0); }
 427:.\Generated_Source\PSoC5/ETH0.c **** /* ------------------------------------------------------------------------ */
 428:.\Generated_Source\PSoC5/ETH0.c **** /**
 429:.\Generated_Source\PSoC5/ETH0.c ****  * \brief Write the value of the interrupt register
 430:.\Generated_Source\PSoC5/ETH0.c ****  * \param ir the value to be written to the interrupt register
 431:.\Generated_Source\PSoC5/ETH0.c ****  */
ARM GAS  C:\Users\CHUCK~1.ERH\AppData\Local\Temp\cco8cCZX.s 			page 25


 432:.\Generated_Source\PSoC5/ETH0.c **** static inline void ETH0_SetIR( uint8 ir ) { ETH0_W51_Write(0x0015,ir); }
 921              		.loc 1 432 0
 922              		.cfi_startproc
 923              		@ args = 0, pretend = 0, frame = 8
 924              		@ frame_needed = 1, uses_anonymous_args = 0
 925 0000 80B5     		push	{r7, lr}
 926              	.LCFI52:
 927              		.cfi_def_cfa_offset 8
 928              		.cfi_offset 7, -8
 929              		.cfi_offset 14, -4
 930 0002 82B0     		sub	sp, sp, #8
 931              	.LCFI53:
 932              		.cfi_def_cfa_offset 16
 933 0004 00AF     		add	r7, sp, #0
 934              	.LCFI54:
 935              		.cfi_def_cfa_register 7
 936 0006 0346     		mov	r3, r0
 937 0008 FB71     		strb	r3, [r7, #7]
 938              		.loc 1 432 0
 939 000a FB79     		ldrb	r3, [r7, #7]	@ zero_extendqisi2
 940 000c 4FF01500 		mov	r0, #21
 941 0010 1946     		mov	r1, r3
 942 0012 FFF7FEFF 		bl	ETH0_W51_Write
 943 0016 07F10807 		add	r7, r7, #8
 944 001a BD46     		mov	sp, r7
 945 001c 80BD     		pop	{r7, pc}
 946              		.cfi_endproc
 947              	.LFE21:
 948              		.size	ETH0_SetIR, .-ETH0_SetIR
 949 001e 00BF     		.section	.text.ETH0_SetRxMemSize,"ax",%progbits
 950              		.align	2
 951              		.thumb
 952              		.thumb_func
 953              		.type	ETH0_SetRxMemSize, %function
 954              	ETH0_SetRxMemSize:
 955              	.LFB29:
 433:.\Generated_Source\PSoC5/ETH0.c **** /* ------------------------------------------------------------------------ */
 434:.\Generated_Source\PSoC5/ETH0.c **** /**
 435:.\Generated_Source\PSoC5/ETH0.c ****  * \brief Read the contents of the interrupt register
 436:.\Generated_Source\PSoC5/ETH0.c ****  * \returns the contents read from the interrupt register
 437:.\Generated_Source\PSoC5/ETH0.c ****  */
 438:.\Generated_Source\PSoC5/ETH0.c **** static inline uint8 ETH0_GetIR( void ) { return ETH0_W51_Read(0x0015); }
 439:.\Generated_Source\PSoC5/ETH0.c **** /* ------------------------------------------------------------------------ */
 440:.\Generated_Source\PSoC5/ETH0.c **** /**
 441:.\Generated_Source\PSoC5/ETH0.c ****  * \brief Set the value of the interrupt mask register
 442:.\Generated_Source\PSoC5/ETH0.c ****  * \param imr the value to be written to the interrupt mask register
 443:.\Generated_Source\PSoC5/ETH0.c ****  */
 444:.\Generated_Source\PSoC5/ETH0.c **** static inline void ETH0_SetIMR( uint8 imr) { ETH0_W51_Write( 0x0016, imr ); }
 445:.\Generated_Source\PSoC5/ETH0.c **** /* ------------------------------------------------------------------------ */
 446:.\Generated_Source\PSoC5/ETH0.c **** /**
 447:.\Generated_Source\PSoC5/ETH0.c ****  * \brief Read the interrupt mask register
 448:.\Generated_Source\PSoC5/ETH0.c ****  * \returns the contents of the interrupt mask register
 449:.\Generated_Source\PSoC5/ETH0.c ****  */
 450:.\Generated_Source\PSoC5/ETH0.c **** static inline uint8 ETH0_GetIMR( void ) { return ETH0_W51_Read( 0x0016 ); }
 451:.\Generated_Source\PSoC5/ETH0.c **** /* ------------------------------------------------------------------------ */
 452:.\Generated_Source\PSoC5/ETH0.c **** /**
 453:.\Generated_Source\PSoC5/ETH0.c ****  * \brief Write the retry time register
ARM GAS  C:\Users\CHUCK~1.ERH\AppData\Local\Temp\cco8cCZX.s 			page 26


 454:.\Generated_Source\PSoC5/ETH0.c ****  * \param time the value to be written to the regster
 455:.\Generated_Source\PSoC5/ETH0.c ****  */
 456:.\Generated_Source\PSoC5/ETH0.c **** static inline void ETH0_SetRetryTime( uint16 time) { ETH0_W51_Write16( 0x0017, time ); }
 457:.\Generated_Source\PSoC5/ETH0.c **** /* ------------------------------------------------------------------------ */
 458:.\Generated_Source\PSoC5/ETH0.c **** /**
 459:.\Generated_Source\PSoC5/ETH0.c ****  * \brief Read the retry tie register
 460:.\Generated_Source\PSoC5/ETH0.c ****  * \returns the value read from the register
 461:.\Generated_Source\PSoC5/ETH0.c ****  */
 462:.\Generated_Source\PSoC5/ETH0.c **** static inline uint16 ETH0_GetRetryTime( void ) { return ETH0_W51_Read16( 0x0017 ); }
 463:.\Generated_Source\PSoC5/ETH0.c **** /* ------------------------------------------------------------------------ */
 464:.\Generated_Source\PSoC5/ETH0.c **** /**
 465:.\Generated_Source\PSoC5/ETH0.c ****  * \breif write a value to the retry count register
 466:.\Generated_Source\PSoC5/ETH0.c ****  * \param count the value to be written to the register
 467:.\Generated_Source\PSoC5/ETH0.c ****  */
 468:.\Generated_Source\PSoC5/ETH0.c **** static inline void ETH0_SetRetryCount( uint8 count ) { ETH0_W51_Write( 0x0019, count); }
 469:.\Generated_Source\PSoC5/ETH0.c **** /* ------------------------------------------------------------------------ */
 470:.\Generated_Source\PSoC5/ETH0.c **** /**
 471:.\Generated_Source\PSoC5/ETH0.c ****  * \brief Read the contents of the retry count register
 472:.\Generated_Source\PSoC5/ETH0.c ****  * \returns the value read from teh register
 473:.\Generated_Source\PSoC5/ETH0.c ****  */
 474:.\Generated_Source\PSoC5/ETH0.c **** static inline uint8 ETH0_GetRetryCount( void ) { return ETH0_W51_Read( 0x0019 ); }
 475:.\Generated_Source\PSoC5/ETH0.c **** /* ------------------------------------------------------------------------ */
 476:.\Generated_Source\PSoC5/ETH0.c **** /**
 477:.\Generated_Source\PSoC5/ETH0.c ****  * \brief write a value to the Rx mem size register
 478:.\Generated_Source\PSoC5/ETH0.c ****  * \param size the value to be written to the register
 479:.\Generated_Source\PSoC5/ETH0.c ****  */
 480:.\Generated_Source\PSoC5/ETH0.c **** static inline void ETH0_SetRxMemSize( uint8 size ) { ETH0_W51_Write( 0x1A, size ); }
 956              		.loc 1 480 0
 957              		.cfi_startproc
 958              		@ args = 0, pretend = 0, frame = 8
 959              		@ frame_needed = 1, uses_anonymous_args = 0
 960 0000 80B5     		push	{r7, lr}
 961              	.LCFI55:
 962              		.cfi_def_cfa_offset 8
 963              		.cfi_offset 7, -8
 964              		.cfi_offset 14, -4
 965 0002 82B0     		sub	sp, sp, #8
 966              	.LCFI56:
 967              		.cfi_def_cfa_offset 16
 968 0004 00AF     		add	r7, sp, #0
 969              	.LCFI57:
 970              		.cfi_def_cfa_register 7
 971 0006 0346     		mov	r3, r0
 972 0008 FB71     		strb	r3, [r7, #7]
 973              		.loc 1 480 0
 974 000a FB79     		ldrb	r3, [r7, #7]	@ zero_extendqisi2
 975 000c 4FF01A00 		mov	r0, #26
 976 0010 1946     		mov	r1, r3
 977 0012 FFF7FEFF 		bl	ETH0_W51_Write
 978 0016 07F10807 		add	r7, r7, #8
 979 001a BD46     		mov	sp, r7
 980 001c 80BD     		pop	{r7, pc}
 981              		.cfi_endproc
 982              	.LFE29:
 983              		.size	ETH0_SetRxMemSize, .-ETH0_SetRxMemSize
 984 001e 00BF     		.section	.text.ETH0_SetTxMemSize,"ax",%progbits
 985              		.align	2
ARM GAS  C:\Users\CHUCK~1.ERH\AppData\Local\Temp\cco8cCZX.s 			page 27


 986              		.thumb
 987              		.thumb_func
 988              		.type	ETH0_SetTxMemSize, %function
 989              	ETH0_SetTxMemSize:
 990              	.LFB31:
 481:.\Generated_Source\PSoC5/ETH0.c **** /* ------------------------------------------------------------------------ */
 482:.\Generated_Source\PSoC5/ETH0.c **** /**
 483:.\Generated_Source\PSoC5/ETH0.c ****  * \brief Read the contents of hte rx mem size register
 484:.\Generated_Source\PSoC5/ETH0.c ****  * \returns the value read from teh register
 485:.\Generated_Source\PSoC5/ETH0.c ****  */
 486:.\Generated_Source\PSoC5/ETH0.c **** static inline uint8 ETH0_GetRxMemSize( void ) { return ETH0_W51_Read(0x1A); }
 487:.\Generated_Source\PSoC5/ETH0.c **** /* ------------------------------------------------------------------------ */
 488:.\Generated_Source\PSoC5/ETH0.c **** /**
 489:.\Generated_Source\PSoC5/ETH0.c ****  * \brief write a value to the tx mem size register
 490:.\Generated_Source\PSoC5/ETH0.c ****  * \param size The value to be written to the register
 491:.\Generated_Source\PSoC5/ETH0.c ****  */
 492:.\Generated_Source\PSoC5/ETH0.c **** static inline void ETH0_SetTxMemSize( uint8 size ) { ETH0_W51_Write( 0x1B, size); }
 991              		.loc 1 492 0
 992              		.cfi_startproc
 993              		@ args = 0, pretend = 0, frame = 8
 994              		@ frame_needed = 1, uses_anonymous_args = 0
 995 0000 80B5     		push	{r7, lr}
 996              	.LCFI58:
 997              		.cfi_def_cfa_offset 8
 998              		.cfi_offset 7, -8
 999              		.cfi_offset 14, -4
 1000 0002 82B0     		sub	sp, sp, #8
 1001              	.LCFI59:
 1002              		.cfi_def_cfa_offset 16
 1003 0004 00AF     		add	r7, sp, #0
 1004              	.LCFI60:
 1005              		.cfi_def_cfa_register 7
 1006 0006 0346     		mov	r3, r0
 1007 0008 FB71     		strb	r3, [r7, #7]
 1008              		.loc 1 492 0
 1009 000a FB79     		ldrb	r3, [r7, #7]	@ zero_extendqisi2
 1010 000c 4FF01B00 		mov	r0, #27
 1011 0010 1946     		mov	r1, r3
 1012 0012 FFF7FEFF 		bl	ETH0_W51_Write
 1013 0016 07F10807 		add	r7, r7, #8
 1014 001a BD46     		mov	sp, r7
 1015 001c 80BD     		pop	{r7, pc}
 1016              		.cfi_endproc
 1017              	.LFE31:
 1018              		.size	ETH0_SetTxMemSize, .-ETH0_SetTxMemSize
 1019 001e 00BF     		.section	.text.ETH0_SetSocketMode,"ax",%progbits
 1020              		.align	2
 1021              		.thumb
 1022              		.thumb_func
 1023              		.type	ETH0_SetSocketMode, %function
 1024              	ETH0_SetSocketMode:
 1025              	.LFB37:
 493:.\Generated_Source\PSoC5/ETH0.c **** /* ------------------------------------------------------------------------ */
 494:.\Generated_Source\PSoC5/ETH0.c **** /**
 495:.\Generated_Source\PSoC5/ETH0.c ****  * \brief read the contents of the tx mem size register
 496:.\Generated_Source\PSoC5/ETH0.c ****  * \returns the value read from the register
 497:.\Generated_Source\PSoC5/ETH0.c ****  */
ARM GAS  C:\Users\CHUCK~1.ERH\AppData\Local\Temp\cco8cCZX.s 			page 28


 498:.\Generated_Source\PSoC5/ETH0.c **** static inline uint8 ETH0_GetTxMemSize( void ) { return ETH0_W51_Read( 0x1B);}
 499:.\Generated_Source\PSoC5/ETH0.c **** /* ------------------------------------------------------------------------ */
 500:.\Generated_Source\PSoC5/ETH0.c **** /**
 501:.\Generated_Source\PSoC5/ETH0.c ****  * \brief write a value to the unreachable IP register
 502:.\Generated_Source\PSoC5/ETH0.c ****  * \param ip the value to be written to the register
 503:.\Generated_Source\PSoC5/ETH0.c ****  */
 504:.\Generated_Source\PSoC5/ETH0.c **** static inline void ETH0_SetUnreachableIP( uint32 ip) { ETH0_W51_SetIP( 0x2A, ip); }
 505:.\Generated_Source\PSoC5/ETH0.c **** /* ------------------------------------------------------------------------ */
 506:.\Generated_Source\PSoC5/ETH0.c **** /**
 507:.\Generated_Source\PSoC5/ETH0.c ****  * \brief read the contents of the unreachable IP register
 508:.\Generated_Source\PSoC5/ETH0.c ****  * \returns the value read from teh register
 509:.\Generated_Source\PSoC5/ETH0.c ****  */
 510:.\Generated_Source\PSoC5/ETH0.c **** static inline uint32 ETH0_GetUnreachableIP( void ) { return ETH0_W51_GetIP( 0x2A ); }
 511:.\Generated_Source\PSoC5/ETH0.c **** /* ------------------------------------------------------------------------ */
 512:.\Generated_Source\PSoC5/ETH0.c **** /**
 513:.\Generated_Source\PSoC5/ETH0.c ****  * \brief write a value to the unreachable port register
 514:.\Generated_Source\PSoC5/ETH0.c ****  * \param port the value to be written to the register
 515:.\Generated_Source\PSoC5/ETH0.c ****  */
 516:.\Generated_Source\PSoC5/ETH0.c **** static inline void ETH0_SetUnreachablePort( uint16 port) { ETH0_W51_Write16(0x2E, port); }
 517:.\Generated_Source\PSoC5/ETH0.c **** /* ------------------------------------------------------------------------ */
 518:.\Generated_Source\PSoC5/ETH0.c **** /**
 519:.\Generated_Source\PSoC5/ETH0.c ****  * \brief read the contents of the unreachable port register
 520:.\Generated_Source\PSoC5/ETH0.c ****  * \returns the value read from the register
 521:.\Generated_Source\PSoC5/ETH0.c ****  */
 522:.\Generated_Source\PSoC5/ETH0.c **** static inline uint16 ETH0_GetUnreachablePort( void ) { return ETH0_W51_Read16(0x2E); }
 523:.\Generated_Source\PSoC5/ETH0.c **** /* ======================================================================== */
 524:.\Generated_Source\PSoC5/ETH0.c **** /* End Section */
 525:.\Generated_Source\PSoC5/ETH0.c **** #endif
 526:.\Generated_Source\PSoC5/ETH0.c **** /* ======================================================================== */
 527:.\Generated_Source\PSoC5/ETH0.c **** /* Socket Registers */
 528:.\Generated_Source\PSoC5/ETH0.c **** #if (1)
 529:.\Generated_Source\PSoC5/ETH0.c **** /**
 530:.\Generated_Source\PSoC5/ETH0.c ****  * \def ETH0_SOCKET BASE(s)
 531:.\Generated_Source\PSoC5/ETH0.c ****  * \brief Convert the socket number to a base address within the W5100
 532:.\Generated_Source\PSoC5/ETH0.c ****  */
 533:.\Generated_Source\PSoC5/ETH0.c **** #define ETH0_SOCKET_BASE(s)           ((s<<8)+0x0400)
 534:.\Generated_Source\PSoC5/ETH0.c **** /* ------------------------------------------------------------------------ */
 535:.\Generated_Source\PSoC5/ETH0.c **** /**
 536:.\Generated_Source\PSoC5/ETH0.c ****  * \brief Write a value to the socket mode register
 537:.\Generated_Source\PSoC5/ETH0.c ****  * \param socket the socket number for the addressed register
 538:.\Generated_Source\PSoC5/ETH0.c ****  * \param mode the value to be written to the register
 539:.\Generated_Source\PSoC5/ETH0.c ****  */
 540:.\Generated_Source\PSoC5/ETH0.c **** static inline void ETH0_SetSocketMode(uint8 socket, uint8 mode)
 541:.\Generated_Source\PSoC5/ETH0.c **** { ETH0_W51_Write(ETH0_SOCKET_BASE(socket), mode); }
 1026              		.loc 1 541 0
 1027              		.cfi_startproc
 1028              		@ args = 0, pretend = 0, frame = 8
 1029              		@ frame_needed = 1, uses_anonymous_args = 0
 1030 0000 80B5     		push	{r7, lr}
 1031              	.LCFI61:
 1032              		.cfi_def_cfa_offset 8
 1033              		.cfi_offset 7, -8
 1034              		.cfi_offset 14, -4
 1035 0002 82B0     		sub	sp, sp, #8
 1036              	.LCFI62:
 1037              		.cfi_def_cfa_offset 16
 1038 0004 00AF     		add	r7, sp, #0
ARM GAS  C:\Users\CHUCK~1.ERH\AppData\Local\Temp\cco8cCZX.s 			page 29


 1039              	.LCFI63:
 1040              		.cfi_def_cfa_register 7
 1041 0006 0246     		mov	r2, r0
 1042 0008 0B46     		mov	r3, r1
 1043 000a FA71     		strb	r2, [r7, #7]
 1044 000c BB71     		strb	r3, [r7, #6]
 1045              		.loc 1 541 0
 1046 000e FB79     		ldrb	r3, [r7, #7]	@ zero_extendqisi2
 1047 0010 9BB2     		uxth	r3, r3
 1048 0012 4FEA0323 		lsl	r3, r3, #8
 1049 0016 9BB2     		uxth	r3, r3
 1050 0018 03F58063 		add	r3, r3, #1024
 1051 001c 9AB2     		uxth	r2, r3
 1052 001e BB79     		ldrb	r3, [r7, #6]	@ zero_extendqisi2
 1053 0020 1046     		mov	r0, r2
 1054 0022 1946     		mov	r1, r3
 1055 0024 FFF7FEFF 		bl	ETH0_W51_Write
 1056 0028 07F10807 		add	r7, r7, #8
 1057 002c BD46     		mov	sp, r7
 1058 002e 80BD     		pop	{r7, pc}
 1059              		.cfi_endproc
 1060              	.LFE37:
 1061              		.size	ETH0_SetSocketMode, .-ETH0_SetSocketMode
 1062              		.section	.text.ETH0_SetSocketCommand,"ax",%progbits
 1063              		.align	2
 1064              		.thumb
 1065              		.thumb_func
 1066              		.type	ETH0_SetSocketCommand, %function
 1067              	ETH0_SetSocketCommand:
 1068              	.LFB39:
 542:.\Generated_Source\PSoC5/ETH0.c **** /* ------------------------------------------------------------------------ */
 543:.\Generated_Source\PSoC5/ETH0.c **** /**
 544:.\Generated_Source\PSoC5/ETH0.c ****  * \brief Read a value from the socket mode register
 545:.\Generated_Source\PSoC5/ETH0.c ****  * \param socket the socket number for the addressed register
 546:.\Generated_Source\PSoC5/ETH0.c ****  * \returns the value read from the register
 547:.\Generated_Source\PSoC5/ETH0.c ****  */
 548:.\Generated_Source\PSoC5/ETH0.c **** static inline uint8 ETH0_GetSocketMode(uint8 socket)
 549:.\Generated_Source\PSoC5/ETH0.c **** { return ETH0_W51_Read(ETH0_SOCKET_BASE(socket)); }
 550:.\Generated_Source\PSoC5/ETH0.c **** /* ------------------------------------------------------------------------ */
 551:.\Generated_Source\PSoC5/ETH0.c **** /**
 552:.\Generated_Source\PSoC5/ETH0.c ****  * \brief Write a value to the socket command register
 553:.\Generated_Source\PSoC5/ETH0.c ****  * \param socket the socket number for the addressed register
 554:.\Generated_Source\PSoC5/ETH0.c ****  * \param cmd the value to be written to the register
 555:.\Generated_Source\PSoC5/ETH0.c ****  */
 556:.\Generated_Source\PSoC5/ETH0.c **** static inline void ETH0_SetSocketCommand(uint8 socket, uint8 cmd)
 557:.\Generated_Source\PSoC5/ETH0.c **** { ETH0_W51_Write(ETH0_SOCKET_BASE(socket)+1, cmd); }
 1069              		.loc 1 557 0
 1070              		.cfi_startproc
 1071              		@ args = 0, pretend = 0, frame = 8
 1072              		@ frame_needed = 1, uses_anonymous_args = 0
 1073 0000 80B5     		push	{r7, lr}
 1074              	.LCFI64:
 1075              		.cfi_def_cfa_offset 8
 1076              		.cfi_offset 7, -8
 1077              		.cfi_offset 14, -4
 1078 0002 82B0     		sub	sp, sp, #8
 1079              	.LCFI65:
ARM GAS  C:\Users\CHUCK~1.ERH\AppData\Local\Temp\cco8cCZX.s 			page 30


 1080              		.cfi_def_cfa_offset 16
 1081 0004 00AF     		add	r7, sp, #0
 1082              	.LCFI66:
 1083              		.cfi_def_cfa_register 7
 1084 0006 0246     		mov	r2, r0
 1085 0008 0B46     		mov	r3, r1
 1086 000a FA71     		strb	r2, [r7, #7]
 1087 000c BB71     		strb	r3, [r7, #6]
 1088              		.loc 1 557 0
 1089 000e FB79     		ldrb	r3, [r7, #7]	@ zero_extendqisi2
 1090 0010 9BB2     		uxth	r3, r3
 1091 0012 4FEA0323 		lsl	r3, r3, #8
 1092 0016 9BB2     		uxth	r3, r3
 1093 0018 03F20143 		addw	r3, r3, #1025
 1094 001c 9AB2     		uxth	r2, r3
 1095 001e BB79     		ldrb	r3, [r7, #6]	@ zero_extendqisi2
 1096 0020 1046     		mov	r0, r2
 1097 0022 1946     		mov	r1, r3
 1098 0024 FFF7FEFF 		bl	ETH0_W51_Write
 1099 0028 07F10807 		add	r7, r7, #8
 1100 002c BD46     		mov	sp, r7
 1101 002e 80BD     		pop	{r7, pc}
 1102              		.cfi_endproc
 1103              	.LFE39:
 1104              		.size	ETH0_SetSocketCommand, .-ETH0_SetSocketCommand
 1105              		.section	.text.ETH0_GetSocketCommand,"ax",%progbits
 1106              		.align	2
 1107              		.thumb
 1108              		.thumb_func
 1109              		.type	ETH0_GetSocketCommand, %function
 1110              	ETH0_GetSocketCommand:
 1111              	.LFB40:
 558:.\Generated_Source\PSoC5/ETH0.c **** /* ------------------------------------------------------------------------ */
 559:.\Generated_Source\PSoC5/ETH0.c **** /**
 560:.\Generated_Source\PSoC5/ETH0.c ****  * \brief Read a value from the socket command register
 561:.\Generated_Source\PSoC5/ETH0.c ****  * \param socket the socket number for the addressed register
 562:.\Generated_Source\PSoC5/ETH0.c ****  * \returns the value read from the register
 563:.\Generated_Source\PSoC5/ETH0.c ****  */
 564:.\Generated_Source\PSoC5/ETH0.c **** static inline uint8 ETH0_GetSocketCommand(uint8 socket)
 565:.\Generated_Source\PSoC5/ETH0.c **** { return ETH0_W51_Read(ETH0_SOCKET_BASE(socket)+1); }
 1112              		.loc 1 565 0
 1113              		.cfi_startproc
 1114              		@ args = 0, pretend = 0, frame = 8
 1115              		@ frame_needed = 1, uses_anonymous_args = 0
 1116 0000 80B5     		push	{r7, lr}
 1117              	.LCFI67:
 1118              		.cfi_def_cfa_offset 8
 1119              		.cfi_offset 7, -8
 1120              		.cfi_offset 14, -4
 1121 0002 82B0     		sub	sp, sp, #8
 1122              	.LCFI68:
 1123              		.cfi_def_cfa_offset 16
 1124 0004 00AF     		add	r7, sp, #0
 1125              	.LCFI69:
 1126              		.cfi_def_cfa_register 7
 1127 0006 0346     		mov	r3, r0
 1128 0008 FB71     		strb	r3, [r7, #7]
ARM GAS  C:\Users\CHUCK~1.ERH\AppData\Local\Temp\cco8cCZX.s 			page 31


 1129              		.loc 1 565 0
 1130 000a FB79     		ldrb	r3, [r7, #7]	@ zero_extendqisi2
 1131 000c 9BB2     		uxth	r3, r3
 1132 000e 4FEA0323 		lsl	r3, r3, #8
 1133 0012 9BB2     		uxth	r3, r3
 1134 0014 03F20143 		addw	r3, r3, #1025
 1135 0018 9BB2     		uxth	r3, r3
 1136 001a 1846     		mov	r0, r3
 1137 001c FFF7FEFF 		bl	ETH0_W51_Read
 1138 0020 0346     		mov	r3, r0
 1139 0022 1846     		mov	r0, r3
 1140 0024 07F10807 		add	r7, r7, #8
 1141 0028 BD46     		mov	sp, r7
 1142 002a 80BD     		pop	{r7, pc}
 1143              		.cfi_endproc
 1144              	.LFE40:
 1145              		.size	ETH0_GetSocketCommand, .-ETH0_GetSocketCommand
 1146              		.section	.text.ETH0_SetSocketIR,"ax",%progbits
 1147              		.align	2
 1148              		.thumb
 1149              		.thumb_func
 1150              		.type	ETH0_SetSocketIR, %function
 1151              	ETH0_SetSocketIR:
 1152              	.LFB41:
 566:.\Generated_Source\PSoC5/ETH0.c **** /* ------------------------------------------------------------------------ */
 567:.\Generated_Source\PSoC5/ETH0.c **** /**
 568:.\Generated_Source\PSoC5/ETH0.c ****  * \brief Write a value to the socket interrupt register
 569:.\Generated_Source\PSoC5/ETH0.c ****  * \param socket the socket number for the addressed register
 570:.\Generated_Source\PSoC5/ETH0.c ****  * \param ir the value to be written to the register
 571:.\Generated_Source\PSoC5/ETH0.c ****  */
 572:.\Generated_Source\PSoC5/ETH0.c **** static inline void ETH0_SetSocketIR(uint8 socket, uint8 ir)
 573:.\Generated_Source\PSoC5/ETH0.c **** { ETH0_W51_Write(ETH0_SOCKET_BASE(socket)+2,ir); }
 1153              		.loc 1 573 0
 1154              		.cfi_startproc
 1155              		@ args = 0, pretend = 0, frame = 8
 1156              		@ frame_needed = 1, uses_anonymous_args = 0
 1157 0000 80B5     		push	{r7, lr}
 1158              	.LCFI70:
 1159              		.cfi_def_cfa_offset 8
 1160              		.cfi_offset 7, -8
 1161              		.cfi_offset 14, -4
 1162 0002 82B0     		sub	sp, sp, #8
 1163              	.LCFI71:
 1164              		.cfi_def_cfa_offset 16
 1165 0004 00AF     		add	r7, sp, #0
 1166              	.LCFI72:
 1167              		.cfi_def_cfa_register 7
 1168 0006 0246     		mov	r2, r0
 1169 0008 0B46     		mov	r3, r1
 1170 000a FA71     		strb	r2, [r7, #7]
 1171 000c BB71     		strb	r3, [r7, #6]
 1172              		.loc 1 573 0
 1173 000e FB79     		ldrb	r3, [r7, #7]	@ zero_extendqisi2
 1174 0010 9BB2     		uxth	r3, r3
 1175 0012 4FEA0323 		lsl	r3, r3, #8
 1176 0016 9BB2     		uxth	r3, r3
 1177 0018 03F20243 		addw	r3, r3, #1026
ARM GAS  C:\Users\CHUCK~1.ERH\AppData\Local\Temp\cco8cCZX.s 			page 32


 1178 001c 9AB2     		uxth	r2, r3
 1179 001e BB79     		ldrb	r3, [r7, #6]	@ zero_extendqisi2
 1180 0020 1046     		mov	r0, r2
 1181 0022 1946     		mov	r1, r3
 1182 0024 FFF7FEFF 		bl	ETH0_W51_Write
 1183 0028 07F10807 		add	r7, r7, #8
 1184 002c BD46     		mov	sp, r7
 1185 002e 80BD     		pop	{r7, pc}
 1186              		.cfi_endproc
 1187              	.LFE41:
 1188              		.size	ETH0_SetSocketIR, .-ETH0_SetSocketIR
 1189              		.section	.text.ETH0_GetSocketIR,"ax",%progbits
 1190              		.align	2
 1191              		.thumb
 1192              		.thumb_func
 1193              		.type	ETH0_GetSocketIR, %function
 1194              	ETH0_GetSocketIR:
 1195              	.LFB42:
 574:.\Generated_Source\PSoC5/ETH0.c **** /* ------------------------------------------------------------------------ */
 575:.\Generated_Source\PSoC5/ETH0.c **** /**
 576:.\Generated_Source\PSoC5/ETH0.c ****  * \brief Read a value from the socket interrupt register
 577:.\Generated_Source\PSoC5/ETH0.c ****  * \param socket the socket number for the addressed register
 578:.\Generated_Source\PSoC5/ETH0.c ****  * \returns the value read from the register
 579:.\Generated_Source\PSoC5/ETH0.c ****  */
 580:.\Generated_Source\PSoC5/ETH0.c **** static inline uint8 ETH0_GetSocketIR(uint8 socket)
 581:.\Generated_Source\PSoC5/ETH0.c **** { return ETH0_W51_Read(ETH0_SOCKET_BASE(socket)+2); }
 1196              		.loc 1 581 0
 1197              		.cfi_startproc
 1198              		@ args = 0, pretend = 0, frame = 8
 1199              		@ frame_needed = 1, uses_anonymous_args = 0
 1200 0000 80B5     		push	{r7, lr}
 1201              	.LCFI73:
 1202              		.cfi_def_cfa_offset 8
 1203              		.cfi_offset 7, -8
 1204              		.cfi_offset 14, -4
 1205 0002 82B0     		sub	sp, sp, #8
 1206              	.LCFI74:
 1207              		.cfi_def_cfa_offset 16
 1208 0004 00AF     		add	r7, sp, #0
 1209              	.LCFI75:
 1210              		.cfi_def_cfa_register 7
 1211 0006 0346     		mov	r3, r0
 1212 0008 FB71     		strb	r3, [r7, #7]
 1213              		.loc 1 581 0
 1214 000a FB79     		ldrb	r3, [r7, #7]	@ zero_extendqisi2
 1215 000c 9BB2     		uxth	r3, r3
 1216 000e 4FEA0323 		lsl	r3, r3, #8
 1217 0012 9BB2     		uxth	r3, r3
 1218 0014 03F20243 		addw	r3, r3, #1026
 1219 0018 9BB2     		uxth	r3, r3
 1220 001a 1846     		mov	r0, r3
 1221 001c FFF7FEFF 		bl	ETH0_W51_Read
 1222 0020 0346     		mov	r3, r0
 1223 0022 1846     		mov	r0, r3
 1224 0024 07F10807 		add	r7, r7, #8
 1225 0028 BD46     		mov	sp, r7
 1226 002a 80BD     		pop	{r7, pc}
ARM GAS  C:\Users\CHUCK~1.ERH\AppData\Local\Temp\cco8cCZX.s 			page 33


 1227              		.cfi_endproc
 1228              	.LFE42:
 1229              		.size	ETH0_GetSocketIR, .-ETH0_GetSocketIR
 1230              		.section	.text.ETH0_GetSocketStatus,"ax",%progbits
 1231              		.align	2
 1232              		.thumb
 1233              		.thumb_func
 1234              		.type	ETH0_GetSocketStatus, %function
 1235              	ETH0_GetSocketStatus:
 1236              	.LFB44:
 582:.\Generated_Source\PSoC5/ETH0.c **** /* ------------------------------------------------------------------------ */
 583:.\Generated_Source\PSoC5/ETH0.c **** /**
 584:.\Generated_Source\PSoC5/ETH0.c ****  * \brief Write a value to the socket status register
 585:.\Generated_Source\PSoC5/ETH0.c ****  * \param socket the socket number for the addressed register
 586:.\Generated_Source\PSoC5/ETH0.c ****  * \param status the value to be written to the register
 587:.\Generated_Source\PSoC5/ETH0.c ****  */
 588:.\Generated_Source\PSoC5/ETH0.c **** static inline void ETH0_SetSocketStatus(uint8 socket, uint8 status)
 589:.\Generated_Source\PSoC5/ETH0.c **** { ETH0_W51_Write(ETH0_SOCKET_BASE(socket)+3,status); }
 590:.\Generated_Source\PSoC5/ETH0.c **** /* ------------------------------------------------------------------------ */
 591:.\Generated_Source\PSoC5/ETH0.c **** /**
 592:.\Generated_Source\PSoC5/ETH0.c ****  * \brief Read a value from the socket status register
 593:.\Generated_Source\PSoC5/ETH0.c ****  * \param socket the socket number for the addressed register
 594:.\Generated_Source\PSoC5/ETH0.c ****  * \returns the value read from the register
 595:.\Generated_Source\PSoC5/ETH0.c ****  */
 596:.\Generated_Source\PSoC5/ETH0.c **** static inline uint8 ETH0_GetSocketStatus(uint8 socket)
 597:.\Generated_Source\PSoC5/ETH0.c **** { return ETH0_W51_Read(ETH0_SOCKET_BASE(socket)+3); }
 1237              		.loc 1 597 0
 1238              		.cfi_startproc
 1239              		@ args = 0, pretend = 0, frame = 8
 1240              		@ frame_needed = 1, uses_anonymous_args = 0
 1241 0000 80B5     		push	{r7, lr}
 1242              	.LCFI76:
 1243              		.cfi_def_cfa_offset 8
 1244              		.cfi_offset 7, -8
 1245              		.cfi_offset 14, -4
 1246 0002 82B0     		sub	sp, sp, #8
 1247              	.LCFI77:
 1248              		.cfi_def_cfa_offset 16
 1249 0004 00AF     		add	r7, sp, #0
 1250              	.LCFI78:
 1251              		.cfi_def_cfa_register 7
 1252 0006 0346     		mov	r3, r0
 1253 0008 FB71     		strb	r3, [r7, #7]
 1254              		.loc 1 597 0
 1255 000a FB79     		ldrb	r3, [r7, #7]	@ zero_extendqisi2
 1256 000c 9BB2     		uxth	r3, r3
 1257 000e 4FEA0323 		lsl	r3, r3, #8
 1258 0012 9BB2     		uxth	r3, r3
 1259 0014 03F20343 		addw	r3, r3, #1027
 1260 0018 9BB2     		uxth	r3, r3
 1261 001a 1846     		mov	r0, r3
 1262 001c FFF7FEFF 		bl	ETH0_W51_Read
 1263 0020 0346     		mov	r3, r0
 1264 0022 1846     		mov	r0, r3
 1265 0024 07F10807 		add	r7, r7, #8
 1266 0028 BD46     		mov	sp, r7
 1267 002a 80BD     		pop	{r7, pc}
ARM GAS  C:\Users\CHUCK~1.ERH\AppData\Local\Temp\cco8cCZX.s 			page 34


 1268              		.cfi_endproc
 1269              	.LFE44:
 1270              		.size	ETH0_GetSocketStatus, .-ETH0_GetSocketStatus
 1271              		.section	.text.ETH0_SetSocketSourcePort,"ax",%progbits
 1272              		.align	2
 1273              		.thumb
 1274              		.thumb_func
 1275              		.type	ETH0_SetSocketSourcePort, %function
 1276              	ETH0_SetSocketSourcePort:
 1277              	.LFB45:
 598:.\Generated_Source\PSoC5/ETH0.c **** /* ------------------------------------------------------------------------ */
 599:.\Generated_Source\PSoC5/ETH0.c **** /**
 600:.\Generated_Source\PSoC5/ETH0.c ****  * \brief Write a value to the socket source port register
 601:.\Generated_Source\PSoC5/ETH0.c ****  * \param socket the socket number for the addressed register
 602:.\Generated_Source\PSoC5/ETH0.c ****  * \param port the value to be written to the register
 603:.\Generated_Source\PSoC5/ETH0.c ****  */
 604:.\Generated_Source\PSoC5/ETH0.c **** static inline void ETH0_SetSocketSourcePort(uint8 socket, uint16 port)
 605:.\Generated_Source\PSoC5/ETH0.c **** { ETH0_W51_Write16(ETH0_SOCKET_BASE(socket)+4,port); }
 1278              		.loc 1 605 0
 1279              		.cfi_startproc
 1280              		@ args = 0, pretend = 0, frame = 8
 1281              		@ frame_needed = 1, uses_anonymous_args = 0
 1282 0000 80B5     		push	{r7, lr}
 1283              	.LCFI79:
 1284              		.cfi_def_cfa_offset 8
 1285              		.cfi_offset 7, -8
 1286              		.cfi_offset 14, -4
 1287 0002 82B0     		sub	sp, sp, #8
 1288              	.LCFI80:
 1289              		.cfi_def_cfa_offset 16
 1290 0004 00AF     		add	r7, sp, #0
 1291              	.LCFI81:
 1292              		.cfi_def_cfa_register 7
 1293 0006 0246     		mov	r2, r0
 1294 0008 0B46     		mov	r3, r1
 1295 000a FA71     		strb	r2, [r7, #7]
 1296 000c BB80     		strh	r3, [r7, #4]	@ movhi
 1297              		.loc 1 605 0
 1298 000e FB79     		ldrb	r3, [r7, #7]	@ zero_extendqisi2
 1299 0010 9BB2     		uxth	r3, r3
 1300 0012 4FEA0323 		lsl	r3, r3, #8
 1301 0016 9BB2     		uxth	r3, r3
 1302 0018 03F20443 		addw	r3, r3, #1028
 1303 001c 9AB2     		uxth	r2, r3
 1304 001e BB88     		ldrh	r3, [r7, #4]
 1305 0020 1046     		mov	r0, r2
 1306 0022 1946     		mov	r1, r3
 1307 0024 FFF7FEFF 		bl	ETH0_W51_Write16
 1308 0028 07F10807 		add	r7, r7, #8
 1309 002c BD46     		mov	sp, r7
 1310 002e 80BD     		pop	{r7, pc}
 1311              		.cfi_endproc
 1312              	.LFE45:
 1313              		.size	ETH0_SetSocketSourcePort, .-ETH0_SetSocketSourcePort
 1314              		.section	.text.ETH0_SetSocketDestIP,"ax",%progbits
 1315              		.align	2
 1316              		.thumb
ARM GAS  C:\Users\CHUCK~1.ERH\AppData\Local\Temp\cco8cCZX.s 			page 35


 1317              		.thumb_func
 1318              		.type	ETH0_SetSocketDestIP, %function
 1319              	ETH0_SetSocketDestIP:
 1320              	.LFB49:
 606:.\Generated_Source\PSoC5/ETH0.c **** /* ------------------------------------------------------------------------ */
 607:.\Generated_Source\PSoC5/ETH0.c **** /**
 608:.\Generated_Source\PSoC5/ETH0.c ****  * \brief Read a value from the socket source port register
 609:.\Generated_Source\PSoC5/ETH0.c ****  * \param socket the socket number for the addressed register
 610:.\Generated_Source\PSoC5/ETH0.c ****  * \returns the value read from the register
 611:.\Generated_Source\PSoC5/ETH0.c ****  */
 612:.\Generated_Source\PSoC5/ETH0.c **** static inline uint16 ETH0_GetSocketSourcePort(uint8 socket)
 613:.\Generated_Source\PSoC5/ETH0.c **** { return ETH0_W51_Read16(ETH0_SOCKET_BASE(socket)+4); }
 614:.\Generated_Source\PSoC5/ETH0.c **** /* ------------------------------------------------------------------------ */
 615:.\Generated_Source\PSoC5/ETH0.c **** /**
 616:.\Generated_Source\PSoC5/ETH0.c ****  * \brief Write a value to the socket Destination hardware address register
 617:.\Generated_Source\PSoC5/ETH0.c ****  * \param socket the socket number for the addressed register
 618:.\Generated_Source\PSoC5/ETH0.c ****  * \param *mac poitner to the array holding the values to be written to the register
 619:.\Generated_Source\PSoC5/ETH0.c ****  */
 620:.\Generated_Source\PSoC5/ETH0.c **** static inline void ETH0_SetSocketDestMAC(uint8 socket, uint8* mac)
 621:.\Generated_Source\PSoC5/ETH0.c **** { ETH0_W51_SetMAC( ETH0_SOCKET_BASE(socket)+6, mac); }
 622:.\Generated_Source\PSoC5/ETH0.c **** /* ------------------------------------------------------------------------ */
 623:.\Generated_Source\PSoC5/ETH0.c **** /**
 624:.\Generated_Source\PSoC5/ETH0.c ****  * \brief Read a value from the socket destination hardware address (MAC) register
 625:.\Generated_Source\PSoC5/ETH0.c ****  * \param socket the socket number for the addressed register
 626:.\Generated_Source\PSoC5/ETH0.c ****  * \returns the value read from the register
 627:.\Generated_Source\PSoC5/ETH0.c ****  */
 628:.\Generated_Source\PSoC5/ETH0.c **** static inline void ETH0_GetSocketDestMAC(uint8 socket, uint8* mac)
 629:.\Generated_Source\PSoC5/ETH0.c **** { ETH0_W51_GetMAC( ETH0_SOCKET_BASE(socket)+6,mac); }
 630:.\Generated_Source\PSoC5/ETH0.c **** /* ------------------------------------------------------------------------ */
 631:.\Generated_Source\PSoC5/ETH0.c **** /**
 632:.\Generated_Source\PSoC5/ETH0.c ****  * \brief Write a value to the socket Destination IP address register
 633:.\Generated_Source\PSoC5/ETH0.c ****  * \param socket the socket number for the addressed register
 634:.\Generated_Source\PSoC5/ETH0.c ****  * \param ip the value to be written to the register
 635:.\Generated_Source\PSoC5/ETH0.c ****  */
 636:.\Generated_Source\PSoC5/ETH0.c **** static inline void ETH0_SetSocketDestIP(uint8 socket, uint32 ip)
 637:.\Generated_Source\PSoC5/ETH0.c **** { ETH0_W51_SetIP(ETH0_SOCKET_BASE(socket)+12,ip); }
 1321              		.loc 1 637 0
 1322              		.cfi_startproc
 1323              		@ args = 0, pretend = 0, frame = 8
 1324              		@ frame_needed = 1, uses_anonymous_args = 0
 1325 0000 80B5     		push	{r7, lr}
 1326              	.LCFI82:
 1327              		.cfi_def_cfa_offset 8
 1328              		.cfi_offset 7, -8
 1329              		.cfi_offset 14, -4
 1330 0002 82B0     		sub	sp, sp, #8
 1331              	.LCFI83:
 1332              		.cfi_def_cfa_offset 16
 1333 0004 00AF     		add	r7, sp, #0
 1334              	.LCFI84:
 1335              		.cfi_def_cfa_register 7
 1336 0006 0346     		mov	r3, r0
 1337 0008 3960     		str	r1, [r7, #0]
 1338 000a FB71     		strb	r3, [r7, #7]
 1339              		.loc 1 637 0
 1340 000c FB79     		ldrb	r3, [r7, #7]	@ zero_extendqisi2
 1341 000e 9BB2     		uxth	r3, r3
ARM GAS  C:\Users\CHUCK~1.ERH\AppData\Local\Temp\cco8cCZX.s 			page 36


 1342 0010 4FEA0323 		lsl	r3, r3, #8
 1343 0014 9BB2     		uxth	r3, r3
 1344 0016 03F20C43 		addw	r3, r3, #1036
 1345 001a 9BB2     		uxth	r3, r3
 1346 001c 1846     		mov	r0, r3
 1347 001e 3968     		ldr	r1, [r7, #0]
 1348 0020 FFF7FEFF 		bl	ETH0_W51_SetIP
 1349 0024 07F10807 		add	r7, r7, #8
 1350 0028 BD46     		mov	sp, r7
 1351 002a 80BD     		pop	{r7, pc}
 1352              		.cfi_endproc
 1353              	.LFE49:
 1354              		.size	ETH0_SetSocketDestIP, .-ETH0_SetSocketDestIP
 1355              		.section	.text.ETH0_SetSocketDestPort,"ax",%progbits
 1356              		.align	2
 1357              		.thumb
 1358              		.thumb_func
 1359              		.type	ETH0_SetSocketDestPort, %function
 1360              	ETH0_SetSocketDestPort:
 1361              	.LFB51:
 638:.\Generated_Source\PSoC5/ETH0.c **** /* ------------------------------------------------------------------------ */
 639:.\Generated_Source\PSoC5/ETH0.c **** /**
 640:.\Generated_Source\PSoC5/ETH0.c ****  * \brief Read a value from the socket destination IP register
 641:.\Generated_Source\PSoC5/ETH0.c ****  * \param socket the socket number for the addressed register
 642:.\Generated_Source\PSoC5/ETH0.c ****  * \returns the value read from the register
 643:.\Generated_Source\PSoC5/ETH0.c ****  */
 644:.\Generated_Source\PSoC5/ETH0.c **** static inline uint32 ETH0_GetSocketDestIP(uint8 socket )
 645:.\Generated_Source\PSoC5/ETH0.c **** { return ETH0_W51_GetIP(ETH0_SOCKET_BASE(socket)+12); }
 646:.\Generated_Source\PSoC5/ETH0.c **** /* ------------------------------------------------------------------------ */
 647:.\Generated_Source\PSoC5/ETH0.c **** /**
 648:.\Generated_Source\PSoC5/ETH0.c ****  * \brief Write a value to the socket destination port register
 649:.\Generated_Source\PSoC5/ETH0.c ****  * \param socket the socket number for the addressed register
 650:.\Generated_Source\PSoC5/ETH0.c ****  * \param port the value to be written to the register
 651:.\Generated_Source\PSoC5/ETH0.c ****  */
 652:.\Generated_Source\PSoC5/ETH0.c **** static inline void ETH0_SetSocketDestPort(uint8 socket, uint16 port)
 653:.\Generated_Source\PSoC5/ETH0.c **** { ETH0_W51_Write16( ETH0_SOCKET_BASE(socket)+16, port); }
 1362              		.loc 1 653 0
 1363              		.cfi_startproc
 1364              		@ args = 0, pretend = 0, frame = 8
 1365              		@ frame_needed = 1, uses_anonymous_args = 0
 1366 0000 80B5     		push	{r7, lr}
 1367              	.LCFI85:
 1368              		.cfi_def_cfa_offset 8
 1369              		.cfi_offset 7, -8
 1370              		.cfi_offset 14, -4
 1371 0002 82B0     		sub	sp, sp, #8
 1372              	.LCFI86:
 1373              		.cfi_def_cfa_offset 16
 1374 0004 00AF     		add	r7, sp, #0
 1375              	.LCFI87:
 1376              		.cfi_def_cfa_register 7
 1377 0006 0246     		mov	r2, r0
 1378 0008 0B46     		mov	r3, r1
 1379 000a FA71     		strb	r2, [r7, #7]
 1380 000c BB80     		strh	r3, [r7, #4]	@ movhi
 1381              		.loc 1 653 0
 1382 000e FB79     		ldrb	r3, [r7, #7]	@ zero_extendqisi2
ARM GAS  C:\Users\CHUCK~1.ERH\AppData\Local\Temp\cco8cCZX.s 			page 37


 1383 0010 9BB2     		uxth	r3, r3
 1384 0012 4FEA0323 		lsl	r3, r3, #8
 1385 0016 9BB2     		uxth	r3, r3
 1386 0018 03F58263 		add	r3, r3, #1040
 1387 001c 9AB2     		uxth	r2, r3
 1388 001e BB88     		ldrh	r3, [r7, #4]
 1389 0020 1046     		mov	r0, r2
 1390 0022 1946     		mov	r1, r3
 1391 0024 FFF7FEFF 		bl	ETH0_W51_Write16
 1392 0028 07F10807 		add	r7, r7, #8
 1393 002c BD46     		mov	sp, r7
 1394 002e 80BD     		pop	{r7, pc}
 1395              		.cfi_endproc
 1396              	.LFE51:
 1397              		.size	ETH0_SetSocketDestPort, .-ETH0_SetSocketDestPort
 1398              		.section	.text.ETH0_GetSocketTxFree,"ax",%progbits
 1399              		.align	2
 1400              		.thumb
 1401              		.thumb_func
 1402              		.type	ETH0_GetSocketTxFree, %function
 1403              	ETH0_GetSocketTxFree:
 1404              	.LFB61:
 654:.\Generated_Source\PSoC5/ETH0.c **** /* ------------------------------------------------------------------------ */
 655:.\Generated_Source\PSoC5/ETH0.c **** /**
 656:.\Generated_Source\PSoC5/ETH0.c ****  * \brief Read a value from the socket destination port register
 657:.\Generated_Source\PSoC5/ETH0.c ****  * \param socket the socket number for the addressed register
 658:.\Generated_Source\PSoC5/ETH0.c ****  * \returns the value read from the register
 659:.\Generated_Source\PSoC5/ETH0.c ****  */
 660:.\Generated_Source\PSoC5/ETH0.c **** static inline uint16 ETH0_GetSocketDestPort(uint8 socket)
 661:.\Generated_Source\PSoC5/ETH0.c **** { return ETH0_W51_Read16( ETH0_SOCKET_BASE(socket)+16 ); }
 662:.\Generated_Source\PSoC5/ETH0.c **** /* ------------------------------------------------------------------------ */
 663:.\Generated_Source\PSoC5/ETH0.c **** /**
 664:.\Generated_Source\PSoC5/ETH0.c ****  * \brief Write a value to the socket max segment size register
 665:.\Generated_Source\PSoC5/ETH0.c ****  * \param socket the socket number for the addressed register
 666:.\Generated_Source\PSoC5/ETH0.c ****  * \param size the value to be written to the register
 667:.\Generated_Source\PSoC5/ETH0.c ****  */
 668:.\Generated_Source\PSoC5/ETH0.c **** static inline void ETH0_SetSocketMaxSegSize(uint8 socket, uint16 size)
 669:.\Generated_Source\PSoC5/ETH0.c **** { ETH0_W51_Write16(ETH0_SOCKET_BASE(socket)+18,size); }
 670:.\Generated_Source\PSoC5/ETH0.c **** /* ------------------------------------------------------------------------ */
 671:.\Generated_Source\PSoC5/ETH0.c **** /**
 672:.\Generated_Source\PSoC5/ETH0.c ****  * \brief Read a value from the socket maximum segment size register
 673:.\Generated_Source\PSoC5/ETH0.c ****  * \param socket the socket number for the addressed register
 674:.\Generated_Source\PSoC5/ETH0.c ****  * \returns the value read from the register
 675:.\Generated_Source\PSoC5/ETH0.c ****  */
 676:.\Generated_Source\PSoC5/ETH0.c **** static inline uint16 ETH0_GetSocketMaxSegSize(uint8 socket)
 677:.\Generated_Source\PSoC5/ETH0.c **** { return ETH0_W51_Read16(ETH0_SOCKET_BASE(socket)+18); }
 678:.\Generated_Source\PSoC5/ETH0.c **** /* ------------------------------------------------------------------------ */
 679:.\Generated_Source\PSoC5/ETH0.c **** /**
 680:.\Generated_Source\PSoC5/ETH0.c ****  * \brief Read a value from the socket protocol register (IP RAW/MAC RAW mode)
 681:.\Generated_Source\PSoC5/ETH0.c ****  * \param socket the socket number for the addressed register
 682:.\Generated_Source\PSoC5/ETH0.c ****  * \returns the value read from the register
 683:.\Generated_Source\PSoC5/ETH0.c ****  */
 684:.\Generated_Source\PSoC5/ETH0.c **** static inline uint16  ETH0_GetSocketProto(uint8 socket)
 685:.\Generated_Source\PSoC5/ETH0.c **** { return ETH0_W51_Read(ETH0_SOCKET_BASE(socket)+20); }
 686:.\Generated_Source\PSoC5/ETH0.c **** /* ------------------------------------------------------------------------ */
 687:.\Generated_Source\PSoC5/ETH0.c **** /**
 688:.\Generated_Source\PSoC5/ETH0.c ****  * \brief Write a value to the socket TOS register
ARM GAS  C:\Users\CHUCK~1.ERH\AppData\Local\Temp\cco8cCZX.s 			page 38


 689:.\Generated_Source\PSoC5/ETH0.c ****  * \param socket the socket number for the addressed register
 690:.\Generated_Source\PSoC5/ETH0.c ****  * \param tos the value to be written to the register
 691:.\Generated_Source\PSoC5/ETH0.c ****  */
 692:.\Generated_Source\PSoC5/ETH0.c **** static inline void ETH0_SetSocketTOS(uint8 socket, uint8 tos)
 693:.\Generated_Source\PSoC5/ETH0.c **** { ETH0_W51_Write(ETH0_SOCKET_BASE(socket)+21, tos); }
 694:.\Generated_Source\PSoC5/ETH0.c **** /* ------------------------------------------------------------------------ */
 695:.\Generated_Source\PSoC5/ETH0.c **** /**
 696:.\Generated_Source\PSoC5/ETH0.c ****  * \brief Read a value from the socket TOS register
 697:.\Generated_Source\PSoC5/ETH0.c ****  * \param socket the socket number for the addressed register
 698:.\Generated_Source\PSoC5/ETH0.c ****  * \returns the value read from the register
 699:.\Generated_Source\PSoC5/ETH0.c ****  */
 700:.\Generated_Source\PSoC5/ETH0.c **** static inline uint8 ETH0_GetSocketTOS(uint8 socket)
 701:.\Generated_Source\PSoC5/ETH0.c **** { return ETH0_W51_Read(ETH0_SOCKET_BASE(socket)+21); }
 702:.\Generated_Source\PSoC5/ETH0.c **** /* ------------------------------------------------------------------------ */
 703:.\Generated_Source\PSoC5/ETH0.c **** /**
 704:.\Generated_Source\PSoC5/ETH0.c ****  * \brief Write a value to the socket Time-To_Live (TTL) register
 705:.\Generated_Source\PSoC5/ETH0.c ****  * \param socket the socket number for the addressed register
 706:.\Generated_Source\PSoC5/ETH0.c ****  * \param ttl the value to be written to the register
 707:.\Generated_Source\PSoC5/ETH0.c ****  */
 708:.\Generated_Source\PSoC5/ETH0.c **** static inline void ETH0_SetSocketTTL(uint8 socket, uint8 ttl)
 709:.\Generated_Source\PSoC5/ETH0.c **** { ETH0_W51_Write(ETH0_SOCKET_BASE(socket)+22,ttl); }
 710:.\Generated_Source\PSoC5/ETH0.c **** /* ------------------------------------------------------------------------ */
 711:.\Generated_Source\PSoC5/ETH0.c **** /**
 712:.\Generated_Source\PSoC5/ETH0.c ****  * \brief Read a value from the socket time-to-live (TTL) register
 713:.\Generated_Source\PSoC5/ETH0.c ****  * \param socket the socket number for the addressed register
 714:.\Generated_Source\PSoC5/ETH0.c ****  * \returns the value read from the register
 715:.\Generated_Source\PSoC5/ETH0.c ****  */
 716:.\Generated_Source\PSoC5/ETH0.c **** static inline uint8 ETH0_GetSocketTTL(uint8 socket)
 717:.\Generated_Source\PSoC5/ETH0.c **** { return ETH0_W51_Read(ETH0_SOCKET_BASE(socket)+22); }
 718:.\Generated_Source\PSoC5/ETH0.c **** /* ------------------------------------------------------------------------ */
 719:.\Generated_Source\PSoC5/ETH0.c **** /**
 720:.\Generated_Source\PSoC5/ETH0.c ****  * \brief Write a value to the socket tx free size register
 721:.\Generated_Source\PSoC5/ETH0.c ****  * \param socket the socket number for the addressed register
 722:.\Generated_Source\PSoC5/ETH0.c ****  * \param size the value to be written to the register
 723:.\Generated_Source\PSoC5/ETH0.c ****  */
 724:.\Generated_Source\PSoC5/ETH0.c **** static inline void ETH0_SetSocketTxFree( uint8 socket, uint16 size)
 725:.\Generated_Source\PSoC5/ETH0.c **** { ETH0_W51_Write16(ETH0_SOCKET_BASE(socket)+0x20,size); }
 726:.\Generated_Source\PSoC5/ETH0.c **** /* ------------------------------------------------------------------------ */
 727:.\Generated_Source\PSoC5/ETH0.c **** /**
 728:.\Generated_Source\PSoC5/ETH0.c ****  * \brief Read a value from the socket Tx free size register
 729:.\Generated_Source\PSoC5/ETH0.c ****  * \param socket the socket number for the addressed register
 730:.\Generated_Source\PSoC5/ETH0.c ****  * \returns the value read from the register
 731:.\Generated_Source\PSoC5/ETH0.c ****  */
 732:.\Generated_Source\PSoC5/ETH0.c **** static inline uint16 ETH0_GetSocketTxFree(uint8 socket)
 733:.\Generated_Source\PSoC5/ETH0.c **** { return ETH0_W51_Read16(ETH0_SOCKET_BASE(socket)+0x20); }
 1405              		.loc 1 733 0
 1406              		.cfi_startproc
 1407              		@ args = 0, pretend = 0, frame = 8
 1408              		@ frame_needed = 1, uses_anonymous_args = 0
 1409 0000 80B5     		push	{r7, lr}
 1410              	.LCFI88:
 1411              		.cfi_def_cfa_offset 8
 1412              		.cfi_offset 7, -8
 1413              		.cfi_offset 14, -4
 1414 0002 82B0     		sub	sp, sp, #8
 1415              	.LCFI89:
 1416              		.cfi_def_cfa_offset 16
ARM GAS  C:\Users\CHUCK~1.ERH\AppData\Local\Temp\cco8cCZX.s 			page 39


 1417 0004 00AF     		add	r7, sp, #0
 1418              	.LCFI90:
 1419              		.cfi_def_cfa_register 7
 1420 0006 0346     		mov	r3, r0
 1421 0008 FB71     		strb	r3, [r7, #7]
 1422              		.loc 1 733 0
 1423 000a FB79     		ldrb	r3, [r7, #7]	@ zero_extendqisi2
 1424 000c 9BB2     		uxth	r3, r3
 1425 000e 4FEA0323 		lsl	r3, r3, #8
 1426 0012 9BB2     		uxth	r3, r3
 1427 0014 03F58463 		add	r3, r3, #1056
 1428 0018 9BB2     		uxth	r3, r3
 1429 001a 1846     		mov	r0, r3
 1430 001c FFF7FEFF 		bl	ETH0_W51_Read16
 1431 0020 0346     		mov	r3, r0
 1432 0022 1846     		mov	r0, r3
 1433 0024 07F10807 		add	r7, r7, #8
 1434 0028 BD46     		mov	sp, r7
 1435 002a 80BD     		pop	{r7, pc}
 1436              		.cfi_endproc
 1437              	.LFE61:
 1438              		.size	ETH0_GetSocketTxFree, .-ETH0_GetSocketTxFree
 1439              		.section	.text.ETH0_SetSocketTxWritePtr,"ax",%progbits
 1440              		.align	2
 1441              		.thumb
 1442              		.thumb_func
 1443              		.type	ETH0_SetSocketTxWritePtr, %function
 1444              	ETH0_SetSocketTxWritePtr:
 1445              	.LFB64:
 734:.\Generated_Source\PSoC5/ETH0.c **** /* ------------------------------------------------------------------------ */
 735:.\Generated_Source\PSoC5/ETH0.c **** /**
 736:.\Generated_Source\PSoC5/ETH0.c ****  * \brief Write a value to the socket tx read pointer register
 737:.\Generated_Source\PSoC5/ETH0.c ****  * \param socket the socket number for the addressed register
 738:.\Generated_Source\PSoC5/ETH0.c ****  * \param ptr the value to be written to the register
 739:.\Generated_Source\PSoC5/ETH0.c ****  */
 740:.\Generated_Source\PSoC5/ETH0.c **** static inline void ETH0_SetSocketTxReadPtr(uint8 socket, uint16 ptr)
 741:.\Generated_Source\PSoC5/ETH0.c **** { ETH0_W51_Write16(ETH0_SOCKET_BASE(socket)+0x22,ptr); }
 742:.\Generated_Source\PSoC5/ETH0.c **** /* ------------------------------------------------------------------------ */
 743:.\Generated_Source\PSoC5/ETH0.c **** /**
 744:.\Generated_Source\PSoC5/ETH0.c ****  * \brief Read a value from the socket Tx buffer read pointer register
 745:.\Generated_Source\PSoC5/ETH0.c ****  * \param socket the socket number for the addressed register
 746:.\Generated_Source\PSoC5/ETH0.c ****  * \returns the value read from the register
 747:.\Generated_Source\PSoC5/ETH0.c ****  */
 748:.\Generated_Source\PSoC5/ETH0.c **** static inline uint16 ETH0_GetSocketTxReadPtr(uint8 socket)
 749:.\Generated_Source\PSoC5/ETH0.c **** { return ETH0_W51_Read16(ETH0_SOCKET_BASE(socket)+0x22); }
 750:.\Generated_Source\PSoC5/ETH0.c **** /* ------------------------------------------------------------------------ */
 751:.\Generated_Source\PSoC5/ETH0.c **** /**
 752:.\Generated_Source\PSoC5/ETH0.c ****  * \brief Write a value to the socket tx write pointer register
 753:.\Generated_Source\PSoC5/ETH0.c ****  * \param socket the socket number for the addressed register
 754:.\Generated_Source\PSoC5/ETH0.c ****  * \param ptr the value to be written to the register
 755:.\Generated_Source\PSoC5/ETH0.c ****  */
 756:.\Generated_Source\PSoC5/ETH0.c **** static inline void ETH0_SetSocketTxWritePtr(uint8 socket, uint16 ptr)
 757:.\Generated_Source\PSoC5/ETH0.c **** { ETH0_W51_Write16(ETH0_SOCKET_BASE(socket)+0x24,ptr); }
 1446              		.loc 1 757 0
 1447              		.cfi_startproc
 1448              		@ args = 0, pretend = 0, frame = 8
 1449              		@ frame_needed = 1, uses_anonymous_args = 0
ARM GAS  C:\Users\CHUCK~1.ERH\AppData\Local\Temp\cco8cCZX.s 			page 40


 1450 0000 80B5     		push	{r7, lr}
 1451              	.LCFI91:
 1452              		.cfi_def_cfa_offset 8
 1453              		.cfi_offset 7, -8
 1454              		.cfi_offset 14, -4
 1455 0002 82B0     		sub	sp, sp, #8
 1456              	.LCFI92:
 1457              		.cfi_def_cfa_offset 16
 1458 0004 00AF     		add	r7, sp, #0
 1459              	.LCFI93:
 1460              		.cfi_def_cfa_register 7
 1461 0006 0246     		mov	r2, r0
 1462 0008 0B46     		mov	r3, r1
 1463 000a FA71     		strb	r2, [r7, #7]
 1464 000c BB80     		strh	r3, [r7, #4]	@ movhi
 1465              		.loc 1 757 0
 1466 000e FB79     		ldrb	r3, [r7, #7]	@ zero_extendqisi2
 1467 0010 9BB2     		uxth	r3, r3
 1468 0012 4FEA0323 		lsl	r3, r3, #8
 1469 0016 9BB2     		uxth	r3, r3
 1470 0018 03F22443 		addw	r3, r3, #1060
 1471 001c 9AB2     		uxth	r2, r3
 1472 001e BB88     		ldrh	r3, [r7, #4]
 1473 0020 1046     		mov	r0, r2
 1474 0022 1946     		mov	r1, r3
 1475 0024 FFF7FEFF 		bl	ETH0_W51_Write16
 1476 0028 07F10807 		add	r7, r7, #8
 1477 002c BD46     		mov	sp, r7
 1478 002e 80BD     		pop	{r7, pc}
 1479              		.cfi_endproc
 1480              	.LFE64:
 1481              		.size	ETH0_SetSocketTxWritePtr, .-ETH0_SetSocketTxWritePtr
 1482              		.section	.text.ETH0_GetSocketTxWritePtr,"ax",%progbits
 1483              		.align	2
 1484              		.thumb
 1485              		.thumb_func
 1486              		.type	ETH0_GetSocketTxWritePtr, %function
 1487              	ETH0_GetSocketTxWritePtr:
 1488              	.LFB65:
 758:.\Generated_Source\PSoC5/ETH0.c **** /* ------------------------------------------------------------------------ */
 759:.\Generated_Source\PSoC5/ETH0.c **** /**
 760:.\Generated_Source\PSoC5/ETH0.c ****  * \brief Read a value from the socket tx buffer write pointer register
 761:.\Generated_Source\PSoC5/ETH0.c ****  * \param socket the socket number for the addressed register
 762:.\Generated_Source\PSoC5/ETH0.c ****  * \returns the value read from the register
 763:.\Generated_Source\PSoC5/ETH0.c ****  */
 764:.\Generated_Source\PSoC5/ETH0.c **** static inline uint16 ETH0_GetSocketTxWritePtr(uint8 socket)
 765:.\Generated_Source\PSoC5/ETH0.c **** { return ETH0_W51_Read16(ETH0_SOCKET_BASE(socket)+0x24); }
 1489              		.loc 1 765 0
 1490              		.cfi_startproc
 1491              		@ args = 0, pretend = 0, frame = 8
 1492              		@ frame_needed = 1, uses_anonymous_args = 0
 1493 0000 80B5     		push	{r7, lr}
 1494              	.LCFI94:
 1495              		.cfi_def_cfa_offset 8
 1496              		.cfi_offset 7, -8
 1497              		.cfi_offset 14, -4
 1498 0002 82B0     		sub	sp, sp, #8
ARM GAS  C:\Users\CHUCK~1.ERH\AppData\Local\Temp\cco8cCZX.s 			page 41


 1499              	.LCFI95:
 1500              		.cfi_def_cfa_offset 16
 1501 0004 00AF     		add	r7, sp, #0
 1502              	.LCFI96:
 1503              		.cfi_def_cfa_register 7
 1504 0006 0346     		mov	r3, r0
 1505 0008 FB71     		strb	r3, [r7, #7]
 1506              		.loc 1 765 0
 1507 000a FB79     		ldrb	r3, [r7, #7]	@ zero_extendqisi2
 1508 000c 9BB2     		uxth	r3, r3
 1509 000e 4FEA0323 		lsl	r3, r3, #8
 1510 0012 9BB2     		uxth	r3, r3
 1511 0014 03F22443 		addw	r3, r3, #1060
 1512 0018 9BB2     		uxth	r3, r3
 1513 001a 1846     		mov	r0, r3
 1514 001c FFF7FEFF 		bl	ETH0_W51_Read16
 1515 0020 0346     		mov	r3, r0
 1516 0022 1846     		mov	r0, r3
 1517 0024 07F10807 		add	r7, r7, #8
 1518 0028 BD46     		mov	sp, r7
 1519 002a 80BD     		pop	{r7, pc}
 1520              		.cfi_endproc
 1521              	.LFE65:
 1522              		.size	ETH0_GetSocketTxWritePtr, .-ETH0_GetSocketTxWritePtr
 1523              		.section	.text.ETH0_GetSocketRxSize,"ax",%progbits
 1524              		.align	2
 1525              		.thumb
 1526              		.thumb_func
 1527              		.type	ETH0_GetSocketRxSize, %function
 1528              	ETH0_GetSocketRxSize:
 1529              	.LFB66:
 766:.\Generated_Source\PSoC5/ETH0.c **** /* ------------------------------------------------------------------------ */
 767:.\Generated_Source\PSoC5/ETH0.c **** /**
 768:.\Generated_Source\PSoC5/ETH0.c ****  * \brief Read a value from the socket rx received data size register
 769:.\Generated_Source\PSoC5/ETH0.c ****  * \param socket the socket number for the addressed register
 770:.\Generated_Source\PSoC5/ETH0.c ****  * \returns the value read from the register
 771:.\Generated_Source\PSoC5/ETH0.c ****  */
 772:.\Generated_Source\PSoC5/ETH0.c **** static inline uint16 ETH0_GetSocketRxSize(uint8 socket)
 773:.\Generated_Source\PSoC5/ETH0.c **** { return ETH0_W51_Read16(ETH0_SOCKET_BASE(socket)+0x26); }
 1530              		.loc 1 773 0
 1531              		.cfi_startproc
 1532              		@ args = 0, pretend = 0, frame = 8
 1533              		@ frame_needed = 1, uses_anonymous_args = 0
 1534 0000 80B5     		push	{r7, lr}
 1535              	.LCFI97:
 1536              		.cfi_def_cfa_offset 8
 1537              		.cfi_offset 7, -8
 1538              		.cfi_offset 14, -4
 1539 0002 82B0     		sub	sp, sp, #8
 1540              	.LCFI98:
 1541              		.cfi_def_cfa_offset 16
 1542 0004 00AF     		add	r7, sp, #0
 1543              	.LCFI99:
 1544              		.cfi_def_cfa_register 7
 1545 0006 0346     		mov	r3, r0
 1546 0008 FB71     		strb	r3, [r7, #7]
 1547              		.loc 1 773 0
ARM GAS  C:\Users\CHUCK~1.ERH\AppData\Local\Temp\cco8cCZX.s 			page 42


 1548 000a FB79     		ldrb	r3, [r7, #7]	@ zero_extendqisi2
 1549 000c 9BB2     		uxth	r3, r3
 1550 000e 4FEA0323 		lsl	r3, r3, #8
 1551 0012 9BB2     		uxth	r3, r3
 1552 0014 03F22643 		addw	r3, r3, #1062
 1553 0018 9BB2     		uxth	r3, r3
 1554 001a 1846     		mov	r0, r3
 1555 001c FFF7FEFF 		bl	ETH0_W51_Read16
 1556 0020 0346     		mov	r3, r0
 1557 0022 1846     		mov	r0, r3
 1558 0024 07F10807 		add	r7, r7, #8
 1559 0028 BD46     		mov	sp, r7
 1560 002a 80BD     		pop	{r7, pc}
 1561              		.cfi_endproc
 1562              	.LFE66:
 1563              		.size	ETH0_GetSocketRxSize, .-ETH0_GetSocketRxSize
 1564              		.section	.text.ETH0_SetSocketRxReadPtr,"ax",%progbits
 1565              		.align	2
 1566              		.thumb
 1567              		.thumb_func
 1568              		.type	ETH0_SetSocketRxReadPtr, %function
 1569              	ETH0_SetSocketRxReadPtr:
 1570              	.LFB67:
 774:.\Generated_Source\PSoC5/ETH0.c **** /* ------------------------------------------------------------------------ */
 775:.\Generated_Source\PSoC5/ETH0.c **** /**
 776:.\Generated_Source\PSoC5/ETH0.c ****  * \brief Write a value to the socket rx read pointer register
 777:.\Generated_Source\PSoC5/ETH0.c ****  * \param socket the socket number for the addressed register
 778:.\Generated_Source\PSoC5/ETH0.c ****  * \param ptr the value to be written to the register
 779:.\Generated_Source\PSoC5/ETH0.c ****  */
 780:.\Generated_Source\PSoC5/ETH0.c **** static inline void ETH0_SetSocketRxReadPtr(uint8 socket, uint16 ptr)
 781:.\Generated_Source\PSoC5/ETH0.c **** { ETH0_W51_Write16(ETH0_SOCKET_BASE(socket)+0x28,ptr); }
 1571              		.loc 1 781 0
 1572              		.cfi_startproc
 1573              		@ args = 0, pretend = 0, frame = 8
 1574              		@ frame_needed = 1, uses_anonymous_args = 0
 1575 0000 80B5     		push	{r7, lr}
 1576              	.LCFI100:
 1577              		.cfi_def_cfa_offset 8
 1578              		.cfi_offset 7, -8
 1579              		.cfi_offset 14, -4
 1580 0002 82B0     		sub	sp, sp, #8
 1581              	.LCFI101:
 1582              		.cfi_def_cfa_offset 16
 1583 0004 00AF     		add	r7, sp, #0
 1584              	.LCFI102:
 1585              		.cfi_def_cfa_register 7
 1586 0006 0246     		mov	r2, r0
 1587 0008 0B46     		mov	r3, r1
 1588 000a FA71     		strb	r2, [r7, #7]
 1589 000c BB80     		strh	r3, [r7, #4]	@ movhi
 1590              		.loc 1 781 0
 1591 000e FB79     		ldrb	r3, [r7, #7]	@ zero_extendqisi2
 1592 0010 9BB2     		uxth	r3, r3
 1593 0012 4FEA0323 		lsl	r3, r3, #8
 1594 0016 9BB2     		uxth	r3, r3
 1595 0018 03F58563 		add	r3, r3, #1064
 1596 001c 9AB2     		uxth	r2, r3
ARM GAS  C:\Users\CHUCK~1.ERH\AppData\Local\Temp\cco8cCZX.s 			page 43


 1597 001e BB88     		ldrh	r3, [r7, #4]
 1598 0020 1046     		mov	r0, r2
 1599 0022 1946     		mov	r1, r3
 1600 0024 FFF7FEFF 		bl	ETH0_W51_Write16
 1601 0028 07F10807 		add	r7, r7, #8
 1602 002c BD46     		mov	sp, r7
 1603 002e 80BD     		pop	{r7, pc}
 1604              		.cfi_endproc
 1605              	.LFE67:
 1606              		.size	ETH0_SetSocketRxReadPtr, .-ETH0_SetSocketRxReadPtr
 1607              		.section	.text.ETH0_GetSocketRxReadPtr,"ax",%progbits
 1608              		.align	2
 1609              		.thumb
 1610              		.thumb_func
 1611              		.type	ETH0_GetSocketRxReadPtr, %function
 1612              	ETH0_GetSocketRxReadPtr:
 1613              	.LFB68:
 782:.\Generated_Source\PSoC5/ETH0.c **** /* ------------------------------------------------------------------------ */
 783:.\Generated_Source\PSoC5/ETH0.c **** /**
 784:.\Generated_Source\PSoC5/ETH0.c ****  * \brief Read a value from the socket rx buffer read pointer register
 785:.\Generated_Source\PSoC5/ETH0.c ****  * \param socket the socket number for the addressed register
 786:.\Generated_Source\PSoC5/ETH0.c ****  * \returns the value read from the register
 787:.\Generated_Source\PSoC5/ETH0.c ****  */
 788:.\Generated_Source\PSoC5/ETH0.c **** static inline uint16 ETH0_GetSocketRxReadPtr(uint8 socket)
 789:.\Generated_Source\PSoC5/ETH0.c **** { return ETH0_W51_Read16(ETH0_SOCKET_BASE(socket)+0x28); }
 1614              		.loc 1 789 0
 1615              		.cfi_startproc
 1616              		@ args = 0, pretend = 0, frame = 8
 1617              		@ frame_needed = 1, uses_anonymous_args = 0
 1618 0000 80B5     		push	{r7, lr}
 1619              	.LCFI103:
 1620              		.cfi_def_cfa_offset 8
 1621              		.cfi_offset 7, -8
 1622              		.cfi_offset 14, -4
 1623 0002 82B0     		sub	sp, sp, #8
 1624              	.LCFI104:
 1625              		.cfi_def_cfa_offset 16
 1626 0004 00AF     		add	r7, sp, #0
 1627              	.LCFI105:
 1628              		.cfi_def_cfa_register 7
 1629 0006 0346     		mov	r3, r0
 1630 0008 FB71     		strb	r3, [r7, #7]
 1631              		.loc 1 789 0
 1632 000a FB79     		ldrb	r3, [r7, #7]	@ zero_extendqisi2
 1633 000c 9BB2     		uxth	r3, r3
 1634 000e 4FEA0323 		lsl	r3, r3, #8
 1635 0012 9BB2     		uxth	r3, r3
 1636 0014 03F58563 		add	r3, r3, #1064
 1637 0018 9BB2     		uxth	r3, r3
 1638 001a 1846     		mov	r0, r3
 1639 001c FFF7FEFF 		bl	ETH0_W51_Read16
 1640 0020 0346     		mov	r3, r0
 1641 0022 1846     		mov	r0, r3
 1642 0024 07F10807 		add	r7, r7, #8
 1643 0028 BD46     		mov	sp, r7
 1644 002a 80BD     		pop	{r7, pc}
 1645              		.cfi_endproc
ARM GAS  C:\Users\CHUCK~1.ERH\AppData\Local\Temp\cco8cCZX.s 			page 44


 1646              	.LFE68:
 1647              		.size	ETH0_GetSocketRxReadPtr, .-ETH0_GetSocketRxReadPtr
 1648              		.section	.text.ETH0_ExecuteSocketCommand,"ax",%progbits
 1649              		.align	2
 1650              		.thumb
 1651              		.thumb_func
 1652              		.type	ETH0_ExecuteSocketCommand, %function
 1653              	ETH0_ExecuteSocketCommand:
 1654              	.LFB69:
 790:.\Generated_Source\PSoC5/ETH0.c **** /* ------------------------------------------------------------------------ */
 791:.\Generated_Source\PSoC5/ETH0.c **** /**
 792:.\Generated_Source\PSoC5/ETH0.c ****  * \brief Write a command to the socket command register and wait for completion
 793:.\Generated_Source\PSoC5/ETH0.c ****  * \param socket the addressed socket for the command
 794:.\Generated_Source\PSoC5/ETH0.c ****  * \param cmd the command to execute
 795:.\Generated_Source\PSoC5/ETH0.c ****  */
 796:.\Generated_Source\PSoC5/ETH0.c **** static uint32 ETH0_ExecuteSocketCommand( uint8 socket, int cmd)
 797:.\Generated_Source\PSoC5/ETH0.c **** {
 1655              		.loc 1 797 0
 1656              		.cfi_startproc
 1657              		@ args = 0, pretend = 0, frame = 16
 1658              		@ frame_needed = 1, uses_anonymous_args = 0
 1659 0000 80B5     		push	{r7, lr}
 1660              	.LCFI106:
 1661              		.cfi_def_cfa_offset 8
 1662              		.cfi_offset 7, -8
 1663              		.cfi_offset 14, -4
 1664 0002 84B0     		sub	sp, sp, #16
 1665              	.LCFI107:
 1666              		.cfi_def_cfa_offset 24
 1667 0004 00AF     		add	r7, sp, #0
 1668              	.LCFI108:
 1669              		.cfi_def_cfa_register 7
 1670 0006 0346     		mov	r3, r0
 1671 0008 3960     		str	r1, [r7, #0]
 1672 000a FB71     		strb	r3, [r7, #7]
 798:.\Generated_Source\PSoC5/ETH0.c **** 	uint32 timeout;
 799:.\Generated_Source\PSoC5/ETH0.c **** 	timeout = 0;
 1673              		.loc 1 799 0
 1674 000c 4FF00003 		mov	r3, #0
 1675 0010 FB60     		str	r3, [r7, #12]
 800:.\Generated_Source\PSoC5/ETH0.c **** 	
 801:.\Generated_Source\PSoC5/ETH0.c **** 	ETH0_SetSocketCommand(socket,cmd);
 1676              		.loc 1 801 0
 1677 0012 3B68     		ldr	r3, [r7, #0]
 1678 0014 DBB2     		uxtb	r3, r3
 1679 0016 FA79     		ldrb	r2, [r7, #7]	@ zero_extendqisi2
 1680 0018 1046     		mov	r0, r2
 1681 001a 1946     		mov	r1, r3
 1682 001c FFF7FEFF 		bl	ETH0_SetSocketCommand
 802:.\Generated_Source\PSoC5/ETH0.c **** 	while ( ( ETH0_GetSocketCommand(socket) ) && (timeout < 125))
 1683              		.loc 1 802 0
 1684 0020 07E0     		b	.L63
 1685              	.L65:
 803:.\Generated_Source\PSoC5/ETH0.c **** 	{
 804:.\Generated_Source\PSoC5/ETH0.c **** 		++timeout;
 1686              		.loc 1 804 0
 1687 0022 FB68     		ldr	r3, [r7, #12]
ARM GAS  C:\Users\CHUCK~1.ERH\AppData\Local\Temp\cco8cCZX.s 			page 45


 1688 0024 03F10103 		add	r3, r3, #1
 1689 0028 FB60     		str	r3, [r7, #12]
 805:.\Generated_Source\PSoC5/ETH0.c **** 		CyDelay(1);
 1690              		.loc 1 805 0
 1691 002a 4FF00100 		mov	r0, #1
 1692 002e FFF7FEFF 		bl	CyDelay
 1693              	.L63:
 802:.\Generated_Source\PSoC5/ETH0.c **** 	while ( ( ETH0_GetSocketCommand(socket) ) && (timeout < 125))
 1694              		.loc 1 802 0 discriminator 1
 1695 0032 FB79     		ldrb	r3, [r7, #7]	@ zero_extendqisi2
 1696 0034 1846     		mov	r0, r3
 1697 0036 FFF7FEFF 		bl	ETH0_GetSocketCommand
 1698 003a 0346     		mov	r3, r0
 1699 003c 002B     		cmp	r3, #0
 1700 003e 02D0     		beq	.L64
 802:.\Generated_Source\PSoC5/ETH0.c **** 	while ( ( ETH0_GetSocketCommand(socket) ) && (timeout < 125))
 1701              		.loc 1 802 0 is_stmt 0 discriminator 2
 1702 0040 FB68     		ldr	r3, [r7, #12]
 1703 0042 7C2B     		cmp	r3, #124
 1704 0044 EDD9     		bls	.L65
 1705              	.L64:
 806:.\Generated_Source\PSoC5/ETH0.c **** 	}
 807:.\Generated_Source\PSoC5/ETH0.c **** 	return( timeout );
 1706              		.loc 1 807 0 is_stmt 1
 1707 0046 FB68     		ldr	r3, [r7, #12]
 808:.\Generated_Source\PSoC5/ETH0.c **** }
 1708              		.loc 1 808 0
 1709 0048 1846     		mov	r0, r3
 1710 004a 07F11007 		add	r7, r7, #16
 1711 004e BD46     		mov	sp, r7
 1712 0050 80BD     		pop	{r7, pc}
 1713              		.cfi_endproc
 1714              	.LFE69:
 1715              		.size	ETH0_ExecuteSocketCommand, .-ETH0_ExecuteSocketCommand
 1716 0052 00BF     		.section	.text.ETH0_GetTxFreeSize,"ax",%progbits
 1717              		.align	2
 1718              		.thumb
 1719              		.thumb_func
 1720              		.type	ETH0_GetTxFreeSize, %function
 1721              	ETH0_GetTxFreeSize:
 1722              	.LFB70:
 809:.\Generated_Source\PSoC5/ETH0.c **** /* ------------------------------------------------------------------------ */
 810:.\Generated_Source\PSoC5/ETH0.c **** /**
 811:.\Generated_Source\PSoC5/ETH0.c ****  * \brief Execute a safe read fo the Tx buffer free size register
 812:.\Generated_Source\PSoC5/ETH0.c ****  * \param socket the addressed socket to read the available tx buffer
 813:.\Generated_Source\PSoC5/ETH0.c ****  * \returns the number of bytes available in the transmit buffer for the socket
 814:.\Generated_Source\PSoC5/ETH0.c ****  */
 815:.\Generated_Source\PSoC5/ETH0.c **** static uint16 ETH0_GetTxFreeSize( uint8 socket )
 816:.\Generated_Source\PSoC5/ETH0.c **** {
 1723              		.loc 1 816 0
 1724              		.cfi_startproc
 1725              		@ args = 0, pretend = 0, frame = 16
 1726              		@ frame_needed = 1, uses_anonymous_args = 0
 1727 0000 80B5     		push	{r7, lr}
 1728              	.LCFI109:
 1729              		.cfi_def_cfa_offset 8
 1730              		.cfi_offset 7, -8
ARM GAS  C:\Users\CHUCK~1.ERH\AppData\Local\Temp\cco8cCZX.s 			page 46


 1731              		.cfi_offset 14, -4
 1732 0002 84B0     		sub	sp, sp, #16
 1733              	.LCFI110:
 1734              		.cfi_def_cfa_offset 24
 1735 0004 00AF     		add	r7, sp, #0
 1736              	.LCFI111:
 1737              		.cfi_def_cfa_register 7
 1738 0006 0346     		mov	r3, r0
 1739 0008 FB71     		strb	r3, [r7, #7]
 817:.\Generated_Source\PSoC5/ETH0.c **** 	uint16 first, second;
 818:.\Generated_Source\PSoC5/ETH0.c **** 	
 819:.\Generated_Source\PSoC5/ETH0.c **** 	first = 0;
 1740              		.loc 1 819 0
 1741 000a 4FF00003 		mov	r3, #0
 1742 000e BB81     		strh	r3, [r7, #12]	@ movhi
 820:.\Generated_Source\PSoC5/ETH0.c **** 	second = 0;
 1743              		.loc 1 820 0
 1744 0010 4FF00003 		mov	r3, #0
 1745 0014 FB81     		strh	r3, [r7, #14]	@ movhi
 1746              	.L69:
 821:.\Generated_Source\PSoC5/ETH0.c **** 	do {
 822:.\Generated_Source\PSoC5/ETH0.c **** 		first = ETH0_GetSocketTxFree( socket );
 1747              		.loc 1 822 0
 1748 0016 FB79     		ldrb	r3, [r7, #7]	@ zero_extendqisi2
 1749 0018 1846     		mov	r0, r3
 1750 001a FFF7FEFF 		bl	ETH0_GetSocketTxFree
 1751 001e 0346     		mov	r3, r0
 1752 0020 BB81     		strh	r3, [r7, #12]	@ movhi
 823:.\Generated_Source\PSoC5/ETH0.c **** 		if (first != 0) {
 1753              		.loc 1 823 0
 1754 0022 BB89     		ldrh	r3, [r7, #12]
 1755 0024 002B     		cmp	r3, #0
 1756 0026 05D0     		beq	.L68
 824:.\Generated_Source\PSoC5/ETH0.c **** 			second = ETH0_GetSocketTxFree( socket );
 1757              		.loc 1 824 0
 1758 0028 FB79     		ldrb	r3, [r7, #7]	@ zero_extendqisi2
 1759 002a 1846     		mov	r0, r3
 1760 002c FFF7FEFF 		bl	ETH0_GetSocketTxFree
 1761 0030 0346     		mov	r3, r0
 1762 0032 FB81     		strh	r3, [r7, #14]	@ movhi
 1763              	.L68:
 825:.\Generated_Source\PSoC5/ETH0.c **** 		}
 826:.\Generated_Source\PSoC5/ETH0.c **** 	}
 827:.\Generated_Source\PSoC5/ETH0.c **** 	while (first != second );
 1764              		.loc 1 827 0
 1765 0034 BA89     		ldrh	r2, [r7, #12]
 1766 0036 FB89     		ldrh	r3, [r7, #14]
 1767 0038 9A42     		cmp	r2, r3
 1768 003a ECD1     		bne	.L69
 828:.\Generated_Source\PSoC5/ETH0.c **** 	
 829:.\Generated_Source\PSoC5/ETH0.c **** 	return( second );
 1769              		.loc 1 829 0
 1770 003c FB89     		ldrh	r3, [r7, #14]
 830:.\Generated_Source\PSoC5/ETH0.c **** }
 1771              		.loc 1 830 0
 1772 003e 1846     		mov	r0, r3
 1773 0040 07F11007 		add	r7, r7, #16
ARM GAS  C:\Users\CHUCK~1.ERH\AppData\Local\Temp\cco8cCZX.s 			page 47


 1774 0044 BD46     		mov	sp, r7
 1775 0046 80BD     		pop	{r7, pc}
 1776              		.cfi_endproc
 1777              	.LFE70:
 1778              		.size	ETH0_GetTxFreeSize, .-ETH0_GetTxFreeSize
 1779              		.section	.text.ETH0_GetRxSize,"ax",%progbits
 1780              		.align	2
 1781              		.thumb
 1782              		.thumb_func
 1783              		.type	ETH0_GetRxSize, %function
 1784              	ETH0_GetRxSize:
 1785              	.LFB71:
 831:.\Generated_Source\PSoC5/ETH0.c **** /* ------------------------------------------------------------------------ */
 832:.\Generated_Source\PSoC5/ETH0.c **** /**
 833:.\Generated_Source\PSoC5/ETH0.c ****  * \brief Execute a safe read of the received data size
 834:.\Generated_Source\PSoC5/ETH0.c ****  * \param socket the addressed socketfrom which the data will be read
 835:.\Generated_Source\PSoC5/ETH0.c ****  * \returns the number of bytes waiting in the recieve buffer of the socket
 836:.\Generated_Source\PSoC5/ETH0.c ****  */
 837:.\Generated_Source\PSoC5/ETH0.c **** static uint16 ETH0_GetRxSize( uint8 socket )
 838:.\Generated_Source\PSoC5/ETH0.c **** {
 1786              		.loc 1 838 0
 1787              		.cfi_startproc
 1788              		@ args = 0, pretend = 0, frame = 16
 1789              		@ frame_needed = 1, uses_anonymous_args = 0
 1790 0000 80B5     		push	{r7, lr}
 1791              	.LCFI112:
 1792              		.cfi_def_cfa_offset 8
 1793              		.cfi_offset 7, -8
 1794              		.cfi_offset 14, -4
 1795 0002 84B0     		sub	sp, sp, #16
 1796              	.LCFI113:
 1797              		.cfi_def_cfa_offset 24
 1798 0004 00AF     		add	r7, sp, #0
 1799              	.LCFI114:
 1800              		.cfi_def_cfa_register 7
 1801 0006 0346     		mov	r3, r0
 1802 0008 FB71     		strb	r3, [r7, #7]
 839:.\Generated_Source\PSoC5/ETH0.c **** 	uint16 first, second;
 840:.\Generated_Source\PSoC5/ETH0.c **** 	
 841:.\Generated_Source\PSoC5/ETH0.c **** 	first = 0;
 1803              		.loc 1 841 0
 1804 000a 4FF00003 		mov	r3, #0
 1805 000e BB81     		strh	r3, [r7, #12]	@ movhi
 842:.\Generated_Source\PSoC5/ETH0.c **** 	second = 0;
 1806              		.loc 1 842 0
 1807 0010 4FF00003 		mov	r3, #0
 1808 0014 FB81     		strh	r3, [r7, #14]	@ movhi
 1809              	.L73:
 843:.\Generated_Source\PSoC5/ETH0.c **** 	do {
 844:.\Generated_Source\PSoC5/ETH0.c **** 		first = ETH0_GetSocketRxSize( socket );
 1810              		.loc 1 844 0
 1811 0016 FB79     		ldrb	r3, [r7, #7]	@ zero_extendqisi2
 1812 0018 1846     		mov	r0, r3
 1813 001a FFF7FEFF 		bl	ETH0_GetSocketRxSize
 1814 001e 0346     		mov	r3, r0
 1815 0020 BB81     		strh	r3, [r7, #12]	@ movhi
 845:.\Generated_Source\PSoC5/ETH0.c **** 		if (first != 0) {
ARM GAS  C:\Users\CHUCK~1.ERH\AppData\Local\Temp\cco8cCZX.s 			page 48


 1816              		.loc 1 845 0
 1817 0022 BB89     		ldrh	r3, [r7, #12]
 1818 0024 002B     		cmp	r3, #0
 1819 0026 05D0     		beq	.L72
 846:.\Generated_Source\PSoC5/ETH0.c **** 			second = ETH0_GetSocketRxSize( socket );
 1820              		.loc 1 846 0
 1821 0028 FB79     		ldrb	r3, [r7, #7]	@ zero_extendqisi2
 1822 002a 1846     		mov	r0, r3
 1823 002c FFF7FEFF 		bl	ETH0_GetSocketRxSize
 1824 0030 0346     		mov	r3, r0
 1825 0032 FB81     		strh	r3, [r7, #14]	@ movhi
 1826              	.L72:
 847:.\Generated_Source\PSoC5/ETH0.c **** 		}
 848:.\Generated_Source\PSoC5/ETH0.c **** 	}
 849:.\Generated_Source\PSoC5/ETH0.c **** 	while (first != second );
 1827              		.loc 1 849 0
 1828 0034 BA89     		ldrh	r2, [r7, #12]
 1829 0036 FB89     		ldrh	r3, [r7, #14]
 1830 0038 9A42     		cmp	r2, r3
 1831 003a ECD1     		bne	.L73
 850:.\Generated_Source\PSoC5/ETH0.c **** 	
 851:.\Generated_Source\PSoC5/ETH0.c **** 	return second;
 1832              		.loc 1 851 0
 1833 003c FB89     		ldrh	r3, [r7, #14]
 852:.\Generated_Source\PSoC5/ETH0.c **** }
 1834              		.loc 1 852 0
 1835 003e 1846     		mov	r0, r3
 1836 0040 07F11007 		add	r7, r7, #16
 1837 0044 BD46     		mov	sp, r7
 1838 0046 80BD     		pop	{r7, pc}
 1839              		.cfi_endproc
 1840              	.LFE71:
 1841              		.size	ETH0_GetRxSize, .-ETH0_GetRxSize
 1842              		.section	.text.ETH0_ProcessTxData,"ax",%progbits
 1843              		.align	2
 1844              		.thumb
 1845              		.thumb_func
 1846              		.type	ETH0_ProcessTxData, %function
 1847              	ETH0_ProcessTxData:
 1848              	.LFB72:
 853:.\Generated_Source\PSoC5/ETH0.c **** /* ------------------------------------------------------------------------ */
 854:.\Generated_Source\PSoC5/ETH0.c **** 
 855:.\Generated_Source\PSoC5/ETH0.c **** // END Socket Register access section
 856:.\Generated_Source\PSoC5/ETH0.c **** #endif
 857:.\Generated_Source\PSoC5/ETH0.c **** /* ======================================================================== */
 858:.\Generated_Source\PSoC5/ETH0.c **** /* W5100 Data Buffer Memory access primitives */
 859:.\Generated_Source\PSoC5/ETH0.c **** #if (1)
 860:.\Generated_Source\PSoC5/ETH0.c **** /* ------------------------------------------------------------------------ */
 861:.\Generated_Source\PSoC5/ETH0.c **** /**
 862:.\Generated_Source\PSoC5/ETH0.c ****  * \brief Transfer data from a local data buffer to the chip Tx fifo
 863:.\Generated_Source\PSoC5/ETH0.c ****  * \param socket the socket buffer to which the data will be written
 864:.\Generated_Source\PSoC5/ETH0.c ****  * \param offset The offest in to the socket buffer
 865:.\Generated_Source\PSoC5/ETH0.c ****  * \param *buffer pointer to the local buffer to copy to the transmit fifo
 866:.\Generated_Source\PSoC5/ETH0.c ****  * \param length the number of bytes to be copied to the transmit fifo
 867:.\Generated_Source\PSoC5/ETH0.c ****  */
 868:.\Generated_Source\PSoC5/ETH0.c **** static void ETH0_ProcessTxData(uint8 socket, uint16 offset, uint8* buffer, uint16 length)
 869:.\Generated_Source\PSoC5/ETH0.c **** {
ARM GAS  C:\Users\CHUCK~1.ERH\AppData\Local\Temp\cco8cCZX.s 			page 49


 1849              		.loc 1 869 0
 1850              		.cfi_startproc
 1851              		@ args = 0, pretend = 0, frame = 24
 1852              		@ frame_needed = 1, uses_anonymous_args = 0
 1853 0000 80B5     		push	{r7, lr}
 1854              	.LCFI115:
 1855              		.cfi_def_cfa_offset 8
 1856              		.cfi_offset 7, -8
 1857              		.cfi_offset 14, -4
 1858 0002 86B0     		sub	sp, sp, #24
 1859              	.LCFI116:
 1860              		.cfi_def_cfa_offset 32
 1861 0004 00AF     		add	r7, sp, #0
 1862              	.LCFI117:
 1863              		.cfi_def_cfa_register 7
 1864 0006 BA60     		str	r2, [r7, #8]
 1865 0008 0246     		mov	r2, r0
 1866 000a FA73     		strb	r2, [r7, #15]
 1867 000c 0A46     		mov	r2, r1	@ movhi
 1868 000e BA81     		strh	r2, [r7, #12]	@ movhi
 1869 0010 FB80     		strh	r3, [r7, #6]	@ movhi
 870:.\Generated_Source\PSoC5/ETH0.c **** 	uint16 addr;
 871:.\Generated_Source\PSoC5/ETH0.c **** 	uint16 base;
 872:.\Generated_Source\PSoC5/ETH0.c **** 	uint16 PointerOffset;
 873:.\Generated_Source\PSoC5/ETH0.c **** 	uint16 size;
 874:.\Generated_Source\PSoC5/ETH0.c **** 	
 875:.\Generated_Source\PSoC5/ETH0.c **** 	/*
 876:.\Generated_Source\PSoC5/ETH0.c **** 	 * Read the offset pointer, and calculate the base address for the start of write
 877:.\Generated_Source\PSoC5/ETH0.c **** 	 * in to the chip buffers.  Written data will be offset by the offset byte count
 878:.\Generated_Source\PSoC5/ETH0.c **** 	 * specified in the parameters.
 879:.\Generated_Source\PSoC5/ETH0.c **** 	 */
 880:.\Generated_Source\PSoC5/ETH0.c **** 	base = ETH0_GetSocketTxWritePtr(socket) + offset;
 1870              		.loc 1 880 0
 1871 0012 FB7B     		ldrb	r3, [r7, #15]	@ zero_extendqisi2
 1872 0014 1846     		mov	r0, r3
 1873 0016 FFF7FEFF 		bl	ETH0_GetSocketTxWritePtr
 1874 001a 0346     		mov	r3, r0
 1875 001c 1A46     		mov	r2, r3
 1876 001e BB89     		ldrh	r3, [r7, #12]	@ movhi
 1877 0020 D318     		adds	r3, r2, r3
 1878 0022 FB82     		strh	r3, [r7, #22]	@ movhi
 881:.\Generated_Source\PSoC5/ETH0.c **** 	PointerOffset = (base & 0x07FF);
 1879              		.loc 1 881 0
 1880 0024 FB8A     		ldrh	r3, [r7, #22]	@ movhi
 1881 0026 4FEA4353 		lsl	r3, r3, #21
 1882 002a 4FEA5353 		lsr	r3, r3, #21
 1883 002e BB82     		strh	r3, [r7, #20]	@ movhi
 882:.\Generated_Source\PSoC5/ETH0.c **** 	addr = PointerOffset + ETH0_SOCKET_TX_BASE(socket);
 1884              		.loc 1 882 0
 1885 0030 FB7B     		ldrb	r3, [r7, #15]	@ zero_extendqisi2
 1886 0032 9BB2     		uxth	r3, r3
 1887 0034 4FEAC333 		lsl	r3, r3, #15
 1888 0038 9AB2     		uxth	r2, r3
 1889 003a BB8A     		ldrh	r3, [r7, #20]	@ movhi
 1890 003c D318     		adds	r3, r2, r3
 1891 003e 9BB2     		uxth	r3, r3
 1892 0040 03F58043 		add	r3, r3, #16384
ARM GAS  C:\Users\CHUCK~1.ERH\AppData\Local\Temp\cco8cCZX.s 			page 50


 1893 0044 7B82     		strh	r3, [r7, #18]	@ movhi
 883:.\Generated_Source\PSoC5/ETH0.c **** 	/* calculate the number of bytes from the pointer to the end of the buffer */
 884:.\Generated_Source\PSoC5/ETH0.c **** 	size = 0x0800 - PointerOffset;
 1894              		.loc 1 884 0
 1895 0046 BB8A     		ldrh	r3, [r7, #20]	@ movhi
 1896 0048 C3F50063 		rsb	r3, r3, #2048
 1897 004c 3B82     		strh	r3, [r7, #16]	@ movhi
 885:.\Generated_Source\PSoC5/ETH0.c **** 	
 886:.\Generated_Source\PSoC5/ETH0.c **** 	/*
 887:.\Generated_Source\PSoC5/ETH0.c **** 	 * is there enough space to write the complete packet
 888:.\Generated_Source\PSoC5/ETH0.c **** 	 * or, shoudl the data be split in to two writes.
 889:.\Generated_Source\PSoC5/ETH0.c **** 	 */
 890:.\Generated_Source\PSoC5/ETH0.c **** 	if ( length > size) {
 1898              		.loc 1 890 0
 1899 004e FA88     		ldrh	r2, [r7, #6]
 1900 0050 3B8A     		ldrh	r3, [r7, #16]
 1901 0052 9A42     		cmp	r2, r3
 1902 0054 1BD9     		bls	.L76
 891:.\Generated_Source\PSoC5/ETH0.c **** 		/*
 892:.\Generated_Source\PSoC5/ETH0.c **** 		 * There is more data to send than will fit from the pointer to the end
 893:.\Generated_Source\PSoC5/ETH0.c **** 		 * of the memory, so we will write the data in two chunks.  First, write the
 894:.\Generated_Source\PSoC5/ETH0.c **** 		 * data from the pointer to the end of the buffer, then write the portion
 895:.\Generated_Source\PSoC5/ETH0.c **** 		 * remaining to the start (base ptr) of the socket buffer
 896:.\Generated_Source\PSoC5/ETH0.c **** 		 */
 897:.\Generated_Source\PSoC5/ETH0.c **** 		ETH0_W51_WriteBlock(addr, buffer, size);
 1903              		.loc 1 897 0
 1904 0056 7A8A     		ldrh	r2, [r7, #18]
 1905 0058 3B8A     		ldrh	r3, [r7, #16]
 1906 005a 1046     		mov	r0, r2
 1907 005c B968     		ldr	r1, [r7, #8]
 1908 005e 1A46     		mov	r2, r3
 1909 0060 FFF7FEFF 		bl	ETH0_W51_WriteBlock
 898:.\Generated_Source\PSoC5/ETH0.c **** 		ETH0_W51_WriteBlock(ETH0_SOCKET_TX_BASE(socket), &buffer[size], length - size);
 1910              		.loc 1 898 0
 1911 0064 FB7B     		ldrb	r3, [r7, #15]	@ zero_extendqisi2
 1912 0066 9BB2     		uxth	r3, r3
 1913 0068 4FEAC333 		lsl	r3, r3, #15
 1914 006c 9BB2     		uxth	r3, r3
 1915 006e 03F58043 		add	r3, r3, #16384
 1916 0072 99B2     		uxth	r1, r3
 1917 0074 3B8A     		ldrh	r3, [r7, #16]
 1918 0076 BA68     		ldr	r2, [r7, #8]
 1919 0078 D218     		adds	r2, r2, r3
 1920 007a F888     		ldrh	r0, [r7, #6]	@ movhi
 1921 007c 3B8A     		ldrh	r3, [r7, #16]	@ movhi
 1922 007e C31A     		subs	r3, r0, r3
 1923 0080 9BB2     		uxth	r3, r3
 1924 0082 0846     		mov	r0, r1
 1925 0084 1146     		mov	r1, r2
 1926 0086 1A46     		mov	r2, r3
 1927 0088 FFF7FEFF 		bl	ETH0_W51_WriteBlock
 1928 008c 06E0     		b	.L77
 1929              	.L76:
 899:.\Generated_Source\PSoC5/ETH0.c **** 	}
 900:.\Generated_Source\PSoC5/ETH0.c **** 	else {
 901:.\Generated_Source\PSoC5/ETH0.c **** 		/* 
 902:.\Generated_Source\PSoC5/ETH0.c **** 		 * there is enough available space from the write point to the end of buffer
ARM GAS  C:\Users\CHUCK~1.ERH\AppData\Local\Temp\cco8cCZX.s 			page 51


 903:.\Generated_Source\PSoC5/ETH0.c **** 		 * to hold the whole packe of information, so just write it to the memory
 904:.\Generated_Source\PSoC5/ETH0.c **** 		 */
 905:.\Generated_Source\PSoC5/ETH0.c **** 		ETH0_W51_WriteBlock(addr,buffer,length);
 1930              		.loc 1 905 0
 1931 008e 7A8A     		ldrh	r2, [r7, #18]
 1932 0090 FB88     		ldrh	r3, [r7, #6]
 1933 0092 1046     		mov	r0, r2
 1934 0094 B968     		ldr	r1, [r7, #8]
 1935 0096 1A46     		mov	r2, r3
 1936 0098 FFF7FEFF 		bl	ETH0_W51_WriteBlock
 1937              	.L77:
 906:.\Generated_Source\PSoC5/ETH0.c **** 	}
 907:.\Generated_Source\PSoC5/ETH0.c **** 	/* move the write pointer */
 908:.\Generated_Source\PSoC5/ETH0.c **** 	base += length;
 1938              		.loc 1 908 0
 1939 009c FA8A     		ldrh	r2, [r7, #22]	@ movhi
 1940 009e FB88     		ldrh	r3, [r7, #6]	@ movhi
 1941 00a0 D318     		adds	r3, r2, r3
 1942 00a2 FB82     		strh	r3, [r7, #22]	@ movhi
 909:.\Generated_Source\PSoC5/ETH0.c **** 	/* 
 910:.\Generated_Source\PSoC5/ETH0.c **** 	 * Store the new write pointer so that the device knows that there is data waiting
 911:.\Generated_Source\PSoC5/ETH0.c **** 	 * to be transmitted over the link.
 912:.\Generated_Source\PSoC5/ETH0.c **** 	 */
 913:.\Generated_Source\PSoC5/ETH0.c **** 	ETH0_SetSocketTxWritePtr(socket, base);
 1943              		.loc 1 913 0
 1944 00a4 FA7B     		ldrb	r2, [r7, #15]	@ zero_extendqisi2
 1945 00a6 FB8A     		ldrh	r3, [r7, #22]
 1946 00a8 1046     		mov	r0, r2
 1947 00aa 1946     		mov	r1, r3
 1948 00ac FFF7FEFF 		bl	ETH0_SetSocketTxWritePtr
 914:.\Generated_Source\PSoC5/ETH0.c **** }
 1949              		.loc 1 914 0
 1950 00b0 07F11807 		add	r7, r7, #24
 1951 00b4 BD46     		mov	sp, r7
 1952 00b6 80BD     		pop	{r7, pc}
 1953              		.cfi_endproc
 1954              	.LFE72:
 1955              		.size	ETH0_ProcessTxData, .-ETH0_ProcessTxData
 1956              		.section	.text.ETH0_ProcessRxData,"ax",%progbits
 1957              		.align	2
 1958              		.thumb
 1959              		.thumb_func
 1960              		.type	ETH0_ProcessRxData, %function
 1961              	ETH0_ProcessRxData:
 1962              	.LFB73:
 915:.\Generated_Source\PSoC5/ETH0.c **** /* ------------------------------------------------------------------------ */
 916:.\Generated_Source\PSoC5/ETH0.c **** /**
 917:.\Generated_Source\PSoC5/ETH0.c ****  * \brief Transfer data from the chip receive buffer to a local buffer
 918:.\Generated_Source\PSoC5/ETH0.c ****  * \param socket the socket buffer from which the data will be read
 919:.\Generated_Source\PSoC5/ETH0.c ****  * \param offset The offest in to the socket buffer
 920:.\Generated_Source\PSoC5/ETH0.c ****  * \param *buffer pointer to the local buffer to hold the receive fifo data
 921:.\Generated_Source\PSoC5/ETH0.c ****  * \param length the max number of bytes to be copied to the local buffer
 922:.\Generated_Source\PSoC5/ETH0.c ****  * \param flags Flag settings to control read fifo options (lookahead)
 923:.\Generated_Source\PSoC5/ETH0.c ****  */
 924:.\Generated_Source\PSoC5/ETH0.c **** static void ETH0_ProcessRxData(uint8 socket, uint16 offset, uint8* buffer, uint16 length, uint8 fla
 925:.\Generated_Source\PSoC5/ETH0.c **** {
 1963              		.loc 1 925 0
ARM GAS  C:\Users\CHUCK~1.ERH\AppData\Local\Temp\cco8cCZX.s 			page 52


 1964              		.cfi_startproc
 1965              		@ args = 4, pretend = 0, frame = 24
 1966              		@ frame_needed = 1, uses_anonymous_args = 0
 1967 0000 80B5     		push	{r7, lr}
 1968              	.LCFI118:
 1969              		.cfi_def_cfa_offset 8
 1970              		.cfi_offset 7, -8
 1971              		.cfi_offset 14, -4
 1972 0002 86B0     		sub	sp, sp, #24
 1973              	.LCFI119:
 1974              		.cfi_def_cfa_offset 32
 1975 0004 00AF     		add	r7, sp, #0
 1976              	.LCFI120:
 1977              		.cfi_def_cfa_register 7
 1978 0006 BA60     		str	r2, [r7, #8]
 1979 0008 0246     		mov	r2, r0
 1980 000a FA73     		strb	r2, [r7, #15]
 1981 000c 0A46     		mov	r2, r1	@ movhi
 1982 000e BA81     		strh	r2, [r7, #12]	@ movhi
 1983 0010 FB80     		strh	r3, [r7, #6]	@ movhi
 926:.\Generated_Source\PSoC5/ETH0.c **** 	uint16 addr;
 927:.\Generated_Source\PSoC5/ETH0.c **** 	uint16 base;
 928:.\Generated_Source\PSoC5/ETH0.c **** 	uint16 PointerOffset;
 929:.\Generated_Source\PSoC5/ETH0.c **** 	uint16 size;
 930:.\Generated_Source\PSoC5/ETH0.c **** 	
 931:.\Generated_Source\PSoC5/ETH0.c **** 	/*
 932:.\Generated_Source\PSoC5/ETH0.c **** 	 * Read the offset pointer, and calculate the base address for the start of read
 933:.\Generated_Source\PSoC5/ETH0.c **** 	 * in to the chip buffers.  The data read will be offset by the offset byte count
 934:.\Generated_Source\PSoC5/ETH0.c **** 	 * specified in the parameters.
 935:.\Generated_Source\PSoC5/ETH0.c **** 	 */
 936:.\Generated_Source\PSoC5/ETH0.c **** 	base = ETH0_GetSocketRxReadPtr(socket) + offset;
 1984              		.loc 1 936 0
 1985 0012 FB7B     		ldrb	r3, [r7, #15]	@ zero_extendqisi2
 1986 0014 1846     		mov	r0, r3
 1987 0016 FFF7FEFF 		bl	ETH0_GetSocketRxReadPtr
 1988 001a 0346     		mov	r3, r0
 1989 001c 1A46     		mov	r2, r3
 1990 001e BB89     		ldrh	r3, [r7, #12]	@ movhi
 1991 0020 D318     		adds	r3, r2, r3
 1992 0022 FB82     		strh	r3, [r7, #22]	@ movhi
 937:.\Generated_Source\PSoC5/ETH0.c **** 	PointerOffset = (base & 0x07FF);
 1993              		.loc 1 937 0
 1994 0024 FB8A     		ldrh	r3, [r7, #22]	@ movhi
 1995 0026 4FEA4353 		lsl	r3, r3, #21
 1996 002a 4FEA5353 		lsr	r3, r3, #21
 1997 002e BB82     		strh	r3, [r7, #20]	@ movhi
 938:.\Generated_Source\PSoC5/ETH0.c **** 	addr = PointerOffset + ETH0_SOCKET_RX_BASE(socket);
 1998              		.loc 1 938 0
 1999 0030 FB7B     		ldrb	r3, [r7, #15]	@ zero_extendqisi2
 2000 0032 9BB2     		uxth	r3, r3
 2001 0034 4FEAC333 		lsl	r3, r3, #15
 2002 0038 9AB2     		uxth	r2, r3
 2003 003a BB8A     		ldrh	r3, [r7, #20]	@ movhi
 2004 003c D318     		adds	r3, r2, r3
 2005 003e 9BB2     		uxth	r3, r3
 2006 0040 03F5C043 		add	r3, r3, #24576
 2007 0044 7B82     		strh	r3, [r7, #18]	@ movhi
ARM GAS  C:\Users\CHUCK~1.ERH\AppData\Local\Temp\cco8cCZX.s 			page 53


 939:.\Generated_Source\PSoC5/ETH0.c **** 	/* calculate the number of bytes from the pointer to the end of the buffer */
 940:.\Generated_Source\PSoC5/ETH0.c **** 	size = 0x0800 - PointerOffset;
 2008              		.loc 1 940 0
 2009 0046 BB8A     		ldrh	r3, [r7, #20]	@ movhi
 2010 0048 C3F50063 		rsb	r3, r3, #2048
 2011 004c 3B82     		strh	r3, [r7, #16]	@ movhi
 941:.\Generated_Source\PSoC5/ETH0.c **** 	/*
 942:.\Generated_Source\PSoC5/ETH0.c **** 	 * is there enough space to read the complete packet
 943:.\Generated_Source\PSoC5/ETH0.c **** 	 * or, should the data be split in to two reads.
 944:.\Generated_Source\PSoC5/ETH0.c **** 	 */
 945:.\Generated_Source\PSoC5/ETH0.c **** 	if ( length > size) {
 2012              		.loc 1 945 0
 2013 004e FA88     		ldrh	r2, [r7, #6]
 2014 0050 3B8A     		ldrh	r3, [r7, #16]
 2015 0052 9A42     		cmp	r2, r3
 2016 0054 1BD9     		bls	.L79
 946:.\Generated_Source\PSoC5/ETH0.c **** 		/*
 947:.\Generated_Source\PSoC5/ETH0.c **** 		 * There is more data to send than will fit from the pointer to the end
 948:.\Generated_Source\PSoC5/ETH0.c **** 		 * of the memory, so we will write the data in two chunks.  First, write the
 949:.\Generated_Source\PSoC5/ETH0.c **** 		 * data from the pointer to the end of the buffer, then write the portion
 950:.\Generated_Source\PSoC5/ETH0.c **** 		 * remaining to the start (base ptr) of the socket buffer
 951:.\Generated_Source\PSoC5/ETH0.c **** 		 */
 952:.\Generated_Source\PSoC5/ETH0.c **** 		ETH0_W51_ReadBlock(addr, buffer, size);
 2017              		.loc 1 952 0
 2018 0056 7A8A     		ldrh	r2, [r7, #18]
 2019 0058 3B8A     		ldrh	r3, [r7, #16]
 2020 005a 1046     		mov	r0, r2
 2021 005c B968     		ldr	r1, [r7, #8]
 2022 005e 1A46     		mov	r2, r3
 2023 0060 FFF7FEFF 		bl	ETH0_W51_ReadBlock
 953:.\Generated_Source\PSoC5/ETH0.c **** 		ETH0_W51_ReadBlock(ETH0_SOCKET_RX_BASE(socket), &buffer[size], length - size);
 2024              		.loc 1 953 0
 2025 0064 FB7B     		ldrb	r3, [r7, #15]	@ zero_extendqisi2
 2026 0066 9BB2     		uxth	r3, r3
 2027 0068 4FEAC333 		lsl	r3, r3, #15
 2028 006c 9BB2     		uxth	r3, r3
 2029 006e 03F5C043 		add	r3, r3, #24576
 2030 0072 99B2     		uxth	r1, r3
 2031 0074 3B8A     		ldrh	r3, [r7, #16]
 2032 0076 BA68     		ldr	r2, [r7, #8]
 2033 0078 D218     		adds	r2, r2, r3
 2034 007a F888     		ldrh	r0, [r7, #6]	@ movhi
 2035 007c 3B8A     		ldrh	r3, [r7, #16]	@ movhi
 2036 007e C31A     		subs	r3, r0, r3
 2037 0080 9BB2     		uxth	r3, r3
 2038 0082 0846     		mov	r0, r1
 2039 0084 1146     		mov	r1, r2
 2040 0086 1A46     		mov	r2, r3
 2041 0088 FFF7FEFF 		bl	ETH0_W51_ReadBlock
 2042 008c 06E0     		b	.L80
 2043              	.L79:
 954:.\Generated_Source\PSoC5/ETH0.c **** 	}
 955:.\Generated_Source\PSoC5/ETH0.c **** 	else {
 956:.\Generated_Source\PSoC5/ETH0.c **** 		/* 
 957:.\Generated_Source\PSoC5/ETH0.c **** 		 * there is enough available space from the write point to the end of buffer
 958:.\Generated_Source\PSoC5/ETH0.c **** 		 * to hold the whole packe of information, so just write it to the memory
 959:.\Generated_Source\PSoC5/ETH0.c **** 		 */
ARM GAS  C:\Users\CHUCK~1.ERH\AppData\Local\Temp\cco8cCZX.s 			page 54


 960:.\Generated_Source\PSoC5/ETH0.c **** 		ETH0_W51_ReadBlock(addr,buffer,length);
 2044              		.loc 1 960 0
 2045 008e 7A8A     		ldrh	r2, [r7, #18]
 2046 0090 FB88     		ldrh	r3, [r7, #6]
 2047 0092 1046     		mov	r0, r2
 2048 0094 B968     		ldr	r1, [r7, #8]
 2049 0096 1A46     		mov	r2, r3
 2050 0098 FFF7FEFF 		bl	ETH0_W51_ReadBlock
 2051              	.L80:
 961:.\Generated_Source\PSoC5/ETH0.c **** 	}
 962:.\Generated_Source\PSoC5/ETH0.c **** 	if (flags & 0x01) {
 2052              		.loc 1 962 0
 2053 009c 97F82030 		ldrb	r3, [r7, #32]	@ zero_extendqisi2
 2054 00a0 03F00103 		and	r3, r3, #1
 2055 00a4 002B     		cmp	r3, #0
 2056 00a6 09D0     		beq	.L78
 963:.\Generated_Source\PSoC5/ETH0.c **** 		/* move the write pointer */
 964:.\Generated_Source\PSoC5/ETH0.c **** 		base += length;
 2057              		.loc 1 964 0
 2058 00a8 FA8A     		ldrh	r2, [r7, #22]	@ movhi
 2059 00aa FB88     		ldrh	r3, [r7, #6]	@ movhi
 2060 00ac D318     		adds	r3, r2, r3
 2061 00ae FB82     		strh	r3, [r7, #22]	@ movhi
 965:.\Generated_Source\PSoC5/ETH0.c **** 		/* 
 966:.\Generated_Source\PSoC5/ETH0.c **** 		 * Store the new write pointer so that the device knows that there is data waiting
 967:.\Generated_Source\PSoC5/ETH0.c **** 		 * to be transmitted over the link.
 968:.\Generated_Source\PSoC5/ETH0.c **** 		 */
 969:.\Generated_Source\PSoC5/ETH0.c **** 		ETH0_SetSocketRxReadPtr(socket, base);
 2062              		.loc 1 969 0
 2063 00b0 FA7B     		ldrb	r2, [r7, #15]	@ zero_extendqisi2
 2064 00b2 FB8A     		ldrh	r3, [r7, #22]
 2065 00b4 1046     		mov	r0, r2
 2066 00b6 1946     		mov	r1, r3
 2067 00b8 FFF7FEFF 		bl	ETH0_SetSocketRxReadPtr
 2068              	.L78:
 970:.\Generated_Source\PSoC5/ETH0.c **** 	}
 971:.\Generated_Source\PSoC5/ETH0.c **** }
 2069              		.loc 1 971 0
 2070 00bc 07F11807 		add	r7, r7, #24
 2071 00c0 BD46     		mov	sp, r7
 2072 00c2 80BD     		pop	{r7, pc}
 2073              		.cfi_endproc
 2074              	.LFE73:
 2075              		.size	ETH0_ProcessRxData, .-ETH0_ProcessRxData
 2076              		.section	.text.ETH0_Init,"ax",%progbits
 2077              		.align	2
 2078              		.global	ETH0_Init
 2079              		.thumb
 2080              		.thumb_func
 2081              		.type	ETH0_Init, %function
 2082              	ETH0_Init:
 2083              	.LFB74:
 972:.\Generated_Source\PSoC5/ETH0.c **** #endif
 973:.\Generated_Source\PSoC5/ETH0.c **** /* ======================================================================== */
 974:.\Generated_Source\PSoC5/ETH0.c **** /* Driver Initialization */
 975:.\Generated_Source\PSoC5/ETH0.c **** #if (1)
 976:.\Generated_Source\PSoC5/ETH0.c **** /* ------------------------------------------------------------------------ */
ARM GAS  C:\Users\CHUCK~1.ERH\AppData\Local\Temp\cco8cCZX.s 			page 55


 977:.\Generated_Source\PSoC5/ETH0.c **** void
 978:.\Generated_Source\PSoC5/ETH0.c **** ETH0_Init(uint8* mac, uint32 ip, uint32 subnet, uint32 gateway)
 979:.\Generated_Source\PSoC5/ETH0.c **** {
 2084              		.loc 1 979 0
 2085              		.cfi_startproc
 2086              		@ args = 0, pretend = 0, frame = 24
 2087              		@ frame_needed = 1, uses_anonymous_args = 0
 2088 0000 80B5     		push	{r7, lr}
 2089              	.LCFI121:
 2090              		.cfi_def_cfa_offset 8
 2091              		.cfi_offset 7, -8
 2092              		.cfi_offset 14, -4
 2093 0002 86B0     		sub	sp, sp, #24
 2094              	.LCFI122:
 2095              		.cfi_def_cfa_offset 32
 2096 0004 00AF     		add	r7, sp, #0
 2097              	.LCFI123:
 2098              		.cfi_def_cfa_register 7
 2099 0006 F860     		str	r0, [r7, #12]
 2100 0008 B960     		str	r1, [r7, #8]
 2101 000a 7A60     		str	r2, [r7, #4]
 2102 000c 3B60     		str	r3, [r7, #0]
 980:.\Generated_Source\PSoC5/ETH0.c **** 	/*
 981:.\Generated_Source\PSoC5/ETH0.c **** 	 * Initialize the device and the address configuration, then
 982:.\Generated_Source\PSoC5/ETH0.c **** 	 * execute socket memory initialization for the local allocation
 983:.\Generated_Source\PSoC5/ETH0.c **** 	 * table.
 984:.\Generated_Source\PSoC5/ETH0.c **** 	 */
 985:.\Generated_Source\PSoC5/ETH0.c **** 	int index;
 986:.\Generated_Source\PSoC5/ETH0.c **** 	
 987:.\Generated_Source\PSoC5/ETH0.c **** 	CyDelay( 250 ); /* Fixed Boot Delay or chip inintialization will fail */
 2103              		.loc 1 987 0
 2104 000e 4FF0FA00 		mov	r0, #250
 2105 0012 FFF7FEFF 		bl	CyDelay
 988:.\Generated_Source\PSoC5/ETH0.c **** 	
 989:.\Generated_Source\PSoC5/ETH0.c **** 	/* Reset the device */
 990:.\Generated_Source\PSoC5/ETH0.c **** 	ETH0_SetMode(0x80); /* Send Reset Command */
 2106              		.loc 1 990 0
 2107 0016 4FF08000 		mov	r0, #128
 2108 001a FFF7FEFF 		bl	ETH0_SetMode
 991:.\Generated_Source\PSoC5/ETH0.c **** 	/* Wait for the chip initialization delay */
 992:.\Generated_Source\PSoC5/ETH0.c **** 	CyDelay( 10 );
 2109              		.loc 1 992 0
 2110 001e 4FF00A00 		mov	r0, #10
 2111 0022 FFF7FEFF 		bl	CyDelay
 993:.\Generated_Source\PSoC5/ETH0.c **** 	
 994:.\Generated_Source\PSoC5/ETH0.c **** 	/* Close all of the socket, and clear the memory to make them available. */
 995:.\Generated_Source\PSoC5/ETH0.c **** 	for(index=0;index<4;++index) {
 2112              		.loc 1 995 0
 2113 0026 4FF00003 		mov	r3, #0
 2114 002a 7B61     		str	r3, [r7, #20]
 2115 002c 08E0     		b	.L83
 2116              	.L84:
 996:.\Generated_Source\PSoC5/ETH0.c **** 		ETH0_SocketClose( index );
 2117              		.loc 1 996 0 discriminator 2
 2118 002e 7B69     		ldr	r3, [r7, #20]
 2119 0030 DBB2     		uxtb	r3, r3
 2120 0032 1846     		mov	r0, r3
ARM GAS  C:\Users\CHUCK~1.ERH\AppData\Local\Temp\cco8cCZX.s 			page 56


 2121 0034 FFF7FEFF 		bl	ETH0_SocketClose
 995:.\Generated_Source\PSoC5/ETH0.c **** 	for(index=0;index<4;++index) {
 2122              		.loc 1 995 0 discriminator 2
 2123 0038 7B69     		ldr	r3, [r7, #20]
 2124 003a 03F10103 		add	r3, r3, #1
 2125 003e 7B61     		str	r3, [r7, #20]
 2126              	.L83:
 995:.\Generated_Source\PSoC5/ETH0.c **** 	for(index=0;index<4;++index) {
 2127              		.loc 1 995 0 is_stmt 0 discriminator 1
 2128 0040 7B69     		ldr	r3, [r7, #20]
 2129 0042 032B     		cmp	r3, #3
 2130 0044 F3DD     		ble	.L84
 997:.\Generated_Source\PSoC5/ETH0.c **** 	}
 998:.\Generated_Source\PSoC5/ETH0.c **** 	/* Write the default configruation for memory size to the device */
 999:.\Generated_Source\PSoC5/ETH0.c **** 	ETH0_SetTxMemSize(0x55); /* 2K each */
 2131              		.loc 1 999 0 is_stmt 1
 2132 0046 4FF05500 		mov	r0, #85
 2133 004a FFF7FEFF 		bl	ETH0_SetTxMemSize
1000:.\Generated_Source\PSoC5/ETH0.c **** 	ETH0_SetRxMemSize(0x55); /* 2K Each */
 2134              		.loc 1 1000 0
 2135 004e 4FF05500 		mov	r0, #85
 2136 0052 FFF7FEFF 		bl	ETH0_SetRxMemSize
1001:.\Generated_Source\PSoC5/ETH0.c **** 	/* Set device gateway address */
1002:.\Generated_Source\PSoC5/ETH0.c **** 	ETH0_SetGatewayAddress(gateway);
 2137              		.loc 1 1002 0
 2138 0056 3868     		ldr	r0, [r7, #0]
 2139 0058 FFF7FEFF 		bl	ETH0_SetGatewayAddress
1003:.\Generated_Source\PSoC5/ETH0.c **** 	ETH0_SetSubnetMask( subnet );
 2140              		.loc 1 1003 0
 2141 005c 7868     		ldr	r0, [r7, #4]
 2142 005e FFF7FEFF 		bl	ETH0_SetSubnetMask
1004:.\Generated_Source\PSoC5/ETH0.c **** 	/* Store the subnet mask for later use, for ERRATA fix */
1005:.\Generated_Source\PSoC5/ETH0.c **** 	ETH0_SubnetMask = subnet;
 2143              		.loc 1 1005 0
 2144 0062 40F20003 		movw	r3, #:lower16:ETH0_SubnetMask
 2145 0066 C0F20003 		movt	r3, #:upper16:ETH0_SubnetMask
 2146 006a 7A68     		ldr	r2, [r7, #4]
 2147 006c 1A60     		str	r2, [r3, #0]
1006:.\Generated_Source\PSoC5/ETH0.c **** 	/* store the device mac */
1007:.\Generated_Source\PSoC5/ETH0.c **** 	ETH0_SetSourceMAC( mac );
 2148              		.loc 1 1007 0
 2149 006e F868     		ldr	r0, [r7, #12]
 2150 0070 FFF7FEFF 		bl	ETH0_SetSourceMAC
1008:.\Generated_Source\PSoC5/ETH0.c **** 	/* store the IP address */
1009:.\Generated_Source\PSoC5/ETH0.c **** 	ETH0_SetSourceIP( ip );
 2151              		.loc 1 1009 0
 2152 0074 B868     		ldr	r0, [r7, #8]
 2153 0076 FFF7FEFF 		bl	ETH0_SetSourceIP
1010:.\Generated_Source\PSoC5/ETH0.c **** 	/* clear pending interrupts */
1011:.\Generated_Source\PSoC5/ETH0.c **** 	ETH0_SetIR(0xFF);
 2154              		.loc 1 1011 0
 2155 007a 4FF0FF00 		mov	r0, #255
 2156 007e FFF7FEFF 		bl	ETH0_SetIR
1012:.\Generated_Source\PSoC5/ETH0.c **** 	/* clear the subnet mask register (W5100 Errata Fix) */
1013:.\Generated_Source\PSoC5/ETH0.c **** 	ETH0_SetSubnetMask( 0 );
 2157              		.loc 1 1013 0
 2158 0082 4FF00000 		mov	r0, #0
ARM GAS  C:\Users\CHUCK~1.ERH\AppData\Local\Temp\cco8cCZX.s 			page 57


 2159 0086 FFF7FEFF 		bl	ETH0_SetSubnetMask
1014:.\Generated_Source\PSoC5/ETH0.c **** }
 2160              		.loc 1 1014 0
 2161 008a 07F11807 		add	r7, r7, #24
 2162 008e BD46     		mov	sp, r7
 2163 0090 80BD     		pop	{r7, pc}
 2164              		.cfi_endproc
 2165              	.LFE74:
 2166              		.size	ETH0_Init, .-ETH0_Init
 2167 0092 00BF     		.section	.rodata
 2168              		.align	2
 2169              	.LC0:
 2170 0000 3139322E 		.ascii	"192.168.1.101\000"
 2170      3136382E 
 2170      312E3130 
 2170      3100
 2171 000e 0000     		.align	2
 2172              	.LC1:
 2173 0010 3235352E 		.ascii	"255.255.255.0\000"
 2173      3235352E 
 2173      3235352E 
 2173      3000
 2174 001e 0000     		.align	2
 2175              	.LC2:
 2176 0020 3139322E 		.ascii	"192.168.1.1\000"
 2176      3136382E 
 2176      312E3100 
 2177              		.section	.text.ETH0_Start,"ax",%progbits
 2178              		.align	2
 2179              		.global	ETH0_Start
 2180              		.thumb
 2181              		.thumb_func
 2182              		.type	ETH0_Start, %function
 2183              	ETH0_Start:
 2184              	.LFB75:
1015:.\Generated_Source\PSoC5/ETH0.c **** /* ------------------------------------------------------------------------ */
1016:.\Generated_Source\PSoC5/ETH0.c **** void
1017:.\Generated_Source\PSoC5/ETH0.c **** ETH0_Start( void )
1018:.\Generated_Source\PSoC5/ETH0.c **** {
 2185              		.loc 1 1018 0
 2186              		.cfi_startproc
 2187              		@ args = 0, pretend = 0, frame = 16
 2188              		@ frame_needed = 1, uses_anonymous_args = 0
 2189 0000 80B5     		push	{r7, lr}
 2190              	.LCFI124:
 2191              		.cfi_def_cfa_offset 8
 2192              		.cfi_offset 7, -8
 2193              		.cfi_offset 14, -4
 2194 0002 84B0     		sub	sp, sp, #16
 2195              	.LCFI125:
 2196              		.cfi_def_cfa_offset 24
 2197 0004 00AF     		add	r7, sp, #0
 2198              	.LCFI126:
 2199              		.cfi_def_cfa_register 7
1019:.\Generated_Source\PSoC5/ETH0.c **** 	uint32 ip;
1020:.\Generated_Source\PSoC5/ETH0.c **** 	uint32 gateway;
1021:.\Generated_Source\PSoC5/ETH0.c **** 	uint32 sub;
ARM GAS  C:\Users\CHUCK~1.ERH\AppData\Local\Temp\cco8cCZX.s 			page 58


1022:.\Generated_Source\PSoC5/ETH0.c **** 	
1023:.\Generated_Source\PSoC5/ETH0.c **** 	/* Check for SPI initialization */
1024:.\Generated_Source\PSoC5/ETH0.c **** 	if (SPI0_initVar == 0) {
 2200              		.loc 1 1024 0
 2201 0006 40F20003 		movw	r3, #:lower16:SPI0_initVar
 2202 000a C0F20003 		movt	r3, #:upper16:SPI0_initVar
 2203 000e 1B78     		ldrb	r3, [r3, #0]	@ zero_extendqisi2
 2204 0010 002B     		cmp	r3, #0
 2205 0012 01D1     		bne	.L86
1025:.\Generated_Source\PSoC5/ETH0.c **** 		/*
1026:.\Generated_Source\PSoC5/ETH0.c **** 		 * the hardware has not yet been initialized.  Before anything can be
1027:.\Generated_Source\PSoC5/ETH0.c **** 		 * initialized within the driver, the external hardware must be started
1028:.\Generated_Source\PSoC5/ETH0.c **** 		 */
1029:.\Generated_Source\PSoC5/ETH0.c **** 		SPI0_Start();
 2206              		.loc 1 1029 0
 2207 0014 FFF7FEFF 		bl	SPI0_Start
 2208              	.L86:
1030:.\Generated_Source\PSoC5/ETH0.c **** 	}
1031:.\Generated_Source\PSoC5/ETH0.c **** 		
1032:.\Generated_Source\PSoC5/ETH0.c **** 	/* wait for power on PLL Lock */
1033:.\Generated_Source\PSoC5/ETH0.c **** 	CyDelay( 10 );
 2209              		.loc 1 1033 0
 2210 0018 4FF00A00 		mov	r0, #10
 2211 001c FFF7FEFF 		bl	CyDelay
1034:.\Generated_Source\PSoC5/ETH0.c **** 	ip = ETH0_ParseIP("192.168.1.101");
 2212              		.loc 1 1034 0
 2213 0020 40F20000 		movw	r0, #:lower16:.LC0
 2214 0024 C0F20000 		movt	r0, #:upper16:.LC0
 2215 0028 FFF7FEFF 		bl	ETH0_ParseIP
 2216 002c F860     		str	r0, [r7, #12]
1035:.\Generated_Source\PSoC5/ETH0.c **** 	sub = ETH0_ParseIP("255.255.255.0");
 2217              		.loc 1 1035 0
 2218 002e 40F20000 		movw	r0, #:lower16:.LC1
 2219 0032 C0F20000 		movt	r0, #:upper16:.LC1
 2220 0036 FFF7FEFF 		bl	ETH0_ParseIP
 2221 003a B860     		str	r0, [r7, #8]
1036:.\Generated_Source\PSoC5/ETH0.c **** 	gateway = ETH0_ParseIP("192.168.1.1");
 2222              		.loc 1 1036 0
 2223 003c 40F20000 		movw	r0, #:lower16:.LC2
 2224 0040 C0F20000 		movt	r0, #:upper16:.LC2
 2225 0044 FFF7FEFF 		bl	ETH0_ParseIP
 2226 0048 7860     		str	r0, [r7, #4]
1037:.\Generated_Source\PSoC5/ETH0.c **** 	/* Initialize the device with the default data */
1038:.\Generated_Source\PSoC5/ETH0.c **** 	ETH0_Init( &ETH0_MAC[0], ip, sub, gateway  );
 2227              		.loc 1 1038 0
 2228 004a 40F20000 		movw	r0, #:lower16:ETH0_MAC
 2229 004e C0F20000 		movt	r0, #:upper16:ETH0_MAC
 2230 0052 F968     		ldr	r1, [r7, #12]
 2231 0054 BA68     		ldr	r2, [r7, #8]
 2232 0056 7B68     		ldr	r3, [r7, #4]
 2233 0058 FFF7FEFF 		bl	ETH0_Init
1039:.\Generated_Source\PSoC5/ETH0.c **** }
 2234              		.loc 1 1039 0
 2235 005c 07F11007 		add	r7, r7, #16
 2236 0060 BD46     		mov	sp, r7
 2237 0062 80BD     		pop	{r7, pc}
 2238              		.cfi_endproc
ARM GAS  C:\Users\CHUCK~1.ERH\AppData\Local\Temp\cco8cCZX.s 			page 59


 2239              	.LFE75:
 2240              		.size	ETH0_Start, .-ETH0_Start
 2241              		.section	.text.ETH0_ParseIP,"ax",%progbits
 2242              		.align	2
 2243              		.global	ETH0_ParseIP
 2244              		.thumb
 2245              		.thumb_func
 2246              		.type	ETH0_ParseIP, %function
 2247              	ETH0_ParseIP:
 2248              	.LFB76:
1040:.\Generated_Source\PSoC5/ETH0.c **** /* ------------------------------------------------------------------------ */
1041:.\Generated_Source\PSoC5/ETH0.c **** uint32
1042:.\Generated_Source\PSoC5/ETH0.c **** ETH0_ParseIP( const char* ipString )
1043:.\Generated_Source\PSoC5/ETH0.c **** {
 2249              		.loc 1 1043 0
 2250              		.cfi_startproc
 2251              		@ args = 0, pretend = 0, frame = 32
 2252              		@ frame_needed = 1, uses_anonymous_args = 0
 2253 0000 90B5     		push	{r4, r7, lr}
 2254              	.LCFI127:
 2255              		.cfi_def_cfa_offset 12
 2256              		.cfi_offset 4, -12
 2257              		.cfi_offset 7, -8
 2258              		.cfi_offset 14, -4
 2259 0002 89B0     		sub	sp, sp, #36
 2260              	.LCFI128:
 2261              		.cfi_def_cfa_offset 48
 2262 0004 00AF     		add	r7, sp, #0
 2263              	.LCFI129:
 2264              		.cfi_def_cfa_register 7
 2265 0006 7860     		str	r0, [r7, #4]
1044:.\Generated_Source\PSoC5/ETH0.c **** 	/*
1045:.\Generated_Source\PSoC5/ETH0.c **** 	 * Parse a human readable string in to a IP address usable by the hardare
1046:.\Generated_Source\PSoC5/ETH0.c **** 	 */
1047:.\Generated_Source\PSoC5/ETH0.c **** 	int index;
1048:.\Generated_Source\PSoC5/ETH0.c **** 	char digit[5];
1049:.\Generated_Source\PSoC5/ETH0.c **** 	uint8 ip[4];
1050:.\Generated_Source\PSoC5/ETH0.c **** 	int counter;
1051:.\Generated_Source\PSoC5/ETH0.c **** 	int dindex;
1052:.\Generated_Source\PSoC5/ETH0.c **** 	
1053:.\Generated_Source\PSoC5/ETH0.c **** 	index = 0;
 2266              		.loc 1 1053 0
 2267 0008 4FF00003 		mov	r3, #0
 2268 000c FB61     		str	r3, [r7, #28]
1054:.\Generated_Source\PSoC5/ETH0.c **** 	dindex = 0;
 2269              		.loc 1 1054 0
 2270 000e 4FF00003 		mov	r3, #0
 2271 0012 7B61     		str	r3, [r7, #20]
1055:.\Generated_Source\PSoC5/ETH0.c **** 	counter = 0;
 2272              		.loc 1 1055 0
 2273 0014 4FF00003 		mov	r3, #0
 2274 0018 BB61     		str	r3, [r7, #24]
1056:.\Generated_Source\PSoC5/ETH0.c **** 	
1057:.\Generated_Source\PSoC5/ETH0.c **** 	while ( (counter < 4) && ((unsigned int)index < strlen(ipString) ) ) {
 2275              		.loc 1 1057 0
 2276 001a 6FE0     		b	.L88
 2277              	.L97:
ARM GAS  C:\Users\CHUCK~1.ERH\AppData\Local\Temp\cco8cCZX.s 			page 60


1058:.\Generated_Source\PSoC5/ETH0.c **** 		if ( (ipString[index] >= '0' ) && (ipString[index] <= '9') ) {
 2278              		.loc 1 1058 0
 2279 001c FB69     		ldr	r3, [r7, #28]
 2280 001e 7A68     		ldr	r2, [r7, #4]
 2281 0020 D318     		adds	r3, r2, r3
 2282 0022 1B78     		ldrb	r3, [r3, #0]	@ zero_extendqisi2
 2283 0024 2F2B     		cmp	r3, #47
 2284 0026 18D9     		bls	.L89
 2285              		.loc 1 1058 0 is_stmt 0 discriminator 1
 2286 0028 FB69     		ldr	r3, [r7, #28]
 2287 002a 7A68     		ldr	r2, [r7, #4]
 2288 002c D318     		adds	r3, r2, r3
 2289 002e 1B78     		ldrb	r3, [r3, #0]	@ zero_extendqisi2
 2290 0030 392B     		cmp	r3, #57
 2291 0032 12D8     		bhi	.L89
1059:.\Generated_Source\PSoC5/ETH0.c **** 			if (dindex > 3) return( 0xFFFFFFFF );
 2292              		.loc 1 1059 0 is_stmt 1
 2293 0034 7B69     		ldr	r3, [r7, #20]
 2294 0036 032B     		cmp	r3, #3
 2295 0038 02DD     		ble	.L90
 2296              		.loc 1 1059 0 is_stmt 0 discriminator 1
 2297 003a 4FF0FF33 		mov	r3, #-1
 2298 003e 81E0     		b	.L99
 2299              	.L90:
1060:.\Generated_Source\PSoC5/ETH0.c **** 			digit[dindex++] = ipString[index];
 2300              		.loc 1 1060 0 is_stmt 1
 2301 0040 FB69     		ldr	r3, [r7, #28]
 2302 0042 7A68     		ldr	r2, [r7, #4]
 2303 0044 D318     		adds	r3, r2, r3
 2304 0046 1A78     		ldrb	r2, [r3, #0]	@ zero_extendqisi2
 2305 0048 07F10C01 		add	r1, r7, #12
 2306 004c 7B69     		ldr	r3, [r7, #20]
 2307 004e CB18     		adds	r3, r1, r3
 2308 0050 1A70     		strb	r2, [r3, #0]
 2309 0052 7B69     		ldr	r3, [r7, #20]
 2310 0054 03F10103 		add	r3, r3, #1
 2311 0058 7B61     		str	r3, [r7, #20]
 2312              	.L89:
1061:.\Generated_Source\PSoC5/ETH0.c **** 			
1062:.\Generated_Source\PSoC5/ETH0.c **** 		}
1063:.\Generated_Source\PSoC5/ETH0.c **** 		
1064:.\Generated_Source\PSoC5/ETH0.c **** 		if ( (ipString[index] == '.') || (ipString[index+1] == 0) ) {
 2313              		.loc 1 1064 0
 2314 005a FB69     		ldr	r3, [r7, #28]
 2315 005c 7A68     		ldr	r2, [r7, #4]
 2316 005e D318     		adds	r3, r2, r3
 2317 0060 1B78     		ldrb	r3, [r3, #0]	@ zero_extendqisi2
 2318 0062 2E2B     		cmp	r3, #46
 2319 0064 07D0     		beq	.L92
 2320              		.loc 1 1064 0 is_stmt 0 discriminator 1
 2321 0066 FB69     		ldr	r3, [r7, #28]
 2322 0068 03F10103 		add	r3, r3, #1
 2323 006c 7A68     		ldr	r2, [r7, #4]
 2324 006e D318     		adds	r3, r2, r3
 2325 0070 1B78     		ldrb	r3, [r3, #0]	@ zero_extendqisi2
 2326 0072 002B     		cmp	r3, #0
 2327 0074 3ED1     		bne	.L93
ARM GAS  C:\Users\CHUCK~1.ERH\AppData\Local\Temp\cco8cCZX.s 			page 61


 2328              	.L92:
1065:.\Generated_Source\PSoC5/ETH0.c **** 			digit[dindex] = 0;
 2329              		.loc 1 1065 0 is_stmt 1
 2330 0076 07F10C02 		add	r2, r7, #12
 2331 007a 7B69     		ldr	r3, [r7, #20]
 2332 007c D318     		adds	r3, r2, r3
 2333 007e 4FF00002 		mov	r2, #0
 2334 0082 1A70     		strb	r2, [r3, #0]
1066:.\Generated_Source\PSoC5/ETH0.c **** 			dindex = 0;
 2335              		.loc 1 1066 0
 2336 0084 4FF00003 		mov	r3, #0
 2337 0088 7B61     		str	r3, [r7, #20]
1067:.\Generated_Source\PSoC5/ETH0.c **** 			/* convert the value and store in the buffer */
1068:.\Generated_Source\PSoC5/ETH0.c **** 			ip[counter] = 0;
 2338              		.loc 1 1068 0
 2339 008a 07F10802 		add	r2, r7, #8
 2340 008e BB69     		ldr	r3, [r7, #24]
 2341 0090 D318     		adds	r3, r2, r3
 2342 0092 4FF00002 		mov	r2, #0
 2343 0096 1A70     		strb	r2, [r3, #0]
1069:.\Generated_Source\PSoC5/ETH0.c **** 			while (digit[dindex] != 0) {
 2344              		.loc 1 1069 0
 2345 0098 1EE0     		b	.L94
 2346              	.L95:
1070:.\Generated_Source\PSoC5/ETH0.c **** 				ip[counter] = (ip[counter]*10) + (digit[dindex]-'0');
 2347              		.loc 1 1070 0
 2348 009a 07F10802 		add	r2, r7, #8
 2349 009e BB69     		ldr	r3, [r7, #24]
 2350 00a0 D318     		adds	r3, r2, r3
 2351 00a2 1B78     		ldrb	r3, [r3, #0]	@ zero_extendqisi2
 2352 00a4 1A46     		mov	r2, r3
 2353 00a6 4FEA8202 		lsl	r2, r2, #2
 2354 00aa D318     		adds	r3, r2, r3
 2355 00ac 4FEA4303 		lsl	r3, r3, #1
 2356 00b0 DAB2     		uxtb	r2, r3
 2357 00b2 07F10C01 		add	r1, r7, #12
 2358 00b6 7B69     		ldr	r3, [r7, #20]
 2359 00b8 CB18     		adds	r3, r1, r3
 2360 00ba 1B78     		ldrb	r3, [r3, #0]	@ zero_extendqisi2
 2361 00bc D318     		adds	r3, r2, r3
 2362 00be DBB2     		uxtb	r3, r3
 2363 00c0 A3F13003 		sub	r3, r3, #48
 2364 00c4 DAB2     		uxtb	r2, r3
 2365 00c6 07F10801 		add	r1, r7, #8
 2366 00ca BB69     		ldr	r3, [r7, #24]
 2367 00cc CB18     		adds	r3, r1, r3
 2368 00ce 1A70     		strb	r2, [r3, #0]
1071:.\Generated_Source\PSoC5/ETH0.c **** 				++dindex;
 2369              		.loc 1 1071 0
 2370 00d0 7B69     		ldr	r3, [r7, #20]
 2371 00d2 03F10103 		add	r3, r3, #1
 2372 00d6 7B61     		str	r3, [r7, #20]
 2373              	.L94:
1069:.\Generated_Source\PSoC5/ETH0.c **** 			while (digit[dindex] != 0) {
 2374              		.loc 1 1069 0 discriminator 1
 2375 00d8 07F10C02 		add	r2, r7, #12
 2376 00dc 7B69     		ldr	r3, [r7, #20]
ARM GAS  C:\Users\CHUCK~1.ERH\AppData\Local\Temp\cco8cCZX.s 			page 62


 2377 00de D318     		adds	r3, r2, r3
 2378 00e0 1B78     		ldrb	r3, [r3, #0]	@ zero_extendqisi2
 2379 00e2 002B     		cmp	r3, #0
 2380 00e4 D9D1     		bne	.L95
1072:.\Generated_Source\PSoC5/ETH0.c **** 				// ip[counter] = ...
1073:.\Generated_Source\PSoC5/ETH0.c **** 			}
1074:.\Generated_Source\PSoC5/ETH0.c **** 			/* reset the digit index to start accumulating digits again*/
1075:.\Generated_Source\PSoC5/ETH0.c **** 			dindex = 0;
 2381              		.loc 1 1075 0
 2382 00e6 4FF00003 		mov	r3, #0
 2383 00ea 7B61     		str	r3, [r7, #20]
1076:.\Generated_Source\PSoC5/ETH0.c **** 			/* move to the next address byte */
1077:.\Generated_Source\PSoC5/ETH0.c **** 			++counter;
 2384              		.loc 1 1077 0
 2385 00ec BB69     		ldr	r3, [r7, #24]
 2386 00ee 03F10103 		add	r3, r3, #1
 2387 00f2 BB61     		str	r3, [r7, #24]
 2388              	.L93:
1078:.\Generated_Source\PSoC5/ETH0.c **** 		}
1079:.\Generated_Source\PSoC5/ETH0.c **** 		++index;
 2389              		.loc 1 1079 0
 2390 00f4 FB69     		ldr	r3, [r7, #28]
 2391 00f6 03F10103 		add	r3, r3, #1
 2392 00fa FB61     		str	r3, [r7, #28]
 2393              	.L88:
1057:.\Generated_Source\PSoC5/ETH0.c **** 	while ( (counter < 4) && ((unsigned int)index < strlen(ipString) ) ) {
 2394              		.loc 1 1057 0 discriminator 1
 2395 00fc BB69     		ldr	r3, [r7, #24]
 2396 00fe 032B     		cmp	r3, #3
 2397 0100 06DC     		bgt	.L96
1057:.\Generated_Source\PSoC5/ETH0.c **** 	while ( (counter < 4) && ((unsigned int)index < strlen(ipString) ) ) {
 2398              		.loc 1 1057 0 is_stmt 0 discriminator 2
 2399 0102 FC69     		ldr	r4, [r7, #28]
 2400 0104 7868     		ldr	r0, [r7, #4]
 2401 0106 FFF7FEFF 		bl	strlen
 2402 010a 0346     		mov	r3, r0
 2403 010c 9C42     		cmp	r4, r3
 2404 010e 85D3     		bcc	.L97
 2405              	.L96:
1080:.\Generated_Source\PSoC5/ETH0.c **** 	}
1081:.\Generated_Source\PSoC5/ETH0.c **** 	
1082:.\Generated_Source\PSoC5/ETH0.c **** 	if (counter != 4) {
 2406              		.loc 1 1082 0 is_stmt 1
 2407 0110 BB69     		ldr	r3, [r7, #24]
 2408 0112 042B     		cmp	r3, #4
 2409 0114 02D0     		beq	.L98
1083:.\Generated_Source\PSoC5/ETH0.c **** 		return( 0xFFFFFFFF );
 2410              		.loc 1 1083 0
 2411 0116 4FF0FF33 		mov	r3, #-1
 2412 011a 13E0     		b	.L99
 2413              	.L98:
1084:.\Generated_Source\PSoC5/ETH0.c **** 	}
1085:.\Generated_Source\PSoC5/ETH0.c **** 	else {
1086:.\Generated_Source\PSoC5/ETH0.c **** 		return( ETH0_IPADDRESS(ip[0], ip[1], ip[2], ip[3]) );
 2414              		.loc 1 1086 0
 2415 011c 3B7A     		ldrb	r3, [r7, #8]	@ zero_extendqisi2
 2416 011e 1A46     		mov	r2, r3
ARM GAS  C:\Users\CHUCK~1.ERH\AppData\Local\Temp\cco8cCZX.s 			page 63


 2417 0120 7B7A     		ldrb	r3, [r7, #9]	@ zero_extendqisi2
 2418 0122 4FEA0323 		lsl	r3, r3, #8
 2419 0126 4FEA0343 		lsl	r3, r3, #16
 2420 012a 4FEA1343 		lsr	r3, r3, #16
 2421 012e D218     		adds	r2, r2, r3
 2422 0130 BB7A     		ldrb	r3, [r7, #10]	@ zero_extendqisi2
 2423 0132 4FEA0343 		lsl	r3, r3, #16
 2424 0136 03F47F03 		and	r3, r3, #16711680
 2425 013a D218     		adds	r2, r2, r3
 2426 013c FB7A     		ldrb	r3, [r7, #11]	@ zero_extendqisi2
 2427 013e 4FEA0363 		lsl	r3, r3, #24
 2428 0142 D318     		adds	r3, r2, r3
 2429              	.L99:
1087:.\Generated_Source\PSoC5/ETH0.c **** 	}
1088:.\Generated_Source\PSoC5/ETH0.c **** }
 2430              		.loc 1 1088 0
 2431 0144 1846     		mov	r0, r3
 2432 0146 07F12407 		add	r7, r7, #36
 2433 014a BD46     		mov	sp, r7
 2434 014c 90BD     		pop	{r4, r7, pc}
 2435              		.cfi_endproc
 2436              	.LFE76:
 2437              		.size	ETH0_ParseIP, .-ETH0_ParseIP
 2438 014e 00BF     		.section	.text.ETH0_SetIP,"ax",%progbits
 2439              		.align	2
 2440              		.global	ETH0_SetIP
 2441              		.thumb
 2442              		.thumb_func
 2443              		.type	ETH0_SetIP, %function
 2444              	ETH0_SetIP:
 2445              	.LFB77:
1089:.\Generated_Source\PSoC5/ETH0.c **** /* ------------------------------------------------------------------------ */
1090:.\Generated_Source\PSoC5/ETH0.c **** uint8
1091:.\Generated_Source\PSoC5/ETH0.c **** ETH0_SetIP( uint32 ip )
1092:.\Generated_Source\PSoC5/ETH0.c **** {
 2446              		.loc 1 1092 0
 2447              		.cfi_startproc
 2448              		@ args = 0, pretend = 0, frame = 16
 2449              		@ frame_needed = 1, uses_anonymous_args = 0
 2450 0000 80B5     		push	{r7, lr}
 2451              	.LCFI130:
 2452              		.cfi_def_cfa_offset 8
 2453              		.cfi_offset 7, -8
 2454              		.cfi_offset 14, -4
 2455 0002 84B0     		sub	sp, sp, #16
 2456              	.LCFI131:
 2457              		.cfi_def_cfa_offset 24
 2458 0004 00AF     		add	r7, sp, #0
 2459              	.LCFI132:
 2460              		.cfi_def_cfa_register 7
 2461 0006 7860     		str	r0, [r7, #4]
1093:.\Generated_Source\PSoC5/ETH0.c **** 	uint8 ok = 0;
 2462              		.loc 1 1093 0
 2463 0008 4FF00003 		mov	r3, #0
 2464 000c FB73     		strb	r3, [r7, #15]
1094:.\Generated_Source\PSoC5/ETH0.c **** 	
1095:.\Generated_Source\PSoC5/ETH0.c **** 	if ( ( ip != 0) && (ip != 0xFFFFFFFF) ) {
ARM GAS  C:\Users\CHUCK~1.ERH\AppData\Local\Temp\cco8cCZX.s 			page 64


 2465              		.loc 1 1095 0
 2466 000e 7B68     		ldr	r3, [r7, #4]
 2467 0010 002B     		cmp	r3, #0
 2468 0012 09D0     		beq	.L101
 2469              		.loc 1 1095 0 is_stmt 0 discriminator 1
 2470 0014 7B68     		ldr	r3, [r7, #4]
 2471 0016 B3F1FF3F 		cmp	r3, #-1
 2472 001a 05D0     		beq	.L101
1096:.\Generated_Source\PSoC5/ETH0.c **** 		ETH0_SetSourceIP( ip );
 2473              		.loc 1 1096 0 is_stmt 1
 2474 001c 7868     		ldr	r0, [r7, #4]
 2475 001e FFF7FEFF 		bl	ETH0_SetSourceIP
1097:.\Generated_Source\PSoC5/ETH0.c **** 		ok = 0xFF;
 2476              		.loc 1 1097 0
 2477 0022 4FF0FF03 		mov	r3, #255
 2478 0026 FB73     		strb	r3, [r7, #15]
 2479              	.L101:
1098:.\Generated_Source\PSoC5/ETH0.c **** 	}
1099:.\Generated_Source\PSoC5/ETH0.c **** 	
1100:.\Generated_Source\PSoC5/ETH0.c **** 	return ok;
 2480              		.loc 1 1100 0
 2481 0028 FB7B     		ldrb	r3, [r7, #15]	@ zero_extendqisi2
1101:.\Generated_Source\PSoC5/ETH0.c **** }
 2482              		.loc 1 1101 0
 2483 002a 1846     		mov	r0, r3
 2484 002c 07F11007 		add	r7, r7, #16
 2485 0030 BD46     		mov	sp, r7
 2486 0032 80BD     		pop	{r7, pc}
 2487              		.cfi_endproc
 2488              	.LFE77:
 2489              		.size	ETH0_SetIP, .-ETH0_SetIP
 2490              		.section	.text.ETH0_GetIP,"ax",%progbits
 2491              		.align	2
 2492              		.global	ETH0_GetIP
 2493              		.thumb
 2494              		.thumb_func
 2495              		.type	ETH0_GetIP, %function
 2496              	ETH0_GetIP:
 2497              	.LFB78:
1102:.\Generated_Source\PSoC5/ETH0.c **** /* ------------------------------------------------------------------------ */
1103:.\Generated_Source\PSoC5/ETH0.c **** uint32
1104:.\Generated_Source\PSoC5/ETH0.c **** ETH0_GetIP( void )
1105:.\Generated_Source\PSoC5/ETH0.c **** {
 2498              		.loc 1 1105 0
 2499              		.cfi_startproc
 2500              		@ args = 0, pretend = 0, frame = 0
 2501              		@ frame_needed = 1, uses_anonymous_args = 0
 2502 0000 80B5     		push	{r7, lr}
 2503              	.LCFI133:
 2504              		.cfi_def_cfa_offset 8
 2505              		.cfi_offset 7, -8
 2506              		.cfi_offset 14, -4
 2507 0002 00AF     		add	r7, sp, #0
 2508              	.LCFI134:
 2509              		.cfi_def_cfa_register 7
1106:.\Generated_Source\PSoC5/ETH0.c **** 	return ETH0_GetSourceIP();
 2510              		.loc 1 1106 0
ARM GAS  C:\Users\CHUCK~1.ERH\AppData\Local\Temp\cco8cCZX.s 			page 65


 2511 0004 FFF7FEFF 		bl	ETH0_GetSourceIP
 2512 0008 0346     		mov	r3, r0
1107:.\Generated_Source\PSoC5/ETH0.c **** }
 2513              		.loc 1 1107 0
 2514 000a 1846     		mov	r0, r3
 2515 000c 80BD     		pop	{r7, pc}
 2516              		.cfi_endproc
 2517              	.LFE78:
 2518              		.size	ETH0_GetIP, .-ETH0_GetIP
 2519 000e 00BF     		.section	.text.ETH0_SetMAC,"ax",%progbits
 2520              		.align	2
 2521              		.global	ETH0_SetMAC
 2522              		.thumb
 2523              		.thumb_func
 2524              		.type	ETH0_SetMAC, %function
 2525              	ETH0_SetMAC:
 2526              	.LFB79:
1108:.\Generated_Source\PSoC5/ETH0.c **** /* ------------------------------------------------------------------------ */
1109:.\Generated_Source\PSoC5/ETH0.c **** void
1110:.\Generated_Source\PSoC5/ETH0.c **** ETH0_SetMAC( uint8* mac )
1111:.\Generated_Source\PSoC5/ETH0.c **** {
 2527              		.loc 1 1111 0
 2528              		.cfi_startproc
 2529              		@ args = 0, pretend = 0, frame = 8
 2530              		@ frame_needed = 1, uses_anonymous_args = 0
 2531 0000 80B5     		push	{r7, lr}
 2532              	.LCFI135:
 2533              		.cfi_def_cfa_offset 8
 2534              		.cfi_offset 7, -8
 2535              		.cfi_offset 14, -4
 2536 0002 82B0     		sub	sp, sp, #8
 2537              	.LCFI136:
 2538              		.cfi_def_cfa_offset 16
 2539 0004 00AF     		add	r7, sp, #0
 2540              	.LCFI137:
 2541              		.cfi_def_cfa_register 7
 2542 0006 7860     		str	r0, [r7, #4]
1112:.\Generated_Source\PSoC5/ETH0.c **** 	ETH0_SetSourceMAC( mac );
 2543              		.loc 1 1112 0
 2544 0008 7868     		ldr	r0, [r7, #4]
 2545 000a FFF7FEFF 		bl	ETH0_SetSourceMAC
1113:.\Generated_Source\PSoC5/ETH0.c **** }
 2546              		.loc 1 1113 0
 2547 000e 07F10807 		add	r7, r7, #8
 2548 0012 BD46     		mov	sp, r7
 2549 0014 80BD     		pop	{r7, pc}
 2550              		.cfi_endproc
 2551              	.LFE79:
 2552              		.size	ETH0_SetMAC, .-ETH0_SetMAC
 2553 0016 00BF     		.section	.text.ETH0_GetMAC,"ax",%progbits
 2554              		.align	2
 2555              		.global	ETH0_GetMAC
 2556              		.thumb
 2557              		.thumb_func
 2558              		.type	ETH0_GetMAC, %function
 2559              	ETH0_GetMAC:
 2560              	.LFB80:
ARM GAS  C:\Users\CHUCK~1.ERH\AppData\Local\Temp\cco8cCZX.s 			page 66


1114:.\Generated_Source\PSoC5/ETH0.c **** /* ------------------------------------------------------------------------ */
1115:.\Generated_Source\PSoC5/ETH0.c **** void
1116:.\Generated_Source\PSoC5/ETH0.c **** ETH0_GetMAC( uint8* mac )
1117:.\Generated_Source\PSoC5/ETH0.c **** {
 2561              		.loc 1 1117 0
 2562              		.cfi_startproc
 2563              		@ args = 0, pretend = 0, frame = 8
 2564              		@ frame_needed = 1, uses_anonymous_args = 0
 2565 0000 80B5     		push	{r7, lr}
 2566              	.LCFI138:
 2567              		.cfi_def_cfa_offset 8
 2568              		.cfi_offset 7, -8
 2569              		.cfi_offset 14, -4
 2570 0002 82B0     		sub	sp, sp, #8
 2571              	.LCFI139:
 2572              		.cfi_def_cfa_offset 16
 2573 0004 00AF     		add	r7, sp, #0
 2574              	.LCFI140:
 2575              		.cfi_def_cfa_register 7
 2576 0006 7860     		str	r0, [r7, #4]
1118:.\Generated_Source\PSoC5/ETH0.c **** 	ETH0_GetSourceMAC( mac );
 2577              		.loc 1 1118 0
 2578 0008 7868     		ldr	r0, [r7, #4]
 2579 000a FFF7FEFF 		bl	ETH0_GetSourceMAC
1119:.\Generated_Source\PSoC5/ETH0.c **** }
 2580              		.loc 1 1119 0
 2581 000e 07F10807 		add	r7, r7, #8
 2582 0012 BD46     		mov	sp, r7
 2583 0014 80BD     		pop	{r7, pc}
 2584              		.cfi_endproc
 2585              	.LFE80:
 2586              		.size	ETH0_GetMAC, .-ETH0_GetMAC
 2587 0016 00BF     		.section	.text.ETH0_SocketOpen,"ax",%progbits
 2588              		.align	2
 2589              		.global	ETH0_SocketOpen
 2590              		.thumb
 2591              		.thumb_func
 2592              		.type	ETH0_SocketOpen, %function
 2593              	ETH0_SocketOpen:
 2594              	.LFB81:
1120:.\Generated_Source\PSoC5/ETH0.c **** #endif
1121:.\Generated_Source\PSoC5/ETH0.c **** /* ======================================================================== */
1122:.\Generated_Source\PSoC5/ETH0.c **** /* Socket Controls */
1123:.\Generated_Source\PSoC5/ETH0.c **** #if (1)
1124:.\Generated_Source\PSoC5/ETH0.c **** /* ------------------------------------------------------------------------ */
1125:.\Generated_Source\PSoC5/ETH0.c **** uint8
1126:.\Generated_Source\PSoC5/ETH0.c **** ETH0_SocketOpen( uint8 Protocol, uint16 port, uint8 flags )
1127:.\Generated_Source\PSoC5/ETH0.c **** {
 2595              		.loc 1 1127 0
 2596              		.cfi_startproc
 2597              		@ args = 0, pretend = 0, frame = 16
 2598              		@ frame_needed = 1, uses_anonymous_args = 0
 2599 0000 80B5     		push	{r7, lr}
 2600              	.LCFI141:
 2601              		.cfi_def_cfa_offset 8
 2602              		.cfi_offset 7, -8
 2603              		.cfi_offset 14, -4
ARM GAS  C:\Users\CHUCK~1.ERH\AppData\Local\Temp\cco8cCZX.s 			page 67


 2604 0002 84B0     		sub	sp, sp, #16
 2605              	.LCFI142:
 2606              		.cfi_def_cfa_offset 24
 2607 0004 00AF     		add	r7, sp, #0
 2608              	.LCFI143:
 2609              		.cfi_def_cfa_register 7
 2610 0006 1346     		mov	r3, r2
 2611 0008 0246     		mov	r2, r0
 2612 000a FA71     		strb	r2, [r7, #7]
 2613 000c 0A46     		mov	r2, r1	@ movhi
 2614 000e BA80     		strh	r2, [r7, #4]	@ movhi
 2615 0010 BB71     		strb	r3, [r7, #6]
1128:.\Generated_Source\PSoC5/ETH0.c **** 	uint8 socket;
1129:.\Generated_Source\PSoC5/ETH0.c **** 	int index;
1130:.\Generated_Source\PSoC5/ETH0.c **** 	
1131:.\Generated_Source\PSoC5/ETH0.c **** 	/*
1132:.\Generated_Source\PSoC5/ETH0.c **** 	 * This function will look for the first available socket for allocation
1133:.\Generated_Source\PSoC5/ETH0.c **** 	 * using the defined protocol.  The socket configuration will then be
1134:.\Generated_Source\PSoC5/ETH0.c **** 	 * initialized and saved in the allocation table. If the requested socket
1135:.\Generated_Source\PSoC5/ETH0.c **** 	 * can not be initialized, 0xFF is returned
1136:.\Generated_Source\PSoC5/ETH0.c **** 	 */
1137:.\Generated_Source\PSoC5/ETH0.c **** 	socket = 0xFF;
 2616              		.loc 1 1137 0
 2617 0012 4FF0FF03 		mov	r3, #255
 2618 0016 FB73     		strb	r3, [r7, #15]
1138:.\Generated_Source\PSoC5/ETH0.c **** 	/* find the first available socket to open, and how much memory is available */
1139:.\Generated_Source\PSoC5/ETH0.c **** 	for( index = 0;index<4;++index) {
 2619              		.loc 1 1139 0
 2620 0018 4FF00003 		mov	r3, #0
 2621 001c BB60     		str	r3, [r7, #8]
 2622 001e 1DE0     		b	.L108
 2623              	.L111:
1140:.\Generated_Source\PSoC5/ETH0.c **** 		if ( (socket == 0xFF) && (ETH0_SocketConfig[index].Protocol == 0) ) {
 2624              		.loc 1 1140 0
 2625 0020 FB7B     		ldrb	r3, [r7, #15]	@ zero_extendqisi2
 2626 0022 FF2B     		cmp	r3, #255
 2627 0024 16D1     		bne	.L109
 2628              		.loc 1 1140 0 is_stmt 0 discriminator 1
 2629 0026 40F20002 		movw	r2, #:lower16:ETH0_SocketConfig
 2630 002a C0F20002 		movt	r2, #:upper16:ETH0_SocketConfig
 2631 002e B968     		ldr	r1, [r7, #8]
 2632 0030 0B46     		mov	r3, r1
 2633 0032 4FEA4303 		lsl	r3, r3, #1
 2634 0036 5B18     		adds	r3, r3, r1
 2635 0038 4FEA4303 		lsl	r3, r3, #1
 2636 003c D318     		adds	r3, r2, r3
 2637 003e 1B78     		ldrb	r3, [r3, #0]	@ zero_extendqisi2
 2638 0040 002B     		cmp	r3, #0
 2639 0042 07D1     		bne	.L109
1141:.\Generated_Source\PSoC5/ETH0.c **** 			/*
1142:.\Generated_Source\PSoC5/ETH0.c **** 			 * Since the W5100 does not support MAC mode commucications, check to see
1143:.\Generated_Source\PSoC5/ETH0.c **** 			 * if the socket that is free was socket 0.  If the mac protocol was
1144:.\Generated_Source\PSoC5/ETH0.c **** 			 * selected, ignore socket 0
1145:.\Generated_Source\PSoC5/ETH0.c **** 			 */
1146:.\Generated_Source\PSoC5/ETH0.c **** 			if ( (Protocol != ETH0_PROTO_MAC) || (index != 0) ) {
 2640              		.loc 1 1146 0 is_stmt 1
 2641 0044 FB79     		ldrb	r3, [r7, #7]	@ zero_extendqisi2
ARM GAS  C:\Users\CHUCK~1.ERH\AppData\Local\Temp\cco8cCZX.s 			page 68


 2642 0046 042B     		cmp	r3, #4
 2643 0048 02D1     		bne	.L110
 2644              		.loc 1 1146 0 is_stmt 0 discriminator 1
 2645 004a BB68     		ldr	r3, [r7, #8]
 2646 004c 002B     		cmp	r3, #0
 2647 004e 01D0     		beq	.L109
 2648              	.L110:
1147:.\Generated_Source\PSoC5/ETH0.c **** 				/* store this socket number for allocation */
1148:.\Generated_Source\PSoC5/ETH0.c **** 				socket = index;
 2649              		.loc 1 1148 0 is_stmt 1
 2650 0050 BB68     		ldr	r3, [r7, #8]
 2651 0052 FB73     		strb	r3, [r7, #15]
 2652              	.L109:
1139:.\Generated_Source\PSoC5/ETH0.c **** 	for( index = 0;index<4;++index) {
 2653              		.loc 1 1139 0
 2654 0054 BB68     		ldr	r3, [r7, #8]
 2655 0056 03F10103 		add	r3, r3, #1
 2656 005a BB60     		str	r3, [r7, #8]
 2657              	.L108:
1139:.\Generated_Source\PSoC5/ETH0.c **** 	for( index = 0;index<4;++index) {
 2658              		.loc 1 1139 0 is_stmt 0 discriminator 1
 2659 005c BB68     		ldr	r3, [r7, #8]
 2660 005e 032B     		cmp	r3, #3
 2661 0060 DEDD     		ble	.L111
1149:.\Generated_Source\PSoC5/ETH0.c **** 			}
1150:.\Generated_Source\PSoC5/ETH0.c **** 		}
1151:.\Generated_Source\PSoC5/ETH0.c **** 	}
1152:.\Generated_Source\PSoC5/ETH0.c **** 	if (socket != 0xFF ) {
 2662              		.loc 1 1152 0 is_stmt 1
 2663 0062 FB7B     		ldrb	r3, [r7, #15]	@ zero_extendqisi2
 2664 0064 FF2B     		cmp	r3, #255
 2665 0066 4DD0     		beq	.L112
1153:.\Generated_Source\PSoC5/ETH0.c **** 		/* Store the socket information in the allocation table */
1154:.\Generated_Source\PSoC5/ETH0.c **** 		ETH0_SocketConfig[socket].Protocol = Protocol;
 2666              		.loc 1 1154 0
 2667 0068 F97B     		ldrb	r1, [r7, #15]	@ zero_extendqisi2
 2668 006a 40F20002 		movw	r2, #:lower16:ETH0_SocketConfig
 2669 006e C0F20002 		movt	r2, #:upper16:ETH0_SocketConfig
 2670 0072 0B46     		mov	r3, r1
 2671 0074 4FEA4303 		lsl	r3, r3, #1
 2672 0078 5B18     		adds	r3, r3, r1
 2673 007a 4FEA4303 		lsl	r3, r3, #1
 2674 007e D318     		adds	r3, r2, r3
 2675 0080 FA79     		ldrb	r2, [r7, #7]
 2676 0082 1A70     		strb	r2, [r3, #0]
1155:.\Generated_Source\PSoC5/ETH0.c **** 		ETH0_SocketConfig[socket].SocketFlags = flags;
 2677              		.loc 1 1155 0
 2678 0084 F97B     		ldrb	r1, [r7, #15]	@ zero_extendqisi2
 2679 0086 40F20002 		movw	r2, #:lower16:ETH0_SocketConfig
 2680 008a C0F20002 		movt	r2, #:upper16:ETH0_SocketConfig
 2681 008e 0B46     		mov	r3, r1
 2682 0090 4FEA4303 		lsl	r3, r3, #1
 2683 0094 5B18     		adds	r3, r3, r1
 2684 0096 4FEA4303 		lsl	r3, r3, #1
 2685 009a D318     		adds	r3, r2, r3
 2686 009c BA79     		ldrb	r2, [r7, #6]
 2687 009e 5A70     		strb	r2, [r3, #1]
ARM GAS  C:\Users\CHUCK~1.ERH\AppData\Local\Temp\cco8cCZX.s 			page 69


1156:.\Generated_Source\PSoC5/ETH0.c **** 		ETH0_SocketConfig[socket].SourcePort = port;
 2688              		.loc 1 1156 0
 2689 00a0 F97B     		ldrb	r1, [r7, #15]	@ zero_extendqisi2
 2690 00a2 40F20002 		movw	r2, #:lower16:ETH0_SocketConfig
 2691 00a6 C0F20002 		movt	r2, #:upper16:ETH0_SocketConfig
 2692 00aa 0B46     		mov	r3, r1
 2693 00ac 4FEA4303 		lsl	r3, r3, #1
 2694 00b0 5B18     		adds	r3, r3, r1
 2695 00b2 4FEA4303 		lsl	r3, r3, #1
 2696 00b6 D318     		adds	r3, r2, r3
 2697 00b8 BA88     		ldrh	r2, [r7, #4]	@ movhi
 2698 00ba 5A80     		strh	r2, [r3, #2]	@ movhi
1157:.\Generated_Source\PSoC5/ETH0.c **** 		ETH0_SocketConfig[socket].ServerFlag = 0;
 2699              		.loc 1 1157 0
 2700 00bc F97B     		ldrb	r1, [r7, #15]	@ zero_extendqisi2
 2701 00be 40F20002 		movw	r2, #:lower16:ETH0_SocketConfig
 2702 00c2 C0F20002 		movt	r2, #:upper16:ETH0_SocketConfig
 2703 00c6 0B46     		mov	r3, r1
 2704 00c8 4FEA4303 		lsl	r3, r3, #1
 2705 00cc 5B18     		adds	r3, r3, r1
 2706 00ce 4FEA4303 		lsl	r3, r3, #1
 2707 00d2 D318     		adds	r3, r2, r3
 2708 00d4 4FF00002 		mov	r2, #0
 2709 00d8 1A71     		strb	r2, [r3, #4]
1158:.\Generated_Source\PSoC5/ETH0.c **** 		/* Send the socket open with the correct protocol information */
1159:.\Generated_Source\PSoC5/ETH0.c **** 		ETH0_SetSocketSourcePort( socket, port );
 2710              		.loc 1 1159 0
 2711 00da FA7B     		ldrb	r2, [r7, #15]	@ zero_extendqisi2
 2712 00dc BB88     		ldrh	r3, [r7, #4]
 2713 00de 1046     		mov	r0, r2
 2714 00e0 1946     		mov	r1, r3
 2715 00e2 FFF7FEFF 		bl	ETH0_SetSocketSourcePort
1160:.\Generated_Source\PSoC5/ETH0.c **** 		ETH0_SetSocketMode( socket, Protocol | flags );
 2716              		.loc 1 1160 0
 2717 00e6 FA79     		ldrb	r2, [r7, #7]
 2718 00e8 BB79     		ldrb	r3, [r7, #6]
 2719 00ea 1343     		orrs	r3, r3, r2
 2720 00ec DBB2     		uxtb	r3, r3
 2721 00ee FA7B     		ldrb	r2, [r7, #15]	@ zero_extendqisi2
 2722 00f0 1046     		mov	r0, r2
 2723 00f2 1946     		mov	r1, r3
 2724 00f4 FFF7FEFF 		bl	ETH0_SetSocketMode
1161:.\Generated_Source\PSoC5/ETH0.c **** 		ETH0_ExecuteSocketCommand( socket, 1 );
 2725              		.loc 1 1161 0
 2726 00f8 FB7B     		ldrb	r3, [r7, #15]	@ zero_extendqisi2
 2727 00fa 1846     		mov	r0, r3
 2728 00fc 4FF00101 		mov	r1, #1
 2729 0100 FFF7FEFF 		bl	ETH0_ExecuteSocketCommand
 2730              	.L112:
1162:.\Generated_Source\PSoC5/ETH0.c **** 	}
1163:.\Generated_Source\PSoC5/ETH0.c **** 	return socket;
 2731              		.loc 1 1163 0
 2732 0104 FB7B     		ldrb	r3, [r7, #15]	@ zero_extendqisi2
1164:.\Generated_Source\PSoC5/ETH0.c **** }
 2733              		.loc 1 1164 0
 2734 0106 1846     		mov	r0, r3
 2735 0108 07F11007 		add	r7, r7, #16
ARM GAS  C:\Users\CHUCK~1.ERH\AppData\Local\Temp\cco8cCZX.s 			page 70


 2736 010c BD46     		mov	sp, r7
 2737 010e 80BD     		pop	{r7, pc}
 2738              		.cfi_endproc
 2739              	.LFE81:
 2740              		.size	ETH0_SocketOpen, .-ETH0_SocketOpen
 2741              		.section	.text.ETH0_SocketClose,"ax",%progbits
 2742              		.align	2
 2743              		.global	ETH0_SocketClose
 2744              		.thumb
 2745              		.thumb_func
 2746              		.type	ETH0_SocketClose, %function
 2747              	ETH0_SocketClose:
 2748              	.LFB82:
1165:.\Generated_Source\PSoC5/ETH0.c **** /* ------------------------------------------------------------------------ */
1166:.\Generated_Source\PSoC5/ETH0.c **** void
1167:.\Generated_Source\PSoC5/ETH0.c **** ETH0_SocketClose( uint8 socket )
1168:.\Generated_Source\PSoC5/ETH0.c **** {
 2749              		.loc 1 1168 0
 2750              		.cfi_startproc
 2751              		@ args = 0, pretend = 0, frame = 8
 2752              		@ frame_needed = 1, uses_anonymous_args = 0
 2753 0000 80B5     		push	{r7, lr}
 2754              	.LCFI144:
 2755              		.cfi_def_cfa_offset 8
 2756              		.cfi_offset 7, -8
 2757              		.cfi_offset 14, -4
 2758 0002 82B0     		sub	sp, sp, #8
 2759              	.LCFI145:
 2760              		.cfi_def_cfa_offset 16
 2761 0004 00AF     		add	r7, sp, #0
 2762              	.LCFI146:
 2763              		.cfi_def_cfa_register 7
 2764 0006 0346     		mov	r3, r0
 2765 0008 FB71     		strb	r3, [r7, #7]
1169:.\Generated_Source\PSoC5/ETH0.c **** 	/*
1170:.\Generated_Source\PSoC5/ETH0.c **** 	 * Set the socket allocation to empty, and issue the close command
1171:.\Generated_Source\PSoC5/ETH0.c **** 	 * to the socket
1172:.\Generated_Source\PSoC5/ETH0.c **** 	 */
1173:.\Generated_Source\PSoC5/ETH0.c **** 	if (socket < 4) {
 2766              		.loc 1 1173 0
 2767 000a FB79     		ldrb	r3, [r7, #7]	@ zero_extendqisi2
 2768 000c 032B     		cmp	r3, #3
 2769 000e 29D8     		bhi	.L114
1174:.\Generated_Source\PSoC5/ETH0.c **** 		/* clear the socket memory allocations */
1175:.\Generated_Source\PSoC5/ETH0.c **** 		ETH0_SocketConfig[socket].Protocol = 0;
 2770              		.loc 1 1175 0
 2771 0010 F979     		ldrb	r1, [r7, #7]	@ zero_extendqisi2
 2772 0012 40F20002 		movw	r2, #:lower16:ETH0_SocketConfig
 2773 0016 C0F20002 		movt	r2, #:upper16:ETH0_SocketConfig
 2774 001a 0B46     		mov	r3, r1
 2775 001c 4FEA4303 		lsl	r3, r3, #1
 2776 0020 5B18     		adds	r3, r3, r1
 2777 0022 4FEA4303 		lsl	r3, r3, #1
 2778 0026 D318     		adds	r3, r2, r3
 2779 0028 4FF00002 		mov	r2, #0
 2780 002c 1A70     		strb	r2, [r3, #0]
1176:.\Generated_Source\PSoC5/ETH0.c **** 		ETH0_SocketConfig[socket].SocketFlags = 0;
ARM GAS  C:\Users\CHUCK~1.ERH\AppData\Local\Temp\cco8cCZX.s 			page 71


 2781              		.loc 1 1176 0
 2782 002e F979     		ldrb	r1, [r7, #7]	@ zero_extendqisi2
 2783 0030 40F20002 		movw	r2, #:lower16:ETH0_SocketConfig
 2784 0034 C0F20002 		movt	r2, #:upper16:ETH0_SocketConfig
 2785 0038 0B46     		mov	r3, r1
 2786 003a 4FEA4303 		lsl	r3, r3, #1
 2787 003e 5B18     		adds	r3, r3, r1
 2788 0040 4FEA4303 		lsl	r3, r3, #1
 2789 0044 D318     		adds	r3, r2, r3
 2790 0046 4FF00002 		mov	r2, #0
 2791 004a 5A70     		strb	r2, [r3, #1]
1177:.\Generated_Source\PSoC5/ETH0.c **** 		/* close the socket */
1178:.\Generated_Source\PSoC5/ETH0.c **** 		ETH0_ExecuteSocketCommand( socket, 0x10 );
 2792              		.loc 1 1178 0
 2793 004c FB79     		ldrb	r3, [r7, #7]	@ zero_extendqisi2
 2794 004e 1846     		mov	r0, r3
 2795 0050 4FF01001 		mov	r1, #16
 2796 0054 FFF7FEFF 		bl	ETH0_ExecuteSocketCommand
1179:.\Generated_Source\PSoC5/ETH0.c **** 		/* Clear pending Interrupts */
1180:.\Generated_Source\PSoC5/ETH0.c **** 		ETH0_SetSocketIR( socket, 0xFF);
 2797              		.loc 1 1180 0
 2798 0058 FB79     		ldrb	r3, [r7, #7]	@ zero_extendqisi2
 2799 005a 1846     		mov	r0, r3
 2800 005c 4FF0FF01 		mov	r1, #255
 2801 0060 FFF7FEFF 		bl	ETH0_SetSocketIR
 2802              	.L114:
1181:.\Generated_Source\PSoC5/ETH0.c **** 	}
1182:.\Generated_Source\PSoC5/ETH0.c **** }
 2803              		.loc 1 1182 0
 2804 0064 07F10807 		add	r7, r7, #8
 2805 0068 BD46     		mov	sp, r7
 2806 006a 80BD     		pop	{r7, pc}
 2807              		.cfi_endproc
 2808              	.LFE82:
 2809              		.size	ETH0_SocketClose, .-ETH0_SocketClose
 2810              		.section	.text.ETH0_SocketProcessConnections,"ax",%progbits
 2811              		.align	2
 2812              		.global	ETH0_SocketProcessConnections
 2813              		.thumb
 2814              		.thumb_func
 2815              		.type	ETH0_SocketProcessConnections, %function
 2816              	ETH0_SocketProcessConnections:
 2817              	.LFB83:
1183:.\Generated_Source\PSoC5/ETH0.c **** /* ------------------------------------------------------------------------ */
1184:.\Generated_Source\PSoC5/ETH0.c **** uint8
1185:.\Generated_Source\PSoC5/ETH0.c **** ETH0_SocketProcessConnections( uint8 socket )
1186:.\Generated_Source\PSoC5/ETH0.c **** {
 2818              		.loc 1 1186 0
 2819              		.cfi_startproc
 2820              		@ args = 0, pretend = 0, frame = 16
 2821              		@ frame_needed = 1, uses_anonymous_args = 0
 2822 0000 80B5     		push	{r7, lr}
 2823              	.LCFI147:
 2824              		.cfi_def_cfa_offset 8
 2825              		.cfi_offset 7, -8
 2826              		.cfi_offset 14, -4
 2827 0002 84B0     		sub	sp, sp, #16
ARM GAS  C:\Users\CHUCK~1.ERH\AppData\Local\Temp\cco8cCZX.s 			page 72


 2828              	.LCFI148:
 2829              		.cfi_def_cfa_offset 24
 2830 0004 00AF     		add	r7, sp, #0
 2831              	.LCFI149:
 2832              		.cfi_def_cfa_register 7
 2833 0006 0346     		mov	r3, r0
 2834 0008 FB71     		strb	r3, [r7, #7]
1187:.\Generated_Source\PSoC5/ETH0.c **** 	uint8 status;
1188:.\Generated_Source\PSoC5/ETH0.c **** 	
1189:.\Generated_Source\PSoC5/ETH0.c **** 	status = ETH0_GetSocketStatus(socket);
 2835              		.loc 1 1189 0
 2836 000a FB79     		ldrb	r3, [r7, #7]	@ zero_extendqisi2
 2837 000c 1846     		mov	r0, r3
 2838 000e FFF7FEFF 		bl	ETH0_GetSocketStatus
 2839 0012 0346     		mov	r3, r0
 2840 0014 FB73     		strb	r3, [r7, #15]
1190:.\Generated_Source\PSoC5/ETH0.c **** 	/* has a connection termination been requested by remote system */
1191:.\Generated_Source\PSoC5/ETH0.c **** 	if (status == 0x1C) {
 2841              		.loc 1 1191 0
 2842 0016 FB7B     		ldrb	r3, [r7, #15]	@ zero_extendqisi2
 2843 0018 1C2B     		cmp	r3, #28
 2844 001a 03D1     		bne	.L117
1192:.\Generated_Source\PSoC5/ETH0.c **** 		/* Close the socket on this end */
1193:.\Generated_Source\PSoC5/ETH0.c **** 		ETH0_SocketClose(socket);
 2845              		.loc 1 1193 0
 2846 001c FB79     		ldrb	r3, [r7, #7]	@ zero_extendqisi2
 2847 001e 1846     		mov	r0, r3
 2848 0020 FFF7FEFF 		bl	ETH0_SocketClose
 2849              	.L117:
1194:.\Generated_Source\PSoC5/ETH0.c **** 	}
1195:.\Generated_Source\PSoC5/ETH0.c **** 	return (ETH0_GetSocketStatus(socket) == 0x00);
 2850              		.loc 1 1195 0
 2851 0024 FB79     		ldrb	r3, [r7, #7]	@ zero_extendqisi2
 2852 0026 1846     		mov	r0, r3
 2853 0028 FFF7FEFF 		bl	ETH0_GetSocketStatus
 2854 002c 0346     		mov	r3, r0
 2855 002e 002B     		cmp	r3, #0
 2856 0030 14BF     		ite	ne
 2857 0032 0023     		movne	r3, #0
 2858 0034 0123     		moveq	r3, #1
 2859 0036 DBB2     		uxtb	r3, r3
1196:.\Generated_Source\PSoC5/ETH0.c **** }
 2860              		.loc 1 1196 0
 2861 0038 1846     		mov	r0, r3
 2862 003a 07F11007 		add	r7, r7, #16
 2863 003e BD46     		mov	sp, r7
 2864 0040 80BD     		pop	{r7, pc}
 2865              		.cfi_endproc
 2866              	.LFE83:
 2867              		.size	ETH0_SocketProcessConnections, .-ETH0_SocketProcessConnections
 2868 0042 00BF     		.section	.text.ETH0_SocketEstablished,"ax",%progbits
 2869              		.align	2
 2870              		.global	ETH0_SocketEstablished
 2871              		.thumb
 2872              		.thumb_func
 2873              		.type	ETH0_SocketEstablished, %function
 2874              	ETH0_SocketEstablished:
ARM GAS  C:\Users\CHUCK~1.ERH\AppData\Local\Temp\cco8cCZX.s 			page 73


 2875              	.LFB84:
1197:.\Generated_Source\PSoC5/ETH0.c **** /* ------------------------------------------------------------------------ */
1198:.\Generated_Source\PSoC5/ETH0.c **** inline uint8
1199:.\Generated_Source\PSoC5/ETH0.c **** ETH0_SocketEstablished( uint8 socket )
1200:.\Generated_Source\PSoC5/ETH0.c **** {
 2876              		.loc 1 1200 0
 2877              		.cfi_startproc
 2878              		@ args = 0, pretend = 0, frame = 8
 2879              		@ frame_needed = 1, uses_anonymous_args = 0
 2880 0000 80B5     		push	{r7, lr}
 2881              	.LCFI150:
 2882              		.cfi_def_cfa_offset 8
 2883              		.cfi_offset 7, -8
 2884              		.cfi_offset 14, -4
 2885 0002 82B0     		sub	sp, sp, #8
 2886              	.LCFI151:
 2887              		.cfi_def_cfa_offset 16
 2888 0004 00AF     		add	r7, sp, #0
 2889              	.LCFI152:
 2890              		.cfi_def_cfa_register 7
 2891 0006 0346     		mov	r3, r0
 2892 0008 FB71     		strb	r3, [r7, #7]
1201:.\Generated_Source\PSoC5/ETH0.c **** 	return (ETH0_GetSocketStatus( socket ) == 0x17);
 2893              		.loc 1 1201 0
 2894 000a FB79     		ldrb	r3, [r7, #7]	@ zero_extendqisi2
 2895 000c 1846     		mov	r0, r3
 2896 000e FFF7FEFF 		bl	ETH0_GetSocketStatus
 2897 0012 0346     		mov	r3, r0
 2898 0014 172B     		cmp	r3, #23
 2899 0016 14BF     		ite	ne
 2900 0018 0023     		movne	r3, #0
 2901 001a 0123     		moveq	r3, #1
 2902 001c DBB2     		uxtb	r3, r3
1202:.\Generated_Source\PSoC5/ETH0.c **** }
 2903              		.loc 1 1202 0
 2904 001e 1846     		mov	r0, r3
 2905 0020 07F10807 		add	r7, r7, #8
 2906 0024 BD46     		mov	sp, r7
 2907 0026 80BD     		pop	{r7, pc}
 2908              		.cfi_endproc
 2909              	.LFE84:
 2910              		.size	ETH0_SocketEstablished, .-ETH0_SocketEstablished
 2911              		.section	.text.ETH0_SocketSend,"ax",%progbits
 2912              		.align	2
 2913              		.thumb
 2914              		.thumb_func
 2915              		.type	ETH0_SocketSend, %function
 2916              	ETH0_SocketSend:
 2917              	.LFB85:
1203:.\Generated_Source\PSoC5/ETH0.c **** /* ------------------------------------------------------------------------ */
1204:.\Generated_Source\PSoC5/ETH0.c **** /**
1205:.\Generated_Source\PSoC5/ETH0.c ****  * \brief Transmit a SEND operation over a socket
1206:.\Generated_Source\PSoC5/ETH0.c ****  * \param socket the socket to which the send command will be sent
1207:.\Generated_Source\PSoC5/ETH0.c ****  */
1208:.\Generated_Source\PSoC5/ETH0.c **** static inline void
1209:.\Generated_Source\PSoC5/ETH0.c **** ETH0_SocketSend(uint8 socket )
1210:.\Generated_Source\PSoC5/ETH0.c **** {
ARM GAS  C:\Users\CHUCK~1.ERH\AppData\Local\Temp\cco8cCZX.s 			page 74


 2918              		.loc 1 1210 0
 2919              		.cfi_startproc
 2920              		@ args = 0, pretend = 0, frame = 16
 2921              		@ frame_needed = 1, uses_anonymous_args = 0
 2922 0000 80B5     		push	{r7, lr}
 2923              	.LCFI153:
 2924              		.cfi_def_cfa_offset 8
 2925              		.cfi_offset 7, -8
 2926              		.cfi_offset 14, -4
 2927 0002 84B0     		sub	sp, sp, #16
 2928              	.LCFI154:
 2929              		.cfi_def_cfa_offset 24
 2930 0004 00AF     		add	r7, sp, #0
 2931              	.LCFI155:
 2932              		.cfi_def_cfa_register 7
 2933 0006 0346     		mov	r3, r0
 2934 0008 FB71     		strb	r3, [r7, #7]
1211:.\Generated_Source\PSoC5/ETH0.c **** 	uint8 ir;
1212:.\Generated_Source\PSoC5/ETH0.c **** 	
1213:.\Generated_Source\PSoC5/ETH0.c **** 	/* initialize the subnet mask register : ERRATA FIX */
1214:.\Generated_Source\PSoC5/ETH0.c **** 	ETH0_SetSubnetMask( ETH0_SubnetMask );
 2935              		.loc 1 1214 0
 2936 000a 40F20003 		movw	r3, #:lower16:ETH0_SubnetMask
 2937 000e C0F20003 		movt	r3, #:upper16:ETH0_SubnetMask
 2938 0012 1B68     		ldr	r3, [r3, #0]
 2939 0014 1846     		mov	r0, r3
 2940 0016 FFF7FEFF 		bl	ETH0_SetSubnetMask
1215:.\Generated_Source\PSoC5/ETH0.c **** 	/* Issue the SEND command */
1216:.\Generated_Source\PSoC5/ETH0.c **** 	ETH0_ExecuteSocketCommand( socket, 0x20 );
 2941              		.loc 1 1216 0
 2942 001a FB79     		ldrb	r3, [r7, #7]	@ zero_extendqisi2
 2943 001c 1846     		mov	r0, r3
 2944 001e 4FF02001 		mov	r1, #32
 2945 0022 FFF7FEFF 		bl	ETH0_ExecuteSocketCommand
1217:.\Generated_Source\PSoC5/ETH0.c **** 	/* wait for the SEND to complete, or for a timeout */
1218:.\Generated_Source\PSoC5/ETH0.c **** 	ir = ETH0_GetSocketIR( socket );
 2946              		.loc 1 1218 0
 2947 0026 FB79     		ldrb	r3, [r7, #7]	@ zero_extendqisi2
 2948 0028 1846     		mov	r0, r3
 2949 002a FFF7FEFF 		bl	ETH0_GetSocketIR
 2950 002e 0346     		mov	r3, r0
 2951 0030 FB73     		strb	r3, [r7, #15]
1219:.\Generated_Source\PSoC5/ETH0.c **** 	/* while SEND is not done, and the socket hasnot timed out or been dsconnected */
1220:.\Generated_Source\PSoC5/ETH0.c **** 	while ( ((ir & 0x10) == 0) && (!(ir&0x0A)) ) {
 2952              		.loc 1 1220 0
 2953 0032 09E0     		b	.L122
 2954              	.L124:
1221:.\Generated_Source\PSoC5/ETH0.c **** 		CyDelay(1);
 2955              		.loc 1 1221 0
 2956 0034 4FF00100 		mov	r0, #1
 2957 0038 FFF7FEFF 		bl	CyDelay
1222:.\Generated_Source\PSoC5/ETH0.c **** 		ir = ETH0_GetSocketIR( socket );
 2958              		.loc 1 1222 0
 2959 003c FB79     		ldrb	r3, [r7, #7]	@ zero_extendqisi2
 2960 003e 1846     		mov	r0, r3
 2961 0040 FFF7FEFF 		bl	ETH0_GetSocketIR
 2962 0044 0346     		mov	r3, r0
ARM GAS  C:\Users\CHUCK~1.ERH\AppData\Local\Temp\cco8cCZX.s 			page 75


 2963 0046 FB73     		strb	r3, [r7, #15]
 2964              	.L122:
1220:.\Generated_Source\PSoC5/ETH0.c **** 	while ( ((ir & 0x10) == 0) && (!(ir&0x0A)) ) {
 2965              		.loc 1 1220 0 discriminator 1
 2966 0048 FB7B     		ldrb	r3, [r7, #15]	@ zero_extendqisi2
 2967 004a 03F01003 		and	r3, r3, #16
 2968 004e 002B     		cmp	r3, #0
 2969 0050 04D1     		bne	.L123
1220:.\Generated_Source\PSoC5/ETH0.c **** 	while ( ((ir & 0x10) == 0) && (!(ir&0x0A)) ) {
 2970              		.loc 1 1220 0 is_stmt 0 discriminator 2
 2971 0052 FB7B     		ldrb	r3, [r7, #15]	@ zero_extendqisi2
 2972 0054 03F00A03 		and	r3, r3, #10
 2973 0058 002B     		cmp	r3, #0
 2974 005a EBD0     		beq	.L124
 2975              	.L123:
1223:.\Generated_Source\PSoC5/ETH0.c **** 		
1224:.\Generated_Source\PSoC5/ETH0.c **** 	}
1225:.\Generated_Source\PSoC5/ETH0.c **** 	/* clear the SEND_OK flag from the register */
1226:.\Generated_Source\PSoC5/ETH0.c **** 	ETH0_SetSocketIR( socket, 0x10 );
 2976              		.loc 1 1226 0 is_stmt 1
 2977 005c FB79     		ldrb	r3, [r7, #7]	@ zero_extendqisi2
 2978 005e 1846     		mov	r0, r3
 2979 0060 4FF01001 		mov	r1, #16
 2980 0064 FFF7FEFF 		bl	ETH0_SetSocketIR
1227:.\Generated_Source\PSoC5/ETH0.c **** 	/* reset the subnet mask : ERRATA FIX */
1228:.\Generated_Source\PSoC5/ETH0.c **** 	ETH0_SetSubnetMask( 0 );
 2981              		.loc 1 1228 0
 2982 0068 4FF00000 		mov	r0, #0
 2983 006c FFF7FEFF 		bl	ETH0_SetSubnetMask
1229:.\Generated_Source\PSoC5/ETH0.c **** }
 2984              		.loc 1 1229 0
 2985 0070 07F11007 		add	r7, r7, #16
 2986 0074 BD46     		mov	sp, r7
 2987 0076 80BD     		pop	{r7, pc}
 2988              		.cfi_endproc
 2989              	.LFE85:
 2990              		.size	ETH0_SocketSend, .-ETH0_SocketSend
 2991              		.section	.text.ETH0_SocketRxDataWaiting,"ax",%progbits
 2992              		.align	2
 2993              		.global	ETH0_SocketRxDataWaiting
 2994              		.thumb
 2995              		.thumb_func
 2996              		.type	ETH0_SocketRxDataWaiting, %function
 2997              	ETH0_SocketRxDataWaiting:
 2998              	.LFB87:
1230:.\Generated_Source\PSoC5/ETH0.c **** /* ------------------------------------------------------------------------ */
1231:.\Generated_Source\PSoC5/ETH0.c **** /**
1232:.\Generated_Source\PSoC5/ETH0.c ****  * \brief Execute a SEND without an ARP.
1233:.\Generated_Source\PSoC5/ETH0.c ****  * \param socket the socket to which the SEND will be executed.
1234:.\Generated_Source\PSoC5/ETH0.c ****  */
1235:.\Generated_Source\PSoC5/ETH0.c **** static inline void
1236:.\Generated_Source\PSoC5/ETH0.c **** ETH0_SocketSendMac(uint8 socket )
1237:.\Generated_Source\PSoC5/ETH0.c **** {
1238:.\Generated_Source\PSoC5/ETH0.c **** 	uint8 ir;
1239:.\Generated_Source\PSoC5/ETH0.c **** 	
1240:.\Generated_Source\PSoC5/ETH0.c **** 	/* initialize the subnet mask register : ERRATA FIX */
1241:.\Generated_Source\PSoC5/ETH0.c **** 	ETH0_SetSubnetMask( ETH0_SubnetMask );
ARM GAS  C:\Users\CHUCK~1.ERH\AppData\Local\Temp\cco8cCZX.s 			page 76


1242:.\Generated_Source\PSoC5/ETH0.c **** 	/* Issue the SEND command */
1243:.\Generated_Source\PSoC5/ETH0.c **** 	ETH0_ExecuteSocketCommand( socket, 0x21 );
1244:.\Generated_Source\PSoC5/ETH0.c **** 	/* wait for the SEND to complete, or for a timeout */
1245:.\Generated_Source\PSoC5/ETH0.c **** 	ir = ETH0_GetSocketIR( socket );
1246:.\Generated_Source\PSoC5/ETH0.c **** 	/* while SEND is not done, and the socket hasnot timed out or been dsconnected */
1247:.\Generated_Source\PSoC5/ETH0.c **** 	while ( ((ir & 0x10) == 0) && (!(ir&0x0A)) ) {
1248:.\Generated_Source\PSoC5/ETH0.c **** 		CyDelay(1);
1249:.\Generated_Source\PSoC5/ETH0.c **** 		ir = ETH0_GetSocketIR( socket );
1250:.\Generated_Source\PSoC5/ETH0.c **** 		
1251:.\Generated_Source\PSoC5/ETH0.c **** 	}
1252:.\Generated_Source\PSoC5/ETH0.c **** 	/* clear the SEND_OK flag from the register */
1253:.\Generated_Source\PSoC5/ETH0.c **** 	ETH0_SetSocketIR( socket, 0x10 );
1254:.\Generated_Source\PSoC5/ETH0.c **** 	/* reset the subnet mask : ERRATA FIX */
1255:.\Generated_Source\PSoC5/ETH0.c **** 	ETH0_SetSubnetMask( 0 );
1256:.\Generated_Source\PSoC5/ETH0.c **** }
1257:.\Generated_Source\PSoC5/ETH0.c **** /* ------------------------------------------------------------------------ */
1258:.\Generated_Source\PSoC5/ETH0.c **** uint16
1259:.\Generated_Source\PSoC5/ETH0.c **** ETH0_SocketRxDataWaiting( uint8 socket )
1260:.\Generated_Source\PSoC5/ETH0.c **** {
 2999              		.loc 1 1260 0
 3000              		.cfi_startproc
 3001              		@ args = 0, pretend = 0, frame = 8
 3002              		@ frame_needed = 1, uses_anonymous_args = 0
 3003 0000 80B5     		push	{r7, lr}
 3004              	.LCFI156:
 3005              		.cfi_def_cfa_offset 8
 3006              		.cfi_offset 7, -8
 3007              		.cfi_offset 14, -4
 3008 0002 82B0     		sub	sp, sp, #8
 3009              	.LCFI157:
 3010              		.cfi_def_cfa_offset 16
 3011 0004 00AF     		add	r7, sp, #0
 3012              	.LCFI158:
 3013              		.cfi_def_cfa_register 7
 3014 0006 0346     		mov	r3, r0
 3015 0008 FB71     		strb	r3, [r7, #7]
1261:.\Generated_Source\PSoC5/ETH0.c **** 	return ETH0_GetRxSize( socket );
 3016              		.loc 1 1261 0
 3017 000a FB79     		ldrb	r3, [r7, #7]	@ zero_extendqisi2
 3018 000c 1846     		mov	r0, r3
 3019 000e FFF7FEFF 		bl	ETH0_GetRxSize
 3020 0012 0346     		mov	r3, r0
1262:.\Generated_Source\PSoC5/ETH0.c **** }
 3021              		.loc 1 1262 0
 3022 0014 1846     		mov	r0, r3
 3023 0016 07F10807 		add	r7, r7, #8
 3024 001a BD46     		mov	sp, r7
 3025 001c 80BD     		pop	{r7, pc}
 3026              		.cfi_endproc
 3027              	.LFE87:
 3028              		.size	ETH0_SocketRxDataWaiting, .-ETH0_SocketRxDataWaiting
 3029 001e 00BF     		.section	.text.ETH0_TcpOpen,"ax",%progbits
 3030              		.align	2
 3031              		.global	ETH0_TcpOpen
 3032              		.thumb
 3033              		.thumb_func
 3034              		.type	ETH0_TcpOpen, %function
ARM GAS  C:\Users\CHUCK~1.ERH\AppData\Local\Temp\cco8cCZX.s 			page 77


 3035              	ETH0_TcpOpen:
 3036              	.LFB88:
1263:.\Generated_Source\PSoC5/ETH0.c **** #endif
1264:.\Generated_Source\PSoC5/ETH0.c **** /* ======================================================================== */
1265:.\Generated_Source\PSoC5/ETH0.c **** /* TCP/IP */
1266:.\Generated_Source\PSoC5/ETH0.c **** #if (1)
1267:.\Generated_Source\PSoC5/ETH0.c **** /* ------------------------------------------------------------------------ */
1268:.\Generated_Source\PSoC5/ETH0.c **** uint8
1269:.\Generated_Source\PSoC5/ETH0.c **** ETH0_TcpOpen(uint16 port)
1270:.\Generated_Source\PSoC5/ETH0.c **** {
 3037              		.loc 1 1270 0
 3038              		.cfi_startproc
 3039              		@ args = 0, pretend = 0, frame = 8
 3040              		@ frame_needed = 1, uses_anonymous_args = 0
 3041 0000 80B5     		push	{r7, lr}
 3042              	.LCFI159:
 3043              		.cfi_def_cfa_offset 8
 3044              		.cfi_offset 7, -8
 3045              		.cfi_offset 14, -4
 3046 0002 82B0     		sub	sp, sp, #8
 3047              	.LCFI160:
 3048              		.cfi_def_cfa_offset 16
 3049 0004 00AF     		add	r7, sp, #0
 3050              	.LCFI161:
 3051              		.cfi_def_cfa_register 7
 3052 0006 0346     		mov	r3, r0
 3053 0008 FB80     		strh	r3, [r7, #6]	@ movhi
1271:.\Generated_Source\PSoC5/ETH0.c **** 	return ETH0_SocketOpen(ETH0_PROTO_TCP, port, 0);
 3054              		.loc 1 1271 0
 3055 000a FB88     		ldrh	r3, [r7, #6]
 3056 000c 4FF00100 		mov	r0, #1
 3057 0010 1946     		mov	r1, r3
 3058 0012 4FF00002 		mov	r2, #0
 3059 0016 FFF7FEFF 		bl	ETH0_SocketOpen
 3060 001a 0346     		mov	r3, r0
1272:.\Generated_Source\PSoC5/ETH0.c **** }
 3061              		.loc 1 1272 0
 3062 001c 1846     		mov	r0, r3
 3063 001e 07F10807 		add	r7, r7, #8
 3064 0022 BD46     		mov	sp, r7
 3065 0024 80BD     		pop	{r7, pc}
 3066              		.cfi_endproc
 3067              	.LFE88:
 3068              		.size	ETH0_TcpOpen, .-ETH0_TcpOpen
 3069 0026 00BF     		.section	.text.ETH0_TcpStartServer,"ax",%progbits
 3070              		.align	2
 3071              		.global	ETH0_TcpStartServer
 3072              		.thumb
 3073              		.thumb_func
 3074              		.type	ETH0_TcpStartServer, %function
 3075              	ETH0_TcpStartServer:
 3076              	.LFB89:
1273:.\Generated_Source\PSoC5/ETH0.c **** /* ------------------------------------------------------------------------ */
1274:.\Generated_Source\PSoC5/ETH0.c **** void
1275:.\Generated_Source\PSoC5/ETH0.c **** ETH0_TcpStartServer( uint8 socket )
1276:.\Generated_Source\PSoC5/ETH0.c **** {
 3077              		.loc 1 1276 0
ARM GAS  C:\Users\CHUCK~1.ERH\AppData\Local\Temp\cco8cCZX.s 			page 78


 3078              		.cfi_startproc
 3079              		@ args = 0, pretend = 0, frame = 8
 3080              		@ frame_needed = 1, uses_anonymous_args = 0
 3081 0000 80B5     		push	{r7, lr}
 3082              	.LCFI162:
 3083              		.cfi_def_cfa_offset 8
 3084              		.cfi_offset 7, -8
 3085              		.cfi_offset 14, -4
 3086 0002 82B0     		sub	sp, sp, #8
 3087              	.LCFI163:
 3088              		.cfi_def_cfa_offset 16
 3089 0004 00AF     		add	r7, sp, #0
 3090              	.LCFI164:
 3091              		.cfi_def_cfa_register 7
 3092 0006 0346     		mov	r3, r0
 3093 0008 FB71     		strb	r3, [r7, #7]
1277:.\Generated_Source\PSoC5/ETH0.c **** 	/*
1278:.\Generated_Source\PSoC5/ETH0.c **** 	 * Start a open socket listening for a connection
1279:.\Generated_Source\PSoC5/ETH0.c **** 	 */
1280:.\Generated_Source\PSoC5/ETH0.c **** 	/* was this a valid socket? */
1281:.\Generated_Source\PSoC5/ETH0.c **** 	if (socket < 4) {
 3094              		.loc 1 1281 0
 3095 000a FB79     		ldrb	r3, [r7, #7]	@ zero_extendqisi2
 3096 000c 032B     		cmp	r3, #3
 3097 000e 05D8     		bhi	.L129
1282:.\Generated_Source\PSoC5/ETH0.c **** 		/* Execute the listen command */
1283:.\Generated_Source\PSoC5/ETH0.c **** 		ETH0_ExecuteSocketCommand( socket, 0x02 );
 3098              		.loc 1 1283 0
 3099 0010 FB79     		ldrb	r3, [r7, #7]	@ zero_extendqisi2
 3100 0012 1846     		mov	r0, r3
 3101 0014 4FF00201 		mov	r1, #2
 3102 0018 FFF7FEFF 		bl	ETH0_ExecuteSocketCommand
 3103              	.L129:
1284:.\Generated_Source\PSoC5/ETH0.c **** 	}
1285:.\Generated_Source\PSoC5/ETH0.c **** }
 3104              		.loc 1 1285 0
 3105 001c 07F10807 		add	r7, r7, #8
 3106 0020 BD46     		mov	sp, r7
 3107 0022 80BD     		pop	{r7, pc}
 3108              		.cfi_endproc
 3109              	.LFE89:
 3110              		.size	ETH0_TcpStartServer, .-ETH0_TcpStartServer
 3111              		.section	.text.ETH0_TcpStartServerWait,"ax",%progbits
 3112              		.align	2
 3113              		.global	ETH0_TcpStartServerWait
 3114              		.thumb
 3115              		.thumb_func
 3116              		.type	ETH0_TcpStartServerWait, %function
 3117              	ETH0_TcpStartServerWait:
 3118              	.LFB90:
1286:.\Generated_Source\PSoC5/ETH0.c **** /* ------------------------------------------------------------------------ */
1287:.\Generated_Source\PSoC5/ETH0.c **** void
1288:.\Generated_Source\PSoC5/ETH0.c **** ETH0_TcpStartServerWait( uint8 socket )
1289:.\Generated_Source\PSoC5/ETH0.c **** {
 3119              		.loc 1 1289 0
 3120              		.cfi_startproc
 3121              		@ args = 0, pretend = 0, frame = 8
ARM GAS  C:\Users\CHUCK~1.ERH\AppData\Local\Temp\cco8cCZX.s 			page 79


 3122              		@ frame_needed = 1, uses_anonymous_args = 0
 3123 0000 80B5     		push	{r7, lr}
 3124              	.LCFI165:
 3125              		.cfi_def_cfa_offset 8
 3126              		.cfi_offset 7, -8
 3127              		.cfi_offset 14, -4
 3128 0002 82B0     		sub	sp, sp, #8
 3129              	.LCFI166:
 3130              		.cfi_def_cfa_offset 16
 3131 0004 00AF     		add	r7, sp, #0
 3132              	.LCFI167:
 3133              		.cfi_def_cfa_register 7
 3134 0006 0346     		mov	r3, r0
 3135 0008 FB71     		strb	r3, [r7, #7]
1290:.\Generated_Source\PSoC5/ETH0.c **** 	ETH0_TcpStartServer(socket);
 3136              		.loc 1 1290 0
 3137 000a FB79     		ldrb	r3, [r7, #7]	@ zero_extendqisi2
 3138 000c 1846     		mov	r0, r3
 3139 000e FFF7FEFF 		bl	ETH0_TcpStartServer
1291:.\Generated_Source\PSoC5/ETH0.c **** 	/* wait for socket establishment */
1292:.\Generated_Source\PSoC5/ETH0.c **** 	while ( !ETH0_SocketEstablished(socket) ) {
 3140              		.loc 1 1292 0
 3141 0012 03E0     		b	.L132
 3142              	.L133:
1293:.\Generated_Source\PSoC5/ETH0.c **** 		CyDelay(1);
 3143              		.loc 1 1293 0
 3144 0014 4FF00100 		mov	r0, #1
 3145 0018 FFF7FEFF 		bl	CyDelay
 3146              	.L132:
1292:.\Generated_Source\PSoC5/ETH0.c **** 	while ( !ETH0_SocketEstablished(socket) ) {
 3147              		.loc 1 1292 0 discriminator 1
 3148 001c FB79     		ldrb	r3, [r7, #7]	@ zero_extendqisi2
 3149 001e 1846     		mov	r0, r3
 3150 0020 FFF7FEFF 		bl	ETH0_SocketEstablished
 3151 0024 0346     		mov	r3, r0
 3152 0026 002B     		cmp	r3, #0
 3153 0028 F4D0     		beq	.L133
1294:.\Generated_Source\PSoC5/ETH0.c **** 	}
1295:.\Generated_Source\PSoC5/ETH0.c **** }
 3154              		.loc 1 1295 0
 3155 002a 07F10807 		add	r7, r7, #8
 3156 002e BD46     		mov	sp, r7
 3157 0030 80BD     		pop	{r7, pc}
 3158              		.cfi_endproc
 3159              	.LFE90:
 3160              		.size	ETH0_TcpStartServerWait, .-ETH0_TcpStartServerWait
 3161 0032 00BF     		.section	.text.ETH0_TcpConnect,"ax",%progbits
 3162              		.align	2
 3163              		.global	ETH0_TcpConnect
 3164              		.thumb
 3165              		.thumb_func
 3166              		.type	ETH0_TcpConnect, %function
 3167              	ETH0_TcpConnect:
 3168              	.LFB91:
1296:.\Generated_Source\PSoC5/ETH0.c **** /* ------------------------------------------------------------------------ */
1297:.\Generated_Source\PSoC5/ETH0.c **** void
1298:.\Generated_Source\PSoC5/ETH0.c **** ETH0_TcpConnect( uint8 socket, uint32 ip, uint16 port )
ARM GAS  C:\Users\CHUCK~1.ERH\AppData\Local\Temp\cco8cCZX.s 			page 80


1299:.\Generated_Source\PSoC5/ETH0.c **** {
 3169              		.loc 1 1299 0
 3170              		.cfi_startproc
 3171              		@ args = 0, pretend = 0, frame = 16
 3172              		@ frame_needed = 1, uses_anonymous_args = 0
 3173 0000 80B5     		push	{r7, lr}
 3174              	.LCFI168:
 3175              		.cfi_def_cfa_offset 8
 3176              		.cfi_offset 7, -8
 3177              		.cfi_offset 14, -4
 3178 0002 84B0     		sub	sp, sp, #16
 3179              	.LCFI169:
 3180              		.cfi_def_cfa_offset 24
 3181 0004 00AF     		add	r7, sp, #0
 3182              	.LCFI170:
 3183              		.cfi_def_cfa_register 7
 3184 0006 3960     		str	r1, [r7, #0]
 3185 0008 1346     		mov	r3, r2
 3186 000a 0246     		mov	r2, r0
 3187 000c FA71     		strb	r2, [r7, #7]
 3188 000e BB80     		strh	r3, [r7, #4]	@ movhi
1300:.\Generated_Source\PSoC5/ETH0.c **** 	uint32 timeout;
1301:.\Generated_Source\PSoC5/ETH0.c **** 	uint8 ir;
1302:.\Generated_Source\PSoC5/ETH0.c **** 	
1303:.\Generated_Source\PSoC5/ETH0.c **** 	if ( (ip != 0xFFFFFFFF) && (ip != 0) ) {
 3189              		.loc 1 1303 0
 3190 0010 3B68     		ldr	r3, [r7, #0]
 3191 0012 B3F1FF3F 		cmp	r3, #-1
 3192 0016 42D0     		beq	.L134
 3193              		.loc 1 1303 0 is_stmt 0 discriminator 1
 3194 0018 3B68     		ldr	r3, [r7, #0]
 3195 001a 002B     		cmp	r3, #0
 3196 001c 3FD0     		beq	.L134
1304:.\Generated_Source\PSoC5/ETH0.c **** 		ETH0_SetSocketDestIP( socket, ip );
 3197              		.loc 1 1304 0 is_stmt 1
 3198 001e FB79     		ldrb	r3, [r7, #7]	@ zero_extendqisi2
 3199 0020 1846     		mov	r0, r3
 3200 0022 3968     		ldr	r1, [r7, #0]
 3201 0024 FFF7FEFF 		bl	ETH0_SetSocketDestIP
1305:.\Generated_Source\PSoC5/ETH0.c **** 		ETH0_SetSocketDestPort( socket, port );
 3202              		.loc 1 1305 0
 3203 0028 FA79     		ldrb	r2, [r7, #7]	@ zero_extendqisi2
 3204 002a BB88     		ldrh	r3, [r7, #4]
 3205 002c 1046     		mov	r0, r2
 3206 002e 1946     		mov	r1, r3
 3207 0030 FFF7FEFF 		bl	ETH0_SetSocketDestPort
1306:.\Generated_Source\PSoC5/ETH0.c **** 		/* set socket subnet mask */
1307:.\Generated_Source\PSoC5/ETH0.c **** 		ETH0_SetSubnetMask( ETH0_SubnetMask );
 3208              		.loc 1 1307 0
 3209 0034 40F20003 		movw	r3, #:lower16:ETH0_SubnetMask
 3210 0038 C0F20003 		movt	r3, #:upper16:ETH0_SubnetMask
 3211 003c 1B68     		ldr	r3, [r3, #0]
 3212 003e 1846     		mov	r0, r3
 3213 0040 FFF7FEFF 		bl	ETH0_SetSubnetMask
1308:.\Generated_Source\PSoC5/ETH0.c **** 		ETH0_ExecuteSocketCommand( socket, 0x04);
 3214              		.loc 1 1308 0
 3215 0044 FB79     		ldrb	r3, [r7, #7]	@ zero_extendqisi2
ARM GAS  C:\Users\CHUCK~1.ERH\AppData\Local\Temp\cco8cCZX.s 			page 81


 3216 0046 1846     		mov	r0, r3
 3217 0048 4FF00401 		mov	r1, #4
 3218 004c FFF7FEFF 		bl	ETH0_ExecuteSocketCommand
1309:.\Generated_Source\PSoC5/ETH0.c **** 		/* wait for the socket connection to the remote host is established */
1310:.\Generated_Source\PSoC5/ETH0.c **** 		while ( (!ETH0_SocketEstablished(socket))  && (timeout < 3000) ) {
 3219              		.loc 1 1310 0
 3220 0050 15E0     		b	.L136
 3221              	.L138:
1311:.\Generated_Source\PSoC5/ETH0.c **** 			CyDelay(1);
 3222              		.loc 1 1311 0
 3223 0052 4FF00100 		mov	r0, #1
 3224 0056 FFF7FEFF 		bl	CyDelay
1312:.\Generated_Source\PSoC5/ETH0.c **** 			++timeout;
 3225              		.loc 1 1312 0
 3226 005a FB68     		ldr	r3, [r7, #12]
 3227 005c 03F10103 		add	r3, r3, #1
 3228 0060 FB60     		str	r3, [r7, #12]
1313:.\Generated_Source\PSoC5/ETH0.c **** 			ir = ETH0_GetSocketIR( socket );
 3229              		.loc 1 1313 0
 3230 0062 FB79     		ldrb	r3, [r7, #7]	@ zero_extendqisi2
 3231 0064 1846     		mov	r0, r3
 3232 0066 FFF7FEFF 		bl	ETH0_GetSocketIR
 3233 006a 0346     		mov	r3, r0
 3234 006c FB72     		strb	r3, [r7, #11]
1314:.\Generated_Source\PSoC5/ETH0.c **** 			if ( (ir & 0x08) != 0 ) {
 3235              		.loc 1 1314 0
 3236 006e FB7A     		ldrb	r3, [r7, #11]	@ zero_extendqisi2
 3237 0070 03F00803 		and	r3, r3, #8
 3238 0074 002B     		cmp	r3, #0
 3239 0076 02D0     		beq	.L136
1315:.\Generated_Source\PSoC5/ETH0.c **** 				/* internal chip timeout occured */
1316:.\Generated_Source\PSoC5/ETH0.c **** 				timeout = 3000;
 3240              		.loc 1 1316 0
 3241 0078 40F6B833 		movw	r3, #3000
 3242 007c FB60     		str	r3, [r7, #12]
 3243              	.L136:
1310:.\Generated_Source\PSoC5/ETH0.c **** 		while ( (!ETH0_SocketEstablished(socket))  && (timeout < 3000) ) {
 3244              		.loc 1 1310 0 discriminator 1
 3245 007e FB79     		ldrb	r3, [r7, #7]	@ zero_extendqisi2
 3246 0080 1846     		mov	r0, r3
 3247 0082 FFF7FEFF 		bl	ETH0_SocketEstablished
 3248 0086 0346     		mov	r3, r0
 3249 0088 002B     		cmp	r3, #0
 3250 008a 04D1     		bne	.L137
1310:.\Generated_Source\PSoC5/ETH0.c **** 		while ( (!ETH0_SocketEstablished(socket))  && (timeout < 3000) ) {
 3251              		.loc 1 1310 0 is_stmt 0 discriminator 2
 3252 008c FA68     		ldr	r2, [r7, #12]
 3253 008e 40F6B733 		movw	r3, #2999
 3254 0092 9A42     		cmp	r2, r3
 3255 0094 DDD9     		bls	.L138
 3256              	.L137:
1317:.\Generated_Source\PSoC5/ETH0.c **** 			}
1318:.\Generated_Source\PSoC5/ETH0.c **** 		}
1319:.\Generated_Source\PSoC5/ETH0.c **** 		/* clear the Subnet mask register */
1320:.\Generated_Source\PSoC5/ETH0.c **** 		ETH0_SetSubnetMask(0);
 3257              		.loc 1 1320 0 is_stmt 1
 3258 0096 4FF00000 		mov	r0, #0
ARM GAS  C:\Users\CHUCK~1.ERH\AppData\Local\Temp\cco8cCZX.s 			page 82


 3259 009a FFF7FEFF 		bl	ETH0_SetSubnetMask
 3260              	.L134:
1321:.\Generated_Source\PSoC5/ETH0.c **** 	}
1322:.\Generated_Source\PSoC5/ETH0.c **** }
 3261              		.loc 1 1322 0
 3262 009e 07F11007 		add	r7, r7, #16
 3263 00a2 BD46     		mov	sp, r7
 3264 00a4 80BD     		pop	{r7, pc}
 3265              		.cfi_endproc
 3266              	.LFE91:
 3267              		.size	ETH0_TcpConnect, .-ETH0_TcpConnect
 3268 00a6 00BF     		.section	.text.ETH0_TcpConnected,"ax",%progbits
 3269              		.align	2
 3270              		.global	ETH0_TcpConnected
 3271              		.thumb
 3272              		.thumb_func
 3273              		.type	ETH0_TcpConnected, %function
 3274              	ETH0_TcpConnected:
 3275              	.LFB92:
1323:.\Generated_Source\PSoC5/ETH0.c **** /* ------------------------------------------------------------------------ */
1324:.\Generated_Source\PSoC5/ETH0.c **** inline uint8
1325:.\Generated_Source\PSoC5/ETH0.c **** ETH0_TcpConnected( uint8 socket )
1326:.\Generated_Source\PSoC5/ETH0.c **** { return ETH0_SocketEstablished(socket); }
 3276              		.loc 1 1326 0
 3277              		.cfi_startproc
 3278              		@ args = 0, pretend = 0, frame = 8
 3279              		@ frame_needed = 1, uses_anonymous_args = 0
 3280 0000 80B5     		push	{r7, lr}
 3281              	.LCFI171:
 3282              		.cfi_def_cfa_offset 8
 3283              		.cfi_offset 7, -8
 3284              		.cfi_offset 14, -4
 3285 0002 82B0     		sub	sp, sp, #8
 3286              	.LCFI172:
 3287              		.cfi_def_cfa_offset 16
 3288 0004 00AF     		add	r7, sp, #0
 3289              	.LCFI173:
 3290              		.cfi_def_cfa_register 7
 3291 0006 0346     		mov	r3, r0
 3292 0008 FB71     		strb	r3, [r7, #7]
 3293              		.loc 1 1326 0
 3294 000a FB79     		ldrb	r3, [r7, #7]	@ zero_extendqisi2
 3295 000c 1846     		mov	r0, r3
 3296 000e FFF7FEFF 		bl	ETH0_SocketEstablished
 3297 0012 0346     		mov	r3, r0
 3298 0014 1846     		mov	r0, r3
 3299 0016 07F10807 		add	r7, r7, #8
 3300 001a BD46     		mov	sp, r7
 3301 001c 80BD     		pop	{r7, pc}
 3302              		.cfi_endproc
 3303              	.LFE92:
 3304              		.size	ETH0_TcpConnected, .-ETH0_TcpConnected
 3305 001e 00BF     		.section	.text.ETH0_TcpDisconnect,"ax",%progbits
 3306              		.align	2
 3307              		.global	ETH0_TcpDisconnect
 3308              		.thumb
 3309              		.thumb_func
ARM GAS  C:\Users\CHUCK~1.ERH\AppData\Local\Temp\cco8cCZX.s 			page 83


 3310              		.type	ETH0_TcpDisconnect, %function
 3311              	ETH0_TcpDisconnect:
 3312              	.LFB93:
1327:.\Generated_Source\PSoC5/ETH0.c **** /* ------------------------------------------------------------------------ */
1328:.\Generated_Source\PSoC5/ETH0.c **** inline void
1329:.\Generated_Source\PSoC5/ETH0.c **** ETH0_TcpDisconnect( uint8 socket )
1330:.\Generated_Source\PSoC5/ETH0.c **** {
 3313              		.loc 1 1330 0
 3314              		.cfi_startproc
 3315              		@ args = 0, pretend = 0, frame = 8
 3316              		@ frame_needed = 1, uses_anonymous_args = 0
 3317 0000 80B5     		push	{r7, lr}
 3318              	.LCFI174:
 3319              		.cfi_def_cfa_offset 8
 3320              		.cfi_offset 7, -8
 3321              		.cfi_offset 14, -4
 3322 0002 82B0     		sub	sp, sp, #8
 3323              	.LCFI175:
 3324              		.cfi_def_cfa_offset 16
 3325 0004 00AF     		add	r7, sp, #0
 3326              	.LCFI176:
 3327              		.cfi_def_cfa_register 7
 3328 0006 0346     		mov	r3, r0
 3329 0008 FB71     		strb	r3, [r7, #7]
1331:.\Generated_Source\PSoC5/ETH0.c **** 	ETH0_ExecuteSocketCommand(socket, 0x08);
 3330              		.loc 1 1331 0
 3331 000a FB79     		ldrb	r3, [r7, #7]	@ zero_extendqisi2
 3332 000c 1846     		mov	r0, r3
 3333 000e 4FF00801 		mov	r1, #8
 3334 0012 FFF7FEFF 		bl	ETH0_ExecuteSocketCommand
1332:.\Generated_Source\PSoC5/ETH0.c **** }
 3335              		.loc 1 1332 0
 3336 0016 07F10807 		add	r7, r7, #8
 3337 001a BD46     		mov	sp, r7
 3338 001c 80BD     		pop	{r7, pc}
 3339              		.cfi_endproc
 3340              	.LFE93:
 3341              		.size	ETH0_TcpDisconnect, .-ETH0_TcpDisconnect
 3342 001e 00BF     		.section	.text.ETH0_TcpSend,"ax",%progbits
 3343              		.align	2
 3344              		.global	ETH0_TcpSend
 3345              		.thumb
 3346              		.thumb_func
 3347              		.type	ETH0_TcpSend, %function
 3348              	ETH0_TcpSend:
 3349              	.LFB94:
1333:.\Generated_Source\PSoC5/ETH0.c **** /* ------------------------------------------------------------------------ */
1334:.\Generated_Source\PSoC5/ETH0.c **** uint16
1335:.\Generated_Source\PSoC5/ETH0.c **** ETH0_TcpSend(uint8 socket, uint8* buffer, uint16 len)
1336:.\Generated_Source\PSoC5/ETH0.c **** {
 3350              		.loc 1 1336 0
 3351              		.cfi_startproc
 3352              		@ args = 0, pretend = 0, frame = 16
 3353              		@ frame_needed = 1, uses_anonymous_args = 0
 3354 0000 80B5     		push	{r7, lr}
 3355              	.LCFI177:
 3356              		.cfi_def_cfa_offset 8
ARM GAS  C:\Users\CHUCK~1.ERH\AppData\Local\Temp\cco8cCZX.s 			page 84


 3357              		.cfi_offset 7, -8
 3358              		.cfi_offset 14, -4
 3359 0002 84B0     		sub	sp, sp, #16
 3360              	.LCFI178:
 3361              		.cfi_def_cfa_offset 24
 3362 0004 00AF     		add	r7, sp, #0
 3363              	.LCFI179:
 3364              		.cfi_def_cfa_register 7
 3365 0006 3960     		str	r1, [r7, #0]
 3366 0008 1346     		mov	r3, r2
 3367 000a 0246     		mov	r2, r0
 3368 000c FA71     		strb	r2, [r7, #7]
 3369 000e BB80     		strh	r3, [r7, #4]	@ movhi
1337:.\Generated_Source\PSoC5/ETH0.c **** 	uint16 TxSize;
1338:.\Generated_Source\PSoC5/ETH0.c **** 	uint16 FreeSpace;
1339:.\Generated_Source\PSoC5/ETH0.c **** 	uint8 status;
1340:.\Generated_Source\PSoC5/ETH0.c **** 	
1341:.\Generated_Source\PSoC5/ETH0.c **** 	TxSize =  (len > 0x0800) ? 0x0800 : len;
 3370              		.loc 1 1341 0
 3371 0010 BB88     		ldrh	r3, [r7, #4]
 3372 0012 B3F5006F 		cmp	r3, #2048
 3373 0016 28BF     		it	cs
 3374 0018 4FF40063 		movcs	r3, #2048
 3375 001c FB81     		strh	r3, [r7, #14]	@ movhi
1342:.\Generated_Source\PSoC5/ETH0.c **** 	/* check the connection status, and protocol of the socket */
1343:.\Generated_Source\PSoC5/ETH0.c **** 	status = ETH0_GetSocketStatus(socket);
 3376              		.loc 1 1343 0
 3377 001e FB79     		ldrb	r3, [r7, #7]	@ zero_extendqisi2
 3378 0020 1846     		mov	r0, r3
 3379 0022 FFF7FEFF 		bl	ETH0_GetSocketStatus
 3380 0026 0346     		mov	r3, r0
 3381 0028 FB72     		strb	r3, [r7, #11]
1344:.\Generated_Source\PSoC5/ETH0.c **** 	if ( ( status == 0x17) && (ETH0_SocketConfig[socket].Protocol == ETH0_PROTO_TCP) ) {
 3382              		.loc 1 1344 0
 3383 002a FB7A     		ldrb	r3, [r7, #11]	@ zero_extendqisi2
 3384 002c 172B     		cmp	r3, #23
 3385 002e 38D1     		bne	.L143
 3386              		.loc 1 1344 0 is_stmt 0 discriminator 1
 3387 0030 F979     		ldrb	r1, [r7, #7]	@ zero_extendqisi2
 3388 0032 40F20002 		movw	r2, #:lower16:ETH0_SocketConfig
 3389 0036 C0F20002 		movt	r2, #:upper16:ETH0_SocketConfig
 3390 003a 0B46     		mov	r3, r1
 3391 003c 4FEA4303 		lsl	r3, r3, #1
 3392 0040 5B18     		adds	r3, r3, r1
 3393 0042 4FEA4303 		lsl	r3, r3, #1
 3394 0046 D318     		adds	r3, r2, r3
 3395 0048 1B78     		ldrb	r3, [r3, #0]	@ zero_extendqisi2
 3396 004a 012B     		cmp	r3, #1
 3397 004c 29D1     		bne	.L143
1345:.\Generated_Source\PSoC5/ETH0.c **** 		/* 
1346:.\Generated_Source\PSoC5/ETH0.c **** 		 * The socket was open with the correct protocol and is connected to
1347:.\Generated_Source\PSoC5/ETH0.c **** 		 * a valid remote system. In order to send the requested packet data,
1348:.\Generated_Source\PSoC5/ETH0.c **** 		 * first, we must wait for the available buffer memory to be free
1349:.\Generated_Source\PSoC5/ETH0.c **** 		 * in the transmit buffer fifo.
1350:.\Generated_Source\PSoC5/ETH0.c **** 		 */
1351:.\Generated_Source\PSoC5/ETH0.c **** 		FreeSpace = 0;
 3398              		.loc 1 1351 0 is_stmt 1
ARM GAS  C:\Users\CHUCK~1.ERH\AppData\Local\Temp\cco8cCZX.s 			page 85


 3399 004e 4FF00003 		mov	r3, #0
 3400 0052 BB81     		strh	r3, [r7, #12]	@ movhi
1352:.\Generated_Source\PSoC5/ETH0.c **** 		status = 0x17;
 3401              		.loc 1 1352 0
 3402 0054 4FF01703 		mov	r3, #23
 3403 0058 FB72     		strb	r3, [r7, #11]
1353:.\Generated_Source\PSoC5/ETH0.c **** 		while ( (FreeSpace < TxSize) && ( (status == 0x17) && (status != 0x1C) ) ) {
 3404              		.loc 1 1353 0
 3405 005a 0BE0     		b	.L144
 3406              	.L146:
1354:.\Generated_Source\PSoC5/ETH0.c **** 			FreeSpace = ETH0_GetTxFreeSize( socket );
 3407              		.loc 1 1354 0
 3408 005c FB79     		ldrb	r3, [r7, #7]	@ zero_extendqisi2
 3409 005e 1846     		mov	r0, r3
 3410 0060 FFF7FEFF 		bl	ETH0_GetTxFreeSize
 3411 0064 0346     		mov	r3, r0
 3412 0066 BB81     		strh	r3, [r7, #12]	@ movhi
1355:.\Generated_Source\PSoC5/ETH0.c **** 			status = ETH0_GetSocketStatus( socket );
 3413              		.loc 1 1355 0
 3414 0068 FB79     		ldrb	r3, [r7, #7]	@ zero_extendqisi2
 3415 006a 1846     		mov	r0, r3
 3416 006c FFF7FEFF 		bl	ETH0_GetSocketStatus
 3417 0070 0346     		mov	r3, r0
 3418 0072 FB72     		strb	r3, [r7, #11]
 3419              	.L144:
1353:.\Generated_Source\PSoC5/ETH0.c **** 		while ( (FreeSpace < TxSize) && ( (status == 0x17) && (status != 0x1C) ) ) {
 3420              		.loc 1 1353 0 discriminator 1
 3421 0074 BA89     		ldrh	r2, [r7, #12]
 3422 0076 FB89     		ldrh	r3, [r7, #14]
 3423 0078 9A42     		cmp	r2, r3
 3424 007a 05D2     		bcs	.L145
1353:.\Generated_Source\PSoC5/ETH0.c **** 		while ( (FreeSpace < TxSize) && ( (status == 0x17) && (status != 0x1C) ) ) {
 3425              		.loc 1 1353 0 is_stmt 0 discriminator 2
 3426 007c FB7A     		ldrb	r3, [r7, #11]	@ zero_extendqisi2
 3427 007e 172B     		cmp	r3, #23
 3428 0080 02D1     		bne	.L145
1353:.\Generated_Source\PSoC5/ETH0.c **** 		while ( (FreeSpace < TxSize) && ( (status == 0x17) && (status != 0x1C) ) ) {
 3429              		.loc 1 1353 0 discriminator 1
 3430 0082 FB7A     		ldrb	r3, [r7, #11]	@ zero_extendqisi2
 3431 0084 1C2B     		cmp	r3, #28
 3432 0086 E9D1     		bne	.L146
 3433              	.L145:
1356:.\Generated_Source\PSoC5/ETH0.c **** 		}
1357:.\Generated_Source\PSoC5/ETH0.c **** 		/*
1358:.\Generated_Source\PSoC5/ETH0.c **** 		 * Write the data buffer to the chip Tx Buffer, then issue
1359:.\Generated_Source\PSoC5/ETH0.c **** 		 * the chip SEND command
1360:.\Generated_Source\PSoC5/ETH0.c **** 		 */
1361:.\Generated_Source\PSoC5/ETH0.c **** 		ETH0_ProcessTxData(socket, 0, buffer, TxSize);
 3434              		.loc 1 1361 0 is_stmt 1
 3435 0088 FA79     		ldrb	r2, [r7, #7]	@ zero_extendqisi2
 3436 008a FB89     		ldrh	r3, [r7, #14]
 3437 008c 1046     		mov	r0, r2
 3438 008e 4FF00001 		mov	r1, #0
 3439 0092 3A68     		ldr	r2, [r7, #0]
 3440 0094 FFF7FEFF 		bl	ETH0_ProcessTxData
1362:.\Generated_Source\PSoC5/ETH0.c **** 		ETH0_SocketSend( socket );
 3441              		.loc 1 1362 0
ARM GAS  C:\Users\CHUCK~1.ERH\AppData\Local\Temp\cco8cCZX.s 			page 86


 3442 0098 FB79     		ldrb	r3, [r7, #7]	@ zero_extendqisi2
 3443 009a 1846     		mov	r0, r3
 3444 009c FFF7FEFF 		bl	ETH0_SocketSend
 3445 00a0 02E0     		b	.L147
 3446              	.L143:
1363:.\Generated_Source\PSoC5/ETH0.c **** 	}
1364:.\Generated_Source\PSoC5/ETH0.c **** 	else {
1365:.\Generated_Source\PSoC5/ETH0.c **** 		/*
1366:.\Generated_Source\PSoC5/ETH0.c **** 		 * the socket was not establised, or there was an error, so clear
1367:.\Generated_Source\PSoC5/ETH0.c **** 		 * the TxSize to signal that no data has bee sent
1368:.\Generated_Source\PSoC5/ETH0.c **** 		 */
