ARM GAS  C:\Users\CHUCK~1.ERH\AppData\Local\Temp\cc0yBz2d.s 			page 1


   1              		.syntax unified
   2              		.cpu cortex-m3
   3              		.fpu softvfp
   4              		.eabi_attribute 20, 1
   5              		.eabi_attribute 21, 1
   6              		.eabi_attribute 23, 3
   7              		.eabi_attribute 24, 1
   8              		.eabi_attribute 25, 1
   9              		.eabi_attribute 26, 1
  10              		.eabi_attribute 30, 6
  11              		.eabi_attribute 34, 1
  12              		.eabi_attribute 18, 4
  13              		.thumb
  14              		.file	"main.c"
  15              		.text
  16              	.Ltext0:
  17              		.cfi_sections	.debug_frame
  18              		.comm	randomData,2000,4
  19              		.section	.rodata
  20              		.align	2
  21              	.LC0:
  22 0000 57656C63 		.ascii	"Welcome to the freeSoC Explorer Board!\015\012\000"
  22      6F6D6520 
  22      746F2074 
  22      68652066 
  22      72656553 
  23 0029 000000   		.align	2
  24              	.LC1:
  25 002c 2D2D2D2D 		.ascii	"---------------------------------------------------"
  25      2D2D2D2D 
  25      2D2D2D2D 
  25      2D2D2D2D 
  25      2D2D2D2D 
  26 005f 2D2D2D2D 		.ascii	"-------------------------\015\012\015\012\000"
  26      2D2D2D2D 
  26      2D2D2D2D 
  26      2D2D2D2D 
  26      2D2D2D2D 
  27 007d 000000   		.align	2
  28              	.LC2:
  29 0080 506C6561 		.ascii	"Please Press a key: \000"
  29      73652050 
  29      72657373 
  29      2061206B 
  29      65793A20 
  30 0095 000000   		.align	2
  31              	.LC3:
  32 0098 5C200D00 		.ascii	"\\ \015\000"
  33              		.align	2
  34              	.LC4:
  35 009c 7C0D00   		.ascii	"|\015\000"
  36 009f 00       		.align	2
  37              	.LC5:
  38 00a0 2F0D00   		.ascii	"/\015\000"
  39 00a3 00       		.align	2
  40              	.LC6:
  41 00a4 2D0D00   		.ascii	"-\015\000"
ARM GAS  C:\Users\CHUCK~1.ERH\AppData\Local\Temp\cc0yBz2d.s 			page 2


  42 00a7 00       		.align	2
  43              	.LC7:
  44 00a8 0D0A5468 		.ascii	"\015\012Thank You! :-) \000"
  44      616E6B20 
  44      596F7521 
  44      203A2D29 
  44      2000
  45 00ba 0000     		.section	.text.main,"ax",%progbits
  46              		.align	2
  47              		.global	main
  48              		.thumb
  49              		.thumb_func
  50              		.type	main, %function
  51              	main:
  52              	.LFB56:
  53              		.file 1 ".\\main.c"
   1:.\main.c      **** /* ========================================
   2:.\main.c      ****  *
   3:.\main.c      ****  * Copyright YOUR COMPANY, THE YEAR
   4:.\main.c      ****  * All Rights Reserved
   5:.\main.c      ****  * UNPUBLISHED, LICENSED SOFTWARE.
   6:.\main.c      ****  *
   7:.\main.c      ****  * CONFIDENTIAL AND PROPRIETARY INFORMATION
   8:.\main.c      ****  * WHICH IS THE PROPERTY OF your company.
   9:.\main.c      ****  *
  10:.\main.c      ****  * ========================================
  11:.\main.c      **** */
  12:.\main.c      **** /**
  13:.\main.c      ****  * Notes:
  14:.\main.c      ****  * 1) Test executed using a FreeSoC Eplorer board wired to use the Arduino Ethernet shield
  15:.\main.c      ****  * 2) Modified design clock from 48 MHz PLL out to 64 PLL and added a 2000 byte speed test
  16:.\main.c      ****  *    to end of the code to further compare data rates and issues as reported on the PSoC
  17:.\main.c      ****  *    community forum by Pavloven.
  18:.\main.c      ****  */
  19:.\main.c      ****  
  20:.\main.c      **** #include <project.h>
  21:.\main.c      **** 
  22:.\main.c      **** char randomData[2000];
  23:.\main.c      **** 
  24:.\main.c      **** int main()
  25:.\main.c      **** {
  54              		.loc 1 25 0
  55              		.cfi_startproc
  56              		@ args = 0, pretend = 0, frame = 136
  57              		@ frame_needed = 1, uses_anonymous_args = 0
  58 0000 80B5     		push	{r7, lr}
  59              	.LCFI0:
  60              		.cfi_def_cfa_offset 8
  61              		.cfi_offset 7, -8
  62              		.cfi_offset 14, -4
  63 0002 A2B0     		sub	sp, sp, #136
  64              	.LCFI1:
  65              		.cfi_def_cfa_offset 144
  66 0004 00AF     		add	r7, sp, #0
  67              	.LCFI2:
  68              		.cfi_def_cfa_register 7
  26:.\main.c      **** 	char buffer[128];
ARM GAS  C:\Users\CHUCK~1.ERH\AppData\Local\Temp\cc0yBz2d.s 			page 3


  27:.\main.c      **** 	uint8 socket;
  28:.\main.c      **** 	uint16 length;
  29:.\main.c      **** 	int temp;
  30:.\main.c      **** 	
  31:.\main.c      ****     /* Place your initialization/startup code here (e.g. MyInst_Start()) */
  32:.\main.c      **** 	SPI0_Start();
  69              		.loc 1 32 0
  70 0006 FFF7FEFF 		bl	SPI0_Start
  33:.\main.c      **** 	ETH0_Start();
  71              		.loc 1 33 0
  72 000a FFF7FEFF 		bl	ETH0_Start
  34:.\main.c      **** 	
  35:.\main.c      **** 	/* Generate some random bytes to transmit to the Ethernet client */
  36:.\main.c      **** 	for (temp = 0; temp < 2000; ++temp)
  73              		.loc 1 36 0
  74 000e 4FF00003 		mov	r3, #0
  75 0012 C7F88430 		str	r3, [r7, #132]
  76 0016 17E0     		b	.L2
  77              	.L3:
  78              	.LBB2:
  37:.\main.c      **** 	{
  38:.\main.c      **** 		randomData[temp] = (rand()&0x17) + 'A';
  79              		.loc 1 38 0 discriminator 2
  80 0018 FFF7FEFF 		bl	rand
  81 001c 0346     		mov	r3, r0
  82 001e DBB2     		uxtb	r3, r3
  83 0020 03F01703 		and	r3, r3, #23
  84 0024 DBB2     		uxtb	r3, r3
  85 0026 03F14103 		add	r3, r3, #65
  86 002a DAB2     		uxtb	r2, r3
  87 002c 40F20003 		movw	r3, #:lower16:randomData
  88 0030 C0F20003 		movt	r3, #:upper16:randomData
  89 0034 D7F88410 		ldr	r1, [r7, #132]
  90 0038 5B18     		adds	r3, r3, r1
  91 003a 1A70     		strb	r2, [r3, #0]
  92              	.LBE2:
  36:.\main.c      **** 	for (temp = 0; temp < 2000; ++temp)
  93              		.loc 1 36 0 discriminator 2
  94 003c D7F88430 		ldr	r3, [r7, #132]
  95 0040 03F10103 		add	r3, r3, #1
  96 0044 C7F88430 		str	r3, [r7, #132]
  97              	.L2:
  36:.\main.c      **** 	for (temp = 0; temp < 2000; ++temp)
  98              		.loc 1 36 0 is_stmt 0 discriminator 1
  99 0048 D7F88420 		ldr	r2, [r7, #132]
 100 004c 40F2CF73 		movw	r3, #1999
 101 0050 9A42     		cmp	r2, r3
 102 0052 E1DD     		ble	.L3
 103              	.L14:
  39:.\main.c      **** 	}
  40:.\main.c      **** 
  41:.\main.c      **** //    CyGlobalIntEnable; /* Uncomment this line to enable global interrupts. */
  42:.\main.c      **** 	
  43:.\main.c      **** 	
  44:.\main.c      ****     for(;;)
  45:.\main.c      ****     {
  46:.\main.c      ****         /* Place your application code here. */
ARM GAS  C:\Users\CHUCK~1.ERH\AppData\Local\Temp\cc0yBz2d.s 			page 4


  47:.\main.c      **** 		socket = ETH0_TcpOpen( 23 );
 104              		.loc 1 47 0 is_stmt 1
 105 0054 4FF01700 		mov	r0, #23
 106 0058 FFF7FEFF 		bl	ETH0_TcpOpen
 107 005c 0346     		mov	r3, r0
 108 005e 87F88330 		strb	r3, [r7, #131]
  48:.\main.c      **** 		ETH0_TcpStartServer( socket );
 109              		.loc 1 48 0
 110 0062 97F88330 		ldrb	r3, [r7, #131]	@ zero_extendqisi2
 111 0066 1846     		mov	r0, r3
 112 0068 FFF7FEFF 		bl	ETH0_TcpStartServer
  49:.\main.c      **** 		while ( !ETH0_TcpConnected( socket ) ) {
 113              		.loc 1 49 0
 114 006c 03E0     		b	.L4
 115              	.L5:
  50:.\main.c      **** 			/*
  51:.\main.c      **** 			 * While we are waiting for the client to attach
  52:.\main.c      **** 			 * to the server, flash some random colors on the
  53:.\main.c      **** 			 * LED to provide entertainment.
  54:.\main.c      **** 			 */
  55:.\main.c      **** 			/* wait for a connection, and delay the flashes */
  56:.\main.c      **** 			CyDelay(100);
 116              		.loc 1 56 0
 117 006e 4FF06400 		mov	r0, #100
 118 0072 FFF7FEFF 		bl	CyDelay
 119              	.L4:
  49:.\main.c      **** 		while ( !ETH0_TcpConnected( socket ) ) {
 120              		.loc 1 49 0 discriminator 1
 121 0076 97F88330 		ldrb	r3, [r7, #131]	@ zero_extendqisi2
 122 007a 1846     		mov	r0, r3
 123 007c FFF7FEFF 		bl	ETH0_TcpConnected
 124 0080 0346     		mov	r3, r0
 125 0082 002B     		cmp	r3, #0
 126 0084 F3D0     		beq	.L5
  57:.\main.c      **** 		}
  58:.\main.c      **** 		/*
  59:.\main.c      **** 		 * Send the Logon welcom message to the client.
  60:.\main.c      **** 		 */
  61:.\main.c      **** 		ETH0_TcpPrint(socket,"Welcome to the freeSoC Explorer Board!\r\n");
 127              		.loc 1 61 0
 128 0086 97F88330 		ldrb	r3, [r7, #131]	@ zero_extendqisi2
 129 008a 1846     		mov	r0, r3
 130 008c 40F20001 		movw	r1, #:lower16:.LC0
 131 0090 C0F20001 		movt	r1, #:upper16:.LC0
 132 0094 FFF7FEFF 		bl	ETH0_TcpPrint
  62:.\main.c      **** 		ETH0_TcpPrint(socket,"---------------------------------------------------------------------------
 133              		.loc 1 62 0
 134 0098 97F88330 		ldrb	r3, [r7, #131]	@ zero_extendqisi2
 135 009c 1846     		mov	r0, r3
 136 009e 40F20001 		movw	r1, #:lower16:.LC1
 137 00a2 C0F20001 		movt	r1, #:upper16:.LC1
 138 00a6 FFF7FEFF 		bl	ETH0_TcpPrint
  63:.\main.c      **** 		temp = 0;
 139              		.loc 1 63 0
 140 00aa 4FF00003 		mov	r3, #0
 141 00ae C7F88430 		str	r3, [r7, #132]
  64:.\main.c      **** 		while( ETH0_SocketRxDataWaiting(socket) == 0) {
ARM GAS  C:\Users\CHUCK~1.ERH\AppData\Local\Temp\cc0yBz2d.s 			page 5


 142              		.loc 1 64 0
 143 00b2 4BE0     		b	.L6
 144              	.L13:
  65:.\main.c      **** 			ETH0_TcpPrint(socket, "Please Press a key: ");
 145              		.loc 1 65 0
 146 00b4 97F88330 		ldrb	r3, [r7, #131]	@ zero_extendqisi2
 147 00b8 1846     		mov	r0, r3
 148 00ba 40F20001 		movw	r1, #:lower16:.LC2
 149 00be C0F20001 		movt	r1, #:upper16:.LC2
 150 00c2 FFF7FEFF 		bl	ETH0_TcpPrint
  66:.\main.c      **** 			switch(temp) {
 151              		.loc 1 66 0
 152 00c6 D7F88430 		ldr	r3, [r7, #132]
 153 00ca 032B     		cmp	r3, #3
 154 00cc 32D8     		bhi	.L7
 155 00ce 01A2     		adr	r2, .L12
 156 00d0 52F823F0 		ldr	pc, [r2, r3, lsl #2]
 157              		.align	2
 158              	.L12:
 159 00d4 E5000000 		.word	.L8+1
 160 00d8 F9000000 		.word	.L9+1
 161 00dc 0D010000 		.word	.L10+1
 162 00e0 21010000 		.word	.L11+1
 163              	.L8:
  67:.\main.c      **** 				case 0:
  68:.\main.c      **** 					ETH0_TcpPrint(socket, "\\ \r");
 164              		.loc 1 68 0
 165 00e4 97F88330 		ldrb	r3, [r7, #131]	@ zero_extendqisi2
 166 00e8 1846     		mov	r0, r3
 167 00ea 40F20001 		movw	r1, #:lower16:.LC3
 168 00ee C0F20001 		movt	r1, #:upper16:.LC3
 169 00f2 FFF7FEFF 		bl	ETH0_TcpPrint
  69:.\main.c      **** 					break;
 170              		.loc 1 69 0
 171 00f6 1DE0     		b	.L7
 172              	.L9:
  70:.\main.c      **** 				case 1:
  71:.\main.c      **** 					ETH0_TcpPrint(socket, "|\r");
 173              		.loc 1 71 0
 174 00f8 97F88330 		ldrb	r3, [r7, #131]	@ zero_extendqisi2
 175 00fc 1846     		mov	r0, r3
 176 00fe 40F20001 		movw	r1, #:lower16:.LC4
 177 0102 C0F20001 		movt	r1, #:upper16:.LC4
 178 0106 FFF7FEFF 		bl	ETH0_TcpPrint
  72:.\main.c      **** 					break;
 179              		.loc 1 72 0
 180 010a 13E0     		b	.L7
 181              	.L10:
  73:.\main.c      **** 				case 2:
  74:.\main.c      **** 					ETH0_TcpPrint(socket, "/\r");
 182              		.loc 1 74 0
 183 010c 97F88330 		ldrb	r3, [r7, #131]	@ zero_extendqisi2
 184 0110 1846     		mov	r0, r3
 185 0112 40F20001 		movw	r1, #:lower16:.LC5
 186 0116 C0F20001 		movt	r1, #:upper16:.LC5
 187 011a FFF7FEFF 		bl	ETH0_TcpPrint
  75:.\main.c      **** 					break;
ARM GAS  C:\Users\CHUCK~1.ERH\AppData\Local\Temp\cc0yBz2d.s 			page 6


 188              		.loc 1 75 0
 189 011e 09E0     		b	.L7
 190              	.L11:
  76:.\main.c      **** 				case 3:
  77:.\main.c      **** 					ETH0_TcpPrint(socket, "-\r");
 191              		.loc 1 77 0
 192 0120 97F88330 		ldrb	r3, [r7, #131]	@ zero_extendqisi2
 193 0124 1846     		mov	r0, r3
 194 0126 40F20001 		movw	r1, #:lower16:.LC6
 195 012a C0F20001 		movt	r1, #:upper16:.LC6
 196 012e FFF7FEFF 		bl	ETH0_TcpPrint
  78:.\main.c      **** 					break;
 197              		.loc 1 78 0
 198 0132 00BF     		nop
 199              	.L7:
  79:.\main.c      **** 			}
  80:.\main.c      **** 			temp = (temp + 1) & 3;
 200              		.loc 1 80 0
 201 0134 D7F88430 		ldr	r3, [r7, #132]
 202 0138 03F10103 		add	r3, r3, #1
 203 013c 03F00303 		and	r3, r3, #3
 204 0140 C7F88430 		str	r3, [r7, #132]
  81:.\main.c      **** 			CyDelay(1);
 205              		.loc 1 81 0
 206 0144 4FF00100 		mov	r0, #1
 207 0148 FFF7FEFF 		bl	CyDelay
 208              	.L6:
  64:.\main.c      **** 		while( ETH0_SocketRxDataWaiting(socket) == 0) {
 209              		.loc 1 64 0 discriminator 1
 210 014c 97F88330 		ldrb	r3, [r7, #131]	@ zero_extendqisi2
 211 0150 1846     		mov	r0, r3
 212 0152 FFF7FEFF 		bl	ETH0_SocketRxDataWaiting
 213 0156 0346     		mov	r3, r0
 214 0158 002B     		cmp	r3, #0
 215 015a ABD0     		beq	.L13
  82:.\main.c      **** 		}
  83:.\main.c      **** 		ETH0_TcpPrint(socket,"\r\nThank You! :-) ");
 216              		.loc 1 83 0
 217 015c 97F88330 		ldrb	r3, [r7, #131]	@ zero_extendqisi2
 218 0160 1846     		mov	r0, r3
 219 0162 40F20001 		movw	r1, #:lower16:.LC7
 220 0166 C0F20001 		movt	r1, #:upper16:.LC7
 221 016a FFF7FEFF 		bl	ETH0_TcpPrint
  84:.\main.c      **** 		length = ETH0_TcpReceive(socket,(uint8*)&buffer[0],128);
 222              		.loc 1 84 0
 223 016e 97F88320 		ldrb	r2, [r7, #131]	@ zero_extendqisi2
 224 0172 3B46     		mov	r3, r7
 225 0174 1046     		mov	r0, r2
 226 0176 1946     		mov	r1, r3
 227 0178 4FF08002 		mov	r2, #128
 228 017c FFF7FEFF 		bl	ETH0_TcpReceive
 229 0180 0346     		mov	r3, r0
 230 0182 A7F88030 		strh	r3, [r7, #128]	@ movhi
  85:.\main.c      **** 		ETH0_TcpSend(socket,(uint8*)&buffer[0],length);
 231              		.loc 1 85 0
 232 0186 97F88310 		ldrb	r1, [r7, #131]	@ zero_extendqisi2
 233 018a 3A46     		mov	r2, r7
ARM GAS  C:\Users\CHUCK~1.ERH\AppData\Local\Temp\cc0yBz2d.s 			page 7


 234 018c B7F88030 		ldrh	r3, [r7, #128]
 235 0190 0846     		mov	r0, r1
 236 0192 1146     		mov	r1, r2
 237 0194 1A46     		mov	r2, r3
 238 0196 FFF7FEFF 		bl	ETH0_TcpSend
  86:.\main.c      **** 		
  87:.\main.c      **** 		/* pavloven test: TcpSend() of 2000 bytes */
  88:.\main.c      **** 		/* set I/O pin low for timing */
  89:.\main.c      **** 		SDCS_Write(0);
 239              		.loc 1 89 0
 240 019a 4FF00000 		mov	r0, #0
 241 019e FFF7FEFF 		bl	SDCS_Write
  90:.\main.c      **** 		/* Transmit 2000 bytes through the driver to the host */
  91:.\main.c      **** 		ETH0_TcpSend(socket,(uint8*)&randomData[0], 2000);
 242              		.loc 1 91 0
 243 01a2 97F88330 		ldrb	r3, [r7, #131]	@ zero_extendqisi2
 244 01a6 1846     		mov	r0, r3
 245 01a8 40F20001 		movw	r1, #:lower16:randomData
 246 01ac C0F20001 		movt	r1, #:upper16:randomData
 247 01b0 4FF4FA62 		mov	r2, #2000
 248 01b4 FFF7FEFF 		bl	ETH0_TcpSend
  92:.\main.c      **** 		/* Set I/O pin high for measuring time */
  93:.\main.c      **** 		SDCS_Write(1);
 249              		.loc 1 93 0
 250 01b8 4FF00100 		mov	r0, #1
 251 01bc FFF7FEFF 		bl	SDCS_Write
  94:.\main.c      **** 		/* end test : measured time TBD ms (Effective Data Rate: TBD bps) */
  95:.\main.c      **** 		
  96:.\main.c      **** 		ETH0_TcpDisconnect( socket );
 252              		.loc 1 96 0
 253 01c0 97F88330 		ldrb	r3, [r7, #131]	@ zero_extendqisi2
 254 01c4 1846     		mov	r0, r3
 255 01c6 FFF7FEFF 		bl	ETH0_TcpDisconnect
  97:.\main.c      **** 		ETH0_SocketClose( socket );
 256              		.loc 1 97 0
 257 01ca 97F88330 		ldrb	r3, [r7, #131]	@ zero_extendqisi2
 258 01ce 1846     		mov	r0, r3
 259 01d0 FFF7FEFF 		bl	ETH0_SocketClose
  98:.\main.c      **** 		CyDelay(10);
 260              		.loc 1 98 0
 261 01d4 4FF00A00 		mov	r0, #10
 262 01d8 FFF7FEFF 		bl	CyDelay
  99:.\main.c      ****     }
 263              		.loc 1 99 0
 264 01dc 3AE7     		b	.L14
 265              		.cfi_endproc
 266              	.LFE56:
 267              		.size	main, .-main
 268 01de 00BF     		.text
 269              	.Letext0:
 270              		.file 2 "c:\\program files (x86)\\cypress\\psoc creator\\3.0\\psoc creator\\import\\gnu_cs\\arm\\4
 271              		.file 3 "./Generated_Source/PSoC5/cytypes.h"
 272              		.file 4 "./Generated_Source/PSoC5/core_cm3.h"