ARM GAS  C:\Users\CHUCK~1.ERH\AppData\Local\Temp\cc2YgX1C.s 			page 1


   1              		.cpu cortex-m0
   2              		.fpu softvfp
   3              		.eabi_attribute 20, 1
   4              		.eabi_attribute 21, 1
   5              		.eabi_attribute 23, 3
   6              		.eabi_attribute 24, 1
   7              		.eabi_attribute 25, 1
   8              		.eabi_attribute 26, 1
   9              		.eabi_attribute 30, 6
  10              		.eabi_attribute 34, 0
  11              		.eabi_attribute 18, 4
  12              		.code	16
  13              		.file	"LED1.c"
  14              		.text
  15              	.Ltext0:
  16              		.cfi_sections	.debug_frame
  17              		.global	LED1_initVar
  18              		.bss
  19              		.type	LED1_initVar, %object
  20              		.size	LED1_initVar, 1
  21              	LED1_initVar:
  22 0000 00       		.space	1
  23              		.section	.text.LED1_Start,"ax",%progbits
  24              		.align	2
  25              		.global	LED1_Start
  26              		.code	16
  27              		.thumb_func
  28              		.type	LED1_Start, %function
  29              	LED1_Start:
  30              	.LFB0:
  31              		.file 1 ".\\Generated_Source\\PSoC4\\LED1.c"
   1:.\Generated_Source\PSoC4/LED1.c **** /*******************************************************************************
   2:.\Generated_Source\PSoC4/LED1.c **** * File Name: LED1.c
   3:.\Generated_Source\PSoC4/LED1.c **** * Version 2.20
   4:.\Generated_Source\PSoC4/LED1.c **** *
   5:.\Generated_Source\PSoC4/LED1.c **** * Description:
   6:.\Generated_Source\PSoC4/LED1.c **** *  This file provides the source code of the API for the PrISM Component.
   7:.\Generated_Source\PSoC4/LED1.c **** *
   8:.\Generated_Source\PSoC4/LED1.c **** * Note:
   9:.\Generated_Source\PSoC4/LED1.c **** *  The PRiSM Component consists of a 8, 16, 24, 32 - bit PrISM, it
  10:.\Generated_Source\PSoC4/LED1.c **** *  depends on length Polynomial value and user selected Seed Value. 
  11:.\Generated_Source\PSoC4/LED1.c **** *
  12:.\Generated_Source\PSoC4/LED1.c **** ********************************************************************************
  13:.\Generated_Source\PSoC4/LED1.c **** * Copyright 2008-2012, Cypress Semiconductor Corporation.  All rights reserved.
  14:.\Generated_Source\PSoC4/LED1.c **** * You may use this file only in accordance with the license, terms, conditions, 
  15:.\Generated_Source\PSoC4/LED1.c **** * disclaimers, and limitations in the end user license agreement accompanying 
  16:.\Generated_Source\PSoC4/LED1.c **** * the software package with which this file was provided.
  17:.\Generated_Source\PSoC4/LED1.c **** *******************************************************************************/
  18:.\Generated_Source\PSoC4/LED1.c **** 
  19:.\Generated_Source\PSoC4/LED1.c **** #include "LED1.h"
  20:.\Generated_Source\PSoC4/LED1.c **** 
  21:.\Generated_Source\PSoC4/LED1.c **** 
  22:.\Generated_Source\PSoC4/LED1.c **** /***************************************
  23:.\Generated_Source\PSoC4/LED1.c **** * Local data allocation
  24:.\Generated_Source\PSoC4/LED1.c **** ***************************************/
  25:.\Generated_Source\PSoC4/LED1.c **** 
  26:.\Generated_Source\PSoC4/LED1.c **** uint8 LED1_initVar = 0u;
ARM GAS  C:\Users\CHUCK~1.ERH\AppData\Local\Temp\cc2YgX1C.s 			page 2


  27:.\Generated_Source\PSoC4/LED1.c **** 
  28:.\Generated_Source\PSoC4/LED1.c **** 
  29:.\Generated_Source\PSoC4/LED1.c **** /*******************************************************************************
  30:.\Generated_Source\PSoC4/LED1.c **** * FUNCTION NAME:   LED1_Start
  31:.\Generated_Source\PSoC4/LED1.c **** ********************************************************************************
  32:.\Generated_Source\PSoC4/LED1.c **** *
  33:.\Generated_Source\PSoC4/LED1.c **** * Summary:
  34:.\Generated_Source\PSoC4/LED1.c **** *  The start function sets Polynomial, Seed and Pulse Density registers provided
  35:.\Generated_Source\PSoC4/LED1.c **** *  by customizer. PrISM computation starts on rising edge of input clock.
  36:.\Generated_Source\PSoC4/LED1.c **** *
  37:.\Generated_Source\PSoC4/LED1.c **** * Parameters:  
  38:.\Generated_Source\PSoC4/LED1.c **** *  None.
  39:.\Generated_Source\PSoC4/LED1.c **** *
  40:.\Generated_Source\PSoC4/LED1.c **** * Return:  
  41:.\Generated_Source\PSoC4/LED1.c **** *  None.
  42:.\Generated_Source\PSoC4/LED1.c **** *
  43:.\Generated_Source\PSoC4/LED1.c **** * Global variables:
  44:.\Generated_Source\PSoC4/LED1.c **** *  The LED1_initVar variable is used to indicate initial
  45:.\Generated_Source\PSoC4/LED1.c **** *  configuration of this component.  The variable is initialized to zero and
  46:.\Generated_Source\PSoC4/LED1.c **** *  set to 1 the first time LED1_Start() is called. This allows for
  47:.\Generated_Source\PSoC4/LED1.c **** *  component initialization without re-initialization in all subsequent calls
  48:.\Generated_Source\PSoC4/LED1.c **** *  to the LED1_Start() routine. 
  49:.\Generated_Source\PSoC4/LED1.c **** 
  50:.\Generated_Source\PSoC4/LED1.c **** * Reentrant:
  51:.\Generated_Source\PSoC4/LED1.c **** *  No.
  52:.\Generated_Source\PSoC4/LED1.c **** *
  53:.\Generated_Source\PSoC4/LED1.c **** *******************************************************************************/
  54:.\Generated_Source\PSoC4/LED1.c **** void LED1_Start(void) 
  55:.\Generated_Source\PSoC4/LED1.c **** {
  32              		.loc 1 55 0
  33              		.cfi_startproc
  34 0000 80B5     		push	{r7, lr}
  35              	.LCFI0:
  36              		.cfi_def_cfa_offset 8
  37              		.cfi_offset 7, -8
  38              		.cfi_offset 14, -4
  39 0002 00AF     		add	r7, sp, #0
  40              	.LCFI1:
  41              		.cfi_def_cfa_register 7
  56:.\Generated_Source\PSoC4/LED1.c ****     /* If not Initialized then initialize all required hardware and software */
  57:.\Generated_Source\PSoC4/LED1.c ****     if(LED1_initVar == 0u)
  42              		.loc 1 57 0
  43 0004 064B     		ldr	r3, .L3
  44 0006 1B78     		ldrb	r3, [r3]
  45 0008 002B     		cmp	r3, #0
  46 000a 04D1     		bne	.L2
  58:.\Generated_Source\PSoC4/LED1.c ****     {
  59:.\Generated_Source\PSoC4/LED1.c ****         LED1_Init();
  47              		.loc 1 59 0
  48 000c FFF7FEFF 		bl	LED1_Init
  60:.\Generated_Source\PSoC4/LED1.c ****         LED1_initVar = 1u;
  49              		.loc 1 60 0
  50 0010 034B     		ldr	r3, .L3
  51 0012 0122     		mov	r2, #1
  52 0014 1A70     		strb	r2, [r3]
  53              	.L2:
  61:.\Generated_Source\PSoC4/LED1.c ****     }
ARM GAS  C:\Users\CHUCK~1.ERH\AppData\Local\Temp\cc2YgX1C.s 			page 3


  62:.\Generated_Source\PSoC4/LED1.c ****     LED1_Enable();
  54              		.loc 1 62 0
  55 0016 FFF7FEFF 		bl	LED1_Enable
  63:.\Generated_Source\PSoC4/LED1.c **** }
  56              		.loc 1 63 0
  57 001a BD46     		mov	sp, r7
  58              		@ sp needed for prologue
  59 001c 80BD     		pop	{r7, pc}
  60              	.L4:
  61 001e C046     		.align	2
  62              	.L3:
  63 0020 00000000 		.word	LED1_initVar
  64              		.cfi_endproc
  65              	.LFE0:
  66              		.size	LED1_Start, .-LED1_Start
  67              		.section	.text.LED1_Init,"ax",%progbits
  68              		.align	2
  69              		.global	LED1_Init
  70              		.code	16
  71              		.thumb_func
  72              		.type	LED1_Init, %function
  73              	LED1_Init:
  74              	.LFB1:
  64:.\Generated_Source\PSoC4/LED1.c **** 
  65:.\Generated_Source\PSoC4/LED1.c **** 
  66:.\Generated_Source\PSoC4/LED1.c **** /*******************************************************************************
  67:.\Generated_Source\PSoC4/LED1.c **** * Function Name: LED1_Init
  68:.\Generated_Source\PSoC4/LED1.c **** ********************************************************************************
  69:.\Generated_Source\PSoC4/LED1.c **** *
  70:.\Generated_Source\PSoC4/LED1.c **** * Summary:
  71:.\Generated_Source\PSoC4/LED1.c **** *  Initialize component's parameters to the parameters set by user in the 
  72:.\Generated_Source\PSoC4/LED1.c **** *  customizer of the component placed onto schematic. Usually called in 
  73:.\Generated_Source\PSoC4/LED1.c **** *  LED1_Start().
  74:.\Generated_Source\PSoC4/LED1.c **** *
  75:.\Generated_Source\PSoC4/LED1.c **** * Parameters:  
  76:.\Generated_Source\PSoC4/LED1.c **** *  None.
  77:.\Generated_Source\PSoC4/LED1.c **** *
  78:.\Generated_Source\PSoC4/LED1.c **** * Return: 
  79:.\Generated_Source\PSoC4/LED1.c **** *  None.
  80:.\Generated_Source\PSoC4/LED1.c **** *
  81:.\Generated_Source\PSoC4/LED1.c **** *******************************************************************************/
  82:.\Generated_Source\PSoC4/LED1.c **** void LED1_Init(void) 
  83:.\Generated_Source\PSoC4/LED1.c **** {
  75              		.loc 1 83 0
  76              		.cfi_startproc
  77 0000 90B5     		push	{r4, r7, lr}
  78              	.LCFI2:
  79              		.cfi_def_cfa_offset 12
  80              		.cfi_offset 4, -12
  81              		.cfi_offset 7, -8
  82              		.cfi_offset 14, -4
  83 0002 83B0     		sub	sp, sp, #12
  84              	.LCFI3:
  85              		.cfi_def_cfa_offset 24
  86 0004 00AF     		add	r7, sp, #0
  87              	.LCFI4:
  88              		.cfi_def_cfa_register 7
ARM GAS  C:\Users\CHUCK~1.ERH\AppData\Local\Temp\cc2YgX1C.s 			page 4


  84:.\Generated_Source\PSoC4/LED1.c ****     uint8 enableInterrupts;
  85:.\Generated_Source\PSoC4/LED1.c ****     
  86:.\Generated_Source\PSoC4/LED1.c ****     /* Writes Seed value, polynom value and density provided by customizer */
  87:.\Generated_Source\PSoC4/LED1.c ****     LED1_WriteSeed(LED1_SEED);
  89              		.loc 1 87 0
  90 0006 FF20     		mov	r0, #255
  91 0008 FFF7FEFF 		bl	LED1_WriteSeed
  88:.\Generated_Source\PSoC4/LED1.c ****     LED1_WritePolynomial(LED1_POLYNOM);
  92              		.loc 1 88 0
  93 000c B820     		mov	r0, #184
  94 000e FFF7FEFF 		bl	LED1_WritePolynomial
  89:.\Generated_Source\PSoC4/LED1.c ****     LED1_WritePulse0(LED1_DENSITY0);
  95              		.loc 1 89 0
  96 0012 0120     		mov	r0, #1
  97 0014 FFF7FEFF 		bl	LED1_WritePulse0
  90:.\Generated_Source\PSoC4/LED1.c ****     LED1_WritePulse1(LED1_DENSITY1);
  98              		.loc 1 90 0
  99 0018 0120     		mov	r0, #1
 100 001a FFF7FEFF 		bl	LED1_WritePulse1
  91:.\Generated_Source\PSoC4/LED1.c ****     
  92:.\Generated_Source\PSoC4/LED1.c ****     enableInterrupts = CyEnterCriticalSection();
 101              		.loc 1 92 0
 102 001e FC1D     		add	r4, r7, #7
 103 0020 FFF7FEFF 		bl	CyEnterCriticalSection
 104 0024 031C     		mov	r3, r0
 105 0026 2370     		strb	r3, [r4]
  93:.\Generated_Source\PSoC4/LED1.c ****     /* Set FIFO0_CLR bit to use FIFO0 as a simple one-byte buffer*/
  94:.\Generated_Source\PSoC4/LED1.c ****     CY_SET_REG8(LED1_AUX_CONTROL_PTR, 
 106              		.loc 1 94 0
 107 0028 0F4B     		ldr	r3, .L6
 108 002a 0F4A     		ldr	r2, .L6
 109 002c 1278     		ldrb	r2, [r2]
 110 002e D2B2     		uxtb	r2, r2
 111 0030 0121     		mov	r1, #1
 112 0032 0A43     		orr	r2, r1
 113 0034 D2B2     		uxtb	r2, r2
 114 0036 1A70     		strb	r2, [r3]
  95:.\Generated_Source\PSoC4/LED1.c ****                         CY_GET_REG8(LED1_AUX_CONTROL_PTR) | LED1_FIFO0_CLR);
  96:.\Generated_Source\PSoC4/LED1.c ****     CyExitCriticalSection(enableInterrupts);
 115              		.loc 1 96 0
 116 0038 FB1D     		add	r3, r7, #7
 117 003a 1B78     		ldrb	r3, [r3]
 118 003c 181C     		mov	r0, r3
 119 003e FFF7FEFF 		bl	CyExitCriticalSection
  97:.\Generated_Source\PSoC4/LED1.c ****     
  98:.\Generated_Source\PSoC4/LED1.c ****     #if(!LED1_PULSE_TYPE_HARDCODED)
  99:.\Generated_Source\PSoC4/LED1.c ****         /* Writes density type provided by customizer */
 100:.\Generated_Source\PSoC4/LED1.c ****         #if(LED1_GREATERTHAN_OR_EQUAL == LED1_COMPARE0)
 101:.\Generated_Source\PSoC4/LED1.c ****             LED1_CONTROL_REG |= LED1_CTRL_COMPARE_TYPE0_GREATER_THAN_OR_EQUAL;
 102:.\Generated_Source\PSoC4/LED1.c ****         #else
 103:.\Generated_Source\PSoC4/LED1.c ****             LED1_CONTROL_REG &= (uint8)~LED1_CTRL_COMPARE_TYPE0_GREATER_THAN_OR_EQUAL;
 120              		.loc 1 103 0
 121 0042 0A4B     		ldr	r3, .L6+4
 122 0044 094A     		ldr	r2, .L6+4
 123 0046 1278     		ldrb	r2, [r2]
 124 0048 D2B2     		uxtb	r2, r2
 125 004a 0221     		mov	r1, #2
ARM GAS  C:\Users\CHUCK~1.ERH\AppData\Local\Temp\cc2YgX1C.s 			page 5


 126 004c 8A43     		bic	r2, r1
 127 004e D2B2     		uxtb	r2, r2
 128 0050 1A70     		strb	r2, [r3]
 104:.\Generated_Source\PSoC4/LED1.c ****         #endif /* End LED1_COMPARE0 */    
 105:.\Generated_Source\PSoC4/LED1.c ****     
 106:.\Generated_Source\PSoC4/LED1.c ****         #if(LED1_GREATERTHAN_OR_EQUAL == LED1_COMPARE1)
 107:.\Generated_Source\PSoC4/LED1.c ****             LED1_CONTROL_REG |= LED1_CTRL_COMPARE_TYPE1_GREATER_THAN_OR_EQUAL;
 108:.\Generated_Source\PSoC4/LED1.c ****         #else
 109:.\Generated_Source\PSoC4/LED1.c ****             LED1_CONTROL_REG &= (uint8)~LED1_CTRL_COMPARE_TYPE1_GREATER_THAN_OR_EQUAL;
 129              		.loc 1 109 0
 130 0052 064B     		ldr	r3, .L6+4
 131 0054 054A     		ldr	r2, .L6+4
 132 0056 1278     		ldrb	r2, [r2]
 133 0058 D2B2     		uxtb	r2, r2
 134 005a 0421     		mov	r1, #4
 135 005c 8A43     		bic	r2, r1
 136 005e D2B2     		uxtb	r2, r2
 137 0060 1A70     		strb	r2, [r3]
 110:.\Generated_Source\PSoC4/LED1.c ****         #endif /* End LED1_COMPARE1 */    
 111:.\Generated_Source\PSoC4/LED1.c ****     #endif /* End LED1_PULSE_TYPE_HARDCODED */
 112:.\Generated_Source\PSoC4/LED1.c **** }
 138              		.loc 1 112 0
 139 0062 BD46     		mov	sp, r7
 140 0064 03B0     		add	sp, sp, #12
 141              		@ sp needed for prologue
 142 0066 90BD     		pop	{r4, r7, pc}
 143              	.L7:
 144              		.align	2
 145              	.L6:
 146 0068 92000F40 		.word	1074725010
 147 006c 72000F40 		.word	1074724978
 148              		.cfi_endproc
 149              	.LFE1:
 150              		.size	LED1_Init, .-LED1_Init
 151              		.section	.text.LED1_Enable,"ax",%progbits
 152              		.align	2
 153              		.global	LED1_Enable
 154              		.code	16
 155              		.thumb_func
 156              		.type	LED1_Enable, %function
 157              	LED1_Enable:
 158              	.LFB2:
 113:.\Generated_Source\PSoC4/LED1.c **** 
 114:.\Generated_Source\PSoC4/LED1.c **** 
 115:.\Generated_Source\PSoC4/LED1.c **** /*******************************************************************************
 116:.\Generated_Source\PSoC4/LED1.c **** * Function Name: LED1_Enable
 117:.\Generated_Source\PSoC4/LED1.c **** ********************************************************************************
 118:.\Generated_Source\PSoC4/LED1.c **** *  
 119:.\Generated_Source\PSoC4/LED1.c **** * Summary: 
 120:.\Generated_Source\PSoC4/LED1.c **** *  Enables the PrISM block operation
 121:.\Generated_Source\PSoC4/LED1.c **** *
 122:.\Generated_Source\PSoC4/LED1.c **** * Parameters:  
 123:.\Generated_Source\PSoC4/LED1.c **** *  None.
 124:.\Generated_Source\PSoC4/LED1.c **** *
 125:.\Generated_Source\PSoC4/LED1.c **** * Return: 
 126:.\Generated_Source\PSoC4/LED1.c **** *  None.
 127:.\Generated_Source\PSoC4/LED1.c **** *
ARM GAS  C:\Users\CHUCK~1.ERH\AppData\Local\Temp\cc2YgX1C.s 			page 6


 128:.\Generated_Source\PSoC4/LED1.c **** *******************************************************************************/
 129:.\Generated_Source\PSoC4/LED1.c **** void LED1_Enable(void) 
 130:.\Generated_Source\PSoC4/LED1.c **** {
 159              		.loc 1 130 0
 160              		.cfi_startproc
 161 0000 80B5     		push	{r7, lr}
 162              	.LCFI5:
 163              		.cfi_def_cfa_offset 8
 164              		.cfi_offset 7, -8
 165              		.cfi_offset 14, -4
 166 0002 00AF     		add	r7, sp, #0
 167              	.LCFI6:
 168              		.cfi_def_cfa_register 7
 131:.\Generated_Source\PSoC4/LED1.c ****     #if(!LED1_PULSE_TYPE_HARDCODED)
 132:.\Generated_Source\PSoC4/LED1.c ****         /* Enable the PrISM computation */
 133:.\Generated_Source\PSoC4/LED1.c ****         LED1_CONTROL_REG |= LED1_CTRL_ENABLE;
 169              		.loc 1 133 0
 170 0004 044B     		ldr	r3, .L9
 171 0006 044A     		ldr	r2, .L9
 172 0008 1278     		ldrb	r2, [r2]
 173 000a D2B2     		uxtb	r2, r2
 174 000c 0121     		mov	r1, #1
 175 000e 0A43     		orr	r2, r1
 176 0010 D2B2     		uxtb	r2, r2
 177 0012 1A70     		strb	r2, [r3]
 134:.\Generated_Source\PSoC4/LED1.c ****     #endif /* End LED1_PULSE_TYPE_HARDCODED */
 135:.\Generated_Source\PSoC4/LED1.c **** }
 178              		.loc 1 135 0
 179 0014 BD46     		mov	sp, r7
 180              		@ sp needed for prologue
 181 0016 80BD     		pop	{r7, pc}
 182              	.L10:
 183              		.align	2
 184              	.L9:
 185 0018 72000F40 		.word	1074724978
 186              		.cfi_endproc
 187              	.LFE2:
 188              		.size	LED1_Enable, .-LED1_Enable
 189              		.section	.text.LED1_Stop,"ax",%progbits
 190              		.align	2
 191              		.global	LED1_Stop
 192              		.code	16
 193              		.thumb_func
 194              		.type	LED1_Stop, %function
 195              	LED1_Stop:
 196              	.LFB3:
 136:.\Generated_Source\PSoC4/LED1.c **** 
 137:.\Generated_Source\PSoC4/LED1.c **** 
 138:.\Generated_Source\PSoC4/LED1.c **** /*******************************************************************************
 139:.\Generated_Source\PSoC4/LED1.c **** * FUNCTION NAME:   LED1_Stop
 140:.\Generated_Source\PSoC4/LED1.c **** ********************************************************************************
 141:.\Generated_Source\PSoC4/LED1.c **** *
 142:.\Generated_Source\PSoC4/LED1.c **** * Summary:
 143:.\Generated_Source\PSoC4/LED1.c **** *  Stops PrISM computation. Outputs remain constant.
 144:.\Generated_Source\PSoC4/LED1.c **** *
 145:.\Generated_Source\PSoC4/LED1.c **** * Parameters:  
 146:.\Generated_Source\PSoC4/LED1.c **** *  None.
ARM GAS  C:\Users\CHUCK~1.ERH\AppData\Local\Temp\cc2YgX1C.s 			page 7


 147:.\Generated_Source\PSoC4/LED1.c **** *
 148:.\Generated_Source\PSoC4/LED1.c **** * Return: 
 149:.\Generated_Source\PSoC4/LED1.c **** *  None.
 150:.\Generated_Source\PSoC4/LED1.c **** *
 151:.\Generated_Source\PSoC4/LED1.c **** *******************************************************************************/
 152:.\Generated_Source\PSoC4/LED1.c **** void LED1_Stop(void) 
 153:.\Generated_Source\PSoC4/LED1.c **** {
 197              		.loc 1 153 0
 198              		.cfi_startproc
 199 0000 80B5     		push	{r7, lr}
 200              	.LCFI7:
 201              		.cfi_def_cfa_offset 8
 202              		.cfi_offset 7, -8
 203              		.cfi_offset 14, -4
 204 0002 00AF     		add	r7, sp, #0
 205              	.LCFI8:
 206              		.cfi_def_cfa_register 7
 154:.\Generated_Source\PSoC4/LED1.c ****     #if(!LED1_PULSE_TYPE_HARDCODED)
 155:.\Generated_Source\PSoC4/LED1.c ****         LED1_CONTROL_REG &= (uint8)~LED1_CTRL_ENABLE;
 207              		.loc 1 155 0
 208 0004 044B     		ldr	r3, .L12
 209 0006 044A     		ldr	r2, .L12
 210 0008 1278     		ldrb	r2, [r2]
 211 000a D2B2     		uxtb	r2, r2
 212 000c 0121     		mov	r1, #1
 213 000e 8A43     		bic	r2, r1
 214 0010 D2B2     		uxtb	r2, r2
 215 0012 1A70     		strb	r2, [r3]
 156:.\Generated_Source\PSoC4/LED1.c ****     #else
 157:.\Generated_Source\PSoC4/LED1.c ****         /* PulseTypeHardoded option enabled - to stop PrISM use enable input */
 158:.\Generated_Source\PSoC4/LED1.c ****     #endif /* End $INSTANCE_NAME`_PULSE_TYPE_HARDCODED */
 159:.\Generated_Source\PSoC4/LED1.c **** }
 216              		.loc 1 159 0
 217 0014 BD46     		mov	sp, r7
 218              		@ sp needed for prologue
 219 0016 80BD     		pop	{r7, pc}
 220              	.L13:
 221              		.align	2
 222              	.L12:
 223 0018 72000F40 		.word	1074724978
 224              		.cfi_endproc
 225              	.LFE3:
 226              		.size	LED1_Stop, .-LED1_Stop
 227              		.section	.text.LED1_SetPulse0Mode,"ax",%progbits
 228              		.align	2
 229              		.global	LED1_SetPulse0Mode
 230              		.code	16
 231              		.thumb_func
 232              		.type	LED1_SetPulse0Mode, %function
 233              	LED1_SetPulse0Mode:
 234              	.LFB4:
 160:.\Generated_Source\PSoC4/LED1.c **** 
 161:.\Generated_Source\PSoC4/LED1.c **** #if(!LED1_PULSE_TYPE_HARDCODED)
 162:.\Generated_Source\PSoC4/LED1.c **** 
 163:.\Generated_Source\PSoC4/LED1.c **** 
 164:.\Generated_Source\PSoC4/LED1.c ****     /***************************************************************************
 165:.\Generated_Source\PSoC4/LED1.c ****     * FUNCTION NAME:     LED1_SetPulse0Mode
ARM GAS  C:\Users\CHUCK~1.ERH\AppData\Local\Temp\cc2YgX1C.s 			page 8


 166:.\Generated_Source\PSoC4/LED1.c ****     ****************************************************************************
 167:.\Generated_Source\PSoC4/LED1.c ****     *
 168:.\Generated_Source\PSoC4/LED1.c ****     * Summary:
 169:.\Generated_Source\PSoC4/LED1.c ****     *  Sets the pulse density type for Density0. Less than or Equal(<=) or 
 170:.\Generated_Source\PSoC4/LED1.c ****     *  Greater than or Equal(>=).
 171:.\Generated_Source\PSoC4/LED1.c ****     *
 172:.\Generated_Source\PSoC4/LED1.c ****     * Parameters:
 173:.\Generated_Source\PSoC4/LED1.c ****     *  pulse0Type: Selected pulse density type.
 174:.\Generated_Source\PSoC4/LED1.c ****     *
 175:.\Generated_Source\PSoC4/LED1.c ****     * Return:
 176:.\Generated_Source\PSoC4/LED1.c ****     *  None.
 177:.\Generated_Source\PSoC4/LED1.c ****     *
 178:.\Generated_Source\PSoC4/LED1.c ****     ***************************************************************************/
 179:.\Generated_Source\PSoC4/LED1.c ****     void LED1_SetPulse0Mode(uint8 pulse0Type) 
 180:.\Generated_Source\PSoC4/LED1.c ****     {
 235              		.loc 1 180 0
 236              		.cfi_startproc
 237 0000 80B5     		push	{r7, lr}
 238              	.LCFI9:
 239              		.cfi_def_cfa_offset 8
 240              		.cfi_offset 7, -8
 241              		.cfi_offset 14, -4
 242 0002 82B0     		sub	sp, sp, #8
 243              	.LCFI10:
 244              		.cfi_def_cfa_offset 16
 245 0004 00AF     		add	r7, sp, #0
 246              	.LCFI11:
 247              		.cfi_def_cfa_register 7
 248 0006 021C     		mov	r2, r0
 249 0008 FB1D     		add	r3, r7, #7
 250 000a 1A70     		strb	r2, [r3]
 181:.\Generated_Source\PSoC4/LED1.c ****         if(pulse0Type == LED1_GREATERTHAN_OR_EQUAL)
 251              		.loc 1 181 0
 252 000c FB1D     		add	r3, r7, #7
 253 000e 1B78     		ldrb	r3, [r3]
 254 0010 012B     		cmp	r3, #1
 255 0012 08D1     		bne	.L15
 182:.\Generated_Source\PSoC4/LED1.c ****         {
 183:.\Generated_Source\PSoC4/LED1.c ****             LED1_CONTROL_REG |= LED1_CTRL_COMPARE_TYPE0_GREATER_THAN_OR_EQUAL;
 256              		.loc 1 183 0
 257 0014 094B     		ldr	r3, .L17
 258 0016 094A     		ldr	r2, .L17
 259 0018 1278     		ldrb	r2, [r2]
 260 001a D2B2     		uxtb	r2, r2
 261 001c 0221     		mov	r1, #2
 262 001e 0A43     		orr	r2, r1
 263 0020 D2B2     		uxtb	r2, r2
 264 0022 1A70     		strb	r2, [r3]
 265 0024 07E0     		b	.L14
 266              	.L15:
 184:.\Generated_Source\PSoC4/LED1.c ****         }
 185:.\Generated_Source\PSoC4/LED1.c ****         else
 186:.\Generated_Source\PSoC4/LED1.c ****         {
 187:.\Generated_Source\PSoC4/LED1.c ****             LED1_CONTROL_REG &= (uint8)~LED1_CTRL_COMPARE_TYPE0_GREATER_THAN_OR_EQUAL;
 267              		.loc 1 187 0
 268 0026 054B     		ldr	r3, .L17
 269 0028 044A     		ldr	r2, .L17
ARM GAS  C:\Users\CHUCK~1.ERH\AppData\Local\Temp\cc2YgX1C.s 			page 9


 270 002a 1278     		ldrb	r2, [r2]
 271 002c D2B2     		uxtb	r2, r2
 272 002e 0221     		mov	r1, #2
 273 0030 8A43     		bic	r2, r1
 274 0032 D2B2     		uxtb	r2, r2
 275 0034 1A70     		strb	r2, [r3]
 276              	.L14:
 188:.\Generated_Source\PSoC4/LED1.c ****         }
 189:.\Generated_Source\PSoC4/LED1.c ****     }
 277              		.loc 1 189 0
 278 0036 BD46     		mov	sp, r7
 279 0038 02B0     		add	sp, sp, #8
 280              		@ sp needed for prologue
 281 003a 80BD     		pop	{r7, pc}
 282              	.L18:
 283              		.align	2
 284              	.L17:
 285 003c 72000F40 		.word	1074724978
 286              		.cfi_endproc
 287              	.LFE4:
 288              		.size	LED1_SetPulse0Mode, .-LED1_SetPulse0Mode
 289              		.section	.text.LED1_SetPulse1Mode,"ax",%progbits
 290              		.align	2
 291              		.global	LED1_SetPulse1Mode
 292              		.code	16
 293              		.thumb_func
 294              		.type	LED1_SetPulse1Mode, %function
 295              	LED1_SetPulse1Mode:
 296              	.LFB5:
 190:.\Generated_Source\PSoC4/LED1.c ****     
 191:.\Generated_Source\PSoC4/LED1.c ****     
 192:.\Generated_Source\PSoC4/LED1.c ****     /***************************************************************************
 193:.\Generated_Source\PSoC4/LED1.c ****     * FUNCTION NAME:   LED1_SetPulse1Mode
 194:.\Generated_Source\PSoC4/LED1.c ****     ****************************************************************************
 195:.\Generated_Source\PSoC4/LED1.c ****     *
 196:.\Generated_Source\PSoC4/LED1.c ****     * Summary:
 197:.\Generated_Source\PSoC4/LED1.c ****     *  Sets the pulse density type for Density1. Less than or Equal(<=) or 
 198:.\Generated_Source\PSoC4/LED1.c ****     *  Greater than or Equal(>=).
 199:.\Generated_Source\PSoC4/LED1.c ****     *
 200:.\Generated_Source\PSoC4/LED1.c ****     * Parameters:  
 201:.\Generated_Source\PSoC4/LED1.c ****     *  pulse1Type: Selected pulse density type.
 202:.\Generated_Source\PSoC4/LED1.c ****     *
 203:.\Generated_Source\PSoC4/LED1.c ****     * Return:
 204:.\Generated_Source\PSoC4/LED1.c ****     *  None.
 205:.\Generated_Source\PSoC4/LED1.c ****     *
 206:.\Generated_Source\PSoC4/LED1.c ****     ***************************************************************************/
 207:.\Generated_Source\PSoC4/LED1.c ****     void LED1_SetPulse1Mode(uint8 pulse1Type) 
 208:.\Generated_Source\PSoC4/LED1.c ****     {
 297              		.loc 1 208 0
 298              		.cfi_startproc
 299 0000 80B5     		push	{r7, lr}
 300              	.LCFI12:
 301              		.cfi_def_cfa_offset 8
 302              		.cfi_offset 7, -8
 303              		.cfi_offset 14, -4
 304 0002 82B0     		sub	sp, sp, #8
 305              	.LCFI13:
ARM GAS  C:\Users\CHUCK~1.ERH\AppData\Local\Temp\cc2YgX1C.s 			page 10


 306              		.cfi_def_cfa_offset 16
 307 0004 00AF     		add	r7, sp, #0
 308              	.LCFI14:
 309              		.cfi_def_cfa_register 7
 310 0006 021C     		mov	r2, r0
 311 0008 FB1D     		add	r3, r7, #7
 312 000a 1A70     		strb	r2, [r3]
 209:.\Generated_Source\PSoC4/LED1.c ****         if(pulse1Type == LED1_GREATERTHAN_OR_EQUAL)
 313              		.loc 1 209 0
 314 000c FB1D     		add	r3, r7, #7
 315 000e 1B78     		ldrb	r3, [r3]
 316 0010 012B     		cmp	r3, #1
 317 0012 08D1     		bne	.L20
 210:.\Generated_Source\PSoC4/LED1.c ****         {
 211:.\Generated_Source\PSoC4/LED1.c ****             LED1_CONTROL_REG |= LED1_CTRL_COMPARE_TYPE1_GREATER_THAN_OR_EQUAL;
 318              		.loc 1 211 0
 319 0014 094B     		ldr	r3, .L22
 320 0016 094A     		ldr	r2, .L22
 321 0018 1278     		ldrb	r2, [r2]
 322 001a D2B2     		uxtb	r2, r2
 323 001c 0421     		mov	r1, #4
 324 001e 0A43     		orr	r2, r1
 325 0020 D2B2     		uxtb	r2, r2
 326 0022 1A70     		strb	r2, [r3]
 327 0024 07E0     		b	.L19
 328              	.L20:
 212:.\Generated_Source\PSoC4/LED1.c ****         }
 213:.\Generated_Source\PSoC4/LED1.c ****         else
 214:.\Generated_Source\PSoC4/LED1.c ****         {
 215:.\Generated_Source\PSoC4/LED1.c ****             LED1_CONTROL_REG &= (uint8)~LED1_CTRL_COMPARE_TYPE1_GREATER_THAN_OR_EQUAL;
 329              		.loc 1 215 0
 330 0026 054B     		ldr	r3, .L22
 331 0028 044A     		ldr	r2, .L22
 332 002a 1278     		ldrb	r2, [r2]
 333 002c D2B2     		uxtb	r2, r2
 334 002e 0421     		mov	r1, #4
 335 0030 8A43     		bic	r2, r1
 336 0032 D2B2     		uxtb	r2, r2
 337 0034 1A70     		strb	r2, [r3]
 338              	.L19:
 216:.\Generated_Source\PSoC4/LED1.c ****         }
 217:.\Generated_Source\PSoC4/LED1.c ****     }
 339              		.loc 1 217 0
 340 0036 BD46     		mov	sp, r7
 341 0038 02B0     		add	sp, sp, #8
 342              		@ sp needed for prologue
 343 003a 80BD     		pop	{r7, pc}
 344              	.L23:
 345              		.align	2
 346              	.L22:
 347 003c 72000F40 		.word	1074724978
 348              		.cfi_endproc
 349              	.LFE5:
 350              		.size	LED1_SetPulse1Mode, .-LED1_SetPulse1Mode
 351              		.section	.text.LED1_ReadSeed,"ax",%progbits
 352              		.align	2
 353              		.global	LED1_ReadSeed
ARM GAS  C:\Users\CHUCK~1.ERH\AppData\Local\Temp\cc2YgX1C.s 			page 11


 354              		.code	16
 355              		.thumb_func
 356              		.type	LED1_ReadSeed, %function
 357              	LED1_ReadSeed:
 358              	.LFB6:
 218:.\Generated_Source\PSoC4/LED1.c **** 
 219:.\Generated_Source\PSoC4/LED1.c **** #endif /* End LED1_PULSE_TYPE_HARDCODED == 0 */
 220:.\Generated_Source\PSoC4/LED1.c **** 
 221:.\Generated_Source\PSoC4/LED1.c **** 
 222:.\Generated_Source\PSoC4/LED1.c **** /*******************************************************************************
 223:.\Generated_Source\PSoC4/LED1.c **** * FUNCTION NAME:   LED1_ReadSeed
 224:.\Generated_Source\PSoC4/LED1.c **** ********************************************************************************
 225:.\Generated_Source\PSoC4/LED1.c **** *
 226:.\Generated_Source\PSoC4/LED1.c **** * Summary:
 227:.\Generated_Source\PSoC4/LED1.c **** *  Reads the PrISM Seed register.
 228:.\Generated_Source\PSoC4/LED1.c **** *
 229:.\Generated_Source\PSoC4/LED1.c **** * Parameters:
 230:.\Generated_Source\PSoC4/LED1.c **** *  None.
 231:.\Generated_Source\PSoC4/LED1.c **** *
 232:.\Generated_Source\PSoC4/LED1.c **** * Return:
 233:.\Generated_Source\PSoC4/LED1.c **** *  Current Period register value.
 234:.\Generated_Source\PSoC4/LED1.c **** *
 235:.\Generated_Source\PSoC4/LED1.c **** *******************************************************************************/
 236:.\Generated_Source\PSoC4/LED1.c **** uint8 LED1_ReadSeed(void) 
 237:.\Generated_Source\PSoC4/LED1.c **** {
 359              		.loc 1 237 0
 360              		.cfi_startproc
 361 0000 80B5     		push	{r7, lr}
 362              	.LCFI15:
 363              		.cfi_def_cfa_offset 8
 364              		.cfi_offset 7, -8
 365              		.cfi_offset 14, -4
 366 0002 00AF     		add	r7, sp, #0
 367              	.LCFI16:
 368              		.cfi_def_cfa_register 7
 238:.\Generated_Source\PSoC4/LED1.c ****     return( CY_GET_REG8(LED1_SEED_PTR) );
 369              		.loc 1 238 0
 370 0004 024B     		ldr	r3, .L26
 371 0006 1B78     		ldrb	r3, [r3]
 372 0008 DBB2     		uxtb	r3, r3
 239:.\Generated_Source\PSoC4/LED1.c **** }
 373              		.loc 1 239 0
 374 000a 181C     		mov	r0, r3
 375 000c BD46     		mov	sp, r7
 376              		@ sp needed for prologue
 377 000e 80BD     		pop	{r7, pc}
 378              	.L27:
 379              		.align	2
 380              	.L26:
 381 0010 02000F40 		.word	1074724866
 382              		.cfi_endproc
 383              	.LFE6:
 384              		.size	LED1_ReadSeed, .-LED1_ReadSeed
 385              		.section	.text.LED1_WriteSeed,"ax",%progbits
 386              		.align	2
 387              		.global	LED1_WriteSeed
 388              		.code	16
ARM GAS  C:\Users\CHUCK~1.ERH\AppData\Local\Temp\cc2YgX1C.s 			page 12


 389              		.thumb_func
 390              		.type	LED1_WriteSeed, %function
 391              	LED1_WriteSeed:
 392              	.LFB7:
 240:.\Generated_Source\PSoC4/LED1.c **** 
 241:.\Generated_Source\PSoC4/LED1.c **** 
 242:.\Generated_Source\PSoC4/LED1.c **** /*******************************************************************************
 243:.\Generated_Source\PSoC4/LED1.c **** * FUNCTION NAME:   LED1_WriteSeed
 244:.\Generated_Source\PSoC4/LED1.c **** ********************************************************************************
 245:.\Generated_Source\PSoC4/LED1.c **** *
 246:.\Generated_Source\PSoC4/LED1.c **** * Summary:
 247:.\Generated_Source\PSoC4/LED1.c **** *  Writes the PrISM Seed register with the start value.
 248:.\Generated_Source\PSoC4/LED1.c **** *
 249:.\Generated_Source\PSoC4/LED1.c **** * Parameters:
 250:.\Generated_Source\PSoC4/LED1.c **** *  seed: Seed register value.
 251:.\Generated_Source\PSoC4/LED1.c **** *
 252:.\Generated_Source\PSoC4/LED1.c **** * Return:
 253:.\Generated_Source\PSoC4/LED1.c **** *  None.
 254:.\Generated_Source\PSoC4/LED1.c **** *
 255:.\Generated_Source\PSoC4/LED1.c **** *******************************************************************************/
 256:.\Generated_Source\PSoC4/LED1.c **** void LED1_WriteSeed(uint8 seed) 
 257:.\Generated_Source\PSoC4/LED1.c **** {
 393              		.loc 1 257 0
 394              		.cfi_startproc
 395 0000 80B5     		push	{r7, lr}
 396              	.LCFI17:
 397              		.cfi_def_cfa_offset 8
 398              		.cfi_offset 7, -8
 399              		.cfi_offset 14, -4
 400 0002 82B0     		sub	sp, sp, #8
 401              	.LCFI18:
 402              		.cfi_def_cfa_offset 16
 403 0004 00AF     		add	r7, sp, #0
 404              	.LCFI19:
 405              		.cfi_def_cfa_register 7
 406 0006 021C     		mov	r2, r0
 407 0008 FB1D     		add	r3, r7, #7
 408 000a 1A70     		strb	r2, [r3]
 258:.\Generated_Source\PSoC4/LED1.c ****     if(seed != 0u)
 409              		.loc 1 258 0
 410 000c FB1D     		add	r3, r7, #7
 411 000e 1B78     		ldrb	r3, [r3]
 412 0010 002B     		cmp	r3, #0
 413 0012 07D0     		beq	.L28
 259:.\Generated_Source\PSoC4/LED1.c ****     {
 260:.\Generated_Source\PSoC4/LED1.c ****         CY_SET_REG8(LED1_SEED_COPY_PTR, seed);
 414              		.loc 1 260 0
 415 0014 054B     		ldr	r3, .L30
 416 0016 FA1D     		add	r2, r7, #7
 417 0018 1278     		ldrb	r2, [r2]
 418 001a 1A70     		strb	r2, [r3]
 261:.\Generated_Source\PSoC4/LED1.c ****         CY_SET_REG8(LED1_SEED_PTR, seed);
 419              		.loc 1 261 0
 420 001c 044B     		ldr	r3, .L30+4
 421 001e FA1D     		add	r2, r7, #7
 422 0020 1278     		ldrb	r2, [r2]
 423 0022 1A70     		strb	r2, [r3]
ARM GAS  C:\Users\CHUCK~1.ERH\AppData\Local\Temp\cc2YgX1C.s 			page 13


 424              	.L28:
 262:.\Generated_Source\PSoC4/LED1.c ****     }
 263:.\Generated_Source\PSoC4/LED1.c **** }
 425              		.loc 1 263 0
 426 0024 BD46     		mov	sp, r7
 427 0026 02B0     		add	sp, sp, #8
 428              		@ sp needed for prologue
 429 0028 80BD     		pop	{r7, pc}
 430              	.L31:
 431 002a C046     		.align	2
 432              	.L30:
 433 002c 42000F40 		.word	1074724930
 434 0030 02000F40 		.word	1074724866
 435              		.cfi_endproc
 436              	.LFE7:
 437              		.size	LED1_WriteSeed, .-LED1_WriteSeed
 438              		.section	.text.LED1_ReadPolynomial,"ax",%progbits
 439              		.align	2
 440              		.global	LED1_ReadPolynomial
 441              		.code	16
 442              		.thumb_func
 443              		.type	LED1_ReadPolynomial, %function
 444              	LED1_ReadPolynomial:
 445              	.LFB8:
 264:.\Generated_Source\PSoC4/LED1.c **** 
 265:.\Generated_Source\PSoC4/LED1.c **** 
 266:.\Generated_Source\PSoC4/LED1.c **** /*******************************************************************************
 267:.\Generated_Source\PSoC4/LED1.c **** * FUNCTION NAME:   LED1_ReadPolynomial
 268:.\Generated_Source\PSoC4/LED1.c **** ********************************************************************************
 269:.\Generated_Source\PSoC4/LED1.c **** *
 270:.\Generated_Source\PSoC4/LED1.c **** * Summary:
 271:.\Generated_Source\PSoC4/LED1.c **** *  Reads the PrISM polynomial.
 272:.\Generated_Source\PSoC4/LED1.c **** *
 273:.\Generated_Source\PSoC4/LED1.c **** * Parameters:
 274:.\Generated_Source\PSoC4/LED1.c **** *  None.
 275:.\Generated_Source\PSoC4/LED1.c **** *
 276:.\Generated_Source\PSoC4/LED1.c **** * Return:
 277:.\Generated_Source\PSoC4/LED1.c **** *  PrISM polynomial.
 278:.\Generated_Source\PSoC4/LED1.c **** *
 279:.\Generated_Source\PSoC4/LED1.c **** *******************************************************************************/
 280:.\Generated_Source\PSoC4/LED1.c **** uint8 LED1_ReadPolynomial(void) 
 281:.\Generated_Source\PSoC4/LED1.c **** {
 446              		.loc 1 281 0
 447              		.cfi_startproc
 448 0000 80B5     		push	{r7, lr}
 449              	.LCFI20:
 450              		.cfi_def_cfa_offset 8
 451              		.cfi_offset 7, -8
 452              		.cfi_offset 14, -4
 453 0002 00AF     		add	r7, sp, #0
 454              	.LCFI21:
 455              		.cfi_def_cfa_register 7
 282:.\Generated_Source\PSoC4/LED1.c ****     return( CY_GET_REG8(LED1_POLYNOM_PTR) );
 456              		.loc 1 282 0
 457 0004 024B     		ldr	r3, .L34
 458 0006 1B78     		ldrb	r3, [r3]
 459 0008 DBB2     		uxtb	r3, r3
ARM GAS  C:\Users\CHUCK~1.ERH\AppData\Local\Temp\cc2YgX1C.s 			page 14


 283:.\Generated_Source\PSoC4/LED1.c **** }
 460              		.loc 1 283 0
 461 000a 181C     		mov	r0, r3
 462 000c BD46     		mov	sp, r7
 463              		@ sp needed for prologue
 464 000e 80BD     		pop	{r7, pc}
 465              	.L35:
 466              		.align	2
 467              	.L34:
 468 0010 12000F40 		.word	1074724882
 469              		.cfi_endproc
 470              	.LFE8:
 471              		.size	LED1_ReadPolynomial, .-LED1_ReadPolynomial
 472              		.section	.text.LED1_WritePolynomial,"ax",%progbits
 473              		.align	2
 474              		.global	LED1_WritePolynomial
 475              		.code	16
 476              		.thumb_func
 477              		.type	LED1_WritePolynomial, %function
 478              	LED1_WritePolynomial:
 479              	.LFB9:
 284:.\Generated_Source\PSoC4/LED1.c **** 
 285:.\Generated_Source\PSoC4/LED1.c **** 
 286:.\Generated_Source\PSoC4/LED1.c **** /*******************************************************************************
 287:.\Generated_Source\PSoC4/LED1.c **** * FUNCTION NAME:   LED1_WritePolynomial
 288:.\Generated_Source\PSoC4/LED1.c **** ********************************************************************************
 289:.\Generated_Source\PSoC4/LED1.c **** *
 290:.\Generated_Source\PSoC4/LED1.c **** * Summary:
 291:.\Generated_Source\PSoC4/LED1.c **** *  Writes the PrISM polynomial.
 292:.\Generated_Source\PSoC4/LED1.c **** *
 293:.\Generated_Source\PSoC4/LED1.c **** * Parameters:
 294:.\Generated_Source\PSoC4/LED1.c **** *  polynomial: PrISM polynomial.
 295:.\Generated_Source\PSoC4/LED1.c **** *
 296:.\Generated_Source\PSoC4/LED1.c **** * Return:
 297:.\Generated_Source\PSoC4/LED1.c **** *  None.
 298:.\Generated_Source\PSoC4/LED1.c **** *
 299:.\Generated_Source\PSoC4/LED1.c **** *******************************************************************************/
 300:.\Generated_Source\PSoC4/LED1.c **** void LED1_WritePolynomial(uint8 polynomial) \
 301:.\Generated_Source\PSoC4/LED1.c ****                                                                 
 302:.\Generated_Source\PSoC4/LED1.c **** {
 480              		.loc 1 302 0
 481              		.cfi_startproc
 482 0000 80B5     		push	{r7, lr}
 483              	.LCFI22:
 484              		.cfi_def_cfa_offset 8
 485              		.cfi_offset 7, -8
 486              		.cfi_offset 14, -4
 487 0002 82B0     		sub	sp, sp, #8
 488              	.LCFI23:
 489              		.cfi_def_cfa_offset 16
 490 0004 00AF     		add	r7, sp, #0
 491              	.LCFI24:
 492              		.cfi_def_cfa_register 7
 493 0006 021C     		mov	r2, r0
 494 0008 FB1D     		add	r3, r7, #7
 495 000a 1A70     		strb	r2, [r3]
 303:.\Generated_Source\PSoC4/LED1.c ****     CY_SET_REG8(LED1_POLYNOM_PTR, polynomial);
ARM GAS  C:\Users\CHUCK~1.ERH\AppData\Local\Temp\cc2YgX1C.s 			page 15


 496              		.loc 1 303 0
 497 000c 034B     		ldr	r3, .L37
 498 000e FA1D     		add	r2, r7, #7
 499 0010 1278     		ldrb	r2, [r2]
 500 0012 1A70     		strb	r2, [r3]
 304:.\Generated_Source\PSoC4/LED1.c ****     
 305:.\Generated_Source\PSoC4/LED1.c **** }
 501              		.loc 1 305 0
 502 0014 BD46     		mov	sp, r7
 503 0016 02B0     		add	sp, sp, #8
 504              		@ sp needed for prologue
 505 0018 80BD     		pop	{r7, pc}
 506              	.L38:
 507 001a C046     		.align	2
 508              	.L37:
 509 001c 12000F40 		.word	1074724882
 510              		.cfi_endproc
 511              	.LFE9:
 512              		.size	LED1_WritePolynomial, .-LED1_WritePolynomial
 513              		.section	.text.LED1_ReadPulse0,"ax",%progbits
 514              		.align	2
 515              		.global	LED1_ReadPulse0
 516              		.code	16
 517              		.thumb_func
 518              		.type	LED1_ReadPulse0, %function
 519              	LED1_ReadPulse0:
 520              	.LFB10:
 306:.\Generated_Source\PSoC4/LED1.c **** 
 307:.\Generated_Source\PSoC4/LED1.c **** 
 308:.\Generated_Source\PSoC4/LED1.c **** /*******************************************************************************
 309:.\Generated_Source\PSoC4/LED1.c **** * FUNCTION NAME:   LED1_ReadPulse0
 310:.\Generated_Source\PSoC4/LED1.c **** ********************************************************************************
 311:.\Generated_Source\PSoC4/LED1.c **** *
 312:.\Generated_Source\PSoC4/LED1.c **** * Summary:
 313:.\Generated_Source\PSoC4/LED1.c **** *  Reads the PrISM Pulse Density0 register.
 314:.\Generated_Source\PSoC4/LED1.c **** *
 315:.\Generated_Source\PSoC4/LED1.c **** * Parameters:
 316:.\Generated_Source\PSoC4/LED1.c **** *  None.
 317:.\Generated_Source\PSoC4/LED1.c **** *
 318:.\Generated_Source\PSoC4/LED1.c **** * Return:
 319:.\Generated_Source\PSoC4/LED1.c **** *  Pulse Density0 register value.
 320:.\Generated_Source\PSoC4/LED1.c **** *
 321:.\Generated_Source\PSoC4/LED1.c **** *******************************************************************************/
 322:.\Generated_Source\PSoC4/LED1.c **** uint8 LED1_ReadPulse0(void) 
 323:.\Generated_Source\PSoC4/LED1.c **** {
 521              		.loc 1 323 0
 522              		.cfi_startproc
 523 0000 80B5     		push	{r7, lr}
 524              	.LCFI25:
 525              		.cfi_def_cfa_offset 8
 526              		.cfi_offset 7, -8
 527              		.cfi_offset 14, -4
 528 0002 00AF     		add	r7, sp, #0
 529              	.LCFI26:
 530              		.cfi_def_cfa_register 7
 324:.\Generated_Source\PSoC4/LED1.c ****     return( CY_GET_REG8(LED1_DENSITY0_PTR) );
 531              		.loc 1 324 0
ARM GAS  C:\Users\CHUCK~1.ERH\AppData\Local\Temp\cc2YgX1C.s 			page 16


 532 0004 024B     		ldr	r3, .L41
 533 0006 1B78     		ldrb	r3, [r3]
 534 0008 DBB2     		uxtb	r3, r3
 325:.\Generated_Source\PSoC4/LED1.c **** }
 535              		.loc 1 325 0
 536 000a 181C     		mov	r0, r3
 537 000c BD46     		mov	sp, r7
 538              		@ sp needed for prologue
 539 000e 80BD     		pop	{r7, pc}
 540              	.L42:
 541              		.align	2
 542              	.L41:
 543 0010 22000F40 		.word	1074724898
 544              		.cfi_endproc
 545              	.LFE10:
 546              		.size	LED1_ReadPulse0, .-LED1_ReadPulse0
 547              		.section	.text.LED1_WritePulse0,"ax",%progbits
 548              		.align	2
 549              		.global	LED1_WritePulse0
 550              		.code	16
 551              		.thumb_func
 552              		.type	LED1_WritePulse0, %function
 553              	LED1_WritePulse0:
 554              	.LFB11:
 326:.\Generated_Source\PSoC4/LED1.c **** 
 327:.\Generated_Source\PSoC4/LED1.c **** 
 328:.\Generated_Source\PSoC4/LED1.c **** /*******************************************************************************
 329:.\Generated_Source\PSoC4/LED1.c **** * FUNCTION NAME:   LED1_WritePulse0
 330:.\Generated_Source\PSoC4/LED1.c **** ********************************************************************************
 331:.\Generated_Source\PSoC4/LED1.c **** *
 332:.\Generated_Source\PSoC4/LED1.c **** * Summary:
 333:.\Generated_Source\PSoC4/LED1.c **** *  Writes the PrISM Pulse Density0 register with the Pulse Density value.
 334:.\Generated_Source\PSoC4/LED1.c **** *
 335:.\Generated_Source\PSoC4/LED1.c **** * Parameters:
 336:.\Generated_Source\PSoC4/LED1.c **** *  pulseDensity0: Pulse Density value.
 337:.\Generated_Source\PSoC4/LED1.c **** *
 338:.\Generated_Source\PSoC4/LED1.c **** * Return:
 339:.\Generated_Source\PSoC4/LED1.c **** *  None.
 340:.\Generated_Source\PSoC4/LED1.c **** *
 341:.\Generated_Source\PSoC4/LED1.c **** *******************************************************************************/
 342:.\Generated_Source\PSoC4/LED1.c **** void LED1_WritePulse0(uint8 pulseDensity0) \
 343:.\Generated_Source\PSoC4/LED1.c ****                                                                 
 344:.\Generated_Source\PSoC4/LED1.c **** {
 555              		.loc 1 344 0
 556              		.cfi_startproc
 557 0000 80B5     		push	{r7, lr}
 558              	.LCFI27:
 559              		.cfi_def_cfa_offset 8
 560              		.cfi_offset 7, -8
 561              		.cfi_offset 14, -4
 562 0002 82B0     		sub	sp, sp, #8
 563              	.LCFI28:
 564              		.cfi_def_cfa_offset 16
 565 0004 00AF     		add	r7, sp, #0
 566              	.LCFI29:
 567              		.cfi_def_cfa_register 7
 568 0006 021C     		mov	r2, r0
ARM GAS  C:\Users\CHUCK~1.ERH\AppData\Local\Temp\cc2YgX1C.s 			page 17


 569 0008 FB1D     		add	r3, r7, #7
 570 000a 1A70     		strb	r2, [r3]
 345:.\Generated_Source\PSoC4/LED1.c ****     CY_SET_REG8(LED1_DENSITY0_PTR, pulseDensity0);
 571              		.loc 1 345 0
 572 000c 034B     		ldr	r3, .L44
 573 000e FA1D     		add	r2, r7, #7
 574 0010 1278     		ldrb	r2, [r2]
 575 0012 1A70     		strb	r2, [r3]
 346:.\Generated_Source\PSoC4/LED1.c **** }
 576              		.loc 1 346 0
 577 0014 BD46     		mov	sp, r7
 578 0016 02B0     		add	sp, sp, #8
 579              		@ sp needed for prologue
 580 0018 80BD     		pop	{r7, pc}
 581              	.L45:
 582 001a C046     		.align	2
 583              	.L44:
 584 001c 22000F40 		.word	1074724898
 585              		.cfi_endproc
 586              	.LFE11:
 587              		.size	LED1_WritePulse0, .-LED1_WritePulse0
 588              		.section	.text.LED1_ReadPulse1,"ax",%progbits
 589              		.align	2
 590              		.global	LED1_ReadPulse1
 591              		.code	16
 592              		.thumb_func
 593              		.type	LED1_ReadPulse1, %function
 594              	LED1_ReadPulse1:
 595              	.LFB12:
 347:.\Generated_Source\PSoC4/LED1.c **** 
 348:.\Generated_Source\PSoC4/LED1.c **** 
 349:.\Generated_Source\PSoC4/LED1.c **** /*******************************************************************************
 350:.\Generated_Source\PSoC4/LED1.c **** * FUNCTION NAME:   LED1_ReadPulse1
 351:.\Generated_Source\PSoC4/LED1.c **** ********************************************************************************
 352:.\Generated_Source\PSoC4/LED1.c **** *
 353:.\Generated_Source\PSoC4/LED1.c **** * Summary:
 354:.\Generated_Source\PSoC4/LED1.c **** *  Reads the PrISM Pulse Density1 register.
 355:.\Generated_Source\PSoC4/LED1.c **** *
 356:.\Generated_Source\PSoC4/LED1.c **** * Parameters:
 357:.\Generated_Source\PSoC4/LED1.c **** *  None.
 358:.\Generated_Source\PSoC4/LED1.c **** *
 359:.\Generated_Source\PSoC4/LED1.c **** * Return:
 360:.\Generated_Source\PSoC4/LED1.c **** *  Pulse Density1 register value.
 361:.\Generated_Source\PSoC4/LED1.c **** *
 362:.\Generated_Source\PSoC4/LED1.c **** *******************************************************************************/
 363:.\Generated_Source\PSoC4/LED1.c **** uint8 LED1_ReadPulse1(void) 
 364:.\Generated_Source\PSoC4/LED1.c **** {
 596              		.loc 1 364 0
 597              		.cfi_startproc
 598 0000 80B5     		push	{r7, lr}
 599              	.LCFI30:
 600              		.cfi_def_cfa_offset 8
 601              		.cfi_offset 7, -8
 602              		.cfi_offset 14, -4
 603 0002 00AF     		add	r7, sp, #0
 604              	.LCFI31:
 605              		.cfi_def_cfa_register 7
ARM GAS  C:\Users\CHUCK~1.ERH\AppData\Local\Temp\cc2YgX1C.s 			page 18


 365:.\Generated_Source\PSoC4/LED1.c ****     return( CY_GET_REG8(LED1_DENSITY1_PTR) );
 606              		.loc 1 365 0
 607 0004 024B     		ldr	r3, .L48
 608 0006 1B78     		ldrb	r3, [r3]
 609 0008 DBB2     		uxtb	r3, r3
 366:.\Generated_Source\PSoC4/LED1.c **** }
 610              		.loc 1 366 0
 611 000a 181C     		mov	r0, r3
 612 000c BD46     		mov	sp, r7
 613              		@ sp needed for prologue
 614 000e 80BD     		pop	{r7, pc}
 615              	.L49:
 616              		.align	2
 617              	.L48:
 618 0010 32000F40 		.word	1074724914
 619              		.cfi_endproc
 620              	.LFE12:
 621              		.size	LED1_ReadPulse1, .-LED1_ReadPulse1
 622              		.section	.text.LED1_WritePulse1,"ax",%progbits
 623              		.align	2
 624              		.global	LED1_WritePulse1
 625              		.code	16
 626              		.thumb_func
 627              		.type	LED1_WritePulse1, %function
 628              	LED1_WritePulse1:
 629              	.LFB13:
 367:.\Generated_Source\PSoC4/LED1.c **** 
 368:.\Generated_Source\PSoC4/LED1.c **** 
 369:.\Generated_Source\PSoC4/LED1.c **** /*******************************************************************************
 370:.\Generated_Source\PSoC4/LED1.c **** * FUNCTION NAME:   LED1_WritePulse1
 371:.\Generated_Source\PSoC4/LED1.c **** ********************************************************************************
 372:.\Generated_Source\PSoC4/LED1.c **** *
 373:.\Generated_Source\PSoC4/LED1.c **** * Summary:
 374:.\Generated_Source\PSoC4/LED1.c **** *  Writes the PrISM Pulse Density1 register with the Pulse Density value.
 375:.\Generated_Source\PSoC4/LED1.c **** *
 376:.\Generated_Source\PSoC4/LED1.c **** * Parameters:
 377:.\Generated_Source\PSoC4/LED1.c **** *  pulseDensity1: Pulse Density value.
 378:.\Generated_Source\PSoC4/LED1.c **** *
 379:.\Generated_Source\PSoC4/LED1.c **** * Return:
 380:.\Generated_Source\PSoC4/LED1.c **** *  None.
 381:.\Generated_Source\PSoC4/LED1.c **** *
 382:.\Generated_Source\PSoC4/LED1.c **** *******************************************************************************/
 383:.\Generated_Source\PSoC4/LED1.c **** void LED1_WritePulse1(uint8 pulseDensity1) \
 384:.\Generated_Source\PSoC4/LED1.c ****                                                                     
 385:.\Generated_Source\PSoC4/LED1.c **** {
 630              		.loc 1 385 0
 631              		.cfi_startproc
 632 0000 80B5     		push	{r7, lr}
 633              	.LCFI32:
 634              		.cfi_def_cfa_offset 8
 635              		.cfi_offset 7, -8
 636              		.cfi_offset 14, -4
 637 0002 82B0     		sub	sp, sp, #8
 638              	.LCFI33:
 639              		.cfi_def_cfa_offset 16
 640 0004 00AF     		add	r7, sp, #0
 641              	.LCFI34:
ARM GAS  C:\Users\CHUCK~1.ERH\AppData\Local\Temp\cc2YgX1C.s 			page 19


 642              		.cfi_def_cfa_register 7
 643 0006 021C     		mov	r2, r0
 644 0008 FB1D     		add	r3, r7, #7
 645 000a 1A70     		strb	r2, [r3]
 386:.\Generated_Source\PSoC4/LED1.c ****     CY_SET_REG8(LED1_DENSITY1_PTR, pulseDensity1);
 646              		.loc 1 386 0
 647 000c 034B     		ldr	r3, .L51
 648 000e FA1D     		add	r2, r7, #7
 649 0010 1278     		ldrb	r2, [r2]
 650 0012 1A70     		strb	r2, [r3]
 387:.\Generated_Source\PSoC4/LED1.c **** }
 651              		.loc 1 387 0
 652 0014 BD46     		mov	sp, r7
 653 0016 02B0     		add	sp, sp, #8
 654              		@ sp needed for prologue
 655 0018 80BD     		pop	{r7, pc}
 656              	.L52:
 657 001a C046     		.align	2
 658              	.L51:
 659 001c 32000F40 		.word	1074724914
 660              		.cfi_endproc
 661              	.LFE13:
 662              		.size	LED1_WritePulse1, .-LED1_WritePulse1
 663              		.text
 664              	.Letext0:
 665              		.file 2 ".\\Generated_Source\\PSoC4\\cytypes.h"