ARM GAS  C:\Users\CHUCK~1.ERH\AppData\Local\Temp\ccKRzUTW.s 			page 1


   1              		.cpu cortex-m0
   2              		.fpu softvfp
   3              		.eabi_attribute 20, 1
   4              		.eabi_attribute 21, 1
   5              		.eabi_attribute 23, 3
   6              		.eabi_attribute 24, 1
   7              		.eabi_attribute 25, 1
   8              		.eabi_attribute 26, 1
   9              		.eabi_attribute 30, 6
  10              		.eabi_attribute 34, 0
  11              		.eabi_attribute 18, 4
  12              		.code	16
  13              		.file	"LED1_PM.c"
  14              		.text
  15              	.Ltext0:
  16              		.cfi_sections	.debug_frame
  17              		.data
  18              		.align	2
  19              		.type	LED1_backup, %object
  20              		.size	LED1_backup, 5
  21              	LED1_backup:
  22 0000 00       		.byte	0
  23 0001 00       		.byte	0
  24 0002 FF       		.byte	-1
  25 0003 FF       		.byte	-1
  26 0004 B8       		.byte	-72
  27 0005 000000   		.section	.text.LED1_SaveConfig,"ax",%progbits
  28              		.align	2
  29              		.global	LED1_SaveConfig
  30              		.code	16
  31              		.thumb_func
  32              		.type	LED1_SaveConfig, %function
  33              	LED1_SaveConfig:
  34              	.LFB0:
  35              		.file 1 ".\\Generated_Source\\PSoC4\\LED1_PM.c"
   1:.\Generated_Source\PSoC4/LED1_PM.c **** /*******************************************************************************
   2:.\Generated_Source\PSoC4/LED1_PM.c **** * File Name: LED1_PM.c
   3:.\Generated_Source\PSoC4/LED1_PM.c **** * Version 2.20
   4:.\Generated_Source\PSoC4/LED1_PM.c **** *
   5:.\Generated_Source\PSoC4/LED1_PM.c **** * Description:
   6:.\Generated_Source\PSoC4/LED1_PM.c **** *  This file provides Sleep/WakeUp APIs functionality of the PrISM component
   7:.\Generated_Source\PSoC4/LED1_PM.c **** *
   8:.\Generated_Source\PSoC4/LED1_PM.c **** * Note:
   9:.\Generated_Source\PSoC4/LED1_PM.c **** *
  10:.\Generated_Source\PSoC4/LED1_PM.c **** ********************************************************************************
  11:.\Generated_Source\PSoC4/LED1_PM.c **** * Copyright 2008-2012, Cypress Semiconductor Corporation.  All rights reserved.
  12:.\Generated_Source\PSoC4/LED1_PM.c **** * You may use this file only in accordance with the license, terms, conditions, 
  13:.\Generated_Source\PSoC4/LED1_PM.c **** * disclaimers, and limitations in the end user license agreement accompanying 
  14:.\Generated_Source\PSoC4/LED1_PM.c **** * the software package with which this file was provided.
  15:.\Generated_Source\PSoC4/LED1_PM.c **** *******************************************************************************/
  16:.\Generated_Source\PSoC4/LED1_PM.c **** 
  17:.\Generated_Source\PSoC4/LED1_PM.c **** #include "LED1.h"
  18:.\Generated_Source\PSoC4/LED1_PM.c **** 
  19:.\Generated_Source\PSoC4/LED1_PM.c **** 
  20:.\Generated_Source\PSoC4/LED1_PM.c **** /***************************************
  21:.\Generated_Source\PSoC4/LED1_PM.c **** * Local data allocation
  22:.\Generated_Source\PSoC4/LED1_PM.c **** ***************************************/
ARM GAS  C:\Users\CHUCK~1.ERH\AppData\Local\Temp\ccKRzUTW.s 			page 2


  23:.\Generated_Source\PSoC4/LED1_PM.c **** static LED1_BACKUP_STRUCT  LED1_backup = 
  24:.\Generated_Source\PSoC4/LED1_PM.c **** {
  25:.\Generated_Source\PSoC4/LED1_PM.c ****     /* enableState */
  26:.\Generated_Source\PSoC4/LED1_PM.c ****     0u,
  27:.\Generated_Source\PSoC4/LED1_PM.c ****     /* cr */
  28:.\Generated_Source\PSoC4/LED1_PM.c ****     #if(!LED1_PULSE_TYPE_HARDCODED)
  29:.\Generated_Source\PSoC4/LED1_PM.c ****        (((LED1_GREATERTHAN_OR_EQUAL == LED1_COMPARE0) ? \
  30:.\Generated_Source\PSoC4/LED1_PM.c ****                                                 LED1_CTRL_COMPARE_TYPE0_GREATER_THAN_OR_EQUAL : 0u)
  31:.\Generated_Source\PSoC4/LED1_PM.c ****         ((LED1_GREATERTHAN_OR_EQUAL == LED1_COMPARE1) ? \
  32:.\Generated_Source\PSoC4/LED1_PM.c ****                                                 LED1_CTRL_COMPARE_TYPE1_GREATER_THAN_OR_EQUAL : 0u)
  33:.\Generated_Source\PSoC4/LED1_PM.c ****     #endif /* End LED1_PULSE_TYPE_HARDCODED */
  34:.\Generated_Source\PSoC4/LED1_PM.c ****     /* seed */    
  35:.\Generated_Source\PSoC4/LED1_PM.c ****     LED1_SEED,
  36:.\Generated_Source\PSoC4/LED1_PM.c ****     /* seed_copy */    
  37:.\Generated_Source\PSoC4/LED1_PM.c ****     LED1_SEED,
  38:.\Generated_Source\PSoC4/LED1_PM.c ****     /* polynom */
  39:.\Generated_Source\PSoC4/LED1_PM.c ****     LED1_POLYNOM,
  40:.\Generated_Source\PSoC4/LED1_PM.c ****     #if(CY_UDB_V0)
  41:.\Generated_Source\PSoC4/LED1_PM.c ****         /* density0 */
  42:.\Generated_Source\PSoC4/LED1_PM.c ****         LED1_DENSITY0,
  43:.\Generated_Source\PSoC4/LED1_PM.c ****         /* density1 */
  44:.\Generated_Source\PSoC4/LED1_PM.c ****         LED1_DENSITY1,
  45:.\Generated_Source\PSoC4/LED1_PM.c ****     #endif /*End CY_UDB_V0*/
  46:.\Generated_Source\PSoC4/LED1_PM.c **** };
  47:.\Generated_Source\PSoC4/LED1_PM.c **** 
  48:.\Generated_Source\PSoC4/LED1_PM.c **** 
  49:.\Generated_Source\PSoC4/LED1_PM.c **** /*******************************************************************************
  50:.\Generated_Source\PSoC4/LED1_PM.c **** * Function Name: LED1_SaveConfig
  51:.\Generated_Source\PSoC4/LED1_PM.c **** ********************************************************************************
  52:.\Generated_Source\PSoC4/LED1_PM.c **** *
  53:.\Generated_Source\PSoC4/LED1_PM.c **** * Summary:
  54:.\Generated_Source\PSoC4/LED1_PM.c **** *  Saves the current user configuration.
  55:.\Generated_Source\PSoC4/LED1_PM.c **** *  
  56:.\Generated_Source\PSoC4/LED1_PM.c **** * Parameters:  
  57:.\Generated_Source\PSoC4/LED1_PM.c **** *  None.
  58:.\Generated_Source\PSoC4/LED1_PM.c **** *
  59:.\Generated_Source\PSoC4/LED1_PM.c **** * Return: 
  60:.\Generated_Source\PSoC4/LED1_PM.c **** *  None.
  61:.\Generated_Source\PSoC4/LED1_PM.c **** *
  62:.\Generated_Source\PSoC4/LED1_PM.c **** * Global Variables:
  63:.\Generated_Source\PSoC4/LED1_PM.c **** *  LED1_backup - modified when non-retention registers are saved.
  64:.\Generated_Source\PSoC4/LED1_PM.c **** *
  65:.\Generated_Source\PSoC4/LED1_PM.c **** * Reentrant:
  66:.\Generated_Source\PSoC4/LED1_PM.c **** *  No.
  67:.\Generated_Source\PSoC4/LED1_PM.c **** *
  68:.\Generated_Source\PSoC4/LED1_PM.c **** *******************************************************************************/
  69:.\Generated_Source\PSoC4/LED1_PM.c **** void LED1_SaveConfig(void) 
  70:.\Generated_Source\PSoC4/LED1_PM.c **** {
  36              		.loc 1 70 0
  37              		.cfi_startproc
  38 0000 80B5     		push	{r7, lr}
  39              	.LCFI0:
  40              		.cfi_def_cfa_offset 8
  41              		.cfi_offset 7, -8
  42              		.cfi_offset 14, -4
  43 0002 00AF     		add	r7, sp, #0
  44              	.LCFI1:
ARM GAS  C:\Users\CHUCK~1.ERH\AppData\Local\Temp\ccKRzUTW.s 			page 3


  45              		.cfi_def_cfa_register 7
  71:.\Generated_Source\PSoC4/LED1_PM.c ****     #if (CY_UDB_V0)
  72:.\Generated_Source\PSoC4/LED1_PM.c ****         #if(!LED1_PULSE_TYPE_HARDCODED)
  73:.\Generated_Source\PSoC4/LED1_PM.c ****             LED1_backup.cr = LED1_CONTROL_REG;
  74:.\Generated_Source\PSoC4/LED1_PM.c ****         #endif /* End LED1_PULSE_TYPE_HARDCODED */
  75:.\Generated_Source\PSoC4/LED1_PM.c ****         LED1_backup.seed = LED1_ReadSeed();
  76:.\Generated_Source\PSoC4/LED1_PM.c ****         LED1_backup.seed_copy = CY_GET_REG8(LED1_SEED_COPY_PTR);
  77:.\Generated_Source\PSoC4/LED1_PM.c ****         LED1_backup.polynom = LED1_ReadPolynomial();
  78:.\Generated_Source\PSoC4/LED1_PM.c ****         LED1_backup.density0 = LED1_ReadPulse0();
  79:.\Generated_Source\PSoC4/LED1_PM.c ****         LED1_backup.density1 = LED1_ReadPulse1();
  80:.\Generated_Source\PSoC4/LED1_PM.c ****     #else /* CY_UDB_V1 */
  81:.\Generated_Source\PSoC4/LED1_PM.c ****         #if(!LED1_PULSE_TYPE_HARDCODED)
  82:.\Generated_Source\PSoC4/LED1_PM.c ****             LED1_backup.cr = LED1_CONTROL_REG;
  46              		.loc 1 82 0
  47 0004 0B4B     		ldr	r3, .L2
  48 0006 1B78     		ldrb	r3, [r3]
  49 0008 DAB2     		uxtb	r2, r3
  50 000a 0B4B     		ldr	r3, .L2+4
  51 000c 5A70     		strb	r2, [r3, #1]
  83:.\Generated_Source\PSoC4/LED1_PM.c ****         #endif /* End LED1_PULSE_TYPE_HARDCODED */
  84:.\Generated_Source\PSoC4/LED1_PM.c ****         LED1_backup.seed = LED1_ReadSeed();
  52              		.loc 1 84 0
  53 000e FFF7FEFF 		bl	LED1_ReadSeed
  54 0012 031C     		mov	r3, r0
  55 0014 1A1C     		mov	r2, r3
  56 0016 084B     		ldr	r3, .L2+4
  57 0018 9A70     		strb	r2, [r3, #2]
  85:.\Generated_Source\PSoC4/LED1_PM.c ****         LED1_backup.seed_copy = CY_GET_REG8(LED1_SEED_COPY_PTR);
  58              		.loc 1 85 0
  59 001a 084B     		ldr	r3, .L2+8
  60 001c 1B78     		ldrb	r3, [r3]
  61 001e DAB2     		uxtb	r2, r3
  62 0020 054B     		ldr	r3, .L2+4
  63 0022 DA70     		strb	r2, [r3, #3]
  86:.\Generated_Source\PSoC4/LED1_PM.c ****         LED1_backup.polynom = LED1_ReadPolynomial();
  64              		.loc 1 86 0
  65 0024 FFF7FEFF 		bl	LED1_ReadPolynomial
  66 0028 031C     		mov	r3, r0
  67 002a 1A1C     		mov	r2, r3
  68 002c 024B     		ldr	r3, .L2+4
  69 002e 1A71     		strb	r2, [r3, #4]
  87:.\Generated_Source\PSoC4/LED1_PM.c ****     #endif  /* CY_UDB_V0 */
  88:.\Generated_Source\PSoC4/LED1_PM.c **** }
  70              		.loc 1 88 0
  71 0030 BD46     		mov	sp, r7
  72              		@ sp needed for prologue
  73 0032 80BD     		pop	{r7, pc}
  74              	.L3:
  75              		.align	2
  76              	.L2:
  77 0034 72000F40 		.word	1074724978
  78 0038 00000000 		.word	LED1_backup
  79 003c 42000F40 		.word	1074724930
  80              		.cfi_endproc
  81              	.LFE0:
  82              		.size	LED1_SaveConfig, .-LED1_SaveConfig
  83              		.section	.text.LED1_RestoreConfig,"ax",%progbits
ARM GAS  C:\Users\CHUCK~1.ERH\AppData\Local\Temp\ccKRzUTW.s 			page 4


  84              		.align	2
  85              		.global	LED1_RestoreConfig
  86              		.code	16
  87              		.thumb_func
  88              		.type	LED1_RestoreConfig, %function
  89              	LED1_RestoreConfig:
  90              	.LFB1:
  89:.\Generated_Source\PSoC4/LED1_PM.c **** 
  90:.\Generated_Source\PSoC4/LED1_PM.c **** 
  91:.\Generated_Source\PSoC4/LED1_PM.c **** /*******************************************************************************
  92:.\Generated_Source\PSoC4/LED1_PM.c **** * Function Name: LED1_RestoreConfig
  93:.\Generated_Source\PSoC4/LED1_PM.c **** ********************************************************************************
  94:.\Generated_Source\PSoC4/LED1_PM.c **** *
  95:.\Generated_Source\PSoC4/LED1_PM.c **** * Summary:
  96:.\Generated_Source\PSoC4/LED1_PM.c **** *  Restores the current user configuration.
  97:.\Generated_Source\PSoC4/LED1_PM.c **** *
  98:.\Generated_Source\PSoC4/LED1_PM.c **** * Parameters:  
  99:.\Generated_Source\PSoC4/LED1_PM.c **** *  None.
 100:.\Generated_Source\PSoC4/LED1_PM.c **** *
 101:.\Generated_Source\PSoC4/LED1_PM.c **** * Return: 
 102:.\Generated_Source\PSoC4/LED1_PM.c **** *  None.
 103:.\Generated_Source\PSoC4/LED1_PM.c **** *
 104:.\Generated_Source\PSoC4/LED1_PM.c **** * Global Variables:
 105:.\Generated_Source\PSoC4/LED1_PM.c **** *  LED1_backup - used when non-retention registers are restored.
 106:.\Generated_Source\PSoC4/LED1_PM.c **** *
 107:.\Generated_Source\PSoC4/LED1_PM.c **** *******************************************************************************/
 108:.\Generated_Source\PSoC4/LED1_PM.c **** void LED1_RestoreConfig(void) 
 109:.\Generated_Source\PSoC4/LED1_PM.c **** {
  91              		.loc 1 109 0
  92              		.cfi_startproc
  93 0000 80B5     		push	{r7, lr}
  94              	.LCFI2:
  95              		.cfi_def_cfa_offset 8
  96              		.cfi_offset 7, -8
  97              		.cfi_offset 14, -4
  98 0002 00AF     		add	r7, sp, #0
  99              	.LCFI3:
 100              		.cfi_def_cfa_register 7
 110:.\Generated_Source\PSoC4/LED1_PM.c ****     #if (CY_UDB_V0)
 111:.\Generated_Source\PSoC4/LED1_PM.c ****     
 112:.\Generated_Source\PSoC4/LED1_PM.c ****         uint8 enableInterrupts;
 113:.\Generated_Source\PSoC4/LED1_PM.c ****         
 114:.\Generated_Source\PSoC4/LED1_PM.c ****         #if(!LED1_PULSE_TYPE_HARDCODED)
 115:.\Generated_Source\PSoC4/LED1_PM.c ****             LED1_CONTROL_REG = LED1_backup.cr;
 116:.\Generated_Source\PSoC4/LED1_PM.c ****         #endif /* End LED1_PULSE_TYPE_HARDCODED */
 117:.\Generated_Source\PSoC4/LED1_PM.c **** 
 118:.\Generated_Source\PSoC4/LED1_PM.c ****         CY_SET_REG8(LED1_SEED_COPY_PTR, LED1_backup.seed_copy);
 119:.\Generated_Source\PSoC4/LED1_PM.c ****         CY_SET_REG8(LED1_SEED_PTR, LED1_backup.seed);
 120:.\Generated_Source\PSoC4/LED1_PM.c ****         LED1_WritePolynomial(LED1_backup.polynom);
 121:.\Generated_Source\PSoC4/LED1_PM.c ****         LED1_WritePulse0(LED1_backup.density0);
 122:.\Generated_Source\PSoC4/LED1_PM.c ****         LED1_WritePulse1(LED1_backup.density1);
 123:.\Generated_Source\PSoC4/LED1_PM.c ****         
 124:.\Generated_Source\PSoC4/LED1_PM.c ****         enableInterrupts = CyEnterCriticalSection();
 125:.\Generated_Source\PSoC4/LED1_PM.c ****         /* Set FIFO0_CLR bit to use FIFO0 as a simple one-byte buffer*/
 126:.\Generated_Source\PSoC4/LED1_PM.c ****         CY_SET_REG8(LED1_AUX_CONTROL_PTR, 
 127:.\Generated_Source\PSoC4/LED1_PM.c ****                         CY_GET_REG8(LED1_AUX_CONTROL_PTR) | LED1_FIFO0_CLR);
 128:.\Generated_Source\PSoC4/LED1_PM.c ****         CyExitCriticalSection(enableInterrupts);
ARM GAS  C:\Users\CHUCK~1.ERH\AppData\Local\Temp\ccKRzUTW.s 			page 5


 129:.\Generated_Source\PSoC4/LED1_PM.c **** 
 130:.\Generated_Source\PSoC4/LED1_PM.c ****     #else   /* CY_UDB_V1 */
 131:.\Generated_Source\PSoC4/LED1_PM.c **** 
 132:.\Generated_Source\PSoC4/LED1_PM.c ****         #if(!LED1_PULSE_TYPE_HARDCODED)
 133:.\Generated_Source\PSoC4/LED1_PM.c ****             LED1_CONTROL_REG = LED1_backup.cr;
 101              		.loc 1 133 0
 102 0004 094B     		ldr	r3, .L5
 103 0006 0A4A     		ldr	r2, .L5+4
 104 0008 5278     		ldrb	r2, [r2, #1]
 105 000a 1A70     		strb	r2, [r3]
 134:.\Generated_Source\PSoC4/LED1_PM.c ****         #endif /* End LED1_PULSE_TYPE_HARDCODED */
 135:.\Generated_Source\PSoC4/LED1_PM.c **** 
 136:.\Generated_Source\PSoC4/LED1_PM.c ****         CY_SET_REG8(LED1_SEED_COPY_PTR, LED1_backup.seed_copy);
 106              		.loc 1 136 0
 107 000c 094B     		ldr	r3, .L5+8
 108 000e 084A     		ldr	r2, .L5+4
 109 0010 D278     		ldrb	r2, [r2, #3]
 110 0012 1A70     		strb	r2, [r3]
 137:.\Generated_Source\PSoC4/LED1_PM.c ****         CY_SET_REG8(LED1_SEED_PTR, LED1_backup.seed);
 111              		.loc 1 137 0
 112 0014 084B     		ldr	r3, .L5+12
 113 0016 064A     		ldr	r2, .L5+4
 114 0018 9278     		ldrb	r2, [r2, #2]
 115 001a 1A70     		strb	r2, [r3]
 138:.\Generated_Source\PSoC4/LED1_PM.c ****         LED1_WritePolynomial(LED1_backup.polynom);
 116              		.loc 1 138 0
 117 001c 044B     		ldr	r3, .L5+4
 118 001e 1B79     		ldrb	r3, [r3, #4]
 119 0020 181C     		mov	r0, r3
 120 0022 FFF7FEFF 		bl	LED1_WritePolynomial
 139:.\Generated_Source\PSoC4/LED1_PM.c ****     
 140:.\Generated_Source\PSoC4/LED1_PM.c ****     #endif  /* End CY_UDB_V0 */
 141:.\Generated_Source\PSoC4/LED1_PM.c **** }
 121              		.loc 1 141 0
 122 0026 BD46     		mov	sp, r7
 123              		@ sp needed for prologue
 124 0028 80BD     		pop	{r7, pc}
 125              	.L6:
 126 002a C046     		.align	2
 127              	.L5:
 128 002c 72000F40 		.word	1074724978
 129 0030 00000000 		.word	LED1_backup
 130 0034 42000F40 		.word	1074724930
 131 0038 02000F40 		.word	1074724866
 132              		.cfi_endproc
 133              	.LFE1:
 134              		.size	LED1_RestoreConfig, .-LED1_RestoreConfig
 135              		.section	.text.LED1_Sleep,"ax",%progbits
 136              		.align	2
 137              		.global	LED1_Sleep
 138              		.code	16
 139              		.thumb_func
 140              		.type	LED1_Sleep, %function
 141              	LED1_Sleep:
 142              	.LFB2:
 142:.\Generated_Source\PSoC4/LED1_PM.c **** 
 143:.\Generated_Source\PSoC4/LED1_PM.c **** 
ARM GAS  C:\Users\CHUCK~1.ERH\AppData\Local\Temp\ccKRzUTW.s 			page 6


 144:.\Generated_Source\PSoC4/LED1_PM.c **** /*******************************************************************************
 145:.\Generated_Source\PSoC4/LED1_PM.c **** * Function Name: LED1_Sleep
 146:.\Generated_Source\PSoC4/LED1_PM.c **** ********************************************************************************
 147:.\Generated_Source\PSoC4/LED1_PM.c **** *
 148:.\Generated_Source\PSoC4/LED1_PM.c **** * Summary:
 149:.\Generated_Source\PSoC4/LED1_PM.c **** *  Stops and saves the user configuration
 150:.\Generated_Source\PSoC4/LED1_PM.c **** *  
 151:.\Generated_Source\PSoC4/LED1_PM.c **** * Parameters:  
 152:.\Generated_Source\PSoC4/LED1_PM.c **** *  None.
 153:.\Generated_Source\PSoC4/LED1_PM.c **** *
 154:.\Generated_Source\PSoC4/LED1_PM.c **** * Return: 
 155:.\Generated_Source\PSoC4/LED1_PM.c **** *  None.
 156:.\Generated_Source\PSoC4/LED1_PM.c **** *
 157:.\Generated_Source\PSoC4/LED1_PM.c **** * Global Variables:
 158:.\Generated_Source\PSoC4/LED1_PM.c **** *  LED1_backup - modified when non-retention registers are saved.
 159:.\Generated_Source\PSoC4/LED1_PM.c **** *
 160:.\Generated_Source\PSoC4/LED1_PM.c **** * Reentrant:
 161:.\Generated_Source\PSoC4/LED1_PM.c **** *  No.
 162:.\Generated_Source\PSoC4/LED1_PM.c **** *
 163:.\Generated_Source\PSoC4/LED1_PM.c **** *******************************************************************************/
 164:.\Generated_Source\PSoC4/LED1_PM.c **** void LED1_Sleep(void) 
 165:.\Generated_Source\PSoC4/LED1_PM.c **** {
 143              		.loc 1 165 0
 144              		.cfi_startproc
 145 0000 80B5     		push	{r7, lr}
 146              	.LCFI4:
 147              		.cfi_def_cfa_offset 8
 148              		.cfi_offset 7, -8
 149              		.cfi_offset 14, -4
 150 0002 00AF     		add	r7, sp, #0
 151              	.LCFI5:
 152              		.cfi_def_cfa_register 7
 166:.\Generated_Source\PSoC4/LED1_PM.c ****     #if(!LED1_PULSE_TYPE_HARDCODED)
 167:.\Generated_Source\PSoC4/LED1_PM.c ****         if((LED1_CONTROL_REG & LED1_CTRL_ENABLE) != 0u) 
 153              		.loc 1 167 0
 154 0004 094B     		ldr	r3, .L10
 155 0006 1B78     		ldrb	r3, [r3]
 156 0008 DBB2     		uxtb	r3, r3
 157 000a 1A1C     		mov	r2, r3
 158 000c 0123     		mov	r3, #1
 159 000e 1340     		and	r3, r2
 160 0010 03D0     		beq	.L8
 168:.\Generated_Source\PSoC4/LED1_PM.c ****         {
 169:.\Generated_Source\PSoC4/LED1_PM.c ****             LED1_backup.enableState = 1u;
 161              		.loc 1 169 0
 162 0012 074B     		ldr	r3, .L10+4
 163 0014 0122     		mov	r2, #1
 164 0016 1A70     		strb	r2, [r3]
 165 0018 02E0     		b	.L9
 166              	.L8:
 170:.\Generated_Source\PSoC4/LED1_PM.c ****         }
 171:.\Generated_Source\PSoC4/LED1_PM.c ****         else
 172:.\Generated_Source\PSoC4/LED1_PM.c ****         {
 173:.\Generated_Source\PSoC4/LED1_PM.c ****             LED1_backup.enableState = 0u;
 167              		.loc 1 173 0
 168 001a 054B     		ldr	r3, .L10+4
 169 001c 0022     		mov	r2, #0
ARM GAS  C:\Users\CHUCK~1.ERH\AppData\Local\Temp\ccKRzUTW.s 			page 7


 170 001e 1A70     		strb	r2, [r3]
 171              	.L9:
 174:.\Generated_Source\PSoC4/LED1_PM.c ****         }
 175:.\Generated_Source\PSoC4/LED1_PM.c ****     #endif /* End LED1_PULSE_TYPE_HARDCODED */
 176:.\Generated_Source\PSoC4/LED1_PM.c ****     LED1_Stop();
 172              		.loc 1 176 0
 173 0020 FFF7FEFF 		bl	LED1_Stop
 177:.\Generated_Source\PSoC4/LED1_PM.c ****     LED1_SaveConfig();
 174              		.loc 1 177 0
 175 0024 FFF7FEFF 		bl	LED1_SaveConfig
 178:.\Generated_Source\PSoC4/LED1_PM.c **** }
 176              		.loc 1 178 0
 177 0028 BD46     		mov	sp, r7
 178              		@ sp needed for prologue
 179 002a 80BD     		pop	{r7, pc}
 180              	.L11:
 181              		.align	2
 182              	.L10:
 183 002c 72000F40 		.word	1074724978
 184 0030 00000000 		.word	LED1_backup
 185              		.cfi_endproc
 186              	.LFE2:
 187              		.size	LED1_Sleep, .-LED1_Sleep
 188              		.section	.text.LED1_Wakeup,"ax",%progbits
 189              		.align	2
 190              		.global	LED1_Wakeup
 191              		.code	16
 192              		.thumb_func
 193              		.type	LED1_Wakeup, %function
 194              	LED1_Wakeup:
 195              	.LFB3:
 179:.\Generated_Source\PSoC4/LED1_PM.c **** 
 180:.\Generated_Source\PSoC4/LED1_PM.c **** 
 181:.\Generated_Source\PSoC4/LED1_PM.c **** /*******************************************************************************
 182:.\Generated_Source\PSoC4/LED1_PM.c **** * Function Name: LED1_Wakeup
 183:.\Generated_Source\PSoC4/LED1_PM.c **** ********************************************************************************
 184:.\Generated_Source\PSoC4/LED1_PM.c **** *
 185:.\Generated_Source\PSoC4/LED1_PM.c **** * Summary:
 186:.\Generated_Source\PSoC4/LED1_PM.c **** *  Restores and enables the user configuration
 187:.\Generated_Source\PSoC4/LED1_PM.c **** *  
 188:.\Generated_Source\PSoC4/LED1_PM.c **** * Parameters:  
 189:.\Generated_Source\PSoC4/LED1_PM.c **** *  None.
 190:.\Generated_Source\PSoC4/LED1_PM.c **** *
 191:.\Generated_Source\PSoC4/LED1_PM.c **** * Return: 
 192:.\Generated_Source\PSoC4/LED1_PM.c **** *  None.
 193:.\Generated_Source\PSoC4/LED1_PM.c **** *
 194:.\Generated_Source\PSoC4/LED1_PM.c **** * Global Variables:
 195:.\Generated_Source\PSoC4/LED1_PM.c **** *  LED1_backup - used when non-retention registers are restored.
 196:.\Generated_Source\PSoC4/LED1_PM.c **** *
 197:.\Generated_Source\PSoC4/LED1_PM.c **** *******************************************************************************/
 198:.\Generated_Source\PSoC4/LED1_PM.c **** void LED1_Wakeup(void) 
 199:.\Generated_Source\PSoC4/LED1_PM.c **** {
 196              		.loc 1 199 0
 197              		.cfi_startproc
 198 0000 80B5     		push	{r7, lr}
 199              	.LCFI6:
 200              		.cfi_def_cfa_offset 8
ARM GAS  C:\Users\CHUCK~1.ERH\AppData\Local\Temp\ccKRzUTW.s 			page 8


 201              		.cfi_offset 7, -8
 202              		.cfi_offset 14, -4
 203 0002 00AF     		add	r7, sp, #0
 204              	.LCFI7:
 205              		.cfi_def_cfa_register 7
 200:.\Generated_Source\PSoC4/LED1_PM.c ****     LED1_RestoreConfig();
 206              		.loc 1 200 0
 207 0004 FFF7FEFF 		bl	LED1_RestoreConfig
 201:.\Generated_Source\PSoC4/LED1_PM.c ****     if(LED1_backup.enableState != 0u)
 208              		.loc 1 201 0
 209 0008 034B     		ldr	r3, .L14
 210 000a 1B78     		ldrb	r3, [r3]
 211 000c 002B     		cmp	r3, #0
 212 000e 01D0     		beq	.L12
 202:.\Generated_Source\PSoC4/LED1_PM.c ****     {
 203:.\Generated_Source\PSoC4/LED1_PM.c ****         LED1_Enable();
 213              		.loc 1 203 0
 214 0010 FFF7FEFF 		bl	LED1_Enable
 215              	.L12:
 204:.\Generated_Source\PSoC4/LED1_PM.c ****     } 
 205:.\Generated_Source\PSoC4/LED1_PM.c **** }
 216              		.loc 1 205 0
 217 0014 BD46     		mov	sp, r7
 218              		@ sp needed for prologue
 219 0016 80BD     		pop	{r7, pc}
 220              	.L15:
 221              		.align	2
 222              	.L14:
 223 0018 00000000 		.word	LED1_backup
 224              		.cfi_endproc
 225              	.LFE3:
 226              		.size	LED1_Wakeup, .-LED1_Wakeup
 227              		.text
 228              	.Letext0:
 229              		.file 2 ".\\Generated_Source\\PSoC4\\cytypes.h"
 230              		.file 3 ".\\Generated_Source\\PSoC4\\LED1.h"