ARM GAS  C:\DOCUME~1\ADMINI~1\LOCALS~1\Temp\cc67JYHl.s 			page 1


   1              		.cpu cortex-m0
   2              		.fpu softvfp
   3              		.eabi_attribute 20, 1
   4              		.eabi_attribute 21, 1
   5              		.eabi_attribute 23, 3
   6              		.eabi_attribute 24, 1
   7              		.eabi_attribute 25, 1
   8              		.eabi_attribute 26, 1
   9              		.eabi_attribute 30, 6
  10              		.eabi_attribute 34, 0
  11              		.eabi_attribute 18, 4
  12              		.code	16
  13              		.file	"main.c"
  14              		.text
  15              	.Ltext0:
  16              		.cfi_sections	.debug_frame
  17              		.comm	randomData,2000,4
  18              		.comm	OutputString,255,4
  19              		.section	.rodata
  20              		.align	2
  21              	.LC0:
  22 0000 0D205278 		.ascii	"\015 RxDataWaiting = 0\000"
  22      44617461 
  22      57616974 
  22      696E6720 
  22      3D203000 
  23              		.align	2
  24              	.LC4:
  25 0014 20203C2D 		.ascii	"  <--I read %d bytes, then read RxDataWaiting = %d "
  25      2D492072 
  25      65616420 
  25      25642062 
  25      79746573 
  26 0047 0D2000   		.ascii	"\015 \000"
  27              		.section	.text.pavloven_test,"ax",%progbits
  28              		.align	2
  29              		.global	pavloven_test
  30              		.code	16
  31              		.thumb_func
  32              		.type	pavloven_test, %function
  33              	pavloven_test:
  34              	.LFB33:
  35              		.file 1 ".\\main.c"
   1:.\main.c      **** /**
   2:.\main.c      ****  * \file Arduino Ethernet shield Example
   3:.\main.c      ****  * \author Chuck Erhardt (chuck@e2forlife.com)
   4:.\main.c      ****  * 
   5:.\main.c      ****  * This is a real simple example project to connect the
   6:.\main.c      ****  * PSoC4 Pioneer board to the Arduino Ethernet shield board.
   7:.\main.c      ****  *
   8:.\main.c      ****  * Copyright notice:
   9:.\main.c      ****  *
  10:.\main.c      ****  *
  11:.\main.c      ****  * Dscaimer: 
  12:.\main.c      ****  * This software is provided as-is for demonstration and
  13:.\main.c      ****  * educational purposes only.  No warranty is expressed or
  14:.\main.c      ****  * implied; The sole responsibility of the verification
ARM GAS  C:\DOCUME~1\ADMINI~1\LOCALS~1\Temp\cc67JYHl.s 			page 2


  15:.\main.c      ****  * on your platform is your own.
  16:.\main.c      ****  */
  17:.\main.c      **** #include <project.h>
  18:.\main.c      **** #include <stdio.h>   /* sprintf() */
  19:.\main.c      **** #include <string.h>  /* for STRLEN() */
  20:.\main.c      **** #include <stdlib.h>  /* for RAND() */
  21:.\main.c      **** 
  22:.\main.c      **** char randomData[2000];
  23:.\main.c      **** char OutputString[255];
  24:.\main.c      **** 
  25:.\main.c      **** void pavloven_test( void )
  26:.\main.c      **** {
  36              		.loc 1 26 0
  37              		.cfi_startproc
  38 0000 90B5     		push	{r4, r7, lr}
  39              	.LCFI0:
  40              		.cfi_def_cfa_offset 12
  41              		.cfi_offset 4, -12
  42              		.cfi_offset 7, -8
  43              		.cfi_offset 14, -4
  44 0002 83B0     		sub	sp, sp, #12
  45              	.LCFI1:
  46              		.cfi_def_cfa_offset 24
  47 0004 00AF     		add	r7, sp, #0
  48              	.LCFI2:
  49              		.cfi_def_cfa_register 7
  27:.\main.c      **** uint8 socket;
  28:.\main.c      **** uint8 length = 0;	
  50              		.loc 1 28 0
  51 0006 FB1D     		add	r3, r7, #7
  52 0008 0022     		mov	r2, #0
  53 000a 1A70     		strb	r2, [r3]
  29:.\main.c      **** uint8 test = 0;	
  54              		.loc 1 29 0
  55 000c BB1D     		add	r3, r7, #6
  56 000e 0022     		mov	r2, #0
  57 0010 1A70     		strb	r2, [r3]
  30:.\main.c      **** //____________________________	
  31:.\main.c      **** SPI0_Start();
  58              		.loc 1 31 0
  59 0012 FFF7FEFF 		bl	SPI0_Start
  32:.\main.c      **** ETH0_Start();
  60              		.loc 1 32 0
  61 0016 FFF7FEFF 		bl	ETH0_Start
  33:.\main.c      **** 	
  34:.\main.c      **** 	socket = ETH0_TcpOpen( 23 );
  62              		.loc 1 34 0
  63 001a 7C1D     		add	r4, r7, #5
  64 001c 1720     		mov	r0, #23
  65 001e FFF7FEFF 		bl	ETH0_TcpOpen
  66 0022 031C     		mov	r3, r0
  67 0024 2370     		strb	r3, [r4]
  35:.\main.c      **** 	ETH0_TcpStartServer( socket );
  68              		.loc 1 35 0
  69 0026 7B1D     		add	r3, r7, #5
  70 0028 1B78     		ldrb	r3, [r3]
  71 002a 181C     		mov	r0, r3
ARM GAS  C:\DOCUME~1\ADMINI~1\LOCALS~1\Temp\cc67JYHl.s 			page 3


  72 002c FFF7FEFF 		bl	ETH0_TcpStartServer
  36:.\main.c      **** 
  37:.\main.c      **** for(;;)
  38:.\main.c      ****     {
  39:.\main.c      **** 	while ( !ETH0_TcpConnected( socket ) ) {CyDelay(100);}	/* wait for a connection, and delay the fla
  73              		.loc 1 39 0
  74 0030 02E0     		b	.L2
  75              	.L3:
  76              		.loc 1 39 0 is_stmt 0 discriminator 2
  77 0032 6420     		mov	r0, #100
  78 0034 FFF7FEFF 		bl	CyDelay
  79              	.L2:
  80              		.loc 1 39 0 discriminator 1
  81 0038 7B1D     		add	r3, r7, #5
  82 003a 1B78     		ldrb	r3, [r3]
  83 003c 181C     		mov	r0, r3
  84 003e FFF7FEFF 		bl	ETH0_TcpConnected
  85 0042 031C     		mov	r3, r0
  86 0044 002B     		cmp	r3, #0
  87 0046 F4D0     		beq	.L3
  40:.\main.c      **** 	
  41:.\main.c      **** 	while( ETH0_SocketRxDataWaiting(socket) == 0) 
  88              		.loc 1 41 0 is_stmt 1
  89 0048 0BE0     		b	.L4
  90              	.L5:
  42:.\main.c      **** 			{	ETH0_TcpPrint(socket,"\r RxDataWaiting = 0");	CyDelay(500);}		// if no data i read    ETH0_Soc
  91              		.loc 1 42 0
  92 004a 7B1D     		add	r3, r7, #5
  93 004c 1A78     		ldrb	r2, [r3]
  94 004e 264B     		ldr	r3, .L7
  95 0050 101C     		mov	r0, r2
  96 0052 191C     		mov	r1, r3
  97 0054 FFF7FEFF 		bl	ETH0_TcpPrint
  98 0058 FA23     		mov	r3, #250
  99 005a 5B00     		lsl	r3, r3, #1
 100 005c 181C     		mov	r0, r3
 101 005e FFF7FEFF 		bl	CyDelay
 102              	.L4:
  41:.\main.c      **** 	while( ETH0_SocketRxDataWaiting(socket) == 0) 
 103              		.loc 1 41 0 discriminator 1
 104 0062 7B1D     		add	r3, r7, #5
 105 0064 1B78     		ldrb	r3, [r3]
 106 0066 181C     		mov	r0, r3
 107 0068 FFF7FEFF 		bl	ETH0_SocketRxDataWaiting
 108 006c 031C     		mov	r3, r0
 109 006e 002B     		cmp	r3, #0
 110 0070 EBD0     		beq	.L5
  43:.\main.c      **** 	
  44:.\main.c      **** 	test =ETH0_SocketRxDataWaiting(socket);						// number of bytes received
 111              		.loc 1 44 0
 112 0072 7B1D     		add	r3, r7, #5
 113 0074 1B78     		ldrb	r3, [r3]
 114 0076 181C     		mov	r0, r3
 115 0078 FFF7FEFF 		bl	ETH0_SocketRxDataWaiting
 116 007c 031C     		mov	r3, r0
 117 007e 1A1C     		mov	r2, r3
 118 0080 BB1D     		add	r3, r7, #6
ARM GAS  C:\DOCUME~1\ADMINI~1\LOCALS~1\Temp\cc67JYHl.s 			page 4


 119 0082 1A70     		strb	r2, [r3]
  45:.\main.c      **** 	
  46:.\main.c      **** 	length = ETH0_TcpReceive(socket,(uint8*)&randomData[0],test);	// pick up data from V5100
 120              		.loc 1 46 0
 121 0084 BB1D     		add	r3, r7, #6
 122 0086 1B78     		ldrb	r3, [r3]
 123 0088 9BB2     		uxth	r3, r3
 124 008a 7A1D     		add	r2, r7, #5
 125 008c 1178     		ldrb	r1, [r2]
 126 008e 174A     		ldr	r2, .L7+4
 127 0090 081C     		mov	r0, r1
 128 0092 111C     		mov	r1, r2
 129 0094 1A1C     		mov	r2, r3
 130 0096 FFF7FEFF 		bl	ETH0_TcpReceive
 131 009a 031C     		mov	r3, r0
 132 009c 1A1C     		mov	r2, r3
 133 009e FB1D     		add	r3, r7, #7
 134 00a0 1A70     		strb	r2, [r3]
  47:.\main.c      **** 	CyDelay(10);												// Suppose that W5100 is  lazy  I hope that the W5100 realized that I got 
 135              		.loc 1 47 0
 136 00a2 0A20     		mov	r0, #10
 137 00a4 FFF7FEFF 		bl	CyDelay
  48:.\main.c      **** 	test =ETH0_SocketRxDataWaiting(socket);						// I would like to see here zero
 138              		.loc 1 48 0
 139 00a8 7B1D     		add	r3, r7, #5
 140 00aa 1B78     		ldrb	r3, [r3]
 141 00ac 181C     		mov	r0, r3
 142 00ae FFF7FEFF 		bl	ETH0_SocketRxDataWaiting
 143 00b2 031C     		mov	r3, r0
 144 00b4 1A1C     		mov	r2, r3
 145 00b6 BB1D     		add	r3, r7, #6
 146 00b8 1A70     		strb	r2, [r3]
  49:.\main.c      **** 	// When I install a flag = 1, in W5100.c   as here      str. 1394    `$INSTANCE_NAME`_ProcessRxDat
  50:.\main.c      **** 	// the function ETH0_SocketRxDataWaiting(socket) will work correctly (return 0)
  51:.\main.c      **** 
  52:.\main.c      **** 	sprintf(OutputString,"  <--I read %d bytes, then read RxDataWaiting = %d \r ",length, test);
 147              		.loc 1 52 0
 148 00ba FB1D     		add	r3, r7, #7
 149 00bc 1A78     		ldrb	r2, [r3]
 150 00be BB1D     		add	r3, r7, #6
 151 00c0 1B78     		ldrb	r3, [r3]
 152 00c2 0B48     		ldr	r0, .L7+8
 153 00c4 0B49     		ldr	r1, .L7+12
 154 00c6 FFF7FEFF 		bl	sprintf
  53:.\main.c      **** 	ETH0_TcpPrint(socket,OutputString);	
 155              		.loc 1 53 0
 156 00ca 7B1D     		add	r3, r7, #5
 157 00cc 1A78     		ldrb	r2, [r3]
 158 00ce 084B     		ldr	r3, .L7+8
 159 00d0 101C     		mov	r0, r2
 160 00d2 191C     		mov	r1, r3
 161 00d4 FFF7FEFF 		bl	ETH0_TcpPrint
  54:.\main.c      **** 	
  55:.\main.c      **** 	CyDelay(500);
 162              		.loc 1 55 0
 163 00d8 FA23     		mov	r3, #250
 164 00da 5B00     		lsl	r3, r3, #1
ARM GAS  C:\DOCUME~1\ADMINI~1\LOCALS~1\Temp\cc67JYHl.s 			page 5


 165 00dc 181C     		mov	r0, r3
 166 00de FFF7FEFF 		bl	CyDelay
  56:.\main.c      **** 	//ETH0_TcpDisconnect( socket );
  57:.\main.c      **** 	//ETH0_SocketClose( socket );
  58:.\main.c      **** 	}
 167              		.loc 1 58 0
 168 00e2 C046     		mov	r8, r8
  39:.\main.c      **** 	while ( !ETH0_TcpConnected( socket ) ) {CyDelay(100);}	/* wait for a connection, and delay the fla
 169              		.loc 1 39 0
 170 00e4 A8E7     		b	.L2
 171              	.L8:
 172 00e6 C046     		.align	2
 173              	.L7:
 174 00e8 00000000 		.word	.LC0
 175 00ec 00000000 		.word	randomData
 176 00f0 00000000 		.word	OutputString
 177 00f4 14000000 		.word	.LC4
 178              		.cfi_endproc
 179              	.LFE33:
 180              		.size	pavloven_test, .-pavloven_test
 181              		.global	__aeabi_idivmod
 182              		.section	.rodata
 183 004a 0000     		.align	2
 184              	.LC7:
 185 004c 57656C63 		.ascii	"Welcome to the PSoC4 Pioneer Board!\015\012\000"
 185      6F6D6520 
 185      746F2074 
 185      68652050 
 185      536F4334 
 186 0072 0000     		.align	2
 187              	.LC9:
 188 0074 2D2D2D2D 		.ascii	"---------------------------------------------------"
 188      2D2D2D2D 
 188      2D2D2D2D 
 188      2D2D2D2D 
 188      2D2D2D2D 
 189 00a7 2D2D2D2D 		.ascii	"-------------------------\015\012\015\012\000"
 189      2D2D2D2D 
 189      2D2D2D2D 
 189      2D2D2D2D 
 189      2D2D2D2D 
 190 00c5 000000   		.align	2
 191              	.LC11:
 192 00c8 506C6561 		.ascii	"Please Press a key: \000"
 192      73652050 
 192      72657373 
 192      2061206B 
 192      65793A20 
 193 00dd 000000   		.align	2
 194              	.LC13:
 195 00e0 5C200D00 		.ascii	"\\ \015\000"
 196              		.align	2
 197              	.LC15:
 198 00e4 7C0D00   		.ascii	"|\015\000"
 199 00e7 00       		.align	2
 200              	.LC17:
 201 00e8 2F0D00   		.ascii	"/\015\000"
ARM GAS  C:\DOCUME~1\ADMINI~1\LOCALS~1\Temp\cc67JYHl.s 			page 6


 202 00eb 00       		.align	2
 203              	.LC19:
 204 00ec 2D0D00   		.ascii	"-\015\000"
 205 00ef 00       		.align	2
 206              	.LC21:
 207 00f0 0D0A5468 		.ascii	"\015\012Thank You! :-) \000"
 207      616E6B20 
 207      596F7521 
 207      203A2D29 
 207      2000
 208 0102 0000     		.section	.text.main,"ax",%progbits
 209              		.align	2
 210              		.global	main
 211              		.code	16
 212              		.thumb_func
 213              		.type	main, %function
 214              	main:
 215              	.LFB34:
  59:.\main.c      **** }
  60:.\main.c      **** 
  61:.\main.c      **** int main()
  62:.\main.c      **** {
 216              		.loc 1 62 0
 217              		.cfi_startproc
 218 0000 90B5     		push	{r4, r7, lr}
 219              	.LCFI3:
 220              		.cfi_def_cfa_offset 12
 221              		.cfi_offset 4, -12
 222              		.cfi_offset 7, -8
 223              		.cfi_offset 14, -4
 224 0002 A5B0     		sub	sp, sp, #148
 225              	.LCFI4:
 226              		.cfi_def_cfa_offset 160
 227 0004 00AF     		add	r7, sp, #0
 228              	.LCFI5:
 229              		.cfi_def_cfa_register 7
  63:.\main.c      **** 	char buffer[128];
  64:.\main.c      **** 	uint8 socket;
  65:.\main.c      **** 	uint16 length;
  66:.\main.c      **** 	int temp;
  67:.\main.c      **** 	uint8 red;
  68:.\main.c      **** 	uint8 green;
  69:.\main.c      **** 	uint8 blue;
  70:.\main.c      **** 	
  71:.\main.c      **** 	pavloven_test();
 230              		.loc 1 71 0
 231 0006 FFF7FEFF 		bl	pavloven_test
  72:.\main.c      **** 	
  73:.\main.c      ****     /* Place your initialization/startup code here (e.g. MyInst_Start()) */
  74:.\main.c      **** 	SPI0_Start();
 232              		.loc 1 74 0
 233 000a FFF7FEFF 		bl	SPI0_Start
  75:.\main.c      **** 	ETH0_Start();
 234              		.loc 1 75 0
 235 000e FFF7FEFF 		bl	ETH0_Start
  76:.\main.c      **** 	LED0_Start();
 236              		.loc 1 76 0
ARM GAS  C:\DOCUME~1\ADMINI~1\LOCALS~1\Temp\cc67JYHl.s 			page 7


 237 0012 FFF7FEFF 		bl	LED0_Start
  77:.\main.c      **** 	LED1_Start();
 238              		.loc 1 77 0
 239 0016 FFF7FEFF 		bl	LED1_Start
  78:.\main.c      **** 	SDCS_Write(1);
 240              		.loc 1 78 0
 241 001a 0120     		mov	r0, #1
 242 001c FFF7FEFF 		bl	SDCS_Write
  79:.\main.c      **** 	
  80:.\main.c      **** 	/* Generate some random bytes to transmit to the Ethernet client */
  81:.\main.c      **** 	for (temp = 0; temp < 2000; ++temp)
 243              		.loc 1 81 0
 244 0020 0023     		mov	r3, #0
 245 0022 8C20     		mov	r0, #140
 246 0024 C019     		add	r0, r0, r7
 247 0026 0360     		str	r3, [r0]
 248 0028 15E0     		b	.L10
 249              	.L11:
  82:.\main.c      **** 	{
  83:.\main.c      **** 		randomData[temp] = (rand()&0x17) + 'A';
 250              		.loc 1 83 0 discriminator 2
 251 002a FFF7FEFF 		bl	rand
 252 002e 031C     		mov	r3, r0
 253 0030 DAB2     		uxtb	r2, r3
 254 0032 1723     		mov	r3, #23
 255 0034 1340     		and	r3, r2
 256 0036 DBB2     		uxtb	r3, r3
 257 0038 4133     		add	r3, r3, #65
 258 003a DAB2     		uxtb	r2, r3
 259 003c 9C49     		ldr	r1, .L23
 260 003e 8C20     		mov	r0, #140
 261 0040 C019     		add	r0, r0, r7
 262 0042 0368     		ldr	r3, [r0]
 263 0044 CB18     		add	r3, r1, r3
 264 0046 1A70     		strb	r2, [r3]
  81:.\main.c      **** 	for (temp = 0; temp < 2000; ++temp)
 265              		.loc 1 81 0 discriminator 2
 266 0048 8C22     		mov	r2, #140
 267 004a D219     		add	r2, r2, r7
 268 004c 1368     		ldr	r3, [r2]
 269 004e 0133     		add	r3, r3, #1
 270 0050 8C20     		mov	r0, #140
 271 0052 C019     		add	r0, r0, r7
 272 0054 0360     		str	r3, [r0]
 273              	.L10:
  81:.\main.c      **** 	for (temp = 0; temp < 2000; ++temp)
 274              		.loc 1 81 0 is_stmt 0 discriminator 1
 275 0056 8C23     		mov	r3, #140
 276 0058 DB19     		add	r3, r3, r7
 277 005a 1A68     		ldr	r2, [r3]
 278 005c 954B     		ldr	r3, .L23+4
 279 005e 9A42     		cmp	r2, r3
 280 0060 E3DD     		ble	.L11
  84:.\main.c      **** 	}
  85:.\main.c      **** //    CyGlobalIntEnable; /* Uncomment this line to enable global interrupts. */
  86:.\main.c      **** 	
  87:.\main.c      **** 	/*
ARM GAS  C:\DOCUME~1\ADMINI~1\LOCALS~1\Temp\cc67JYHl.s 			page 8


  88:.\main.c      **** 	 * initialize the local variables to produce a
  89:.\main.c      **** 	 * (somewhat) random default color for the LED
  90:.\main.c      **** 	 */
  91:.\main.c      **** 	red = rand()&0xFF;
 281              		.loc 1 91 0 is_stmt 1
 282 0062 FFF7FEFF 		bl	rand
 283 0066 021C     		mov	r2, r0
 284 0068 3B1C     		mov	r3, r7
 285 006a 8B33     		add	r3, r3, #139
 286 006c 1A70     		strb	r2, [r3]
  92:.\main.c      **** 	green = rand() % 0xFF;
 287              		.loc 1 92 0
 288 006e FFF7FEFF 		bl	rand
 289 0072 031C     		mov	r3, r0
 290 0074 181C     		mov	r0, r3
 291 0076 FF21     		mov	r1, #255
 292 0078 FFF7FEFF 		bl	__aeabi_idivmod
 293 007c 0B1C     		mov	r3, r1
 294 007e 1A1C     		mov	r2, r3
 295 0080 3B1C     		mov	r3, r7
 296 0082 8A33     		add	r3, r3, #138
 297 0084 1A70     		strb	r2, [r3]
  93:.\main.c      **** 	blue = rand() % 0xFF;
 298              		.loc 1 93 0
 299 0086 FFF7FEFF 		bl	rand
 300 008a 031C     		mov	r3, r0
 301 008c 181C     		mov	r0, r3
 302 008e FF21     		mov	r1, #255
 303 0090 FFF7FEFF 		bl	__aeabi_idivmod
 304 0094 0B1C     		mov	r3, r1
 305 0096 1A1C     		mov	r2, r3
 306 0098 3B1C     		mov	r3, r7
 307 009a 8933     		add	r3, r3, #137
 308 009c 1A70     		strb	r2, [r3]
  94:.\main.c      **** 	
  95:.\main.c      **** 	/*
  96:.\main.c      **** 	 * Set the RGB LED color by writing the 2 PRiSM
  97:.\main.c      **** 	 * components to set the LED brightness
  98:.\main.c      **** 	 */
  99:.\main.c      **** 	LED0_WritePulse0( red );
 309              		.loc 1 99 0
 310 009e 3B1C     		mov	r3, r7
 311 00a0 8B33     		add	r3, r3, #139
 312 00a2 1B78     		ldrb	r3, [r3]
 313 00a4 181C     		mov	r0, r3
 314 00a6 FFF7FEFF 		bl	LED0_WritePulse0
 100:.\main.c      **** 	LED0_WritePulse1( green );
 315              		.loc 1 100 0
 316 00aa 3B1C     		mov	r3, r7
 317 00ac 8A33     		add	r3, r3, #138
 318 00ae 1B78     		ldrb	r3, [r3]
 319 00b0 181C     		mov	r0, r3
 320 00b2 FFF7FEFF 		bl	LED0_WritePulse1
 101:.\main.c      **** 	LED1_WritePulse0( blue );
 321              		.loc 1 101 0
 322 00b6 3B1C     		mov	r3, r7
 323 00b8 8933     		add	r3, r3, #137
ARM GAS  C:\DOCUME~1\ADMINI~1\LOCALS~1\Temp\cc67JYHl.s 			page 9


 324 00ba 1B78     		ldrb	r3, [r3]
 325 00bc 181C     		mov	r0, r3
 326 00be FFF7FEFF 		bl	LED1_WritePulse0
 327              	.L22:
 102:.\main.c      **** 	
 103:.\main.c      ****     for(;;)
 104:.\main.c      ****     {
 105:.\main.c      ****         /* Place your application code here. */
 106:.\main.c      **** 		socket = ETH0_TcpOpen( 23 );
 328              		.loc 1 106 0
 329 00c2 3C1C     		mov	r4, r7
 330 00c4 8834     		add	r4, r4, #136
 331 00c6 1720     		mov	r0, #23
 332 00c8 FFF7FEFF 		bl	ETH0_TcpOpen
 333 00cc 031C     		mov	r3, r0
 334 00ce 2370     		strb	r3, [r4]
 107:.\main.c      **** 		ETH0_TcpStartServer( socket );
 335              		.loc 1 107 0
 336 00d0 3B1C     		mov	r3, r7
 337 00d2 8833     		add	r3, r3, #136
 338 00d4 1B78     		ldrb	r3, [r3]
 339 00d6 181C     		mov	r0, r3
 340 00d8 FFF7FEFF 		bl	ETH0_TcpStartServer
 108:.\main.c      **** 		while ( !ETH0_TcpConnected( socket ) ) {
 341              		.loc 1 108 0
 342 00dc 38E0     		b	.L12
 343              	.L13:
 109:.\main.c      **** 			/*
 110:.\main.c      **** 			 * While we are waiting for the client to attach
 111:.\main.c      **** 			 * to the server, flash some random colors on the
 112:.\main.c      **** 			 * LED to provide entertainment.
 113:.\main.c      **** 			 */
 114:.\main.c      **** 			red = rand() % 0xFF;
 344              		.loc 1 114 0
 345 00de FFF7FEFF 		bl	rand
 346 00e2 031C     		mov	r3, r0
 347 00e4 181C     		mov	r0, r3
 348 00e6 FF21     		mov	r1, #255
 349 00e8 FFF7FEFF 		bl	__aeabi_idivmod
 350 00ec 0B1C     		mov	r3, r1
 351 00ee 1A1C     		mov	r2, r3
 352 00f0 3B1C     		mov	r3, r7
 353 00f2 8B33     		add	r3, r3, #139
 354 00f4 1A70     		strb	r2, [r3]
 115:.\main.c      **** 			green = rand() % 0xFF;
 355              		.loc 1 115 0
 356 00f6 FFF7FEFF 		bl	rand
 357 00fa 031C     		mov	r3, r0
 358 00fc 181C     		mov	r0, r3
 359 00fe FF21     		mov	r1, #255
 360 0100 FFF7FEFF 		bl	__aeabi_idivmod
 361 0104 0B1C     		mov	r3, r1
 362 0106 1A1C     		mov	r2, r3
 363 0108 3B1C     		mov	r3, r7
 364 010a 8A33     		add	r3, r3, #138
 365 010c 1A70     		strb	r2, [r3]
 116:.\main.c      **** 			blue = rand() % 0xFF;
ARM GAS  C:\DOCUME~1\ADMINI~1\LOCALS~1\Temp\cc67JYHl.s 			page 10


 366              		.loc 1 116 0
 367 010e FFF7FEFF 		bl	rand
 368 0112 031C     		mov	r3, r0
 369 0114 181C     		mov	r0, r3
 370 0116 FF21     		mov	r1, #255
 371 0118 FFF7FEFF 		bl	__aeabi_idivmod
 372 011c 0B1C     		mov	r3, r1
 373 011e 1A1C     		mov	r2, r3
 374 0120 3B1C     		mov	r3, r7
 375 0122 8933     		add	r3, r3, #137
 376 0124 1A70     		strb	r2, [r3]
 117:.\main.c      **** 			LED0_WritePulse0( red );
 377              		.loc 1 117 0
 378 0126 3B1C     		mov	r3, r7
 379 0128 8B33     		add	r3, r3, #139
 380 012a 1B78     		ldrb	r3, [r3]
 381 012c 181C     		mov	r0, r3
 382 012e FFF7FEFF 		bl	LED0_WritePulse0
 118:.\main.c      **** 			LED0_WritePulse1( green );
 383              		.loc 1 118 0
 384 0132 3B1C     		mov	r3, r7
 385 0134 8A33     		add	r3, r3, #138
 386 0136 1B78     		ldrb	r3, [r3]
 387 0138 181C     		mov	r0, r3
 388 013a FFF7FEFF 		bl	LED0_WritePulse1
 119:.\main.c      **** 			LED1_WritePulse0( blue );
 389              		.loc 1 119 0
 390 013e 3B1C     		mov	r3, r7
 391 0140 8933     		add	r3, r3, #137
 392 0142 1B78     		ldrb	r3, [r3]
 393 0144 181C     		mov	r0, r3
 394 0146 FFF7FEFF 		bl	LED1_WritePulse0
 120:.\main.c      **** 			/* wait for a connection, and delay the flashes */
 121:.\main.c      **** 			CyDelay(250);
 395              		.loc 1 121 0
 396 014a FA20     		mov	r0, #250
 397 014c FFF7FEFF 		bl	CyDelay
 398              	.L12:
 108:.\main.c      **** 		while ( !ETH0_TcpConnected( socket ) ) {
 399              		.loc 1 108 0 discriminator 1
 400 0150 3B1C     		mov	r3, r7
 401 0152 8833     		add	r3, r3, #136
 402 0154 1B78     		ldrb	r3, [r3]
 403 0156 181C     		mov	r0, r3
 404 0158 FFF7FEFF 		bl	ETH0_TcpConnected
 405 015c 031C     		mov	r3, r0
 406 015e 002B     		cmp	r3, #0
 407 0160 BDD0     		beq	.L13
 122:.\main.c      **** 		}
 123:.\main.c      **** 		/*
 124:.\main.c      **** 		 * Send the Logon welcom message to the client.
 125:.\main.c      **** 		 */
 126:.\main.c      **** 		ETH0_TcpPrint(socket,"Welcome to the PSoC4 Pioneer Board!\r\n");
 408              		.loc 1 126 0
 409 0162 3B1C     		mov	r3, r7
 410 0164 8833     		add	r3, r3, #136
 411 0166 1A78     		ldrb	r2, [r3]
ARM GAS  C:\DOCUME~1\ADMINI~1\LOCALS~1\Temp\cc67JYHl.s 			page 11


 412 0168 534B     		ldr	r3, .L23+8
 413 016a 101C     		mov	r0, r2
 414 016c 191C     		mov	r1, r3
 415 016e FFF7FEFF 		bl	ETH0_TcpPrint
 127:.\main.c      **** 		ETH0_TcpPrint(socket,"---------------------------------------------------------------------------
 416              		.loc 1 127 0
 417 0172 3B1C     		mov	r3, r7
 418 0174 8833     		add	r3, r3, #136
 419 0176 1A78     		ldrb	r2, [r3]
 420 0178 504B     		ldr	r3, .L23+12
 421 017a 101C     		mov	r0, r2
 422 017c 191C     		mov	r1, r3
 423 017e FFF7FEFF 		bl	ETH0_TcpPrint
 128:.\main.c      **** 		temp = 0;
 424              		.loc 1 128 0
 425 0182 0023     		mov	r3, #0
 426 0184 8C20     		mov	r0, #140
 427 0186 C019     		add	r0, r0, r7
 428 0188 0360     		str	r3, [r0]
 129:.\main.c      **** 		while( ETH0_SocketRxDataWaiting(socket) == 0) {
 429              		.loc 1 129 0
 430 018a 45E0     		b	.L14
 431              	.L21:
 130:.\main.c      **** 			ETH0_TcpPrint(socket, "Please Press a key: ");
 432              		.loc 1 130 0
 433 018c 3B1C     		mov	r3, r7
 434 018e 8833     		add	r3, r3, #136
 435 0190 1A78     		ldrb	r2, [r3]
 436 0192 4B4B     		ldr	r3, .L23+16
 437 0194 101C     		mov	r0, r2
 438 0196 191C     		mov	r1, r3
 439 0198 FFF7FEFF 		bl	ETH0_TcpPrint
 131:.\main.c      **** 			switch(temp) {
 440              		.loc 1 131 0
 441 019c 8C22     		mov	r2, #140
 442 019e D219     		add	r2, r2, r7
 443 01a0 1368     		ldr	r3, [r2]
 444 01a2 012B     		cmp	r3, #1
 445 01a4 11D0     		beq	.L17
 446 01a6 02DC     		bgt	.L20
 447 01a8 002B     		cmp	r3, #0
 448 01aa 05D0     		beq	.L16
 449 01ac 28E0     		b	.L15
 450              	.L20:
 451 01ae 022B     		cmp	r3, #2
 452 01b0 14D0     		beq	.L18
 453 01b2 032B     		cmp	r3, #3
 454 01b4 1BD0     		beq	.L19
 455 01b6 23E0     		b	.L15
 456              	.L16:
 132:.\main.c      **** 				case 0:
 133:.\main.c      **** 					ETH0_TcpPrint(socket, "\\ \r");
 457              		.loc 1 133 0
 458 01b8 3B1C     		mov	r3, r7
 459 01ba 8833     		add	r3, r3, #136
 460 01bc 1A78     		ldrb	r2, [r3]
 461 01be 414B     		ldr	r3, .L23+20
ARM GAS  C:\DOCUME~1\ADMINI~1\LOCALS~1\Temp\cc67JYHl.s 			page 12


 462 01c0 101C     		mov	r0, r2
 463 01c2 191C     		mov	r1, r3
 464 01c4 FFF7FEFF 		bl	ETH0_TcpPrint
 134:.\main.c      **** 					break;
 465              		.loc 1 134 0
 466 01c8 1AE0     		b	.L15
 467              	.L17:
 135:.\main.c      **** 				case 1:
 136:.\main.c      **** 					ETH0_TcpPrint(socket, "|\r");
 468              		.loc 1 136 0
 469 01ca 3B1C     		mov	r3, r7
 470 01cc 8833     		add	r3, r3, #136
 471 01ce 1A78     		ldrb	r2, [r3]
 472 01d0 3D4B     		ldr	r3, .L23+24
 473 01d2 101C     		mov	r0, r2
 474 01d4 191C     		mov	r1, r3
 475 01d6 FFF7FEFF 		bl	ETH0_TcpPrint
 137:.\main.c      **** 					break;
 476              		.loc 1 137 0
 477 01da 11E0     		b	.L15
 478              	.L18:
 138:.\main.c      **** 				case 2:
 139:.\main.c      **** 					ETH0_TcpPrint(socket, "/\r");
 479              		.loc 1 139 0
 480 01dc 3B1C     		mov	r3, r7
 481 01de 8833     		add	r3, r3, #136
 482 01e0 1A78     		ldrb	r2, [r3]
 483 01e2 3A4B     		ldr	r3, .L23+28
 484 01e4 101C     		mov	r0, r2
 485 01e6 191C     		mov	r1, r3
 486 01e8 FFF7FEFF 		bl	ETH0_TcpPrint
 140:.\main.c      **** 					break;
 487              		.loc 1 140 0
 488 01ec 08E0     		b	.L15
 489              	.L19:
 141:.\main.c      **** 				case 3:
 142:.\main.c      **** 					ETH0_TcpPrint(socket, "-\r");
 490              		.loc 1 142 0
 491 01ee 3B1C     		mov	r3, r7
 492 01f0 8833     		add	r3, r3, #136
 493 01f2 1A78     		ldrb	r2, [r3]
 494 01f4 364B     		ldr	r3, .L23+32
 495 01f6 101C     		mov	r0, r2
 496 01f8 191C     		mov	r1, r3
 497 01fa FFF7FEFF 		bl	ETH0_TcpPrint
 143:.\main.c      **** 					break;
 498              		.loc 1 143 0
 499 01fe C046     		mov	r8, r8
 500              	.L15:
 144:.\main.c      **** 			}
 145:.\main.c      **** 			temp = (temp + 1) & 3;
 501              		.loc 1 145 0
 502 0200 8C20     		mov	r0, #140
 503 0202 C019     		add	r0, r0, r7
 504 0204 0368     		ldr	r3, [r0]
 505 0206 5A1C     		add	r2, r3, #1
 506 0208 0323     		mov	r3, #3
ARM GAS  C:\DOCUME~1\ADMINI~1\LOCALS~1\Temp\cc67JYHl.s 			page 13


 507 020a 1340     		and	r3, r2
 508 020c 8C22     		mov	r2, #140
 509 020e D219     		add	r2, r2, r7
 510 0210 1360     		str	r3, [r2]
 146:.\main.c      **** 			CyDelay(1);
 511              		.loc 1 146 0
 512 0212 0120     		mov	r0, #1
 513 0214 FFF7FEFF 		bl	CyDelay
 514              	.L14:
 129:.\main.c      **** 		while( ETH0_SocketRxDataWaiting(socket) == 0) {
 515              		.loc 1 129 0 discriminator 1
 516 0218 3B1C     		mov	r3, r7
 517 021a 8833     		add	r3, r3, #136
 518 021c 1B78     		ldrb	r3, [r3]
 519 021e 181C     		mov	r0, r3
 520 0220 FFF7FEFF 		bl	ETH0_SocketRxDataWaiting
 521 0224 031C     		mov	r3, r0
 522 0226 002B     		cmp	r3, #0
 523 0228 B0D0     		beq	.L21
 147:.\main.c      **** 		}
 148:.\main.c      **** 		ETH0_TcpPrint(socket,"\r\nThank You! :-) ");
 524              		.loc 1 148 0
 525 022a 3B1C     		mov	r3, r7
 526 022c 8833     		add	r3, r3, #136
 527 022e 1A78     		ldrb	r2, [r3]
 528 0230 284B     		ldr	r3, .L23+36
 529 0232 101C     		mov	r0, r2
 530 0234 191C     		mov	r1, r3
 531 0236 FFF7FEFF 		bl	ETH0_TcpPrint
 149:.\main.c      **** 		length = ETH0_TcpReceive(socket,(uint8*)&buffer[0],128);
 532              		.loc 1 149 0
 533 023a 3C1C     		mov	r4, r7
 534 023c 8634     		add	r4, r4, #134
 535 023e 3B1C     		mov	r3, r7
 536 0240 8833     		add	r3, r3, #136
 537 0242 1A78     		ldrb	r2, [r3]
 538 0244 3B1D     		add	r3, r7, #4
 539 0246 101C     		mov	r0, r2
 540 0248 191C     		mov	r1, r3
 541 024a 8022     		mov	r2, #128
 542 024c FFF7FEFF 		bl	ETH0_TcpReceive
 543 0250 031C     		mov	r3, r0
 544 0252 2380     		strh	r3, [r4]
 150:.\main.c      **** 		ETH0_TcpSend(socket,(uint8*)&buffer[0],length);
 545              		.loc 1 150 0
 546 0254 3B1C     		mov	r3, r7
 547 0256 8833     		add	r3, r3, #136
 548 0258 1978     		ldrb	r1, [r3]
 549 025a 3A1D     		add	r2, r7, #4
 550 025c 3B1C     		mov	r3, r7
 551 025e 8633     		add	r3, r3, #134
 552 0260 1B88     		ldrh	r3, [r3]
 553 0262 081C     		mov	r0, r1
 554 0264 111C     		mov	r1, r2
 555 0266 1A1C     		mov	r2, r3
 556 0268 FFF7FEFF 		bl	ETH0_TcpSend
 151:.\main.c      **** 		
ARM GAS  C:\DOCUME~1\ADMINI~1\LOCALS~1\Temp\cc67JYHl.s 			page 14


 152:.\main.c      **** 		/* pavloven test: TcpSend() of 2000 bytes */
 153:.\main.c      **** 		/* set I/O pin low for timing */
 154:.\main.c      **** 		SDCS_Write(0);
 557              		.loc 1 154 0
 558 026c 0020     		mov	r0, #0
 559 026e FFF7FEFF 		bl	SDCS_Write
 155:.\main.c      **** 		/* Transmit 2000 bytes through the driver to the host */
 156:.\main.c      **** 		ETH0_TcpSend(socket,(uint8*)&randomData[0], 2000);
 560              		.loc 1 156 0
 561 0272 3B1C     		mov	r3, r7
 562 0274 8833     		add	r3, r3, #136
 563 0276 1978     		ldrb	r1, [r3]
 564 0278 0D4A     		ldr	r2, .L23
 565 027a FA23     		mov	r3, #250
 566 027c DB00     		lsl	r3, r3, #3
 567 027e 081C     		mov	r0, r1
 568 0280 111C     		mov	r1, r2
 569 0282 1A1C     		mov	r2, r3
 570 0284 FFF7FEFF 		bl	ETH0_TcpSend
 157:.\main.c      **** 		/* Set I/O pin high for measuring time */
 158:.\main.c      **** 		SDCS_Write(1);
 571              		.loc 1 158 0
 572 0288 0120     		mov	r0, #1
 573 028a FFF7FEFF 		bl	SDCS_Write
 159:.\main.c      **** 		/* end test : measured time 30.20275 ms (Effective data rate: 529753 bps) */
 160:.\main.c      **** 		
 161:.\main.c      **** 		ETH0_TcpDisconnect( socket );
 574              		.loc 1 161 0
 575 028e 3B1C     		mov	r3, r7
 576 0290 8833     		add	r3, r3, #136
 577 0292 1B78     		ldrb	r3, [r3]
 578 0294 181C     		mov	r0, r3
 579 0296 FFF7FEFF 		bl	ETH0_TcpDisconnect
 162:.\main.c      **** 		ETH0_SocketClose( socket );
 580              		.loc 1 162 0
 581 029a 3B1C     		mov	r3, r7
 582 029c 8833     		add	r3, r3, #136
 583 029e 1B78     		ldrb	r3, [r3]
 584 02a0 181C     		mov	r0, r3
 585 02a2 FFF7FEFF 		bl	ETH0_SocketClose
 163:.\main.c      **** 		CyDelay(10);
 586              		.loc 1 163 0
 587 02a6 0A20     		mov	r0, #10
 588 02a8 FFF7FEFF 		bl	CyDelay
 164:.\main.c      ****     }
 589              		.loc 1 164 0
 590 02ac 09E7     		b	.L22
 591              	.L24:
 592 02ae C046     		.align	2
 593              	.L23:
 594 02b0 00000000 		.word	randomData
 595 02b4 CF070000 		.word	1999
 596 02b8 4C000000 		.word	.LC7
 597 02bc 74000000 		.word	.LC9
 598 02c0 C8000000 		.word	.LC11
 599 02c4 E0000000 		.word	.LC13
 600 02c8 E4000000 		.word	.LC15
ARM GAS  C:\DOCUME~1\ADMINI~1\LOCALS~1\Temp\cc67JYHl.s 			page 15


 601 02cc E8000000 		.word	.LC17
 602 02d0 EC000000 		.word	.LC19
 603 02d4 F0000000 		.word	.LC21
 604              		.cfi_endproc
 605              	.LFE34:
 606              		.size	main, .-main
 607              		.text
 608              	.Letext0:
 609              		.file 2 "./Generated_Source/PSoC4/cytypes.h"
 610              		.section	.debug_info,"",%progbits
 611              	.Ldebug_info0:
 612 0000 B9010000 		.4byte	0x1b9
 613 0004 0200     		.2byte	0x2
 614 0006 00000000 		.4byte	.Ldebug_abbrev0
 615 000a 04       		.byte	0x4
 616 000b 01       		.uleb128 0x1
 617 000c 0B010000 		.4byte	.LASF26
 618 0010 01       		.byte	0x1
 619 0011 56000000 		.4byte	.LASF27
 620 0015 BD000000 		.4byte	.LASF28
 621 0019 00000000 		.4byte	.Ldebug_ranges0+0
 622 001d 00000000 		.4byte	0
 623 0021 00000000 		.4byte	0
 624 0025 00000000 		.4byte	.Ldebug_line0
 625 0029 02       		.uleb128 0x2
 626 002a 01       		.byte	0x1
 627 002b 06       		.byte	0x6
 628 002c 76010000 		.4byte	.LASF0
 629 0030 02       		.uleb128 0x2
 630 0031 01       		.byte	0x1
 631 0032 08       		.byte	0x8
 632 0033 1E000000 		.4byte	.LASF1
 633 0037 02       		.uleb128 0x2
 634 0038 02       		.byte	0x2
 635 0039 05       		.byte	0x5
 636 003a FA000000 		.4byte	.LASF2
 637 003e 02       		.uleb128 0x2
 638 003f 02       		.byte	0x2
 639 0040 07       		.byte	0x7
 640 0041 00000000 		.4byte	.LASF3
 641 0045 02       		.uleb128 0x2
 642 0046 04       		.byte	0x4
 643 0047 05       		.byte	0x5
 644 0048 5B010000 		.4byte	.LASF4
 645 004c 02       		.uleb128 0x2
 646 004d 04       		.byte	0x4
 647 004e 07       		.byte	0x7
 648 004f 2C000000 		.4byte	.LASF5
 649 0053 02       		.uleb128 0x2
 650 0054 08       		.byte	0x8
 651 0055 05       		.byte	0x5
 652 0056 AA000000 		.4byte	.LASF6
 653 005a 02       		.uleb128 0x2
 654 005b 08       		.byte	0x8
 655 005c 07       		.byte	0x7
 656 005d 8A000000 		.4byte	.LASF7
 657 0061 03       		.uleb128 0x3
ARM GAS  C:\DOCUME~1\ADMINI~1\LOCALS~1\Temp\cc67JYHl.s 			page 16


 658 0062 04       		.byte	0x4
 659 0063 05       		.byte	0x5
 660 0064 696E7400 		.ascii	"int\000"
 661 0068 02       		.uleb128 0x2
 662 0069 04       		.byte	0x4
 663 006a 07       		.byte	0x7
 664 006b 7D000000 		.4byte	.LASF8
 665 006f 04       		.uleb128 0x4
 666 0070 43000000 		.4byte	.LASF9
 667 0074 02       		.byte	0x2
 668 0075 5B       		.byte	0x5b
 669 0076 30000000 		.4byte	0x30
 670 007a 04       		.uleb128 0x4
 671 007b 6C000000 		.4byte	.LASF10
 672 007f 02       		.byte	0x2
 673 0080 5C       		.byte	0x5c
 674 0081 3E000000 		.4byte	0x3e
 675 0085 02       		.uleb128 0x2
 676 0086 04       		.byte	0x4
 677 0087 04       		.byte	0x4
 678 0088 18000000 		.4byte	.LASF11
 679 008c 02       		.uleb128 0x2
 680 008d 08       		.byte	0x8
 681 008e 04       		.byte	0x4
 682 008f 4F000000 		.4byte	.LASF12
 683 0093 02       		.uleb128 0x2
 684 0094 01       		.byte	0x1
 685 0095 08       		.byte	0x8
 686 0096 B8000000 		.4byte	.LASF13
 687 009a 02       		.uleb128 0x2
 688 009b 04       		.byte	0x4
 689 009c 07       		.byte	0x7
 690 009d A1000000 		.4byte	.LASF14
 691 00a1 05       		.uleb128 0x5
 692 00a2 01       		.byte	0x1
 693 00a3 82010000 		.4byte	.LASF18
 694 00a7 01       		.byte	0x1
 695 00a8 19       		.byte	0x19
 696 00a9 01       		.byte	0x1
 697 00aa 00000000 		.4byte	.LFB33
 698 00ae F8000000 		.4byte	.LFE33
 699 00b2 00000000 		.4byte	.LLST0
 700 00b6 01       		.byte	0x1
 701 00b7 E6000000 		.4byte	0xe6
 702 00bb 06       		.uleb128 0x6
 703 00bc 54010000 		.4byte	.LASF15
 704 00c0 01       		.byte	0x1
 705 00c1 1B       		.byte	0x1b
 706 00c2 6F000000 		.4byte	0x6f
 707 00c6 02       		.byte	0x2
 708 00c7 91       		.byte	0x91
 709 00c8 6D       		.sleb128 -19
 710 00c9 06       		.uleb128 0x6
 711 00ca 6F010000 		.4byte	.LASF16
 712 00ce 01       		.byte	0x1
 713 00cf 1C       		.byte	0x1c
 714 00d0 6F000000 		.4byte	0x6f
ARM GAS  C:\DOCUME~1\ADMINI~1\LOCALS~1\Temp\cc67JYHl.s 			page 17


 715 00d4 02       		.byte	0x2
 716 00d5 91       		.byte	0x91
 717 00d6 6F       		.sleb128 -17
 718 00d7 06       		.uleb128 0x6
 719 00d8 78000000 		.4byte	.LASF17
 720 00dc 01       		.byte	0x1
 721 00dd 1D       		.byte	0x1d
 722 00de 6F000000 		.4byte	0x6f
 723 00e2 02       		.byte	0x2
 724 00e3 91       		.byte	0x91
 725 00e4 6E       		.sleb128 -18
 726 00e5 00       		.byte	0
 727 00e6 07       		.uleb128 0x7
 728 00e7 01       		.byte	0x1
 729 00e8 73000000 		.4byte	.LASF19
 730 00ec 01       		.byte	0x1
 731 00ed 3D       		.byte	0x3d
 732 00ee 61000000 		.4byte	0x61
 733 00f2 00000000 		.4byte	.LFB34
 734 00f6 D8020000 		.4byte	.LFE34
 735 00fa 38000000 		.4byte	.LLST1
 736 00fe 01       		.byte	0x1
 737 00ff 67010000 		.4byte	0x167
 738 0103 06       		.uleb128 0x6
 739 0104 04010000 		.4byte	.LASF20
 740 0108 01       		.byte	0x1
 741 0109 3F       		.byte	0x3f
 742 010a 67010000 		.4byte	0x167
 743 010e 03       		.byte	0x3
 744 010f 91       		.byte	0x91
 745 0110 E47E     		.sleb128 -156
 746 0112 06       		.uleb128 0x6
 747 0113 54010000 		.4byte	.LASF15
 748 0117 01       		.byte	0x1
 749 0118 40       		.byte	0x40
 750 0119 6F000000 		.4byte	0x6f
 751 011d 02       		.byte	0x2
 752 011e 91       		.byte	0x91
 753 011f 68       		.sleb128 -24
 754 0120 06       		.uleb128 0x6
 755 0121 6F010000 		.4byte	.LASF16
 756 0125 01       		.byte	0x1
 757 0126 41       		.byte	0x41
 758 0127 7A000000 		.4byte	0x7a
 759 012b 02       		.byte	0x2
 760 012c 91       		.byte	0x91
 761 012d 66       		.sleb128 -26
 762 012e 06       		.uleb128 0x6
 763 012f 3E000000 		.4byte	.LASF21
 764 0133 01       		.byte	0x1
 765 0134 42       		.byte	0x42
 766 0135 61000000 		.4byte	0x61
 767 0139 02       		.byte	0x2
 768 013a 91       		.byte	0x91
 769 013b 6C       		.sleb128 -20
 770 013c 08       		.uleb128 0x8
 771 013d 72656400 		.ascii	"red\000"
ARM GAS  C:\DOCUME~1\ADMINI~1\LOCALS~1\Temp\cc67JYHl.s 			page 18


 772 0141 01       		.byte	0x1
 773 0142 43       		.byte	0x43
 774 0143 6F000000 		.4byte	0x6f
 775 0147 02       		.byte	0x2
 776 0148 91       		.byte	0x91
 777 0149 6B       		.sleb128 -21
 778 014a 06       		.uleb128 0x6
 779 014b 49000000 		.4byte	.LASF22
 780 014f 01       		.byte	0x1
 781 0150 44       		.byte	0x44
 782 0151 6F000000 		.4byte	0x6f
 783 0155 02       		.byte	0x2
 784 0156 91       		.byte	0x91
 785 0157 6A       		.sleb128 -22
 786 0158 06       		.uleb128 0x6
 787 0159 13000000 		.4byte	.LASF23
 788 015d 01       		.byte	0x1
 789 015e 45       		.byte	0x45
 790 015f 6F000000 		.4byte	0x6f
 791 0163 02       		.byte	0x2
 792 0164 91       		.byte	0x91
 793 0165 69       		.sleb128 -23
 794 0166 00       		.byte	0
 795 0167 09       		.uleb128 0x9
 796 0168 93000000 		.4byte	0x93
 797 016c 77010000 		.4byte	0x177
 798 0170 0A       		.uleb128 0xa
 799 0171 9A000000 		.4byte	0x9a
 800 0175 7F       		.byte	0x7f
 801 0176 00       		.byte	0
 802 0177 09       		.uleb128 0x9
 803 0178 93000000 		.4byte	0x93
 804 017c 88010000 		.4byte	0x188
 805 0180 0B       		.uleb128 0xb
 806 0181 9A000000 		.4byte	0x9a
 807 0185 CF07     		.2byte	0x7cf
 808 0187 00       		.byte	0
 809 0188 0C       		.uleb128 0xc
 810 0189 64010000 		.4byte	.LASF24
 811 018d 01       		.byte	0x1
 812 018e 16       		.byte	0x16
 813 018f 77010000 		.4byte	0x177
 814 0193 01       		.byte	0x1
 815 0194 05       		.byte	0x5
 816 0195 03       		.byte	0x3
 817 0196 00000000 		.4byte	randomData
 818 019a 09       		.uleb128 0x9
 819 019b 93000000 		.4byte	0x93
 820 019f AA010000 		.4byte	0x1aa
 821 01a3 0A       		.uleb128 0xa
 822 01a4 9A000000 		.4byte	0x9a
 823 01a8 FE       		.byte	0xfe
 824 01a9 00       		.byte	0
 825 01aa 0C       		.uleb128 0xc
 826 01ab 5F000000 		.4byte	.LASF25
 827 01af 01       		.byte	0x1
 828 01b0 17       		.byte	0x17
ARM GAS  C:\DOCUME~1\ADMINI~1\LOCALS~1\Temp\cc67JYHl.s 			page 19


 829 01b1 9A010000 		.4byte	0x19a
 830 01b5 01       		.byte	0x1
 831 01b6 05       		.byte	0x5
 832 01b7 03       		.byte	0x3
 833 01b8 00000000 		.4byte	OutputString
 834 01bc 00       		.byte	0
 835              		.section	.debug_abbrev,"",%progbits
 836              	.Ldebug_abbrev0:
 837 0000 01       		.uleb128 0x1
 838 0001 11       		.uleb128 0x11
 839 0002 01       		.byte	0x1
 840 0003 25       		.uleb128 0x25
 841 0004 0E       		.uleb128 0xe
 842 0005 13       		.uleb128 0x13
 843 0006 0B       		.uleb128 0xb
 844 0007 03       		.uleb128 0x3
 845 0008 0E       		.uleb128 0xe
 846 0009 1B       		.uleb128 0x1b
 847 000a 0E       		.uleb128 0xe
 848 000b 55       		.uleb128 0x55
 849 000c 06       		.uleb128 0x6
 850 000d 11       		.uleb128 0x11
 851 000e 01       		.uleb128 0x1
 852 000f 52       		.uleb128 0x52
 853 0010 01       		.uleb128 0x1
 854 0011 10       		.uleb128 0x10
 855 0012 06       		.uleb128 0x6
 856 0013 00       		.byte	0
 857 0014 00       		.byte	0
 858 0015 02       		.uleb128 0x2
 859 0016 24       		.uleb128 0x24
 860 0017 00       		.byte	0
 861 0018 0B       		.uleb128 0xb
 862 0019 0B       		.uleb128 0xb
 863 001a 3E       		.uleb128 0x3e
 864 001b 0B       		.uleb128 0xb
 865 001c 03       		.uleb128 0x3
 866 001d 0E       		.uleb128 0xe
 867 001e 00       		.byte	0
 868 001f 00       		.byte	0
 869 0020 03       		.uleb128 0x3
 870 0021 24       		.uleb128 0x24
 871 0022 00       		.byte	0
 872 0023 0B       		.uleb128 0xb
 873 0024 0B       		.uleb128 0xb
 874 0025 3E       		.uleb128 0x3e
 875 0026 0B       		.uleb128 0xb
 876 0027 03       		.uleb128 0x3
 877 0028 08       		.uleb128 0x8
 878 0029 00       		.byte	0
 879 002a 00       		.byte	0
 880 002b 04       		.uleb128 0x4
 881 002c 16       		.uleb128 0x16
 882 002d 00       		.byte	0
 883 002e 03       		.uleb128 0x3
 884 002f 0E       		.uleb128 0xe
 885 0030 3A       		.uleb128 0x3a
ARM GAS  C:\DOCUME~1\ADMINI~1\LOCALS~1\Temp\cc67JYHl.s 			page 20


 886 0031 0B       		.uleb128 0xb
 887 0032 3B       		.uleb128 0x3b
 888 0033 0B       		.uleb128 0xb
 889 0034 49       		.uleb128 0x49
 890 0035 13       		.uleb128 0x13
 891 0036 00       		.byte	0
 892 0037 00       		.byte	0
 893 0038 05       		.uleb128 0x5
 894 0039 2E       		.uleb128 0x2e
 895 003a 01       		.byte	0x1
 896 003b 3F       		.uleb128 0x3f
 897 003c 0C       		.uleb128 0xc
 898 003d 03       		.uleb128 0x3
 899 003e 0E       		.uleb128 0xe
 900 003f 3A       		.uleb128 0x3a
 901 0040 0B       		.uleb128 0xb
 902 0041 3B       		.uleb128 0x3b
 903 0042 0B       		.uleb128 0xb
 904 0043 27       		.uleb128 0x27
 905 0044 0C       		.uleb128 0xc
 906 0045 11       		.uleb128 0x11
 907 0046 01       		.uleb128 0x1
 908 0047 12       		.uleb128 0x12
 909 0048 01       		.uleb128 0x1
 910 0049 40       		.uleb128 0x40
 911 004a 06       		.uleb128 0x6
 912 004b 9642     		.uleb128 0x2116
 913 004d 0C       		.uleb128 0xc
 914 004e 01       		.uleb128 0x1
 915 004f 13       		.uleb128 0x13
 916 0050 00       		.byte	0
 917 0051 00       		.byte	0
 918 0052 06       		.uleb128 0x6
 919 0053 34       		.uleb128 0x34
 920 0054 00       		.byte	0
 921 0055 03       		.uleb128 0x3
 922 0056 0E       		.uleb128 0xe
 923 0057 3A       		.uleb128 0x3a
 924 0058 0B       		.uleb128 0xb
 925 0059 3B       		.uleb128 0x3b
 926 005a 0B       		.uleb128 0xb
 927 005b 49       		.uleb128 0x49
 928 005c 13       		.uleb128 0x13
 929 005d 02       		.uleb128 0x2
 930 005e 0A       		.uleb128 0xa
 931 005f 00       		.byte	0
 932 0060 00       		.byte	0
 933 0061 07       		.uleb128 0x7
 934 0062 2E       		.uleb128 0x2e
 935 0063 01       		.byte	0x1
 936 0064 3F       		.uleb128 0x3f
 937 0065 0C       		.uleb128 0xc
 938 0066 03       		.uleb128 0x3
 939 0067 0E       		.uleb128 0xe
 940 0068 3A       		.uleb128 0x3a
 941 0069 0B       		.uleb128 0xb
 942 006a 3B       		.uleb128 0x3b
ARM GAS  C:\DOCUME~1\ADMINI~1\LOCALS~1\Temp\cc67JYHl.s 			page 21


 943 006b 0B       		.uleb128 0xb
 944 006c 49       		.uleb128 0x49
 945 006d 13       		.uleb128 0x13
 946 006e 11       		.uleb128 0x11
 947 006f 01       		.uleb128 0x1
 948 0070 12       		.uleb128 0x12
 949 0071 01       		.uleb128 0x1
 950 0072 40       		.uleb128 0x40
 951 0073 06       		.uleb128 0x6
 952 0074 9642     		.uleb128 0x2116
 953 0076 0C       		.uleb128 0xc
 954 0077 01       		.uleb128 0x1
 955 0078 13       		.uleb128 0x13
 956 0079 00       		.byte	0
 957 007a 00       		.byte	0
 958 007b 08       		.uleb128 0x8
 959 007c 34       		.uleb128 0x34
 960 007d 00       		.byte	0
 961 007e 03       		.uleb128 0x3
 962 007f 08       		.uleb128 0x8
 963 0080 3A       		.uleb128 0x3a
 964 0081 0B       		.uleb128 0xb
 965 0082 3B       		.uleb128 0x3b
 966 0083 0B       		.uleb128 0xb
 967 0084 49       		.uleb128 0x49
 968 0085 13       		.uleb128 0x13
 969 0086 02       		.uleb128 0x2
 970 0087 0A       		.uleb128 0xa
 971 0088 00       		.byte	0
 972 0089 00       		.byte	0
 973 008a 09       		.uleb128 0x9
 974 008b 01       		.uleb128 0x1
 975 008c 01       		.byte	0x1
 976 008d 49       		.uleb128 0x49
 977 008e 13       		.uleb128 0x13
 978 008f 01       		.uleb128 0x1
 979 0090 13       		.uleb128 0x13
 980 0091 00       		.byte	0
 981 0092 00       		.byte	0
 982 0093 0A       		.uleb128 0xa
 983 0094 21       		.uleb128 0x21
 984 0095 00       		.byte	0
 985 0096 49       		.uleb128 0x49
 986 0097 13       		.uleb128 0x13
 987 0098 2F       		.uleb128 0x2f
 988 0099 0B       		.uleb128 0xb
 989 009a 00       		.byte	0
 990 009b 00       		.byte	0
 991 009c 0B       		.uleb128 0xb
 992 009d 21       		.uleb128 0x21
 993 009e 00       		.byte	0
 994 009f 49       		.uleb128 0x49
 995 00a0 13       		.uleb128 0x13
 996 00a1 2F       		.uleb128 0x2f
 997 00a2 05       		.uleb128 0x5
 998 00a3 00       		.byte	0
 999 00a4 00       		.byte	0
ARM GAS  C:\DOCUME~1\ADMINI~1\LOCALS~1\Temp\cc67JYHl.s 			page 22


 1000 00a5 0C       		.uleb128 0xc
 1001 00a6 34       		.uleb128 0x34
 1002 00a7 00       		.byte	0
 1003 00a8 03       		.uleb128 0x3
 1004 00a9 0E       		.uleb128 0xe
 1005 00aa 3A       		.uleb128 0x3a
 1006 00ab 0B       		.uleb128 0xb
 1007 00ac 3B       		.uleb128 0x3b
 1008 00ad 0B       		.uleb128 0xb
 1009 00ae 49       		.uleb128 0x49
 1010 00af 13       		.uleb128 0x13
 1011 00b0 3F       		.uleb128 0x3f
 1012 00b1 0C       		.uleb128 0xc
 1013 00b2 02       		.uleb128 0x2
 1014 00b3 0A       		.uleb128 0xa
 1015 00b4 00       		.byte	0
 1016 00b5 00       		.byte	0
 1017 00b6 00       		.byte	0
 1018              		.section	.debug_loc,"",%progbits
 1019              	.Ldebug_loc0:
 1020              	.LLST0:
 1021 0000 00000000 		.4byte	.LFB33
 1022 0004 02000000 		.4byte	.LCFI0
 1023 0008 0200     		.2byte	0x2
 1024 000a 7D       		.byte	0x7d
 1025 000b 00       		.sleb128 0
 1026 000c 02000000 		.4byte	.LCFI0
 1027 0010 04000000 		.4byte	.LCFI1
 1028 0014 0200     		.2byte	0x2
 1029 0016 7D       		.byte	0x7d
 1030 0017 0C       		.sleb128 12
 1031 0018 04000000 		.4byte	.LCFI1
 1032 001c 06000000 		.4byte	.LCFI2
 1033 0020 0200     		.2byte	0x2
 1034 0022 7D       		.byte	0x7d
 1035 0023 18       		.sleb128 24
 1036 0024 06000000 		.4byte	.LCFI2
 1037 0028 F8000000 		.4byte	.LFE33
 1038 002c 0200     		.2byte	0x2
 1039 002e 77       		.byte	0x77
 1040 002f 18       		.sleb128 24
 1041 0030 00000000 		.4byte	0
 1042 0034 00000000 		.4byte	0
 1043              	.LLST1:
 1044 0038 00000000 		.4byte	.LFB34
 1045 003c 02000000 		.4byte	.LCFI3
 1046 0040 0200     		.2byte	0x2
 1047 0042 7D       		.byte	0x7d
 1048 0043 00       		.sleb128 0
 1049 0044 02000000 		.4byte	.LCFI3
 1050 0048 04000000 		.4byte	.LCFI4
 1051 004c 0200     		.2byte	0x2
 1052 004e 7D       		.byte	0x7d
 1053 004f 0C       		.sleb128 12
 1054 0050 04000000 		.4byte	.LCFI4
 1055 0054 06000000 		.4byte	.LCFI5
 1056 0058 0300     		.2byte	0x3
ARM GAS  C:\DOCUME~1\ADMINI~1\LOCALS~1\Temp\cc67JYHl.s 			page 23


 1057 005a 7D       		.byte	0x7d
 1058 005b A001     		.sleb128 160
 1059 005d 06000000 		.4byte	.LCFI5
 1060 0061 D8020000 		.4byte	.LFE34
 1061 0065 0300     		.2byte	0x3
 1062 0067 77       		.byte	0x77
 1063 0068 A001     		.sleb128 160
 1064 006a 00000000 		.4byte	0
 1065 006e 00000000 		.4byte	0
 1066              		.section	.debug_aranges,"",%progbits
 1067 0000 24000000 		.4byte	0x24
 1068 0004 0200     		.2byte	0x2
 1069 0006 00000000 		.4byte	.Ldebug_info0
 1070 000a 04       		.byte	0x4
 1071 000b 00       		.byte	0
 1072 000c 0000     		.2byte	0
 1073 000e 0000     		.2byte	0
 1074 0010 00000000 		.4byte	.LFB33
 1075 0014 F8000000 		.4byte	.LFE33-.LFB33
 1076 0018 00000000 		.4byte	.LFB34
 1077 001c D8020000 		.4byte	.LFE34-.LFB34
 1078 0020 00000000 		.4byte	0
 1079 0024 00000000 		.4byte	0
 1080              		.section	.debug_ranges,"",%progbits
 1081              	.Ldebug_ranges0:
 1082 0000 00000000 		.4byte	.LFB33
 1083 0004 F8000000 		.4byte	.LFE33
 1084 0008 00000000 		.4byte	.LFB34
 1085 000c D8020000 		.4byte	.LFE34
 1086 0010 00000000 		.4byte	0
 1087 0014 00000000 		.4byte	0
 1088              		.section	.debug_line,"",%progbits
 1089              	.Ldebug_line0:
 1090 0000 E6000000 		.section	.debug_str,"MS",%progbits,1
 1090      02004500 
 1090      00000201 
 1090      FB0E0D00 
 1090      01010101 
 1091              	.LASF3:
 1092 0000 73686F72 		.ascii	"short unsigned int\000"
 1092      7420756E 
 1092      7369676E 
 1092      65642069 
 1092      6E7400
 1093              	.LASF23:
 1094 0013 626C7565 		.ascii	"blue\000"
 1094      00
 1095              	.LASF11:
 1096 0018 666C6F61 		.ascii	"float\000"
 1096      7400
 1097              	.LASF1:
 1098 001e 756E7369 		.ascii	"unsigned char\000"
 1098      676E6564 
 1098      20636861 
 1098      7200
 1099              	.LASF5:
 1100 002c 6C6F6E67 		.ascii	"long unsigned int\000"
ARM GAS  C:\DOCUME~1\ADMINI~1\LOCALS~1\Temp\cc67JYHl.s 			page 24


 1100      20756E73 
 1100      69676E65 
 1100      6420696E 
 1100      7400
 1101              	.LASF21:
 1102 003e 74656D70 		.ascii	"temp\000"
 1102      00
 1103              	.LASF9:
 1104 0043 75696E74 		.ascii	"uint8\000"
 1104      3800
 1105              	.LASF22:
 1106 0049 67726565 		.ascii	"green\000"
 1106      6E00
 1107              	.LASF12:
 1108 004f 646F7562 		.ascii	"double\000"
 1108      6C6500
 1109              	.LASF27:
 1110 0056 2E5C6D61 		.ascii	".\\main.c\000"
 1110      696E2E63 
 1110      00
 1111              	.LASF25:
 1112 005f 4F757470 		.ascii	"OutputString\000"
 1112      75745374 
 1112      72696E67 
 1112      00
 1113              	.LASF10:
 1114 006c 75696E74 		.ascii	"uint16\000"
 1114      313600
 1115              	.LASF19:
 1116 0073 6D61696E 		.ascii	"main\000"
 1116      00
 1117              	.LASF17:
 1118 0078 74657374 		.ascii	"test\000"
 1118      00
 1119              	.LASF8:
 1120 007d 756E7369 		.ascii	"unsigned int\000"
 1120      676E6564 
 1120      20696E74 
 1120      00
 1121              	.LASF7:
 1122 008a 6C6F6E67 		.ascii	"long long unsigned int\000"
 1122      206C6F6E 
 1122      6720756E 
 1122      7369676E 
 1122      65642069 
 1123              	.LASF14:
 1124 00a1 73697A65 		.ascii	"sizetype\000"
 1124      74797065 
 1124      00
 1125              	.LASF6:
 1126 00aa 6C6F6E67 		.ascii	"long long int\000"
 1126      206C6F6E 
 1126      6720696E 
 1126      7400
 1127              	.LASF13:
 1128 00b8 63686172 		.ascii	"char\000"
 1128      00
ARM GAS  C:\DOCUME~1\ADMINI~1\LOCALS~1\Temp\cc67JYHl.s 			page 25


 1129              	.LASF28:
 1130 00bd 5A3A5C50 		.ascii	"Z:\\PSoC-W5100-Driver\\PSoCPioneer+ArduinoShield_Ex"
 1130      536F432D 
 1130      57353130 
 1130      302D4472 
 1130      69766572 
 1131 00ee 616D706C 		.ascii	"ample.cydsn\000"
 1131      652E6379 
 1131      64736E00 
 1132              	.LASF2:
 1133 00fa 73686F72 		.ascii	"short int\000"
 1133      7420696E 
 1133      7400
 1134              	.LASF20:
 1135 0104 62756666 		.ascii	"buffer\000"
 1135      657200
 1136              	.LASF26:
 1137 010b 474E5520 		.ascii	"GNU C 4.7.3 20130312 (release) [ARM/embedded-4_7-br"
 1137      4320342E 
 1137      372E3320 
 1137      32303133 
 1137      30333132 
 1138 013e 616E6368 		.ascii	"anch revision 196615]\000"
 1138      20726576 
 1138      6973696F 
 1138      6E203139 
 1138      36363135 
 1139              	.LASF15:
 1140 0154 736F636B 		.ascii	"socket\000"
 1140      657400
 1141              	.LASF4:
 1142 015b 6C6F6E67 		.ascii	"long int\000"
 1142      20696E74 
 1142      00
 1143              	.LASF24:
 1144 0164 72616E64 		.ascii	"randomData\000"
 1144      6F6D4461 
 1144      746100
 1145              	.LASF16:
 1146 016f 6C656E67 		.ascii	"length\000"
 1146      746800
 1147              	.LASF0:
 1148 0176 7369676E 		.ascii	"signed char\000"
 1148      65642063 
 1148      68617200 
 1149              	.LASF18:
 1150 0182 7061766C 		.ascii	"pavloven_test\000"
 1150      6F76656E 
 1150      5F746573 
 1150      7400
 1151              		.ident	"GCC: (GNU Tools for ARM Embedded Processors) 4.7.3 20130312 (release) [ARM/embedded-4_7-br
