ARM GAS  C:\Users\CHUCK~1.ERH\AppData\Local\Temp\cc3vcCeQ.s 			page 1


   1              		.cpu cortex-m0
   2              		.fpu softvfp
   3              		.eabi_attribute 20, 1
   4              		.eabi_attribute 21, 1
   5              		.eabi_attribute 23, 3
   6              		.eabi_attribute 24, 1
   7              		.eabi_attribute 25, 1
   8              		.eabi_attribute 26, 1
   9              		.eabi_attribute 30, 6
  10              		.eabi_attribute 34, 0
  11              		.eabi_attribute 18, 4
  12              		.code	16
  13              		.file	"SPI0_SPI.c"
  14              		.text
  15              	.Ltext0:
  16              		.cfi_sections	.debug_frame
  17              		.section	.text.SPI0_SpiInit,"ax",%progbits
  18              		.align	2
  19              		.global	SPI0_SpiInit
  20              		.code	16
  21              		.thumb_func
  22              		.type	SPI0_SpiInit, %function
  23              	SPI0_SpiInit:
  24              	.LFB0:
  25              		.file 1 ".\\Generated_Source\\PSoC4\\SPI0_SPI.c"
   1:.\Generated_Source\PSoC4/SPI0_SPI.c **** /*******************************************************************************
   2:.\Generated_Source\PSoC4/SPI0_SPI.c **** * File Name: SPI0_SPI.c
   3:.\Generated_Source\PSoC4/SPI0_SPI.c **** * Version 1.10
   4:.\Generated_Source\PSoC4/SPI0_SPI.c **** *
   5:.\Generated_Source\PSoC4/SPI0_SPI.c **** * Description:
   6:.\Generated_Source\PSoC4/SPI0_SPI.c **** *  This file provides the source code to the API for the SCB Component in
   7:.\Generated_Source\PSoC4/SPI0_SPI.c **** *  SPI mode.
   8:.\Generated_Source\PSoC4/SPI0_SPI.c **** *
   9:.\Generated_Source\PSoC4/SPI0_SPI.c **** * Note:
  10:.\Generated_Source\PSoC4/SPI0_SPI.c **** *
  11:.\Generated_Source\PSoC4/SPI0_SPI.c **** *******************************************************************************
  12:.\Generated_Source\PSoC4/SPI0_SPI.c **** * Copyright 2013, Cypress Semiconductor Corporation.  All rights reserved.
  13:.\Generated_Source\PSoC4/SPI0_SPI.c **** * You may use this file only in accordance with the license, terms, conditions,
  14:.\Generated_Source\PSoC4/SPI0_SPI.c **** * disclaimers, and limitations in the end user license agreement accompanying
  15:.\Generated_Source\PSoC4/SPI0_SPI.c **** * the software package with which this file was provided.
  16:.\Generated_Source\PSoC4/SPI0_SPI.c **** *******************************************************************************/
  17:.\Generated_Source\PSoC4/SPI0_SPI.c **** 
  18:.\Generated_Source\PSoC4/SPI0_SPI.c **** #include "SPI0_PVT.h"
  19:.\Generated_Source\PSoC4/SPI0_SPI.c **** #include "SPI0_SPI_UART_PVT.h"
  20:.\Generated_Source\PSoC4/SPI0_SPI.c **** 
  21:.\Generated_Source\PSoC4/SPI0_SPI.c **** #if(SPI0_SCB_MODE_UNCONFIG_CONST_CFG)
  22:.\Generated_Source\PSoC4/SPI0_SPI.c **** 
  23:.\Generated_Source\PSoC4/SPI0_SPI.c ****     /***************************************
  24:.\Generated_Source\PSoC4/SPI0_SPI.c ****     *  Config Structure Initialization
  25:.\Generated_Source\PSoC4/SPI0_SPI.c ****     ***************************************/
  26:.\Generated_Source\PSoC4/SPI0_SPI.c **** 
  27:.\Generated_Source\PSoC4/SPI0_SPI.c ****     const SPI0_SPI_INIT_STRUCT SPI0_configSpi =
  28:.\Generated_Source\PSoC4/SPI0_SPI.c ****     {
  29:.\Generated_Source\PSoC4/SPI0_SPI.c ****         SPI0_SPI_MODE,
  30:.\Generated_Source\PSoC4/SPI0_SPI.c ****         SPI0_SPI_SUB_MODE,
  31:.\Generated_Source\PSoC4/SPI0_SPI.c ****         SPI0_SPI_CLOCK_MODE,
  32:.\Generated_Source\PSoC4/SPI0_SPI.c ****         SPI0_SPI_OVS_FACTOR,
ARM GAS  C:\Users\CHUCK~1.ERH\AppData\Local\Temp\cc3vcCeQ.s 			page 2


  33:.\Generated_Source\PSoC4/SPI0_SPI.c ****         SPI0_SPI_MEDIAN_FILTER_ENABLE,
  34:.\Generated_Source\PSoC4/SPI0_SPI.c ****         SPI0_SPI_LATE_MISO_SAMPLE_ENABLE,
  35:.\Generated_Source\PSoC4/SPI0_SPI.c ****         SPI0_SPI_WAKE_ENABLE,
  36:.\Generated_Source\PSoC4/SPI0_SPI.c ****         SPI0_SPI_RX_DATA_BITS_NUM,
  37:.\Generated_Source\PSoC4/SPI0_SPI.c ****         SPI0_SPI_TX_DATA_BITS_NUM,
  38:.\Generated_Source\PSoC4/SPI0_SPI.c ****         SPI0_SPI_BITS_ORDER,
  39:.\Generated_Source\PSoC4/SPI0_SPI.c ****         SPI0_SPI_TRANSFER_SEPARATION,
  40:.\Generated_Source\PSoC4/SPI0_SPI.c ****         0u,
  41:.\Generated_Source\PSoC4/SPI0_SPI.c ****         NULL,
  42:.\Generated_Source\PSoC4/SPI0_SPI.c ****         0u,
  43:.\Generated_Source\PSoC4/SPI0_SPI.c ****         NULL,
  44:.\Generated_Source\PSoC4/SPI0_SPI.c ****         SPI0_SCB_IRQ_INTERNAL,
  45:.\Generated_Source\PSoC4/SPI0_SPI.c ****         SPI0_SPI_INTR_RX_MASK,
  46:.\Generated_Source\PSoC4/SPI0_SPI.c ****         SPI0_SPI_RX_TRIGGER_LEVEL,
  47:.\Generated_Source\PSoC4/SPI0_SPI.c ****         SPI0_SPI_INTR_TX_MASK,
  48:.\Generated_Source\PSoC4/SPI0_SPI.c ****         SPI0_SPI_TX_TRIGGER_LEVEL
  49:.\Generated_Source\PSoC4/SPI0_SPI.c ****     };
  50:.\Generated_Source\PSoC4/SPI0_SPI.c **** 
  51:.\Generated_Source\PSoC4/SPI0_SPI.c **** 
  52:.\Generated_Source\PSoC4/SPI0_SPI.c ****     /*******************************************************************************
  53:.\Generated_Source\PSoC4/SPI0_SPI.c ****     * Function Name: SPI0_SpiInit
  54:.\Generated_Source\PSoC4/SPI0_SPI.c ****     ********************************************************************************
  55:.\Generated_Source\PSoC4/SPI0_SPI.c ****     *
  56:.\Generated_Source\PSoC4/SPI0_SPI.c ****     * Summary:
  57:.\Generated_Source\PSoC4/SPI0_SPI.c ****     *  Configures the SCB for SPI operation.
  58:.\Generated_Source\PSoC4/SPI0_SPI.c ****     *
  59:.\Generated_Source\PSoC4/SPI0_SPI.c ****     * Parameters:
  60:.\Generated_Source\PSoC4/SPI0_SPI.c ****     *  config:  Pointer to a structure that contains the following ordered list of
  61:.\Generated_Source\PSoC4/SPI0_SPI.c ****     *           fields. These fields match the selections available in the
  62:.\Generated_Source\PSoC4/SPI0_SPI.c ****     *           customizer.
  63:.\Generated_Source\PSoC4/SPI0_SPI.c ****     *
  64:.\Generated_Source\PSoC4/SPI0_SPI.c ****     * Return:
  65:.\Generated_Source\PSoC4/SPI0_SPI.c ****     *  None
  66:.\Generated_Source\PSoC4/SPI0_SPI.c ****     *
  67:.\Generated_Source\PSoC4/SPI0_SPI.c ****     *******************************************************************************/
  68:.\Generated_Source\PSoC4/SPI0_SPI.c ****     void SPI0_SpiInit(const SPI0_SPI_INIT_STRUCT *config)
  69:.\Generated_Source\PSoC4/SPI0_SPI.c ****     {
  70:.\Generated_Source\PSoC4/SPI0_SPI.c ****         if(NULL == config)
  71:.\Generated_Source\PSoC4/SPI0_SPI.c ****         {
  72:.\Generated_Source\PSoC4/SPI0_SPI.c ****             CYASSERT(0u != 0u); /* Halt execution due bad fucntion parameter */
  73:.\Generated_Source\PSoC4/SPI0_SPI.c ****         }
  74:.\Generated_Source\PSoC4/SPI0_SPI.c ****         else
  75:.\Generated_Source\PSoC4/SPI0_SPI.c ****         {
  76:.\Generated_Source\PSoC4/SPI0_SPI.c ****             /* Configure pins */
  77:.\Generated_Source\PSoC4/SPI0_SPI.c ****             SPI0_SetPins(SPI0_SCB_MODE_SPI, config->mode, SPI0_DUMMY_PARAM);
  78:.\Generated_Source\PSoC4/SPI0_SPI.c **** 
  79:.\Generated_Source\PSoC4/SPI0_SPI.c ****             /* Store internal configuration */
  80:.\Generated_Source\PSoC4/SPI0_SPI.c ****             SPI0_scbMode       = (uint8) SPI0_SCB_MODE_SPI;
  81:.\Generated_Source\PSoC4/SPI0_SPI.c ****             SPI0_scbEnableWake = (uint8) config->enableWake;
  82:.\Generated_Source\PSoC4/SPI0_SPI.c ****             SPI0_scbEnableIntr = (uint8) config->enableInterrupt;
  83:.\Generated_Source\PSoC4/SPI0_SPI.c **** 
  84:.\Generated_Source\PSoC4/SPI0_SPI.c ****             /* Set RX direction internal variables */
  85:.\Generated_Source\PSoC4/SPI0_SPI.c ****             SPI0_rxBuffer      =         config->rxBuffer;
  86:.\Generated_Source\PSoC4/SPI0_SPI.c ****             SPI0_rxDataBits    = (uint8) config->rxDataBits;
  87:.\Generated_Source\PSoC4/SPI0_SPI.c ****             SPI0_rxBufferSize  = (uint8) config->rxBufferSize;
  88:.\Generated_Source\PSoC4/SPI0_SPI.c **** 
  89:.\Generated_Source\PSoC4/SPI0_SPI.c ****             /* Set TX direction internal variables */
ARM GAS  C:\Users\CHUCK~1.ERH\AppData\Local\Temp\cc3vcCeQ.s 			page 3


  90:.\Generated_Source\PSoC4/SPI0_SPI.c ****             SPI0_txBuffer      =         config->txBuffer;
  91:.\Generated_Source\PSoC4/SPI0_SPI.c ****             SPI0_txDataBits    = (uint8) config->txDataBits;
  92:.\Generated_Source\PSoC4/SPI0_SPI.c ****             SPI0_txBufferSize  = (uint8) config->txBufferSize;
  93:.\Generated_Source\PSoC4/SPI0_SPI.c **** 
  94:.\Generated_Source\PSoC4/SPI0_SPI.c **** 
  95:.\Generated_Source\PSoC4/SPI0_SPI.c ****             /* Configure SPI interface */
  96:.\Generated_Source\PSoC4/SPI0_SPI.c ****             SPI0_CTRL_REG     = SPI0_GET_CTRL_OVS(config->oversample)        |
  97:.\Generated_Source\PSoC4/SPI0_SPI.c ****                                             SPI0_GET_CTRL_EC_AM_MODE(config->enableWake) |
  98:.\Generated_Source\PSoC4/SPI0_SPI.c ****                                             SPI0_CTRL_SPI;
  99:.\Generated_Source\PSoC4/SPI0_SPI.c **** 
 100:.\Generated_Source\PSoC4/SPI0_SPI.c ****             SPI0_SPI_CTRL_REG = SPI0_GET_SPI_CTRL_CONTINUOUS    (config->transferSeperation)  |
 101:.\Generated_Source\PSoC4/SPI0_SPI.c ****                                             SPI0_GET_SPI_CTRL_SELECT_PRECEDE(config->submode &
 102:.\Generated_Source\PSoC4/SPI0_SPI.c ****                                                                           SPI0_SPI_MODE_TI_PRECEDES
 103:.\Generated_Source\PSoC4/SPI0_SPI.c ****                                             SPI0_GET_SPI_CTRL_SCLK_MODE     (config->sclkMode)     
 104:.\Generated_Source\PSoC4/SPI0_SPI.c ****                                             SPI0_GET_SPI_CTRL_LATE_MISO_SAMPLE(config->enableLateSa
 105:.\Generated_Source\PSoC4/SPI0_SPI.c ****                                             SPI0_GET_SPI_CTRL_SUB_MODE      (config->submode)      
 106:.\Generated_Source\PSoC4/SPI0_SPI.c ****                                             SPI0_GET_SPI_CTRL_MASTER_MODE   (config->mode);
 107:.\Generated_Source\PSoC4/SPI0_SPI.c **** 
 108:.\Generated_Source\PSoC4/SPI0_SPI.c ****             /* Configure RX direction */
 109:.\Generated_Source\PSoC4/SPI0_SPI.c ****             SPI0_RX_CTRL_REG     =  SPI0_GET_RX_CTRL_DATA_WIDTH(config->rxDataBits)         |
 110:.\Generated_Source\PSoC4/SPI0_SPI.c ****                                                 SPI0_GET_RX_CTRL_BIT_ORDER (config->bitOrder)      
 111:.\Generated_Source\PSoC4/SPI0_SPI.c ****                                                 SPI0_GET_RX_CTRL_MEDIAN    (config->enableMedianFil
 112:.\Generated_Source\PSoC4/SPI0_SPI.c ****                                                 SPI0_SPI_RX_CTRL;
 113:.\Generated_Source\PSoC4/SPI0_SPI.c **** 
 114:.\Generated_Source\PSoC4/SPI0_SPI.c ****             SPI0_RX_FIFO_CTRL_REG = SPI0_GET_RX_FIFO_CTRL_TRIGGER_LEVEL(config->rxTriggerLevel);
 115:.\Generated_Source\PSoC4/SPI0_SPI.c **** 
 116:.\Generated_Source\PSoC4/SPI0_SPI.c ****             /* Configure TX direction */
 117:.\Generated_Source\PSoC4/SPI0_SPI.c ****             SPI0_TX_CTRL_REG      = SPI0_GET_TX_CTRL_DATA_WIDTH(config->txDataBits) |
 118:.\Generated_Source\PSoC4/SPI0_SPI.c ****                                                 SPI0_GET_TX_CTRL_BIT_ORDER (config->bitOrder)   |
 119:.\Generated_Source\PSoC4/SPI0_SPI.c ****                                                 SPI0_SPI_TX_CTRL;
 120:.\Generated_Source\PSoC4/SPI0_SPI.c **** 
 121:.\Generated_Source\PSoC4/SPI0_SPI.c ****             SPI0_TX_FIFO_CTRL_REG = SPI0_GET_TX_FIFO_CTRL_TRIGGER_LEVEL(config->txTriggerLevel);
 122:.\Generated_Source\PSoC4/SPI0_SPI.c **** 
 123:.\Generated_Source\PSoC4/SPI0_SPI.c ****             /* Configure interrupt with SPI handler */
 124:.\Generated_Source\PSoC4/SPI0_SPI.c ****             SPI0_SCB_IRQ_Disable();
 125:.\Generated_Source\PSoC4/SPI0_SPI.c ****             SPI0_SCB_IRQ_SetVector(&SPI0_SPI_UART_ISR);
 126:.\Generated_Source\PSoC4/SPI0_SPI.c ****             SPI0_SCB_IRQ_SetPriority((uint8)SPI0_SCB_IRQ_INTC_PRIOR_NUMBER);
 127:.\Generated_Source\PSoC4/SPI0_SPI.c **** 
 128:.\Generated_Source\PSoC4/SPI0_SPI.c ****             /* Configure interrupt sources */
 129:.\Generated_Source\PSoC4/SPI0_SPI.c ****             SPI0_INTR_I2C_EC_MASK_REG = SPI0_NO_INTR_SOURCES;
 130:.\Generated_Source\PSoC4/SPI0_SPI.c ****             SPI0_INTR_SPI_EC_MASK_REG = SPI0_NO_INTR_SOURCES;
 131:.\Generated_Source\PSoC4/SPI0_SPI.c ****             SPI0_INTR_SLAVE_MASK_REG  = SPI0_GET_SPI_INTR_SLAVE_MASK(config->rxInterruptMask);
 132:.\Generated_Source\PSoC4/SPI0_SPI.c ****             SPI0_INTR_MASTER_MASK_REG = SPI0_GET_SPI_INTR_MASTER_MASK(config->txInterruptMask);
 133:.\Generated_Source\PSoC4/SPI0_SPI.c ****             SPI0_INTR_RX_MASK_REG     = SPI0_GET_SPI_INTR_RX_MASK(config->rxInterruptMask);
 134:.\Generated_Source\PSoC4/SPI0_SPI.c ****             SPI0_INTR_TX_MASK_REG     = SPI0_GET_SPI_INTR_TX_MASK(config->txInterruptMask);
 135:.\Generated_Source\PSoC4/SPI0_SPI.c **** 
 136:.\Generated_Source\PSoC4/SPI0_SPI.c **** 
 137:.\Generated_Source\PSoC4/SPI0_SPI.c ****             /* Clear RX buffer indexes */
 138:.\Generated_Source\PSoC4/SPI0_SPI.c ****             SPI0_rxBufferHead     = 0u;
 139:.\Generated_Source\PSoC4/SPI0_SPI.c ****             SPI0_rxBufferTail     = 0u;
 140:.\Generated_Source\PSoC4/SPI0_SPI.c ****             SPI0_rxBufferOverflow = 0u;
 141:.\Generated_Source\PSoC4/SPI0_SPI.c **** 
 142:.\Generated_Source\PSoC4/SPI0_SPI.c ****             /* Clrea TX buffer indexes */
 143:.\Generated_Source\PSoC4/SPI0_SPI.c ****             SPI0_txBufferHead = 0u;
 144:.\Generated_Source\PSoC4/SPI0_SPI.c ****             SPI0_txBufferTail = 0u;
 145:.\Generated_Source\PSoC4/SPI0_SPI.c ****         }
 146:.\Generated_Source\PSoC4/SPI0_SPI.c ****     }
ARM GAS  C:\Users\CHUCK~1.ERH\AppData\Local\Temp\cc3vcCeQ.s 			page 4


 147:.\Generated_Source\PSoC4/SPI0_SPI.c **** 
 148:.\Generated_Source\PSoC4/SPI0_SPI.c **** #else
 149:.\Generated_Source\PSoC4/SPI0_SPI.c **** 
 150:.\Generated_Source\PSoC4/SPI0_SPI.c ****     /*******************************************************************************
 151:.\Generated_Source\PSoC4/SPI0_SPI.c ****     * Function Name: SPI0_SpiInit
 152:.\Generated_Source\PSoC4/SPI0_SPI.c ****     ********************************************************************************
 153:.\Generated_Source\PSoC4/SPI0_SPI.c ****     *
 154:.\Generated_Source\PSoC4/SPI0_SPI.c ****     * Summary:
 155:.\Generated_Source\PSoC4/SPI0_SPI.c ****     *  Configures the SCB for SPI operation.
 156:.\Generated_Source\PSoC4/SPI0_SPI.c ****     *
 157:.\Generated_Source\PSoC4/SPI0_SPI.c ****     * Parameters:
 158:.\Generated_Source\PSoC4/SPI0_SPI.c ****     *  None
 159:.\Generated_Source\PSoC4/SPI0_SPI.c ****     *
 160:.\Generated_Source\PSoC4/SPI0_SPI.c ****     * Return:
 161:.\Generated_Source\PSoC4/SPI0_SPI.c ****     *  None
 162:.\Generated_Source\PSoC4/SPI0_SPI.c ****     *
 163:.\Generated_Source\PSoC4/SPI0_SPI.c ****     *******************************************************************************/
 164:.\Generated_Source\PSoC4/SPI0_SPI.c ****     void SPI0_SpiInit(void)
 165:.\Generated_Source\PSoC4/SPI0_SPI.c ****     {
  26              		.loc 1 165 0
  27              		.cfi_startproc
  28 0000 80B5     		push	{r7, lr}
  29              	.LCFI0:
  30              		.cfi_def_cfa_offset 8
  31              		.cfi_offset 7, -8
  32              		.cfi_offset 14, -4
  33 0002 00AF     		add	r7, sp, #0
  34              	.LCFI1:
  35              		.cfi_def_cfa_register 7
 166:.\Generated_Source\PSoC4/SPI0_SPI.c ****         /* Configure SPI interface */
 167:.\Generated_Source\PSoC4/SPI0_SPI.c ****         SPI0_CTRL_REG     = SPI0_SPI_DEFAULT_CTRL;
  36              		.loc 1 167 0
  37 0004 124B     		ldr	r3, .L2
  38 0006 134A     		ldr	r2, .L2+4
  39 0008 1A60     		str	r2, [r3]
 168:.\Generated_Source\PSoC4/SPI0_SPI.c ****         SPI0_SPI_CTRL_REG = SPI0_SPI_DEFAULT_SPI_CTRL;
  40              		.loc 1 168 0
  41 000a 134B     		ldr	r3, .L2+8
  42 000c 134A     		ldr	r2, .L2+12
  43 000e 1A60     		str	r2, [r3]
 169:.\Generated_Source\PSoC4/SPI0_SPI.c **** 
 170:.\Generated_Source\PSoC4/SPI0_SPI.c ****         /* Configure TX and RX direction */
 171:.\Generated_Source\PSoC4/SPI0_SPI.c ****         SPI0_RX_CTRL_REG      = SPI0_SPI_DEFAULT_RX_CTRL;
  44              		.loc 1 171 0
  45 0010 134B     		ldr	r3, .L2+16
  46 0012 144A     		ldr	r2, .L2+20
  47 0014 1A60     		str	r2, [r3]
 172:.\Generated_Source\PSoC4/SPI0_SPI.c ****         SPI0_RX_FIFO_CTRL_REG = SPI0_SPI_DEFAULT_RX_FIFO_CTRL;
  48              		.loc 1 172 0
  49 0016 144B     		ldr	r3, .L2+24
  50 0018 0722     		mov	r2, #7
  51 001a 1A60     		str	r2, [r3]
 173:.\Generated_Source\PSoC4/SPI0_SPI.c **** 
 174:.\Generated_Source\PSoC4/SPI0_SPI.c ****         /* Configure TX and RX direction */
 175:.\Generated_Source\PSoC4/SPI0_SPI.c ****         SPI0_TX_CTRL_REG      = SPI0_SPI_DEFAULT_TX_CTRL;
  52              		.loc 1 175 0
  53 001c 134B     		ldr	r3, .L2+28
ARM GAS  C:\Users\CHUCK~1.ERH\AppData\Local\Temp\cc3vcCeQ.s 			page 5


  54 001e 114A     		ldr	r2, .L2+20
  55 0020 1A60     		str	r2, [r3]
 176:.\Generated_Source\PSoC4/SPI0_SPI.c ****         SPI0_TX_FIFO_CTRL_REG = SPI0_SPI_DEFAULT_TX_FIFO_CTRL;
  56              		.loc 1 176 0
  57 0022 134B     		ldr	r3, .L2+32
  58 0024 0022     		mov	r2, #0
  59 0026 1A60     		str	r2, [r3]
 177:.\Generated_Source\PSoC4/SPI0_SPI.c **** 
 178:.\Generated_Source\PSoC4/SPI0_SPI.c ****         /* Configure interrupt with SPI handler */
 179:.\Generated_Source\PSoC4/SPI0_SPI.c ****         #if(SPI0_SCB_IRQ_INTERNAL)
 180:.\Generated_Source\PSoC4/SPI0_SPI.c ****             SPI0_SCB_IRQ_Disable();
 181:.\Generated_Source\PSoC4/SPI0_SPI.c ****             SPI0_SCB_IRQ_SetVector(&SPI0_SPI_UART_ISR);
 182:.\Generated_Source\PSoC4/SPI0_SPI.c ****             SPI0_SCB_IRQ_SetPriority((uint8)SPI0_SCB_IRQ_INTC_PRIOR_NUMBER);
 183:.\Generated_Source\PSoC4/SPI0_SPI.c ****         #endif /* (SPI0_SCB_IRQ_INTERNAL) */
 184:.\Generated_Source\PSoC4/SPI0_SPI.c ****         
 185:.\Generated_Source\PSoC4/SPI0_SPI.c ****         /* Configure interrupt sources */
 186:.\Generated_Source\PSoC4/SPI0_SPI.c ****         SPI0_INTR_I2C_EC_MASK_REG = SPI0_SPI_DEFAULT_INTR_I2C_EC_MASK;
  60              		.loc 1 186 0
  61 0028 124B     		ldr	r3, .L2+36
  62 002a 0022     		mov	r2, #0
  63 002c 1A60     		str	r2, [r3]
 187:.\Generated_Source\PSoC4/SPI0_SPI.c ****         SPI0_INTR_SPI_EC_MASK_REG = SPI0_SPI_DEFAULT_INTR_SPI_EC_MASK;
  64              		.loc 1 187 0
  65 002e 124B     		ldr	r3, .L2+40
  66 0030 0022     		mov	r2, #0
  67 0032 1A60     		str	r2, [r3]
 188:.\Generated_Source\PSoC4/SPI0_SPI.c ****         SPI0_INTR_SLAVE_MASK_REG  = SPI0_SPI_DEFAULT_INTR_SLAVE_MASK;
  68              		.loc 1 188 0
  69 0034 114B     		ldr	r3, .L2+44
  70 0036 0022     		mov	r2, #0
  71 0038 1A60     		str	r2, [r3]
 189:.\Generated_Source\PSoC4/SPI0_SPI.c ****         SPI0_INTR_MASTER_MASK_REG = SPI0_SPI_DEFAULT_INTR_MASTER_MASK;
  72              		.loc 1 189 0
  73 003a 114B     		ldr	r3, .L2+48
  74 003c 0022     		mov	r2, #0
  75 003e 1A60     		str	r2, [r3]
 190:.\Generated_Source\PSoC4/SPI0_SPI.c ****         SPI0_INTR_RX_MASK_REG     = SPI0_SPI_DEFAULT_INTR_RX_MASK;
  76              		.loc 1 190 0
  77 0040 104B     		ldr	r3, .L2+52
  78 0042 0022     		mov	r2, #0
  79 0044 1A60     		str	r2, [r3]
 191:.\Generated_Source\PSoC4/SPI0_SPI.c ****         SPI0_INTR_TX_MASK_REG     = SPI0_SPI_DEFAULT_INTR_TX_MASK;
  80              		.loc 1 191 0
  81 0046 104B     		ldr	r3, .L2+56
  82 0048 0022     		mov	r2, #0
  83 004a 1A60     		str	r2, [r3]
 192:.\Generated_Source\PSoC4/SPI0_SPI.c **** 
 193:.\Generated_Source\PSoC4/SPI0_SPI.c ****         #if(SPI0_INTERNAL_RX_SW_BUFFER_CONST)
 194:.\Generated_Source\PSoC4/SPI0_SPI.c ****             SPI0_rxBufferHead     = 0u;
 195:.\Generated_Source\PSoC4/SPI0_SPI.c ****             SPI0_rxBufferTail     = 0u;
 196:.\Generated_Source\PSoC4/SPI0_SPI.c ****             SPI0_rxBufferOverflow = 0u;
 197:.\Generated_Source\PSoC4/SPI0_SPI.c ****         #endif /* (SPI0_INTERNAL_RX_SW_BUFFER_CONST) */
 198:.\Generated_Source\PSoC4/SPI0_SPI.c **** 
 199:.\Generated_Source\PSoC4/SPI0_SPI.c ****         #if(SPI0_INTERNAL_TX_SW_BUFFER_CONST)
 200:.\Generated_Source\PSoC4/SPI0_SPI.c ****             SPI0_txBufferHead = 0u;
 201:.\Generated_Source\PSoC4/SPI0_SPI.c ****             SPI0_txBufferTail = 0u;
 202:.\Generated_Source\PSoC4/SPI0_SPI.c ****         #endif /* (SPI0_INTERNAL_TX_SW_BUFFER_CONST) */
ARM GAS  C:\Users\CHUCK~1.ERH\AppData\Local\Temp\cc3vcCeQ.s 			page 6


 203:.\Generated_Source\PSoC4/SPI0_SPI.c ****     }
  84              		.loc 1 203 0
  85 004c BD46     		mov	sp, r7
  86              		@ sp needed for prologue
  87 004e 80BD     		pop	{r7, pc}
  88              	.L3:
  89              		.align	2
  90              	.L2:
  91 0050 00000740 		.word	1074200576
  92 0054 07000001 		.word	16777223
  93 0058 20000740 		.word	1074200608
  94 005c 01000080 		.word	-2147483647
  95 0060 00030740 		.word	1074201344
  96 0064 07010080 		.word	-2147483385
  97 0068 04030740 		.word	1074201348
  98 006c 00020740 		.word	1074201088
  99 0070 04020740 		.word	1074201092
 100 0074 880E0740 		.word	1074204296
 101 0078 C80E0740 		.word	1074204360
 102 007c 480F0740 		.word	1074204488
 103 0080 080F0740 		.word	1074204424
 104 0084 C80F0740 		.word	1074204616
 105 0088 880F0740 		.word	1074204552
 106              		.cfi_endproc
 107              	.LFE0:
 108              		.size	SPI0_SpiInit, .-SPI0_SpiInit
 109              		.section	.text.SPI0_SpiSetActiveSlaveSelect,"ax",%progbits
 110              		.align	2
 111              		.global	SPI0_SpiSetActiveSlaveSelect
 112              		.code	16
 113              		.thumb_func
 114              		.type	SPI0_SpiSetActiveSlaveSelect, %function
 115              	SPI0_SpiSetActiveSlaveSelect:
 116              	.LFB1:
 204:.\Generated_Source\PSoC4/SPI0_SPI.c **** 
 205:.\Generated_Source\PSoC4/SPI0_SPI.c **** #endif /* (SPI0_SCB_MODE_UNCONFIG_CONST_CFG) */
 206:.\Generated_Source\PSoC4/SPI0_SPI.c **** 
 207:.\Generated_Source\PSoC4/SPI0_SPI.c **** 
 208:.\Generated_Source\PSoC4/SPI0_SPI.c **** /*******************************************************************************
 209:.\Generated_Source\PSoC4/SPI0_SPI.c **** * Function Name: SPI0_SetActiveSlaveSelect
 210:.\Generated_Source\PSoC4/SPI0_SPI.c **** ********************************************************************************
 211:.\Generated_Source\PSoC4/SPI0_SPI.c **** *
 212:.\Generated_Source\PSoC4/SPI0_SPI.c **** * Summary:
 213:.\Generated_Source\PSoC4/SPI0_SPI.c **** *  Selects one of the four SPI slave select signals.
 214:.\Generated_Source\PSoC4/SPI0_SPI.c **** *  The component should be in one of the following states to change the active
 215:.\Generated_Source\PSoC4/SPI0_SPI.c **** *  slave select signal source correctly:
 216:.\Generated_Source\PSoC4/SPI0_SPI.c **** *   - the component is disabled
 217:.\Generated_Source\PSoC4/SPI0_SPI.c **** *   - the component has completed all transactions (TX FIFO is empty and the
 218:.\Generated_Source\PSoC4/SPI0_SPI.c **** *     SpiDone flag is set)
 219:.\Generated_Source\PSoC4/SPI0_SPI.c **** *  This function does not check that these conditions are met.
 220:.\Generated_Source\PSoC4/SPI0_SPI.c **** *  At initialization time the active slave select line is slave select 0.
 221:.\Generated_Source\PSoC4/SPI0_SPI.c **** *
 222:.\Generated_Source\PSoC4/SPI0_SPI.c **** * Parameters:
 223:.\Generated_Source\PSoC4/SPI0_SPI.c **** *  activeSelect: The four lines available to utilize Slave Select function.
 224:.\Generated_Source\PSoC4/SPI0_SPI.c **** *
 225:.\Generated_Source\PSoC4/SPI0_SPI.c **** * Return:
 226:.\Generated_Source\PSoC4/SPI0_SPI.c **** *  None
ARM GAS  C:\Users\CHUCK~1.ERH\AppData\Local\Temp\cc3vcCeQ.s 			page 7


 227:.\Generated_Source\PSoC4/SPI0_SPI.c **** *
 228:.\Generated_Source\PSoC4/SPI0_SPI.c **** *******************************************************************************/
 229:.\Generated_Source\PSoC4/SPI0_SPI.c **** void SPI0_SpiSetActiveSlaveSelect(uint32 activeSelect)
 230:.\Generated_Source\PSoC4/SPI0_SPI.c **** {
 117              		.loc 1 230 0
 118              		.cfi_startproc
 119 0000 80B5     		push	{r7, lr}
 120              	.LCFI2:
 121              		.cfi_def_cfa_offset 8
 122              		.cfi_offset 7, -8
 123              		.cfi_offset 14, -4
 124 0002 84B0     		sub	sp, sp, #16
 125              	.LCFI3:
 126              		.cfi_def_cfa_offset 24
 127 0004 00AF     		add	r7, sp, #0
 128              	.LCFI4:
 129              		.cfi_def_cfa_register 7
 130 0006 7860     		str	r0, [r7, #4]
 231:.\Generated_Source\PSoC4/SPI0_SPI.c ****     uint32 spiCtrl;
 232:.\Generated_Source\PSoC4/SPI0_SPI.c **** 
 233:.\Generated_Source\PSoC4/SPI0_SPI.c ****     spiCtrl = SPI0_SPI_CTRL_REG;
 131              		.loc 1 233 0
 132 0008 0A4B     		ldr	r3, .L5
 133 000a 1B68     		ldr	r3, [r3]
 134 000c FB60     		str	r3, [r7, #12]
 234:.\Generated_Source\PSoC4/SPI0_SPI.c **** 
 235:.\Generated_Source\PSoC4/SPI0_SPI.c ****     spiCtrl &= (uint32) ~SPI0_SPI_CTRL_SLAVE_SELECT_MASK; /* Clear SS bits */
 135              		.loc 1 235 0
 136 000e FA68     		ldr	r2, [r7, #12]
 137 0010 094B     		ldr	r3, .L5+4
 138 0012 1340     		and	r3, r2
 139 0014 FB60     		str	r3, [r7, #12]
 236:.\Generated_Source\PSoC4/SPI0_SPI.c ****     spiCtrl |= (uint32)  SPI0_GET_SPI_CTRL_SS(activeSelect);
 140              		.loc 1 236 0
 141 0016 7B68     		ldr	r3, [r7, #4]
 142 0018 9A06     		lsl	r2, r3, #26
 143 001a C023     		mov	r3, #192
 144 001c 1B05     		lsl	r3, r3, #20
 145 001e 1340     		and	r3, r2
 146 0020 FA68     		ldr	r2, [r7, #12]
 147 0022 1343     		orr	r3, r2
 148 0024 FB60     		str	r3, [r7, #12]
 237:.\Generated_Source\PSoC4/SPI0_SPI.c **** 
 238:.\Generated_Source\PSoC4/SPI0_SPI.c ****     SPI0_SPI_CTRL_REG = spiCtrl;
 149              		.loc 1 238 0
 150 0026 034B     		ldr	r3, .L5
 151 0028 FA68     		ldr	r2, [r7, #12]
 152 002a 1A60     		str	r2, [r3]
 239:.\Generated_Source\PSoC4/SPI0_SPI.c **** }
 153              		.loc 1 239 0
 154 002c BD46     		mov	sp, r7
 155 002e 04B0     		add	sp, sp, #16
 156              		@ sp needed for prologue
 157 0030 80BD     		pop	{r7, pc}
 158              	.L6:
 159 0032 C046     		.align	2
 160              	.L5:
ARM GAS  C:\Users\CHUCK~1.ERH\AppData\Local\Temp\cc3vcCeQ.s 			page 8


 161 0034 20000740 		.word	1074200608
 162 0038 FFFFFFF3 		.word	-201326593
 163              		.cfi_endproc
 164              	.LFE1:
 165              		.size	SPI0_SpiSetActiveSlaveSelect, .-SPI0_SpiSetActiveSlaveSelect
 166              		.text
 167              	.Letext0:
 168              		.file 2 ".\\Generated_Source\\PSoC4\\cytypes.h"