ARM GAS  C:\Users\CHUCK~1.ERH\AppData\Local\Temp\cczSZqcz.s 			page 1


   1              		.cpu cortex-m0
   2              		.fpu softvfp
   3              		.eabi_attribute 20, 1
   4              		.eabi_attribute 21, 1
   5              		.eabi_attribute 23, 3
   6              		.eabi_attribute 24, 1
   7              		.eabi_attribute 25, 1
   8              		.eabi_attribute 26, 1
   9              		.eabi_attribute 30, 6
  10              		.eabi_attribute 34, 0
  11              		.eabi_attribute 18, 4
  12              		.code	16
  13              		.file	"SPI0_PM.c"
  14              		.text
  15              	.Ltext0:
  16              		.cfi_sections	.debug_frame
  17              		.global	SPI0_backup
  18              		.bss
  19              		.align	2
  20              		.type	SPI0_backup, %object
  21              		.size	SPI0_backup, 1
  22              	SPI0_backup:
  23 0000 00       		.space	1
  24 0001 000000   		.section	.text.SPI0_Sleep,"ax",%progbits
  25              		.align	2
  26              		.global	SPI0_Sleep
  27              		.code	16
  28              		.thumb_func
  29              		.type	SPI0_Sleep, %function
  30              	SPI0_Sleep:
  31              	.LFB0:
  32              		.file 1 ".\\Generated_Source\\PSoC4\\SPI0_PM.c"
   1:.\Generated_Source\PSoC4/SPI0_PM.c **** /*******************************************************************************
   2:.\Generated_Source\PSoC4/SPI0_PM.c **** * File Name: SPI0_PM.c
   3:.\Generated_Source\PSoC4/SPI0_PM.c **** * Version 1.10
   4:.\Generated_Source\PSoC4/SPI0_PM.c **** *
   5:.\Generated_Source\PSoC4/SPI0_PM.c **** * Description:
   6:.\Generated_Source\PSoC4/SPI0_PM.c **** *  This file provides the source code to the Power Management support for
   7:.\Generated_Source\PSoC4/SPI0_PM.c **** *  the SCB Component.
   8:.\Generated_Source\PSoC4/SPI0_PM.c **** *
   9:.\Generated_Source\PSoC4/SPI0_PM.c **** * Note:
  10:.\Generated_Source\PSoC4/SPI0_PM.c **** *
  11:.\Generated_Source\PSoC4/SPI0_PM.c **** ********************************************************************************
  12:.\Generated_Source\PSoC4/SPI0_PM.c **** * Copyright 2013, Cypress Semiconductor Corporation.  All rights reserved.
  13:.\Generated_Source\PSoC4/SPI0_PM.c **** * You may use this file only in accordance with the license, terms, conditions,
  14:.\Generated_Source\PSoC4/SPI0_PM.c **** * disclaimers, and limitations in the end user license agreement accompanying
  15:.\Generated_Source\PSoC4/SPI0_PM.c **** * the software package with which this file was provided.
  16:.\Generated_Source\PSoC4/SPI0_PM.c **** *******************************************************************************/
  17:.\Generated_Source\PSoC4/SPI0_PM.c **** 
  18:.\Generated_Source\PSoC4/SPI0_PM.c **** #include "SPI0.h"
  19:.\Generated_Source\PSoC4/SPI0_PM.c **** #include "SPI0_PVT.h"
  20:.\Generated_Source\PSoC4/SPI0_PM.c **** 
  21:.\Generated_Source\PSoC4/SPI0_PM.c **** #if(SPI0_SCB_MODE_I2C_INC)
  22:.\Generated_Source\PSoC4/SPI0_PM.c ****     #include "SPI0_I2C_PVT.h"
  23:.\Generated_Source\PSoC4/SPI0_PM.c **** #endif /* (SPI0_SCB_MODE_I2C_INC) */
  24:.\Generated_Source\PSoC4/SPI0_PM.c **** 
  25:.\Generated_Source\PSoC4/SPI0_PM.c **** #if(SPI0_SCB_MODE_EZI2C_INC)
ARM GAS  C:\Users\CHUCK~1.ERH\AppData\Local\Temp\cczSZqcz.s 			page 2


  26:.\Generated_Source\PSoC4/SPI0_PM.c ****     #include "SPI0_EZI2C_PVT.h"
  27:.\Generated_Source\PSoC4/SPI0_PM.c **** #endif /* (SPI0_SCB_MODE_EZI2C_INC) */
  28:.\Generated_Source\PSoC4/SPI0_PM.c **** 
  29:.\Generated_Source\PSoC4/SPI0_PM.c **** #if(SPI0_SCB_MODE_SPI_INC || SPI0_SCB_MODE_UART_INC)
  30:.\Generated_Source\PSoC4/SPI0_PM.c ****     #include "SPI0_SPI_UART_PVT.h"
  31:.\Generated_Source\PSoC4/SPI0_PM.c **** #endif /* (SPI0_SCB_MODE_SPI_INC || SPI0_SCB_MODE_UART_INC) */
  32:.\Generated_Source\PSoC4/SPI0_PM.c **** 
  33:.\Generated_Source\PSoC4/SPI0_PM.c **** 
  34:.\Generated_Source\PSoC4/SPI0_PM.c **** /***************************************
  35:.\Generated_Source\PSoC4/SPI0_PM.c **** *   Backup Structure declaration
  36:.\Generated_Source\PSoC4/SPI0_PM.c **** ***************************************/
  37:.\Generated_Source\PSoC4/SPI0_PM.c **** 
  38:.\Generated_Source\PSoC4/SPI0_PM.c **** SPI0_BACKUP_STRUCT SPI0_backup =
  39:.\Generated_Source\PSoC4/SPI0_PM.c **** {
  40:.\Generated_Source\PSoC4/SPI0_PM.c ****     0u, /* enableState */
  41:.\Generated_Source\PSoC4/SPI0_PM.c **** };
  42:.\Generated_Source\PSoC4/SPI0_PM.c **** 
  43:.\Generated_Source\PSoC4/SPI0_PM.c **** 
  44:.\Generated_Source\PSoC4/SPI0_PM.c **** /*******************************************************************************
  45:.\Generated_Source\PSoC4/SPI0_PM.c **** * Function Name: SPI0_Sleep
  46:.\Generated_Source\PSoC4/SPI0_PM.c **** ********************************************************************************
  47:.\Generated_Source\PSoC4/SPI0_PM.c **** *
  48:.\Generated_Source\PSoC4/SPI0_PM.c **** * Summary:
  49:.\Generated_Source\PSoC4/SPI0_PM.c **** *  Calls SaveConfig function fucntion for selected mode.
  50:.\Generated_Source\PSoC4/SPI0_PM.c **** *
  51:.\Generated_Source\PSoC4/SPI0_PM.c **** * Parameters:
  52:.\Generated_Source\PSoC4/SPI0_PM.c **** *  None
  53:.\Generated_Source\PSoC4/SPI0_PM.c **** *
  54:.\Generated_Source\PSoC4/SPI0_PM.c **** * Return:
  55:.\Generated_Source\PSoC4/SPI0_PM.c **** *  None
  56:.\Generated_Source\PSoC4/SPI0_PM.c **** *
  57:.\Generated_Source\PSoC4/SPI0_PM.c **** *******************************************************************************/
  58:.\Generated_Source\PSoC4/SPI0_PM.c **** void SPI0_Sleep(void)
  59:.\Generated_Source\PSoC4/SPI0_PM.c **** {
  33              		.loc 1 59 0
  34              		.cfi_startproc
  35 0000 80B5     		push	{r7, lr}
  36              	.LCFI0:
  37              		.cfi_def_cfa_offset 8
  38              		.cfi_offset 7, -8
  39              		.cfi_offset 14, -4
  40 0002 00AF     		add	r7, sp, #0
  41              	.LCFI1:
  42              		.cfi_def_cfa_register 7
  60:.\Generated_Source\PSoC4/SPI0_PM.c **** #if(SPI0_SCB_MODE_UNCONFIG_CONST_CFG)
  61:.\Generated_Source\PSoC4/SPI0_PM.c **** 
  62:.\Generated_Source\PSoC4/SPI0_PM.c ****     if(0u != SPI0_scbEnableWake)
  63:.\Generated_Source\PSoC4/SPI0_PM.c ****     {
  64:.\Generated_Source\PSoC4/SPI0_PM.c ****         if(SPI0_SCB_MODE_I2C_RUNTM_CFG)
  65:.\Generated_Source\PSoC4/SPI0_PM.c ****         {
  66:.\Generated_Source\PSoC4/SPI0_PM.c ****             SPI0_I2CSaveConfig();
  67:.\Generated_Source\PSoC4/SPI0_PM.c ****         }
  68:.\Generated_Source\PSoC4/SPI0_PM.c ****         else if(SPI0_SCB_MODE_SPI_RUNTM_CFG)
  69:.\Generated_Source\PSoC4/SPI0_PM.c ****         {
  70:.\Generated_Source\PSoC4/SPI0_PM.c ****             SPI0_SpiSaveConfig();
  71:.\Generated_Source\PSoC4/SPI0_PM.c ****         }
  72:.\Generated_Source\PSoC4/SPI0_PM.c ****         else if(SPI0_SCB_MODE_UART_RUNTM_CFG)
ARM GAS  C:\Users\CHUCK~1.ERH\AppData\Local\Temp\cczSZqcz.s 			page 3


  73:.\Generated_Source\PSoC4/SPI0_PM.c ****         {
  74:.\Generated_Source\PSoC4/SPI0_PM.c ****             SPI0_UartSaveConfig();
  75:.\Generated_Source\PSoC4/SPI0_PM.c ****         }
  76:.\Generated_Source\PSoC4/SPI0_PM.c ****         else if(SPI0_SCB_MODE_EZI2C_RUNTM_CFG)
  77:.\Generated_Source\PSoC4/SPI0_PM.c ****         {
  78:.\Generated_Source\PSoC4/SPI0_PM.c ****             SPI0_EzI2CSaveConfig();
  79:.\Generated_Source\PSoC4/SPI0_PM.c ****         }
  80:.\Generated_Source\PSoC4/SPI0_PM.c ****         else
  81:.\Generated_Source\PSoC4/SPI0_PM.c ****         {
  82:.\Generated_Source\PSoC4/SPI0_PM.c ****             /* Unknown mode: do nothing */
  83:.\Generated_Source\PSoC4/SPI0_PM.c ****         }
  84:.\Generated_Source\PSoC4/SPI0_PM.c ****     }
  85:.\Generated_Source\PSoC4/SPI0_PM.c ****     else
  86:.\Generated_Source\PSoC4/SPI0_PM.c ****     {
  87:.\Generated_Source\PSoC4/SPI0_PM.c ****         SPI0_backup.enableState = (uint8) SPI0_GET_CTRL_ENABLED;
  88:.\Generated_Source\PSoC4/SPI0_PM.c ****         
  89:.\Generated_Source\PSoC4/SPI0_PM.c ****         if(0u != SPI0_backup.enableState)
  90:.\Generated_Source\PSoC4/SPI0_PM.c ****         {
  91:.\Generated_Source\PSoC4/SPI0_PM.c ****             SPI0_Stop();
  92:.\Generated_Source\PSoC4/SPI0_PM.c ****         }
  93:.\Generated_Source\PSoC4/SPI0_PM.c ****     }
  94:.\Generated_Source\PSoC4/SPI0_PM.c ****     
  95:.\Generated_Source\PSoC4/SPI0_PM.c ****     SPI0_DisableTxPinsInputBuffer();
  96:.\Generated_Source\PSoC4/SPI0_PM.c ****     
  97:.\Generated_Source\PSoC4/SPI0_PM.c **** #else
  98:.\Generated_Source\PSoC4/SPI0_PM.c ****     
  99:.\Generated_Source\PSoC4/SPI0_PM.c ****     #if defined (SPI0_I2C_WAKE_ENABLE_CONST) && (SPI0_I2C_WAKE_ENABLE_CONST)
 100:.\Generated_Source\PSoC4/SPI0_PM.c ****         SPI0_I2CSaveConfig();
 101:.\Generated_Source\PSoC4/SPI0_PM.c ****         
 102:.\Generated_Source\PSoC4/SPI0_PM.c ****     #elif defined (SPI0_SPI_WAKE_ENABLE_CONST) && (SPI0_SPI_WAKE_ENABLE_CONST)
 103:.\Generated_Source\PSoC4/SPI0_PM.c ****         SPI0_SpiSaveConfig();
 104:.\Generated_Source\PSoC4/SPI0_PM.c ****         
 105:.\Generated_Source\PSoC4/SPI0_PM.c ****     #elif defined (SPI0_UART_WAKE_ENABLE_CONST) && (SPI0_UART_WAKE_ENABLE_CONST)
 106:.\Generated_Source\PSoC4/SPI0_PM.c ****         SPI0_UartSaveConfig();
 107:.\Generated_Source\PSoC4/SPI0_PM.c ****         
 108:.\Generated_Source\PSoC4/SPI0_PM.c ****     #elif defined (SPI0_EZI2C_WAKE_ENABLE_CONST) && (SPI0_EZI2C_WAKE_ENABLE_CONST)
 109:.\Generated_Source\PSoC4/SPI0_PM.c ****         SPI0_EzI2CSaveConfig();
 110:.\Generated_Source\PSoC4/SPI0_PM.c ****     
 111:.\Generated_Source\PSoC4/SPI0_PM.c ****     #else
 112:.\Generated_Source\PSoC4/SPI0_PM.c ****         
 113:.\Generated_Source\PSoC4/SPI0_PM.c ****         SPI0_backup.enableState = (uint8) SPI0_GET_CTRL_ENABLED;
  43              		.loc 1 113 0
  44 0004 084B     		ldr	r3, .L3
  45 0006 1B68     		ldr	r3, [r3]
  46 0008 DB0F     		lsr	r3, r3, #31
  47 000a DBB2     		uxtb	r3, r3
  48 000c 1A1C     		mov	r2, r3
  49 000e 074B     		ldr	r3, .L3+4
  50 0010 1A70     		strb	r2, [r3]
 114:.\Generated_Source\PSoC4/SPI0_PM.c ****         
 115:.\Generated_Source\PSoC4/SPI0_PM.c ****         /* Check enable state */
 116:.\Generated_Source\PSoC4/SPI0_PM.c ****         if(0u != SPI0_backup.enableState)
  51              		.loc 1 116 0
  52 0012 064B     		ldr	r3, .L3+4
  53 0014 1B78     		ldrb	r3, [r3]
  54 0016 002B     		cmp	r3, #0
  55 0018 01D0     		beq	.L2
ARM GAS  C:\Users\CHUCK~1.ERH\AppData\Local\Temp\cczSZqcz.s 			page 4


 117:.\Generated_Source\PSoC4/SPI0_PM.c ****         {
 118:.\Generated_Source\PSoC4/SPI0_PM.c ****             SPI0_Stop();
  56              		.loc 1 118 0
  57 001a FFF7FEFF 		bl	SPI0_Stop
  58              	.L2:
 119:.\Generated_Source\PSoC4/SPI0_PM.c ****         }
 120:.\Generated_Source\PSoC4/SPI0_PM.c ****         
 121:.\Generated_Source\PSoC4/SPI0_PM.c ****     #endif /* defined (SPI0_SCB_MODE_I2C_CONST_CFG) && (SPI0_I2C_WAKE_ENABLE_CONST) */
 122:.\Generated_Source\PSoC4/SPI0_PM.c ****     
 123:.\Generated_Source\PSoC4/SPI0_PM.c ****     SPI0_DisableTxPinsInputBuffer();
  59              		.loc 1 123 0
  60 001e FFF7FEFF 		bl	SPI0_DisableTxPinsInputBuffer
 124:.\Generated_Source\PSoC4/SPI0_PM.c ****     
 125:.\Generated_Source\PSoC4/SPI0_PM.c **** #endif /* (SPI0_SCB_MODE_UNCONFIG_CONST_CFG) */
 126:.\Generated_Source\PSoC4/SPI0_PM.c **** }
  61              		.loc 1 126 0
  62 0022 BD46     		mov	sp, r7
  63              		@ sp needed for prologue
  64 0024 80BD     		pop	{r7, pc}
  65              	.L4:
  66 0026 C046     		.align	2
  67              	.L3:
  68 0028 00000740 		.word	1074200576
  69 002c 00000000 		.word	SPI0_backup
  70              		.cfi_endproc
  71              	.LFE0:
  72              		.size	SPI0_Sleep, .-SPI0_Sleep
  73              		.section	.text.SPI0_Wakeup,"ax",%progbits
  74              		.align	2
  75              		.global	SPI0_Wakeup
  76              		.code	16
  77              		.thumb_func
  78              		.type	SPI0_Wakeup, %function
  79              	SPI0_Wakeup:
  80              	.LFB1:
 127:.\Generated_Source\PSoC4/SPI0_PM.c **** 
 128:.\Generated_Source\PSoC4/SPI0_PM.c **** 
 129:.\Generated_Source\PSoC4/SPI0_PM.c **** /*******************************************************************************
 130:.\Generated_Source\PSoC4/SPI0_PM.c **** * Function Name: SPI0_Wakeup
 131:.\Generated_Source\PSoC4/SPI0_PM.c **** ********************************************************************************
 132:.\Generated_Source\PSoC4/SPI0_PM.c **** *
 133:.\Generated_Source\PSoC4/SPI0_PM.c **** * Summary:
 134:.\Generated_Source\PSoC4/SPI0_PM.c **** *  Calls RestoreConfig function fucntion for selected mode.
 135:.\Generated_Source\PSoC4/SPI0_PM.c **** *
 136:.\Generated_Source\PSoC4/SPI0_PM.c **** * Parameters:
 137:.\Generated_Source\PSoC4/SPI0_PM.c **** *  None
 138:.\Generated_Source\PSoC4/SPI0_PM.c **** *
 139:.\Generated_Source\PSoC4/SPI0_PM.c **** * Return:
 140:.\Generated_Source\PSoC4/SPI0_PM.c **** *  None
 141:.\Generated_Source\PSoC4/SPI0_PM.c **** *
 142:.\Generated_Source\PSoC4/SPI0_PM.c **** *******************************************************************************/
 143:.\Generated_Source\PSoC4/SPI0_PM.c **** void SPI0_Wakeup(void)
 144:.\Generated_Source\PSoC4/SPI0_PM.c **** {
  81              		.loc 1 144 0
  82              		.cfi_startproc
  83 0000 80B5     		push	{r7, lr}
  84              	.LCFI2:
ARM GAS  C:\Users\CHUCK~1.ERH\AppData\Local\Temp\cczSZqcz.s 			page 5


  85              		.cfi_def_cfa_offset 8
  86              		.cfi_offset 7, -8
  87              		.cfi_offset 14, -4
  88 0002 00AF     		add	r7, sp, #0
  89              	.LCFI3:
  90              		.cfi_def_cfa_register 7
 145:.\Generated_Source\PSoC4/SPI0_PM.c **** #if(SPI0_SCB_MODE_UNCONFIG_CONST_CFG)
 146:.\Generated_Source\PSoC4/SPI0_PM.c **** 
 147:.\Generated_Source\PSoC4/SPI0_PM.c ****     SPI0_EnableTxPinsInputBuffer();
 148:.\Generated_Source\PSoC4/SPI0_PM.c ****         
 149:.\Generated_Source\PSoC4/SPI0_PM.c ****     if(0u != SPI0_scbEnableWake)
 150:.\Generated_Source\PSoC4/SPI0_PM.c ****     {
 151:.\Generated_Source\PSoC4/SPI0_PM.c ****         if(SPI0_SCB_MODE_I2C_RUNTM_CFG)
 152:.\Generated_Source\PSoC4/SPI0_PM.c ****         {
 153:.\Generated_Source\PSoC4/SPI0_PM.c ****             SPI0_I2CRestoreConfig();
 154:.\Generated_Source\PSoC4/SPI0_PM.c ****         }
 155:.\Generated_Source\PSoC4/SPI0_PM.c ****         else if(SPI0_SCB_MODE_SPI_RUNTM_CFG)
 156:.\Generated_Source\PSoC4/SPI0_PM.c ****         {
 157:.\Generated_Source\PSoC4/SPI0_PM.c ****             SPI0_SpiRestoreConfig();
 158:.\Generated_Source\PSoC4/SPI0_PM.c ****         }
 159:.\Generated_Source\PSoC4/SPI0_PM.c ****         else if(SPI0_SCB_MODE_UART_RUNTM_CFG)
 160:.\Generated_Source\PSoC4/SPI0_PM.c ****         {
 161:.\Generated_Source\PSoC4/SPI0_PM.c ****             SPI0_UartRestoreConfig();
 162:.\Generated_Source\PSoC4/SPI0_PM.c ****         }
 163:.\Generated_Source\PSoC4/SPI0_PM.c ****         else if(SPI0_SCB_MODE_EZI2C_RUNTM_CFG)
 164:.\Generated_Source\PSoC4/SPI0_PM.c ****         {
 165:.\Generated_Source\PSoC4/SPI0_PM.c ****             SPI0_EzI2CRestoreConfig();
 166:.\Generated_Source\PSoC4/SPI0_PM.c ****         }
 167:.\Generated_Source\PSoC4/SPI0_PM.c ****         else
 168:.\Generated_Source\PSoC4/SPI0_PM.c ****         {
 169:.\Generated_Source\PSoC4/SPI0_PM.c ****             /* Unknown mode: do nothing */
 170:.\Generated_Source\PSoC4/SPI0_PM.c ****         }
 171:.\Generated_Source\PSoC4/SPI0_PM.c ****     }
 172:.\Generated_Source\PSoC4/SPI0_PM.c ****     else
 173:.\Generated_Source\PSoC4/SPI0_PM.c ****     {    
 174:.\Generated_Source\PSoC4/SPI0_PM.c ****         /* Restore enable state */
 175:.\Generated_Source\PSoC4/SPI0_PM.c ****         if(0u != SPI0_backup.enableState)
 176:.\Generated_Source\PSoC4/SPI0_PM.c ****         {
 177:.\Generated_Source\PSoC4/SPI0_PM.c ****             SPI0_Enable();
 178:.\Generated_Source\PSoC4/SPI0_PM.c ****         }
 179:.\Generated_Source\PSoC4/SPI0_PM.c ****     }
 180:.\Generated_Source\PSoC4/SPI0_PM.c **** 
 181:.\Generated_Source\PSoC4/SPI0_PM.c **** #else
 182:.\Generated_Source\PSoC4/SPI0_PM.c ****     
 183:.\Generated_Source\PSoC4/SPI0_PM.c ****     SPI0_EnableTxPinsInputBuffer();
  91              		.loc 1 183 0
  92 0004 FFF7FEFF 		bl	SPI0_EnableTxPinsInputBuffer
 184:.\Generated_Source\PSoC4/SPI0_PM.c ****         
 185:.\Generated_Source\PSoC4/SPI0_PM.c ****     #if defined (SPI0_I2C_WAKE_ENABLE_CONST) && (SPI0_I2C_WAKE_ENABLE_CONST)
 186:.\Generated_Source\PSoC4/SPI0_PM.c ****         SPI0_I2CRestoreConfig();
 187:.\Generated_Source\PSoC4/SPI0_PM.c ****         
 188:.\Generated_Source\PSoC4/SPI0_PM.c ****     #elif defined (SPI0_SPI_WAKE_ENABLE_CONST) && (SPI0_SPI_WAKE_ENABLE_CONST)
 189:.\Generated_Source\PSoC4/SPI0_PM.c ****         SPI0_SpiRestoreConfig();
 190:.\Generated_Source\PSoC4/SPI0_PM.c ****         
 191:.\Generated_Source\PSoC4/SPI0_PM.c ****     #elif defined (SPI0_UART_WAKE_ENABLE_CONST) && (SPI0_UART_WAKE_ENABLE_CONST)
 192:.\Generated_Source\PSoC4/SPI0_PM.c ****         SPI0_UartRestoreConfig();
 193:.\Generated_Source\PSoC4/SPI0_PM.c ****         
ARM GAS  C:\Users\CHUCK~1.ERH\AppData\Local\Temp\cczSZqcz.s 			page 6


 194:.\Generated_Source\PSoC4/SPI0_PM.c ****     #elif defined (SPI0_EZI2C_WAKE_ENABLE_CONST) && (SPI0_EZI2C_WAKE_ENABLE_CONST)
 195:.\Generated_Source\PSoC4/SPI0_PM.c ****         SPI0_EzI2CRestoreConfig();
 196:.\Generated_Source\PSoC4/SPI0_PM.c ****     
 197:.\Generated_Source\PSoC4/SPI0_PM.c ****     #else
 198:.\Generated_Source\PSoC4/SPI0_PM.c ****         /* Check enable state */
 199:.\Generated_Source\PSoC4/SPI0_PM.c ****         if(0u != SPI0_backup.enableState)
  93              		.loc 1 199 0
  94 0008 034B     		ldr	r3, .L7
  95 000a 1B78     		ldrb	r3, [r3]
  96 000c 002B     		cmp	r3, #0
  97 000e 01D0     		beq	.L5
 200:.\Generated_Source\PSoC4/SPI0_PM.c ****         {
 201:.\Generated_Source\PSoC4/SPI0_PM.c ****             SPI0_Enable();
  98              		.loc 1 201 0
  99 0010 FFF7FEFF 		bl	SPI0_Enable
 100              	.L5:
 202:.\Generated_Source\PSoC4/SPI0_PM.c ****         }
 203:.\Generated_Source\PSoC4/SPI0_PM.c ****         
 204:.\Generated_Source\PSoC4/SPI0_PM.c ****     #endif /* (SPI0_I2C_WAKE_ENABLE_CONST) */
 205:.\Generated_Source\PSoC4/SPI0_PM.c **** 
 206:.\Generated_Source\PSoC4/SPI0_PM.c **** #endif /* (SPI0_SCB_MODE_UNCONFIG_CONST_CFG) */
 207:.\Generated_Source\PSoC4/SPI0_PM.c **** }
 101              		.loc 1 207 0
 102 0014 BD46     		mov	sp, r7
 103              		@ sp needed for prologue
 104 0016 80BD     		pop	{r7, pc}
 105              	.L8:
 106              		.align	2
 107              	.L7:
 108 0018 00000000 		.word	SPI0_backup
 109              		.cfi_endproc
 110              	.LFE1:
 111              		.size	SPI0_Wakeup, .-SPI0_Wakeup
 112              		.section	.text.SPI0_DisableTxPinsInputBuffer,"ax",%progbits
 113              		.align	2
 114              		.global	SPI0_DisableTxPinsInputBuffer
 115              		.code	16
 116              		.thumb_func
 117              		.type	SPI0_DisableTxPinsInputBuffer, %function
 118              	SPI0_DisableTxPinsInputBuffer:
 119              	.LFB2:
 208:.\Generated_Source\PSoC4/SPI0_PM.c **** 
 209:.\Generated_Source\PSoC4/SPI0_PM.c **** 
 210:.\Generated_Source\PSoC4/SPI0_PM.c **** /*******************************************************************************
 211:.\Generated_Source\PSoC4/SPI0_PM.c **** * Function Name: SPI0_DisableTxPinsInputBuffer
 212:.\Generated_Source\PSoC4/SPI0_PM.c **** ********************************************************************************
 213:.\Generated_Source\PSoC4/SPI0_PM.c **** *
 214:.\Generated_Source\PSoC4/SPI0_PM.c **** * Summary:
 215:.\Generated_Source\PSoC4/SPI0_PM.c **** *  Disables input buffers for TX pins. This action removes leakage current while
 216:.\Generated_Source\PSoC4/SPI0_PM.c **** *  low power mode (Cypress ID 149635).
 217:.\Generated_Source\PSoC4/SPI0_PM.c **** *   SCB mode is I2C and EZI2C: bus is pulled-up. Leave pins as it is.
 218:.\Generated_Source\PSoC4/SPI0_PM.c **** *   SCB mode SPI:
 219:.\Generated_Source\PSoC4/SPI0_PM.c **** *     Slave  - disable input buffer for MISO pin.
 220:.\Generated_Source\PSoC4/SPI0_PM.c **** *     Master - disable input buffer for all pins.
 221:.\Generated_Source\PSoC4/SPI0_PM.c **** *   SCB mode SmartCard: 
 222:.\Generated_Source\PSoC4/SPI0_PM.c **** *     Standard and IrDA - disable input buffer for TX pin.
 223:.\Generated_Source\PSoC4/SPI0_PM.c **** *     SmartCard - RX_TX pin is pulled-up. Leave pin as it is.
ARM GAS  C:\Users\CHUCK~1.ERH\AppData\Local\Temp\cczSZqcz.s 			page 7


 224:.\Generated_Source\PSoC4/SPI0_PM.c **** *
 225:.\Generated_Source\PSoC4/SPI0_PM.c **** * Parameters:
 226:.\Generated_Source\PSoC4/SPI0_PM.c **** *  None
 227:.\Generated_Source\PSoC4/SPI0_PM.c **** *
 228:.\Generated_Source\PSoC4/SPI0_PM.c **** * Return:
 229:.\Generated_Source\PSoC4/SPI0_PM.c **** *  None
 230:.\Generated_Source\PSoC4/SPI0_PM.c **** *
 231:.\Generated_Source\PSoC4/SPI0_PM.c **** *******************************************************************************/
 232:.\Generated_Source\PSoC4/SPI0_PM.c **** void SPI0_DisableTxPinsInputBuffer(void)
 233:.\Generated_Source\PSoC4/SPI0_PM.c **** {
 120              		.loc 1 233 0
 121              		.cfi_startproc
 122 0000 80B5     		push	{r7, lr}
 123              	.LCFI4:
 124              		.cfi_def_cfa_offset 8
 125              		.cfi_offset 7, -8
 126              		.cfi_offset 14, -4
 127 0002 00AF     		add	r7, sp, #0
 128              	.LCFI5:
 129              		.cfi_def_cfa_register 7
 234:.\Generated_Source\PSoC4/SPI0_PM.c **** #if(SPI0_SCB_MODE_UNCONFIG_CONST_CFG)
 235:.\Generated_Source\PSoC4/SPI0_PM.c ****     
 236:.\Generated_Source\PSoC4/SPI0_PM.c ****     /* SCB mode is I2C and EZI2C: bus is pulled-up. Does nothing */
 237:.\Generated_Source\PSoC4/SPI0_PM.c ****        
 238:.\Generated_Source\PSoC4/SPI0_PM.c ****     if(SPI0_SCB_MODE_SPI_RUNTM_CFG)
 239:.\Generated_Source\PSoC4/SPI0_PM.c ****     {
 240:.\Generated_Source\PSoC4/SPI0_PM.c ****         if(0u != (SPI0_SPI_CTRL_REG & SPI0_SPI_CTRL_MASTER))
 241:.\Generated_Source\PSoC4/SPI0_PM.c ****         /* SPI Master */
 242:.\Generated_Source\PSoC4/SPI0_PM.c ****         {
 243:.\Generated_Source\PSoC4/SPI0_PM.c ****         #if(SPI0_MOSI_SCL_RX_WAKE_PIN)
 244:.\Generated_Source\PSoC4/SPI0_PM.c ****             SPI0_spi_mosi_i2c_scl_uart_rx_wake_INP_DIS |= \
 245:.\Generated_Source\PSoC4/SPI0_PM.c ****                                                                 SPI0_spi_mosi_i2c_scl_uart_rx_wake_
 246:.\Generated_Source\PSoC4/SPI0_PM.c ****         #endif /* (SPI0_MOSI_SCL_RX_WAKE_PIN) */
 247:.\Generated_Source\PSoC4/SPI0_PM.c **** 
 248:.\Generated_Source\PSoC4/SPI0_PM.c ****         #if(SPI0_MOSI_SCL_RX_PIN)
 249:.\Generated_Source\PSoC4/SPI0_PM.c ****             SPI0_spi_mosi_i2c_scl_uart_rx_INP_DIS |= SPI0_spi_mosi_i2c_scl_uart_rx_MASK;
 250:.\Generated_Source\PSoC4/SPI0_PM.c ****         #endif /* (SPI0_MOSI_SCL_RX_PIN) */
 251:.\Generated_Source\PSoC4/SPI0_PM.c **** 
 252:.\Generated_Source\PSoC4/SPI0_PM.c ****         #if(SPI0_MISO_SDA_TX_PIN)
 253:.\Generated_Source\PSoC4/SPI0_PM.c ****             SPI0_spi_miso_i2c_sda_uart_tx_INP_DIS |= SPI0_spi_miso_i2c_sda_uart_tx_MASK;
 254:.\Generated_Source\PSoC4/SPI0_PM.c ****         #endif /* (SPI0_MISO_SDA_TX_PIN_PIN) */
 255:.\Generated_Source\PSoC4/SPI0_PM.c **** 
 256:.\Generated_Source\PSoC4/SPI0_PM.c ****         #if(SPI0_SCLK_PIN)
 257:.\Generated_Source\PSoC4/SPI0_PM.c ****             SPI0_spi_sclk_INP_DIS |= SPI0_spi_sclk_MASK;
 258:.\Generated_Source\PSoC4/SPI0_PM.c ****         #endif /* (SPI0_SCLK_PIN) */
 259:.\Generated_Source\PSoC4/SPI0_PM.c **** 
 260:.\Generated_Source\PSoC4/SPI0_PM.c ****         #if(SPI0_SS0_PIN)
 261:.\Generated_Source\PSoC4/SPI0_PM.c ****             SPI0_spi_ss0_INP_DIS |= SPI0_spi_ss0_MASK;
 262:.\Generated_Source\PSoC4/SPI0_PM.c ****         #endif /* (SPI0_SS1_PIN) */
 263:.\Generated_Source\PSoC4/SPI0_PM.c **** 
 264:.\Generated_Source\PSoC4/SPI0_PM.c ****         #if(SPI0_SS1_PIN)
 265:.\Generated_Source\PSoC4/SPI0_PM.c ****             SPI0_spi_ss1_INP_DIS |= SPI0_spi_ss1_MASK;
 266:.\Generated_Source\PSoC4/SPI0_PM.c ****         #endif /* (SPI0_SS1_PIN) */
 267:.\Generated_Source\PSoC4/SPI0_PM.c **** 
 268:.\Generated_Source\PSoC4/SPI0_PM.c ****         #if(SPI0_SS2_PIN)
 269:.\Generated_Source\PSoC4/SPI0_PM.c ****             SPI0_spi_ss2_INP_DIS |= SPI0_spi_ss2_MASK;
 270:.\Generated_Source\PSoC4/SPI0_PM.c ****         #endif /* (SPI0_SS2_PIN) */
ARM GAS  C:\Users\CHUCK~1.ERH\AppData\Local\Temp\cczSZqcz.s 			page 8


 271:.\Generated_Source\PSoC4/SPI0_PM.c **** 
 272:.\Generated_Source\PSoC4/SPI0_PM.c ****         #if(SPI0_SS3_PIN)
 273:.\Generated_Source\PSoC4/SPI0_PM.c ****             SPI0_spi_ss3_INP_DIS |= SPI0_spi_ss3_MASK;
 274:.\Generated_Source\PSoC4/SPI0_PM.c ****         #endif /* (SPI0_SS3_PIN) */
 275:.\Generated_Source\PSoC4/SPI0_PM.c ****         }
 276:.\Generated_Source\PSoC4/SPI0_PM.c ****         else
 277:.\Generated_Source\PSoC4/SPI0_PM.c ****         /* SPI Slave */
 278:.\Generated_Source\PSoC4/SPI0_PM.c ****         {
 279:.\Generated_Source\PSoC4/SPI0_PM.c ****         #if(SPI0_MISO_SDA_TX_PIN)
 280:.\Generated_Source\PSoC4/SPI0_PM.c ****             SPI0_spi_miso_i2c_sda_uart_tx_INP_DIS |= SPI0_spi_miso_i2c_sda_uart_tx_MASK;
 281:.\Generated_Source\PSoC4/SPI0_PM.c ****         #endif /* (SPI0_MISO_SDA_TX_PIN_PIN) */
 282:.\Generated_Source\PSoC4/SPI0_PM.c ****         }
 283:.\Generated_Source\PSoC4/SPI0_PM.c ****     }
 284:.\Generated_Source\PSoC4/SPI0_PM.c ****     else if (SPI0_SCB_MODE_UART_RUNTM_CFG)
 285:.\Generated_Source\PSoC4/SPI0_PM.c ****     {
 286:.\Generated_Source\PSoC4/SPI0_PM.c ****         if(SPI0_UART_CTRL_MODE_UART_SMARTCARD != 
 287:.\Generated_Source\PSoC4/SPI0_PM.c ****             (SPI0_UART_CTRL_REG & SPI0_UART_CTRL_MODE_MASK))
 288:.\Generated_Source\PSoC4/SPI0_PM.c ****         /* UART Standard or IrDA */
 289:.\Generated_Source\PSoC4/SPI0_PM.c ****         {
 290:.\Generated_Source\PSoC4/SPI0_PM.c ****         #if(SPI0_MISO_SDA_TX_PIN)
 291:.\Generated_Source\PSoC4/SPI0_PM.c ****             SPI0_spi_miso_i2c_sda_uart_tx_INP_DIS |= SPI0_spi_miso_i2c_sda_uart_tx_MASK;
 292:.\Generated_Source\PSoC4/SPI0_PM.c ****         #endif /* (SPI0_MISO_SDA_TX_PIN_PIN) */
 293:.\Generated_Source\PSoC4/SPI0_PM.c ****         }
 294:.\Generated_Source\PSoC4/SPI0_PM.c ****     }
 295:.\Generated_Source\PSoC4/SPI0_PM.c ****     else
 296:.\Generated_Source\PSoC4/SPI0_PM.c ****     {
 297:.\Generated_Source\PSoC4/SPI0_PM.c ****         /* Does nothing */
 298:.\Generated_Source\PSoC4/SPI0_PM.c ****     }
 299:.\Generated_Source\PSoC4/SPI0_PM.c ****     
 300:.\Generated_Source\PSoC4/SPI0_PM.c **** #else
 301:.\Generated_Source\PSoC4/SPI0_PM.c ****     
 302:.\Generated_Source\PSoC4/SPI0_PM.c ****     /* SCB mode is I2C and EZI2C: bus is pulled-up. Does nothing */
 303:.\Generated_Source\PSoC4/SPI0_PM.c ****         
 304:.\Generated_Source\PSoC4/SPI0_PM.c ****     /* SCB mode is SPI Master */
 305:.\Generated_Source\PSoC4/SPI0_PM.c ****     #if(SPI0_SPI_MASTER_PINS)
 306:.\Generated_Source\PSoC4/SPI0_PM.c ****         SPI0_sclk_m_INP_DIS |= SPI0_sclk_m_MASK;
 130              		.loc 1 306 0
 131 0004 0F4B     		ldr	r3, .L10
 132 0006 0F4A     		ldr	r2, .L10
 133 0008 1268     		ldr	r2, [r2]
 134 000a 4021     		mov	r1, #64
 135 000c 0A43     		orr	r2, r1
 136 000e 1A60     		str	r2, [r3]
 307:.\Generated_Source\PSoC4/SPI0_PM.c ****         SPI0_mosi_m_INP_DIS |= SPI0_mosi_m_MASK;
 137              		.loc 1 307 0
 138 0010 0D4B     		ldr	r3, .L10+4
 139 0012 0D4A     		ldr	r2, .L10+4
 140 0014 1268     		ldr	r2, [r2]
 141 0016 0121     		mov	r1, #1
 142 0018 0A43     		orr	r2, r1
 143 001a 1A60     		str	r2, [r3]
 308:.\Generated_Source\PSoC4/SPI0_PM.c ****         SPI0_miso_m_INP_DIS |= SPI0_miso_m_MASK;
 144              		.loc 1 308 0
 145 001c 0A4B     		ldr	r3, .L10+4
 146 001e 0A4A     		ldr	r2, .L10+4
 147 0020 1268     		ldr	r2, [r2]
 148 0022 0221     		mov	r1, #2
ARM GAS  C:\Users\CHUCK~1.ERH\AppData\Local\Temp\cczSZqcz.s 			page 9


 149 0024 0A43     		orr	r2, r1
 150 0026 1A60     		str	r2, [r3]
 309:.\Generated_Source\PSoC4/SPI0_PM.c ****     #endif /* (SPI0_SPI_MASTER_PINS) */
 310:.\Generated_Source\PSoC4/SPI0_PM.c **** 
 311:.\Generated_Source\PSoC4/SPI0_PM.c ****     #if(SPI0_SPI_MASTER_SS0_PIN)
 312:.\Generated_Source\PSoC4/SPI0_PM.c ****         SPI0_ss0_m_INP_DIS |= SPI0_ss0_m_MASK;
 151              		.loc 1 312 0
 152 0028 064B     		ldr	r3, .L10
 153 002a 064A     		ldr	r2, .L10
 154 002c 1268     		ldr	r2, [r2]
 155 002e 8021     		mov	r1, #128
 156 0030 0A43     		orr	r2, r1
 157 0032 1A60     		str	r2, [r3]
 313:.\Generated_Source\PSoC4/SPI0_PM.c ****     #endif /* (SPI0_SPI_MASTER_SS0_PIN) */
 314:.\Generated_Source\PSoC4/SPI0_PM.c **** 
 315:.\Generated_Source\PSoC4/SPI0_PM.c ****     #if(SPI0_SPI_MASTER_SS1_PIN)
 316:.\Generated_Source\PSoC4/SPI0_PM.c ****         SPI0_ss1_m_INP_DIS |= SPI0_ss1_m_MASK;
 158              		.loc 1 316 0
 159 0034 044B     		ldr	r3, .L10+4
 160 0036 044A     		ldr	r2, .L10+4
 161 0038 1268     		ldr	r2, [r2]
 162 003a 1021     		mov	r1, #16
 163 003c 0A43     		orr	r2, r1
 164 003e 1A60     		str	r2, [r3]
 317:.\Generated_Source\PSoC4/SPI0_PM.c ****     #endif /* (SPI0_SPI_MASTER_SS1_PIN) */
 318:.\Generated_Source\PSoC4/SPI0_PM.c **** 
 319:.\Generated_Source\PSoC4/SPI0_PM.c ****     #if(SPI0_SPI_MASTER_SS2_PIN)
 320:.\Generated_Source\PSoC4/SPI0_PM.c ****         SPI0_ss2_m_INP_DIS |= SPI0_ss2_m_MASK;
 321:.\Generated_Source\PSoC4/SPI0_PM.c ****     #endif /* (SPI0_SPI_MASTER_SS2_PIN) */
 322:.\Generated_Source\PSoC4/SPI0_PM.c **** 
 323:.\Generated_Source\PSoC4/SPI0_PM.c ****     #if(SPI0_SPI_MASTER_SS3_PIN)
 324:.\Generated_Source\PSoC4/SPI0_PM.c ****         SPI0_ss3_m_INP_DIS |= SPI0_ss3_m_MASK;
 325:.\Generated_Source\PSoC4/SPI0_PM.c ****     #endif /* (SPI0_SPI_MASTER_SS3_PIN) */
 326:.\Generated_Source\PSoC4/SPI0_PM.c ****     
 327:.\Generated_Source\PSoC4/SPI0_PM.c ****     /* SCB mode is SPI Slave */
 328:.\Generated_Source\PSoC4/SPI0_PM.c ****     #if(SPI0_SPI_SLAVE_PINS)
 329:.\Generated_Source\PSoC4/SPI0_PM.c ****         SPI0_miso_s_INP_DIS |= SPI0_miso_s_MASK;
 330:.\Generated_Source\PSoC4/SPI0_PM.c ****     #endif /* (SPI0_SPI_SLAVE_PINS) */
 331:.\Generated_Source\PSoC4/SPI0_PM.c **** 
 332:.\Generated_Source\PSoC4/SPI0_PM.c ****     /* SCB mode is UART */
 333:.\Generated_Source\PSoC4/SPI0_PM.c ****     #if(SPI0_UART_TX_PIN)
 334:.\Generated_Source\PSoC4/SPI0_PM.c ****         SPI0_tx_INP_DIS |= SPI0_tx_MASK;
 335:.\Generated_Source\PSoC4/SPI0_PM.c ****     #endif /* (SPI0_UART_TX_PIN) */
 336:.\Generated_Source\PSoC4/SPI0_PM.c **** 
 337:.\Generated_Source\PSoC4/SPI0_PM.c **** #endif /* (SPI0_SCB_MODE_UNCONFIG_CONST_CFG) */
 338:.\Generated_Source\PSoC4/SPI0_PM.c **** }
 165              		.loc 1 338 0
 166 0040 BD46     		mov	sp, r7
 167              		@ sp needed for prologue
 168 0042 80BD     		pop	{r7, pc}
 169              	.L11:
 170              		.align	2
 171              	.L10:
 172 0044 18000440 		.word	1074003992
 173 0048 18030440 		.word	1074004760
 174              		.cfi_endproc
 175              	.LFE2:
ARM GAS  C:\Users\CHUCK~1.ERH\AppData\Local\Temp\cczSZqcz.s 			page 10


 176              		.size	SPI0_DisableTxPinsInputBuffer, .-SPI0_DisableTxPinsInputBuffer
 177              		.section	.text.SPI0_EnableTxPinsInputBuffer,"ax",%progbits
 178              		.align	2
 179              		.global	SPI0_EnableTxPinsInputBuffer
 180              		.code	16
 181              		.thumb_func
 182              		.type	SPI0_EnableTxPinsInputBuffer, %function
 183              	SPI0_EnableTxPinsInputBuffer:
 184              	.LFB3:
 339:.\Generated_Source\PSoC4/SPI0_PM.c **** 
 340:.\Generated_Source\PSoC4/SPI0_PM.c **** 
 341:.\Generated_Source\PSoC4/SPI0_PM.c **** /*******************************************************************************
 342:.\Generated_Source\PSoC4/SPI0_PM.c **** * Function Name: SPI0_EnableTxPinsInputBuffer
 343:.\Generated_Source\PSoC4/SPI0_PM.c **** ********************************************************************************
 344:.\Generated_Source\PSoC4/SPI0_PM.c **** *
 345:.\Generated_Source\PSoC4/SPI0_PM.c **** * Summary:
 346:.\Generated_Source\PSoC4/SPI0_PM.c **** *  Enables input buffers for TX pins. Restore changes done byte
 347:.\Generated_Source\PSoC4/SPI0_PM.c **** *SPI0_DisableTxPinsInputBuffer.
 348:.\Generated_Source\PSoC4/SPI0_PM.c **** *
 349:.\Generated_Source\PSoC4/SPI0_PM.c **** * Parameters:
 350:.\Generated_Source\PSoC4/SPI0_PM.c **** *  None
 351:.\Generated_Source\PSoC4/SPI0_PM.c **** *
 352:.\Generated_Source\PSoC4/SPI0_PM.c **** * Return:
 353:.\Generated_Source\PSoC4/SPI0_PM.c **** *  None
 354:.\Generated_Source\PSoC4/SPI0_PM.c **** *
 355:.\Generated_Source\PSoC4/SPI0_PM.c **** *******************************************************************************/
 356:.\Generated_Source\PSoC4/SPI0_PM.c **** void SPI0_EnableTxPinsInputBuffer(void)
 357:.\Generated_Source\PSoC4/SPI0_PM.c **** {
 185              		.loc 1 357 0
 186              		.cfi_startproc
 187 0000 80B5     		push	{r7, lr}
 188              	.LCFI6:
 189              		.cfi_def_cfa_offset 8
 190              		.cfi_offset 7, -8
 191              		.cfi_offset 14, -4
 192 0002 00AF     		add	r7, sp, #0
 193              	.LCFI7:
 194              		.cfi_def_cfa_register 7
 358:.\Generated_Source\PSoC4/SPI0_PM.c **** #if(SPI0_SCB_MODE_UNCONFIG_CONST_CFG)
 359:.\Generated_Source\PSoC4/SPI0_PM.c ****     if(SPI0_SCB_MODE_SPI_RUNTM_CFG)
 360:.\Generated_Source\PSoC4/SPI0_PM.c ****     {
 361:.\Generated_Source\PSoC4/SPI0_PM.c ****         if(0u != (SPI0_SPI_CTRL_REG & SPI0_SPI_CTRL_MASTER))
 362:.\Generated_Source\PSoC4/SPI0_PM.c ****         /* SPI Master */
 363:.\Generated_Source\PSoC4/SPI0_PM.c ****         {
 364:.\Generated_Source\PSoC4/SPI0_PM.c ****         #if(SPI0_MOSI_SCL_RX_WAKE_PIN)
 365:.\Generated_Source\PSoC4/SPI0_PM.c ****             SPI0_spi_mosi_i2c_scl_uart_rx_wake_INP_DIS &= \
 366:.\Generated_Source\PSoC4/SPI0_PM.c ****                                             (uint32) ~((uint32) SPI0_spi_mosi_i2c_scl_uart_rx_wake_
 367:.\Generated_Source\PSoC4/SPI0_PM.c ****         #endif /* (SPI0_MOSI_SCL_RX_WAKE_PIN) */
 368:.\Generated_Source\PSoC4/SPI0_PM.c **** 
 369:.\Generated_Source\PSoC4/SPI0_PM.c ****         #if(SPI0_MOSI_SCL_RX_PIN)
 370:.\Generated_Source\PSoC4/SPI0_PM.c ****             SPI0_spi_mosi_i2c_scl_uart_rx_INP_DIS &= \
 371:.\Generated_Source\PSoC4/SPI0_PM.c ****                                             (uint32) ~((uint32) SPI0_spi_mosi_i2c_scl_uart_rx_MASK)
 372:.\Generated_Source\PSoC4/SPI0_PM.c ****         #endif /* (SPI0_MOSI_SCL_RX_PIN) */
 373:.\Generated_Source\PSoC4/SPI0_PM.c **** 
 374:.\Generated_Source\PSoC4/SPI0_PM.c ****         #if(SPI0_MISO_SDA_TX_PIN)
 375:.\Generated_Source\PSoC4/SPI0_PM.c ****             SPI0_spi_miso_i2c_sda_uart_tx_INP_DIS &= \
 376:.\Generated_Source\PSoC4/SPI0_PM.c ****                                             (uint32) ~((uint32) SPI0_spi_miso_i2c_sda_uart_tx_MASK)
ARM GAS  C:\Users\CHUCK~1.ERH\AppData\Local\Temp\cczSZqcz.s 			page 11


 377:.\Generated_Source\PSoC4/SPI0_PM.c ****         #endif /* (SPI0_MISO_SDA_TX_PIN_PIN) */
 378:.\Generated_Source\PSoC4/SPI0_PM.c **** 
 379:.\Generated_Source\PSoC4/SPI0_PM.c ****         #if(SPI0_SCLK_PIN)
 380:.\Generated_Source\PSoC4/SPI0_PM.c ****             SPI0_spi_sclk_INP_DIS &= (uint32) ~((uint32) SPI0_spi_sclk_MASK);
 381:.\Generated_Source\PSoC4/SPI0_PM.c ****         #endif /* (SPI0_SCLK_PIN) */
 382:.\Generated_Source\PSoC4/SPI0_PM.c **** 
 383:.\Generated_Source\PSoC4/SPI0_PM.c ****         #if(SPI0_SS0_PIN)
 384:.\Generated_Source\PSoC4/SPI0_PM.c ****             SPI0_spi_ss0_INP_DIS &= (uint32) ~((uint32) SPI0_spi_ss0_MASK);
 385:.\Generated_Source\PSoC4/SPI0_PM.c ****         #endif /* (SPI0_SS1_PIN) */
 386:.\Generated_Source\PSoC4/SPI0_PM.c **** 
 387:.\Generated_Source\PSoC4/SPI0_PM.c ****         #if(SPI0_SS1_PIN)
 388:.\Generated_Source\PSoC4/SPI0_PM.c ****             SPI0_spi_ss1_INP_DIS &= (uint32) ~((uint32) SPI0_spi_ss1_MASK);
 389:.\Generated_Source\PSoC4/SPI0_PM.c ****         #endif /* (SPI0_SS1_PIN) */
 390:.\Generated_Source\PSoC4/SPI0_PM.c **** 
 391:.\Generated_Source\PSoC4/SPI0_PM.c ****         #if(SPI0_SS2_PIN)
 392:.\Generated_Source\PSoC4/SPI0_PM.c ****             SPI0_spi_ss2_INP_DIS &= (uint32) ~((uint32) SPI0_spi_ss2_MASK);
 393:.\Generated_Source\PSoC4/SPI0_PM.c ****         #endif /* (SPI0_SS2_PIN) */
 394:.\Generated_Source\PSoC4/SPI0_PM.c **** 
 395:.\Generated_Source\PSoC4/SPI0_PM.c ****         #if(SPI0_SS3_PIN)
 396:.\Generated_Source\PSoC4/SPI0_PM.c ****             SPI0_spi_ss3_INP_DIS &= (uint32) ~((uint32) SPI0_spi_ss3_MASK);
 397:.\Generated_Source\PSoC4/SPI0_PM.c ****         #endif /* (SPI0_SS3_PIN) */
 398:.\Generated_Source\PSoC4/SPI0_PM.c ****         }
 399:.\Generated_Source\PSoC4/SPI0_PM.c ****         else
 400:.\Generated_Source\PSoC4/SPI0_PM.c ****         /* SPI Slave */
 401:.\Generated_Source\PSoC4/SPI0_PM.c ****         {
 402:.\Generated_Source\PSoC4/SPI0_PM.c ****         #if(SPI0_MISO_SDA_TX_PIN)
 403:.\Generated_Source\PSoC4/SPI0_PM.c ****             SPI0_spi_miso_i2c_sda_uart_tx_INP_DIS &= \
 404:.\Generated_Source\PSoC4/SPI0_PM.c ****                                                 (uint32) ~((uint32) SPI0_spi_miso_i2c_sda_uart_tx_M
 405:.\Generated_Source\PSoC4/SPI0_PM.c ****         #endif /* (SPI0_MISO_SDA_TX_PIN_PIN) */
 406:.\Generated_Source\PSoC4/SPI0_PM.c ****         }
 407:.\Generated_Source\PSoC4/SPI0_PM.c ****     }
 408:.\Generated_Source\PSoC4/SPI0_PM.c ****     else if (SPI0_SCB_MODE_UART_RUNTM_CFG)
 409:.\Generated_Source\PSoC4/SPI0_PM.c ****     {
 410:.\Generated_Source\PSoC4/SPI0_PM.c ****         if(SPI0_UART_CTRL_MODE_UART_SMARTCARD != 
 411:.\Generated_Source\PSoC4/SPI0_PM.c ****                 (SPI0_UART_CTRL_REG & SPI0_UART_CTRL_MODE_MASK))
 412:.\Generated_Source\PSoC4/SPI0_PM.c ****         /* UART Standard or IrDA */
 413:.\Generated_Source\PSoC4/SPI0_PM.c ****         {
 414:.\Generated_Source\PSoC4/SPI0_PM.c ****         #if(SPI0_MISO_SDA_TX_PIN)
 415:.\Generated_Source\PSoC4/SPI0_PM.c ****             SPI0_spi_miso_i2c_sda_uart_tx_INP_DIS &= \
 416:.\Generated_Source\PSoC4/SPI0_PM.c ****                                                 (uint32) ~((uint32) SPI0_spi_miso_i2c_sda_uart_tx_M
 417:.\Generated_Source\PSoC4/SPI0_PM.c ****         #endif /* (SPI0_MISO_SDA_TX_PIN_PIN) */
 418:.\Generated_Source\PSoC4/SPI0_PM.c ****         }
 419:.\Generated_Source\PSoC4/SPI0_PM.c ****     }
 420:.\Generated_Source\PSoC4/SPI0_PM.c ****     else
 421:.\Generated_Source\PSoC4/SPI0_PM.c ****     {
 422:.\Generated_Source\PSoC4/SPI0_PM.c ****         /* Does nothing */
 423:.\Generated_Source\PSoC4/SPI0_PM.c ****     }
 424:.\Generated_Source\PSoC4/SPI0_PM.c ****     
 425:.\Generated_Source\PSoC4/SPI0_PM.c **** #else
 426:.\Generated_Source\PSoC4/SPI0_PM.c ****         
 427:.\Generated_Source\PSoC4/SPI0_PM.c ****     /* SCB mode is SPI Master */
 428:.\Generated_Source\PSoC4/SPI0_PM.c ****     #if(SPI0_SPI_MASTER_PINS)
 429:.\Generated_Source\PSoC4/SPI0_PM.c ****         SPI0_sclk_m_INP_DIS &= (uint32) ~((uint32) SPI0_sclk_m_MASK);
 195              		.loc 1 429 0
 196 0004 0F4B     		ldr	r3, .L13
 197 0006 0F4A     		ldr	r2, .L13
 198 0008 1268     		ldr	r2, [r2]
ARM GAS  C:\Users\CHUCK~1.ERH\AppData\Local\Temp\cczSZqcz.s 			page 12


 199 000a 4021     		mov	r1, #64
 200 000c 8A43     		bic	r2, r1
 201 000e 1A60     		str	r2, [r3]
 430:.\Generated_Source\PSoC4/SPI0_PM.c ****         SPI0_mosi_m_INP_DIS &= (uint32) ~((uint32) SPI0_mosi_m_MASK);
 202              		.loc 1 430 0
 203 0010 0D4B     		ldr	r3, .L13+4
 204 0012 0D4A     		ldr	r2, .L13+4
 205 0014 1268     		ldr	r2, [r2]
 206 0016 0121     		mov	r1, #1
 207 0018 8A43     		bic	r2, r1
 208 001a 1A60     		str	r2, [r3]
 431:.\Generated_Source\PSoC4/SPI0_PM.c ****         SPI0_miso_m_INP_DIS &= (uint32) ~((uint32) SPI0_miso_m_MASK);
 209              		.loc 1 431 0
 210 001c 0A4B     		ldr	r3, .L13+4
 211 001e 0A4A     		ldr	r2, .L13+4
 212 0020 1268     		ldr	r2, [r2]
 213 0022 0221     		mov	r1, #2
 214 0024 8A43     		bic	r2, r1
 215 0026 1A60     		str	r2, [r3]
 432:.\Generated_Source\PSoC4/SPI0_PM.c ****     #endif /* (SPI0_SPI_MASTER_PINS) */
 433:.\Generated_Source\PSoC4/SPI0_PM.c **** 
 434:.\Generated_Source\PSoC4/SPI0_PM.c ****     #if(SPI0_SPI_MASTER_SS0_PIN)
 435:.\Generated_Source\PSoC4/SPI0_PM.c ****         SPI0_ss0_m_INP_DIS &= (uint32) ~((uint32) SPI0_ss0_m_MASK);
 216              		.loc 1 435 0
 217 0028 064B     		ldr	r3, .L13
 218 002a 064A     		ldr	r2, .L13
 219 002c 1268     		ldr	r2, [r2]
 220 002e 8021     		mov	r1, #128
 221 0030 8A43     		bic	r2, r1
 222 0032 1A60     		str	r2, [r3]
 436:.\Generated_Source\PSoC4/SPI0_PM.c ****     #endif /* (SPI0_SPI_MASTER_SS0_PIN) */
 437:.\Generated_Source\PSoC4/SPI0_PM.c **** 
 438:.\Generated_Source\PSoC4/SPI0_PM.c ****     #if(SPI0_SPI_MASTER_SS1_PIN)
 439:.\Generated_Source\PSoC4/SPI0_PM.c ****         SPI0_ss1_m_INP_DIS &= (uint32) ~((uint32) SPI0_ss1_m_MASK);
 223              		.loc 1 439 0
 224 0034 044B     		ldr	r3, .L13+4
 225 0036 044A     		ldr	r2, .L13+4
 226 0038 1268     		ldr	r2, [r2]
 227 003a 1021     		mov	r1, #16
 228 003c 8A43     		bic	r2, r1
 229 003e 1A60     		str	r2, [r3]
 440:.\Generated_Source\PSoC4/SPI0_PM.c ****     #endif /* (SPI0_SPI_MASTER_SS1_PIN) */
 441:.\Generated_Source\PSoC4/SPI0_PM.c **** 
 442:.\Generated_Source\PSoC4/SPI0_PM.c ****     #if(SPI0_SPI_MASTER_SS2_PIN)
 443:.\Generated_Source\PSoC4/SPI0_PM.c ****         SPI0_ss2_m_INP_DIS &= (uint32) ~((uint32) SPI0_ss2_m_MASK);
 444:.\Generated_Source\PSoC4/SPI0_PM.c ****     #endif /* (SPI0_SPI_MASTER_SS2_PIN) */
 445:.\Generated_Source\PSoC4/SPI0_PM.c **** 
 446:.\Generated_Source\PSoC4/SPI0_PM.c ****     #if(SPI0_SPI_MASTER_SS3_PIN)
 447:.\Generated_Source\PSoC4/SPI0_PM.c ****         SPI0_ss3_m_INP_DIS &= (uint32) ~((uint32) SPI0_ss3_m_MASK);
 448:.\Generated_Source\PSoC4/SPI0_PM.c ****     #endif /* (SPI0_SPI_MASTER_SS3_PIN) */
 449:.\Generated_Source\PSoC4/SPI0_PM.c ****     
 450:.\Generated_Source\PSoC4/SPI0_PM.c ****     /* SCB mode is SPI Slave */
 451:.\Generated_Source\PSoC4/SPI0_PM.c ****     #if(SPI0_SPI_SLAVE_PINS)
 452:.\Generated_Source\PSoC4/SPI0_PM.c ****         SPI0_miso_s_INP_DIS &= (uint32) ~((uint32) SPI0_miso_s_MASK);
 453:.\Generated_Source\PSoC4/SPI0_PM.c ****     #endif /* (SPI0_SPI_SLAVE_PINS) */
 454:.\Generated_Source\PSoC4/SPI0_PM.c **** 
 455:.\Generated_Source\PSoC4/SPI0_PM.c ****     /* SCB mode is UART */
ARM GAS  C:\Users\CHUCK~1.ERH\AppData\Local\Temp\cczSZqcz.s 			page 13


 456:.\Generated_Source\PSoC4/SPI0_PM.c ****     #if(SPI0_UART_TX_PIN)
 457:.\Generated_Source\PSoC4/SPI0_PM.c ****         SPI0_tx_INP_DIS &= (uint32) ~((uint32) SPI0_tx_MASK);
 458:.\Generated_Source\PSoC4/SPI0_PM.c ****     #endif /* (SPI0_UART_TX_PIN) */
 459:.\Generated_Source\PSoC4/SPI0_PM.c **** 
 460:.\Generated_Source\PSoC4/SPI0_PM.c **** #endif /* (SPI0_SCB_MODE_UNCONFIG_CONST_CFG) */
 461:.\Generated_Source\PSoC4/SPI0_PM.c **** }
 230              		.loc 1 461 0
 231 0040 BD46     		mov	sp, r7
 232              		@ sp needed for prologue
 233 0042 80BD     		pop	{r7, pc}
 234              	.L14:
 235              		.align	2
 236              	.L13:
 237 0044 18000440 		.word	1074003992
 238 0048 18030440 		.word	1074004760
 239              		.cfi_endproc
 240              	.LFE3:
 241              		.size	SPI0_EnableTxPinsInputBuffer, .-SPI0_EnableTxPinsInputBuffer
 242              		.text
 243              	.Letext0:
 244              		.file 2 ".\\Generated_Source\\PSoC4\\cytypes.h"
 245              		.file 3 ".\\Generated_Source\\PSoC4\\SPI0.h"