ARM GAS  C:\Users\CHUCK~1.ERH\AppData\Local\Temp\cc3WNf3l.s 			page 1


   1              		.cpu cortex-m0
   2              		.fpu softvfp
   3              		.eabi_attribute 20, 1
   4              		.eabi_attribute 21, 1
   5              		.eabi_attribute 23, 3
   6              		.eabi_attribute 24, 1
   7              		.eabi_attribute 25, 1
   8              		.eabi_attribute 26, 1
   9              		.eabi_attribute 30, 4
  10              		.eabi_attribute 34, 0
  11              		.eabi_attribute 18, 4
  12              		.code	16
  13              		.file	"cyfitter_cfg.c"
  14              		.text
  15              	.Ltext0:
  16              		.cfi_sections	.debug_frame
  17              		.section	.psocinit,"ax",%progbits
  18              		.align	1
  19              		.global	cyfitter_cfg
  20              		.code	16
  21              		.thumb_func
  22              		.type	cyfitter_cfg, %function
  23              	cyfitter_cfg:
  24              	.LFB7:
  25              		.file 1 ".\\Generated_Source\\PSoC4\\cyfitter_cfg.c"
   1:.\Generated_Source\PSoC4/cyfitter_cfg.c **** /*******************************************************************************
   2:.\Generated_Source\PSoC4/cyfitter_cfg.c **** * FILENAME: cyfitter_cfg.c
   3:.\Generated_Source\PSoC4/cyfitter_cfg.c **** * PSoC Creator 3.0 Component Pack 7
   4:.\Generated_Source\PSoC4/cyfitter_cfg.c **** *
   5:.\Generated_Source\PSoC4/cyfitter_cfg.c **** * Description:
   6:.\Generated_Source\PSoC4/cyfitter_cfg.c **** * This file is automatically generated by PSoC Creator with device 
   7:.\Generated_Source\PSoC4/cyfitter_cfg.c **** * initialization code.  Except for the user defined sections in
   8:.\Generated_Source\PSoC4/cyfitter_cfg.c **** * CyClockStartupError(), this file should not be modified.
   9:.\Generated_Source\PSoC4/cyfitter_cfg.c **** *
  10:.\Generated_Source\PSoC4/cyfitter_cfg.c **** ********************************************************************************
  11:.\Generated_Source\PSoC4/cyfitter_cfg.c **** * Copyright 2013, Cypress Semiconductor Corporation.  All rights reserved.
  12:.\Generated_Source\PSoC4/cyfitter_cfg.c **** * You may use this file only in accordance with the license, terms, conditions, 
  13:.\Generated_Source\PSoC4/cyfitter_cfg.c **** * disclaimers, and limitations in the end user license agreement accompanying 
  14:.\Generated_Source\PSoC4/cyfitter_cfg.c **** * the software package with which this file was provided.
  15:.\Generated_Source\PSoC4/cyfitter_cfg.c **** ********************************************************************************/
  16:.\Generated_Source\PSoC4/cyfitter_cfg.c **** 
  17:.\Generated_Source\PSoC4/cyfitter_cfg.c **** #include <string.h>
  18:.\Generated_Source\PSoC4/cyfitter_cfg.c **** #include <cytypes.h>
  19:.\Generated_Source\PSoC4/cyfitter_cfg.c **** #include <cydevice_trm.h>
  20:.\Generated_Source\PSoC4/cyfitter_cfg.c **** #include <cyfitter.h>
  21:.\Generated_Source\PSoC4/cyfitter_cfg.c **** #include <CyLib.h>
  22:.\Generated_Source\PSoC4/cyfitter_cfg.c **** #include <cyfitter_cfg.h>
  23:.\Generated_Source\PSoC4/cyfitter_cfg.c **** 
  24:.\Generated_Source\PSoC4/cyfitter_cfg.c **** 
  25:.\Generated_Source\PSoC4/cyfitter_cfg.c **** #if defined(__GNUC__) || defined(__ARMCC_VERSION)
  26:.\Generated_Source\PSoC4/cyfitter_cfg.c ****     #define CYPACKED 
  27:.\Generated_Source\PSoC4/cyfitter_cfg.c ****     #define CYPACKED_ATTR __attribute__ ((packed))
  28:.\Generated_Source\PSoC4/cyfitter_cfg.c ****     #define CYALIGNED __attribute__ ((aligned))
  29:.\Generated_Source\PSoC4/cyfitter_cfg.c ****     #define CY_CFG_UNUSED __attribute__ ((unused))
  30:.\Generated_Source\PSoC4/cyfitter_cfg.c ****     #define CY_CFG_SECTION __attribute__ ((section(".psocinit")))
  31:.\Generated_Source\PSoC4/cyfitter_cfg.c ****     
  32:.\Generated_Source\PSoC4/cyfitter_cfg.c ****     #if defined(__ARMCC_VERSION)
ARM GAS  C:\Users\CHUCK~1.ERH\AppData\Local\Temp\cc3WNf3l.s 			page 2


  33:.\Generated_Source\PSoC4/cyfitter_cfg.c ****         #define CY_CFG_MEMORY_BARRIER() __memory_changed()
  34:.\Generated_Source\PSoC4/cyfitter_cfg.c ****     #else
  35:.\Generated_Source\PSoC4/cyfitter_cfg.c ****         #define CY_CFG_MEMORY_BARRIER() __sync_synchronize()
  36:.\Generated_Source\PSoC4/cyfitter_cfg.c ****     #endif
  37:.\Generated_Source\PSoC4/cyfitter_cfg.c ****     
  38:.\Generated_Source\PSoC4/cyfitter_cfg.c **** #elif defined(__ICCARM__)
  39:.\Generated_Source\PSoC4/cyfitter_cfg.c ****     #include <intrinsics.h>
  40:.\Generated_Source\PSoC4/cyfitter_cfg.c **** 
  41:.\Generated_Source\PSoC4/cyfitter_cfg.c ****     #define CYPACKED __packed
  42:.\Generated_Source\PSoC4/cyfitter_cfg.c ****     #define CYPACKED_ATTR 
  43:.\Generated_Source\PSoC4/cyfitter_cfg.c ****     #define CYALIGNED _Pragma("data_alignment=4")
  44:.\Generated_Source\PSoC4/cyfitter_cfg.c ****     #define CY_CFG_UNUSED _Pragma("diag_suppress=Pe177")
  45:.\Generated_Source\PSoC4/cyfitter_cfg.c ****     #define CY_CFG_SECTION _Pragma("location=\".psocinit\"")
  46:.\Generated_Source\PSoC4/cyfitter_cfg.c ****     
  47:.\Generated_Source\PSoC4/cyfitter_cfg.c ****     #define CY_CFG_MEMORY_BARRIER() __DMB()
  48:.\Generated_Source\PSoC4/cyfitter_cfg.c ****     
  49:.\Generated_Source\PSoC4/cyfitter_cfg.c **** #else
  50:.\Generated_Source\PSoC4/cyfitter_cfg.c ****     #error Unsupported toolchain
  51:.\Generated_Source\PSoC4/cyfitter_cfg.c **** #endif
  52:.\Generated_Source\PSoC4/cyfitter_cfg.c **** 
  53:.\Generated_Source\PSoC4/cyfitter_cfg.c **** 
  54:.\Generated_Source\PSoC4/cyfitter_cfg.c **** CY_CFG_UNUSED
  55:.\Generated_Source\PSoC4/cyfitter_cfg.c **** static void CYMEMZERO(void *s, size_t n);
  56:.\Generated_Source\PSoC4/cyfitter_cfg.c **** CY_CFG_UNUSED
  57:.\Generated_Source\PSoC4/cyfitter_cfg.c **** static void CYMEMZERO(void *s, size_t n)
  58:.\Generated_Source\PSoC4/cyfitter_cfg.c **** {
  59:.\Generated_Source\PSoC4/cyfitter_cfg.c **** 	(void)memset(s, 0, n);
  60:.\Generated_Source\PSoC4/cyfitter_cfg.c **** }
  61:.\Generated_Source\PSoC4/cyfitter_cfg.c **** CY_CFG_UNUSED
  62:.\Generated_Source\PSoC4/cyfitter_cfg.c **** static void CYCONFIGCPY(void *dest, const void *src, size_t n);
  63:.\Generated_Source\PSoC4/cyfitter_cfg.c **** CY_CFG_UNUSED
  64:.\Generated_Source\PSoC4/cyfitter_cfg.c **** static void CYCONFIGCPY(void *dest, const void *src, size_t n)
  65:.\Generated_Source\PSoC4/cyfitter_cfg.c **** {
  66:.\Generated_Source\PSoC4/cyfitter_cfg.c **** 	(void)memcpy(dest, src, n);
  67:.\Generated_Source\PSoC4/cyfitter_cfg.c **** }
  68:.\Generated_Source\PSoC4/cyfitter_cfg.c **** CY_CFG_UNUSED
  69:.\Generated_Source\PSoC4/cyfitter_cfg.c **** static void CYCONFIGCPYCODE(void *dest, const void *src, size_t n);
  70:.\Generated_Source\PSoC4/cyfitter_cfg.c **** CY_CFG_UNUSED
  71:.\Generated_Source\PSoC4/cyfitter_cfg.c **** static void CYCONFIGCPYCODE(void *dest, const void *src, size_t n)
  72:.\Generated_Source\PSoC4/cyfitter_cfg.c **** {
  73:.\Generated_Source\PSoC4/cyfitter_cfg.c **** 	(void)memcpy(dest, src, n);
  74:.\Generated_Source\PSoC4/cyfitter_cfg.c **** }
  75:.\Generated_Source\PSoC4/cyfitter_cfg.c **** 
  76:.\Generated_Source\PSoC4/cyfitter_cfg.c **** 
  77:.\Generated_Source\PSoC4/cyfitter_cfg.c **** 
  78:.\Generated_Source\PSoC4/cyfitter_cfg.c **** /* Clock startup error codes                                                   */
  79:.\Generated_Source\PSoC4/cyfitter_cfg.c **** #define CYCLOCKSTART_NO_ERROR    0u
  80:.\Generated_Source\PSoC4/cyfitter_cfg.c **** #define CYCLOCKSTART_XTAL_ERROR  1u
  81:.\Generated_Source\PSoC4/cyfitter_cfg.c **** #define CYCLOCKSTART_32KHZ_ERROR 2u
  82:.\Generated_Source\PSoC4/cyfitter_cfg.c **** #define CYCLOCKSTART_PLL_ERROR   3u
  83:.\Generated_Source\PSoC4/cyfitter_cfg.c **** 
  84:.\Generated_Source\PSoC4/cyfitter_cfg.c **** #ifdef CY_NEED_CYCLOCKSTARTUPERROR
  85:.\Generated_Source\PSoC4/cyfitter_cfg.c **** /*******************************************************************************
  86:.\Generated_Source\PSoC4/cyfitter_cfg.c **** * Function Name: CyClockStartupError
  87:.\Generated_Source\PSoC4/cyfitter_cfg.c **** ********************************************************************************
  88:.\Generated_Source\PSoC4/cyfitter_cfg.c **** * Summary:
  89:.\Generated_Source\PSoC4/cyfitter_cfg.c **** *  If an error is encountered during clock configuration (crystal startup error,
ARM GAS  C:\Users\CHUCK~1.ERH\AppData\Local\Temp\cc3WNf3l.s 			page 3


  90:.\Generated_Source\PSoC4/cyfitter_cfg.c **** *  PLL lock error, etc.), the system will end up here.  Unless reimplemented by
  91:.\Generated_Source\PSoC4/cyfitter_cfg.c **** *  the customer, this function will stop in an infinite loop.
  92:.\Generated_Source\PSoC4/cyfitter_cfg.c **** *
  93:.\Generated_Source\PSoC4/cyfitter_cfg.c **** * Parameters:
  94:.\Generated_Source\PSoC4/cyfitter_cfg.c **** *   void
  95:.\Generated_Source\PSoC4/cyfitter_cfg.c **** *
  96:.\Generated_Source\PSoC4/cyfitter_cfg.c **** * Return:
  97:.\Generated_Source\PSoC4/cyfitter_cfg.c **** *   void
  98:.\Generated_Source\PSoC4/cyfitter_cfg.c **** *
  99:.\Generated_Source\PSoC4/cyfitter_cfg.c **** *******************************************************************************/
 100:.\Generated_Source\PSoC4/cyfitter_cfg.c **** CY_CFG_UNUSED
 101:.\Generated_Source\PSoC4/cyfitter_cfg.c **** static void CyClockStartupError(uint8 errorCode);
 102:.\Generated_Source\PSoC4/cyfitter_cfg.c **** CY_CFG_UNUSED
 103:.\Generated_Source\PSoC4/cyfitter_cfg.c **** static void CyClockStartupError(uint8 errorCode)
 104:.\Generated_Source\PSoC4/cyfitter_cfg.c **** {
 105:.\Generated_Source\PSoC4/cyfitter_cfg.c ****     /* To remove the compiler warning if errorCode not used.                */
 106:.\Generated_Source\PSoC4/cyfitter_cfg.c ****     errorCode = errorCode;
 107:.\Generated_Source\PSoC4/cyfitter_cfg.c **** 
 108:.\Generated_Source\PSoC4/cyfitter_cfg.c ****     /* `#START CyClockStartupError` */
 109:.\Generated_Source\PSoC4/cyfitter_cfg.c **** 
 110:.\Generated_Source\PSoC4/cyfitter_cfg.c ****     /* If we have a clock startup error (bad MHz crystal, PLL lock, etc.),  */
 111:.\Generated_Source\PSoC4/cyfitter_cfg.c ****     /* we will end up here to allow the customer to implement something to  */
 112:.\Generated_Source\PSoC4/cyfitter_cfg.c ****     /* deal with the clock condition.                                       */
 113:.\Generated_Source\PSoC4/cyfitter_cfg.c **** 
 114:.\Generated_Source\PSoC4/cyfitter_cfg.c ****     /* `#END` */
 115:.\Generated_Source\PSoC4/cyfitter_cfg.c **** 
 116:.\Generated_Source\PSoC4/cyfitter_cfg.c ****     /* If nothing else, stop here since the clocks have not started         */
 117:.\Generated_Source\PSoC4/cyfitter_cfg.c ****     /* correctly.                                                           */
 118:.\Generated_Source\PSoC4/cyfitter_cfg.c ****     while(1) {}
 119:.\Generated_Source\PSoC4/cyfitter_cfg.c **** }
 120:.\Generated_Source\PSoC4/cyfitter_cfg.c **** #endif
 121:.\Generated_Source\PSoC4/cyfitter_cfg.c **** 
 122:.\Generated_Source\PSoC4/cyfitter_cfg.c **** #define CY_CFG_BASE_ADDR_COUNT 7u
 123:.\Generated_Source\PSoC4/cyfitter_cfg.c **** CYPACKED typedef struct
 124:.\Generated_Source\PSoC4/cyfitter_cfg.c **** {
 125:.\Generated_Source\PSoC4/cyfitter_cfg.c **** 	uint8 offset;
 126:.\Generated_Source\PSoC4/cyfitter_cfg.c **** 	uint8 value;
 127:.\Generated_Source\PSoC4/cyfitter_cfg.c **** } CYPACKED_ATTR cy_cfg_addrvalue_t;
 128:.\Generated_Source\PSoC4/cyfitter_cfg.c **** 
 129:.\Generated_Source\PSoC4/cyfitter_cfg.c **** 
 130:.\Generated_Source\PSoC4/cyfitter_cfg.c **** 
 131:.\Generated_Source\PSoC4/cyfitter_cfg.c **** /*******************************************************************************
 132:.\Generated_Source\PSoC4/cyfitter_cfg.c **** * Function Name: cfg_write_bytes32
 133:.\Generated_Source\PSoC4/cyfitter_cfg.c **** ********************************************************************************
 134:.\Generated_Source\PSoC4/cyfitter_cfg.c **** * Summary:
 135:.\Generated_Source\PSoC4/cyfitter_cfg.c **** *  This function is used for setting up the chip configuration areas that
 136:.\Generated_Source\PSoC4/cyfitter_cfg.c **** *  contain relatively sparse data.
 137:.\Generated_Source\PSoC4/cyfitter_cfg.c **** *
 138:.\Generated_Source\PSoC4/cyfitter_cfg.c **** * Parameters:
 139:.\Generated_Source\PSoC4/cyfitter_cfg.c **** *   void
 140:.\Generated_Source\PSoC4/cyfitter_cfg.c **** *
 141:.\Generated_Source\PSoC4/cyfitter_cfg.c **** * Return:
 142:.\Generated_Source\PSoC4/cyfitter_cfg.c **** *   void
 143:.\Generated_Source\PSoC4/cyfitter_cfg.c **** *
 144:.\Generated_Source\PSoC4/cyfitter_cfg.c **** *******************************************************************************/
 145:.\Generated_Source\PSoC4/cyfitter_cfg.c **** static void cfg_write_bytes32(const uint32 addr_table[], const cy_cfg_addrvalue_t data_table[]);
 146:.\Generated_Source\PSoC4/cyfitter_cfg.c **** static void cfg_write_bytes32(const uint32 addr_table[], const cy_cfg_addrvalue_t data_table[])
ARM GAS  C:\Users\CHUCK~1.ERH\AppData\Local\Temp\cc3WNf3l.s 			page 4


 147:.\Generated_Source\PSoC4/cyfitter_cfg.c **** {
 148:.\Generated_Source\PSoC4/cyfitter_cfg.c **** 	/* For 32-bit little-endian architectures */
 149:.\Generated_Source\PSoC4/cyfitter_cfg.c **** 	uint32 i, j = 0u;
 150:.\Generated_Source\PSoC4/cyfitter_cfg.c **** 	for (i = 0u; i < CY_CFG_BASE_ADDR_COUNT; i++)
 151:.\Generated_Source\PSoC4/cyfitter_cfg.c **** 	{
 152:.\Generated_Source\PSoC4/cyfitter_cfg.c **** 		uint32 baseAddr = addr_table[i];
 153:.\Generated_Source\PSoC4/cyfitter_cfg.c **** 		uint8 count = (uint8)baseAddr;
 154:.\Generated_Source\PSoC4/cyfitter_cfg.c **** 		baseAddr &= 0xFFFFFF00u;
 155:.\Generated_Source\PSoC4/cyfitter_cfg.c **** 		while (count != 0u)
 156:.\Generated_Source\PSoC4/cyfitter_cfg.c **** 		{
 157:.\Generated_Source\PSoC4/cyfitter_cfg.c **** 			CY_SET_XTND_REG8((void CYFAR *)(baseAddr + data_table[j].offset), data_table[j].value);
 158:.\Generated_Source\PSoC4/cyfitter_cfg.c **** 			j++;
 159:.\Generated_Source\PSoC4/cyfitter_cfg.c **** 			count--;
 160:.\Generated_Source\PSoC4/cyfitter_cfg.c **** 		}
 161:.\Generated_Source\PSoC4/cyfitter_cfg.c **** 	}
 162:.\Generated_Source\PSoC4/cyfitter_cfg.c **** }
 163:.\Generated_Source\PSoC4/cyfitter_cfg.c **** 
 164:.\Generated_Source\PSoC4/cyfitter_cfg.c **** /*******************************************************************************
 165:.\Generated_Source\PSoC4/cyfitter_cfg.c **** * Function Name: SetIMOBGTrims
 166:.\Generated_Source\PSoC4/cyfitter_cfg.c **** ********************************************************************************
 167:.\Generated_Source\PSoC4/cyfitter_cfg.c **** *
 168:.\Generated_Source\PSoC4/cyfitter_cfg.c **** * Summary:
 169:.\Generated_Source\PSoC4/cyfitter_cfg.c **** *   Performs the configuration of the bandgap trim for the IMO based on the given
 170:.\Generated_Source\PSoC4/cyfitter_cfg.c **** *   expected frequency of the IMO. 
 171:.\Generated_Source\PSoC4/cyfitter_cfg.c **** *
 172:.\Generated_Source\PSoC4/cyfitter_cfg.c **** * Parameters:
 173:.\Generated_Source\PSoC4/cyfitter_cfg.c **** *   imoFreq: Frequency for operation of the IMO.
 174:.\Generated_Source\PSoC4/cyfitter_cfg.c **** *
 175:.\Generated_Source\PSoC4/cyfitter_cfg.c **** * Return:
 176:.\Generated_Source\PSoC4/cyfitter_cfg.c **** *   void
 177:.\Generated_Source\PSoC4/cyfitter_cfg.c **** *
 178:.\Generated_Source\PSoC4/cyfitter_cfg.c **** *******************************************************************************/
 179:.\Generated_Source\PSoC4/cyfitter_cfg.c **** static void SetIMOBGTrims(uint8 imoFreq);
 180:.\Generated_Source\PSoC4/cyfitter_cfg.c **** CY_CFG_SECTION
 181:.\Generated_Source\PSoC4/cyfitter_cfg.c **** static void SetIMOBGTrims(uint8 imoFreq)
 182:.\Generated_Source\PSoC4/cyfitter_cfg.c **** {
 183:.\Generated_Source\PSoC4/cyfitter_cfg.c **** 	CYPACKED typedef struct {
 184:.\Generated_Source\PSoC4/cyfitter_cfg.c **** 		uint8 freq;
 185:.\Generated_Source\PSoC4/cyfitter_cfg.c **** 		uint8 absolute;
 186:.\Generated_Source\PSoC4/cyfitter_cfg.c **** 		uint8 tmpco;
 187:.\Generated_Source\PSoC4/cyfitter_cfg.c **** 	} CYPACKED_ATTR imo_trim_entry_t;
 188:.\Generated_Source\PSoC4/cyfitter_cfg.c **** 
 189:.\Generated_Source\PSoC4/cyfitter_cfg.c **** 	CYPACKED typedef struct {
 190:.\Generated_Source\PSoC4/cyfitter_cfg.c **** 		imo_trim_entry_t entries[4];
 191:.\Generated_Source\PSoC4/cyfitter_cfg.c **** 	} CYPACKED_ATTR imo_trim_table_t;
 192:.\Generated_Source\PSoC4/cyfitter_cfg.c **** 
 193:.\Generated_Source\PSoC4/cyfitter_cfg.c **** 	static const imo_trim_table_t *imo_trim_table = (const imo_trim_table_t *)CYREG_SFLASH_IMO_MAXF0;
 194:.\Generated_Source\PSoC4/cyfitter_cfg.c **** 	static const uint32 IMO_TRIM_FREQ_TABLE_ENTRIES = sizeof(imo_trim_table->entries)/sizeof(imo_trim_
 195:.\Generated_Source\PSoC4/cyfitter_cfg.c **** 
 196:.\Generated_Source\PSoC4/cyfitter_cfg.c **** 	int32 imoTrimIndex;
 197:.\Generated_Source\PSoC4/cyfitter_cfg.c **** 	uint8 setAbs;
 198:.\Generated_Source\PSoC4/cyfitter_cfg.c **** 	uint8 setTmpCo;
 199:.\Generated_Source\PSoC4/cyfitter_cfg.c **** 
 200:.\Generated_Source\PSoC4/cyfitter_cfg.c **** 	/* Traverse the SFLASH IMO frequency-dependent bandgap trim table to
 201:.\Generated_Source\PSoC4/cyfitter_cfg.c **** 	 * locate the appropriate value to trim the IMO bandgap based on freq. */
 202:.\Generated_Source\PSoC4/cyfitter_cfg.c **** 	setAbs = CY_GET_REG8((const void *)CYREG_SFLASH_IMO_ABS4);
 203:.\Generated_Source\PSoC4/cyfitter_cfg.c **** 	setTmpCo = CY_GET_REG8((const void *)CYREG_SFLASH_IMO_TMPCO4);
ARM GAS  C:\Users\CHUCK~1.ERH\AppData\Local\Temp\cc3WNf3l.s 			page 5


 204:.\Generated_Source\PSoC4/cyfitter_cfg.c **** 	for (imoTrimIndex = ((int32)IMO_TRIM_FREQ_TABLE_ENTRIES)-1;
 205:.\Generated_Source\PSoC4/cyfitter_cfg.c **** 	     (imoTrimIndex >= 0) && (imoFreq <= imo_trim_table->entries[imoTrimIndex].freq);
 206:.\Generated_Source\PSoC4/cyfitter_cfg.c **** 	     imoTrimIndex--)
 207:.\Generated_Source\PSoC4/cyfitter_cfg.c **** 	{
 208:.\Generated_Source\PSoC4/cyfitter_cfg.c **** 		setAbs = imo_trim_table->entries[imoTrimIndex].absolute;
 209:.\Generated_Source\PSoC4/cyfitter_cfg.c **** 		setTmpCo = imo_trim_table->entries[imoTrimIndex].tmpco;
 210:.\Generated_Source\PSoC4/cyfitter_cfg.c **** 	}
 211:.\Generated_Source\PSoC4/cyfitter_cfg.c **** 
 212:.\Generated_Source\PSoC4/cyfitter_cfg.c **** 	CY_SET_REG32((void *)CYREG_PWR_BG_TRIM4, setAbs);
 213:.\Generated_Source\PSoC4/cyfitter_cfg.c **** 	CY_SET_REG32((void *)CYREG_PWR_BG_TRIM5, setTmpCo);
 214:.\Generated_Source\PSoC4/cyfitter_cfg.c **** }
 215:.\Generated_Source\PSoC4/cyfitter_cfg.c **** 
 216:.\Generated_Source\PSoC4/cyfitter_cfg.c **** 
 217:.\Generated_Source\PSoC4/cyfitter_cfg.c **** 
 218:.\Generated_Source\PSoC4/cyfitter_cfg.c **** /*******************************************************************************
 219:.\Generated_Source\PSoC4/cyfitter_cfg.c **** * Function Name: ClockSetup
 220:.\Generated_Source\PSoC4/cyfitter_cfg.c **** ********************************************************************************
 221:.\Generated_Source\PSoC4/cyfitter_cfg.c **** *
 222:.\Generated_Source\PSoC4/cyfitter_cfg.c **** * Summary:
 223:.\Generated_Source\PSoC4/cyfitter_cfg.c **** *   Performs the initialization of all of the clocks in the device based on the
 224:.\Generated_Source\PSoC4/cyfitter_cfg.c **** *   settings in the Clock tab of the DWR.  This includes enabling the requested
 225:.\Generated_Source\PSoC4/cyfitter_cfg.c **** *   clocks and setting the necessary dividers to produce the desired frequency. 
 226:.\Generated_Source\PSoC4/cyfitter_cfg.c **** *
 227:.\Generated_Source\PSoC4/cyfitter_cfg.c **** * Parameters:
 228:.\Generated_Source\PSoC4/cyfitter_cfg.c **** *   void
 229:.\Generated_Source\PSoC4/cyfitter_cfg.c **** *
 230:.\Generated_Source\PSoC4/cyfitter_cfg.c **** * Return:
 231:.\Generated_Source\PSoC4/cyfitter_cfg.c **** *   void
 232:.\Generated_Source\PSoC4/cyfitter_cfg.c **** *
 233:.\Generated_Source\PSoC4/cyfitter_cfg.c **** *******************************************************************************/
 234:.\Generated_Source\PSoC4/cyfitter_cfg.c **** static void ClockSetup(void);
 235:.\Generated_Source\PSoC4/cyfitter_cfg.c **** CY_CFG_SECTION
 236:.\Generated_Source\PSoC4/cyfitter_cfg.c **** static void ClockSetup(void)
 237:.\Generated_Source\PSoC4/cyfitter_cfg.c **** {
 238:.\Generated_Source\PSoC4/cyfitter_cfg.c **** 	/* Enable HALF_EN before trimming for the flash accelerator. */
 239:.\Generated_Source\PSoC4/cyfitter_cfg.c **** 	CY_SET_REG32((void CYXDATA *)(CYREG_CLK_SELECT), (CY_GET_REG32((void *)CYREG_CLK_SELECT) | 0x00040
 240:.\Generated_Source\PSoC4/cyfitter_cfg.c **** 
 241:.\Generated_Source\PSoC4/cyfitter_cfg.c **** 	/* Trim IMO BG based on desired frequency. */
 242:.\Generated_Source\PSoC4/cyfitter_cfg.c **** 	SetIMOBGTrims(48u);
 243:.\Generated_Source\PSoC4/cyfitter_cfg.c **** 
 244:.\Generated_Source\PSoC4/cyfitter_cfg.c **** 	/* Going faster than 24MHz, so update trim value then adjust to new clock speed. */
 245:.\Generated_Source\PSoC4/cyfitter_cfg.c **** 	CY_SET_REG32((void CYXDATA *)(CYREG_CLK_IMO_TRIM1), (CY_GET_REG8((void *)CYREG_SFLASH_IMO_TRIM45))
 246:.\Generated_Source\PSoC4/cyfitter_cfg.c **** 	CyDelayUs(5u);
 247:.\Generated_Source\PSoC4/cyfitter_cfg.c **** 	CY_SET_REG32((void CYXDATA *)(CYREG_CLK_IMO_TRIM2), (53u));
 248:.\Generated_Source\PSoC4/cyfitter_cfg.c **** 
 249:.\Generated_Source\PSoC4/cyfitter_cfg.c **** 	/* CYDEV_CLK_SELECT00 Starting address: CYDEV_CLK_SELECT00 */
 250:.\Generated_Source\PSoC4/cyfitter_cfg.c **** 	CY_SET_XTND_REG32((void CYFAR *)(CYREG_CLK_SELECT02), 0x00000010u);
 251:.\Generated_Source\PSoC4/cyfitter_cfg.c **** 	CY_SET_XTND_REG32((void CYFAR *)(CYREG_CLK_SELECT03), 0x00000010u);
 252:.\Generated_Source\PSoC4/cyfitter_cfg.c **** 
 253:.\Generated_Source\PSoC4/cyfitter_cfg.c **** 	/* CYDEV_CLK_IMO_CONFIG Starting address: CYDEV_CLK_IMO_CONFIG */
 254:.\Generated_Source\PSoC4/cyfitter_cfg.c **** 	CY_SET_XTND_REG32((void CYFAR *)(CYREG_CLK_IMO_CONFIG), 0x80000000u);
 255:.\Generated_Source\PSoC4/cyfitter_cfg.c **** 
 256:.\Generated_Source\PSoC4/cyfitter_cfg.c **** 	/* CYDEV_CLK_ILO_CONFIG Starting address: CYDEV_CLK_ILO_CONFIG */
 257:.\Generated_Source\PSoC4/cyfitter_cfg.c **** 	CY_SET_XTND_REG32((void CYFAR *)(CYREG_CLK_ILO_CONFIG), 0x80000000u);
 258:.\Generated_Source\PSoC4/cyfitter_cfg.c **** 
 259:.\Generated_Source\PSoC4/cyfitter_cfg.c **** 	/* CYDEV_CLK_SELECT Starting address: CYDEV_CLK_SELECT */
 260:.\Generated_Source\PSoC4/cyfitter_cfg.c **** 	CY_SET_XTND_REG32((void CYFAR *)(CYREG_CLK_SELECT), 0x00040000u);
ARM GAS  C:\Users\CHUCK~1.ERH\AppData\Local\Temp\cc3WNf3l.s 			page 6


 261:.\Generated_Source\PSoC4/cyfitter_cfg.c **** 
 262:.\Generated_Source\PSoC4/cyfitter_cfg.c **** 	/* CYDEV_CLK_DIVIDER_A00 Starting address: CYDEV_CLK_DIVIDER_A00 */
 263:.\Generated_Source\PSoC4/cyfitter_cfg.c **** 	CY_SET_XTND_REG32((void CYFAR *)(CYREG_CLK_DIVIDER_A00), 0x80000000u);
 264:.\Generated_Source\PSoC4/cyfitter_cfg.c **** 
 265:.\Generated_Source\PSoC4/cyfitter_cfg.c **** }
 266:.\Generated_Source\PSoC4/cyfitter_cfg.c **** 
 267:.\Generated_Source\PSoC4/cyfitter_cfg.c **** 
 268:.\Generated_Source\PSoC4/cyfitter_cfg.c **** /* Analog API Functions */
 269:.\Generated_Source\PSoC4/cyfitter_cfg.c **** 
 270:.\Generated_Source\PSoC4/cyfitter_cfg.c **** 
 271:.\Generated_Source\PSoC4/cyfitter_cfg.c **** /*******************************************************************************
 272:.\Generated_Source\PSoC4/cyfitter_cfg.c **** * Function Name: AnalogSetDefault
 273:.\Generated_Source\PSoC4/cyfitter_cfg.c **** ********************************************************************************
 274:.\Generated_Source\PSoC4/cyfitter_cfg.c **** *
 275:.\Generated_Source\PSoC4/cyfitter_cfg.c **** * Summary:
 276:.\Generated_Source\PSoC4/cyfitter_cfg.c **** *  Sets up the analog portions of the chip to default values based on chip
 277:.\Generated_Source\PSoC4/cyfitter_cfg.c **** *  configuration options from the project.
 278:.\Generated_Source\PSoC4/cyfitter_cfg.c **** *
 279:.\Generated_Source\PSoC4/cyfitter_cfg.c **** * Parameters:
 280:.\Generated_Source\PSoC4/cyfitter_cfg.c **** *  void
 281:.\Generated_Source\PSoC4/cyfitter_cfg.c **** *
 282:.\Generated_Source\PSoC4/cyfitter_cfg.c **** * Return:
 283:.\Generated_Source\PSoC4/cyfitter_cfg.c **** *  void
 284:.\Generated_Source\PSoC4/cyfitter_cfg.c **** *
 285:.\Generated_Source\PSoC4/cyfitter_cfg.c **** *******************************************************************************/
 286:.\Generated_Source\PSoC4/cyfitter_cfg.c **** static void AnalogSetDefault(void);
 287:.\Generated_Source\PSoC4/cyfitter_cfg.c **** static void AnalogSetDefault(void)
 288:.\Generated_Source\PSoC4/cyfitter_cfg.c **** {
 289:.\Generated_Source\PSoC4/cyfitter_cfg.c **** }
 290:.\Generated_Source\PSoC4/cyfitter_cfg.c **** 
 291:.\Generated_Source\PSoC4/cyfitter_cfg.c **** #define CY_AMUX_UNUSED CYREG_CM0_ROM_DWT
 292:.\Generated_Source\PSoC4/cyfitter_cfg.c **** 
 293:.\Generated_Source\PSoC4/cyfitter_cfg.c **** 
 294:.\Generated_Source\PSoC4/cyfitter_cfg.c **** /*******************************************************************************
 295:.\Generated_Source\PSoC4/cyfitter_cfg.c **** * Function Name: cyfitter_cfg
 296:.\Generated_Source\PSoC4/cyfitter_cfg.c **** ********************************************************************************
 297:.\Generated_Source\PSoC4/cyfitter_cfg.c **** * Summary:
 298:.\Generated_Source\PSoC4/cyfitter_cfg.c **** *  This function is called by the start-up code for the selected device. It
 299:.\Generated_Source\PSoC4/cyfitter_cfg.c **** *  performs all of the necessary device configuration based on the design
 300:.\Generated_Source\PSoC4/cyfitter_cfg.c **** *  settings.  This includes settings from the Design Wide Resources (DWR) such
 301:.\Generated_Source\PSoC4/cyfitter_cfg.c **** *  as Clocks and Pins as well as any component configuration that is necessary.
 302:.\Generated_Source\PSoC4/cyfitter_cfg.c **** *
 303:.\Generated_Source\PSoC4/cyfitter_cfg.c **** * Parameters:  
 304:.\Generated_Source\PSoC4/cyfitter_cfg.c **** *   void
 305:.\Generated_Source\PSoC4/cyfitter_cfg.c **** *
 306:.\Generated_Source\PSoC4/cyfitter_cfg.c **** * Return:
 307:.\Generated_Source\PSoC4/cyfitter_cfg.c **** *   void
 308:.\Generated_Source\PSoC4/cyfitter_cfg.c **** *
 309:.\Generated_Source\PSoC4/cyfitter_cfg.c **** *******************************************************************************/
 310:.\Generated_Source\PSoC4/cyfitter_cfg.c **** CY_CFG_SECTION
 311:.\Generated_Source\PSoC4/cyfitter_cfg.c **** void cyfitter_cfg(void)
 312:.\Generated_Source\PSoC4/cyfitter_cfg.c **** {
  26              		.loc 1 312 0
  27              		.cfi_startproc
  28 0000 F8B5     		push	{r3, r4, r5, r6, r7, lr}
  29              	.LCFI0:
  30              		.cfi_def_cfa_offset 24
ARM GAS  C:\Users\CHUCK~1.ERH\AppData\Local\Temp\cc3WNf3l.s 			page 7


  31              		.cfi_offset 3, -24
  32              		.cfi_offset 4, -20
  33              		.cfi_offset 5, -16
  34              		.cfi_offset 6, -12
  35              		.cfi_offset 7, -8
  36              		.cfi_offset 14, -4
 313:.\Generated_Source\PSoC4/cyfitter_cfg.c **** 	/* Disable interrupts by default. Let user enable if/when they want. */
 314:.\Generated_Source\PSoC4/cyfitter_cfg.c **** 	CyGlobalIntDisable;
  37              		.loc 1 314 0
  38              	@ 314 ".\Generated_Source\PSoC4\cyfitter_cfg.c" 1
  39 0002 72B6     		CPSID   i
  40              	@ 0 "" 2
  41              	.LVL0:
  42              		.code	16
  43              	.LBB18:
  44              	.LBB19:
  45              	.LBB20:
  46              	.LBB21:
  59:.\Generated_Source\PSoC4/cyfitter_cfg.c **** 	(void)memset(s, 0, n);
  47              		.loc 1 59 0
  48 0004 8022     		mov	r2, #128
  49 0006 0021     		mov	r1, #0
  50 0008 D200     		lsl	r2, r2, #3
  51 000a 4648     		ldr	r0, .L11
  52 000c FFF7FEFF 		bl	memset
  53              	.LVL1:
  54 0010 8023     		mov	r3, #128
  55 0012 0021     		mov	r1, #0
  56 0014 DA00     		lsl	r2, r3, #3
  57 0016 4448     		ldr	r0, .L11+4
  58 0018 FFF7FEFF 		bl	memset
  59              	.LVL2:
  60 001c 0023     		mov	r3, #0
  61 001e 191C     		mov	r1, r3
  62              	.LVL3:
  63              	.L4:
  64              	.LBE21:
  65              	.LBE20:
  66              	.LBE19:
  67              	.LBB22:
  68              	.LBB23:
  69              	.LBB24:
 152:.\Generated_Source\PSoC4/cyfitter_cfg.c **** 		uint32 baseAddr = addr_table[i];
  70              		.loc 1 152 0
  71 0020 424F     		ldr	r7, .L11+8
 154:.\Generated_Source\PSoC4/cyfitter_cfg.c **** 		baseAddr &= 0xFFFFFF00u;
  72              		.loc 1 154 0
  73 0022 FF25     		mov	r5, #255
 152:.\Generated_Source\PSoC4/cyfitter_cfg.c **** 		uint32 baseAddr = addr_table[i];
  74              		.loc 1 152 0
  75 0024 D859     		ldr	r0, [r3, r7]
  76              	.LVL4:
 311:.\Generated_Source\PSoC4/cyfitter_cfg.c **** void cyfitter_cfg(void)
  77              		.loc 1 311 0
  78 0026 4A00     		lsl	r2, r1, #1
 154:.\Generated_Source\PSoC4/cyfitter_cfg.c **** 		baseAddr &= 0xFFFFFF00u;
  79              		.loc 1 154 0
ARM GAS  C:\Users\CHUCK~1.ERH\AppData\Local\Temp\cc3WNf3l.s 			page 8


  80 0028 061C     		mov	r6, r0
  81 002a AE43     		bic	r6, r5
 315:.\Generated_Source\PSoC4/cyfitter_cfg.c **** 
 316:.\Generated_Source\PSoC4/cyfitter_cfg.c **** 	{
 317:.\Generated_Source\PSoC4/cyfitter_cfg.c **** 		static const uint32 CYCODE cy_cfg_addr_table[] = {
 318:.\Generated_Source\PSoC4/cyfitter_cfg.c **** 			0x400F3004u, /* Base address: 0x400F3000 Count: 4 */
 319:.\Generated_Source\PSoC4/cyfitter_cfg.c **** 			0x400F3103u, /* Base address: 0x400F3100 Count: 3 */
 320:.\Generated_Source\PSoC4/cyfitter_cfg.c **** 			0x400F324Au, /* Base address: 0x400F3200 Count: 74 */
 321:.\Generated_Source\PSoC4/cyfitter_cfg.c **** 			0x400F3331u, /* Base address: 0x400F3300 Count: 49 */
 322:.\Generated_Source\PSoC4/cyfitter_cfg.c **** 			0x400F4006u, /* Base address: 0x400F4000 Count: 6 */
 323:.\Generated_Source\PSoC4/cyfitter_cfg.c **** 			0x400F4104u, /* Base address: 0x400F4100 Count: 4 */
 324:.\Generated_Source\PSoC4/cyfitter_cfg.c **** 			0x400F6002u, /* Base address: 0x400F6000 Count: 2 */
 325:.\Generated_Source\PSoC4/cyfitter_cfg.c **** 		};
 326:.\Generated_Source\PSoC4/cyfitter_cfg.c **** 
 327:.\Generated_Source\PSoC4/cyfitter_cfg.c **** 		static const cy_cfg_addrvalue_t CYCODE cy_cfg_data_table[] = {
 328:.\Generated_Source\PSoC4/cyfitter_cfg.c **** 			{0x38u, 0x28u},
 329:.\Generated_Source\PSoC4/cyfitter_cfg.c **** 			{0x3Eu, 0x14u},
 330:.\Generated_Source\PSoC4/cyfitter_cfg.c **** 			{0x58u, 0x04u},
 331:.\Generated_Source\PSoC4/cyfitter_cfg.c **** 			{0x5Fu, 0x01u},
 332:.\Generated_Source\PSoC4/cyfitter_cfg.c **** 			{0x18u, 0x10u},
 333:.\Generated_Source\PSoC4/cyfitter_cfg.c **** 			{0x1Bu, 0x10u},
 334:.\Generated_Source\PSoC4/cyfitter_cfg.c **** 			{0x87u, 0x20u},
 335:.\Generated_Source\PSoC4/cyfitter_cfg.c **** 			{0x0Cu, 0x04u},
 336:.\Generated_Source\PSoC4/cyfitter_cfg.c **** 			{0x0Fu, 0x01u},
 337:.\Generated_Source\PSoC4/cyfitter_cfg.c **** 			{0x14u, 0x08u},
 338:.\Generated_Source\PSoC4/cyfitter_cfg.c **** 			{0x18u, 0x01u},
 339:.\Generated_Source\PSoC4/cyfitter_cfg.c **** 			{0x1Au, 0x02u},
 340:.\Generated_Source\PSoC4/cyfitter_cfg.c **** 			{0x24u, 0x01u},
 341:.\Generated_Source\PSoC4/cyfitter_cfg.c **** 			{0x26u, 0x02u},
 342:.\Generated_Source\PSoC4/cyfitter_cfg.c **** 			{0x28u, 0x01u},
 343:.\Generated_Source\PSoC4/cyfitter_cfg.c **** 			{0x2Cu, 0x10u},
 344:.\Generated_Source\PSoC4/cyfitter_cfg.c **** 			{0x30u, 0x03u},
 345:.\Generated_Source\PSoC4/cyfitter_cfg.c **** 			{0x32u, 0x10u},
 346:.\Generated_Source\PSoC4/cyfitter_cfg.c **** 			{0x34u, 0x08u},
 347:.\Generated_Source\PSoC4/cyfitter_cfg.c **** 			{0x35u, 0x01u},
 348:.\Generated_Source\PSoC4/cyfitter_cfg.c **** 			{0x36u, 0x04u},
 349:.\Generated_Source\PSoC4/cyfitter_cfg.c **** 			{0x38u, 0x02u},
 350:.\Generated_Source\PSoC4/cyfitter_cfg.c **** 			{0x3Eu, 0x54u},
 351:.\Generated_Source\PSoC4/cyfitter_cfg.c **** 			{0x40u, 0x06u},
 352:.\Generated_Source\PSoC4/cyfitter_cfg.c **** 			{0x45u, 0x01u},
 353:.\Generated_Source\PSoC4/cyfitter_cfg.c **** 			{0x48u, 0x11u},
 354:.\Generated_Source\PSoC4/cyfitter_cfg.c **** 			{0x49u, 0xFFu},
 355:.\Generated_Source\PSoC4/cyfitter_cfg.c **** 			{0x4Au, 0xFFu},
 356:.\Generated_Source\PSoC4/cyfitter_cfg.c **** 			{0x4Bu, 0xFFu},
 357:.\Generated_Source\PSoC4/cyfitter_cfg.c **** 			{0x4Cu, 0x02u},
 358:.\Generated_Source\PSoC4/cyfitter_cfg.c **** 			{0x4Du, 0x20u},
 359:.\Generated_Source\PSoC4/cyfitter_cfg.c **** 			{0x4Eu, 0xF0u},
 360:.\Generated_Source\PSoC4/cyfitter_cfg.c **** 			{0x52u, 0x03u},
 361:.\Generated_Source\PSoC4/cyfitter_cfg.c **** 			{0x58u, 0x0Eu},
 362:.\Generated_Source\PSoC4/cyfitter_cfg.c **** 			{0x59u, 0x04u},
 363:.\Generated_Source\PSoC4/cyfitter_cfg.c **** 			{0x5Au, 0x0Eu},
 364:.\Generated_Source\PSoC4/cyfitter_cfg.c **** 			{0x5Bu, 0x04u},
 365:.\Generated_Source\PSoC4/cyfitter_cfg.c **** 			{0x5Cu, 0x99u},
 366:.\Generated_Source\PSoC4/cyfitter_cfg.c **** 			{0x5Du, 0x99u},
 367:.\Generated_Source\PSoC4/cyfitter_cfg.c **** 			{0x5Fu, 0x01u},
 368:.\Generated_Source\PSoC4/cyfitter_cfg.c **** 			{0x62u, 0x48u},
 369:.\Generated_Source\PSoC4/cyfitter_cfg.c **** 			{0x63u, 0xADu},
ARM GAS  C:\Users\CHUCK~1.ERH\AppData\Local\Temp\cc3WNf3l.s 			page 9


 370:.\Generated_Source\PSoC4/cyfitter_cfg.c **** 			{0x64u, 0xC0u},
 371:.\Generated_Source\PSoC4/cyfitter_cfg.c **** 			{0x66u, 0xC0u},
 372:.\Generated_Source\PSoC4/cyfitter_cfg.c **** 			{0x85u, 0x04u},
 373:.\Generated_Source\PSoC4/cyfitter_cfg.c **** 			{0x87u, 0x08u},
 374:.\Generated_Source\PSoC4/cyfitter_cfg.c **** 			{0x89u, 0x04u},
 375:.\Generated_Source\PSoC4/cyfitter_cfg.c **** 			{0x8Bu, 0x08u},
 376:.\Generated_Source\PSoC4/cyfitter_cfg.c **** 			{0x8Du, 0x01u},
 377:.\Generated_Source\PSoC4/cyfitter_cfg.c **** 			{0x95u, 0x01u},
 378:.\Generated_Source\PSoC4/cyfitter_cfg.c **** 			{0x97u, 0x02u},
 379:.\Generated_Source\PSoC4/cyfitter_cfg.c **** 			{0x99u, 0x04u},
 380:.\Generated_Source\PSoC4/cyfitter_cfg.c **** 			{0xA9u, 0x01u},
 381:.\Generated_Source\PSoC4/cyfitter_cfg.c **** 			{0xABu, 0x02u},
 382:.\Generated_Source\PSoC4/cyfitter_cfg.c **** 			{0xAEu, 0x01u},
 383:.\Generated_Source\PSoC4/cyfitter_cfg.c **** 			{0xB0u, 0x01u},
 384:.\Generated_Source\PSoC4/cyfitter_cfg.c **** 			{0xB1u, 0x0Cu},
 385:.\Generated_Source\PSoC4/cyfitter_cfg.c **** 			{0xB3u, 0x03u},
 386:.\Generated_Source\PSoC4/cyfitter_cfg.c **** 			{0xB9u, 0x0Au},
 387:.\Generated_Source\PSoC4/cyfitter_cfg.c **** 			{0xC0u, 0x03u},
 388:.\Generated_Source\PSoC4/cyfitter_cfg.c **** 			{0xC6u, 0x54u},
 389:.\Generated_Source\PSoC4/cyfitter_cfg.c **** 			{0xC7u, 0x01u},
 390:.\Generated_Source\PSoC4/cyfitter_cfg.c **** 			{0xC8u, 0x1Du},
 391:.\Generated_Source\PSoC4/cyfitter_cfg.c **** 			{0xC9u, 0xFFu},
 392:.\Generated_Source\PSoC4/cyfitter_cfg.c **** 			{0xCAu, 0xFFu},
 393:.\Generated_Source\PSoC4/cyfitter_cfg.c **** 			{0xCBu, 0xFFu},
 394:.\Generated_Source\PSoC4/cyfitter_cfg.c **** 			{0xCCu, 0x02u},
 395:.\Generated_Source\PSoC4/cyfitter_cfg.c **** 			{0xCDu, 0x20u},
 396:.\Generated_Source\PSoC4/cyfitter_cfg.c **** 			{0xCEu, 0xF0u},
 397:.\Generated_Source\PSoC4/cyfitter_cfg.c **** 			{0xD2u, 0x07u},
 398:.\Generated_Source\PSoC4/cyfitter_cfg.c **** 			{0xD8u, 0x04u},
 399:.\Generated_Source\PSoC4/cyfitter_cfg.c **** 			{0xD9u, 0x0Cu},
 400:.\Generated_Source\PSoC4/cyfitter_cfg.c **** 			{0xDAu, 0x0Cu},
 401:.\Generated_Source\PSoC4/cyfitter_cfg.c **** 			{0xDBu, 0x04u},
 402:.\Generated_Source\PSoC4/cyfitter_cfg.c **** 			{0xDCu, 0x99u},
 403:.\Generated_Source\PSoC4/cyfitter_cfg.c **** 			{0xDDu, 0x99u},
 404:.\Generated_Source\PSoC4/cyfitter_cfg.c **** 			{0xDFu, 0x01u},
 405:.\Generated_Source\PSoC4/cyfitter_cfg.c **** 			{0xE2u, 0x48u},
 406:.\Generated_Source\PSoC4/cyfitter_cfg.c **** 			{0xE3u, 0xADu},
 407:.\Generated_Source\PSoC4/cyfitter_cfg.c **** 			{0xE4u, 0xC0u},
 408:.\Generated_Source\PSoC4/cyfitter_cfg.c **** 			{0xE6u, 0xC0u},
 409:.\Generated_Source\PSoC4/cyfitter_cfg.c **** 			{0x04u, 0x40u},
 410:.\Generated_Source\PSoC4/cyfitter_cfg.c **** 			{0x0Du, 0x04u},
 411:.\Generated_Source\PSoC4/cyfitter_cfg.c **** 			{0x0Fu, 0x08u},
 412:.\Generated_Source\PSoC4/cyfitter_cfg.c **** 			{0x10u, 0x02u},
 413:.\Generated_Source\PSoC4/cyfitter_cfg.c **** 			{0x16u, 0x08u},
 414:.\Generated_Source\PSoC4/cyfitter_cfg.c **** 			{0x17u, 0x84u},
 415:.\Generated_Source\PSoC4/cyfitter_cfg.c **** 			{0x1Bu, 0x01u},
 416:.\Generated_Source\PSoC4/cyfitter_cfg.c **** 			{0x1Cu, 0x41u},
 417:.\Generated_Source\PSoC4/cyfitter_cfg.c **** 			{0x1Eu, 0x10u},
 418:.\Generated_Source\PSoC4/cyfitter_cfg.c **** 			{0x1Fu, 0x20u},
 419:.\Generated_Source\PSoC4/cyfitter_cfg.c **** 			{0x21u, 0x04u},
 420:.\Generated_Source\PSoC4/cyfitter_cfg.c **** 			{0x23u, 0x80u},
 421:.\Generated_Source\PSoC4/cyfitter_cfg.c **** 			{0x26u, 0x20u},
 422:.\Generated_Source\PSoC4/cyfitter_cfg.c **** 			{0x2Au, 0x10u},
 423:.\Generated_Source\PSoC4/cyfitter_cfg.c **** 			{0x30u, 0x20u},
 424:.\Generated_Source\PSoC4/cyfitter_cfg.c **** 			{0x32u, 0x04u},
 425:.\Generated_Source\PSoC4/cyfitter_cfg.c **** 			{0x38u, 0x88u},
 426:.\Generated_Source\PSoC4/cyfitter_cfg.c **** 			{0x39u, 0x10u},
ARM GAS  C:\Users\CHUCK~1.ERH\AppData\Local\Temp\cc3WNf3l.s 			page 10


 427:.\Generated_Source\PSoC4/cyfitter_cfg.c **** 			{0x3Eu, 0x40u},
 428:.\Generated_Source\PSoC4/cyfitter_cfg.c **** 			{0x40u, 0x10u},
 429:.\Generated_Source\PSoC4/cyfitter_cfg.c **** 			{0x48u, 0x20u},
 430:.\Generated_Source\PSoC4/cyfitter_cfg.c **** 			{0x4Fu, 0x28u},
 431:.\Generated_Source\PSoC4/cyfitter_cfg.c **** 			{0x50u, 0x44u},
 432:.\Generated_Source\PSoC4/cyfitter_cfg.c **** 			{0x52u, 0x10u},
 433:.\Generated_Source\PSoC4/cyfitter_cfg.c **** 			{0x56u, 0x08u},
 434:.\Generated_Source\PSoC4/cyfitter_cfg.c **** 			{0x68u, 0x02u},
 435:.\Generated_Source\PSoC4/cyfitter_cfg.c **** 			{0x69u, 0x10u},
 436:.\Generated_Source\PSoC4/cyfitter_cfg.c **** 			{0x6Au, 0x08u},
 437:.\Generated_Source\PSoC4/cyfitter_cfg.c **** 			{0x6Eu, 0x40u},
 438:.\Generated_Source\PSoC4/cyfitter_cfg.c **** 			{0x6Fu, 0x04u},
 439:.\Generated_Source\PSoC4/cyfitter_cfg.c **** 			{0x7Bu, 0x01u},
 440:.\Generated_Source\PSoC4/cyfitter_cfg.c **** 			{0x7Eu, 0x20u},
 441:.\Generated_Source\PSoC4/cyfitter_cfg.c **** 			{0x8Eu, 0x10u},
 442:.\Generated_Source\PSoC4/cyfitter_cfg.c **** 			{0x90u, 0x10u},
 443:.\Generated_Source\PSoC4/cyfitter_cfg.c **** 			{0x94u, 0x01u},
 444:.\Generated_Source\PSoC4/cyfitter_cfg.c **** 			{0xA3u, 0x10u},
 445:.\Generated_Source\PSoC4/cyfitter_cfg.c **** 			{0xA7u, 0x20u},
 446:.\Generated_Source\PSoC4/cyfitter_cfg.c **** 			{0xB4u, 0x01u},
 447:.\Generated_Source\PSoC4/cyfitter_cfg.c **** 			{0xC0u, 0x80u},
 448:.\Generated_Source\PSoC4/cyfitter_cfg.c **** 			{0xC2u, 0x60u},
 449:.\Generated_Source\PSoC4/cyfitter_cfg.c **** 			{0xC4u, 0xE1u},
 450:.\Generated_Source\PSoC4/cyfitter_cfg.c **** 			{0xCAu, 0x04u},
 451:.\Generated_Source\PSoC4/cyfitter_cfg.c **** 			{0xCCu, 0x06u},
 452:.\Generated_Source\PSoC4/cyfitter_cfg.c **** 			{0xCEu, 0x1Eu},
 453:.\Generated_Source\PSoC4/cyfitter_cfg.c **** 			{0xD0u, 0x02u},
 454:.\Generated_Source\PSoC4/cyfitter_cfg.c **** 			{0xD2u, 0x20u},
 455:.\Generated_Source\PSoC4/cyfitter_cfg.c **** 			{0xDEu, 0x48u},
 456:.\Generated_Source\PSoC4/cyfitter_cfg.c **** 			{0xE6u, 0x10u},
 457:.\Generated_Source\PSoC4/cyfitter_cfg.c **** 			{0xEEu, 0x10u},
 458:.\Generated_Source\PSoC4/cyfitter_cfg.c **** 			{0x5Bu, 0x20u},
 459:.\Generated_Source\PSoC4/cyfitter_cfg.c **** 			{0x5Eu, 0x20u},
 460:.\Generated_Source\PSoC4/cyfitter_cfg.c **** 			{0x86u, 0x10u},
 461:.\Generated_Source\PSoC4/cyfitter_cfg.c **** 			{0xD4u, 0x80u},
 462:.\Generated_Source\PSoC4/cyfitter_cfg.c **** 			{0xD6u, 0x20u},
 463:.\Generated_Source\PSoC4/cyfitter_cfg.c **** 			{0xE6u, 0x10u},
 464:.\Generated_Source\PSoC4/cyfitter_cfg.c **** 			{0x62u, 0x04u},
 465:.\Generated_Source\PSoC4/cyfitter_cfg.c **** 			{0x8Eu, 0x04u},
 466:.\Generated_Source\PSoC4/cyfitter_cfg.c **** 			{0xB7u, 0x20u},
 467:.\Generated_Source\PSoC4/cyfitter_cfg.c **** 			{0xD8u, 0x40u},
 468:.\Generated_Source\PSoC4/cyfitter_cfg.c **** 			{0x02u, 0x01u},
 469:.\Generated_Source\PSoC4/cyfitter_cfg.c **** 			{0x11u, 0x01u},
 470:.\Generated_Source\PSoC4/cyfitter_cfg.c **** 		};
 471:.\Generated_Source\PSoC4/cyfitter_cfg.c **** 
 472:.\Generated_Source\PSoC4/cyfitter_cfg.c **** 
 473:.\Generated_Source\PSoC4/cyfitter_cfg.c **** 
 474:.\Generated_Source\PSoC4/cyfitter_cfg.c **** 		CYPACKED typedef struct {
 475:.\Generated_Source\PSoC4/cyfitter_cfg.c **** 			void CYFAR *address;
 476:.\Generated_Source\PSoC4/cyfitter_cfg.c **** 			uint16 size;
 477:.\Generated_Source\PSoC4/cyfitter_cfg.c **** 		} CYPACKED_ATTR cfg_memset_t;
 478:.\Generated_Source\PSoC4/cyfitter_cfg.c **** 
 479:.\Generated_Source\PSoC4/cyfitter_cfg.c **** 		static const cfg_memset_t CYCODE cfg_memset_list [] = {
 480:.\Generated_Source\PSoC4/cyfitter_cfg.c **** 			/* address, size */
 481:.\Generated_Source\PSoC4/cyfitter_cfg.c **** 			{(void CYFAR *)(CYDEV_UDB_P0_U0_BASE), 1024u},
 482:.\Generated_Source\PSoC4/cyfitter_cfg.c **** 			{(void CYFAR *)(CYDEV_UDB_DSI0_BASE), 1024u},
 483:.\Generated_Source\PSoC4/cyfitter_cfg.c **** 		};
ARM GAS  C:\Users\CHUCK~1.ERH\AppData\Local\Temp\cc3WNf3l.s 			page 11


 484:.\Generated_Source\PSoC4/cyfitter_cfg.c **** 
 485:.\Generated_Source\PSoC4/cyfitter_cfg.c **** 		uint8 CYDATA i;
 486:.\Generated_Source\PSoC4/cyfitter_cfg.c **** 
 487:.\Generated_Source\PSoC4/cyfitter_cfg.c **** 		/* Zero out critical memory blocks before beginning configuration */
 488:.\Generated_Source\PSoC4/cyfitter_cfg.c **** 		for (i = 0u; i < (sizeof(cfg_memset_list)/sizeof(cfg_memset_list[0])); i++)
 489:.\Generated_Source\PSoC4/cyfitter_cfg.c **** 		{
 490:.\Generated_Source\PSoC4/cyfitter_cfg.c **** 			const cfg_memset_t CYCODE * CYDATA ms = &cfg_memset_list[i];
 491:.\Generated_Source\PSoC4/cyfitter_cfg.c **** 			CYMEMZERO(ms->address, (uint32)(ms->size));
 492:.\Generated_Source\PSoC4/cyfitter_cfg.c **** 		}
 493:.\Generated_Source\PSoC4/cyfitter_cfg.c **** 
 494:.\Generated_Source\PSoC4/cyfitter_cfg.c **** 		cfg_write_bytes32(cy_cfg_addr_table, cy_cfg_data_table);
  82              		.loc 1 494 0
  83 002c 1C37     		add	r7, r7, #28
 153:.\Generated_Source\PSoC4/cyfitter_cfg.c **** 		uint8 count = (uint8)baseAddr;
  84              		.loc 1 153 0
  85 002e C4B2     		uxtb	r4, r0
  86              	.LVL5:
 154:.\Generated_Source\PSoC4/cyfitter_cfg.c **** 		baseAddr &= 0xFFFFFF00u;
  87              		.loc 1 154 0
  88 0030 351C     		mov	r5, r6
  89              	.LVL6:
 311:.\Generated_Source\PSoC4/cyfitter_cfg.c **** void cyfitter_cfg(void)
  90              		.loc 1 311 0
  91 0032 BA18     		add	r2, r7, r2
  92              	.LVL7:
  93              	.L2:
 155:.\Generated_Source\PSoC4/cyfitter_cfg.c **** 		while (count != 0u)
  94              		.loc 1 155 0
  95 0034 002C     		cmp	r4, #0
  96 0036 07D0     		beq	.L10
  97              	.L3:
 157:.\Generated_Source\PSoC4/cyfitter_cfg.c **** 			CY_SET_XTND_REG8((void CYFAR *)(baseAddr + data_table[j].offset), data_table[j].value);
  98              		.loc 1 157 0
  99 0038 1778     		ldrb	r7, [r2]
 159:.\Generated_Source\PSoC4/cyfitter_cfg.c **** 			count--;
 100              		.loc 1 159 0
 101 003a 013C     		sub	r4, r4, #1
 102              	.LVL8:
 157:.\Generated_Source\PSoC4/cyfitter_cfg.c **** 			CY_SET_XTND_REG8((void CYFAR *)(baseAddr + data_table[j].offset), data_table[j].value);
 103              		.loc 1 157 0
 104 003c 7E19     		add	r6, r7, r5
 105 003e 5778     		ldrb	r7, [r2, #1]
 159:.\Generated_Source\PSoC4/cyfitter_cfg.c **** 			count--;
 106              		.loc 1 159 0
 107 0040 E4B2     		uxtb	r4, r4
 108              	.LVL9:
 157:.\Generated_Source\PSoC4/cyfitter_cfg.c **** 			CY_SET_XTND_REG8((void CYFAR *)(baseAddr + data_table[j].offset), data_table[j].value);
 109              		.loc 1 157 0
 110 0042 3770     		strb	r7, [r6]
 111              	.LVL10:
 112 0044 0232     		add	r2, r2, #2
 113 0046 F5E7     		b	.L2
 114              	.L10:
 311:.\Generated_Source\PSoC4/cyfitter_cfg.c **** void cyfitter_cfg(void)
 115              		.loc 1 311 0
 116 0048 C0B2     		uxtb	r0, r0
 117 004a 0433     		add	r3, r3, #4
ARM GAS  C:\Users\CHUCK~1.ERH\AppData\Local\Temp\cc3WNf3l.s 			page 12


 118 004c 0918     		add	r1, r1, r0
 119              	.LVL11:
 120              	.LBE24:
 150:.\Generated_Source\PSoC4/cyfitter_cfg.c **** 	for (i = 0u; i < CY_CFG_BASE_ADDR_COUNT; i++)
 121              		.loc 1 150 0
 122 004e 1C2B     		cmp	r3, #28
 123 0050 E6D1     		bne	.L4
 124              	.LBE23:
 125              	.LBE22:
 495:.\Generated_Source\PSoC4/cyfitter_cfg.c **** 
 496:.\Generated_Source\PSoC4/cyfitter_cfg.c **** 		/* HSIOM Starting address: CYDEV_HSIOM_BASE */
 497:.\Generated_Source\PSoC4/cyfitter_cfg.c **** 		CY_SET_XTND_REG32((void CYFAR *)(CYDEV_HSIOM_BASE), 0xFF003300u);
 126              		.loc 1 497 0
 127 0052 374C     		ldr	r4, .L11+12
 128              	.LVL12:
 129 0054 374B     		ldr	r3, .L11+16
 498:.\Generated_Source\PSoC4/cyfitter_cfg.c **** 		CY_SET_XTND_REG32((void CYFAR *)(CYREG_HSIOM_PORT_SEL1), 0x03000000u);
 130              		.loc 1 498 0
 131 0056 C027     		mov	r7, #192
 132 0058 374E     		ldr	r6, .L11+20
 497:.\Generated_Source\PSoC4/cyfitter_cfg.c **** 		CY_SET_XTND_REG32((void CYFAR *)(CYDEV_HSIOM_BASE), 0xFF003300u);
 133              		.loc 1 497 0
 134 005a 1C60     		str	r4, [r3]
 135              		.loc 1 498 0
 136 005c BD04     		lsl	r5, r7, #18
 137              	.LVL13:
 499:.\Generated_Source\PSoC4/cyfitter_cfg.c **** 		CY_SET_XTND_REG32((void CYFAR *)(CYREG_HSIOM_PORT_SEL3), 0x000FEEFFu);
 138              		.loc 1 499 0
 139 005e 374A     		ldr	r2, .L11+24
 140 0060 3748     		ldr	r0, .L11+28
 500:.\Generated_Source\PSoC4/cyfitter_cfg.c **** 
 501:.\Generated_Source\PSoC4/cyfitter_cfg.c **** 		/* IOPINS0_0 Starting address: CYDEV_PRT0_DR */
 502:.\Generated_Source\PSoC4/cyfitter_cfg.c **** 		CY_SET_XTND_REG32((void CYFAR *)(CYREG_PRT0_DR), 0x000000CDu);
 141              		.loc 1 502 0
 142 0062 384C     		ldr	r4, .L11+32
 498:.\Generated_Source\PSoC4/cyfitter_cfg.c **** 		CY_SET_XTND_REG32((void CYFAR *)(CYREG_HSIOM_PORT_SEL1), 0x03000000u);
 143              		.loc 1 498 0
 144 0064 3560     		str	r5, [r6]
 145              		.loc 1 502 0
 146 0066 CD21     		mov	r1, #205
 147              	.LVL14:
 503:.\Generated_Source\PSoC4/cyfitter_cfg.c **** 		CY_SET_XTND_REG32((void CYFAR *)(CYREG_PRT0_PC), 0x00D80D86u);
 148              		.loc 1 503 0
 149 0068 374F     		ldr	r7, .L11+36
 150 006a 384B     		ldr	r3, .L11+40
 504:.\Generated_Source\PSoC4/cyfitter_cfg.c **** 
 505:.\Generated_Source\PSoC4/cyfitter_cfg.c **** 		/* IOPINS0_1 Starting address: CYDEV_PRT1_DR */
 506:.\Generated_Source\PSoC4/cyfitter_cfg.c **** 		CY_SET_XTND_REG32((void CYFAR *)(CYREG_PRT1_DR), 0x00000040u);
 151              		.loc 1 506 0
 152 006c 384E     		ldr	r6, .L11+44
 499:.\Generated_Source\PSoC4/cyfitter_cfg.c **** 		CY_SET_XTND_REG32((void CYFAR *)(CYREG_HSIOM_PORT_SEL3), 0x000FEEFFu);
 153              		.loc 1 499 0
 154 006e 0260     		str	r2, [r0]
 155              		.loc 1 506 0
 156 0070 4025     		mov	r5, #64
 502:.\Generated_Source\PSoC4/cyfitter_cfg.c **** 		CY_SET_XTND_REG32((void CYFAR *)(CYREG_PRT0_DR), 0x000000CDu);
 157              		.loc 1 502 0
ARM GAS  C:\Users\CHUCK~1.ERH\AppData\Local\Temp\cc3WNf3l.s 			page 13


 158 0072 2160     		str	r1, [r4]
 507:.\Generated_Source\PSoC4/cyfitter_cfg.c **** 		CY_SET_XTND_REG32((void CYFAR *)(CYREG_PRT1_PC), 0x00180000u);
 159              		.loc 1 507 0
 160 0074 C022     		mov	r2, #192
 161 0076 3749     		ldr	r1, .L11+48
 503:.\Generated_Source\PSoC4/cyfitter_cfg.c **** 		CY_SET_XTND_REG32((void CYFAR *)(CYREG_PRT0_PC), 0x00D80D86u);
 162              		.loc 1 503 0
 163 0078 1F60     		str	r7, [r3]
 164              		.loc 1 507 0
 165 007a 5003     		lsl	r0, r2, #13
 506:.\Generated_Source\PSoC4/cyfitter_cfg.c **** 		CY_SET_XTND_REG32((void CYFAR *)(CYREG_PRT1_DR), 0x00000040u);
 166              		.loc 1 506 0
 167 007c 3560     		str	r5, [r6]
 508:.\Generated_Source\PSoC4/cyfitter_cfg.c **** 
 509:.\Generated_Source\PSoC4/cyfitter_cfg.c **** 		/* IOPINS0_3 Starting address: CYDEV_PRT3_DR */
 510:.\Generated_Source\PSoC4/cyfitter_cfg.c **** 		CY_SET_XTND_REG32((void CYFAR *)(CYREG_PRT3_DR), 0x00000011u);
 168              		.loc 1 510 0
 169 007e 364F     		ldr	r7, .L11+52
 511:.\Generated_Source\PSoC4/cyfitter_cfg.c **** 		CY_SET_XTND_REG32((void CYFAR *)(CYREG_PRT3_PC), 0x00006D8Eu);
 170              		.loc 1 511 0
 171 0080 364D     		ldr	r5, .L11+56
 172 0082 374B     		ldr	r3, .L11+60
 512:.\Generated_Source\PSoC4/cyfitter_cfg.c **** 
 513:.\Generated_Source\PSoC4/cyfitter_cfg.c **** 		/* UDB_PA_0 Starting address: CYDEV_UDB_PA0_BASE */
 514:.\Generated_Source\PSoC4/cyfitter_cfg.c **** 		CY_SET_XTND_REG32((void CYFAR *)(CYDEV_UDB_PA0_BASE), 0x00990000u);
 173              		.loc 1 514 0
 174 0084 9926     		mov	r6, #153
 175 0086 374A     		ldr	r2, .L11+64
 507:.\Generated_Source\PSoC4/cyfitter_cfg.c **** 		CY_SET_XTND_REG32((void CYFAR *)(CYREG_PRT1_PC), 0x00180000u);
 176              		.loc 1 507 0
 177 0088 0860     		str	r0, [r1]
 510:.\Generated_Source\PSoC4/cyfitter_cfg.c **** 		CY_SET_XTND_REG32((void CYFAR *)(CYREG_PRT3_DR), 0x00000011u);
 178              		.loc 1 510 0
 179 008a 1124     		mov	r4, #17
 180              		.loc 1 514 0
 181 008c 3004     		lsl	r0, r6, #16
 515:.\Generated_Source\PSoC4/cyfitter_cfg.c **** 		CY_SET_XTND_REG32((void CYFAR *)(CYREG_UDB_PA0_CFG8), 0x00B00000u);
 182              		.loc 1 515 0
 183 008e B021     		mov	r1, #176
 510:.\Generated_Source\PSoC4/cyfitter_cfg.c **** 		CY_SET_XTND_REG32((void CYFAR *)(CYREG_PRT3_DR), 0x00000011u);
 184              		.loc 1 510 0
 185 0090 3C60     		str	r4, [r7]
 511:.\Generated_Source\PSoC4/cyfitter_cfg.c **** 		CY_SET_XTND_REG32((void CYFAR *)(CYREG_PRT3_PC), 0x00006D8Eu);
 186              		.loc 1 511 0
 187 0092 1D60     		str	r5, [r3]
 188              		.loc 1 515 0
 189 0094 0C04     		lsl	r4, r1, #16
 514:.\Generated_Source\PSoC4/cyfitter_cfg.c **** 		CY_SET_XTND_REG32((void CYFAR *)(CYDEV_UDB_PA0_BASE), 0x00990000u);
 190              		.loc 1 514 0
 191 0096 1060     		str	r0, [r2]
 192              		.loc 1 515 0
 193 0098 334F     		ldr	r7, .L11+68
 516:.\Generated_Source\PSoC4/cyfitter_cfg.c **** 
 517:.\Generated_Source\PSoC4/cyfitter_cfg.c **** 		/* UDB_PA_1 Starting address: CYDEV_UDB_PA1_BASE */
 518:.\Generated_Source\PSoC4/cyfitter_cfg.c **** 		CY_SET_XTND_REG32((void CYFAR *)(CYDEV_UDB_PA1_BASE), 0x00990000u);
 194              		.loc 1 518 0
 195 009a 344D     		ldr	r5, .L11+72
ARM GAS  C:\Users\CHUCK~1.ERH\AppData\Local\Temp\cc3WNf3l.s 			page 14


 519:.\Generated_Source\PSoC4/cyfitter_cfg.c **** 		CY_SET_XTND_REG32((void CYFAR *)(CYREG_UDB_PA1_CFG8), 0x20000000u);
 196              		.loc 1 519 0
 197 009c 8023     		mov	r3, #128
 198 009e 344A     		ldr	r2, .L11+76
 520:.\Generated_Source\PSoC4/cyfitter_cfg.c **** 
 521:.\Generated_Source\PSoC4/cyfitter_cfg.c **** 		/* UDB_PA_3 Starting address: CYDEV_UDB_PA3_BASE */
 522:.\Generated_Source\PSoC4/cyfitter_cfg.c **** 		CY_SET_XTND_REG32((void CYFAR *)(CYDEV_UDB_PA3_BASE), 0x00990000u);
 199              		.loc 1 522 0
 200 00a0 3449     		ldr	r1, .L11+80
 519:.\Generated_Source\PSoC4/cyfitter_cfg.c **** 		CY_SET_XTND_REG32((void CYFAR *)(CYREG_UDB_PA1_CFG8), 0x20000000u);
 201              		.loc 1 519 0
 202 00a2 9E05     		lsl	r6, r3, #22
 515:.\Generated_Source\PSoC4/cyfitter_cfg.c **** 		CY_SET_XTND_REG32((void CYFAR *)(CYREG_UDB_PA0_CFG8), 0x00B00000u);
 203              		.loc 1 515 0
 204 00a4 3C60     		str	r4, [r7]
 518:.\Generated_Source\PSoC4/cyfitter_cfg.c **** 		CY_SET_XTND_REG32((void CYFAR *)(CYDEV_UDB_PA1_BASE), 0x00990000u);
 205              		.loc 1 518 0
 206 00a6 2860     		str	r0, [r5]
 519:.\Generated_Source\PSoC4/cyfitter_cfg.c **** 		CY_SET_XTND_REG32((void CYFAR *)(CYREG_UDB_PA1_CFG8), 0x20000000u);
 207              		.loc 1 519 0
 208 00a8 1660     		str	r6, [r2]
 209              		.loc 1 522 0
 210 00aa 0860     		str	r0, [r1]
 523:.\Generated_Source\PSoC4/cyfitter_cfg.c **** 
 524:.\Generated_Source\PSoC4/cyfitter_cfg.c **** 		/* Enable digital routing */
 525:.\Generated_Source\PSoC4/cyfitter_cfg.c **** 		CY_SET_XTND_REG8((void *)CYREG_UDB_UDBIF_BANK_CTL, CY_GET_XTND_REG8((void *)CYREG_UDB_UDBIF_BANK_
 211              		.loc 1 525 0
 212 00ac 3248     		ldr	r0, .L11+84
 213 00ae 0227     		mov	r7, #2
 214 00b0 0478     		ldrb	r4, [r0]
 526:.\Generated_Source\PSoC4/cyfitter_cfg.c **** 
 527:.\Generated_Source\PSoC4/cyfitter_cfg.c **** 		/* Enable UDB array */
 528:.\Generated_Source\PSoC4/cyfitter_cfg.c **** 		CY_SET_XTND_REG8((void *)CYREG_UDB_UDBIF_BANK_CTL, CY_GET_XTND_REG8((void *)CYREG_UDB_UDBIF_BANK_
 215              		.loc 1 528 0
 216 00b2 0623     		mov	r3, #6
 525:.\Generated_Source\PSoC4/cyfitter_cfg.c **** 		CY_SET_XTND_REG8((void *)CYREG_UDB_UDBIF_BANK_CTL, CY_GET_XTND_REG8((void *)CYREG_UDB_UDBIF_BANK_
 217              		.loc 1 525 0
 218 00b4 3C43     		orr	r4, r7
 219 00b6 0470     		strb	r4, [r0]
 220              		.loc 1 528 0
 221 00b8 0578     		ldrb	r5, [r0]
 222              	.LBE18:
 223              	.LBB25:
 224              	.LBB26:
 239:.\Generated_Source\PSoC4/cyfitter_cfg.c **** 	CY_SET_REG32((void CYXDATA *)(CYREG_CLK_SELECT), (CY_GET_REG32((void *)CYREG_CLK_SELECT) | 0x00040
 225              		.loc 1 239 0
 226 00ba 304E     		ldr	r6, .L11+88
 227              	.LBE26:
 228              	.LBE25:
 229              	.LBB35:
 230              		.loc 1 528 0
 231 00bc 1D43     		orr	r5, r3
 232 00be 0570     		strb	r5, [r0]
 233              	.LBE35:
 234              	.LBB36:
 235              	.LBB33:
 239:.\Generated_Source\PSoC4/cyfitter_cfg.c **** 	CY_SET_REG32((void CYXDATA *)(CYREG_CLK_SELECT), (CY_GET_REG32((void *)CYREG_CLK_SELECT) | 0x00040
ARM GAS  C:\Users\CHUCK~1.ERH\AppData\Local\Temp\cc3WNf3l.s 			page 15


 236              		.loc 1 239 0
 237 00c0 3268     		ldr	r2, [r6]
 238 00c2 8021     		mov	r1, #128
 239 00c4 C802     		lsl	r0, r1, #11
 240 00c6 1043     		orr	r0, r2
 241              	.LBB27:
 242              	.LBB28:
 202:.\Generated_Source\PSoC4/cyfitter_cfg.c **** 	setAbs = CY_GET_REG8((const void *)CYREG_SFLASH_IMO_ABS4);
 243              		.loc 1 202 0
 244 00c8 2D4C     		ldr	r4, .L11+92
 203:.\Generated_Source\PSoC4/cyfitter_cfg.c **** 	setTmpCo = CY_GET_REG8((const void *)CYREG_SFLASH_IMO_TMPCO4);
 245              		.loc 1 203 0
 246 00ca 2E4F     		ldr	r7, .L11+96
 247              	.LBE28:
 248              	.LBE27:
 239:.\Generated_Source\PSoC4/cyfitter_cfg.c **** 	CY_SET_REG32((void CYXDATA *)(CYREG_CLK_SELECT), (CY_GET_REG32((void *)CYREG_CLK_SELECT) | 0x00040
 249              		.loc 1 239 0
 250 00cc 3060     		str	r0, [r6]
 251              	.LVL15:
 252              	.LBB31:
 253              	.LBB29:
 202:.\Generated_Source\PSoC4/cyfitter_cfg.c **** 	setAbs = CY_GET_REG8((const void *)CYREG_SFLASH_IMO_ABS4);
 254              		.loc 1 202 0
 255 00ce 2078     		ldrb	r0, [r4]
 256              	.LVL16:
 257 00d0 2D4B     		ldr	r3, .L11+100
 203:.\Generated_Source\PSoC4/cyfitter_cfg.c **** 	setTmpCo = CY_GET_REG8((const void *)CYREG_SFLASH_IMO_TMPCO4);
 258              		.loc 1 203 0
 259 00d2 3978     		ldrb	r1, [r7]
 260              	.LVL17:
 261              	.L5:
 205:.\Generated_Source\PSoC4/cyfitter_cfg.c **** 	     (imoTrimIndex >= 0) && (imoFreq <= imo_trim_table->entries[imoTrimIndex].freq);
 262              		.loc 1 205 0
 263 00d4 1D78     		ldrb	r5, [r3]
 264 00d6 2F2D     		cmp	r5, #47
 265 00d8 05D9     		bls	.L6
 266              	.L7:
 204:.\Generated_Source\PSoC4/cyfitter_cfg.c **** 	for (imoTrimIndex = ((int32)IMO_TRIM_FREQ_TABLE_ENTRIES)-1;
 267              		.loc 1 204 0
 268 00da 2C4A     		ldr	r2, .L11+104
 208:.\Generated_Source\PSoC4/cyfitter_cfg.c **** 		setAbs = imo_trim_table->entries[imoTrimIndex].absolute;
 269              		.loc 1 208 0
 270 00dc 5878     		ldrb	r0, [r3, #1]
 209:.\Generated_Source\PSoC4/cyfitter_cfg.c **** 		setTmpCo = imo_trim_table->entries[imoTrimIndex].tmpco;
 271              		.loc 1 209 0
 272 00de 9978     		ldrb	r1, [r3, #2]
 273 00e0 033B     		sub	r3, r3, #3
 204:.\Generated_Source\PSoC4/cyfitter_cfg.c **** 	for (imoTrimIndex = ((int32)IMO_TRIM_FREQ_TABLE_ENTRIES)-1;
 274              		.loc 1 204 0
 275 00e2 9342     		cmp	r3, r2
 276 00e4 F6D1     		bne	.L5
 277              	.L6:
 212:.\Generated_Source\PSoC4/cyfitter_cfg.c **** 	CY_SET_REG32((void *)CYREG_PWR_BG_TRIM4, setAbs);
 278              		.loc 1 212 0
 279 00e6 2A4C     		ldr	r4, .L11+108
 213:.\Generated_Source\PSoC4/cyfitter_cfg.c **** 	CY_SET_REG32((void *)CYREG_PWR_BG_TRIM5, setTmpCo);
 280              		.loc 1 213 0
ARM GAS  C:\Users\CHUCK~1.ERH\AppData\Local\Temp\cc3WNf3l.s 			page 16


 281 00e8 2A4F     		ldr	r7, .L11+112
 282              	.LBE29:
 283              	.LBE31:
 245:.\Generated_Source\PSoC4/cyfitter_cfg.c **** 	CY_SET_REG32((void CYXDATA *)(CYREG_CLK_IMO_TRIM1), (CY_GET_REG8((void *)CYREG_SFLASH_IMO_TRIM45))
 284              		.loc 1 245 0
 285 00ea 2B4D     		ldr	r5, .L11+116
 286              	.LBB32:
 287              	.LBB30:
 212:.\Generated_Source\PSoC4/cyfitter_cfg.c **** 	CY_SET_REG32((void *)CYREG_PWR_BG_TRIM4, setAbs);
 288              		.loc 1 212 0
 289 00ec 2060     		str	r0, [r4]
 213:.\Generated_Source\PSoC4/cyfitter_cfg.c **** 	CY_SET_REG32((void *)CYREG_PWR_BG_TRIM5, setTmpCo);
 290              		.loc 1 213 0
 291 00ee 3960     		str	r1, [r7]
 292              	.LBE30:
 293              	.LBE32:
 245:.\Generated_Source\PSoC4/cyfitter_cfg.c **** 	CY_SET_REG32((void CYXDATA *)(CYREG_CLK_IMO_TRIM1), (CY_GET_REG8((void *)CYREG_SFLASH_IMO_TRIM45))
 294              		.loc 1 245 0
 295 00f0 2878     		ldrb	r0, [r5]
 296 00f2 2A4B     		ldr	r3, .L11+120
 251:.\Generated_Source\PSoC4/cyfitter_cfg.c **** 	CY_SET_XTND_REG32((void CYFAR *)(CYREG_CLK_SELECT03), 0x00000010u);
 297              		.loc 1 251 0
 298 00f4 2A4D     		ldr	r5, .L11+124
 245:.\Generated_Source\PSoC4/cyfitter_cfg.c **** 	CY_SET_REG32((void CYXDATA *)(CYREG_CLK_IMO_TRIM1), (CY_GET_REG8((void *)CYREG_SFLASH_IMO_TRIM45))
 299              		.loc 1 245 0
 300 00f6 1860     		str	r0, [r3]
 246:.\Generated_Source\PSoC4/cyfitter_cfg.c **** 	CyDelayUs(5u);
 301              		.loc 1 246 0
 302 00f8 0520     		mov	r0, #5
 303 00fa FFF7FEFF 		bl	CyDelayUs
 304              	.LVL18:
 250:.\Generated_Source\PSoC4/cyfitter_cfg.c **** 	CY_SET_XTND_REG32((void CYFAR *)(CYREG_CLK_SELECT02), 0x00000010u);
 305              		.loc 1 250 0
 306 00fe 294F     		ldr	r7, .L11+128
 247:.\Generated_Source\PSoC4/cyfitter_cfg.c **** 	CY_SET_REG32((void CYXDATA *)(CYREG_CLK_IMO_TRIM2), (53u));
 307              		.loc 1 247 0
 308 0100 294A     		ldr	r2, .L11+132
 250:.\Generated_Source\PSoC4/cyfitter_cfg.c **** 	CY_SET_XTND_REG32((void CYFAR *)(CYREG_CLK_SELECT02), 0x00000010u);
 309              		.loc 1 250 0
 310 0102 1024     		mov	r4, #16
 247:.\Generated_Source\PSoC4/cyfitter_cfg.c **** 	CY_SET_REG32((void CYXDATA *)(CYREG_CLK_IMO_TRIM2), (53u));
 311              		.loc 1 247 0
 312 0104 3521     		mov	r1, #53
 313 0106 1160     		str	r1, [r2]
 254:.\Generated_Source\PSoC4/cyfitter_cfg.c **** 	CY_SET_XTND_REG32((void CYFAR *)(CYREG_CLK_IMO_CONFIG), 0x80000000u);
 314              		.loc 1 254 0
 315 0108 8020     		mov	r0, #128
 250:.\Generated_Source\PSoC4/cyfitter_cfg.c **** 	CY_SET_XTND_REG32((void CYFAR *)(CYREG_CLK_SELECT02), 0x00000010u);
 316              		.loc 1 250 0
 317 010a 3C60     		str	r4, [r7]
 254:.\Generated_Source\PSoC4/cyfitter_cfg.c **** 	CY_SET_XTND_REG32((void CYFAR *)(CYREG_CLK_IMO_CONFIG), 0x80000000u);
 318              		.loc 1 254 0
 319 010c 2749     		ldr	r1, .L11+136
 251:.\Generated_Source\PSoC4/cyfitter_cfg.c **** 	CY_SET_XTND_REG32((void CYFAR *)(CYREG_CLK_SELECT03), 0x00000010u);
 320              		.loc 1 251 0
 321 010e 2C60     		str	r4, [r5]
 257:.\Generated_Source\PSoC4/cyfitter_cfg.c **** 	CY_SET_XTND_REG32((void CYFAR *)(CYREG_CLK_ILO_CONFIG), 0x80000000u);
ARM GAS  C:\Users\CHUCK~1.ERH\AppData\Local\Temp\cc3WNf3l.s 			page 17


 322              		.loc 1 257 0
 323 0110 274A     		ldr	r2, .L11+140
 260:.\Generated_Source\PSoC4/cyfitter_cfg.c **** 	CY_SET_XTND_REG32((void CYFAR *)(CYREG_CLK_SELECT), 0x00040000u);
 324              		.loc 1 260 0
 325 0112 8024     		mov	r4, #128
 254:.\Generated_Source\PSoC4/cyfitter_cfg.c **** 	CY_SET_XTND_REG32((void CYFAR *)(CYREG_CLK_IMO_CONFIG), 0x80000000u);
 326              		.loc 1 254 0
 327 0114 0306     		lsl	r3, r0, #24
 260:.\Generated_Source\PSoC4/cyfitter_cfg.c **** 	CY_SET_XTND_REG32((void CYFAR *)(CYREG_CLK_SELECT), 0x00040000u);
 328              		.loc 1 260 0
 329 0116 E702     		lsl	r7, r4, #11
 254:.\Generated_Source\PSoC4/cyfitter_cfg.c **** 	CY_SET_XTND_REG32((void CYFAR *)(CYREG_CLK_IMO_CONFIG), 0x80000000u);
 330              		.loc 1 254 0
 331 0118 0B60     		str	r3, [r1]
 257:.\Generated_Source\PSoC4/cyfitter_cfg.c **** 	CY_SET_XTND_REG32((void CYFAR *)(CYREG_CLK_ILO_CONFIG), 0x80000000u);
 332              		.loc 1 257 0
 333 011a 1360     		str	r3, [r2]
 260:.\Generated_Source\PSoC4/cyfitter_cfg.c **** 	CY_SET_XTND_REG32((void CYFAR *)(CYREG_CLK_SELECT), 0x00040000u);
 334              		.loc 1 260 0
 335 011c 3760     		str	r7, [r6]
 263:.\Generated_Source\PSoC4/cyfitter_cfg.c **** 	CY_SET_XTND_REG32((void CYFAR *)(CYREG_CLK_DIVIDER_A00), 0x80000000u);
 336              		.loc 1 263 0
 337 011e 254E     		ldr	r6, .L11+144
 338              	.LBE33:
 339              	.LBE36:
 529:.\Generated_Source\PSoC4/cyfitter_cfg.c **** 	}
 530:.\Generated_Source\PSoC4/cyfitter_cfg.c **** 
 531:.\Generated_Source\PSoC4/cyfitter_cfg.c **** 	/* Setup clocks based on selections from Clock DWR */
 532:.\Generated_Source\PSoC4/cyfitter_cfg.c **** 	ClockSetup();
 533:.\Generated_Source\PSoC4/cyfitter_cfg.c **** 
 534:.\Generated_Source\PSoC4/cyfitter_cfg.c **** 	/* Perform basic analog initialization to defaults */
 535:.\Generated_Source\PSoC4/cyfitter_cfg.c **** 	AnalogSetDefault();
 536:.\Generated_Source\PSoC4/cyfitter_cfg.c **** 
 537:.\Generated_Source\PSoC4/cyfitter_cfg.c **** }
 340              		.loc 1 537 0
 341              		@ sp needed for prologue
 342              	.LBB37:
 343              	.LBB34:
 263:.\Generated_Source\PSoC4/cyfitter_cfg.c **** 	CY_SET_XTND_REG32((void CYFAR *)(CYREG_CLK_DIVIDER_A00), 0x80000000u);
 344              		.loc 1 263 0
 345 0120 3360     		str	r3, [r6]
 346              	.LBE34:
 347              	.LBE37:
 348              		.loc 1 537 0
 349 0122 F8BD     		pop	{r3, r4, r5, r6, r7, pc}
 350              	.L12:
 351              		.align	2
 352              	.L11:
 353 0124 00300F40 		.word	1074737152
 354 0128 00400F40 		.word	1074741248
 355 012c 00000000 		.word	.LANCHOR0
 356 0130 003300FF 		.word	-16764160
 357 0134 00000140 		.word	1073807360
 358 0138 04000140 		.word	1073807364
 359 013c FFEE0F00 		.word	1044223
 360 0140 0C000140 		.word	1073807372
 361 0144 00000440 		.word	1074003968
ARM GAS  C:\Users\CHUCK~1.ERH\AppData\Local\Temp\cc3WNf3l.s 			page 18


 362 0148 860DD800 		.word	14159238
 363 014c 08000440 		.word	1074003976
 364 0150 00010440 		.word	1074004224
 365 0154 08010440 		.word	1074004232
 366 0158 00030440 		.word	1074004736
 367 015c 8E6D0000 		.word	28046
 368 0160 08030440 		.word	1074004744
 369 0164 00500F40 		.word	1074745344
 370 0168 08500F40 		.word	1074745352
 371 016c 10500F40 		.word	1074745360
 372 0170 18500F40 		.word	1074745368
 373 0174 30500F40 		.word	1074745392
 374 0178 00700F40 		.word	1074753536
 375 017c 00010B40 		.word	1074462976
 376 0180 CCF1FF0F 		.word	268431820
 377 0184 CDF1FF0F 		.word	268431821
 378 0188 C9F1FF0F 		.word	268431817
 379 018c BDF1FF0F 		.word	268431805
 380 0190 1CFF0B40 		.word	1074528028
 381 0194 20FF0B40 		.word	1074528032
 382 0198 FDF1FF0F 		.word	268431869
 383 019c 28FF0B40 		.word	1074528040
 384 01a0 0C020240 		.word	1073873420
 385 01a4 08020240 		.word	1073873416
 386 01a8 2CFF0B40 		.word	1074528044
 387 01ac 08010B40 		.word	1074462984
 388 01b0 04010B40 		.word	1074462980
 389 01b4 00000240 		.word	1073872896
 390              		.cfi_endproc
 391              	.LFE7:
 392              		.size	cyfitter_cfg, .-cyfitter_cfg
 393              		.section	.rodata
 394              		.align	2
 395              		.set	.LANCHOR0,. + 0
 396              		.type	cy_cfg_addr_table.4660, %object
 397              		.size	cy_cfg_addr_table.4660, 28
 398              	cy_cfg_addr_table.4660:
 399 0000 04300F40 		.word	1074737156
 400 0004 03310F40 		.word	1074737411
 401 0008 4A320F40 		.word	1074737738
 402 000c 31330F40 		.word	1074737969
 403 0010 06400F40 		.word	1074741254
 404 0014 04410F40 		.word	1074741508
 405 0018 02600F40 		.word	1074749442
 406              		.type	cy_cfg_data_table.4661, %object
 407              		.size	cy_cfg_data_table.4661, 284
 408              	cy_cfg_data_table.4661:
 409 001c 38       		.byte	56
 410 001d 28       		.byte	40
 411 001e 3E       		.byte	62
 412 001f 14       		.byte	20
 413 0020 58       		.byte	88
 414 0021 04       		.byte	4
 415 0022 5F       		.byte	95
 416 0023 01       		.byte	1
 417 0024 18       		.byte	24
 418 0025 10       		.byte	16
ARM GAS  C:\Users\CHUCK~1.ERH\AppData\Local\Temp\cc3WNf3l.s 			page 19


 419 0026 1B       		.byte	27
 420 0027 10       		.byte	16
 421 0028 87       		.byte	-121
 422 0029 20       		.byte	32
 423 002a 0C       		.byte	12
 424 002b 04       		.byte	4
 425 002c 0F       		.byte	15
 426 002d 01       		.byte	1
 427 002e 14       		.byte	20
 428 002f 08       		.byte	8
 429 0030 18       		.byte	24
 430 0031 01       		.byte	1
 431 0032 1A       		.byte	26
 432 0033 02       		.byte	2
 433 0034 24       		.byte	36
 434 0035 01       		.byte	1
 435 0036 26       		.byte	38
 436 0037 02       		.byte	2
 437 0038 28       		.byte	40
 438 0039 01       		.byte	1
 439 003a 2C       		.byte	44
 440 003b 10       		.byte	16
 441 003c 30       		.byte	48
 442 003d 03       		.byte	3
 443 003e 32       		.byte	50
 444 003f 10       		.byte	16
 445 0040 34       		.byte	52
 446 0041 08       		.byte	8
 447 0042 35       		.byte	53
 448 0043 01       		.byte	1
 449 0044 36       		.byte	54
 450 0045 04       		.byte	4
 451 0046 38       		.byte	56
 452 0047 02       		.byte	2
 453 0048 3E       		.byte	62
 454 0049 54       		.byte	84
 455 004a 40       		.byte	64
 456 004b 06       		.byte	6
 457 004c 45       		.byte	69
 458 004d 01       		.byte	1
 459 004e 48       		.byte	72
 460 004f 11       		.byte	17
 461 0050 49       		.byte	73
 462 0051 FF       		.byte	-1
 463 0052 4A       		.byte	74
 464 0053 FF       		.byte	-1
 465 0054 4B       		.byte	75
 466 0055 FF       		.byte	-1
 467 0056 4C       		.byte	76
 468 0057 02       		.byte	2
 469 0058 4D       		.byte	77
 470 0059 20       		.byte	32
 471 005a 4E       		.byte	78
 472 005b F0       		.byte	-16
 473 005c 52       		.byte	82
 474 005d 03       		.byte	3
 475 005e 58       		.byte	88
ARM GAS  C:\Users\CHUCK~1.ERH\AppData\Local\Temp\cc3WNf3l.s 			page 20


 476 005f 0E       		.byte	14
 477 0060 59       		.byte	89
 478 0061 04       		.byte	4
 479 0062 5A       		.byte	90
 480 0063 0E       		.byte	14
 481 0064 5B       		.byte	91
 482 0065 04       		.byte	4
 483 0066 5C       		.byte	92
 484 0067 99       		.byte	-103
 485 0068 5D       		.byte	93
 486 0069 99       		.byte	-103
 487 006a 5F       		.byte	95
 488 006b 01       		.byte	1
 489 006c 62       		.byte	98
 490 006d 48       		.byte	72
 491 006e 63       		.byte	99
 492 006f AD       		.byte	-83
 493 0070 64       		.byte	100
 494 0071 C0       		.byte	-64
 495 0072 66       		.byte	102
 496 0073 C0       		.byte	-64
 497 0074 85       		.byte	-123
 498 0075 04       		.byte	4
 499 0076 87       		.byte	-121
 500 0077 08       		.byte	8
 501 0078 89       		.byte	-119
 502 0079 04       		.byte	4
 503 007a 8B       		.byte	-117
 504 007b 08       		.byte	8
 505 007c 8D       		.byte	-115
 506 007d 01       		.byte	1
 507 007e 95       		.byte	-107
 508 007f 01       		.byte	1
 509 0080 97       		.byte	-105
 510 0081 02       		.byte	2
 511 0082 99       		.byte	-103
 512 0083 04       		.byte	4
 513 0084 A9       		.byte	-87
 514 0085 01       		.byte	1
 515 0086 AB       		.byte	-85
 516 0087 02       		.byte	2
 517 0088 AE       		.byte	-82
 518 0089 01       		.byte	1
 519 008a B0       		.byte	-80
 520 008b 01       		.byte	1
 521 008c B1       		.byte	-79
 522 008d 0C       		.byte	12
 523 008e B3       		.byte	-77
 524 008f 03       		.byte	3
 525 0090 B9       		.byte	-71
 526 0091 0A       		.byte	10
 527 0092 C0       		.byte	-64
 528 0093 03       		.byte	3
 529 0094 C6       		.byte	-58
 530 0095 54       		.byte	84
 531 0096 C7       		.byte	-57
 532 0097 01       		.byte	1
ARM GAS  C:\Users\CHUCK~1.ERH\AppData\Local\Temp\cc3WNf3l.s 			page 21


 533 0098 C8       		.byte	-56
 534 0099 1D       		.byte	29
 535 009a C9       		.byte	-55
 536 009b FF       		.byte	-1
 537 009c CA       		.byte	-54
 538 009d FF       		.byte	-1
 539 009e CB       		.byte	-53
 540 009f FF       		.byte	-1
 541 00a0 CC       		.byte	-52
 542 00a1 02       		.byte	2
 543 00a2 CD       		.byte	-51
 544 00a3 20       		.byte	32
 545 00a4 CE       		.byte	-50
 546 00a5 F0       		.byte	-16
 547 00a6 D2       		.byte	-46
 548 00a7 07       		.byte	7
 549 00a8 D8       		.byte	-40
 550 00a9 04       		.byte	4
 551 00aa D9       		.byte	-39
 552 00ab 0C       		.byte	12
 553 00ac DA       		.byte	-38
 554 00ad 0C       		.byte	12
 555 00ae DB       		.byte	-37
 556 00af 04       		.byte	4
 557 00b0 DC       		.byte	-36
 558 00b1 99       		.byte	-103
 559 00b2 DD       		.byte	-35
 560 00b3 99       		.byte	-103
 561 00b4 DF       		.byte	-33
 562 00b5 01       		.byte	1
 563 00b6 E2       		.byte	-30
 564 00b7 48       		.byte	72
 565 00b8 E3       		.byte	-29
 566 00b9 AD       		.byte	-83
 567 00ba E4       		.byte	-28
 568 00bb C0       		.byte	-64
 569 00bc E6       		.byte	-26
 570 00bd C0       		.byte	-64
 571 00be 04       		.byte	4
 572 00bf 40       		.byte	64
 573 00c0 0D       		.byte	13
 574 00c1 04       		.byte	4
 575 00c2 0F       		.byte	15
 576 00c3 08       		.byte	8
 577 00c4 10       		.byte	16
 578 00c5 02       		.byte	2
 579 00c6 16       		.byte	22
 580 00c7 08       		.byte	8
 581 00c8 17       		.byte	23
 582 00c9 84       		.byte	-124
 583 00ca 1B       		.byte	27
 584 00cb 01       		.byte	1
 585 00cc 1C       		.byte	28
 586 00cd 41       		.byte	65
 587 00ce 1E       		.byte	30
 588 00cf 10       		.byte	16
 589 00d0 1F       		.byte	31
ARM GAS  C:\Users\CHUCK~1.ERH\AppData\Local\Temp\cc3WNf3l.s 			page 22


 590 00d1 20       		.byte	32
 591 00d2 21       		.byte	33
 592 00d3 04       		.byte	4
 593 00d4 23       		.byte	35
 594 00d5 80       		.byte	-128
 595 00d6 26       		.byte	38
 596 00d7 20       		.byte	32
 597 00d8 2A       		.byte	42
 598 00d9 10       		.byte	16
 599 00da 30       		.byte	48
 600 00db 20       		.byte	32
 601 00dc 32       		.byte	50
 602 00dd 04       		.byte	4
 603 00de 38       		.byte	56
 604 00df 88       		.byte	-120
 605 00e0 39       		.byte	57
 606 00e1 10       		.byte	16
 607 00e2 3E       		.byte	62
 608 00e3 40       		.byte	64
 609 00e4 40       		.byte	64
 610 00e5 10       		.byte	16
 611 00e6 48       		.byte	72
 612 00e7 20       		.byte	32
 613 00e8 4F       		.byte	79
 614 00e9 28       		.byte	40
 615 00ea 50       		.byte	80
 616 00eb 44       		.byte	68
 617 00ec 52       		.byte	82
 618 00ed 10       		.byte	16
 619 00ee 56       		.byte	86
 620 00ef 08       		.byte	8
 621 00f0 68       		.byte	104
 622 00f1 02       		.byte	2
 623 00f2 69       		.byte	105
 624 00f3 10       		.byte	16
 625 00f4 6A       		.byte	106
 626 00f5 08       		.byte	8
 627 00f6 6E       		.byte	110
 628 00f7 40       		.byte	64
 629 00f8 6F       		.byte	111
 630 00f9 04       		.byte	4
 631 00fa 7B       		.byte	123
 632 00fb 01       		.byte	1
 633 00fc 7E       		.byte	126
 634 00fd 20       		.byte	32
 635 00fe 8E       		.byte	-114
 636 00ff 10       		.byte	16
 637 0100 90       		.byte	-112
 638 0101 10       		.byte	16
 639 0102 94       		.byte	-108
 640 0103 01       		.byte	1
 641 0104 A3       		.byte	-93
 642 0105 10       		.byte	16
 643 0106 A7       		.byte	-89
 644 0107 20       		.byte	32
 645 0108 B4       		.byte	-76
 646 0109 01       		.byte	1
ARM GAS  C:\Users\CHUCK~1.ERH\AppData\Local\Temp\cc3WNf3l.s 			page 23


 647 010a C0       		.byte	-64
 648 010b 80       		.byte	-128
 649 010c C2       		.byte	-62
 650 010d 60       		.byte	96
 651 010e C4       		.byte	-60
 652 010f E1       		.byte	-31
 653 0110 CA       		.byte	-54
 654 0111 04       		.byte	4
 655 0112 CC       		.byte	-52
 656 0113 06       		.byte	6
 657 0114 CE       		.byte	-50
 658 0115 1E       		.byte	30
 659 0116 D0       		.byte	-48
 660 0117 02       		.byte	2
 661 0118 D2       		.byte	-46
 662 0119 20       		.byte	32
 663 011a DE       		.byte	-34
 664 011b 48       		.byte	72
 665 011c E6       		.byte	-26
 666 011d 10       		.byte	16
 667 011e EE       		.byte	-18
 668 011f 10       		.byte	16
 669 0120 5B       		.byte	91
 670 0121 20       		.byte	32
 671 0122 5E       		.byte	94
 672 0123 20       		.byte	32
 673 0124 86       		.byte	-122
 674 0125 10       		.byte	16
 675 0126 D4       		.byte	-44
 676 0127 80       		.byte	-128
 677 0128 D6       		.byte	-42
 678 0129 20       		.byte	32
 679 012a E6       		.byte	-26
 680 012b 10       		.byte	16
 681 012c 62       		.byte	98
 682 012d 04       		.byte	4
 683 012e 8E       		.byte	-114
 684 012f 04       		.byte	4
 685 0130 B7       		.byte	-73
 686 0131 20       		.byte	32
 687 0132 D8       		.byte	-40
 688 0133 40       		.byte	64
 689 0134 02       		.byte	2
 690 0135 01       		.byte	1
 691 0136 11       		.byte	17
 692 0137 01       		.byte	1
 693              		.text
 694              	.Letext0:
 695              		.file 2 "c:\\program files (x86)\\cypress\\psoc creator\\3.0\\psoc creator\\import\\gnu_cs\\arm\\4
 696              		.file 3 "./Generated_Source/PSoC4/cytypes.h"
 697              		.file 4 "./Generated_Source/PSoC4/CyLib.h"