ARM GAS  C:\Users\CHUCK~1.ERH\AppData\Local\Temp\ccGtqbdp.s 			page 1


   1              		.cpu cortex-m0
   2              		.fpu softvfp
   3              		.eabi_attribute 20, 1
   4              		.eabi_attribute 21, 1
   5              		.eabi_attribute 23, 3
   6              		.eabi_attribute 24, 1
   7              		.eabi_attribute 25, 1
   8              		.eabi_attribute 26, 1
   9              		.eabi_attribute 30, 4
  10              		.eabi_attribute 34, 0
  11              		.eabi_attribute 18, 4
  12              		.code	16
  13              		.file	"CyLib.c"
  14              		.text
  15              	.Ltext0:
  16              		.cfi_sections	.debug_frame
  17              		.section	.text.CySysClkImoStart,"ax",%progbits
  18              		.align	1
  19              		.global	CySysClkImoStart
  20              		.code	16
  21              		.thumb_func
  22              		.type	CySysClkImoStart, %function
  23              	CySysClkImoStart:
  24              	.LFB0:
  25              		.file 1 ".\\Generated_Source\\PSoC4\\CyLib.c"
   1:.\Generated_Source\PSoC4/CyLib.c **** /*******************************************************************************
   2:.\Generated_Source\PSoC4/CyLib.c **** * File Name: CyLib.c
   3:.\Generated_Source\PSoC4/CyLib.c **** * Version 4.0
   4:.\Generated_Source\PSoC4/CyLib.c **** *
   5:.\Generated_Source\PSoC4/CyLib.c **** *  Description:
   6:.\Generated_Source\PSoC4/CyLib.c **** *   Provides system API for the clocking, interrupts and watchdog timer.
   7:.\Generated_Source\PSoC4/CyLib.c **** *
   8:.\Generated_Source\PSoC4/CyLib.c **** *  Note:
   9:.\Generated_Source\PSoC4/CyLib.c **** *   Documentation of the API's in this file is located in the
  10:.\Generated_Source\PSoC4/CyLib.c **** *   System Reference Guide provided with PSoC Creator.
  11:.\Generated_Source\PSoC4/CyLib.c **** *
  12:.\Generated_Source\PSoC4/CyLib.c **** ********************************************************************************
  13:.\Generated_Source\PSoC4/CyLib.c **** * Copyright 2010-2013, Cypress Semiconductor Corporation.  All rights reserved.
  14:.\Generated_Source\PSoC4/CyLib.c **** * You may use this file only in accordance with the license, terms, conditions,
  15:.\Generated_Source\PSoC4/CyLib.c **** * disclaimers, and limitations in the end user license agreement accompanying
  16:.\Generated_Source\PSoC4/CyLib.c **** * the software package with which this file was provided.
  17:.\Generated_Source\PSoC4/CyLib.c **** *******************************************************************************/
  18:.\Generated_Source\PSoC4/CyLib.c **** 
  19:.\Generated_Source\PSoC4/CyLib.c **** #include "CyLib.h"
  20:.\Generated_Source\PSoC4/CyLib.c **** 
  21:.\Generated_Source\PSoC4/CyLib.c **** 
  22:.\Generated_Source\PSoC4/CyLib.c **** /* Do not use these definitions directly in your application */
  23:.\Generated_Source\PSoC4/CyLib.c **** uint32 cydelayFreqHz  = CYDEV_BCLK__SYSCLK__HZ;
  24:.\Generated_Source\PSoC4/CyLib.c **** uint32 cydelayFreqKhz = (CYDEV_BCLK__SYSCLK__HZ + CY_DELAY_1K_MINUS_1_THRESHOLD) / CY_DELAY_1K_THRE
  25:.\Generated_Source\PSoC4/CyLib.c **** uint8  cydelayFreqMhz = (uint8)((CYDEV_BCLK__SYSCLK__HZ + CY_DELAY_1M_MINUS_1_THRESHOLD) / CY_DELAY
  26:.\Generated_Source\PSoC4/CyLib.c **** uint32 cydelay32kMs   = CY_DELAY_MS_OVERFLOW * ((CYDEV_BCLK__SYSCLK__HZ + CY_DELAY_1K_MINUS_1_THRES
  27:.\Generated_Source\PSoC4/CyLib.c ****                         CY_DELAY_1K_THRESHOLD);
  28:.\Generated_Source\PSoC4/CyLib.c **** 
  29:.\Generated_Source\PSoC4/CyLib.c **** 
  30:.\Generated_Source\PSoC4/CyLib.c **** /*******************************************************************************
  31:.\Generated_Source\PSoC4/CyLib.c **** * Function Name: CySysClkImoStart
  32:.\Generated_Source\PSoC4/CyLib.c **** ********************************************************************************
ARM GAS  C:\Users\CHUCK~1.ERH\AppData\Local\Temp\ccGtqbdp.s 			page 2


  33:.\Generated_Source\PSoC4/CyLib.c **** *
  34:.\Generated_Source\PSoC4/CyLib.c **** * Summary:
  35:.\Generated_Source\PSoC4/CyLib.c **** *  Enables the IMO.
  36:.\Generated_Source\PSoC4/CyLib.c **** *
  37:.\Generated_Source\PSoC4/CyLib.c **** * Parameters:
  38:.\Generated_Source\PSoC4/CyLib.c **** *  None
  39:.\Generated_Source\PSoC4/CyLib.c **** *
  40:.\Generated_Source\PSoC4/CyLib.c **** * Return:
  41:.\Generated_Source\PSoC4/CyLib.c **** *  None
  42:.\Generated_Source\PSoC4/CyLib.c **** *
  43:.\Generated_Source\PSoC4/CyLib.c **** *******************************************************************************/
  44:.\Generated_Source\PSoC4/CyLib.c **** void CySysClkImoStart(void)
  45:.\Generated_Source\PSoC4/CyLib.c **** {
  26              		.loc 1 45 0
  27              		.cfi_startproc
  46:.\Generated_Source\PSoC4/CyLib.c ****     CY_SYS_CLK_IMO_CONFIG_REG |= CY_SYS_CLK_IMO_CONFIG_ENABLE;
  28              		.loc 1 46 0
  29 0000 034B     		ldr	r3, .L2
  30 0002 8022     		mov	r2, #128
  31 0004 1968     		ldr	r1, [r3]
  32 0006 1006     		lsl	r0, r2, #24
  33 0008 0843     		orr	r0, r1
  34 000a 1860     		str	r0, [r3]
  47:.\Generated_Source\PSoC4/CyLib.c **** }
  35              		.loc 1 47 0
  36              		@ sp needed for prologue
  37 000c 7047     		bx	lr
  38              	.L3:
  39 000e C046     		.align	2
  40              	.L2:
  41 0010 08010B40 		.word	1074462984
  42              		.cfi_endproc
  43              	.LFE0:
  44              		.size	CySysClkImoStart, .-CySysClkImoStart
  45              		.section	.text.CySysClkImoStop,"ax",%progbits
  46              		.align	1
  47              		.global	CySysClkImoStop
  48              		.code	16
  49              		.thumb_func
  50              		.type	CySysClkImoStop, %function
  51              	CySysClkImoStop:
  52              	.LFB1:
  48:.\Generated_Source\PSoC4/CyLib.c **** 
  49:.\Generated_Source\PSoC4/CyLib.c **** 
  50:.\Generated_Source\PSoC4/CyLib.c **** /*******************************************************************************
  51:.\Generated_Source\PSoC4/CyLib.c **** * Function Name: CySysClkImoStop
  52:.\Generated_Source\PSoC4/CyLib.c **** ********************************************************************************
  53:.\Generated_Source\PSoC4/CyLib.c **** *
  54:.\Generated_Source\PSoC4/CyLib.c **** * Summary:
  55:.\Generated_Source\PSoC4/CyLib.c **** *  Disables the IMO.
  56:.\Generated_Source\PSoC4/CyLib.c **** *
  57:.\Generated_Source\PSoC4/CyLib.c **** * Parameters:
  58:.\Generated_Source\PSoC4/CyLib.c **** *  None
  59:.\Generated_Source\PSoC4/CyLib.c **** *
  60:.\Generated_Source\PSoC4/CyLib.c **** * Return:
  61:.\Generated_Source\PSoC4/CyLib.c **** *  None
  62:.\Generated_Source\PSoC4/CyLib.c **** *
ARM GAS  C:\Users\CHUCK~1.ERH\AppData\Local\Temp\ccGtqbdp.s 			page 3


  63:.\Generated_Source\PSoC4/CyLib.c **** *******************************************************************************/
  64:.\Generated_Source\PSoC4/CyLib.c **** void CySysClkImoStop(void)
  65:.\Generated_Source\PSoC4/CyLib.c **** {
  53              		.loc 1 65 0
  54              		.cfi_startproc
  66:.\Generated_Source\PSoC4/CyLib.c ****     CY_SYS_CLK_IMO_CONFIG_REG &= ( uint32 ) ( ~( uint32 )CY_SYS_CLK_IMO_CONFIG_ENABLE);
  55              		.loc 1 66 0
  56 0000 024B     		ldr	r3, .L5
  67:.\Generated_Source\PSoC4/CyLib.c **** }
  57              		.loc 1 67 0
  58              		@ sp needed for prologue
  66:.\Generated_Source\PSoC4/CyLib.c ****     CY_SYS_CLK_IMO_CONFIG_REG &= ( uint32 ) ( ~( uint32 )CY_SYS_CLK_IMO_CONFIG_ENABLE);
  59              		.loc 1 66 0
  60 0002 1A68     		ldr	r2, [r3]
  61 0004 5000     		lsl	r0, r2, #1
  62 0006 4108     		lsr	r1, r0, #1
  63 0008 1960     		str	r1, [r3]
  64              		.loc 1 67 0
  65 000a 7047     		bx	lr
  66              	.L6:
  67              		.align	2
  68              	.L5:
  69 000c 08010B40 		.word	1074462984
  70              		.cfi_endproc
  71              	.LFE1:
  72              		.size	CySysClkImoStop, .-CySysClkImoStop
  73              		.section	.text.CySysClkIloStart,"ax",%progbits
  74              		.align	1
  75              		.global	CySysClkIloStart
  76              		.code	16
  77              		.thumb_func
  78              		.type	CySysClkIloStart, %function
  79              	CySysClkIloStart:
  80              	.LFB2:
  68:.\Generated_Source\PSoC4/CyLib.c **** 
  69:.\Generated_Source\PSoC4/CyLib.c **** 
  70:.\Generated_Source\PSoC4/CyLib.c **** /*******************************************************************************
  71:.\Generated_Source\PSoC4/CyLib.c **** * Function Name: CySysClkIloStart
  72:.\Generated_Source\PSoC4/CyLib.c **** ********************************************************************************
  73:.\Generated_Source\PSoC4/CyLib.c **** *
  74:.\Generated_Source\PSoC4/CyLib.c **** * Summary:
  75:.\Generated_Source\PSoC4/CyLib.c **** *  Enables the ILO.
  76:.\Generated_Source\PSoC4/CyLib.c **** *
  77:.\Generated_Source\PSoC4/CyLib.c **** * Parameters:
  78:.\Generated_Source\PSoC4/CyLib.c **** *  None
  79:.\Generated_Source\PSoC4/CyLib.c **** *
  80:.\Generated_Source\PSoC4/CyLib.c **** * Return:
  81:.\Generated_Source\PSoC4/CyLib.c **** *  None
  82:.\Generated_Source\PSoC4/CyLib.c **** *
  83:.\Generated_Source\PSoC4/CyLib.c **** *******************************************************************************/
  84:.\Generated_Source\PSoC4/CyLib.c **** void CySysClkIloStart(void)
  85:.\Generated_Source\PSoC4/CyLib.c **** {
  81              		.loc 1 85 0
  82              		.cfi_startproc
  86:.\Generated_Source\PSoC4/CyLib.c ****     CY_SYS_CLK_ILO_CONFIG_REG |= CY_SYS_CLK_ILO_CONFIG_ENABLE;
  83              		.loc 1 86 0
  84 0000 034B     		ldr	r3, .L8
ARM GAS  C:\Users\CHUCK~1.ERH\AppData\Local\Temp\ccGtqbdp.s 			page 4


  85 0002 8022     		mov	r2, #128
  86 0004 1968     		ldr	r1, [r3]
  87 0006 1006     		lsl	r0, r2, #24
  88 0008 0843     		orr	r0, r1
  89 000a 1860     		str	r0, [r3]
  87:.\Generated_Source\PSoC4/CyLib.c **** }
  90              		.loc 1 87 0
  91              		@ sp needed for prologue
  92 000c 7047     		bx	lr
  93              	.L9:
  94 000e C046     		.align	2
  95              	.L8:
  96 0010 04010B40 		.word	1074462980
  97              		.cfi_endproc
  98              	.LFE2:
  99              		.size	CySysClkIloStart, .-CySysClkIloStart
 100              		.section	.text.CySysClkIloStop,"ax",%progbits
 101              		.align	1
 102              		.global	CySysClkIloStop
 103              		.code	16
 104              		.thumb_func
 105              		.type	CySysClkIloStop, %function
 106              	CySysClkIloStop:
 107              	.LFB3:
  88:.\Generated_Source\PSoC4/CyLib.c **** 
  89:.\Generated_Source\PSoC4/CyLib.c **** 
  90:.\Generated_Source\PSoC4/CyLib.c **** /*******************************************************************************
  91:.\Generated_Source\PSoC4/CyLib.c **** * Function Name: CySysClkIloStop
  92:.\Generated_Source\PSoC4/CyLib.c **** ********************************************************************************
  93:.\Generated_Source\PSoC4/CyLib.c **** *
  94:.\Generated_Source\PSoC4/CyLib.c **** * Summary:
  95:.\Generated_Source\PSoC4/CyLib.c **** *  Disables the ILO.
  96:.\Generated_Source\PSoC4/CyLib.c **** *
  97:.\Generated_Source\PSoC4/CyLib.c **** * Parameters:
  98:.\Generated_Source\PSoC4/CyLib.c **** *  None
  99:.\Generated_Source\PSoC4/CyLib.c **** *
 100:.\Generated_Source\PSoC4/CyLib.c **** * Return:
 101:.\Generated_Source\PSoC4/CyLib.c **** *  None
 102:.\Generated_Source\PSoC4/CyLib.c **** *
 103:.\Generated_Source\PSoC4/CyLib.c **** * Side Effects:
 104:.\Generated_Source\PSoC4/CyLib.c **** *  This function will have no effect if WDT is locked (CySysWdtLock() is
 105:.\Generated_Source\PSoC4/CyLib.c **** *  called). Call CySysWdtUnlock() to unlock WDT and be able to stop ILO.
 106:.\Generated_Source\PSoC4/CyLib.c **** *  Note that ILO is required for WDT's operation.
 107:.\Generated_Source\PSoC4/CyLib.c **** *
 108:.\Generated_Source\PSoC4/CyLib.c **** *******************************************************************************/
 109:.\Generated_Source\PSoC4/CyLib.c **** void CySysClkIloStop(void)
 110:.\Generated_Source\PSoC4/CyLib.c **** {
 108              		.loc 1 110 0
 109              		.cfi_startproc
 111:.\Generated_Source\PSoC4/CyLib.c ****     CY_SYS_CLK_ILO_CONFIG_REG &= ( uint32 ) ( ~( uint32 )CY_SYS_CLK_ILO_CONFIG_ENABLE);
 110              		.loc 1 111 0
 111 0000 024B     		ldr	r3, .L11
 112:.\Generated_Source\PSoC4/CyLib.c **** }
 112              		.loc 1 112 0
 113              		@ sp needed for prologue
 111:.\Generated_Source\PSoC4/CyLib.c ****     CY_SYS_CLK_ILO_CONFIG_REG &= ( uint32 ) ( ~( uint32 )CY_SYS_CLK_ILO_CONFIG_ENABLE);
 114              		.loc 1 111 0
ARM GAS  C:\Users\CHUCK~1.ERH\AppData\Local\Temp\ccGtqbdp.s 			page 5


 115 0002 1A68     		ldr	r2, [r3]
 116 0004 5000     		lsl	r0, r2, #1
 117 0006 4108     		lsr	r1, r0, #1
 118 0008 1960     		str	r1, [r3]
 119              		.loc 1 112 0
 120 000a 7047     		bx	lr
 121              	.L12:
 122              		.align	2
 123              	.L11:
 124 000c 04010B40 		.word	1074462980
 125              		.cfi_endproc
 126              	.LFE3:
 127              		.size	CySysClkIloStop, .-CySysClkIloStop
 128              		.section	.text.CySysClkWriteHfclkDirect,"ax",%progbits
 129              		.align	1
 130              		.global	CySysClkWriteHfclkDirect
 131              		.code	16
 132              		.thumb_func
 133              		.type	CySysClkWriteHfclkDirect, %function
 134              	CySysClkWriteHfclkDirect:
 135              	.LFB4:
 113:.\Generated_Source\PSoC4/CyLib.c **** 
 114:.\Generated_Source\PSoC4/CyLib.c **** 
 115:.\Generated_Source\PSoC4/CyLib.c **** #if(CY_PSOC4A)
 116:.\Generated_Source\PSoC4/CyLib.c **** 
 117:.\Generated_Source\PSoC4/CyLib.c ****     /*******************************************************************************
 118:.\Generated_Source\PSoC4/CyLib.c ****     * Function Name: CySysClkWriteHfclkDirect
 119:.\Generated_Source\PSoC4/CyLib.c ****     ********************************************************************************
 120:.\Generated_Source\PSoC4/CyLib.c ****     *
 121:.\Generated_Source\PSoC4/CyLib.c ****     * Summary:
 122:.\Generated_Source\PSoC4/CyLib.c ****     *  Selects the direct source for the HFCLK.
 123:.\Generated_Source\PSoC4/CyLib.c ****     *
 124:.\Generated_Source\PSoC4/CyLib.c ****     * Parameters:
 125:.\Generated_Source\PSoC4/CyLib.c ****     *  clkSelect: One of the available HFCLK direct sources:
 126:.\Generated_Source\PSoC4/CyLib.c ****     *   Value        Define                    Source
 127:.\Generated_Source\PSoC4/CyLib.c ****     *    0            CY_SYS_CLK_HFCLK_IMO      IMO
 128:.\Generated_Source\PSoC4/CyLib.c ****     *    1            CY_SYS_CLK_HFCLK_EXTCLK   External clock pin
 129:.\Generated_Source\PSoC4/CyLib.c ****     *
 130:.\Generated_Source\PSoC4/CyLib.c ****     * Return:
 131:.\Generated_Source\PSoC4/CyLib.c ****     *  None
 132:.\Generated_Source\PSoC4/CyLib.c ****     *
 133:.\Generated_Source\PSoC4/CyLib.c ****     * Side Effects:
 134:.\Generated_Source\PSoC4/CyLib.c ****     *  The new source must be running and stable before calling this function.
 135:.\Generated_Source\PSoC4/CyLib.c ****     *  Direct source is default option for HFCLK.
 136:.\Generated_Source\PSoC4/CyLib.c ****     *
 137:.\Generated_Source\PSoC4/CyLib.c ****     *  If the SYSCLK clock frequency increases during device operation, call
 138:.\Generated_Source\PSoC4/CyLib.c ****     *  CySysFlashSetWaitCycles() with the appropriate parameter to adjust the number
 139:.\Generated_Source\PSoC4/CyLib.c ****     *  of clock cycles cache will wait before sampling data coming back from Flash.
 140:.\Generated_Source\PSoC4/CyLib.c ****     *  If the SYSCLK clock frequency decreases, you can call CyFlash_SetWaitCycles()
 141:.\Generated_Source\PSoC4/CyLib.c ****     *  to improve CPU performance. See CySysFlashSetWaitCycles() for more
 142:.\Generated_Source\PSoC4/CyLib.c ****     *  information.
 143:.\Generated_Source\PSoC4/CyLib.c ****     *
 144:.\Generated_Source\PSoC4/CyLib.c ****     *******************************************************************************/
 145:.\Generated_Source\PSoC4/CyLib.c ****     void CySysClkWriteHfclkDirect(uint32 clkSelect)
 146:.\Generated_Source\PSoC4/CyLib.c ****     {
 136              		.loc 1 146 0
 137              		.cfi_startproc
ARM GAS  C:\Users\CHUCK~1.ERH\AppData\Local\Temp\ccGtqbdp.s 			page 6


 138              	.LVL0:
 147:.\Generated_Source\PSoC4/CyLib.c ****         CY_SYS_CLK_SELECT_REG = ((CY_SYS_CLK_SELECT_REG & (( uint32 ) ~(( uint32 )CY_SYS_CLK_SELECT
 139              		.loc 1 147 0
 140 0000 044B     		ldr	r3, .L14
 148:.\Generated_Source\PSoC4/CyLib.c ****                             (( uint32 ) ( ( uint32 )clkSelect & ( uint32 )CY_SYS_CLK_SELECT_DIRECT_
 141              		.loc 1 148 0
 142 0002 0121     		mov	r1, #1
 147:.\Generated_Source\PSoC4/CyLib.c ****         CY_SYS_CLK_SELECT_REG = ((CY_SYS_CLK_SELECT_REG & (( uint32 ) ~(( uint32 )CY_SYS_CLK_SELECT
 143              		.loc 1 147 0
 144 0004 1A68     		ldr	r2, [r3]
 145              		.loc 1 148 0
 146 0006 0840     		and	r0, r1
 147              	.LVL1:
 147:.\Generated_Source\PSoC4/CyLib.c ****         CY_SYS_CLK_SELECT_REG = ((CY_SYS_CLK_SELECT_REG & (( uint32 ) ~(( uint32 )CY_SYS_CLK_SELECT
 148              		.loc 1 147 0
 149 0008 0721     		mov	r1, #7
 150 000a 8A43     		bic	r2, r1
 151 000c 1043     		orr	r0, r2
 152 000e 1860     		str	r0, [r3]
 149:.\Generated_Source\PSoC4/CyLib.c ****     }
 153              		.loc 1 149 0
 154              		@ sp needed for prologue
 155 0010 7047     		bx	lr
 156              	.L15:
 157 0012 C046     		.align	2
 158              	.L14:
 159 0014 00010B40 		.word	1074462976
 160              		.cfi_endproc
 161              	.LFE4:
 162              		.size	CySysClkWriteHfclkDirect, .-CySysClkWriteHfclkDirect
 163              		.section	.text.CySysClkWriteSysclkDiv,"ax",%progbits
 164              		.align	1
 165              		.global	CySysClkWriteSysclkDiv
 166              		.code	16
 167              		.thumb_func
 168              		.type	CySysClkWriteSysclkDiv, %function
 169              	CySysClkWriteSysclkDiv:
 170              	.LFB5:
 150:.\Generated_Source\PSoC4/CyLib.c **** 
 151:.\Generated_Source\PSoC4/CyLib.c **** 
 152:.\Generated_Source\PSoC4/CyLib.c ****     /*******************************************************************************
 153:.\Generated_Source\PSoC4/CyLib.c ****     * Function Name: CySysClkWriteSysclkDiv
 154:.\Generated_Source\PSoC4/CyLib.c ****     ********************************************************************************
 155:.\Generated_Source\PSoC4/CyLib.c ****     *
 156:.\Generated_Source\PSoC4/CyLib.c ****     * Summary:
 157:.\Generated_Source\PSoC4/CyLib.c ****     *  Selects SYSCLK from HFCLK pre-scaler value.
 158:.\Generated_Source\PSoC4/CyLib.c ****     *
 159:.\Generated_Source\PSoC4/CyLib.c ****     * Parameters:
 160:.\Generated_Source\PSoC4/CyLib.c ****     *  divider: Power of 2 prescaler selection
 161:.\Generated_Source\PSoC4/CyLib.c ****     *
 162:.\Generated_Source\PSoC4/CyLib.c ****     *   Define                        Description
 163:.\Generated_Source\PSoC4/CyLib.c ****     *   CY_SYS_CLK_SYSCLK_DIV1        SYSCLK = HFCLK / 1
 164:.\Generated_Source\PSoC4/CyLib.c ****     *   CY_SYS_CLK_SYSCLK_DIV2        SYSCLK = HFCLK / 2
 165:.\Generated_Source\PSoC4/CyLib.c ****     *   CY_SYS_CLK_SYSCLK_DIV4        SYSCLK = HFCLK / 4
 166:.\Generated_Source\PSoC4/CyLib.c ****     *   CY_SYS_CLK_SYSCLK_DIV8        SYSCLK = HFCLK / 8
 167:.\Generated_Source\PSoC4/CyLib.c ****     *   CY_SYS_CLK_SYSCLK_DIV16       SYSCLK = HFCLK / 16
 168:.\Generated_Source\PSoC4/CyLib.c ****     *   CY_SYS_CLK_SYSCLK_DIV32       SYSCLK = HFCLK / 32
ARM GAS  C:\Users\CHUCK~1.ERH\AppData\Local\Temp\ccGtqbdp.s 			page 7


 169:.\Generated_Source\PSoC4/CyLib.c ****     *   CY_SYS_CLK_SYSCLK_DIV64       SYSCLK = HFCLK / 64
 170:.\Generated_Source\PSoC4/CyLib.c ****     *   CY_SYS_CLK_SYSCLK_DIV128      SYSCLK = HFCLK / 128
 171:.\Generated_Source\PSoC4/CyLib.c ****     *
 172:.\Generated_Source\PSoC4/CyLib.c ****     * Return:
 173:.\Generated_Source\PSoC4/CyLib.c ****     *  None
 174:.\Generated_Source\PSoC4/CyLib.c ****     *
 175:.\Generated_Source\PSoC4/CyLib.c ****     * Side Effects:
 176:.\Generated_Source\PSoC4/CyLib.c ****     *  If the SYSCLK clock frequency increases during device operation, call
 177:.\Generated_Source\PSoC4/CyLib.c ****     *  CySysFlashSetWaitCycles() with the appropriate parameter to adjust the number
 178:.\Generated_Source\PSoC4/CyLib.c ****     *  of clock cycles cache will wait before sampling data coming back from Flash.
 179:.\Generated_Source\PSoC4/CyLib.c ****     *  If the SYSCLK clock frequency decreases, you can call CyFlash_SetWaitCycles()
 180:.\Generated_Source\PSoC4/CyLib.c ****     *  to improve CPU performance. See CySysFlashSetWaitCycles() for more
 181:.\Generated_Source\PSoC4/CyLib.c ****     *  information.
 182:.\Generated_Source\PSoC4/CyLib.c ****     *
 183:.\Generated_Source\PSoC4/CyLib.c ****     *******************************************************************************/
 184:.\Generated_Source\PSoC4/CyLib.c ****     void CySysClkWriteSysclkDiv(uint32 divider)
 185:.\Generated_Source\PSoC4/CyLib.c ****     {
 171              		.loc 1 185 0
 172              		.cfi_startproc
 173              	.LVL2:
 186:.\Generated_Source\PSoC4/CyLib.c ****         CY_SYS_CLK_SELECT_REG = ((uint32)(((uint32)divider & CY_SYS_CLK_SELECT_SYSCLK_DIV_MASK) <<
 187:.\Generated_Source\PSoC4/CyLib.c ****                                         CY_SYS_CLK_SELECT_SYSCLK_DIV_SHIFT)) |
 188:.\Generated_Source\PSoC4/CyLib.c ****                                 (CY_SYS_CLK_SELECT_REG & ((uint32)(~(uint32)(CY_SYS_CLK_SELECT_SYSC
 174              		.loc 1 188 0
 175 0000 054B     		ldr	r3, .L17
 185:.\Generated_Source\PSoC4/CyLib.c ****     {
 176              		.loc 1 185 0
 177 0002 10B5     		push	{r4, lr}
 178              	.LCFI0:
 179              		.cfi_def_cfa_offset 8
 180              		.cfi_offset 4, -8
 181              		.cfi_offset 14, -4
 186:.\Generated_Source\PSoC4/CyLib.c ****         CY_SYS_CLK_SELECT_REG = ((uint32)(((uint32)divider & CY_SYS_CLK_SELECT_SYSCLK_DIV_MASK) <<
 182              		.loc 1 186 0
 183 0004 0722     		mov	r2, #7
 184              		.loc 1 188 0
 185 0006 1C68     		ldr	r4, [r3]
 186:.\Generated_Source\PSoC4/CyLib.c ****         CY_SYS_CLK_SELECT_REG = ((uint32)(((uint32)divider & CY_SYS_CLK_SELECT_SYSCLK_DIV_MASK) <<
 186              		.loc 1 186 0
 187 0008 1040     		and	r0, r2
 188              	.LVL3:
 189              		.loc 1 188 0
 190 000a 0449     		ldr	r1, .L17+4
 186:.\Generated_Source\PSoC4/CyLib.c ****         CY_SYS_CLK_SELECT_REG = ((uint32)(((uint32)divider & CY_SYS_CLK_SELECT_SYSCLK_DIV_MASK) <<
 191              		.loc 1 186 0
 192 000c C204     		lsl	r2, r0, #19
 193              		.loc 1 188 0
 194 000e 201C     		mov	r0, r4
 195 0010 0840     		and	r0, r1
 187:.\Generated_Source\PSoC4/CyLib.c ****                                         CY_SYS_CLK_SELECT_SYSCLK_DIV_SHIFT)) |
 196              		.loc 1 187 0
 197 0012 1043     		orr	r0, r2
 186:.\Generated_Source\PSoC4/CyLib.c ****         CY_SYS_CLK_SELECT_REG = ((uint32)(((uint32)divider & CY_SYS_CLK_SELECT_SYSCLK_DIV_MASK) <<
 198              		.loc 1 186 0
 199 0014 1860     		str	r0, [r3]
 189:.\Generated_Source\PSoC4/CyLib.c ****                                         CY_SYS_CLK_SELECT_SYSCLK_DIV_SHIFT))));
 190:.\Generated_Source\PSoC4/CyLib.c ****     }
ARM GAS  C:\Users\CHUCK~1.ERH\AppData\Local\Temp\ccGtqbdp.s 			page 8


 200              		.loc 1 190 0
 201              		@ sp needed for prologue
 202 0016 10BD     		pop	{r4, pc}
 203              	.L18:
 204              		.align	2
 205              	.L17:
 206 0018 00010B40 		.word	1074462976
 207 001c FFFFC7FF 		.word	-3670017
 208              		.cfi_endproc
 209              	.LFE5:
 210              		.size	CySysClkWriteSysclkDiv, .-CySysClkWriteSysclkDiv
 211              		.section	.text.CySysWdtLock,"ax",%progbits
 212              		.align	1
 213              		.global	CySysWdtLock
 214              		.code	16
 215              		.thumb_func
 216              		.type	CySysWdtLock, %function
 217              	CySysWdtLock:
 218              	.LFB7:
 191:.\Generated_Source\PSoC4/CyLib.c **** 
 192:.\Generated_Source\PSoC4/CyLib.c **** 
 193:.\Generated_Source\PSoC4/CyLib.c ****     /*******************************************************************************
 194:.\Generated_Source\PSoC4/CyLib.c ****     * Function Name: CySysClkWriteImoFreq
 195:.\Generated_Source\PSoC4/CyLib.c ****     ********************************************************************************
 196:.\Generated_Source\PSoC4/CyLib.c ****     *
 197:.\Generated_Source\PSoC4/CyLib.c ****     * Summary:
 198:.\Generated_Source\PSoC4/CyLib.c ****     *  Sets the frequency of the IMO.
 199:.\Generated_Source\PSoC4/CyLib.c ****     *
 200:.\Generated_Source\PSoC4/CyLib.c ****     * Parameters:
 201:.\Generated_Source\PSoC4/CyLib.c ****     *  freq: Valid range [3-48].  Frequency for operation of the IMO.
 202:.\Generated_Source\PSoC4/CyLib.c ****     *  Note: Invalid frequency will be ignored.
 203:.\Generated_Source\PSoC4/CyLib.c ****     *
 204:.\Generated_Source\PSoC4/CyLib.c ****     * Return:
 205:.\Generated_Source\PSoC4/CyLib.c ****     *  None
 206:.\Generated_Source\PSoC4/CyLib.c ****     *
 207:.\Generated_Source\PSoC4/CyLib.c ****     * Side Effects:
 208:.\Generated_Source\PSoC4/CyLib.c ****     *  If the SYSCLK clock frequency increases during device operation, call
 209:.\Generated_Source\PSoC4/CyLib.c ****     *  CySysFlashSetWaitCycles() with the appropriate parameter to adjust the number
 210:.\Generated_Source\PSoC4/CyLib.c ****     *  of clock cycles cache will wait before sampling data coming back from Flash.
 211:.\Generated_Source\PSoC4/CyLib.c ****     *  If the SYSCLK clock frequency decreases, you can call CyFlash_SetWaitCycles()
 212:.\Generated_Source\PSoC4/CyLib.c ****     *  to improve CPU performance. See CySysFlashSetWaitCycles() for more
 213:.\Generated_Source\PSoC4/CyLib.c ****     *  information.
 214:.\Generated_Source\PSoC4/CyLib.c ****     *
 215:.\Generated_Source\PSoC4/CyLib.c ****     *******************************************************************************/
 216:.\Generated_Source\PSoC4/CyLib.c ****     void CySysClkWriteImoFreq(uint32 freq)
 217:.\Generated_Source\PSoC4/CyLib.c ****     {
 218:.\Generated_Source\PSoC4/CyLib.c ****         uint8  bgTrim4;
 219:.\Generated_Source\PSoC4/CyLib.c ****         uint8  bgTrim5;
 220:.\Generated_Source\PSoC4/CyLib.c ****         uint32 currentFreq = CY_SYS_CLK_IMO_MAX_FREQ_MHZ;
 221:.\Generated_Source\PSoC4/CyLib.c ****         uint8  interruptState;
 222:.\Generated_Source\PSoC4/CyLib.c ****         uint32 i;
 223:.\Generated_Source\PSoC4/CyLib.c **** 
 224:.\Generated_Source\PSoC4/CyLib.c ****         /* Convertion between CySysClkWriteImoFreq() parameter and register's value */
 225:.\Generated_Source\PSoC4/CyLib.c ****         static const uint8 cyImoFreqMhz2Reg[CY_SYS_CLK_IMO_FREQ_TABLE_SIZE] = {
 226:.\Generated_Source\PSoC4/CyLib.c ****             /*  3 MHz */ 0x03u,  /*  4 MHz */ 0x04u,  /*  5 MHz */ 0x05u,  /*  6 MHz */ 0x06u,
 227:.\Generated_Source\PSoC4/CyLib.c ****             /*  7 MHz */ 0x07u,  /*  8 MHz */ 0x08u,  /*  9 MHz */ 0x09u,  /* 10 MHz */ 0x0Au,
 228:.\Generated_Source\PSoC4/CyLib.c ****             /* 11 MHz */ 0x0Bu,  /* 12 MHz */ 0x0Cu,  /* 13 MHz */ 0x0Eu,  /* 14 MHz */ 0x0Fu,
ARM GAS  C:\Users\CHUCK~1.ERH\AppData\Local\Temp\ccGtqbdp.s 			page 9


 229:.\Generated_Source\PSoC4/CyLib.c ****             /* 15 MHz */ 0x10u,  /* 16 MHz */ 0x11u,  /* 17 MHz */ 0x12u,  /* 18 MHz */ 0x13u,
 230:.\Generated_Source\PSoC4/CyLib.c ****             /* 19 MHz */ 0x14u,  /* 20 MHz */ 0x15u,  /* 21 MHz */ 0x16u,  /* 22 MHz */ 0x17u,
 231:.\Generated_Source\PSoC4/CyLib.c ****             /* 23 MHz */ 0x18u,  /* 24 MHz */ 0x19u,  /* 25 MHz */ 0x1Bu,  /* 26 MHz */ 0x1Cu,
 232:.\Generated_Source\PSoC4/CyLib.c ****             /* 27 MHz */ 0x1Du,  /* 28 MHz */ 0x1Eu,  /* 29 MHz */ 0x1Fu,  /* 30 MHz */ 0x20u,
 233:.\Generated_Source\PSoC4/CyLib.c ****             /* 31 MHz */ 0x21u,  /* 32 MHz */ 0x22u,  /* 33 MHz */ 0x23u,  /* 34 MHz */ 0x25u,
 234:.\Generated_Source\PSoC4/CyLib.c ****             /* 35 MHz */ 0x26u,  /* 36 MHz */ 0x27u,  /* 37 MHz */ 0x28u,  /* 38 MHz */ 0x29u,
 235:.\Generated_Source\PSoC4/CyLib.c ****             /* 39 MHz */ 0x2Au,  /* 40 MHz */ 0x2Bu,  /* 41 MHz */ 0x2Eu,  /* 42 MHz */ 0x2Fu,
 236:.\Generated_Source\PSoC4/CyLib.c ****             /* 43 MHz */ 0x30u,  /* 44 MHz */ 0x31u,  /* 45 MHz */ 0x32u,  /* 46 MHz */ 0x33u,
 237:.\Generated_Source\PSoC4/CyLib.c ****             /* 47 MHz */ 0x34u,  /* 48 MHz */ 0x35u };
 238:.\Generated_Source\PSoC4/CyLib.c **** 
 239:.\Generated_Source\PSoC4/CyLib.c **** 
 240:.\Generated_Source\PSoC4/CyLib.c ****         if ((freq >= CY_SYS_CLK_IMO_MIN_FREQ_MHZ) && (freq <= CY_SYS_CLK_IMO_MAX_FREQ_MHZ))
 241:.\Generated_Source\PSoC4/CyLib.c ****         {
 242:.\Generated_Source\PSoC4/CyLib.c ****             interruptState = CyEnterCriticalSection();
 243:.\Generated_Source\PSoC4/CyLib.c **** 
 244:.\Generated_Source\PSoC4/CyLib.c ****             /* Get current IMO frequency */
 245:.\Generated_Source\PSoC4/CyLib.c ****             for (i = 0u; i < CY_SYS_CLK_IMO_FREQ_TABLE_SIZE; i++)
 246:.\Generated_Source\PSoC4/CyLib.c ****             {
 247:.\Generated_Source\PSoC4/CyLib.c ****                 if (cyImoFreqMhz2Reg[i] == (CY_SYS_CLK_IMO_TRIM2_REG & CY_SYS_CLK_IMO_FREQ_BITS_MAS
 248:.\Generated_Source\PSoC4/CyLib.c ****                 {
 249:.\Generated_Source\PSoC4/CyLib.c ****                     currentFreq = i + CY_SYS_CLK_IMO_FREQ_TABLE_OFFSET;
 250:.\Generated_Source\PSoC4/CyLib.c ****                     break;
 251:.\Generated_Source\PSoC4/CyLib.c ****                 }
 252:.\Generated_Source\PSoC4/CyLib.c ****             }
 253:.\Generated_Source\PSoC4/CyLib.c **** 
 254:.\Generated_Source\PSoC4/CyLib.c ****             if(freq <= CY_SFLASH_IMO_MAXF0_REG)
 255:.\Generated_Source\PSoC4/CyLib.c ****             {
 256:.\Generated_Source\PSoC4/CyLib.c ****                 bgTrim4 = CY_SFLASH_IMO_ABS0_REG;
 257:.\Generated_Source\PSoC4/CyLib.c ****                 bgTrim5 = CY_SFLASH_IMO_TMPCO0_REG;
 258:.\Generated_Source\PSoC4/CyLib.c ****             }
 259:.\Generated_Source\PSoC4/CyLib.c ****             else if(freq <= CY_SFLASH_IMO_MAXF1_REG)
 260:.\Generated_Source\PSoC4/CyLib.c ****             {
 261:.\Generated_Source\PSoC4/CyLib.c ****                 bgTrim4 = CY_SFLASH_IMO_ABS1_REG;
 262:.\Generated_Source\PSoC4/CyLib.c ****                 bgTrim5 = CY_SFLASH_IMO_TMPCO1_REG;
 263:.\Generated_Source\PSoC4/CyLib.c ****             }
 264:.\Generated_Source\PSoC4/CyLib.c ****             else if(freq <= CY_SFLASH_IMO_MAXF2_REG)
 265:.\Generated_Source\PSoC4/CyLib.c ****             {
 266:.\Generated_Source\PSoC4/CyLib.c ****                 bgTrim4 = CY_SFLASH_IMO_ABS2_REG;
 267:.\Generated_Source\PSoC4/CyLib.c ****                 bgTrim5 = CY_SFLASH_IMO_TMPCO2_REG;
 268:.\Generated_Source\PSoC4/CyLib.c ****             }
 269:.\Generated_Source\PSoC4/CyLib.c ****             else if(freq <= CY_SFLASH_IMO_MAXF3_REG)
 270:.\Generated_Source\PSoC4/CyLib.c ****             {
 271:.\Generated_Source\PSoC4/CyLib.c ****                 bgTrim4 = CY_SFLASH_IMO_ABS3_REG;
 272:.\Generated_Source\PSoC4/CyLib.c ****                 bgTrim5 = CY_SFLASH_IMO_TMPCO3_REG;
 273:.\Generated_Source\PSoC4/CyLib.c ****             }
 274:.\Generated_Source\PSoC4/CyLib.c ****             else
 275:.\Generated_Source\PSoC4/CyLib.c ****             {
 276:.\Generated_Source\PSoC4/CyLib.c ****                 bgTrim4 = CY_SFLASH_IMO_ABS4_REG;
 277:.\Generated_Source\PSoC4/CyLib.c ****                 bgTrim5 = CY_SFLASH_IMO_TMPCO4_REG;
 278:.\Generated_Source\PSoC4/CyLib.c ****             }
 279:.\Generated_Source\PSoC4/CyLib.c **** 
 280:.\Generated_Source\PSoC4/CyLib.c **** 
 281:.\Generated_Source\PSoC4/CyLib.c ****             /***************************************************************************
 282:.\Generated_Source\PSoC4/CyLib.c ****             * The IMO can have a different trim per frequency. To avoid possible corner
 283:.\Generated_Source\PSoC4/CyLib.c ****             * cases where a trim change can exceed the maximum frequency, the trim must
 284:.\Generated_Source\PSoC4/CyLib.c ****             * be applied at a frequency that is low enough.
 285:.\Generated_Source\PSoC4/CyLib.c ****             ***************************************************************************/
ARM GAS  C:\Users\CHUCK~1.ERH\AppData\Local\Temp\ccGtqbdp.s 			page 10


 286:.\Generated_Source\PSoC4/CyLib.c ****             if ((currentFreq >= CY_SYS_CLK_IMO_BOUNDARY_FREQ_MHZ) && (freq >= CY_SYS_CLK_IMO_BOUNDA
 287:.\Generated_Source\PSoC4/CyLib.c ****             {
 288:.\Generated_Source\PSoC4/CyLib.c ****                 /* Set boundary IMO frequency: safe for IMO above 48 MHZ trimming */
 289:.\Generated_Source\PSoC4/CyLib.c ****                 CY_SYS_CLK_IMO_TRIM2_REG = (uint32) cyImoFreqMhz2Reg[CY_SYS_CLK_IMO_TEMP_FREQ_MHZ -
 290:.\Generated_Source\PSoC4/CyLib.c ****                                                                      CY_SYS_CLK_IMO_FREQ_TABLE_OFFS
 291:.\Generated_Source\PSoC4/CyLib.c **** 
 292:.\Generated_Source\PSoC4/CyLib.c ****                 CyDelayCycles(CY_SYS_CLK_IMO_FREQ_TIMEOUT_CYCLES);
 293:.\Generated_Source\PSoC4/CyLib.c **** 
 294:.\Generated_Source\PSoC4/CyLib.c ****                 currentFreq = CY_SYS_CLK_IMO_TEMP_FREQ_MHZ;
 295:.\Generated_Source\PSoC4/CyLib.c ****             }
 296:.\Generated_Source\PSoC4/CyLib.c **** 
 297:.\Generated_Source\PSoC4/CyLib.c **** 
 298:.\Generated_Source\PSoC4/CyLib.c ****             /***************************************************************************
 299:.\Generated_Source\PSoC4/CyLib.c ****             * Trim change need to allowed to settle (within 5us) before the Freq can be
 300:.\Generated_Source\PSoC4/CyLib.c ****             * changed to the new frequency.
 301:.\Generated_Source\PSoC4/CyLib.c ****             ***************************************************************************/
 302:.\Generated_Source\PSoC4/CyLib.c ****             if (freq > currentFreq)
 303:.\Generated_Source\PSoC4/CyLib.c ****             {
 304:.\Generated_Source\PSoC4/CyLib.c ****                 /* Set trims for the new IMO frequency */
 305:.\Generated_Source\PSoC4/CyLib.c ****                 CY_SYS_CLK_IMO_TRIM1_REG = (uint32) CY_SFLASH_IMO_TRIM_REG(freq - CY_SYS_CLK_IMO_FR
 306:.\Generated_Source\PSoC4/CyLib.c ****                 CY_PWR_BG_TRIM4_REG  = bgTrim4;
 307:.\Generated_Source\PSoC4/CyLib.c ****                 CY_PWR_BG_TRIM5_REG  = bgTrim5;
 308:.\Generated_Source\PSoC4/CyLib.c ****                 CyDelayUs(CY_SYS_CLK_IMO_TRIM_TIMEOUT_US);
 309:.\Generated_Source\PSoC4/CyLib.c **** 
 310:.\Generated_Source\PSoC4/CyLib.c ****                 /* Set new IMO frequency */
 311:.\Generated_Source\PSoC4/CyLib.c ****                 CY_SYS_CLK_IMO_TRIM2_REG = cyImoFreqMhz2Reg[freq - CY_SYS_CLK_IMO_FREQ_TABLE_OFFSET
 312:.\Generated_Source\PSoC4/CyLib.c ****                 CyDelayCycles(CY_SYS_CLK_IMO_FREQ_TIMEOUT_CYCLES);
 313:.\Generated_Source\PSoC4/CyLib.c ****             }
 314:.\Generated_Source\PSoC4/CyLib.c ****             else
 315:.\Generated_Source\PSoC4/CyLib.c ****             {
 316:.\Generated_Source\PSoC4/CyLib.c ****                 /* Set new IMO frequency */
 317:.\Generated_Source\PSoC4/CyLib.c ****                 CY_SYS_CLK_IMO_TRIM2_REG = cyImoFreqMhz2Reg[freq - CY_SYS_CLK_IMO_FREQ_TABLE_OFFSET
 318:.\Generated_Source\PSoC4/CyLib.c ****                 CyDelayCycles(CY_SYS_CLK_IMO_FREQ_TIMEOUT_CYCLES);
 319:.\Generated_Source\PSoC4/CyLib.c **** 
 320:.\Generated_Source\PSoC4/CyLib.c ****                 /* Set trims for the new IMO frequency */
 321:.\Generated_Source\PSoC4/CyLib.c ****                 CY_SYS_CLK_IMO_TRIM1_REG = CY_SFLASH_IMO_TRIM_REG(freq - CY_SYS_CLK_IMO_FREQ_TABLE_
 322:.\Generated_Source\PSoC4/CyLib.c ****                 CY_PWR_BG_TRIM4_REG  = bgTrim4;
 323:.\Generated_Source\PSoC4/CyLib.c ****                 CY_PWR_BG_TRIM5_REG  = bgTrim5;
 324:.\Generated_Source\PSoC4/CyLib.c ****                 CyDelayUs(CY_SYS_CLK_IMO_TRIM_TIMEOUT_US);
 325:.\Generated_Source\PSoC4/CyLib.c ****             }
 326:.\Generated_Source\PSoC4/CyLib.c **** 
 327:.\Generated_Source\PSoC4/CyLib.c ****             CyExitCriticalSection(interruptState);
 328:.\Generated_Source\PSoC4/CyLib.c ****         }
 329:.\Generated_Source\PSoC4/CyLib.c ****         else
 330:.\Generated_Source\PSoC4/CyLib.c ****         {
 331:.\Generated_Source\PSoC4/CyLib.c ****             /* Halt CPU in debug mode if new frequency is invalid */
 332:.\Generated_Source\PSoC4/CyLib.c ****             CYASSERT(0u != 0u);
 333:.\Generated_Source\PSoC4/CyLib.c ****         }
 334:.\Generated_Source\PSoC4/CyLib.c ****     }
 335:.\Generated_Source\PSoC4/CyLib.c **** 
 336:.\Generated_Source\PSoC4/CyLib.c **** 
 337:.\Generated_Source\PSoC4/CyLib.c ****     /*******************************************************************************
 338:.\Generated_Source\PSoC4/CyLib.c ****     * Function Name: CySysWdtLock
 339:.\Generated_Source\PSoC4/CyLib.c ****     ********************************************************************************
 340:.\Generated_Source\PSoC4/CyLib.c ****     *
 341:.\Generated_Source\PSoC4/CyLib.c ****     * Summary:
 342:.\Generated_Source\PSoC4/CyLib.c ****     *  Locks out configuration changes to the Watchdog timer registers and ILO
ARM GAS  C:\Users\CHUCK~1.ERH\AppData\Local\Temp\ccGtqbdp.s 			page 11


 343:.\Generated_Source\PSoC4/CyLib.c ****     *  config register.
 344:.\Generated_Source\PSoC4/CyLib.c ****     *
 345:.\Generated_Source\PSoC4/CyLib.c ****     * Parameters:
 346:.\Generated_Source\PSoC4/CyLib.c ****     *  None
 347:.\Generated_Source\PSoC4/CyLib.c ****     *
 348:.\Generated_Source\PSoC4/CyLib.c ****     * Return:
 349:.\Generated_Source\PSoC4/CyLib.c ****     *  None
 350:.\Generated_Source\PSoC4/CyLib.c ****     *
 351:.\Generated_Source\PSoC4/CyLib.c ****     * Side effects:
 352:.\Generated_Source\PSoC4/CyLib.c ****     *  This API enables ILO, if it was disabled.
 353:.\Generated_Source\PSoC4/CyLib.c ****     *  After this API was called, ILO clock can't be disabled untill calling of
 354:.\Generated_Source\PSoC4/CyLib.c ****     *  CySysWdtUnlock().
 355:.\Generated_Source\PSoC4/CyLib.c ****     *
 356:.\Generated_Source\PSoC4/CyLib.c ****     *******************************************************************************/
 357:.\Generated_Source\PSoC4/CyLib.c ****     void CySysWdtLock(void)
 358:.\Generated_Source\PSoC4/CyLib.c ****     {
 219              		.loc 1 358 0
 220              		.cfi_startproc
 221 0000 10B5     		push	{r4, lr}
 222              	.LCFI1:
 223              		.cfi_def_cfa_offset 8
 224              		.cfi_offset 4, -8
 225              		.cfi_offset 14, -4
 359:.\Generated_Source\PSoC4/CyLib.c ****         uint8 interruptState;
 360:.\Generated_Source\PSoC4/CyLib.c ****         interruptState = CyEnterCriticalSection();
 226              		.loc 1 360 0
 227 0002 FFF7FEFF 		bl	CyEnterCriticalSection
 228              	.LVL4:
 361:.\Generated_Source\PSoC4/CyLib.c **** 
 362:.\Generated_Source\PSoC4/CyLib.c ****         /* Configuring the WDT involves passing control signals between clock domains,
 363:.\Generated_Source\PSoC4/CyLib.c ****         * which requires the ILO to be enabled.
 364:.\Generated_Source\PSoC4/CyLib.c ****         */
 365:.\Generated_Source\PSoC4/CyLib.c ****         if (0u == (CY_SYS_CLK_ILO_CONFIG_REG & CY_SYS_CLK_ILO_CONFIG_ENABLE))
 229              		.loc 1 365 0
 230 0006 084B     		ldr	r3, .L22
 360:.\Generated_Source\PSoC4/CyLib.c ****         interruptState = CyEnterCriticalSection();
 231              		.loc 1 360 0
 232 0008 041C     		mov	r4, r0
 233              	.LVL5:
 234              		.loc 1 365 0
 235 000a 1868     		ldr	r0, [r3]
 236              	.LVL6:
 237 000c 0028     		cmp	r0, #0
 238 000e 01DB     		blt	.L20
 366:.\Generated_Source\PSoC4/CyLib.c ****         {
 367:.\Generated_Source\PSoC4/CyLib.c ****             CySysClkIloStart();
 239              		.loc 1 367 0
 240 0010 FFF7FEFF 		bl	CySysClkIloStart
 241              	.LVL7:
 242              	.L20:
 368:.\Generated_Source\PSoC4/CyLib.c ****         }
 369:.\Generated_Source\PSoC4/CyLib.c **** 
 370:.\Generated_Source\PSoC4/CyLib.c ****         /* CLK_SELECT register's bits 15:14 are WDT_LOCK */
 371:.\Generated_Source\PSoC4/CyLib.c ****         CY_SYS_CLK_SELECT_REG = (CY_SYS_CLK_SELECT_REG & (uint32)(~CY_SYS_WDT_CLK_LOCK_BITS_MASK)) 
 243              		.loc 1 371 0
 244 0014 054B     		ldr	r3, .L22+4
 245 0016 C022     		mov	r2, #192
ARM GAS  C:\Users\CHUCK~1.ERH\AppData\Local\Temp\ccGtqbdp.s 			page 12


 246 0018 1968     		ldr	r1, [r3]
 247 001a 1002     		lsl	r0, r2, #8
 248 001c 0843     		orr	r0, r1
 249 001e 1860     		str	r0, [r3]
 372:.\Generated_Source\PSoC4/CyLib.c ****                  CY_SYS_WDT_CLK_LOCK_BITS_MASK;
 373:.\Generated_Source\PSoC4/CyLib.c **** 
 374:.\Generated_Source\PSoC4/CyLib.c ****         CyExitCriticalSection(interruptState);
 250              		.loc 1 374 0
 251 0020 201C     		mov	r0, r4
 252 0022 FFF7FEFF 		bl	CyExitCriticalSection
 253              	.LVL8:
 375:.\Generated_Source\PSoC4/CyLib.c ****     }
 254              		.loc 1 375 0
 255              		@ sp needed for prologue
 256              	.LVL9:
 257 0026 10BD     		pop	{r4, pc}
 258              	.L23:
 259              		.align	2
 260              	.L22:
 261 0028 04010B40 		.word	1074462980
 262 002c 00010B40 		.word	1074462976
 263              		.cfi_endproc
 264              	.LFE7:
 265              		.size	CySysWdtLock, .-CySysWdtLock
 266              		.section	.text.CySysWdtUnlock,"ax",%progbits
 267              		.align	1
 268              		.global	CySysWdtUnlock
 269              		.code	16
 270              		.thumb_func
 271              		.type	CySysWdtUnlock, %function
 272              	CySysWdtUnlock:
 273              	.LFB8:
 376:.\Generated_Source\PSoC4/CyLib.c **** 
 377:.\Generated_Source\PSoC4/CyLib.c **** 
 378:.\Generated_Source\PSoC4/CyLib.c ****     /*******************************************************************************
 379:.\Generated_Source\PSoC4/CyLib.c ****     * Function Name: CySysWdtUnlock
 380:.\Generated_Source\PSoC4/CyLib.c ****     ********************************************************************************
 381:.\Generated_Source\PSoC4/CyLib.c ****     *
 382:.\Generated_Source\PSoC4/CyLib.c ****     * Summary:
 383:.\Generated_Source\PSoC4/CyLib.c ****     *  Unlocks the Watchdog Timer configuration register.
 384:.\Generated_Source\PSoC4/CyLib.c ****     *
 385:.\Generated_Source\PSoC4/CyLib.c ****     * Parameters:
 386:.\Generated_Source\PSoC4/CyLib.c ****     *  None
 387:.\Generated_Source\PSoC4/CyLib.c ****     *
 388:.\Generated_Source\PSoC4/CyLib.c ****     * Return:
 389:.\Generated_Source\PSoC4/CyLib.c ****     *  None
 390:.\Generated_Source\PSoC4/CyLib.c ****     *
 391:.\Generated_Source\PSoC4/CyLib.c ****     * Side effects:
 392:.\Generated_Source\PSoC4/CyLib.c ****     *  This API enables ILO, if it was disabled.
 393:.\Generated_Source\PSoC4/CyLib.c ****     *
 394:.\Generated_Source\PSoC4/CyLib.c ****     *******************************************************************************/
 395:.\Generated_Source\PSoC4/CyLib.c ****     void CySysWdtUnlock(void)
 396:.\Generated_Source\PSoC4/CyLib.c ****     {
 274              		.loc 1 396 0
 275              		.cfi_startproc
 276 0000 10B5     		push	{r4, lr}
 277              	.LCFI2:
ARM GAS  C:\Users\CHUCK~1.ERH\AppData\Local\Temp\ccGtqbdp.s 			page 13


 278              		.cfi_def_cfa_offset 8
 279              		.cfi_offset 4, -8
 280              		.cfi_offset 14, -4
 397:.\Generated_Source\PSoC4/CyLib.c ****         uint8 interruptState;
 398:.\Generated_Source\PSoC4/CyLib.c ****         interruptState = CyEnterCriticalSection();
 281              		.loc 1 398 0
 282 0002 FFF7FEFF 		bl	CyEnterCriticalSection
 283              	.LVL10:
 399:.\Generated_Source\PSoC4/CyLib.c **** 
 400:.\Generated_Source\PSoC4/CyLib.c ****         /* Configuring the WDT involves passing control signals between clock domains,
 401:.\Generated_Source\PSoC4/CyLib.c ****         * which requires the ILO to be enabled.
 402:.\Generated_Source\PSoC4/CyLib.c ****         */
 403:.\Generated_Source\PSoC4/CyLib.c ****         if (0u == (CY_SYS_CLK_ILO_CONFIG_REG & CY_SYS_CLK_ILO_CONFIG_ENABLE))
 284              		.loc 1 403 0
 285 0006 0C4B     		ldr	r3, .L26
 398:.\Generated_Source\PSoC4/CyLib.c ****         interruptState = CyEnterCriticalSection();
 286              		.loc 1 398 0
 287 0008 041C     		mov	r4, r0
 288              	.LVL11:
 289              		.loc 1 403 0
 290 000a 1868     		ldr	r0, [r3]
 291              	.LVL12:
 292 000c 0028     		cmp	r0, #0
 293 000e 01DB     		blt	.L25
 404:.\Generated_Source\PSoC4/CyLib.c ****         {
 405:.\Generated_Source\PSoC4/CyLib.c ****             CySysClkIloStart();
 294              		.loc 1 405 0
 295 0010 FFF7FEFF 		bl	CySysClkIloStart
 296              	.LVL13:
 297              	.L25:
 406:.\Generated_Source\PSoC4/CyLib.c ****         }
 407:.\Generated_Source\PSoC4/CyLib.c **** 
 408:.\Generated_Source\PSoC4/CyLib.c ****         /* Removing WDT lock requires two writes */
 409:.\Generated_Source\PSoC4/CyLib.c ****         CY_SYS_CLK_SELECT_REG = ((CY_SYS_CLK_SELECT_REG & (uint32)(~CY_SYS_WDT_CLK_LOCK_BITS_MASK))
 298              		.loc 1 409 0
 299 0014 094B     		ldr	r3, .L26+4
 300 0016 0A4A     		ldr	r2, .L26+8
 301 0018 1968     		ldr	r1, [r3]
 302 001a 8020     		mov	r0, #128
 303 001c 1140     		and	r1, r2
 304 001e C001     		lsl	r0, r0, #7
 305 0020 0143     		orr	r1, r0
 306 0022 1960     		str	r1, [r3]
 410:.\Generated_Source\PSoC4/CyLib.c ****                 CY_SYS_WDT_CLK_LOCK_BIT0);
 411:.\Generated_Source\PSoC4/CyLib.c **** 
 412:.\Generated_Source\PSoC4/CyLib.c ****         CY_SYS_CLK_SELECT_REG = ((CY_SYS_CLK_SELECT_REG & (uint32)(~CY_SYS_WDT_CLK_LOCK_BITS_MASK))
 307              		.loc 1 412 0
 308 0024 1968     		ldr	r1, [r3]
 309 0026 8020     		mov	r0, #128
 310 0028 0A40     		and	r2, r1
 311 002a 0102     		lsl	r1, r0, #8
 312 002c 0A43     		orr	r2, r1
 313 002e 1A60     		str	r2, [r3]
 413:.\Generated_Source\PSoC4/CyLib.c ****                 CY_SYS_WDT_CLK_LOCK_BIT1);
 414:.\Generated_Source\PSoC4/CyLib.c **** 
 415:.\Generated_Source\PSoC4/CyLib.c ****         CyExitCriticalSection(interruptState);
 314              		.loc 1 415 0
ARM GAS  C:\Users\CHUCK~1.ERH\AppData\Local\Temp\ccGtqbdp.s 			page 14


 315 0030 201C     		mov	r0, r4
 316 0032 FFF7FEFF 		bl	CyExitCriticalSection
 317              	.LVL14:
 416:.\Generated_Source\PSoC4/CyLib.c ****     }
 318              		.loc 1 416 0
 319              		@ sp needed for prologue
 320              	.LVL15:
 321 0036 10BD     		pop	{r4, pc}
 322              	.L27:
 323              		.align	2
 324              	.L26:
 325 0038 04010B40 		.word	1074462980
 326 003c 00010B40 		.word	1074462976
 327 0040 FF3FFFFF 		.word	-49153
 328              		.cfi_endproc
 329              	.LFE8:
 330              		.size	CySysWdtUnlock, .-CySysWdtUnlock
 331              		.section	.text.CySysWdtReadEnabledStatus,"ax",%progbits
 332              		.align	1
 333              		.global	CySysWdtReadEnabledStatus
 334              		.code	16
 335              		.thumb_func
 336              		.type	CySysWdtReadEnabledStatus, %function
 337              	CySysWdtReadEnabledStatus:
 338              	.LFB9:
 417:.\Generated_Source\PSoC4/CyLib.c **** 
 418:.\Generated_Source\PSoC4/CyLib.c **** 
 419:.\Generated_Source\PSoC4/CyLib.c ****     /*******************************************************************************
 420:.\Generated_Source\PSoC4/CyLib.c ****     * Function Name: CySysWdtReadEnabledStatus
 421:.\Generated_Source\PSoC4/CyLib.c ****     ********************************************************************************
 422:.\Generated_Source\PSoC4/CyLib.c ****     *
 423:.\Generated_Source\PSoC4/CyLib.c ****     * Summary:
 424:.\Generated_Source\PSoC4/CyLib.c ****     *  Reads the enabled staus of one of the three WDT counters.
 425:.\Generated_Source\PSoC4/CyLib.c ****     *
 426:.\Generated_Source\PSoC4/CyLib.c ****     * Parameters:
 427:.\Generated_Source\PSoC4/CyLib.c ****     *  counterNum: Valid range [0-2].  Number of the WDT counter.
 428:.\Generated_Source\PSoC4/CyLib.c ****     *
 429:.\Generated_Source\PSoC4/CyLib.c ****     * Return:
 430:.\Generated_Source\PSoC4/CyLib.c ****     *  Status of WDT counter:
 431:.\Generated_Source\PSoC4/CyLib.c ****     *   0 - counter is disabled
 432:.\Generated_Source\PSoC4/CyLib.c ****     *   1 - counter is enabled
 433:.\Generated_Source\PSoC4/CyLib.c ****     *
 434:.\Generated_Source\PSoC4/CyLib.c ****     * Side Effects:
 435:.\Generated_Source\PSoC4/CyLib.c ****     *  This API returns actual WDT counter status from status register.
 436:.\Generated_Source\PSoC4/CyLib.c ****     *  It may take up to 3 LFCLK cycles since WDT counter was enabled for WDT status
 437:.\Generated_Source\PSoC4/CyLib.c ****     *  register to contain actual data.
 438:.\Generated_Source\PSoC4/CyLib.c ****     *
 439:.\Generated_Source\PSoC4/CyLib.c ****     *******************************************************************************/
 440:.\Generated_Source\PSoC4/CyLib.c ****     uint32 CySysWdtReadEnabledStatus(uint32 counterNum)
 441:.\Generated_Source\PSoC4/CyLib.c ****     {
 339              		.loc 1 441 0
 340              		.cfi_startproc
 341              	.LVL16:
 442:.\Generated_Source\PSoC4/CyLib.c ****         CYASSERT(counterNum < CY_SYS_WDT_COUNTERS_MAX);
 443:.\Generated_Source\PSoC4/CyLib.c ****         return ((CY_SYS_WDT_CONTROL_REG >> ((CY_SYS_WDT_CNT_SHIFT * counterNum) + CY_SYS_WDT_CNT_ST
 342              		.loc 1 443 0
 343 0000 044B     		ldr	r3, .L29
ARM GAS  C:\Users\CHUCK~1.ERH\AppData\Local\Temp\ccGtqbdp.s 			page 15


 344 0002 C000     		lsl	r0, r0, #3
 345              	.LVL17:
 346 0004 1968     		ldr	r1, [r3]
 347 0006 0130     		add	r0, r0, #1
 348 0008 C140     		lsr	r1, r1, r0
 349 000a 081C     		mov	r0, r1
 350 000c 0122     		mov	r2, #1
 351 000e 1040     		and	r0, r2
 444:.\Generated_Source\PSoC4/CyLib.c ****     }
 352              		.loc 1 444 0
 353              		@ sp needed for prologue
 354 0010 7047     		bx	lr
 355              	.L30:
 356 0012 C046     		.align	2
 357              	.L29:
 358 0014 10020B40 		.word	1074463248
 359              		.cfi_endproc
 360              	.LFE9:
 361              		.size	CySysWdtReadEnabledStatus, .-CySysWdtReadEnabledStatus
 362              		.section	.text.CySysWdtWriteMode,"ax",%progbits
 363              		.align	1
 364              		.global	CySysWdtWriteMode
 365              		.code	16
 366              		.thumb_func
 367              		.type	CySysWdtWriteMode, %function
 368              	CySysWdtWriteMode:
 369              	.LFB10:
 445:.\Generated_Source\PSoC4/CyLib.c **** 
 446:.\Generated_Source\PSoC4/CyLib.c **** 
 447:.\Generated_Source\PSoC4/CyLib.c ****     /*******************************************************************************
 448:.\Generated_Source\PSoC4/CyLib.c ****     * Function Name: CySysWdtWriteMode
 449:.\Generated_Source\PSoC4/CyLib.c ****     ********************************************************************************
 450:.\Generated_Source\PSoC4/CyLib.c ****     *
 451:.\Generated_Source\PSoC4/CyLib.c ****     * Summary:
 452:.\Generated_Source\PSoC4/CyLib.c ****     *   Writes the mode of one of the three WDT counters.
 453:.\Generated_Source\PSoC4/CyLib.c ****     *
 454:.\Generated_Source\PSoC4/CyLib.c ****     * Parameters:
 455:.\Generated_Source\PSoC4/CyLib.c ****     *   counterNum: Valid range [0-2].  Number of the WDT counter.
 456:.\Generated_Source\PSoC4/CyLib.c ****     *   mode:       Mode of operation for the counter
 457:.\Generated_Source\PSoC4/CyLib.c ****     *       Define                   Mode
 458:.\Generated_Source\PSoC4/CyLib.c ****     *    CY_SYS_WDT_MODE_NONE       Free running
 459:.\Generated_Source\PSoC4/CyLib.c ****     *    CY_SYS_WDT_MODE_INT        Interrupt generated on match for counter 0
 460:.\Generated_Source\PSoC4/CyLib.c ****     *                               and 1, and on bit toggle for counter 2.
 461:.\Generated_Source\PSoC4/CyLib.c ****     *    CY_SYS_WDT_MODE_RESET      Reset on match (valid for counter 0 and 1
 462:.\Generated_Source\PSoC4/CyLib.c ****     *                               only)
 463:.\Generated_Source\PSoC4/CyLib.c ****     *    CY_SYS_WDT_MODE_INT_RESET  Generate an interrupt.  Generate a reset on
 464:.\Generated_Source\PSoC4/CyLib.c ****     *                                    the 3rd unhandled interrupt.
 465:.\Generated_Source\PSoC4/CyLib.c ****     *                                    (valid for counter 0 and 1 only)
 466:.\Generated_Source\PSoC4/CyLib.c ****     * Return:
 467:.\Generated_Source\PSoC4/CyLib.c ****     *   None
 468:.\Generated_Source\PSoC4/CyLib.c ****     *
 469:.\Generated_Source\PSoC4/CyLib.c ****     * Side Effects:
 470:.\Generated_Source\PSoC4/CyLib.c ****     *   WDT counter counterNum should be disabled to set mode. Othetwise function
 471:.\Generated_Source\PSoC4/CyLib.c ****     *   call will have no effect.
 472:.\Generated_Source\PSoC4/CyLib.c ****     *   This API enables ILO, if it was disabled.
 473:.\Generated_Source\PSoC4/CyLib.c ****     *
 474:.\Generated_Source\PSoC4/CyLib.c ****     *******************************************************************************/
ARM GAS  C:\Users\CHUCK~1.ERH\AppData\Local\Temp\ccGtqbdp.s 			page 16


 475:.\Generated_Source\PSoC4/CyLib.c ****     void CySysWdtWriteMode(uint32 counterNum, uint32 mode)
 476:.\Generated_Source\PSoC4/CyLib.c ****     {
 370              		.loc 1 476 0
 371              		.cfi_startproc
 372              	.LVL18:
 373 0000 38B5     		push	{r3, r4, r5, lr}
 374              	.LCFI3:
 375              		.cfi_def_cfa_offset 16
 376              		.cfi_offset 3, -16
 377              		.cfi_offset 4, -12
 378              		.cfi_offset 5, -8
 379              		.cfi_offset 14, -4
 477:.\Generated_Source\PSoC4/CyLib.c ****         uint32 configRegValue;
 478:.\Generated_Source\PSoC4/CyLib.c **** 
 479:.\Generated_Source\PSoC4/CyLib.c ****         CYASSERT(counterNum < CY_SYS_WDT_COUNTERS_MAX);
 480:.\Generated_Source\PSoC4/CyLib.c **** 
 481:.\Generated_Source\PSoC4/CyLib.c ****         /* Configuring the WDT involves passing control signals between clock domains,
 482:.\Generated_Source\PSoC4/CyLib.c ****         * which requires the ILO to be enabled.
 483:.\Generated_Source\PSoC4/CyLib.c ****         */
 484:.\Generated_Source\PSoC4/CyLib.c ****         if (0u == (CY_SYS_CLK_ILO_CONFIG_REG & CY_SYS_CLK_ILO_CONFIG_ENABLE))
 380              		.loc 1 484 0
 381 0002 0C4B     		ldr	r3, .L34
 476:.\Generated_Source\PSoC4/CyLib.c ****     {
 382              		.loc 1 476 0
 383 0004 041C     		mov	r4, r0
 384              		.loc 1 484 0
 385 0006 1868     		ldr	r0, [r3]
 386              	.LVL19:
 476:.\Generated_Source\PSoC4/CyLib.c ****     {
 387              		.loc 1 476 0
 388 0008 0D1C     		mov	r5, r1
 389              		.loc 1 484 0
 390 000a 0028     		cmp	r0, #0
 391 000c 01DB     		blt	.L32
 485:.\Generated_Source\PSoC4/CyLib.c ****         {
 486:.\Generated_Source\PSoC4/CyLib.c ****             CySysClkIloStart();
 392              		.loc 1 486 0
 393 000e FFF7FEFF 		bl	CySysClkIloStart
 394              	.LVL20:
 395              	.L32:
 487:.\Generated_Source\PSoC4/CyLib.c ****         }
 488:.\Generated_Source\PSoC4/CyLib.c **** 
 489:.\Generated_Source\PSoC4/CyLib.c ****         if(0u == CySysWdtReadEnabledStatus(counterNum))
 396              		.loc 1 489 0
 397 0012 201C     		mov	r0, r4
 398 0014 FFF7FEFF 		bl	CySysWdtReadEnabledStatus
 399              	.LVL21:
 400 0018 0028     		cmp	r0, #0
 401 001a 0AD1     		bne	.L31
 490:.\Generated_Source\PSoC4/CyLib.c ****         {
 491:.\Generated_Source\PSoC4/CyLib.c ****             configRegValue = CY_SYS_WDT_CONFIG_REG &
 402              		.loc 1 491 0
 403 001c 064B     		ldr	r3, .L34+4
 492:.\Generated_Source\PSoC4/CyLib.c ****                                 (uint32)~((uint32)(CY_SYS_WDT_MODE_MASK << (counterNum * CY_SYS_WDT
 404              		.loc 1 492 0
 405 001e 0322     		mov	r2, #3
 491:.\Generated_Source\PSoC4/CyLib.c ****             configRegValue = CY_SYS_WDT_CONFIG_REG &
ARM GAS  C:\Users\CHUCK~1.ERH\AppData\Local\Temp\ccGtqbdp.s 			page 17


 406              		.loc 1 491 0
 407 0020 1968     		ldr	r1, [r3]
 408              		.loc 1 492 0
 409 0022 E400     		lsl	r4, r4, #3
 410              	.LVL22:
 411 0024 101C     		mov	r0, r2
 412 0026 A040     		lsl	r0, r0, r4
 493:.\Generated_Source\PSoC4/CyLib.c ****             configRegValue |= (uint32)((mode & CY_SYS_WDT_MODE_MASK) << (counterNum * CY_SYS_WDT_CN
 413              		.loc 1 493 0
 414 0028 1540     		and	r5, r2
 415              	.LVL23:
 491:.\Generated_Source\PSoC4/CyLib.c ****             configRegValue = CY_SYS_WDT_CONFIG_REG &
 416              		.loc 1 491 0
 417 002a 8143     		bic	r1, r0
 418              	.LVL24:
 419              		.loc 1 493 0
 420 002c A540     		lsl	r5, r5, r4
 421 002e 2943     		orr	r1, r5
 422              	.LVL25:
 494:.\Generated_Source\PSoC4/CyLib.c ****             CY_SYS_WDT_CONFIG_REG = configRegValue;
 423              		.loc 1 494 0
 424 0030 1960     		str	r1, [r3]
 425              	.LVL26:
 426              	.L31:
 495:.\Generated_Source\PSoC4/CyLib.c ****         }
 496:.\Generated_Source\PSoC4/CyLib.c ****     }
 427              		.loc 1 496 0
 428              		@ sp needed for prologue
 429 0032 38BD     		pop	{r3, r4, r5, pc}
 430              	.L35:
 431              		.align	2
 432              	.L34:
 433 0034 04010B40 		.word	1074462980
 434 0038 0C020B40 		.word	1074463244
 435              		.cfi_endproc
 436              	.LFE10:
 437              		.size	CySysWdtWriteMode, .-CySysWdtWriteMode
 438              		.section	.text.CySysWdtReadMode,"ax",%progbits
 439              		.align	1
 440              		.global	CySysWdtReadMode
 441              		.code	16
 442              		.thumb_func
 443              		.type	CySysWdtReadMode, %function
 444              	CySysWdtReadMode:
 445              	.LFB11:
 497:.\Generated_Source\PSoC4/CyLib.c **** 
 498:.\Generated_Source\PSoC4/CyLib.c **** 
 499:.\Generated_Source\PSoC4/CyLib.c ****     /*******************************************************************************
 500:.\Generated_Source\PSoC4/CyLib.c ****     * Function Name: CySysWdtReadMode
 501:.\Generated_Source\PSoC4/CyLib.c ****     ********************************************************************************
 502:.\Generated_Source\PSoC4/CyLib.c ****     *
 503:.\Generated_Source\PSoC4/CyLib.c ****     * Summary:
 504:.\Generated_Source\PSoC4/CyLib.c ****     *  Reads the mode of one of the three WDT counters.
 505:.\Generated_Source\PSoC4/CyLib.c ****     *
 506:.\Generated_Source\PSoC4/CyLib.c ****     * Parameters:
 507:.\Generated_Source\PSoC4/CyLib.c ****     *  counterNum: Valid range [0-2].  Number of the WDT counter.
 508:.\Generated_Source\PSoC4/CyLib.c ****     *
ARM GAS  C:\Users\CHUCK~1.ERH\AppData\Local\Temp\ccGtqbdp.s 			page 18


 509:.\Generated_Source\PSoC4/CyLib.c ****     * Return:
 510:.\Generated_Source\PSoC4/CyLib.c ****     *  Mode of the counter.  Same enumerated values as mode parameter used in
 511:.\Generated_Source\PSoC4/CyLib.c ****     *  CySysWdtWriteMode().
 512:.\Generated_Source\PSoC4/CyLib.c ****     *
 513:.\Generated_Source\PSoC4/CyLib.c ****     *******************************************************************************/
 514:.\Generated_Source\PSoC4/CyLib.c ****     uint32 CySysWdtReadMode(uint32 counterNum)
 515:.\Generated_Source\PSoC4/CyLib.c ****     {
 446              		.loc 1 515 0
 447              		.cfi_startproc
 448              	.LVL27:
 516:.\Generated_Source\PSoC4/CyLib.c ****         return ((CY_SYS_WDT_CONFIG_REG >> (counterNum * CY_SYS_WDT_CNT_SHIFT)) & CY_SYS_WDT_MODE_MA
 449              		.loc 1 516 0
 450 0000 034B     		ldr	r3, .L37
 451 0002 C000     		lsl	r0, r0, #3
 452              	.LVL28:
 453 0004 1968     		ldr	r1, [r3]
 454 0006 0322     		mov	r2, #3
 455 0008 C140     		lsr	r1, r1, r0
 456 000a 081C     		mov	r0, r1
 457 000c 1040     		and	r0, r2
 517:.\Generated_Source\PSoC4/CyLib.c ****     }
 458              		.loc 1 517 0
 459              		@ sp needed for prologue
 460 000e 7047     		bx	lr
 461              	.L38:
 462              		.align	2
 463              	.L37:
 464 0010 0C020B40 		.word	1074463244
 465              		.cfi_endproc
 466              	.LFE11:
 467              		.size	CySysWdtReadMode, .-CySysWdtReadMode
 468              		.section	.text.CySysWdtWriteClearOnMatch,"ax",%progbits
 469              		.align	1
 470              		.global	CySysWdtWriteClearOnMatch
 471              		.code	16
 472              		.thumb_func
 473              		.type	CySysWdtWriteClearOnMatch, %function
 474              	CySysWdtWriteClearOnMatch:
 475              	.LFB12:
 518:.\Generated_Source\PSoC4/CyLib.c **** 
 519:.\Generated_Source\PSoC4/CyLib.c **** 
 520:.\Generated_Source\PSoC4/CyLib.c ****     /*******************************************************************************
 521:.\Generated_Source\PSoC4/CyLib.c ****     * Function Name: CySysWdtWriteClearOnMatch
 522:.\Generated_Source\PSoC4/CyLib.c ****     ********************************************************************************
 523:.\Generated_Source\PSoC4/CyLib.c ****     *
 524:.\Generated_Source\PSoC4/CyLib.c ****     * Summary:
 525:.\Generated_Source\PSoC4/CyLib.c ****     *  Configures the WDT counter clear on a match setting.  If configured to clear
 526:.\Generated_Source\PSoC4/CyLib.c ****     *  on match the counter will count from 0 to the MatchValue giving it a
 527:.\Generated_Source\PSoC4/CyLib.c ****     *  period of (MatchValue + 1).
 528:.\Generated_Source\PSoC4/CyLib.c ****     *
 529:.\Generated_Source\PSoC4/CyLib.c ****     * Parameters:
 530:.\Generated_Source\PSoC4/CyLib.c ****     *  counterNum:
 531:.\Generated_Source\PSoC4/CyLib.c ****     *   Valid range [0-1].  Number of the WDT counter.  Match values are not
 532:.\Generated_Source\PSoC4/CyLib.c ****     *   supported by counter 2.
 533:.\Generated_Source\PSoC4/CyLib.c ****     *
 534:.\Generated_Source\PSoC4/CyLib.c ****     * enable:
 535:.\Generated_Source\PSoC4/CyLib.c ****     *   0 to disable, 1 to enable
ARM GAS  C:\Users\CHUCK~1.ERH\AppData\Local\Temp\ccGtqbdp.s 			page 19


 536:.\Generated_Source\PSoC4/CyLib.c ****     *
 537:.\Generated_Source\PSoC4/CyLib.c ****     * Return:
 538:.\Generated_Source\PSoC4/CyLib.c ****     *   None
 539:.\Generated_Source\PSoC4/CyLib.c ****     *
 540:.\Generated_Source\PSoC4/CyLib.c ****     * Side Effects:
 541:.\Generated_Source\PSoC4/CyLib.c ****     *   WDT counter counterNum should be disabled. Othetwise function
 542:.\Generated_Source\PSoC4/CyLib.c ****     *   call will have no effect.
 543:.\Generated_Source\PSoC4/CyLib.c ****     *   This API enables ILO, if it was disabled.
 544:.\Generated_Source\PSoC4/CyLib.c ****     *
 545:.\Generated_Source\PSoC4/CyLib.c ****     *
 546:.\Generated_Source\PSoC4/CyLib.c ****     *******************************************************************************/
 547:.\Generated_Source\PSoC4/CyLib.c ****     void CySysWdtWriteClearOnMatch(uint32 counterNum, uint32 enable)
 548:.\Generated_Source\PSoC4/CyLib.c ****     {
 476              		.loc 1 548 0
 477              		.cfi_startproc
 478              	.LVL29:
 479 0000 38B5     		push	{r3, r4, r5, lr}
 480              	.LCFI4:
 481              		.cfi_def_cfa_offset 16
 482              		.cfi_offset 3, -16
 483              		.cfi_offset 4, -12
 484              		.cfi_offset 5, -8
 485              		.cfi_offset 14, -4
 549:.\Generated_Source\PSoC4/CyLib.c ****         CYASSERT((counterNum == CY_SYS_WDT_COUNTER0) ||
 550:.\Generated_Source\PSoC4/CyLib.c ****                                              (counterNum == CY_SYS_WDT_COUNTER1));
 551:.\Generated_Source\PSoC4/CyLib.c **** 
 552:.\Generated_Source\PSoC4/CyLib.c ****         /* Configuring the WDT involves passing control signals between clock domains,
 553:.\Generated_Source\PSoC4/CyLib.c ****         * which requires the ILO to be enabled.
 554:.\Generated_Source\PSoC4/CyLib.c ****         */
 555:.\Generated_Source\PSoC4/CyLib.c ****         if (0u == (CY_SYS_CLK_ILO_CONFIG_REG & CY_SYS_CLK_ILO_CONFIG_ENABLE))
 486              		.loc 1 555 0
 487 0002 0A4B     		ldr	r3, .L42
 548:.\Generated_Source\PSoC4/CyLib.c ****     {
 488              		.loc 1 548 0
 489 0004 041C     		mov	r4, r0
 490              		.loc 1 555 0
 491 0006 1868     		ldr	r0, [r3]
 492              	.LVL30:
 548:.\Generated_Source\PSoC4/CyLib.c ****     {
 493              		.loc 1 548 0
 494 0008 0D1C     		mov	r5, r1
 495              		.loc 1 555 0
 496 000a 0028     		cmp	r0, #0
 497 000c 01DB     		blt	.L40
 556:.\Generated_Source\PSoC4/CyLib.c ****         {
 557:.\Generated_Source\PSoC4/CyLib.c ****             CySysClkIloStart();
 498              		.loc 1 557 0
 499 000e FFF7FEFF 		bl	CySysClkIloStart
 500              	.LVL31:
 501              	.L40:
 558:.\Generated_Source\PSoC4/CyLib.c ****         }
 559:.\Generated_Source\PSoC4/CyLib.c **** 
 560:.\Generated_Source\PSoC4/CyLib.c ****         if(0u == CySysWdtReadEnabledStatus(counterNum))
 502              		.loc 1 560 0
 503 0012 201C     		mov	r0, r4
 504 0014 FFF7FEFF 		bl	CySysWdtReadEnabledStatus
 505              	.LVL32:
ARM GAS  C:\Users\CHUCK~1.ERH\AppData\Local\Temp\ccGtqbdp.s 			page 20


 506 0018 0028     		cmp	r0, #0
 507 001a 06D1     		bne	.L39
 561:.\Generated_Source\PSoC4/CyLib.c ****         {
 562:.\Generated_Source\PSoC4/CyLib.c ****             CY_SYS_WDT_CONFIG_REG |= (uint32)(enable << ((counterNum * CY_SYS_WDT_CNT_SHIFT) +
 508              		.loc 1 562 0
 509 001c 0449     		ldr	r1, .L42+4
 510 001e E400     		lsl	r4, r4, #3
 511              	.LVL33:
 512 0020 0A68     		ldr	r2, [r1]
 513 0022 0234     		add	r4, r4, #2
 514 0024 A540     		lsl	r5, r5, r4
 515              	.LVL34:
 516 0026 1543     		orr	r5, r2
 517 0028 0D60     		str	r5, [r1]
 518              	.L39:
 563:.\Generated_Source\PSoC4/CyLib.c ****                                                             CY_SYS_WDT_CNT_MATCH_CLR_SHIFT));
 564:.\Generated_Source\PSoC4/CyLib.c ****         }
 565:.\Generated_Source\PSoC4/CyLib.c ****     }
 519              		.loc 1 565 0
 520              		@ sp needed for prologue
 521 002a 38BD     		pop	{r3, r4, r5, pc}
 522              	.L43:
 523              		.align	2
 524              	.L42:
 525 002c 04010B40 		.word	1074462980
 526 0030 0C020B40 		.word	1074463244
 527              		.cfi_endproc
 528              	.LFE12:
 529              		.size	CySysWdtWriteClearOnMatch, .-CySysWdtWriteClearOnMatch
 530              		.section	.text.CySysWdtReadClearOnMatch,"ax",%progbits
 531              		.align	1
 532              		.global	CySysWdtReadClearOnMatch
 533              		.code	16
 534              		.thumb_func
 535              		.type	CySysWdtReadClearOnMatch, %function
 536              	CySysWdtReadClearOnMatch:
 537              	.LFB13:
 566:.\Generated_Source\PSoC4/CyLib.c **** 
 567:.\Generated_Source\PSoC4/CyLib.c **** 
 568:.\Generated_Source\PSoC4/CyLib.c ****     /*******************************************************************************
 569:.\Generated_Source\PSoC4/CyLib.c ****     * Function Name: CySysWdtReadClearOnMatch
 570:.\Generated_Source\PSoC4/CyLib.c ****     ********************************************************************************
 571:.\Generated_Source\PSoC4/CyLib.c ****     *
 572:.\Generated_Source\PSoC4/CyLib.c ****     * Summary:
 573:.\Generated_Source\PSoC4/CyLib.c ****     *  Reads the clear on match setting for the specified counter.
 574:.\Generated_Source\PSoC4/CyLib.c ****     *
 575:.\Generated_Source\PSoC4/CyLib.c ****     * Parameters:
 576:.\Generated_Source\PSoC4/CyLib.c ****     *   counterNum: Valid range [0-1].  Number of the WDT counter.  Match values are
 577:.\Generated_Source\PSoC4/CyLib.c ****     *               not supported by counter 2.
 578:.\Generated_Source\PSoC4/CyLib.c ****     *
 579:.\Generated_Source\PSoC4/CyLib.c ****     * Return:
 580:.\Generated_Source\PSoC4/CyLib.c ****     *   Clear on Match status: 1 if enabled, 0 if disabled
 581:.\Generated_Source\PSoC4/CyLib.c ****     *
 582:.\Generated_Source\PSoC4/CyLib.c ****     *******************************************************************************/
 583:.\Generated_Source\PSoC4/CyLib.c ****     uint32 CySysWdtReadClearOnMatch(uint32 counterNum)
 584:.\Generated_Source\PSoC4/CyLib.c ****     {
 538              		.loc 1 584 0
ARM GAS  C:\Users\CHUCK~1.ERH\AppData\Local\Temp\ccGtqbdp.s 			page 21


 539              		.cfi_startproc
 540              	.LVL35:
 585:.\Generated_Source\PSoC4/CyLib.c ****         CYASSERT((counterNum == CY_SYS_WDT_COUNTER0) ||
 586:.\Generated_Source\PSoC4/CyLib.c ****                                              (counterNum == CY_SYS_WDT_COUNTER1));
 587:.\Generated_Source\PSoC4/CyLib.c **** 
 588:.\Generated_Source\PSoC4/CyLib.c ****         return (uint32)((CY_SYS_WDT_CONFIG_REG >>
 541              		.loc 1 588 0
 542 0000 044B     		ldr	r3, .L45
 589:.\Generated_Source\PSoC4/CyLib.c ****                             ((counterNum * CY_SYS_WDT_CNT_SHIFT) + CY_SYS_WDT_CNT_MATCH_CLR_SHIFT))
 543              		.loc 1 589 0
 544 0002 C000     		lsl	r0, r0, #3
 545              	.LVL36:
 588:.\Generated_Source\PSoC4/CyLib.c ****         return (uint32)((CY_SYS_WDT_CONFIG_REG >>
 546              		.loc 1 588 0
 547 0004 1968     		ldr	r1, [r3]
 548              		.loc 1 589 0
 549 0006 0230     		add	r0, r0, #2
 588:.\Generated_Source\PSoC4/CyLib.c ****         return (uint32)((CY_SYS_WDT_CONFIG_REG >>
 550              		.loc 1 588 0
 551 0008 C140     		lsr	r1, r1, r0
 552 000a 081C     		mov	r0, r1
 553 000c 0122     		mov	r2, #1
 554 000e 1040     		and	r0, r2
 590:.\Generated_Source\PSoC4/CyLib.c ****     }
 555              		.loc 1 590 0
 556              		@ sp needed for prologue
 557 0010 7047     		bx	lr
 558              	.L46:
 559 0012 C046     		.align	2
 560              	.L45:
 561 0014 0C020B40 		.word	1074463244
 562              		.cfi_endproc
 563              	.LFE13:
 564              		.size	CySysWdtReadClearOnMatch, .-CySysWdtReadClearOnMatch
 565              		.section	.text.CySysWdtEnable,"ax",%progbits
 566              		.align	1
 567              		.global	CySysWdtEnable
 568              		.code	16
 569              		.thumb_func
 570              		.type	CySysWdtEnable, %function
 571              	CySysWdtEnable:
 572              	.LFB14:
 591:.\Generated_Source\PSoC4/CyLib.c **** 
 592:.\Generated_Source\PSoC4/CyLib.c **** 
 593:.\Generated_Source\PSoC4/CyLib.c ****     /*******************************************************************************
 594:.\Generated_Source\PSoC4/CyLib.c ****     * Function Name: CySysWdtEnable
 595:.\Generated_Source\PSoC4/CyLib.c ****     ********************************************************************************
 596:.\Generated_Source\PSoC4/CyLib.c ****     *
 597:.\Generated_Source\PSoC4/CyLib.c ****     * Summary:
 598:.\Generated_Source\PSoC4/CyLib.c ****     *  Enables the specified WDT counters.  All counters specified in the mask are
 599:.\Generated_Source\PSoC4/CyLib.c ****     *  enabled.
 600:.\Generated_Source\PSoC4/CyLib.c ****     *
 601:.\Generated_Source\PSoC4/CyLib.c ****     * Parameters:
 602:.\Generated_Source\PSoC4/CyLib.c ****     *  counterMask: Mask of all counters to enable
 603:.\Generated_Source\PSoC4/CyLib.c ****     *       Define                       Counter
 604:.\Generated_Source\PSoC4/CyLib.c ****     *      CY_SYS_WDT_COUNTER0_MASK      0
 605:.\Generated_Source\PSoC4/CyLib.c ****     *      CY_SYS_WDT_COUNTER1_MASK      1
ARM GAS  C:\Users\CHUCK~1.ERH\AppData\Local\Temp\ccGtqbdp.s 			page 22


 606:.\Generated_Source\PSoC4/CyLib.c ****     *      CY_SYS_WDT_COUNTER2_MASK      2
 607:.\Generated_Source\PSoC4/CyLib.c ****     *
 608:.\Generated_Source\PSoC4/CyLib.c ****     * Return:
 609:.\Generated_Source\PSoC4/CyLib.c ****     *  None
 610:.\Generated_Source\PSoC4/CyLib.c ****     *
 611:.\Generated_Source\PSoC4/CyLib.c ****     * Side Effects:
 612:.\Generated_Source\PSoC4/CyLib.c ****     *  Enabling or disabling a WDT requires 3 LF Clock cycles to come into effect.
 613:.\Generated_Source\PSoC4/CyLib.c ****     *  This API enables ILO, if it was disabled.
 614:.\Generated_Source\PSoC4/CyLib.c ****     *
 615:.\Generated_Source\PSoC4/CyLib.c ****     *******************************************************************************/
 616:.\Generated_Source\PSoC4/CyLib.c ****     void CySysWdtEnable(uint32 counterMask)
 617:.\Generated_Source\PSoC4/CyLib.c ****     {
 573              		.loc 1 617 0
 574              		.cfi_startproc
 575              	.LVL37:
 618:.\Generated_Source\PSoC4/CyLib.c ****         /* Configuring the WDT involves passing control signals between clock domains,
 619:.\Generated_Source\PSoC4/CyLib.c ****         * which requires the ILO to be enabled.
 620:.\Generated_Source\PSoC4/CyLib.c ****         */
 621:.\Generated_Source\PSoC4/CyLib.c ****         if (0u == (CY_SYS_CLK_ILO_CONFIG_REG & CY_SYS_CLK_ILO_CONFIG_ENABLE))
 576              		.loc 1 621 0
 577 0000 064B     		ldr	r3, .L49
 617:.\Generated_Source\PSoC4/CyLib.c ****     {
 578              		.loc 1 617 0
 579 0002 10B5     		push	{r4, lr}
 580              	.LCFI5:
 581              		.cfi_def_cfa_offset 8
 582              		.cfi_offset 4, -8
 583              		.cfi_offset 14, -4
 617:.\Generated_Source\PSoC4/CyLib.c ****     {
 584              		.loc 1 617 0
 585 0004 041C     		mov	r4, r0
 586              		.loc 1 621 0
 587 0006 1868     		ldr	r0, [r3]
 588              	.LVL38:
 589 0008 0028     		cmp	r0, #0
 590 000a 01DB     		blt	.L48
 622:.\Generated_Source\PSoC4/CyLib.c ****         {
 623:.\Generated_Source\PSoC4/CyLib.c ****             CySysClkIloStart();
 591              		.loc 1 623 0
 592 000c FFF7FEFF 		bl	CySysClkIloStart
 593              	.LVL39:
 594              	.L48:
 624:.\Generated_Source\PSoC4/CyLib.c ****         }
 625:.\Generated_Source\PSoC4/CyLib.c **** 
 626:.\Generated_Source\PSoC4/CyLib.c ****         CY_SYS_WDT_CONTROL_REG |= counterMask;
 595              		.loc 1 626 0
 596 0010 0349     		ldr	r1, .L49+4
 627:.\Generated_Source\PSoC4/CyLib.c ****     }
 597              		.loc 1 627 0
 598              		@ sp needed for prologue
 626:.\Generated_Source\PSoC4/CyLib.c ****         CY_SYS_WDT_CONTROL_REG |= counterMask;
 599              		.loc 1 626 0
 600 0012 0A68     		ldr	r2, [r1]
 601 0014 1443     		orr	r4, r2
 602              	.LVL40:
 603 0016 0C60     		str	r4, [r1]
 604              		.loc 1 627 0
ARM GAS  C:\Users\CHUCK~1.ERH\AppData\Local\Temp\ccGtqbdp.s 			page 23


 605 0018 10BD     		pop	{r4, pc}
 606              	.L50:
 607 001a C046     		.align	2
 608              	.L49:
 609 001c 04010B40 		.word	1074462980
 610 0020 10020B40 		.word	1074463248
 611              		.cfi_endproc
 612              	.LFE14:
 613              		.size	CySysWdtEnable, .-CySysWdtEnable
 614              		.section	.text.CySysWdtDisable,"ax",%progbits
 615              		.align	1
 616              		.global	CySysWdtDisable
 617              		.code	16
 618              		.thumb_func
 619              		.type	CySysWdtDisable, %function
 620              	CySysWdtDisable:
 621              	.LFB15:
 628:.\Generated_Source\PSoC4/CyLib.c **** 
 629:.\Generated_Source\PSoC4/CyLib.c **** 
 630:.\Generated_Source\PSoC4/CyLib.c ****     /*******************************************************************************
 631:.\Generated_Source\PSoC4/CyLib.c ****     * Function Name: CySysWdtDisable
 632:.\Generated_Source\PSoC4/CyLib.c ****     ********************************************************************************
 633:.\Generated_Source\PSoC4/CyLib.c ****     *
 634:.\Generated_Source\PSoC4/CyLib.c ****     * Summary:
 635:.\Generated_Source\PSoC4/CyLib.c ****     *  Disables the specified WDT counters.  All counters specified in the mask are
 636:.\Generated_Source\PSoC4/CyLib.c ****     *  disabled.
 637:.\Generated_Source\PSoC4/CyLib.c ****     *
 638:.\Generated_Source\PSoC4/CyLib.c ****     * Parameters:
 639:.\Generated_Source\PSoC4/CyLib.c ****     *  uint32 counterMask: Mask of all counters to disable
 640:.\Generated_Source\PSoC4/CyLib.c ****     *    Define                       Counter
 641:.\Generated_Source\PSoC4/CyLib.c ****     *   CY_SYS_WDT_COUNTER0_MASK      0
 642:.\Generated_Source\PSoC4/CyLib.c ****     *   CY_SYS_WDT_COUNTER1_MASK      1
 643:.\Generated_Source\PSoC4/CyLib.c ****     *   CY_SYS_WDT_COUNTER2_MASK      2
 644:.\Generated_Source\PSoC4/CyLib.c ****     *
 645:.\Generated_Source\PSoC4/CyLib.c ****     * Return:
 646:.\Generated_Source\PSoC4/CyLib.c ****     *   None
 647:.\Generated_Source\PSoC4/CyLib.c ****     *
 648:.\Generated_Source\PSoC4/CyLib.c ****     * Side Effects:
 649:.\Generated_Source\PSoC4/CyLib.c ****     *  Enabling or disabling a WDT requires 3 LF Clock cycles to come into effect.
 650:.\Generated_Source\PSoC4/CyLib.c ****     *  This API enables ILO, if it was disabled.
 651:.\Generated_Source\PSoC4/CyLib.c ****     *
 652:.\Generated_Source\PSoC4/CyLib.c ****     *******************************************************************************/
 653:.\Generated_Source\PSoC4/CyLib.c ****     void CySysWdtDisable(uint32 counterMask)
 654:.\Generated_Source\PSoC4/CyLib.c ****     {
 622              		.loc 1 654 0
 623              		.cfi_startproc
 624              	.LVL41:
 655:.\Generated_Source\PSoC4/CyLib.c ****         /* Configuring the WDT involves passing control signals between clock domains,
 656:.\Generated_Source\PSoC4/CyLib.c ****         * which requires the ILO to be enabled.
 657:.\Generated_Source\PSoC4/CyLib.c ****         */
 658:.\Generated_Source\PSoC4/CyLib.c ****         if (0u == (CY_SYS_CLK_ILO_CONFIG_REG & CY_SYS_CLK_ILO_CONFIG_ENABLE))
 625              		.loc 1 658 0
 626 0000 064B     		ldr	r3, .L53
 654:.\Generated_Source\PSoC4/CyLib.c ****     {
 627              		.loc 1 654 0
 628 0002 10B5     		push	{r4, lr}
 629              	.LCFI6:
ARM GAS  C:\Users\CHUCK~1.ERH\AppData\Local\Temp\ccGtqbdp.s 			page 24


 630              		.cfi_def_cfa_offset 8
 631              		.cfi_offset 4, -8
 632              		.cfi_offset 14, -4
 654:.\Generated_Source\PSoC4/CyLib.c ****     {
 633              		.loc 1 654 0
 634 0004 041C     		mov	r4, r0
 635              		.loc 1 658 0
 636 0006 1868     		ldr	r0, [r3]
 637              	.LVL42:
 638 0008 0028     		cmp	r0, #0
 639 000a 01DB     		blt	.L52
 659:.\Generated_Source\PSoC4/CyLib.c ****         {
 660:.\Generated_Source\PSoC4/CyLib.c ****             CySysClkIloStart();
 640              		.loc 1 660 0
 641 000c FFF7FEFF 		bl	CySysClkIloStart
 642              	.LVL43:
 643              	.L52:
 661:.\Generated_Source\PSoC4/CyLib.c ****         }
 662:.\Generated_Source\PSoC4/CyLib.c **** 
 663:.\Generated_Source\PSoC4/CyLib.c ****         CY_SYS_WDT_CONTROL_REG &= ~counterMask;
 644              		.loc 1 663 0
 645 0010 0349     		ldr	r1, .L53+4
 664:.\Generated_Source\PSoC4/CyLib.c ****     }
 646              		.loc 1 664 0
 647              		@ sp needed for prologue
 663:.\Generated_Source\PSoC4/CyLib.c ****         CY_SYS_WDT_CONTROL_REG &= ~counterMask;
 648              		.loc 1 663 0
 649 0012 0A68     		ldr	r2, [r1]
 650 0014 A243     		bic	r2, r4
 651 0016 0A60     		str	r2, [r1]
 652              	.LVL44:
 653              		.loc 1 664 0
 654 0018 10BD     		pop	{r4, pc}
 655              	.L54:
 656 001a C046     		.align	2
 657              	.L53:
 658 001c 04010B40 		.word	1074462980
 659 0020 10020B40 		.word	1074463248
 660              		.cfi_endproc
 661              	.LFE15:
 662              		.size	CySysWdtDisable, .-CySysWdtDisable
 663              		.section	.text.CySysWdtWriteCascade,"ax",%progbits
 664              		.align	1
 665              		.global	CySysWdtWriteCascade
 666              		.code	16
 667              		.thumb_func
 668              		.type	CySysWdtWriteCascade, %function
 669              	CySysWdtWriteCascade:
 670              	.LFB16:
 665:.\Generated_Source\PSoC4/CyLib.c **** 
 666:.\Generated_Source\PSoC4/CyLib.c **** 
 667:.\Generated_Source\PSoC4/CyLib.c ****     /*******************************************************************************
 668:.\Generated_Source\PSoC4/CyLib.c ****     * Function Name: CySysWdtWriteCascade
 669:.\Generated_Source\PSoC4/CyLib.c ****     ********************************************************************************
 670:.\Generated_Source\PSoC4/CyLib.c ****     *
 671:.\Generated_Source\PSoC4/CyLib.c ****     * Summary:
 672:.\Generated_Source\PSoC4/CyLib.c ****     *   Writes the two WDT cascade values based on the combination of mask values
ARM GAS  C:\Users\CHUCK~1.ERH\AppData\Local\Temp\ccGtqbdp.s 			page 25


 673:.\Generated_Source\PSoC4/CyLib.c ****     *   specified.
 674:.\Generated_Source\PSoC4/CyLib.c ****     *
 675:.\Generated_Source\PSoC4/CyLib.c ****     * Parameters:
 676:.\Generated_Source\PSoC4/CyLib.c ****     *   cascadeMask: Mask value used to set or clear the cascade values.
 677:.\Generated_Source\PSoC4/CyLib.c ****     *   Define                     Cascade
 678:.\Generated_Source\PSoC4/CyLib.c ****     *   CY_SYS_WDT_CASCADE_NONE    Neither
 679:.\Generated_Source\PSoC4/CyLib.c ****     *   CY_SYS_WDT_CASCADE_01      Cascade 01
 680:.\Generated_Source\PSoC4/CyLib.c ****     *   CY_SYS_WDT_CASCADE_12      Cascade 12
 681:.\Generated_Source\PSoC4/CyLib.c ****     *
 682:.\Generated_Source\PSoC4/CyLib.c ****     * Return:
 683:.\Generated_Source\PSoC4/CyLib.c ****     *   None
 684:.\Generated_Source\PSoC4/CyLib.c ****     *
 685:.\Generated_Source\PSoC4/CyLib.c ****     * Side effects:
 686:.\Generated_Source\PSoC4/CyLib.c ****     *   If only one cascasde mask is specified, the second cascade is disabled.
 687:.\Generated_Source\PSoC4/CyLib.c ****     *   To set both cascade modes two defines should be ORed:
 688:.\Generated_Source\PSoC4/CyLib.c ****     *    (CY_SYS_WDT_CASCADE_01 | CY_SYS_WDT_CASCADE_12)
 689:.\Generated_Source\PSoC4/CyLib.c ****     *   This API enables ILO, if it was disabled.
 690:.\Generated_Source\PSoC4/CyLib.c ****     *
 691:.\Generated_Source\PSoC4/CyLib.c ****     *******************************************************************************/
 692:.\Generated_Source\PSoC4/CyLib.c ****     void CySysWdtWriteCascade(uint32 cascadeMask)
 693:.\Generated_Source\PSoC4/CyLib.c ****     {
 671              		.loc 1 693 0
 672              		.cfi_startproc
 673              	.LVL45:
 674              	.LBB8:
 675              	.LBB9:
 443:.\Generated_Source\PSoC4/CyLib.c ****         return ((CY_SYS_WDT_CONTROL_REG >> ((CY_SYS_WDT_CNT_SHIFT * counterNum) + CY_SYS_WDT_CNT_ST
 676              		.loc 1 443 0
 677 0000 0C4B     		ldr	r3, .L58
 678              	.LBE9:
 679              	.LBE8:
 680              		.loc 1 693 0
 681 0002 10B5     		push	{r4, lr}
 682              	.LCFI7:
 683              		.cfi_def_cfa_offset 8
 684              		.cfi_offset 4, -8
 685              		.cfi_offset 14, -4
 686              		.loc 1 693 0
 687 0004 041C     		mov	r4, r0
 688              	.LBB12:
 689              	.LBB10:
 443:.\Generated_Source\PSoC4/CyLib.c ****         return ((CY_SYS_WDT_CONTROL_REG >> ((CY_SYS_WDT_CNT_SHIFT * counterNum) + CY_SYS_WDT_CNT_ST
 690              		.loc 1 443 0
 691 0006 1868     		ldr	r0, [r3]
 692              	.LVL46:
 693              	.LBE10:
 694              	.LBE12:
 695              	.LBB13:
 696              	.LBB14:
 697 0008 1968     		ldr	r1, [r3]
 698              	.LVL47:
 699              	.LBE14:
 700              	.LBE13:
 701              	.LBB16:
 702              	.LBB17:
 703 000a 1A68     		ldr	r2, [r3]
 704              	.LVL48:
ARM GAS  C:\Users\CHUCK~1.ERH\AppData\Local\Temp\ccGtqbdp.s 			page 26


 705              	.LBE17:
 706              	.LBE16:
 707              	.LBB19:
 708              	.LBB15:
 709 000c 490A     		lsr	r1, r1, #9
 710              	.LVL49:
 711              	.LBE15:
 712              	.LBE19:
 713              	.LBB20:
 714              	.LBB11:
 715 000e 4308     		lsr	r3, r0, #1
 716 0010 0B43     		orr	r3, r1
 717              	.LBE11:
 718              	.LBE20:
 719              	.LBB21:
 720              	.LBB18:
 721 0012 500C     		lsr	r0, r2, #17
 722 0014 0343     		orr	r3, r0
 723              	.LBE18:
 724              	.LBE21:
 694:.\Generated_Source\PSoC4/CyLib.c ****         uint32 configRegValue;
 695:.\Generated_Source\PSoC4/CyLib.c ****         uint32 countersEnableStatus;
 696:.\Generated_Source\PSoC4/CyLib.c **** 
 697:.\Generated_Source\PSoC4/CyLib.c ****         countersEnableStatus = CySysWdtReadEnabledStatus(CY_SYS_WDT_COUNTER0) |
 698:.\Generated_Source\PSoC4/CyLib.c ****                             CySysWdtReadEnabledStatus(CY_SYS_WDT_COUNTER1) |
 699:.\Generated_Source\PSoC4/CyLib.c ****                             CySysWdtReadEnabledStatus(CY_SYS_WDT_COUNTER2);
 700:.\Generated_Source\PSoC4/CyLib.c **** 
 701:.\Generated_Source\PSoC4/CyLib.c ****         if (0u == countersEnableStatus)
 725              		.loc 1 701 0
 726 0016 DA07     		lsl	r2, r3, #31
 727 0018 0BD4     		bmi	.L55
 702:.\Generated_Source\PSoC4/CyLib.c ****         {
 703:.\Generated_Source\PSoC4/CyLib.c ****             /* Configuring the WDT involves passing control signals between clock domains,
 704:.\Generated_Source\PSoC4/CyLib.c ****             * which requires the ILO to be enabled.
 705:.\Generated_Source\PSoC4/CyLib.c ****             */
 706:.\Generated_Source\PSoC4/CyLib.c ****             if (0u == (CY_SYS_CLK_ILO_CONFIG_REG & CY_SYS_CLK_ILO_CONFIG_ENABLE))
 728              		.loc 1 706 0
 729 001a 074A     		ldr	r2, .L58+4
 730 001c 1168     		ldr	r1, [r2]
 731 001e 0029     		cmp	r1, #0
 732 0020 01DB     		blt	.L57
 707:.\Generated_Source\PSoC4/CyLib.c ****             {
 708:.\Generated_Source\PSoC4/CyLib.c ****                 CySysClkIloStart();
 733              		.loc 1 708 0
 734 0022 FFF7FEFF 		bl	CySysClkIloStart
 735              	.LVL50:
 736              	.L57:
 709:.\Generated_Source\PSoC4/CyLib.c ****             }
 710:.\Generated_Source\PSoC4/CyLib.c **** 
 711:.\Generated_Source\PSoC4/CyLib.c ****             configRegValue = CY_SYS_WDT_CONFIG_REG;
 737              		.loc 1 711 0
 738 0026 054B     		ldr	r3, .L58+8
 712:.\Generated_Source\PSoC4/CyLib.c ****             configRegValue &= ((uint32)(~(CY_SYS_WDT_CASCADE_01|CY_SYS_WDT_CASCADE_12)));
 739              		.loc 1 712 0
 740 0028 054A     		ldr	r2, .L58+12
 711:.\Generated_Source\PSoC4/CyLib.c ****             configRegValue = CY_SYS_WDT_CONFIG_REG;
 741              		.loc 1 711 0
ARM GAS  C:\Users\CHUCK~1.ERH\AppData\Local\Temp\ccGtqbdp.s 			page 27


 742 002a 1868     		ldr	r0, [r3]
 743              	.LVL51:
 744              		.loc 1 712 0
 745 002c 0240     		and	r2, r0
 746              	.LVL52:
 713:.\Generated_Source\PSoC4/CyLib.c ****             configRegValue |= cascadeMask;
 747              		.loc 1 713 0
 748 002e 1443     		orr	r4, r2
 749              	.LVL53:
 714:.\Generated_Source\PSoC4/CyLib.c ****             CY_SYS_WDT_CONFIG_REG = configRegValue;
 750              		.loc 1 714 0
 751 0030 1C60     		str	r4, [r3]
 752              	.LVL54:
 753              	.L55:
 715:.\Generated_Source\PSoC4/CyLib.c ****         }
 716:.\Generated_Source\PSoC4/CyLib.c ****     }
 754              		.loc 1 716 0
 755              		@ sp needed for prologue
 756 0032 10BD     		pop	{r4, pc}
 757              	.L59:
 758              		.align	2
 759              	.L58:
 760 0034 10020B40 		.word	1074463248
 761 0038 04010B40 		.word	1074462980
 762 003c 0C020B40 		.word	1074463244
 763 0040 F7F7FFFF 		.word	-2057
 764              		.cfi_endproc
 765              	.LFE16:
 766              		.size	CySysWdtWriteCascade, .-CySysWdtWriteCascade
 767              		.section	.text.CySysWdtReadCascade,"ax",%progbits
 768              		.align	1
 769              		.global	CySysWdtReadCascade
 770              		.code	16
 771              		.thumb_func
 772              		.type	CySysWdtReadCascade, %function
 773              	CySysWdtReadCascade:
 774              	.LFB17:
 717:.\Generated_Source\PSoC4/CyLib.c **** 
 718:.\Generated_Source\PSoC4/CyLib.c **** 
 719:.\Generated_Source\PSoC4/CyLib.c ****     /*******************************************************************************
 720:.\Generated_Source\PSoC4/CyLib.c ****     * Function Name: CySysWdtReadCascade
 721:.\Generated_Source\PSoC4/CyLib.c ****     ********************************************************************************
 722:.\Generated_Source\PSoC4/CyLib.c ****     *
 723:.\Generated_Source\PSoC4/CyLib.c ****     * Summary:
 724:.\Generated_Source\PSoC4/CyLib.c ****     *   Reads the two WDT cascade values returning a mask of the bits set.
 725:.\Generated_Source\PSoC4/CyLib.c ****     *
 726:.\Generated_Source\PSoC4/CyLib.c ****     * Parameters:
 727:.\Generated_Source\PSoC4/CyLib.c ****     *   None
 728:.\Generated_Source\PSoC4/CyLib.c ****     *
 729:.\Generated_Source\PSoC4/CyLib.c ****     * Return:
 730:.\Generated_Source\PSoC4/CyLib.c ****     *   Mask of cascade values set.
 731:.\Generated_Source\PSoC4/CyLib.c ****     *   Define                     Cascade
 732:.\Generated_Source\PSoC4/CyLib.c ****     *   CY_SYS_WDT_CASCADE_NONE    Neither
 733:.\Generated_Source\PSoC4/CyLib.c ****     *   CY_SYS_WDT_CASCADE_01      Cascade 01
 734:.\Generated_Source\PSoC4/CyLib.c ****     *   CY_SYS_WDT_CASCADE_12      Cascade 12
 735:.\Generated_Source\PSoC4/CyLib.c ****     *
 736:.\Generated_Source\PSoC4/CyLib.c ****     *******************************************************************************/
ARM GAS  C:\Users\CHUCK~1.ERH\AppData\Local\Temp\ccGtqbdp.s 			page 28


 737:.\Generated_Source\PSoC4/CyLib.c ****     uint32 CySysWdtReadCascade(void)
 738:.\Generated_Source\PSoC4/CyLib.c ****     {
 775              		.loc 1 738 0
 776              		.cfi_startproc
 739:.\Generated_Source\PSoC4/CyLib.c ****         return (CY_SYS_WDT_CONFIG_REG & (CY_SYS_WDT_CASCADE_01 | CY_SYS_WDT_CASCADE_12));
 777              		.loc 1 739 0
 778 0000 024B     		ldr	r3, .L61
 779 0002 0349     		ldr	r1, .L61+4
 780 0004 1868     		ldr	r0, [r3]
 740:.\Generated_Source\PSoC4/CyLib.c ****     }
 781              		.loc 1 740 0
 782              		@ sp needed for prologue
 739:.\Generated_Source\PSoC4/CyLib.c ****         return (CY_SYS_WDT_CONFIG_REG & (CY_SYS_WDT_CASCADE_01 | CY_SYS_WDT_CASCADE_12));
 783              		.loc 1 739 0
 784 0006 0840     		and	r0, r1
 785              		.loc 1 740 0
 786 0008 7047     		bx	lr
 787              	.L62:
 788 000a C046     		.align	2
 789              	.L61:
 790 000c 0C020B40 		.word	1074463244
 791 0010 08080000 		.word	2056
 792              		.cfi_endproc
 793              	.LFE17:
 794              		.size	CySysWdtReadCascade, .-CySysWdtReadCascade
 795              		.section	.text.CySysWdtWriteToggleBit,"ax",%progbits
 796              		.align	1
 797              		.global	CySysWdtWriteToggleBit
 798              		.code	16
 799              		.thumb_func
 800              		.type	CySysWdtWriteToggleBit, %function
 801              	CySysWdtWriteToggleBit:
 802              	.LFB19:
 741:.\Generated_Source\PSoC4/CyLib.c **** 
 742:.\Generated_Source\PSoC4/CyLib.c **** 
 743:.\Generated_Source\PSoC4/CyLib.c ****     /*******************************************************************************
 744:.\Generated_Source\PSoC4/CyLib.c ****     * Function Name: CySysWdtWriteMatch
 745:.\Generated_Source\PSoC4/CyLib.c ****     ********************************************************************************
 746:.\Generated_Source\PSoC4/CyLib.c ****     *
 747:.\Generated_Source\PSoC4/CyLib.c ****     * Summary:
 748:.\Generated_Source\PSoC4/CyLib.c ****     *  Configures the WDT counter match comparison value.
 749:.\Generated_Source\PSoC4/CyLib.c ****     *
 750:.\Generated_Source\PSoC4/CyLib.c ****     * Parameters:
 751:.\Generated_Source\PSoC4/CyLib.c ****     *  counterNum:
 752:.\Generated_Source\PSoC4/CyLib.c ****     *   Valid range [0-1]. Number of the WDT counter. Match values are not
 753:.\Generated_Source\PSoC4/CyLib.c ****     *   supported by counter 2.
 754:.\Generated_Source\PSoC4/CyLib.c ****     *
 755:.\Generated_Source\PSoC4/CyLib.c ****     *  match:
 756:.\Generated_Source\PSoC4/CyLib.c ****     *   Valid range [0-65535]. Value to be used to match against the counter.
 757:.\Generated_Source\PSoC4/CyLib.c ****     *
 758:.\Generated_Source\PSoC4/CyLib.c ****     * Return:
 759:.\Generated_Source\PSoC4/CyLib.c ****     *   None
 760:.\Generated_Source\PSoC4/CyLib.c ****     *
 761:.\Generated_Source\PSoC4/CyLib.c ****     * Side effects:
 762:.\Generated_Source\PSoC4/CyLib.c ****     *   This API enables ILO, if it was disabled.
 763:.\Generated_Source\PSoC4/CyLib.c ****     *
 764:.\Generated_Source\PSoC4/CyLib.c ****     *******************************************************************************/
ARM GAS  C:\Users\CHUCK~1.ERH\AppData\Local\Temp\ccGtqbdp.s 			page 29


 765:.\Generated_Source\PSoC4/CyLib.c ****     void CySysWdtWriteMatch(uint32 counterNum, uint32 match)
 766:.\Generated_Source\PSoC4/CyLib.c ****     {
 767:.\Generated_Source\PSoC4/CyLib.c ****         uint32 regValue;
 768:.\Generated_Source\PSoC4/CyLib.c **** 
 769:.\Generated_Source\PSoC4/CyLib.c ****         CYASSERT((counterNum == CY_SYS_WDT_COUNTER0) ||
 770:.\Generated_Source\PSoC4/CyLib.c ****                                              (counterNum == CY_SYS_WDT_COUNTER1));
 771:.\Generated_Source\PSoC4/CyLib.c **** 
 772:.\Generated_Source\PSoC4/CyLib.c ****         /* Configuring the WDT involves passing control signals between clock domains,
 773:.\Generated_Source\PSoC4/CyLib.c ****         * which requires the ILO to be enabled.
 774:.\Generated_Source\PSoC4/CyLib.c ****         */
 775:.\Generated_Source\PSoC4/CyLib.c ****         if (0u == (CY_SYS_CLK_ILO_CONFIG_REG & CY_SYS_CLK_ILO_CONFIG_ENABLE))
 776:.\Generated_Source\PSoC4/CyLib.c ****         {
 777:.\Generated_Source\PSoC4/CyLib.c ****             CySysClkIloStart();
 778:.\Generated_Source\PSoC4/CyLib.c ****         }
 779:.\Generated_Source\PSoC4/CyLib.c **** 
 780:.\Generated_Source\PSoC4/CyLib.c ****         /* Delay ~ 3LFCK in order to male sure previos changes are applied */
 781:.\Generated_Source\PSoC4/CyLib.c ****         CyDelayUs(CY_SYS_WDT_3LFCLK_DELAY_US);
 782:.\Generated_Source\PSoC4/CyLib.c **** 
 783:.\Generated_Source\PSoC4/CyLib.c ****         regValue = CY_SYS_WDT_MATCH_REG;
 784:.\Generated_Source\PSoC4/CyLib.c ****         regValue &= (uint32)~((uint32)(CY_SYS_WDT_LOWER_16BITS_MASK << (counterNum * CY_SYS_WDT_CNT
 785:.\Generated_Source\PSoC4/CyLib.c ****         CY_SYS_WDT_MATCH_REG = (regValue | (match << (counterNum * CY_SYS_WDT_CNT_MATCH_SHIFT)));
 786:.\Generated_Source\PSoC4/CyLib.c ****     }
 787:.\Generated_Source\PSoC4/CyLib.c **** 
 788:.\Generated_Source\PSoC4/CyLib.c **** 
 789:.\Generated_Source\PSoC4/CyLib.c ****     /*******************************************************************************
 790:.\Generated_Source\PSoC4/CyLib.c ****     * Function Name: CySysWdtWriteToggleBit
 791:.\Generated_Source\PSoC4/CyLib.c ****     ********************************************************************************
 792:.\Generated_Source\PSoC4/CyLib.c ****     *
 793:.\Generated_Source\PSoC4/CyLib.c ****     * Summary:
 794:.\Generated_Source\PSoC4/CyLib.c ****     *  Configures which bit in the WDT counter 2 to monitor for a toggle.  When that
 795:.\Generated_Source\PSoC4/CyLib.c ****     *  bit toggles an interrupt is generated if the mode for counter 2 has
 796:.\Generated_Source\PSoC4/CyLib.c ****     *  interrupts enabled.
 797:.\Generated_Source\PSoC4/CyLib.c ****     *
 798:.\Generated_Source\PSoC4/CyLib.c ****     * Parameters:
 799:.\Generated_Source\PSoC4/CyLib.c ****     *  bit:
 800:.\Generated_Source\PSoC4/CyLib.c ****     *   Valid range [0-31].  Counter 2 bit to monitor for a toggle.
 801:.\Generated_Source\PSoC4/CyLib.c ****     *
 802:.\Generated_Source\PSoC4/CyLib.c ****     * Return:
 803:.\Generated_Source\PSoC4/CyLib.c ****     *   None
 804:.\Generated_Source\PSoC4/CyLib.c ****     *
 805:.\Generated_Source\PSoC4/CyLib.c ****     * Side effects:
 806:.\Generated_Source\PSoC4/CyLib.c ****     *   WDT counter 2 should be disabled. Othetwise function
 807:.\Generated_Source\PSoC4/CyLib.c ****     *   call will have no effect.
 808:.\Generated_Source\PSoC4/CyLib.c ****     *   This API enables ILO, if it was disabled.
 809:.\Generated_Source\PSoC4/CyLib.c ****     *
 810:.\Generated_Source\PSoC4/CyLib.c ****     *******************************************************************************/
 811:.\Generated_Source\PSoC4/CyLib.c ****     void CySysWdtWriteToggleBit(uint32 bits)
 812:.\Generated_Source\PSoC4/CyLib.c ****     {
 803              		.loc 1 812 0
 804              		.cfi_startproc
 805              	.LVL55:
 806              	.LBB24:
 807              	.LBB25:
 443:.\Generated_Source\PSoC4/CyLib.c ****         return ((CY_SYS_WDT_CONTROL_REG >> ((CY_SYS_WDT_CNT_SHIFT * counterNum) + CY_SYS_WDT_CNT_ST
 808              		.loc 1 443 0
 809 0000 0A4B     		ldr	r3, .L66
 810              	.LBE25:
ARM GAS  C:\Users\CHUCK~1.ERH\AppData\Local\Temp\ccGtqbdp.s 			page 30


 811              	.LBE24:
 812              		.loc 1 812 0
 813 0002 10B5     		push	{r4, lr}
 814              	.LCFI8:
 815              		.cfi_def_cfa_offset 8
 816              		.cfi_offset 4, -8
 817              		.cfi_offset 14, -4
 818              		.loc 1 812 0
 819 0004 041C     		mov	r4, r0
 820              	.LBB27:
 821              	.LBB26:
 443:.\Generated_Source\PSoC4/CyLib.c ****         return ((CY_SYS_WDT_CONTROL_REG >> ((CY_SYS_WDT_CNT_SHIFT * counterNum) + CY_SYS_WDT_CNT_ST
 822              		.loc 1 443 0
 823 0006 1868     		ldr	r0, [r3]
 824              	.LVL56:
 825              	.LBE26:
 826              	.LBE27:
 813:.\Generated_Source\PSoC4/CyLib.c ****         uint32 configRegValue;
 814:.\Generated_Source\PSoC4/CyLib.c **** 
 815:.\Generated_Source\PSoC4/CyLib.c ****         if (0u == CySysWdtReadEnabledStatus(CY_SYS_WDT_COUNTER2))
 827              		.loc 1 815 0
 828 0008 8203     		lsl	r2, r0, #14
 829 000a 0ED4     		bmi	.L63
 816:.\Generated_Source\PSoC4/CyLib.c ****         {
 817:.\Generated_Source\PSoC4/CyLib.c ****             /* Configuring the WDT involves passing control signals between clock domains,
 818:.\Generated_Source\PSoC4/CyLib.c ****             * which requires the ILO to be enabled.
 819:.\Generated_Source\PSoC4/CyLib.c ****             */
 820:.\Generated_Source\PSoC4/CyLib.c ****             if (0u == (CY_SYS_CLK_ILO_CONFIG_REG & CY_SYS_CLK_ILO_CONFIG_ENABLE))
 830              		.loc 1 820 0
 831 000c 0849     		ldr	r1, .L66+4
 832 000e 0A68     		ldr	r2, [r1]
 833 0010 002A     		cmp	r2, #0
 834 0012 01DB     		blt	.L65
 821:.\Generated_Source\PSoC4/CyLib.c ****             {
 822:.\Generated_Source\PSoC4/CyLib.c ****                 CySysClkIloStart();
 835              		.loc 1 822 0
 836 0014 FFF7FEFF 		bl	CySysClkIloStart
 837              	.LVL57:
 838              	.L65:
 823:.\Generated_Source\PSoC4/CyLib.c ****             }
 824:.\Generated_Source\PSoC4/CyLib.c **** 
 825:.\Generated_Source\PSoC4/CyLib.c ****             configRegValue = CY_SYS_WDT_CONFIG_REG;
 839              		.loc 1 825 0
 840 0018 064B     		ldr	r3, .L66+8
 826:.\Generated_Source\PSoC4/CyLib.c ****             configRegValue &= (uint32)(~((uint32)(CY_SYS_WDT_CONFIG_BITS2_MASK << CY_SYS_WDT_CONFIG
 841              		.loc 1 826 0
 842 001a 074A     		ldr	r2, .L66+12
 825:.\Generated_Source\PSoC4/CyLib.c ****             configRegValue = CY_SYS_WDT_CONFIG_REG;
 843              		.loc 1 825 0
 844 001c 1868     		ldr	r0, [r3]
 845              	.LVL58:
 827:.\Generated_Source\PSoC4/CyLib.c ****             configRegValue |= ((bits & CY_SYS_WDT_CONFIG_BITS2_MASK) << CY_SYS_WDT_CONFIG_BITS2_POS
 846              		.loc 1 827 0
 847 001e 1F21     		mov	r1, #31
 848 0020 0C40     		and	r4, r1
 849              	.LVL59:
 826:.\Generated_Source\PSoC4/CyLib.c ****             configRegValue &= (uint32)(~((uint32)(CY_SYS_WDT_CONFIG_BITS2_MASK << CY_SYS_WDT_CONFIG
ARM GAS  C:\Users\CHUCK~1.ERH\AppData\Local\Temp\ccGtqbdp.s 			page 31


 850              		.loc 1 826 0
 851 0022 0240     		and	r2, r0
 852              	.LVL60:
 853              		.loc 1 827 0
 854 0024 2406     		lsl	r4, r4, #24
 855 0026 1443     		orr	r4, r2
 856              	.LVL61:
 828:.\Generated_Source\PSoC4/CyLib.c ****             CY_SYS_WDT_CONFIG_REG = configRegValue;
 857              		.loc 1 828 0
 858 0028 1C60     		str	r4, [r3]
 859              	.LVL62:
 860              	.L63:
 829:.\Generated_Source\PSoC4/CyLib.c ****         }
 830:.\Generated_Source\PSoC4/CyLib.c ****     }
 861              		.loc 1 830 0
 862              		@ sp needed for prologue
 863 002a 10BD     		pop	{r4, pc}
 864              	.L67:
 865              		.align	2
 866              	.L66:
 867 002c 10020B40 		.word	1074463248
 868 0030 04010B40 		.word	1074462980
 869 0034 0C020B40 		.word	1074463244
 870 0038 FFFFFFE0 		.word	-520093697
 871              		.cfi_endproc
 872              	.LFE19:
 873              		.size	CySysWdtWriteToggleBit, .-CySysWdtWriteToggleBit
 874              		.section	.text.CySysWdtReadToggleBit,"ax",%progbits
 875              		.align	1
 876              		.global	CySysWdtReadToggleBit
 877              		.code	16
 878              		.thumb_func
 879              		.type	CySysWdtReadToggleBit, %function
 880              	CySysWdtReadToggleBit:
 881              	.LFB20:
 831:.\Generated_Source\PSoC4/CyLib.c **** 
 832:.\Generated_Source\PSoC4/CyLib.c **** 
 833:.\Generated_Source\PSoC4/CyLib.c ****     /*******************************************************************************
 834:.\Generated_Source\PSoC4/CyLib.c ****     * Function Name: CySysWdtReadToggleBit
 835:.\Generated_Source\PSoC4/CyLib.c ****     ********************************************************************************
 836:.\Generated_Source\PSoC4/CyLib.c ****     *
 837:.\Generated_Source\PSoC4/CyLib.c ****     * Summary:
 838:.\Generated_Source\PSoC4/CyLib.c ****     *  Reads which bit in the WDT counter 2 is monitored for a toggle.
 839:.\Generated_Source\PSoC4/CyLib.c ****     *
 840:.\Generated_Source\PSoC4/CyLib.c ****     * Parameters:
 841:.\Generated_Source\PSoC4/CyLib.c ****     *  None
 842:.\Generated_Source\PSoC4/CyLib.c ****     *
 843:.\Generated_Source\PSoC4/CyLib.c ****     * Return:
 844:.\Generated_Source\PSoC4/CyLib.c ****     *  Bit that is monitored (range of 0 to 31)
 845:.\Generated_Source\PSoC4/CyLib.c ****     *
 846:.\Generated_Source\PSoC4/CyLib.c ****     *******************************************************************************/
 847:.\Generated_Source\PSoC4/CyLib.c ****     uint32 CySysWdtReadToggleBit(void)
 848:.\Generated_Source\PSoC4/CyLib.c ****     {
 882              		.loc 1 848 0
 883              		.cfi_startproc
 849:.\Generated_Source\PSoC4/CyLib.c ****         return ((CY_SYS_WDT_CONFIG_REG >> CY_SYS_WDT_CONFIG_BITS2_POS) & CY_SYS_WDT_CONFIG_BITS2_MA
 884              		.loc 1 849 0
ARM GAS  C:\Users\CHUCK~1.ERH\AppData\Local\Temp\ccGtqbdp.s 			page 32


 885 0000 024B     		ldr	r3, .L69
 850:.\Generated_Source\PSoC4/CyLib.c ****     }
 886              		.loc 1 850 0
 887              		@ sp needed for prologue
 849:.\Generated_Source\PSoC4/CyLib.c ****         return ((CY_SYS_WDT_CONFIG_REG >> CY_SYS_WDT_CONFIG_BITS2_POS) & CY_SYS_WDT_CONFIG_BITS2_MA
 888              		.loc 1 849 0
 889 0002 1868     		ldr	r0, [r3]
 890 0004 C100     		lsl	r1, r0, #3
 891 0006 C80E     		lsr	r0, r1, #27
 892              		.loc 1 850 0
 893 0008 7047     		bx	lr
 894              	.L70:
 895 000a C046     		.align	2
 896              	.L69:
 897 000c 0C020B40 		.word	1074463244
 898              		.cfi_endproc
 899              	.LFE20:
 900              		.size	CySysWdtReadToggleBit, .-CySysWdtReadToggleBit
 901              		.section	.text.CySysWdtReadMatch,"ax",%progbits
 902              		.align	1
 903              		.global	CySysWdtReadMatch
 904              		.code	16
 905              		.thumb_func
 906              		.type	CySysWdtReadMatch, %function
 907              	CySysWdtReadMatch:
 908              	.LFB21:
 851:.\Generated_Source\PSoC4/CyLib.c **** 
 852:.\Generated_Source\PSoC4/CyLib.c **** 
 853:.\Generated_Source\PSoC4/CyLib.c ****     /*******************************************************************************
 854:.\Generated_Source\PSoC4/CyLib.c ****     * Function Name: CySysWdtReadMatch
 855:.\Generated_Source\PSoC4/CyLib.c ****     ********************************************************************************
 856:.\Generated_Source\PSoC4/CyLib.c ****     *
 857:.\Generated_Source\PSoC4/CyLib.c ****     * Summary:
 858:.\Generated_Source\PSoC4/CyLib.c ****     *  Reads the WDT counter match comparison value.
 859:.\Generated_Source\PSoC4/CyLib.c ****     *
 860:.\Generated_Source\PSoC4/CyLib.c ****     * Parameters:
 861:.\Generated_Source\PSoC4/CyLib.c ****     *  counterNum: Valid range [0-1].  Number of the WDT counter.  Match values
 862:.\Generated_Source\PSoC4/CyLib.c ****     *               are not supported by counter 2.
 863:.\Generated_Source\PSoC4/CyLib.c ****     *
 864:.\Generated_Source\PSoC4/CyLib.c ****     * Return:
 865:.\Generated_Source\PSoC4/CyLib.c ****     *  Counter match value
 866:.\Generated_Source\PSoC4/CyLib.c ****     *
 867:.\Generated_Source\PSoC4/CyLib.c ****     *******************************************************************************/
 868:.\Generated_Source\PSoC4/CyLib.c ****     uint32 CySysWdtReadMatch(uint32 counterNum)
 869:.\Generated_Source\PSoC4/CyLib.c ****     {
 909              		.loc 1 869 0
 910              		.cfi_startproc
 911              	.LVL63:
 870:.\Generated_Source\PSoC4/CyLib.c ****         CYASSERT((counterNum == CY_SYS_WDT_COUNTER0) ||
 871:.\Generated_Source\PSoC4/CyLib.c ****                                              (counterNum == CY_SYS_WDT_COUNTER1));
 872:.\Generated_Source\PSoC4/CyLib.c ****         return ((uint32)(CY_SYS_WDT_MATCH_REG >> (counterNum * CY_SYS_WDT_CNT_MATCH_SHIFT)) & CY_SY
 912              		.loc 1 872 0
 913 0000 024B     		ldr	r3, .L72
 914 0002 0001     		lsl	r0, r0, #4
 915              	.LVL64:
 916 0004 1968     		ldr	r1, [r3]
 873:.\Generated_Source\PSoC4/CyLib.c ****     }
ARM GAS  C:\Users\CHUCK~1.ERH\AppData\Local\Temp\ccGtqbdp.s 			page 33


 917              		.loc 1 873 0
 918              		@ sp needed for prologue
 872:.\Generated_Source\PSoC4/CyLib.c ****         return ((uint32)(CY_SYS_WDT_MATCH_REG >> (counterNum * CY_SYS_WDT_CNT_MATCH_SHIFT)) & CY_SY
 919              		.loc 1 872 0
 920 0006 C140     		lsr	r1, r1, r0
 921 0008 88B2     		uxth	r0, r1
 922              		.loc 1 873 0
 923 000a 7047     		bx	lr
 924              	.L73:
 925              		.align	2
 926              	.L72:
 927 000c 08020B40 		.word	1074463240
 928              		.cfi_endproc
 929              	.LFE21:
 930              		.size	CySysWdtReadMatch, .-CySysWdtReadMatch
 931              		.section	.text.CySysWdtReadCount,"ax",%progbits
 932              		.align	1
 933              		.global	CySysWdtReadCount
 934              		.code	16
 935              		.thumb_func
 936              		.type	CySysWdtReadCount, %function
 937              	CySysWdtReadCount:
 938              	.LFB22:
 874:.\Generated_Source\PSoC4/CyLib.c **** 
 875:.\Generated_Source\PSoC4/CyLib.c **** 
 876:.\Generated_Source\PSoC4/CyLib.c ****     /*******************************************************************************
 877:.\Generated_Source\PSoC4/CyLib.c ****     * Function Name: CySysWdtReadCount
 878:.\Generated_Source\PSoC4/CyLib.c ****     ********************************************************************************
 879:.\Generated_Source\PSoC4/CyLib.c ****     *
 880:.\Generated_Source\PSoC4/CyLib.c ****     * Summary:
 881:.\Generated_Source\PSoC4/CyLib.c ****     *  Reads the current WDT counter value.
 882:.\Generated_Source\PSoC4/CyLib.c ****     *
 883:.\Generated_Source\PSoC4/CyLib.c ****     * Parameters:
 884:.\Generated_Source\PSoC4/CyLib.c ****     *  counterNum: Valid range [0-2].  Number of the WDT counter.
 885:.\Generated_Source\PSoC4/CyLib.c ****     *
 886:.\Generated_Source\PSoC4/CyLib.c ****     * Return:
 887:.\Generated_Source\PSoC4/CyLib.c ****     *  Live counter value.  Counter 0 and 1 are 16 bit counters and counter
 888:.\Generated_Source\PSoC4/CyLib.c ****     *  2 is a 32 bit counter.
 889:.\Generated_Source\PSoC4/CyLib.c ****     *
 890:.\Generated_Source\PSoC4/CyLib.c ****     *******************************************************************************/
 891:.\Generated_Source\PSoC4/CyLib.c ****     uint32 CySysWdtReadCount(uint32 counterNum)
 892:.\Generated_Source\PSoC4/CyLib.c ****     {
 939              		.loc 1 892 0
 940              		.cfi_startproc
 941              	.LVL65:
 942 0000 00B5     		push	{lr}
 943              	.LCFI9:
 944              		.cfi_def_cfa_offset 4
 945              		.cfi_offset 14, -4
 893:.\Generated_Source\PSoC4/CyLib.c ****         uint32 regValue = 0u;
 894:.\Generated_Source\PSoC4/CyLib.c **** 
 895:.\Generated_Source\PSoC4/CyLib.c ****         switch(counterNum)
 946              		.loc 1 895 0
 947 0002 0128     		cmp	r0, #1
 948 0004 0AD0     		beq	.L77
 949 0006 0028     		cmp	r0, #0
 950 0008 04D0     		beq	.L76
ARM GAS  C:\Users\CHUCK~1.ERH\AppData\Local\Temp\ccGtqbdp.s 			page 34


 951 000a 0228     		cmp	r0, #2
 952 000c 0AD1     		bne	.L80
 896:.\Generated_Source\PSoC4/CyLib.c ****         {
 897:.\Generated_Source\PSoC4/CyLib.c ****             /* WDT Counter 0 */
 898:.\Generated_Source\PSoC4/CyLib.c ****             case 0u:
 899:.\Generated_Source\PSoC4/CyLib.c ****                 regValue = CY_SYS_WDT_CTRLOW_REG & CY_SYS_WDT_LOWER_16BITS_MASK;
 900:.\Generated_Source\PSoC4/CyLib.c ****             break;
 901:.\Generated_Source\PSoC4/CyLib.c **** 
 902:.\Generated_Source\PSoC4/CyLib.c ****             /* WDT Counter 1 */
 903:.\Generated_Source\PSoC4/CyLib.c ****             case 1u:
 904:.\Generated_Source\PSoC4/CyLib.c ****                 regValue = (CY_SYS_WDT_CTRLOW_REG >> CY_SYS_WDT_CNT_MATCH_SHIFT) & CY_SYS_WDT_LOWER
 905:.\Generated_Source\PSoC4/CyLib.c ****             break;
 906:.\Generated_Source\PSoC4/CyLib.c **** 
 907:.\Generated_Source\PSoC4/CyLib.c ****             /* WDT Counter 2 */
 908:.\Generated_Source\PSoC4/CyLib.c ****             case 2u:
 909:.\Generated_Source\PSoC4/CyLib.c ****                 regValue = CY_SYS_WDT_CTRHIGH_REG;
 953              		.loc 1 909 0
 954 000e 064B     		ldr	r3, .L81
 955 0010 1868     		ldr	r0, [r3]
 956              	.LVL66:
 910:.\Generated_Source\PSoC4/CyLib.c ****             break;
 957              		.loc 1 910 0
 958 0012 08E0     		b	.L75
 959              	.LVL67:
 960              	.L76:
 899:.\Generated_Source\PSoC4/CyLib.c ****                 regValue = CY_SYS_WDT_CTRLOW_REG & CY_SYS_WDT_LOWER_16BITS_MASK;
 961              		.loc 1 899 0
 962 0014 0548     		ldr	r0, .L81+4
 963              	.LVL68:
 964 0016 0168     		ldr	r1, [r0]
 965 0018 88B2     		uxth	r0, r1
 966              	.LVL69:
 900:.\Generated_Source\PSoC4/CyLib.c ****             break;
 967              		.loc 1 900 0
 968 001a 04E0     		b	.L75
 969              	.LVL70:
 970              	.L77:
 904:.\Generated_Source\PSoC4/CyLib.c ****                 regValue = (CY_SYS_WDT_CTRLOW_REG >> CY_SYS_WDT_CNT_MATCH_SHIFT) & CY_SYS_WDT_LOWER
 971              		.loc 1 904 0
 972 001c 034A     		ldr	r2, .L81+4
 973 001e 1368     		ldr	r3, [r2]
 974 0020 180C     		lsr	r0, r3, #16
 975              	.LVL71:
 905:.\Generated_Source\PSoC4/CyLib.c ****             break;
 976              		.loc 1 905 0
 977 0022 00E0     		b	.L75
 978              	.LVL72:
 979              	.L80:
 893:.\Generated_Source\PSoC4/CyLib.c ****         uint32 regValue = 0u;
 980              		.loc 1 893 0
 981 0024 0020     		mov	r0, #0
 982              	.LVL73:
 983              	.L75:
 911:.\Generated_Source\PSoC4/CyLib.c **** 
 912:.\Generated_Source\PSoC4/CyLib.c ****             default:
 913:.\Generated_Source\PSoC4/CyLib.c ****                 CYASSERT(0u != 0u);
 914:.\Generated_Source\PSoC4/CyLib.c ****             break;
ARM GAS  C:\Users\CHUCK~1.ERH\AppData\Local\Temp\ccGtqbdp.s 			page 35


 915:.\Generated_Source\PSoC4/CyLib.c ****         }
 916:.\Generated_Source\PSoC4/CyLib.c **** 
 917:.\Generated_Source\PSoC4/CyLib.c ****         return (regValue);
 918:.\Generated_Source\PSoC4/CyLib.c ****     }
 984              		.loc 1 918 0
 985              		@ sp needed for prologue
 986 0026 00BD     		pop	{pc}
 987              	.L82:
 988              		.align	2
 989              	.L81:
 990 0028 04020B40 		.word	1074463236
 991 002c 00020B40 		.word	1074463232
 992              		.cfi_endproc
 993              	.LFE22:
 994              		.size	CySysWdtReadCount, .-CySysWdtReadCount
 995              		.section	.text.CySysWdtGetInterruptSource,"ax",%progbits
 996              		.align	1
 997              		.global	CySysWdtGetInterruptSource
 998              		.code	16
 999              		.thumb_func
 1000              		.type	CySysWdtGetInterruptSource, %function
 1001              	CySysWdtGetInterruptSource:
 1002              	.LFB23:
 919:.\Generated_Source\PSoC4/CyLib.c **** 
 920:.\Generated_Source\PSoC4/CyLib.c **** 
 921:.\Generated_Source\PSoC4/CyLib.c ****     /*******************************************************************************
 922:.\Generated_Source\PSoC4/CyLib.c ****     * Function Name: CySysWdtGetInterruptSource
 923:.\Generated_Source\PSoC4/CyLib.c ****     ********************************************************************************
 924:.\Generated_Source\PSoC4/CyLib.c ****     *
 925:.\Generated_Source\PSoC4/CyLib.c ****     * Summary:
 926:.\Generated_Source\PSoC4/CyLib.c ****     *   Reads a mask containing all the WDT counters interrupts that are currently
 927:.\Generated_Source\PSoC4/CyLib.c ****     *   set by hardware, if corresponding mode is selected.
 928:.\Generated_Source\PSoC4/CyLib.c ****     *
 929:.\Generated_Source\PSoC4/CyLib.c ****     * Parameters:
 930:.\Generated_Source\PSoC4/CyLib.c ****     *   None
 931:.\Generated_Source\PSoC4/CyLib.c ****     *
 932:.\Generated_Source\PSoC4/CyLib.c ****     * Return:
 933:.\Generated_Source\PSoC4/CyLib.c ****     *   Mask of interrupts set.
 934:.\Generated_Source\PSoC4/CyLib.c ****     *   Define                    Counter
 935:.\Generated_Source\PSoC4/CyLib.c ****     *   CY_SYS_WDT_COUNTER0_INT    0
 936:.\Generated_Source\PSoC4/CyLib.c ****     *   CY_SYS_WDT_COUNTER1_INT    1
 937:.\Generated_Source\PSoC4/CyLib.c ****     *   CY_SYS_WDT_COUNTER2_INT    2
 938:.\Generated_Source\PSoC4/CyLib.c ****     *
 939:.\Generated_Source\PSoC4/CyLib.c ****     *******************************************************************************/
 940:.\Generated_Source\PSoC4/CyLib.c ****     uint32 CySysWdtGetInterruptSource(void)
 941:.\Generated_Source\PSoC4/CyLib.c ****     {
 1003              		.loc 1 941 0
 1004              		.cfi_startproc
 942:.\Generated_Source\PSoC4/CyLib.c ****         return (CY_SYS_WDT_CONTROL_REG & (CY_SYS_WDT_COUNTER0_INT | CY_SYS_WDT_COUNTER1_INT | CY_SY
 1005              		.loc 1 942 0
 1006 0000 024B     		ldr	r3, .L84
 1007 0002 0349     		ldr	r1, .L84+4
 1008 0004 1868     		ldr	r0, [r3]
 943:.\Generated_Source\PSoC4/CyLib.c ****     }
 1009              		.loc 1 943 0
 1010              		@ sp needed for prologue
 942:.\Generated_Source\PSoC4/CyLib.c ****         return (CY_SYS_WDT_CONTROL_REG & (CY_SYS_WDT_COUNTER0_INT | CY_SYS_WDT_COUNTER1_INT | CY_SY
ARM GAS  C:\Users\CHUCK~1.ERH\AppData\Local\Temp\ccGtqbdp.s 			page 36


 1011              		.loc 1 942 0
 1012 0006 0840     		and	r0, r1
 1013              		.loc 1 943 0
 1014 0008 7047     		bx	lr
 1015              	.L85:
 1016 000a C046     		.align	2
 1017              	.L84:
 1018 000c 10020B40 		.word	1074463248
 1019 0010 04040400 		.word	263172
 1020              		.cfi_endproc
 1021              	.LFE23:
 1022              		.size	CySysWdtGetInterruptSource, .-CySysWdtGetInterruptSource
 1023              		.section	.text.CySysWdtClearInterrupt,"ax",%progbits
 1024              		.align	1
 1025              		.global	CySysWdtClearInterrupt
 1026              		.code	16
 1027              		.thumb_func
 1028              		.type	CySysWdtClearInterrupt, %function
 1029              	CySysWdtClearInterrupt:
 1030              	.LFB24:
 944:.\Generated_Source\PSoC4/CyLib.c **** 
 945:.\Generated_Source\PSoC4/CyLib.c **** 
 946:.\Generated_Source\PSoC4/CyLib.c ****     /*******************************************************************************
 947:.\Generated_Source\PSoC4/CyLib.c ****     * Function Name: CySysWdtClearInterrupt
 948:.\Generated_Source\PSoC4/CyLib.c ****     ********************************************************************************
 949:.\Generated_Source\PSoC4/CyLib.c ****     *
 950:.\Generated_Source\PSoC4/CyLib.c ****     * Summary:
 951:.\Generated_Source\PSoC4/CyLib.c ****     *   Clears all WDT counter interrupts set in the mask. Calling this API also
 952:.\Generated_Source\PSoC4/CyLib.c ****     *   prevents Reset from happening when counter mode is set to generate
 953:.\Generated_Source\PSoC4/CyLib.c ****     *   3 interrupts and then reset device.
 954:.\Generated_Source\PSoC4/CyLib.c ****     *   All WDT interrupts are to be cleared by firmware, otherwise interrupts will
 955:.\Generated_Source\PSoC4/CyLib.c ****     *   be generated continuously.
 956:.\Generated_Source\PSoC4/CyLib.c ****     *
 957:.\Generated_Source\PSoC4/CyLib.c ****     * Parameters:
 958:.\Generated_Source\PSoC4/CyLib.c ****     *   counterMask: Mask of all counters to enable
 959:.\Generated_Source\PSoC4/CyLib.c ****     *   Define                    Counter
 960:.\Generated_Source\PSoC4/CyLib.c ****     *   CY_SYS_WDT_COUNTER0_INT    0
 961:.\Generated_Source\PSoC4/CyLib.c ****     *   CY_SYS_WDT_COUNTER1_INT    1
 962:.\Generated_Source\PSoC4/CyLib.c ****     *   CY_SYS_WDT_COUNTER2_INT    2
 963:.\Generated_Source\PSoC4/CyLib.c ****     *
 964:.\Generated_Source\PSoC4/CyLib.c ****     * Return:
 965:.\Generated_Source\PSoC4/CyLib.c ****     *   None
 966:.\Generated_Source\PSoC4/CyLib.c ****     *
 967:.\Generated_Source\PSoC4/CyLib.c ****     * Side effects:
 968:.\Generated_Source\PSoC4/CyLib.c ****     *   This API enables ILO, if it was disabled and temporary removes Watchdog
 969:.\Generated_Source\PSoC4/CyLib.c ****     *   lock, if it was set, and restores lock state, after cleaning WDT interrupts,
 970:.\Generated_Source\PSoC4/CyLib.c ****     *   that are set in mask.
 971:.\Generated_Source\PSoC4/CyLib.c ****     *
 972:.\Generated_Source\PSoC4/CyLib.c ****     *******************************************************************************/
 973:.\Generated_Source\PSoC4/CyLib.c ****     void CySysWdtClearInterrupt(uint32 counterMask)
 974:.\Generated_Source\PSoC4/CyLib.c ****     {
 1031              		.loc 1 974 0
 1032              		.cfi_startproc
 1033              	.LVL74:
 1034 0000 70B5     		push	{r4, r5, r6, lr}
 1035              	.LCFI10:
 1036              		.cfi_def_cfa_offset 16
ARM GAS  C:\Users\CHUCK~1.ERH\AppData\Local\Temp\ccGtqbdp.s 			page 37


 1037              		.cfi_offset 4, -16
 1038              		.cfi_offset 5, -12
 1039              		.cfi_offset 6, -8
 1040              		.cfi_offset 14, -4
 1041              		.loc 1 974 0
 1042 0002 051C     		mov	r5, r0
 975:.\Generated_Source\PSoC4/CyLib.c ****         uint8 interruptState;
 976:.\Generated_Source\PSoC4/CyLib.c ****         uint32 wdtLockState;
 977:.\Generated_Source\PSoC4/CyLib.c **** 
 978:.\Generated_Source\PSoC4/CyLib.c ****         interruptState = CyEnterCriticalSection();
 1043              		.loc 1 978 0
 1044 0004 FFF7FEFF 		bl	CyEnterCriticalSection
 1045              	.LVL75:
 979:.\Generated_Source\PSoC4/CyLib.c **** 
 980:.\Generated_Source\PSoC4/CyLib.c ****         /* Configuring the WDT involves passing control signals between clock domains,
 981:.\Generated_Source\PSoC4/CyLib.c ****         * which requires the ILO to be enabled.
 982:.\Generated_Source\PSoC4/CyLib.c ****         */
 983:.\Generated_Source\PSoC4/CyLib.c ****         if (0u == (CY_SYS_CLK_ILO_CONFIG_REG & CY_SYS_CLK_ILO_CONFIG_ENABLE))
 1046              		.loc 1 983 0
 1047 0008 164B     		ldr	r3, .L91
 978:.\Generated_Source\PSoC4/CyLib.c ****         interruptState = CyEnterCriticalSection();
 1048              		.loc 1 978 0
 1049 000a 041C     		mov	r4, r0
 1050              	.LVL76:
 1051              		.loc 1 983 0
 1052 000c 1868     		ldr	r0, [r3]
 1053              	.LVL77:
 1054 000e 0028     		cmp	r0, #0
 1055 0010 01DB     		blt	.L87
 984:.\Generated_Source\PSoC4/CyLib.c ****         {
 985:.\Generated_Source\PSoC4/CyLib.c ****             CySysClkIloStart();
 1056              		.loc 1 985 0
 1057 0012 FFF7FEFF 		bl	CySysClkIloStart
 1058              	.LVL78:
 1059              	.L87:
 986:.\Generated_Source\PSoC4/CyLib.c ****         }
 987:.\Generated_Source\PSoC4/CyLib.c **** 
 988:.\Generated_Source\PSoC4/CyLib.c ****         if ((CY_SYS_CLK_SELECT_REG & (uint32)(CY_SYS_WDT_CLK_LOCK_BITS_MASK)) == CY_SYS_WDT_CLK_LOC
 1060              		.loc 1 988 0
 1061 0016 144B     		ldr	r3, .L91+4
 1062 0018 C021     		mov	r1, #192
 1063 001a 1E68     		ldr	r6, [r3]
 1064 001c 0802     		lsl	r0, r1, #8
 1065 001e 0640     		and	r6, r0
 989:.\Generated_Source\PSoC4/CyLib.c ****         {
 990:.\Generated_Source\PSoC4/CyLib.c ****             wdtLockState = 1u;
 991:.\Generated_Source\PSoC4/CyLib.c **** 
 992:.\Generated_Source\PSoC4/CyLib.c ****             /* Removing WDT lock requires two writes */
 993:.\Generated_Source\PSoC4/CyLib.c ****             CY_SYS_CLK_SELECT_REG = ((CY_SYS_CLK_SELECT_REG & (uint32)(~CY_SYS_WDT_CLK_LOCK_BITS_MA
 994:.\Generated_Source\PSoC4/CyLib.c ****                     CY_SYS_WDT_CLK_LOCK_BIT0);
 995:.\Generated_Source\PSoC4/CyLib.c **** 
 996:.\Generated_Source\PSoC4/CyLib.c ****             CY_SYS_CLK_SELECT_REG = ((CY_SYS_CLK_SELECT_REG & (uint32)(~CY_SYS_WDT_CLK_LOCK_BITS_MA
 997:.\Generated_Source\PSoC4/CyLib.c ****                     CY_SYS_WDT_CLK_LOCK_BIT1);
 998:.\Generated_Source\PSoC4/CyLib.c ****         }
 999:.\Generated_Source\PSoC4/CyLib.c ****         else
1000:.\Generated_Source\PSoC4/CyLib.c ****         {
1001:.\Generated_Source\PSoC4/CyLib.c ****             wdtLockState = 0u;
ARM GAS  C:\Users\CHUCK~1.ERH\AppData\Local\Temp\ccGtqbdp.s 			page 38


 1066              		.loc 1 1001 0
 1067 0020 0022     		mov	r2, #0
 988:.\Generated_Source\PSoC4/CyLib.c ****         if ((CY_SYS_CLK_SELECT_REG & (uint32)(CY_SYS_WDT_CLK_LOCK_BITS_MASK)) == CY_SYS_WDT_CLK_LOC
 1068              		.loc 1 988 0
 1069 0022 8642     		cmp	r6, r0
 1070 0024 0DD1     		bne	.L88
 1071              	.LVL79:
 993:.\Generated_Source\PSoC4/CyLib.c ****             CY_SYS_CLK_SELECT_REG = ((CY_SYS_CLK_SELECT_REG & (uint32)(~CY_SYS_WDT_CLK_LOCK_BITS_MA
 1072              		.loc 1 993 0
 1073 0026 1E68     		ldr	r6, [r3]
 1074 0028 104A     		ldr	r2, .L91+8
 1075 002a 8021     		mov	r1, #128
 1076 002c C801     		lsl	r0, r1, #7
 1077 002e 1640     		and	r6, r2
 1078 0030 0643     		orr	r6, r0
 1079 0032 1E60     		str	r6, [r3]
 996:.\Generated_Source\PSoC4/CyLib.c ****             CY_SYS_CLK_SELECT_REG = ((CY_SYS_CLK_SELECT_REG & (uint32)(~CY_SYS_WDT_CLK_LOCK_BITS_MA
 1080              		.loc 1 996 0
 1081 0034 1E68     		ldr	r6, [r3]
 1082 0036 8021     		mov	r1, #128
 1083 0038 3240     		and	r2, r6
 1084 003a 0802     		lsl	r0, r1, #8
 1085 003c 0243     		orr	r2, r0
 1086 003e 1A60     		str	r2, [r3]
 990:.\Generated_Source\PSoC4/CyLib.c ****             wdtLockState = 1u;
 1087              		.loc 1 990 0
 1088 0040 0122     		mov	r2, #1
 1089              	.LVL80:
 1090              	.L88:
1002:.\Generated_Source\PSoC4/CyLib.c ****         }
1003:.\Generated_Source\PSoC4/CyLib.c **** 
1004:.\Generated_Source\PSoC4/CyLib.c ****         /* Set the new WDT control register value */
1005:.\Generated_Source\PSoC4/CyLib.c ****         CY_SYS_WDT_CONTROL_REG |= (counterMask & (CY_SYS_WDT_COUNTER0_INT |
 1091              		.loc 1 1005 0
 1092 0042 0B49     		ldr	r1, .L91+12
 1093 0044 0B4E     		ldr	r6, .L91+16
 1094 0046 0868     		ldr	r0, [r1]
 1095 0048 3540     		and	r5, r6
 1096              	.LVL81:
 1097 004a 0543     		orr	r5, r0
 1098 004c 0D60     		str	r5, [r1]
1006:.\Generated_Source\PSoC4/CyLib.c ****             CY_SYS_WDT_COUNTER1_INT | CY_SYS_WDT_COUNTER2_INT));
1007:.\Generated_Source\PSoC4/CyLib.c **** 
1008:.\Generated_Source\PSoC4/CyLib.c ****         if (1u == wdtLockState)
 1099              		.loc 1 1008 0
 1100 004e 012A     		cmp	r2, #1
 1101 0050 04D1     		bne	.L89
1009:.\Generated_Source\PSoC4/CyLib.c ****         {
1010:.\Generated_Source\PSoC4/CyLib.c ****             /* CLK_SELECT register's bits 15:14 are WDT_LOCK */
1011:.\Generated_Source\PSoC4/CyLib.c ****             CY_SYS_CLK_SELECT_REG = (CY_SYS_CLK_SELECT_REG & (uint32)(~CY_SYS_WDT_CLK_LOCK_BITS_MAS
 1102              		.loc 1 1011 0
 1103 0052 1D68     		ldr	r5, [r3]
 1104 0054 C022     		mov	r2, #192
 1105              	.LVL82:
 1106 0056 1102     		lsl	r1, r2, #8
 1107 0058 2943     		orr	r1, r5
 1108 005a 1960     		str	r1, [r3]
ARM GAS  C:\Users\CHUCK~1.ERH\AppData\Local\Temp\ccGtqbdp.s 			page 39


 1109              	.L89:
1012:.\Generated_Source\PSoC4/CyLib.c ****                      CY_SYS_WDT_CLK_LOCK_BITS_MASK;
1013:.\Generated_Source\PSoC4/CyLib.c ****         }
1014:.\Generated_Source\PSoC4/CyLib.c **** 
1015:.\Generated_Source\PSoC4/CyLib.c ****         CyExitCriticalSection(interruptState);
 1110              		.loc 1 1015 0
 1111 005c 201C     		mov	r0, r4
 1112 005e FFF7FEFF 		bl	CyExitCriticalSection
 1113              	.LVL83:
1016:.\Generated_Source\PSoC4/CyLib.c ****     }
 1114              		.loc 1 1016 0
 1115              		@ sp needed for prologue
 1116              	.LVL84:
 1117 0062 70BD     		pop	{r4, r5, r6, pc}
 1118              	.L92:
 1119              		.align	2
 1120              	.L91:
 1121 0064 04010B40 		.word	1074462980
 1122 0068 00010B40 		.word	1074462976
 1123 006c FF3FFFFF 		.word	-49153
 1124 0070 10020B40 		.word	1074463248
 1125 0074 04040400 		.word	263172
 1126              		.cfi_endproc
 1127              	.LFE24:
 1128              		.size	CySysWdtClearInterrupt, .-CySysWdtClearInterrupt
 1129              		.section	.text.CySysWdtResetCounters,"ax",%progbits
 1130              		.align	1
 1131              		.global	CySysWdtResetCounters
 1132              		.code	16
 1133              		.thumb_func
 1134              		.type	CySysWdtResetCounters, %function
 1135              	CySysWdtResetCounters:
 1136              	.LFB25:
1017:.\Generated_Source\PSoC4/CyLib.c **** 
1018:.\Generated_Source\PSoC4/CyLib.c **** 
1019:.\Generated_Source\PSoC4/CyLib.c ****     /*******************************************************************************
1020:.\Generated_Source\PSoC4/CyLib.c ****     * Function Name: CySysWdtResetCounters
1021:.\Generated_Source\PSoC4/CyLib.c ****     ********************************************************************************
1022:.\Generated_Source\PSoC4/CyLib.c ****     *
1023:.\Generated_Source\PSoC4/CyLib.c ****     * Summary:
1024:.\Generated_Source\PSoC4/CyLib.c ****     *  Resets all WDT counters set in the mask.
1025:.\Generated_Source\PSoC4/CyLib.c ****     *
1026:.\Generated_Source\PSoC4/CyLib.c ****     * Parameters:
1027:.\Generated_Source\PSoC4/CyLib.c ****     *  counterMask: Mask of all counters to reset.
1028:.\Generated_Source\PSoC4/CyLib.c ****     *   Define                       Counter
1029:.\Generated_Source\PSoC4/CyLib.c ****     *   CY_SYS_WDT_COUNTER0_RESET    0
1030:.\Generated_Source\PSoC4/CyLib.c ****     *   CY_SYS_WDT_COUNTER1_RESET    1
1031:.\Generated_Source\PSoC4/CyLib.c ****     *   CY_SYS_WDT_COUNTER2_RESET    2
1032:.\Generated_Source\PSoC4/CyLib.c ****     *
1033:.\Generated_Source\PSoC4/CyLib.c ****     * Return:
1034:.\Generated_Source\PSoC4/CyLib.c ****     *   None
1035:.\Generated_Source\PSoC4/CyLib.c ****     *
1036:.\Generated_Source\PSoC4/CyLib.c ****     * Side effects:
1037:.\Generated_Source\PSoC4/CyLib.c ****     *   This API enables ILO, if it was disabled, this API call will not reset
1038:.\Generated_Source\PSoC4/CyLib.c ****     *   counter values, if Watchdog is locked.
1039:.\Generated_Source\PSoC4/CyLib.c ****     *
1040:.\Generated_Source\PSoC4/CyLib.c ****     *******************************************************************************/
ARM GAS  C:\Users\CHUCK~1.ERH\AppData\Local\Temp\ccGtqbdp.s 			page 40


1041:.\Generated_Source\PSoC4/CyLib.c ****     void CySysWdtResetCounters(uint32 countersMask)
1042:.\Generated_Source\PSoC4/CyLib.c ****     {
 1137              		.loc 1 1042 0
 1138              		.cfi_startproc
 1139              	.LVL85:
1043:.\Generated_Source\PSoC4/CyLib.c ****         /* Configuring the WDT involves passing control signals between clock domains,
1044:.\Generated_Source\PSoC4/CyLib.c ****         * which requires the ILO to be enabled.
1045:.\Generated_Source\PSoC4/CyLib.c ****         */
1046:.\Generated_Source\PSoC4/CyLib.c ****         if (0u == (CY_SYS_CLK_ILO_CONFIG_REG & CY_SYS_CLK_ILO_CONFIG_ENABLE))
 1140              		.loc 1 1046 0
 1141 0000 074B     		ldr	r3, .L95
1042:.\Generated_Source\PSoC4/CyLib.c ****     {
 1142              		.loc 1 1042 0
 1143 0002 10B5     		push	{r4, lr}
 1144              	.LCFI11:
 1145              		.cfi_def_cfa_offset 8
 1146              		.cfi_offset 4, -8
 1147              		.cfi_offset 14, -4
1042:.\Generated_Source\PSoC4/CyLib.c ****     {
 1148              		.loc 1 1042 0
 1149 0004 041C     		mov	r4, r0
 1150              		.loc 1 1046 0
 1151 0006 1868     		ldr	r0, [r3]
 1152              	.LVL86:
 1153 0008 0028     		cmp	r0, #0
 1154 000a 01DB     		blt	.L94
1047:.\Generated_Source\PSoC4/CyLib.c ****         {
1048:.\Generated_Source\PSoC4/CyLib.c ****             CySysClkIloStart();
 1155              		.loc 1 1048 0
 1156 000c FFF7FEFF 		bl	CySysClkIloStart
 1157              	.LVL87:
 1158              	.L94:
1049:.\Generated_Source\PSoC4/CyLib.c ****         }
1050:.\Generated_Source\PSoC4/CyLib.c **** 
1051:.\Generated_Source\PSoC4/CyLib.c ****         /* Set the new WDT reset value */
1052:.\Generated_Source\PSoC4/CyLib.c ****         CY_SYS_WDT_CONTROL_REG |= (countersMask & (CY_SYS_WDT_COUNTER0_RESET |
 1159              		.loc 1 1052 0
 1160 0010 044B     		ldr	r3, .L95+4
 1161 0012 0549     		ldr	r1, .L95+8
 1162 0014 1A68     		ldr	r2, [r3]
 1163 0016 0C40     		and	r4, r1
 1164              	.LVL88:
 1165 0018 1443     		orr	r4, r2
 1166 001a 1C60     		str	r4, [r3]
1053:.\Generated_Source\PSoC4/CyLib.c ****             CY_SYS_WDT_COUNTER1_RESET | CY_SYS_WDT_COUNTER2_RESET));
1054:.\Generated_Source\PSoC4/CyLib.c ****     }
 1167              		.loc 1 1054 0
 1168              		@ sp needed for prologue
 1169 001c 10BD     		pop	{r4, pc}
 1170              	.L96:
 1171 001e C046     		.align	2
 1172              	.L95:
 1173 0020 04010B40 		.word	1074462980
 1174 0024 10020B40 		.word	1074463248
 1175 0028 08080800 		.word	526344
 1176              		.cfi_endproc
 1177              	.LFE25:
ARM GAS  C:\Users\CHUCK~1.ERH\AppData\Local\Temp\ccGtqbdp.s 			page 41


 1178              		.size	CySysWdtResetCounters, .-CySysWdtResetCounters
 1179              		.section	.text.CySysLvdEnable,"ax",%progbits
 1180              		.align	1
 1181              		.global	CySysLvdEnable
 1182              		.code	16
 1183              		.thumb_func
 1184              		.type	CySysLvdEnable, %function
 1185              	CySysLvdEnable:
 1186              	.LFB26:
1055:.\Generated_Source\PSoC4/CyLib.c **** 
1056:.\Generated_Source\PSoC4/CyLib.c **** #else
1057:.\Generated_Source\PSoC4/CyLib.c **** 
1058:.\Generated_Source\PSoC4/CyLib.c ****     /*******************************************************************************
1059:.\Generated_Source\PSoC4/CyLib.c ****     * Function Name: CySysClkWriteImoFreq
1060:.\Generated_Source\PSoC4/CyLib.c ****     ********************************************************************************
1061:.\Generated_Source\PSoC4/CyLib.c ****     *
1062:.\Generated_Source\PSoC4/CyLib.c ****     * Summary:
1063:.\Generated_Source\PSoC4/CyLib.c ****     *  Sets the frequency of the IMO.
1064:.\Generated_Source\PSoC4/CyLib.c ****     *
1065:.\Generated_Source\PSoC4/CyLib.c ****     * Parameters:
1066:.\Generated_Source\PSoC4/CyLib.c ****     *  freq: Valid range [24-48] with step size equal to 4.
1067:.\Generated_Source\PSoC4/CyLib.c ****     *        Frequency for operation of the IMO.
1068:.\Generated_Source\PSoC4/CyLib.c ****     *  Note: Invalid frequency will be ignored.
1069:.\Generated_Source\PSoC4/CyLib.c ****     *
1070:.\Generated_Source\PSoC4/CyLib.c ****     * Return:
1071:.\Generated_Source\PSoC4/CyLib.c ****     *  None
1072:.\Generated_Source\PSoC4/CyLib.c ****     *
1073:.\Generated_Source\PSoC4/CyLib.c ****     * Side Effects:
1074:.\Generated_Source\PSoC4/CyLib.c ****     *  If the SYSCLK clock frequency increases during device operation, call
1075:.\Generated_Source\PSoC4/CyLib.c ****     *  CySysFlashSetWaitCycles() with the appropriate parameter to adjust the number
1076:.\Generated_Source\PSoC4/CyLib.c ****     *  of clock cycles cache will wait before sampling data coming back from Flash.
1077:.\Generated_Source\PSoC4/CyLib.c ****     *  If the SYSCLK clock frequency decreases, you can call CyFlash_SetWaitCycles()
1078:.\Generated_Source\PSoC4/CyLib.c ****     *  to improve CPU performance. See CySysFlashSetWaitCycles() for more
1079:.\Generated_Source\PSoC4/CyLib.c ****     *  information.
1080:.\Generated_Source\PSoC4/CyLib.c ****     *
1081:.\Generated_Source\PSoC4/CyLib.c ****     *******************************************************************************/
1082:.\Generated_Source\PSoC4/CyLib.c ****     void CySysClkWriteImoFreq(uint32 freq)
1083:.\Generated_Source\PSoC4/CyLib.c ****     {
1084:.\Generated_Source\PSoC4/CyLib.c ****         uint8  interruptState;
1085:.\Generated_Source\PSoC4/CyLib.c **** 
1086:.\Generated_Source\PSoC4/CyLib.c ****         /* IMO frequency constrained to 24MHz-48MHz */
1087:.\Generated_Source\PSoC4/CyLib.c ****         if ((freq >= CY_SYS_CLK_IMO_MIN_FREQ_MHZ) &&
1088:.\Generated_Source\PSoC4/CyLib.c ****             (freq <= CY_SYS_CLK_IMO_MAX_FREQ_MHZ) &&
1089:.\Generated_Source\PSoC4/CyLib.c ****             ((freq & 3u) == 0u))
1090:.\Generated_Source\PSoC4/CyLib.c ****         {
1091:.\Generated_Source\PSoC4/CyLib.c ****             interruptState = CyEnterCriticalSection();
1092:.\Generated_Source\PSoC4/CyLib.c **** 
1093:.\Generated_Source\PSoC4/CyLib.c ****             CY_SYS_CLK_IMO_TRIM1_REG = 0u;
1094:.\Generated_Source\PSoC4/CyLib.c ****             CY_SYS_CLK_IMO_TRIM2_REG = 0u;
1095:.\Generated_Source\PSoC4/CyLib.c ****             CY_SYS_CLK_IMO_SELECT_REG = (freq - CY_SYS_CLK_IMO_MIN_FREQ_MHZ) >> 2u;
1096:.\Generated_Source\PSoC4/CyLib.c ****             CY_SYS_CLK_IMO_TRIM3_REG = CY_SFLASH_IMO_TCTRIM_REG(freq - CY_SYS_CLK_IMO_MIN_FREQ_MHZ)
1097:.\Generated_Source\PSoC4/CyLib.c ****             CY_SYS_CLK_IMO_TRIM1_REG = CY_SFLASH_IMO_TRIM_REG(freq - CY_SYS_CLK_IMO_MIN_FREQ_MHZ);
1098:.\Generated_Source\PSoC4/CyLib.c **** 
1099:.\Generated_Source\PSoC4/CyLib.c ****             CyExitCriticalSection(interruptState);
1100:.\Generated_Source\PSoC4/CyLib.c ****         }
1101:.\Generated_Source\PSoC4/CyLib.c ****         else
1102:.\Generated_Source\PSoC4/CyLib.c ****         {
ARM GAS  C:\Users\CHUCK~1.ERH\AppData\Local\Temp\ccGtqbdp.s 			page 42


1103:.\Generated_Source\PSoC4/CyLib.c ****             /* Halt CPU in debug mode if new frequency is invalid */
1104:.\Generated_Source\PSoC4/CyLib.c ****             CYASSERT(0u != 0u);
1105:.\Generated_Source\PSoC4/CyLib.c ****         }
1106:.\Generated_Source\PSoC4/CyLib.c ****     }
1107:.\Generated_Source\PSoC4/CyLib.c **** 
1108:.\Generated_Source\PSoC4/CyLib.c **** 
1109:.\Generated_Source\PSoC4/CyLib.c ****     /*******************************************************************************
1110:.\Generated_Source\PSoC4/CyLib.c ****     * Function Name: CySysWdtReadEnabledStatus
1111:.\Generated_Source\PSoC4/CyLib.c ****     ********************************************************************************
1112:.\Generated_Source\PSoC4/CyLib.c ****     *
1113:.\Generated_Source\PSoC4/CyLib.c ****     * Summary:
1114:.\Generated_Source\PSoC4/CyLib.c ****     *  Reads the enabled staus WDT counter.
1115:.\Generated_Source\PSoC4/CyLib.c ****     *
1116:.\Generated_Source\PSoC4/CyLib.c ****     * Parameters:
1117:.\Generated_Source\PSoC4/CyLib.c ****     *  None
1118:.\Generated_Source\PSoC4/CyLib.c ****     *
1119:.\Generated_Source\PSoC4/CyLib.c ****     * Return:
1120:.\Generated_Source\PSoC4/CyLib.c ****     *  Status of WDT counter:
1121:.\Generated_Source\PSoC4/CyLib.c ****     *   0 - counter is disabled
1122:.\Generated_Source\PSoC4/CyLib.c ****     *   1 - counter is enabled
1123:.\Generated_Source\PSoC4/CyLib.c ****     *
1124:.\Generated_Source\PSoC4/CyLib.c ****     * Side Effects:
1125:.\Generated_Source\PSoC4/CyLib.c ****     *  None
1126:.\Generated_Source\PSoC4/CyLib.c ****     *
1127:.\Generated_Source\PSoC4/CyLib.c ****     *******************************************************************************/
1128:.\Generated_Source\PSoC4/CyLib.c ****     uint32 CySysWdtReadEnabledStatus(void)
1129:.\Generated_Source\PSoC4/CyLib.c ****     {
1130:.\Generated_Source\PSoC4/CyLib.c ****         return ((CY_SYS_WDT_DISABLE_KEY_REG == CY_SYS_WDT_KEY) ? 0u : 1u);
1131:.\Generated_Source\PSoC4/CyLib.c ****     }
1132:.\Generated_Source\PSoC4/CyLib.c **** 
1133:.\Generated_Source\PSoC4/CyLib.c **** 
1134:.\Generated_Source\PSoC4/CyLib.c ****     /*******************************************************************************
1135:.\Generated_Source\PSoC4/CyLib.c ****     * Function Name: CySysWdtEnable
1136:.\Generated_Source\PSoC4/CyLib.c ****     ********************************************************************************
1137:.\Generated_Source\PSoC4/CyLib.c ****     *
1138:.\Generated_Source\PSoC4/CyLib.c ****     * Summary:
1139:.\Generated_Source\PSoC4/CyLib.c ****     *  Enables the WDT counter.
1140:.\Generated_Source\PSoC4/CyLib.c ****     *
1141:.\Generated_Source\PSoC4/CyLib.c ****     * Parameters:
1142:.\Generated_Source\PSoC4/CyLib.c ****     *  None
1143:.\Generated_Source\PSoC4/CyLib.c ****     *
1144:.\Generated_Source\PSoC4/CyLib.c ****     * Return:
1145:.\Generated_Source\PSoC4/CyLib.c ****     *  None
1146:.\Generated_Source\PSoC4/CyLib.c ****     *
1147:.\Generated_Source\PSoC4/CyLib.c ****     * Side Effects:
1148:.\Generated_Source\PSoC4/CyLib.c ****     *  This API enables ILO, if it was disabled.
1149:.\Generated_Source\PSoC4/CyLib.c ****     *
1150:.\Generated_Source\PSoC4/CyLib.c ****     *******************************************************************************/
1151:.\Generated_Source\PSoC4/CyLib.c ****     void CySysWdtEnable(void)
1152:.\Generated_Source\PSoC4/CyLib.c ****     {
1153:.\Generated_Source\PSoC4/CyLib.c ****         /* Configuring the WDT involves passing control signals between clock domains,
1154:.\Generated_Source\PSoC4/CyLib.c ****         * which requires the ILO to be enabled.
1155:.\Generated_Source\PSoC4/CyLib.c ****         */
1156:.\Generated_Source\PSoC4/CyLib.c ****         if (0u == (CY_SYS_CLK_ILO_CONFIG_REG & CY_SYS_CLK_ILO_CONFIG_ENABLE))
1157:.\Generated_Source\PSoC4/CyLib.c ****         {
1158:.\Generated_Source\PSoC4/CyLib.c ****             CySysClkIloStart();
1159:.\Generated_Source\PSoC4/CyLib.c ****         }
ARM GAS  C:\Users\CHUCK~1.ERH\AppData\Local\Temp\ccGtqbdp.s 			page 43


1160:.\Generated_Source\PSoC4/CyLib.c **** 
1161:.\Generated_Source\PSoC4/CyLib.c ****         CY_SYS_WDT_DISABLE_KEY_REG = 0u;
1162:.\Generated_Source\PSoC4/CyLib.c ****     }
1163:.\Generated_Source\PSoC4/CyLib.c **** 
1164:.\Generated_Source\PSoC4/CyLib.c **** 
1165:.\Generated_Source\PSoC4/CyLib.c ****     /*******************************************************************************
1166:.\Generated_Source\PSoC4/CyLib.c ****     * Function Name: CySysWdtDisable
1167:.\Generated_Source\PSoC4/CyLib.c ****     ********************************************************************************
1168:.\Generated_Source\PSoC4/CyLib.c ****     *
1169:.\Generated_Source\PSoC4/CyLib.c ****     * Summary:
1170:.\Generated_Source\PSoC4/CyLib.c ****     *  Disables the WDT counter.
1171:.\Generated_Source\PSoC4/CyLib.c ****     *
1172:.\Generated_Source\PSoC4/CyLib.c ****     * Parameters:
1173:.\Generated_Source\PSoC4/CyLib.c ****     *  None
1174:.\Generated_Source\PSoC4/CyLib.c ****     *
1175:.\Generated_Source\PSoC4/CyLib.c ****     * Return:
1176:.\Generated_Source\PSoC4/CyLib.c ****     *  None
1177:.\Generated_Source\PSoC4/CyLib.c ****     *
1178:.\Generated_Source\PSoC4/CyLib.c ****     * Side Effects:
1179:.\Generated_Source\PSoC4/CyLib.c ****     *  In order to disable ILO clock WDT counter should be disabled.
1180:.\Generated_Source\PSoC4/CyLib.c ****     *
1181:.\Generated_Source\PSoC4/CyLib.c ****     *******************************************************************************/
1182:.\Generated_Source\PSoC4/CyLib.c ****     void CySysWdtDisable(void)
1183:.\Generated_Source\PSoC4/CyLib.c ****     {
1184:.\Generated_Source\PSoC4/CyLib.c ****         CY_SYS_WDT_DISABLE_KEY_REG = CY_SYS_WDT_KEY;
1185:.\Generated_Source\PSoC4/CyLib.c ****     }
1186:.\Generated_Source\PSoC4/CyLib.c **** 
1187:.\Generated_Source\PSoC4/CyLib.c **** 
1188:.\Generated_Source\PSoC4/CyLib.c ****     /*******************************************************************************
1189:.\Generated_Source\PSoC4/CyLib.c ****     * Function Name: CySysWdtWriteMatch
1190:.\Generated_Source\PSoC4/CyLib.c ****     ********************************************************************************
1191:.\Generated_Source\PSoC4/CyLib.c ****     *
1192:.\Generated_Source\PSoC4/CyLib.c ****     * Summary:
1193:.\Generated_Source\PSoC4/CyLib.c ****     *  Configures the WDT counter match comparison value.
1194:.\Generated_Source\PSoC4/CyLib.c ****     *
1195:.\Generated_Source\PSoC4/CyLib.c ****     * Parameters:
1196:.\Generated_Source\PSoC4/CyLib.c ****     *  match:
1197:.\Generated_Source\PSoC4/CyLib.c ****     *   Valid range [0-65535]. Value to be used to match against the counter.
1198:.\Generated_Source\PSoC4/CyLib.c ****     *
1199:.\Generated_Source\PSoC4/CyLib.c ****     * Return:
1200:.\Generated_Source\PSoC4/CyLib.c ****     *  None
1201:.\Generated_Source\PSoC4/CyLib.c ****     *
1202:.\Generated_Source\PSoC4/CyLib.c ****     * Side Effects:
1203:.\Generated_Source\PSoC4/CyLib.c ****     *  This API enables ILO, if it was disabled.
1204:.\Generated_Source\PSoC4/CyLib.c ****     *
1205:.\Generated_Source\PSoC4/CyLib.c ****     *******************************************************************************/
1206:.\Generated_Source\PSoC4/CyLib.c ****     void CySysWdtWriteMatch(uint32 match)
1207:.\Generated_Source\PSoC4/CyLib.c ****     {
1208:.\Generated_Source\PSoC4/CyLib.c ****         /* Configuring the WDT involves passing control signals between clock domains,
1209:.\Generated_Source\PSoC4/CyLib.c ****         * which requires the ILO to be enabled.
1210:.\Generated_Source\PSoC4/CyLib.c ****         */
1211:.\Generated_Source\PSoC4/CyLib.c ****         if (0u == (CY_SYS_CLK_ILO_CONFIG_REG & CY_SYS_CLK_ILO_CONFIG_ENABLE))
1212:.\Generated_Source\PSoC4/CyLib.c ****         {
1213:.\Generated_Source\PSoC4/CyLib.c ****             CySysClkIloStart();
1214:.\Generated_Source\PSoC4/CyLib.c ****         }
1215:.\Generated_Source\PSoC4/CyLib.c **** 
1216:.\Generated_Source\PSoC4/CyLib.c ****         CY_SYS_WDT_MATCH_REG = (CY_SYS_WDT_MATCH_REG & (uint32)(~CY_SYS_WDT_MATCH_MASK)) | match;
ARM GAS  C:\Users\CHUCK~1.ERH\AppData\Local\Temp\ccGtqbdp.s 			page 44


1217:.\Generated_Source\PSoC4/CyLib.c ****     }
1218:.\Generated_Source\PSoC4/CyLib.c **** 
1219:.\Generated_Source\PSoC4/CyLib.c **** 
1220:.\Generated_Source\PSoC4/CyLib.c ****     /*******************************************************************************
1221:.\Generated_Source\PSoC4/CyLib.c ****     * Function Name: CySysWdtReadMatch
1222:.\Generated_Source\PSoC4/CyLib.c ****     ********************************************************************************
1223:.\Generated_Source\PSoC4/CyLib.c ****     *
1224:.\Generated_Source\PSoC4/CyLib.c ****     * Summary:
1225:.\Generated_Source\PSoC4/CyLib.c ****     *  Reads the WDT counter match comparison value.
1226:.\Generated_Source\PSoC4/CyLib.c ****     *
1227:.\Generated_Source\PSoC4/CyLib.c ****     * Parameters:
1228:.\Generated_Source\PSoC4/CyLib.c ****     *  None
1229:.\Generated_Source\PSoC4/CyLib.c ****     *
1230:.\Generated_Source\PSoC4/CyLib.c ****     * Return:
1231:.\Generated_Source\PSoC4/CyLib.c ****     *  Counter match value
1232:.\Generated_Source\PSoC4/CyLib.c ****     *
1233:.\Generated_Source\PSoC4/CyLib.c ****     * Side Effects:
1234:.\Generated_Source\PSoC4/CyLib.c ****     *  None
1235:.\Generated_Source\PSoC4/CyLib.c ****     *
1236:.\Generated_Source\PSoC4/CyLib.c ****     *******************************************************************************/
1237:.\Generated_Source\PSoC4/CyLib.c ****     uint32 CySysWdtReadMatch(void)
1238:.\Generated_Source\PSoC4/CyLib.c ****     {
1239:.\Generated_Source\PSoC4/CyLib.c ****         return (CY_SYS_WDT_MATCH_REG & CY_SYS_WDT_MATCH_MASK);
1240:.\Generated_Source\PSoC4/CyLib.c ****     }
1241:.\Generated_Source\PSoC4/CyLib.c **** 
1242:.\Generated_Source\PSoC4/CyLib.c **** 
1243:.\Generated_Source\PSoC4/CyLib.c ****     /*******************************************************************************
1244:.\Generated_Source\PSoC4/CyLib.c ****     * Function Name: CySysWdtReadCount
1245:.\Generated_Source\PSoC4/CyLib.c ****     ********************************************************************************
1246:.\Generated_Source\PSoC4/CyLib.c ****     *
1247:.\Generated_Source\PSoC4/CyLib.c ****     * Summary:
1248:.\Generated_Source\PSoC4/CyLib.c ****     *  Reads the current WDT counter value.
1249:.\Generated_Source\PSoC4/CyLib.c ****     *
1250:.\Generated_Source\PSoC4/CyLib.c ****     * Parameters:
1251:.\Generated_Source\PSoC4/CyLib.c ****     *  None
1252:.\Generated_Source\PSoC4/CyLib.c ****     *
1253:.\Generated_Source\PSoC4/CyLib.c ****     * Return:
1254:.\Generated_Source\PSoC4/CyLib.c ****     *  Live counter value
1255:.\Generated_Source\PSoC4/CyLib.c ****     *
1256:.\Generated_Source\PSoC4/CyLib.c ****     * Side Effects:
1257:.\Generated_Source\PSoC4/CyLib.c ****     *  None
1258:.\Generated_Source\PSoC4/CyLib.c ****     *
1259:.\Generated_Source\PSoC4/CyLib.c ****     *******************************************************************************/
1260:.\Generated_Source\PSoC4/CyLib.c ****     uint32 CySysWdtReadCount(void)
1261:.\Generated_Source\PSoC4/CyLib.c ****     {
1262:.\Generated_Source\PSoC4/CyLib.c ****         return ((uint32)CY_SYS_WDT_COUNTER_REG);
1263:.\Generated_Source\PSoC4/CyLib.c ****     }
1264:.\Generated_Source\PSoC4/CyLib.c **** 
1265:.\Generated_Source\PSoC4/CyLib.c **** 
1266:.\Generated_Source\PSoC4/CyLib.c ****     /*******************************************************************************
1267:.\Generated_Source\PSoC4/CyLib.c ****     * Function Name: CySysWdtWriteIgnoreBits
1268:.\Generated_Source\PSoC4/CyLib.c ****     ********************************************************************************
1269:.\Generated_Source\PSoC4/CyLib.c ****     *
1270:.\Generated_Source\PSoC4/CyLib.c ****     * Summary:
1271:.\Generated_Source\PSoC4/CyLib.c ****     *  Configures the number of MSB bits of the watchdog timer that are not
1272:.\Generated_Source\PSoC4/CyLib.c ****     *  checked against match.
1273:.\Generated_Source\PSoC4/CyLib.c ****     *
ARM GAS  C:\Users\CHUCK~1.ERH\AppData\Local\Temp\ccGtqbdp.s 			page 45


1274:.\Generated_Source\PSoC4/CyLib.c ****     * Parameters:
1275:.\Generated_Source\PSoC4/CyLib.c ****     *  bitsNum:
1276:.\Generated_Source\PSoC4/CyLib.c ****     *   Valid range [0-15]. Number of MSB bits.
1277:.\Generated_Source\PSoC4/CyLib.c ****     *
1278:.\Generated_Source\PSoC4/CyLib.c ****     * Return:
1279:.\Generated_Source\PSoC4/CyLib.c ****     *  None
1280:.\Generated_Source\PSoC4/CyLib.c ****     *
1281:.\Generated_Source\PSoC4/CyLib.c ****     * Side Effects:
1282:.\Generated_Source\PSoC4/CyLib.c ****     *  The value of bitsNum provides control over the time-to-reset of the watchdog
1283:.\Generated_Source\PSoC4/CyLib.c ****     *  (which happens after 3 successive matches).
1284:.\Generated_Source\PSoC4/CyLib.c ****     *
1285:.\Generated_Source\PSoC4/CyLib.c ****     *******************************************************************************/
1286:.\Generated_Source\PSoC4/CyLib.c ****     void CySysWdtWriteIgnoreBits(uint32 bitsNum)
1287:.\Generated_Source\PSoC4/CyLib.c ****     {
1288:.\Generated_Source\PSoC4/CyLib.c ****         bitsNum = ((uint32)(bitsNum << 16u) & CY_SYS_WDT_IGNORE_BITS_MASK);
1289:.\Generated_Source\PSoC4/CyLib.c ****         CY_SYS_WDT_MATCH_REG = (CY_SYS_WDT_MATCH_REG & (uint32)(~CY_SYS_WDT_IGNORE_BITS_MASK)) | bi
1290:.\Generated_Source\PSoC4/CyLib.c ****     }
1291:.\Generated_Source\PSoC4/CyLib.c **** 
1292:.\Generated_Source\PSoC4/CyLib.c **** 
1293:.\Generated_Source\PSoC4/CyLib.c ****     /*******************************************************************************
1294:.\Generated_Source\PSoC4/CyLib.c ****     * Function Name: CySysWdtReadIgnoreBits
1295:.\Generated_Source\PSoC4/CyLib.c ****     ********************************************************************************
1296:.\Generated_Source\PSoC4/CyLib.c ****     *
1297:.\Generated_Source\PSoC4/CyLib.c ****     * Summary:
1298:.\Generated_Source\PSoC4/CyLib.c ****     *  Reads the number of MSB bits of the watchdog timer that are not
1299:.\Generated_Source\PSoC4/CyLib.c ****     *  checked against match.
1300:.\Generated_Source\PSoC4/CyLib.c ****     *
1301:.\Generated_Source\PSoC4/CyLib.c ****     * Parameters:
1302:.\Generated_Source\PSoC4/CyLib.c ****     *  None
1303:.\Generated_Source\PSoC4/CyLib.c ****     *
1304:.\Generated_Source\PSoC4/CyLib.c ****     * Return:
1305:.\Generated_Source\PSoC4/CyLib.c ****     *  Number of MSB bits.
1306:.\Generated_Source\PSoC4/CyLib.c ****     *
1307:.\Generated_Source\PSoC4/CyLib.c ****     * Side Effects:
1308:.\Generated_Source\PSoC4/CyLib.c ****     *  None
1309:.\Generated_Source\PSoC4/CyLib.c ****     *
1310:.\Generated_Source\PSoC4/CyLib.c ****     *******************************************************************************/
1311:.\Generated_Source\PSoC4/CyLib.c ****     uint32 CySysWdtReadIgnoreBits(void)
1312:.\Generated_Source\PSoC4/CyLib.c ****     {
1313:.\Generated_Source\PSoC4/CyLib.c ****         return((uint32)(CY_SYS_WDT_MATCH_REG  >> 16u) & CY_SYS_WDT_IGNORE_BITS_MASK);
1314:.\Generated_Source\PSoC4/CyLib.c ****     }
1315:.\Generated_Source\PSoC4/CyLib.c **** 
1316:.\Generated_Source\PSoC4/CyLib.c **** 
1317:.\Generated_Source\PSoC4/CyLib.c ****     /*******************************************************************************
1318:.\Generated_Source\PSoC4/CyLib.c ****     * Function Name: CySysWdtClearInterrupt
1319:.\Generated_Source\PSoC4/CyLib.c ****     ********************************************************************************
1320:.\Generated_Source\PSoC4/CyLib.c ****     *
1321:.\Generated_Source\PSoC4/CyLib.c ****     * Summary:
1322:.\Generated_Source\PSoC4/CyLib.c ****     *  Cleans WDT match flag, which is set every time WDT counter reaches WDT match
1323:.\Generated_Source\PSoC4/CyLib.c ****     *  value.
1324:.\Generated_Source\PSoC4/CyLib.c ****     *
1325:.\Generated_Source\PSoC4/CyLib.c ****     * Parameters:
1326:.\Generated_Source\PSoC4/CyLib.c ****     *  None
1327:.\Generated_Source\PSoC4/CyLib.c ****     *
1328:.\Generated_Source\PSoC4/CyLib.c ****     * Return:
1329:.\Generated_Source\PSoC4/CyLib.c ****     *  None
1330:.\Generated_Source\PSoC4/CyLib.c ****     *
ARM GAS  C:\Users\CHUCK~1.ERH\AppData\Local\Temp\ccGtqbdp.s 			page 46


1331:.\Generated_Source\PSoC4/CyLib.c ****     * Side Effects:
1332:.\Generated_Source\PSoC4/CyLib.c ****     *  Clearing this bit also feeds the watch dog.  Missing 2 interrupts in a row
1333:.\Generated_Source\PSoC4/CyLib.c ****     *  will generate brown-out reset.
1334:.\Generated_Source\PSoC4/CyLib.c ****     *
1335:.\Generated_Source\PSoC4/CyLib.c ****     *******************************************************************************/
1336:.\Generated_Source\PSoC4/CyLib.c ****     void CySysWdtClearInterrupt(void)
1337:.\Generated_Source\PSoC4/CyLib.c ****     {
1338:.\Generated_Source\PSoC4/CyLib.c ****         CY_SYS_SRSS_INTR_REG |= CY_SYS_WDT_LOWER_BIT_MASK;
1339:.\Generated_Source\PSoC4/CyLib.c ****     }
1340:.\Generated_Source\PSoC4/CyLib.c **** 
1341:.\Generated_Source\PSoC4/CyLib.c **** 
1342:.\Generated_Source\PSoC4/CyLib.c ****     /*******************************************************************************
1343:.\Generated_Source\PSoC4/CyLib.c ****     * Function Name: CySysWdtMaskInterrupt
1344:.\Generated_Source\PSoC4/CyLib.c ****     ********************************************************************************
1345:.\Generated_Source\PSoC4/CyLib.c ****     *
1346:.\Generated_Source\PSoC4/CyLib.c ****     * Summary:
1347:.\Generated_Source\PSoC4/CyLib.c ****     *  After masking interrupts from WDT, they are not passed to CPU.
1348:.\Generated_Source\PSoC4/CyLib.c ****     *
1349:.\Generated_Source\PSoC4/CyLib.c ****     * Parameters:
1350:.\Generated_Source\PSoC4/CyLib.c ****     *  None
1351:.\Generated_Source\PSoC4/CyLib.c ****     *
1352:.\Generated_Source\PSoC4/CyLib.c ****     * Return:
1353:.\Generated_Source\PSoC4/CyLib.c ****     *  None
1354:.\Generated_Source\PSoC4/CyLib.c ****     *
1355:.\Generated_Source\PSoC4/CyLib.c ****     * Side Effects:
1356:.\Generated_Source\PSoC4/CyLib.c ****     *  This API does notdisable the WDT reset generation on 2 missed interrupts.
1357:.\Generated_Source\PSoC4/CyLib.c ****     *
1358:.\Generated_Source\PSoC4/CyLib.c ****     *******************************************************************************/
1359:.\Generated_Source\PSoC4/CyLib.c ****     void CySysWdtMaskInterrupt(void)
1360:.\Generated_Source\PSoC4/CyLib.c ****     {
1361:.\Generated_Source\PSoC4/CyLib.c ****         CY_SYS_SRSS_INTR_MASK_REG &= (uint32)(~CY_SYS_WDT_LOWER_BIT_MASK);
1362:.\Generated_Source\PSoC4/CyLib.c ****     }
1363:.\Generated_Source\PSoC4/CyLib.c **** 
1364:.\Generated_Source\PSoC4/CyLib.c **** 
1365:.\Generated_Source\PSoC4/CyLib.c ****     /*******************************************************************************
1366:.\Generated_Source\PSoC4/CyLib.c ****     * Function Name: CySysWdtUnmaskInterrupt
1367:.\Generated_Source\PSoC4/CyLib.c ****     ********************************************************************************
1368:.\Generated_Source\PSoC4/CyLib.c ****     *
1369:.\Generated_Source\PSoC4/CyLib.c ****     * Summary:
1370:.\Generated_Source\PSoC4/CyLib.c ****     *  Unmasks WDT interrupts.
1371:.\Generated_Source\PSoC4/CyLib.c ****     *
1372:.\Generated_Source\PSoC4/CyLib.c ****     * Parameters:
1373:.\Generated_Source\PSoC4/CyLib.c ****     *  None
1374:.\Generated_Source\PSoC4/CyLib.c ****     *
1375:.\Generated_Source\PSoC4/CyLib.c ****     * Return:
1376:.\Generated_Source\PSoC4/CyLib.c ****     *  None
1377:.\Generated_Source\PSoC4/CyLib.c ****     *
1378:.\Generated_Source\PSoC4/CyLib.c ****     * Side Effects:
1379:.\Generated_Source\PSoC4/CyLib.c ****     *  None
1380:.\Generated_Source\PSoC4/CyLib.c ****     *
1381:.\Generated_Source\PSoC4/CyLib.c ****     *******************************************************************************/
1382:.\Generated_Source\PSoC4/CyLib.c ****     void CySysWdtUnmaskInterrupt(void)
1383:.\Generated_Source\PSoC4/CyLib.c ****     {
1384:.\Generated_Source\PSoC4/CyLib.c ****         CY_SYS_SRSS_INTR_MASK_REG |= CY_SYS_WDT_LOWER_BIT_MASK;
1385:.\Generated_Source\PSoC4/CyLib.c ****     }
1386:.\Generated_Source\PSoC4/CyLib.c **** 
1387:.\Generated_Source\PSoC4/CyLib.c **** #endif /* (CY_PSOC4A) */
ARM GAS  C:\Users\CHUCK~1.ERH\AppData\Local\Temp\ccGtqbdp.s 			page 47


1388:.\Generated_Source\PSoC4/CyLib.c **** 
1389:.\Generated_Source\PSoC4/CyLib.c **** 
1390:.\Generated_Source\PSoC4/CyLib.c **** #if(CY_PSOC4A)
1391:.\Generated_Source\PSoC4/CyLib.c **** 
1392:.\Generated_Source\PSoC4/CyLib.c ****     /*******************************************************************************
1393:.\Generated_Source\PSoC4/CyLib.c ****     * Function Name: CySysLvdEnable
1394:.\Generated_Source\PSoC4/CyLib.c ****     ********************************************************************************
1395:.\Generated_Source\PSoC4/CyLib.c ****     *
1396:.\Generated_Source\PSoC4/CyLib.c ****     * Summary:
1397:.\Generated_Source\PSoC4/CyLib.c ****     *  Enables the output of the low-voltage monitor when Vddd is at or below the
1398:.\Generated_Source\PSoC4/CyLib.c ****     *  trip point, configures device to generate an interrupt, and sets the voltage
1399:.\Generated_Source\PSoC4/CyLib.c ****     *  trip level.
1400:.\Generated_Source\PSoC4/CyLib.c ****     *
1401:.\Generated_Source\PSoC4/CyLib.c ****     * Parameters:
1402:.\Generated_Source\PSoC4/CyLib.c ****     *  threshold: Threshold selection for Low Voltage Detect circuit.
1403:.\Generated_Source\PSoC4/CyLib.c ****     *  Threshold variation is +/- 2.5% from these typical voltage choices.
1404:.\Generated_Source\PSoC4/CyLib.c ****     *         Define                     Voltage threshold
1405:.\Generated_Source\PSoC4/CyLib.c ****     *    CY_LVD_THRESHOLD_1_75_V       1.7500 V
1406:.\Generated_Source\PSoC4/CyLib.c ****     *    CY_LVD_THRESHOLD_1_80_V       1.8000 V
1407:.\Generated_Source\PSoC4/CyLib.c ****     *    CY_LVD_THRESHOLD_1_90_V       1.9000 V
1408:.\Generated_Source\PSoC4/CyLib.c ****     *    CY_LVD_THRESHOLD_2_00_V       2.0000 V
1409:.\Generated_Source\PSoC4/CyLib.c ****     *    CY_LVD_THRESHOLD_2_10_V       2.1000 V
1410:.\Generated_Source\PSoC4/CyLib.c ****     *    CY_LVD_THRESHOLD_2_20_V       2.2000 V
1411:.\Generated_Source\PSoC4/CyLib.c ****     *    CY_LVD_THRESHOLD_2_30_V       2.3000 V
1412:.\Generated_Source\PSoC4/CyLib.c ****     *    CY_LVD_THRESHOLD_2_40_V       2.4000 V
1413:.\Generated_Source\PSoC4/CyLib.c ****     *    CY_LVD_THRESHOLD_2_50_V       2.5000 V
1414:.\Generated_Source\PSoC4/CyLib.c ****     *    CY_LVD_THRESHOLD_2_60_V       2.6000 V
1415:.\Generated_Source\PSoC4/CyLib.c ****     *    CY_LVD_THRESHOLD_2_70_V       2.7000 V
1416:.\Generated_Source\PSoC4/CyLib.c ****     *    CY_LVD_THRESHOLD_2_80_V       2.8000 V
1417:.\Generated_Source\PSoC4/CyLib.c ****     *    CY_LVD_THRESHOLD_2_90_V       2.9000 V
1418:.\Generated_Source\PSoC4/CyLib.c ****     *    CY_LVD_THRESHOLD_3_00_V       3.0000 V
1419:.\Generated_Source\PSoC4/CyLib.c ****     *    CY_LVD_THRESHOLD_3_20_V       3.2000 V
1420:.\Generated_Source\PSoC4/CyLib.c ****     *    CY_LVD_THRESHOLD_4_50_V       4.5000 V
1421:.\Generated_Source\PSoC4/CyLib.c ****     *
1422:.\Generated_Source\PSoC4/CyLib.c ****     * Return:
1423:.\Generated_Source\PSoC4/CyLib.c ****     *  None
1424:.\Generated_Source\PSoC4/CyLib.c ****     *
1425:.\Generated_Source\PSoC4/CyLib.c ****     *******************************************************************************/
1426:.\Generated_Source\PSoC4/CyLib.c ****     void CySysLvdEnable(uint32 threshold)
1427:.\Generated_Source\PSoC4/CyLib.c ****     {
 1187              		.loc 1 1427 0
 1188              		.cfi_startproc
 1189              	.LVL89:
1428:.\Generated_Source\PSoC4/CyLib.c ****         /* Set threshold */
1429:.\Generated_Source\PSoC4/CyLib.c ****         CY_LVD_PWR_VMON_CONFIG_REG = (CY_LVD_PWR_VMON_CONFIG_REG & ~CY_LVD_PWR_VMON_CONFIG_LVD_SEL_
 1190              		.loc 1 1429 0
 1191 0000 084B     		ldr	r3, .L98
1430:.\Generated_Source\PSoC4/CyLib.c ****                 ((threshold << CY_LVD_PWR_VMON_CONFIG_LVD_SEL_SHIFT) & CY_LVD_PWR_VMON_CONFIG_LVD_S
 1192              		.loc 1 1430 0
 1193 0002 1E22     		mov	r2, #30
1429:.\Generated_Source\PSoC4/CyLib.c ****         CY_LVD_PWR_VMON_CONFIG_REG = (CY_LVD_PWR_VMON_CONFIG_REG & ~CY_LVD_PWR_VMON_CONFIG_LVD_SEL_
 1194              		.loc 1 1429 0
 1195 0004 1968     		ldr	r1, [r3]
 1196              		.loc 1 1430 0
 1197 0006 4000     		lsl	r0, r0, #1
 1198              	.LVL90:
1429:.\Generated_Source\PSoC4/CyLib.c ****         CY_LVD_PWR_VMON_CONFIG_REG = (CY_LVD_PWR_VMON_CONFIG_REG & ~CY_LVD_PWR_VMON_CONFIG_LVD_SEL_
ARM GAS  C:\Users\CHUCK~1.ERH\AppData\Local\Temp\ccGtqbdp.s 			page 48


 1199              		.loc 1 1429 0
 1200 0008 9143     		bic	r1, r2
 1201              		.loc 1 1430 0
 1202 000a 1040     		and	r0, r2
1429:.\Generated_Source\PSoC4/CyLib.c ****         CY_LVD_PWR_VMON_CONFIG_REG = (CY_LVD_PWR_VMON_CONFIG_REG & ~CY_LVD_PWR_VMON_CONFIG_LVD_SEL_
 1203              		.loc 1 1429 0
 1204 000c 0843     		orr	r0, r1
 1205 000e 1860     		str	r0, [r3]
1431:.\Generated_Source\PSoC4/CyLib.c **** 
1432:.\Generated_Source\PSoC4/CyLib.c ****         CY_LVD_PWR_VMON_CONFIG_REG |= CY_LVD_PWR_VMON_CONFIG_LVD_EN;
 1206              		.loc 1 1432 0
 1207 0010 1868     		ldr	r0, [r3]
 1208 0012 0122     		mov	r2, #1
 1209 0014 1043     		orr	r0, r2
 1210 0016 1860     		str	r0, [r3]
1433:.\Generated_Source\PSoC4/CyLib.c ****         CY_LVD_PWR_INTR_MASK_REG   |= CY_LVD_PROPAGATE_INT_TO_CPU;
 1211              		.loc 1 1433 0
 1212 0018 034B     		ldr	r3, .L98+4
 1213 001a 0221     		mov	r1, #2
 1214 001c 1868     		ldr	r0, [r3]
1434:.\Generated_Source\PSoC4/CyLib.c ****     }
 1215              		.loc 1 1434 0
 1216              		@ sp needed for prologue
1433:.\Generated_Source\PSoC4/CyLib.c ****         CY_LVD_PWR_INTR_MASK_REG   |= CY_LVD_PROPAGATE_INT_TO_CPU;
 1217              		.loc 1 1433 0
 1218 001e 0843     		orr	r0, r1
 1219 0020 1860     		str	r0, [r3]
 1220              		.loc 1 1434 0
 1221 0022 7047     		bx	lr
 1222              	.L99:
 1223              		.align	2
 1224              	.L98:
 1225 0024 18000B40 		.word	1074462744
 1226 0028 08000B40 		.word	1074462728
 1227              		.cfi_endproc
 1228              	.LFE26:
 1229              		.size	CySysLvdEnable, .-CySysLvdEnable
 1230              		.section	.text.CySysLvdDisable,"ax",%progbits
 1231              		.align	1
 1232              		.global	CySysLvdDisable
 1233              		.code	16
 1234              		.thumb_func
 1235              		.type	CySysLvdDisable, %function
 1236              	CySysLvdDisable:
 1237              	.LFB27:
1435:.\Generated_Source\PSoC4/CyLib.c **** 
1436:.\Generated_Source\PSoC4/CyLib.c **** 
1437:.\Generated_Source\PSoC4/CyLib.c ****     /*******************************************************************************
1438:.\Generated_Source\PSoC4/CyLib.c ****     * Function Name: CySysLvdDisable
1439:.\Generated_Source\PSoC4/CyLib.c ****     ********************************************************************************
1440:.\Generated_Source\PSoC4/CyLib.c ****     *
1441:.\Generated_Source\PSoC4/CyLib.c ****     * Summary:
1442:.\Generated_Source\PSoC4/CyLib.c ****     *  Disables the low voltage detection. Low voltage interrupt is disabled.
1443:.\Generated_Source\PSoC4/CyLib.c ****     *
1444:.\Generated_Source\PSoC4/CyLib.c ****     * Parameters:
1445:.\Generated_Source\PSoC4/CyLib.c ****     *  None
1446:.\Generated_Source\PSoC4/CyLib.c ****     *
ARM GAS  C:\Users\CHUCK~1.ERH\AppData\Local\Temp\ccGtqbdp.s 			page 49


1447:.\Generated_Source\PSoC4/CyLib.c ****     * Return:
1448:.\Generated_Source\PSoC4/CyLib.c ****     *  None
1449:.\Generated_Source\PSoC4/CyLib.c ****     *
1450:.\Generated_Source\PSoC4/CyLib.c ****     *******************************************************************************/
1451:.\Generated_Source\PSoC4/CyLib.c ****     void CySysLvdDisable(void)
1452:.\Generated_Source\PSoC4/CyLib.c ****     {
 1238              		.loc 1 1452 0
 1239              		.cfi_startproc
1453:.\Generated_Source\PSoC4/CyLib.c ****         CY_LVD_PWR_INTR_MASK_REG   &= ~CY_LVD_PROPAGATE_INT_TO_CPU;
 1240              		.loc 1 1453 0
 1241 0000 054B     		ldr	r3, .L101
 1242 0002 0221     		mov	r1, #2
 1243 0004 1A68     		ldr	r2, [r3]
1454:.\Generated_Source\PSoC4/CyLib.c ****         CY_LVD_PWR_VMON_CONFIG_REG &= ~CY_LVD_PWR_VMON_CONFIG_LVD_EN;
 1244              		.loc 1 1454 0
 1245 0006 0548     		ldr	r0, .L101+4
1453:.\Generated_Source\PSoC4/CyLib.c ****         CY_LVD_PWR_INTR_MASK_REG   &= ~CY_LVD_PROPAGATE_INT_TO_CPU;
 1246              		.loc 1 1453 0
 1247 0008 8A43     		bic	r2, r1
 1248 000a 1A60     		str	r2, [r3]
 1249              		.loc 1 1454 0
 1250 000c 0368     		ldr	r3, [r0]
 1251 000e 0122     		mov	r2, #1
 1252 0010 9343     		bic	r3, r2
 1253 0012 0360     		str	r3, [r0]
1455:.\Generated_Source\PSoC4/CyLib.c ****     }
 1254              		.loc 1 1455 0
 1255              		@ sp needed for prologue
 1256 0014 7047     		bx	lr
 1257              	.L102:
 1258 0016 C046     		.align	2
 1259              	.L101:
 1260 0018 08000B40 		.word	1074462728
 1261 001c 18000B40 		.word	1074462744
 1262              		.cfi_endproc
 1263              	.LFE27:
 1264              		.size	CySysLvdDisable, .-CySysLvdDisable
 1265              		.section	.text.CySysLvdGetInterruptSource,"ax",%progbits
 1266              		.align	1
 1267              		.global	CySysLvdGetInterruptSource
 1268              		.code	16
 1269              		.thumb_func
 1270              		.type	CySysLvdGetInterruptSource, %function
 1271              	CySysLvdGetInterruptSource:
 1272              	.LFB28:
1456:.\Generated_Source\PSoC4/CyLib.c **** 
1457:.\Generated_Source\PSoC4/CyLib.c **** 
1458:.\Generated_Source\PSoC4/CyLib.c ****     /*******************************************************************************
1459:.\Generated_Source\PSoC4/CyLib.c ****     * Function Name: CySysLvdGetInterruptSource
1460:.\Generated_Source\PSoC4/CyLib.c ****     ********************************************************************************
1461:.\Generated_Source\PSoC4/CyLib.c ****     *
1462:.\Generated_Source\PSoC4/CyLib.c ****     * Summary:
1463:.\Generated_Source\PSoC4/CyLib.c ****     *  Gets the low voltage detection interrupt status (without clearing).
1464:.\Generated_Source\PSoC4/CyLib.c ****     *
1465:.\Generated_Source\PSoC4/CyLib.c ****     * Parameters:
1466:.\Generated_Source\PSoC4/CyLib.c ****     *  None
1467:.\Generated_Source\PSoC4/CyLib.c ****     *
ARM GAS  C:\Users\CHUCK~1.ERH\AppData\Local\Temp\ccGtqbdp.s 			page 50


1468:.\Generated_Source\PSoC4/CyLib.c ****     * Return:
1469:.\Generated_Source\PSoC4/CyLib.c ****     *  Interrupt request value:
1470:.\Generated_Source\PSoC4/CyLib.c ****     *    CY_SYS_LVD_INT - Indicates an Low Voltage Detect interrupt
1471:.\Generated_Source\PSoC4/CyLib.c ****     *
1472:.\Generated_Source\PSoC4/CyLib.c ****     *******************************************************************************/
1473:.\Generated_Source\PSoC4/CyLib.c ****     uint32 CySysLvdGetInterruptSource(void)
1474:.\Generated_Source\PSoC4/CyLib.c ****     {
 1273              		.loc 1 1474 0
 1274              		.cfi_startproc
1475:.\Generated_Source\PSoC4/CyLib.c ****         return (CY_LVD_PWR_INTR_REG & CY_SYS_LVD_INT);
 1275              		.loc 1 1475 0
 1276 0000 024B     		ldr	r3, .L104
 1277 0002 0221     		mov	r1, #2
 1278 0004 1868     		ldr	r0, [r3]
1476:.\Generated_Source\PSoC4/CyLib.c ****     }
 1279              		.loc 1 1476 0
 1280              		@ sp needed for prologue
1475:.\Generated_Source\PSoC4/CyLib.c ****         return (CY_LVD_PWR_INTR_REG & CY_SYS_LVD_INT);
 1281              		.loc 1 1475 0
 1282 0006 0840     		and	r0, r1
 1283              		.loc 1 1476 0
 1284 0008 7047     		bx	lr
 1285              	.L105:
 1286 000a C046     		.align	2
 1287              	.L104:
 1288 000c 04000B40 		.word	1074462724
 1289              		.cfi_endproc
 1290              	.LFE28:
 1291              		.size	CySysLvdGetInterruptSource, .-CySysLvdGetInterruptSource
 1292              		.section	.text.CySysLvdClearInterrupt,"ax",%progbits
 1293              		.align	1
 1294              		.global	CySysLvdClearInterrupt
 1295              		.code	16
 1296              		.thumb_func
 1297              		.type	CySysLvdClearInterrupt, %function
 1298              	CySysLvdClearInterrupt:
 1299              	.LFB29:
1477:.\Generated_Source\PSoC4/CyLib.c **** 
1478:.\Generated_Source\PSoC4/CyLib.c **** 
1479:.\Generated_Source\PSoC4/CyLib.c ****     /*******************************************************************************
1480:.\Generated_Source\PSoC4/CyLib.c ****     * Function Name: CySysLvdClearInterrupt
1481:.\Generated_Source\PSoC4/CyLib.c ****     ********************************************************************************
1482:.\Generated_Source\PSoC4/CyLib.c ****     *
1483:.\Generated_Source\PSoC4/CyLib.c ****     * Summary:
1484:.\Generated_Source\PSoC4/CyLib.c ****     *  Clears the low voltage detection interrupt status.
1485:.\Generated_Source\PSoC4/CyLib.c ****     *
1486:.\Generated_Source\PSoC4/CyLib.c ****     * Parameters:
1487:.\Generated_Source\PSoC4/CyLib.c ****     *  None
1488:.\Generated_Source\PSoC4/CyLib.c ****     *
1489:.\Generated_Source\PSoC4/CyLib.c ****     * Return:
1490:.\Generated_Source\PSoC4/CyLib.c ****     *  None
1491:.\Generated_Source\PSoC4/CyLib.c ****     *
1492:.\Generated_Source\PSoC4/CyLib.c ****     *******************************************************************************/
1493:.\Generated_Source\PSoC4/CyLib.c ****     void CySysLvdClearInterrupt(void)
1494:.\Generated_Source\PSoC4/CyLib.c ****     {
 1300              		.loc 1 1494 0
 1301              		.cfi_startproc
ARM GAS  C:\Users\CHUCK~1.ERH\AppData\Local\Temp\ccGtqbdp.s 			page 51


1495:.\Generated_Source\PSoC4/CyLib.c ****         CY_LVD_PWR_INTR_REG = CY_SYS_LVD_INT;
 1302              		.loc 1 1495 0
 1303 0000 014B     		ldr	r3, .L107
 1304 0002 0222     		mov	r2, #2
 1305 0004 1A60     		str	r2, [r3]
1496:.\Generated_Source\PSoC4/CyLib.c ****     }
 1306              		.loc 1 1496 0
 1307              		@ sp needed for prologue
 1308 0006 7047     		bx	lr
 1309              	.L108:
 1310              		.align	2
 1311              	.L107:
 1312 0008 04000B40 		.word	1074462724
 1313              		.cfi_endproc
 1314              	.LFE29:
 1315              		.size	CySysLvdClearInterrupt, .-CySysLvdClearInterrupt
 1316              		.section	.text.CyDisableInts,"ax",%progbits
 1317              		.align	1
 1318              		.global	CyDisableInts
 1319              		.code	16
 1320              		.thumb_func
 1321              		.type	CyDisableInts, %function
 1322              	CyDisableInts:
 1323              	.LFB30:
1497:.\Generated_Source\PSoC4/CyLib.c **** 
1498:.\Generated_Source\PSoC4/CyLib.c **** #endif /* (CY_PSOC4A) */
1499:.\Generated_Source\PSoC4/CyLib.c **** 
1500:.\Generated_Source\PSoC4/CyLib.c **** 
1501:.\Generated_Source\PSoC4/CyLib.c **** /*******************************************************************************
1502:.\Generated_Source\PSoC4/CyLib.c **** * Function Name: CyDisableInts
1503:.\Generated_Source\PSoC4/CyLib.c **** ********************************************************************************
1504:.\Generated_Source\PSoC4/CyLib.c **** *
1505:.\Generated_Source\PSoC4/CyLib.c **** * Summary:
1506:.\Generated_Source\PSoC4/CyLib.c **** *  Disables all interrupts.
1507:.\Generated_Source\PSoC4/CyLib.c **** *
1508:.\Generated_Source\PSoC4/CyLib.c **** * Parameters:
1509:.\Generated_Source\PSoC4/CyLib.c **** *  None
1510:.\Generated_Source\PSoC4/CyLib.c **** *
1511:.\Generated_Source\PSoC4/CyLib.c **** * Return:
1512:.\Generated_Source\PSoC4/CyLib.c **** *  32 bit mask of previously enabled interrupts.
1513:.\Generated_Source\PSoC4/CyLib.c **** *
1514:.\Generated_Source\PSoC4/CyLib.c **** *******************************************************************************/
1515:.\Generated_Source\PSoC4/CyLib.c **** uint32 CyDisableInts(void)
1516:.\Generated_Source\PSoC4/CyLib.c **** {
 1324              		.loc 1 1516 0
 1325              		.cfi_startproc
1517:.\Generated_Source\PSoC4/CyLib.c ****     uint32 intState;
1518:.\Generated_Source\PSoC4/CyLib.c **** 
1519:.\Generated_Source\PSoC4/CyLib.c ****     /* Get the curreent interrupt state. */
1520:.\Generated_Source\PSoC4/CyLib.c ****     intState = CY_INT_CLEAR_REG;
 1326              		.loc 1 1520 0
 1327 0000 024B     		ldr	r3, .L110
1521:.\Generated_Source\PSoC4/CyLib.c **** 
1522:.\Generated_Source\PSoC4/CyLib.c ****     /* Disable all of the interrupts. */
1523:.\Generated_Source\PSoC4/CyLib.c ****     CY_INT_CLEAR_REG = CY_INT_CLEAR_DISABLE_ALL;
 1328              		.loc 1 1523 0
 1329 0002 0122     		mov	r2, #1
ARM GAS  C:\Users\CHUCK~1.ERH\AppData\Local\Temp\ccGtqbdp.s 			page 52


 1330 0004 5142     		neg	r1, r2
1520:.\Generated_Source\PSoC4/CyLib.c ****     intState = CY_INT_CLEAR_REG;
 1331              		.loc 1 1520 0
 1332 0006 1868     		ldr	r0, [r3]
 1333              	.LVL91:
1524:.\Generated_Source\PSoC4/CyLib.c **** 
1525:.\Generated_Source\PSoC4/CyLib.c ****     return (intState);
1526:.\Generated_Source\PSoC4/CyLib.c **** }
 1334              		.loc 1 1526 0
 1335              		@ sp needed for prologue
1523:.\Generated_Source\PSoC4/CyLib.c ****     CY_INT_CLEAR_REG = CY_INT_CLEAR_DISABLE_ALL;
 1336              		.loc 1 1523 0
 1337 0008 1960     		str	r1, [r3]
 1338              		.loc 1 1526 0
 1339 000a 7047     		bx	lr
 1340              	.L111:
 1341              		.align	2
 1342              	.L110:
 1343 000c 80E100E0 		.word	-536813184
 1344              		.cfi_endproc
 1345              	.LFE30:
 1346              		.size	CyDisableInts, .-CyDisableInts
 1347              		.section	.text.CyEnableInts,"ax",%progbits
 1348              		.align	1
 1349              		.global	CyEnableInts
 1350              		.code	16
 1351              		.thumb_func
 1352              		.type	CyEnableInts, %function
 1353              	CyEnableInts:
 1354              	.LFB31:
1527:.\Generated_Source\PSoC4/CyLib.c **** 
1528:.\Generated_Source\PSoC4/CyLib.c **** 
1529:.\Generated_Source\PSoC4/CyLib.c **** /*******************************************************************************
1530:.\Generated_Source\PSoC4/CyLib.c **** * Function Name: CyEnableInts
1531:.\Generated_Source\PSoC4/CyLib.c **** ********************************************************************************
1532:.\Generated_Source\PSoC4/CyLib.c **** *
1533:.\Generated_Source\PSoC4/CyLib.c **** * Summary:
1534:.\Generated_Source\PSoC4/CyLib.c **** *  Enables interrupts to a given state.
1535:.\Generated_Source\PSoC4/CyLib.c **** *
1536:.\Generated_Source\PSoC4/CyLib.c **** * Parameters:
1537:.\Generated_Source\PSoC4/CyLib.c **** *   mask, 32 bit mask of interrupts to enable.
1538:.\Generated_Source\PSoC4/CyLib.c **** *
1539:.\Generated_Source\PSoC4/CyLib.c **** * Return:
1540:.\Generated_Source\PSoC4/CyLib.c **** *  None
1541:.\Generated_Source\PSoC4/CyLib.c **** *
1542:.\Generated_Source\PSoC4/CyLib.c **** *******************************************************************************/
1543:.\Generated_Source\PSoC4/CyLib.c **** void CyEnableInts(uint32 mask)
1544:.\Generated_Source\PSoC4/CyLib.c **** {
 1355              		.loc 1 1544 0
 1356              		.cfi_startproc
 1357              	.LVL92:
1545:.\Generated_Source\PSoC4/CyLib.c ****     CY_INT_ENABLE_REG = mask;
 1358              		.loc 1 1545 0
 1359 0000 014B     		ldr	r3, .L113
1546:.\Generated_Source\PSoC4/CyLib.c **** }
 1360              		.loc 1 1546 0
 1361              		@ sp needed for prologue
ARM GAS  C:\Users\CHUCK~1.ERH\AppData\Local\Temp\ccGtqbdp.s 			page 53


1545:.\Generated_Source\PSoC4/CyLib.c ****     CY_INT_ENABLE_REG = mask;
 1362              		.loc 1 1545 0
 1363 0002 1860     		str	r0, [r3]
 1364              		.loc 1 1546 0
 1365 0004 7047     		bx	lr
 1366              	.L114:
 1367 0006 C046     		.align	2
 1368              	.L113:
 1369 0008 00E100E0 		.word	-536813312
 1370              		.cfi_endproc
 1371              	.LFE31:
 1372              		.size	CyEnableInts, .-CyEnableInts
 1373              		.section	.text.CyIntSetSysVector,"ax",%progbits
 1374              		.align	1
 1375              		.global	CyIntSetSysVector
 1376              		.code	16
 1377              		.thumb_func
 1378              		.type	CyIntSetSysVector, %function
 1379              	CyIntSetSysVector:
 1380              	.LFB32:
1547:.\Generated_Source\PSoC4/CyLib.c **** 
1548:.\Generated_Source\PSoC4/CyLib.c **** 
1549:.\Generated_Source\PSoC4/CyLib.c **** /*******************************************************************************
1550:.\Generated_Source\PSoC4/CyLib.c **** * Function Name: CyIntSetSysVector
1551:.\Generated_Source\PSoC4/CyLib.c **** ********************************************************************************
1552:.\Generated_Source\PSoC4/CyLib.c **** *
1553:.\Generated_Source\PSoC4/CyLib.c **** * Summary:
1554:.\Generated_Source\PSoC4/CyLib.c **** *  Sets the interrupt vector of the specified system interrupt number. These
1555:.\Generated_Source\PSoC4/CyLib.c **** *  interrupts are for SysTick, PendSV and others.
1556:.\Generated_Source\PSoC4/CyLib.c **** *
1557:.\Generated_Source\PSoC4/CyLib.c **** * Parameters:
1558:.\Generated_Source\PSoC4/CyLib.c **** *  number: Interrupt number, valid range [0-15].
1559:.\Generated_Source\PSoC4/CyLib.c **** *  address: Pointer to an interrupt service routine.
1560:.\Generated_Source\PSoC4/CyLib.c **** *
1561:.\Generated_Source\PSoC4/CyLib.c **** * Return:
1562:.\Generated_Source\PSoC4/CyLib.c **** *  The old ISR vector at this location.
1563:.\Generated_Source\PSoC4/CyLib.c **** *
1564:.\Generated_Source\PSoC4/CyLib.c **** *******************************************************************************/
1565:.\Generated_Source\PSoC4/CyLib.c **** cyisraddress CyIntSetSysVector(uint8 number, cyisraddress address)
1566:.\Generated_Source\PSoC4/CyLib.c **** {
 1381              		.loc 1 1566 0
 1382              		.cfi_startproc
 1383              	.LVL93:
1567:.\Generated_Source\PSoC4/CyLib.c ****     cyisraddress oldIsr;
1568:.\Generated_Source\PSoC4/CyLib.c ****     cyisraddress *ramVectorTable = (cyisraddress *) CY_INT_VECT_TABLE;
1569:.\Generated_Source\PSoC4/CyLib.c **** 
1570:.\Generated_Source\PSoC4/CyLib.c ****     CYASSERT(number < CY_INT_IRQ_BASE);
1571:.\Generated_Source\PSoC4/CyLib.c **** 
1572:.\Generated_Source\PSoC4/CyLib.c ****     /* Save old Interrupt service routine. */
1573:.\Generated_Source\PSoC4/CyLib.c ****     oldIsr = ramVectorTable[number];
 1384              		.loc 1 1573 0
 1385 0000 8022     		mov	r2, #128
 1386 0002 8300     		lsl	r3, r0, #2
 1387 0004 9005     		lsl	r0, r2, #22
 1388              	.LVL94:
 1389 0006 1B18     		add	r3, r3, r0
 1390 0008 1868     		ldr	r0, [r3]
ARM GAS  C:\Users\CHUCK~1.ERH\AppData\Local\Temp\ccGtqbdp.s 			page 54


 1391              	.LVL95:
1574:.\Generated_Source\PSoC4/CyLib.c **** 
1575:.\Generated_Source\PSoC4/CyLib.c ****     /* Set new Interrupt service routine. */
1576:.\Generated_Source\PSoC4/CyLib.c ****     ramVectorTable[number] = address;
1577:.\Generated_Source\PSoC4/CyLib.c **** 
1578:.\Generated_Source\PSoC4/CyLib.c ****     return(oldIsr);
1579:.\Generated_Source\PSoC4/CyLib.c **** }
 1392              		.loc 1 1579 0
 1393              		@ sp needed for prologue
1576:.\Generated_Source\PSoC4/CyLib.c ****     ramVectorTable[number] = address;
 1394              		.loc 1 1576 0
 1395 000a 1960     		str	r1, [r3]
 1396              		.loc 1 1579 0
 1397 000c 7047     		bx	lr
 1398              		.cfi_endproc
 1399              	.LFE32:
 1400              		.size	CyIntSetSysVector, .-CyIntSetSysVector
 1401              		.section	.text.CyIntGetSysVector,"ax",%progbits
 1402              		.align	1
 1403              		.global	CyIntGetSysVector
 1404              		.code	16
 1405              		.thumb_func
 1406              		.type	CyIntGetSysVector, %function
 1407              	CyIntGetSysVector:
 1408              	.LFB33:
1580:.\Generated_Source\PSoC4/CyLib.c **** 
1581:.\Generated_Source\PSoC4/CyLib.c **** 
1582:.\Generated_Source\PSoC4/CyLib.c **** /*******************************************************************************
1583:.\Generated_Source\PSoC4/CyLib.c **** * Function Name: CyIntGetSysVector
1584:.\Generated_Source\PSoC4/CyLib.c **** ********************************************************************************
1585:.\Generated_Source\PSoC4/CyLib.c **** *
1586:.\Generated_Source\PSoC4/CyLib.c **** * Summary:
1587:.\Generated_Source\PSoC4/CyLib.c **** *   Gets the interrupt vector of the specified system interrupt number. These
1588:.\Generated_Source\PSoC4/CyLib.c **** *   interrupts are for SysTick, PendSV and others.
1589:.\Generated_Source\PSoC4/CyLib.c **** *
1590:.\Generated_Source\PSoC4/CyLib.c **** * Parameters:
1591:.\Generated_Source\PSoC4/CyLib.c **** *   number: The interrupt number, valid range [0-15].
1592:.\Generated_Source\PSoC4/CyLib.c **** *
1593:.\Generated_Source\PSoC4/CyLib.c **** * Return:
1594:.\Generated_Source\PSoC4/CyLib.c **** *   Address of the ISR in the interrupt vector table.
1595:.\Generated_Source\PSoC4/CyLib.c **** *
1596:.\Generated_Source\PSoC4/CyLib.c **** *******************************************************************************/
1597:.\Generated_Source\PSoC4/CyLib.c **** cyisraddress CyIntGetSysVector(uint8 number)
1598:.\Generated_Source\PSoC4/CyLib.c **** {
 1409              		.loc 1 1598 0
 1410              		.cfi_startproc
 1411              	.LVL96:
1599:.\Generated_Source\PSoC4/CyLib.c ****     cyisraddress *ramVectorTable = (cyisraddress *) CY_INT_VECT_TABLE;
1600:.\Generated_Source\PSoC4/CyLib.c **** 
1601:.\Generated_Source\PSoC4/CyLib.c ****     CYASSERT(number < CY_INT_IRQ_BASE);
1602:.\Generated_Source\PSoC4/CyLib.c **** 
1603:.\Generated_Source\PSoC4/CyLib.c ****     return(ramVectorTable[number]);
 1412              		.loc 1 1603 0
 1413 0000 8023     		mov	r3, #128
 1414 0002 8000     		lsl	r0, r0, #2
 1415              	.LVL97:
 1416 0004 9905     		lsl	r1, r3, #22
ARM GAS  C:\Users\CHUCK~1.ERH\AppData\Local\Temp\ccGtqbdp.s 			page 55


 1417 0006 4218     		add	r2, r0, r1
 1418 0008 1068     		ldr	r0, [r2]
1604:.\Generated_Source\PSoC4/CyLib.c **** }
 1419              		.loc 1 1604 0
 1420              		@ sp needed for prologue
 1421 000a 7047     		bx	lr
 1422              		.cfi_endproc
 1423              	.LFE33:
 1424              		.size	CyIntGetSysVector, .-CyIntGetSysVector
 1425              		.section	.text.CyIntSetVector,"ax",%progbits
 1426              		.align	1
 1427              		.global	CyIntSetVector
 1428              		.code	16
 1429              		.thumb_func
 1430              		.type	CyIntSetVector, %function
 1431              	CyIntSetVector:
 1432              	.LFB34:
1605:.\Generated_Source\PSoC4/CyLib.c **** 
1606:.\Generated_Source\PSoC4/CyLib.c **** 
1607:.\Generated_Source\PSoC4/CyLib.c **** /*******************************************************************************
1608:.\Generated_Source\PSoC4/CyLib.c **** * Function Name: CyIntSetVector
1609:.\Generated_Source\PSoC4/CyLib.c **** ********************************************************************************
1610:.\Generated_Source\PSoC4/CyLib.c **** *
1611:.\Generated_Source\PSoC4/CyLib.c **** * Summary:
1612:.\Generated_Source\PSoC4/CyLib.c **** *  Sets the interrupt vector of the specified interrupt number.
1613:.\Generated_Source\PSoC4/CyLib.c **** *
1614:.\Generated_Source\PSoC4/CyLib.c **** * Parameters:
1615:.\Generated_Source\PSoC4/CyLib.c **** *  number: Valid range [0-31].  Interrupt number
1616:.\Generated_Source\PSoC4/CyLib.c **** *  address: Pointer to an interrupt service routine
1617:.\Generated_Source\PSoC4/CyLib.c **** *
1618:.\Generated_Source\PSoC4/CyLib.c **** * Return:
1619:.\Generated_Source\PSoC4/CyLib.c **** *   Previous interrupt vector value.
1620:.\Generated_Source\PSoC4/CyLib.c **** *
1621:.\Generated_Source\PSoC4/CyLib.c **** *******************************************************************************/
1622:.\Generated_Source\PSoC4/CyLib.c **** cyisraddress CyIntSetVector(uint8 number, cyisraddress address)
1623:.\Generated_Source\PSoC4/CyLib.c **** {
 1433              		.loc 1 1623 0
 1434              		.cfi_startproc
 1435              	.LVL98:
1624:.\Generated_Source\PSoC4/CyLib.c ****     cyisraddress oldIsr;
1625:.\Generated_Source\PSoC4/CyLib.c ****     cyisraddress *ramVectorTable = (cyisraddress *) CY_INT_VECT_TABLE;
1626:.\Generated_Source\PSoC4/CyLib.c **** 
1627:.\Generated_Source\PSoC4/CyLib.c ****     CYASSERT(number < CY_NUM_INTERRUPTS);
1628:.\Generated_Source\PSoC4/CyLib.c **** 
1629:.\Generated_Source\PSoC4/CyLib.c ****     /* Save old Interrupt service routine. */
1630:.\Generated_Source\PSoC4/CyLib.c ****     oldIsr = ramVectorTable[CY_INT_IRQ_BASE + number];
 1436              		.loc 1 1630 0
 1437 0000 024A     		ldr	r2, .L118
 1438 0002 8300     		lsl	r3, r0, #2
 1439 0004 9B18     		add	r3, r3, r2
 1440 0006 1868     		ldr	r0, [r3]
 1441              	.LVL99:
1631:.\Generated_Source\PSoC4/CyLib.c **** 
1632:.\Generated_Source\PSoC4/CyLib.c ****     /* Set new Interrupt service routine. */
1633:.\Generated_Source\PSoC4/CyLib.c ****     ramVectorTable[CY_INT_IRQ_BASE + number] = address;
1634:.\Generated_Source\PSoC4/CyLib.c **** 
1635:.\Generated_Source\PSoC4/CyLib.c ****     return(oldIsr);
ARM GAS  C:\Users\CHUCK~1.ERH\AppData\Local\Temp\ccGtqbdp.s 			page 56


1636:.\Generated_Source\PSoC4/CyLib.c **** }
 1442              		.loc 1 1636 0
 1443              		@ sp needed for prologue
1633:.\Generated_Source\PSoC4/CyLib.c ****     ramVectorTable[CY_INT_IRQ_BASE + number] = address;
 1444              		.loc 1 1633 0
 1445 0008 1960     		str	r1, [r3]
 1446              		.loc 1 1636 0
 1447 000a 7047     		bx	lr
 1448              	.L119:
 1449              		.align	2
 1450              	.L118:
 1451 000c 40000020 		.word	536870976
 1452              		.cfi_endproc
 1453              	.LFE34:
 1454              		.size	CyIntSetVector, .-CyIntSetVector
 1455              		.section	.text.CyIntGetVector,"ax",%progbits
 1456              		.align	1
 1457              		.global	CyIntGetVector
 1458              		.code	16
 1459              		.thumb_func
 1460              		.type	CyIntGetVector, %function
 1461              	CyIntGetVector:
 1462              	.LFB35:
1637:.\Generated_Source\PSoC4/CyLib.c **** 
1638:.\Generated_Source\PSoC4/CyLib.c **** 
1639:.\Generated_Source\PSoC4/CyLib.c **** /*******************************************************************************
1640:.\Generated_Source\PSoC4/CyLib.c **** * Function Name: CyIntGetVector
1641:.\Generated_Source\PSoC4/CyLib.c **** ********************************************************************************
1642:.\Generated_Source\PSoC4/CyLib.c **** *
1643:.\Generated_Source\PSoC4/CyLib.c **** * Summary:
1644:.\Generated_Source\PSoC4/CyLib.c **** *  Gets the interrupt vector of the specified interrupt number.
1645:.\Generated_Source\PSoC4/CyLib.c **** *
1646:.\Generated_Source\PSoC4/CyLib.c **** * Parameters:
1647:.\Generated_Source\PSoC4/CyLib.c **** *  number: Valid range [0-31].  Interrupt number
1648:.\Generated_Source\PSoC4/CyLib.c **** *
1649:.\Generated_Source\PSoC4/CyLib.c **** * Return:
1650:.\Generated_Source\PSoC4/CyLib.c **** *  Address of the ISR in the interrupt vector table.
1651:.\Generated_Source\PSoC4/CyLib.c **** *
1652:.\Generated_Source\PSoC4/CyLib.c **** *******************************************************************************/
1653:.\Generated_Source\PSoC4/CyLib.c **** cyisraddress CyIntGetVector(uint8 number)
1654:.\Generated_Source\PSoC4/CyLib.c **** {
 1463              		.loc 1 1654 0
 1464              		.cfi_startproc
 1465              	.LVL100:
1655:.\Generated_Source\PSoC4/CyLib.c ****     cyisraddress *ramVectorTable = (cyisraddress *) CY_INT_VECT_TABLE;
1656:.\Generated_Source\PSoC4/CyLib.c **** 
1657:.\Generated_Source\PSoC4/CyLib.c ****     CYASSERT(number < CY_NUM_INTERRUPTS);
1658:.\Generated_Source\PSoC4/CyLib.c **** 
1659:.\Generated_Source\PSoC4/CyLib.c ****     return (ramVectorTable[CY_INT_IRQ_BASE + number]);
 1466              		.loc 1 1659 0
 1467 0000 024B     		ldr	r3, .L121
 1468 0002 8000     		lsl	r0, r0, #2
 1469              	.LVL101:
 1470 0004 C118     		add	r1, r0, r3
 1471 0006 0868     		ldr	r0, [r1]
1660:.\Generated_Source\PSoC4/CyLib.c **** }
 1472              		.loc 1 1660 0
ARM GAS  C:\Users\CHUCK~1.ERH\AppData\Local\Temp\ccGtqbdp.s 			page 57


 1473              		@ sp needed for prologue
 1474 0008 7047     		bx	lr
 1475              	.L122:
 1476 000a C046     		.align	2
 1477              	.L121:
 1478 000c 40000020 		.word	536870976
 1479              		.cfi_endproc
 1480              	.LFE35:
 1481              		.size	CyIntGetVector, .-CyIntGetVector
 1482              		.section	.text.CyIntSetPriority,"ax",%progbits
 1483              		.align	1
 1484              		.global	CyIntSetPriority
 1485              		.code	16
 1486              		.thumb_func
 1487              		.type	CyIntSetPriority, %function
 1488              	CyIntSetPriority:
 1489              	.LFB36:
1661:.\Generated_Source\PSoC4/CyLib.c **** 
1662:.\Generated_Source\PSoC4/CyLib.c **** /*******************************************************************************
1663:.\Generated_Source\PSoC4/CyLib.c **** * Function Name: CyIntSetPriority
1664:.\Generated_Source\PSoC4/CyLib.c **** ********************************************************************************
1665:.\Generated_Source\PSoC4/CyLib.c **** *
1666:.\Generated_Source\PSoC4/CyLib.c **** * Summary:
1667:.\Generated_Source\PSoC4/CyLib.c **** *  Sets the priority of the interrupt.
1668:.\Generated_Source\PSoC4/CyLib.c **** *
1669:.\Generated_Source\PSoC4/CyLib.c **** * Parameters:
1670:.\Generated_Source\PSoC4/CyLib.c **** *  priority: Priority of the interrupt. 0 - 3, 0 being the highest.
1671:.\Generated_Source\PSoC4/CyLib.c **** *  number: The number of the interrupt, 0 - 31.
1672:.\Generated_Source\PSoC4/CyLib.c **** *
1673:.\Generated_Source\PSoC4/CyLib.c **** * Return:
1674:.\Generated_Source\PSoC4/CyLib.c **** *  None
1675:.\Generated_Source\PSoC4/CyLib.c **** *
1676:.\Generated_Source\PSoC4/CyLib.c **** *******************************************************************************/
1677:.\Generated_Source\PSoC4/CyLib.c **** void CyIntSetPriority(uint8 number, uint8 priority)
1678:.\Generated_Source\PSoC4/CyLib.c **** {
 1490              		.loc 1 1678 0
 1491              		.cfi_startproc
 1492              	.LVL102:
 1493 0000 38B5     		push	{r3, r4, r5, lr}
 1494              	.LCFI12:
 1495              		.cfi_def_cfa_offset 16
 1496              		.cfi_offset 3, -16
 1497              		.cfi_offset 4, -12
 1498              		.cfi_offset 5, -8
 1499              		.cfi_offset 14, -4
 1500              		.loc 1 1678 0
 1501 0002 041C     		mov	r4, r0
 1502              	.LVL103:
 1503 0004 0D1C     		mov	r5, r1
1679:.\Generated_Source\PSoC4/CyLib.c ****     uint8 interruptState;
1680:.\Generated_Source\PSoC4/CyLib.c ****     uint32 shift;
1681:.\Generated_Source\PSoC4/CyLib.c ****     uint32 value;
1682:.\Generated_Source\PSoC4/CyLib.c **** 
1683:.\Generated_Source\PSoC4/CyLib.c ****     CYASSERT(priority <= CY_MIN_PRIORITY);
1684:.\Generated_Source\PSoC4/CyLib.c ****     CYASSERT(number < CY_NUM_INTERRUPTS);
1685:.\Generated_Source\PSoC4/CyLib.c **** 
1686:.\Generated_Source\PSoC4/CyLib.c ****     shift = CY_INT_PRIORITY_SHIFT(number);
ARM GAS  C:\Users\CHUCK~1.ERH\AppData\Local\Temp\ccGtqbdp.s 			page 58


1687:.\Generated_Source\PSoC4/CyLib.c **** 
1688:.\Generated_Source\PSoC4/CyLib.c ****     interruptState = CyEnterCriticalSection();
 1504              		.loc 1 1688 0
 1505 0006 FFF7FEFF 		bl	CyEnterCriticalSection
 1506              	.LVL104:
1689:.\Generated_Source\PSoC4/CyLib.c **** 
1690:.\Generated_Source\PSoC4/CyLib.c ****     value = CY_INT_PRIORITY_REG(number);
 1507              		.loc 1 1690 0
 1508 000a A308     		lsr	r3, r4, #2
 1509 000c 084A     		ldr	r2, .L124
 1510 000e 9900     		lsl	r1, r3, #2
 1511 0010 8B18     		add	r3, r1, r2
1686:.\Generated_Source\PSoC4/CyLib.c ****     shift = CY_INT_PRIORITY_SHIFT(number);
 1512              		.loc 1 1686 0
 1513 0012 0322     		mov	r2, #3
 1514 0014 1440     		and	r4, r2
 1515              	.LVL105:
 1516 0016 9440     		lsl	r4, r4, r2
 1517              		.loc 1 1690 0
 1518 0018 1968     		ldr	r1, [r3]
 1519              	.LVL106:
1686:.\Generated_Source\PSoC4/CyLib.c ****     shift = CY_INT_PRIORITY_SHIFT(number);
 1520              		.loc 1 1686 0
 1521 001a 0634     		add	r4, r4, #6
1691:.\Generated_Source\PSoC4/CyLib.c ****     value &= (uint32)(~((uint32)(CY_INT_PRIORITY_MASK << shift)));
 1522              		.loc 1 1691 0
 1523 001c A240     		lsl	r2, r2, r4
 1524 001e 9143     		bic	r1, r2
 1525              	.LVL107:
1692:.\Generated_Source\PSoC4/CyLib.c ****     value |= ((uint32)priority << shift);
 1526              		.loc 1 1692 0
 1527 0020 A540     		lsl	r5, r5, r4
 1528 0022 0C1C     		mov	r4, r1
 1529 0024 2C43     		orr	r4, r5
 1530              	.LVL108:
1693:.\Generated_Source\PSoC4/CyLib.c ****     CY_INT_PRIORITY_REG(number) = value;
 1531              		.loc 1 1693 0
 1532 0026 1C60     		str	r4, [r3]
1694:.\Generated_Source\PSoC4/CyLib.c **** 
1695:.\Generated_Source\PSoC4/CyLib.c ****     CyExitCriticalSection(interruptState);
 1533              		.loc 1 1695 0
 1534 0028 FFF7FEFF 		bl	CyExitCriticalSection
 1535              	.LVL109:
1696:.\Generated_Source\PSoC4/CyLib.c **** }
 1536              		.loc 1 1696 0
 1537              		@ sp needed for prologue
 1538              	.LVL110:
 1539 002c 38BD     		pop	{r3, r4, r5, pc}
 1540              	.L125:
 1541 002e C046     		.align	2
 1542              	.L124:
 1543 0030 00E400E0 		.word	-536812544
 1544              		.cfi_endproc
 1545              	.LFE36:
 1546              		.size	CyIntSetPriority, .-CyIntSetPriority
 1547              		.section	.text.CyIntGetPriority,"ax",%progbits
 1548              		.align	1
ARM GAS  C:\Users\CHUCK~1.ERH\AppData\Local\Temp\ccGtqbdp.s 			page 59


 1549              		.global	CyIntGetPriority
 1550              		.code	16
 1551              		.thumb_func
 1552              		.type	CyIntGetPriority, %function
 1553              	CyIntGetPriority:
 1554              	.LFB37:
1697:.\Generated_Source\PSoC4/CyLib.c **** 
1698:.\Generated_Source\PSoC4/CyLib.c **** 
1699:.\Generated_Source\PSoC4/CyLib.c **** /*******************************************************************************
1700:.\Generated_Source\PSoC4/CyLib.c **** * Function Name: CyIntGetPriority
1701:.\Generated_Source\PSoC4/CyLib.c **** ********************************************************************************
1702:.\Generated_Source\PSoC4/CyLib.c **** *
1703:.\Generated_Source\PSoC4/CyLib.c **** * Summary:
1704:.\Generated_Source\PSoC4/CyLib.c **** *  Gets the priority of the interrupt.
1705:.\Generated_Source\PSoC4/CyLib.c **** *
1706:.\Generated_Source\PSoC4/CyLib.c **** * Parameters:
1707:.\Generated_Source\PSoC4/CyLib.c **** *  number: The number of the interrupt, 0 - 31.
1708:.\Generated_Source\PSoC4/CyLib.c **** *
1709:.\Generated_Source\PSoC4/CyLib.c **** * Return:
1710:.\Generated_Source\PSoC4/CyLib.c **** *  Priority of the interrupt. 0 - 3, 0 being the highest.
1711:.\Generated_Source\PSoC4/CyLib.c **** *
1712:.\Generated_Source\PSoC4/CyLib.c **** *******************************************************************************/
1713:.\Generated_Source\PSoC4/CyLib.c **** uint8 CyIntGetPriority(uint8 number)
1714:.\Generated_Source\PSoC4/CyLib.c **** {
 1555              		.loc 1 1714 0
 1556              		.cfi_startproc
 1557              	.LVL111:
1715:.\Generated_Source\PSoC4/CyLib.c ****     uint8 priority;
1716:.\Generated_Source\PSoC4/CyLib.c **** 
1717:.\Generated_Source\PSoC4/CyLib.c ****     CYASSERT(number < CY_NUM_INTERRUPTS);
1718:.\Generated_Source\PSoC4/CyLib.c **** 
1719:.\Generated_Source\PSoC4/CyLib.c ****     priority = (uint8) (CY_INT_PRIORITY_REG(number) >> CY_INT_PRIORITY_SHIFT(number));
 1558              		.loc 1 1719 0
 1559 0000 8308     		lsr	r3, r0, #2
 1560 0002 064A     		ldr	r2, .L127
 1561 0004 9900     		lsl	r1, r3, #2
 1562 0006 8B18     		add	r3, r1, r2
 1563 0008 0322     		mov	r2, #3
 1564 000a 1040     		and	r0, r2
 1565              	.LVL112:
 1566 000c 1968     		ldr	r1, [r3]
 1567 000e 9040     		lsl	r0, r0, r2
 1568 0010 0630     		add	r0, r0, #6
 1569 0012 C140     		lsr	r1, r1, r0
 1570 0014 081C     		mov	r0, r1
1720:.\Generated_Source\PSoC4/CyLib.c **** 
1721:.\Generated_Source\PSoC4/CyLib.c ****     return (priority & (uint8) CY_INT_PRIORITY_MASK);
 1571              		.loc 1 1721 0
 1572 0016 1040     		and	r0, r2
1722:.\Generated_Source\PSoC4/CyLib.c **** }
 1573              		.loc 1 1722 0
 1574              		@ sp needed for prologue
 1575 0018 7047     		bx	lr
 1576              	.L128:
 1577 001a C046     		.align	2
 1578              	.L127:
 1579 001c 00E400E0 		.word	-536812544
ARM GAS  C:\Users\CHUCK~1.ERH\AppData\Local\Temp\ccGtqbdp.s 			page 60


 1580              		.cfi_endproc
 1581              	.LFE37:
 1582              		.size	CyIntGetPriority, .-CyIntGetPriority
 1583              		.section	.text.CyIntEnable,"ax",%progbits
 1584              		.align	1
 1585              		.global	CyIntEnable
 1586              		.code	16
 1587              		.thumb_func
 1588              		.type	CyIntEnable, %function
 1589              	CyIntEnable:
 1590              	.LFB38:
1723:.\Generated_Source\PSoC4/CyLib.c **** 
1724:.\Generated_Source\PSoC4/CyLib.c **** 
1725:.\Generated_Source\PSoC4/CyLib.c **** /*******************************************************************************
1726:.\Generated_Source\PSoC4/CyLib.c **** * Function Name: CyIntEnable
1727:.\Generated_Source\PSoC4/CyLib.c **** ********************************************************************************
1728:.\Generated_Source\PSoC4/CyLib.c **** *
1729:.\Generated_Source\PSoC4/CyLib.c **** * Summary:
1730:.\Generated_Source\PSoC4/CyLib.c **** *  Enables the specified interrupt number.
1731:.\Generated_Source\PSoC4/CyLib.c **** *
1732:.\Generated_Source\PSoC4/CyLib.c **** * Parameters:
1733:.\Generated_Source\PSoC4/CyLib.c **** *  number: Valid range [0-31].  Interrupt number
1734:.\Generated_Source\PSoC4/CyLib.c **** *
1735:.\Generated_Source\PSoC4/CyLib.c **** * Return:
1736:.\Generated_Source\PSoC4/CyLib.c **** *  None
1737:.\Generated_Source\PSoC4/CyLib.c **** *
1738:.\Generated_Source\PSoC4/CyLib.c **** *******************************************************************************/
1739:.\Generated_Source\PSoC4/CyLib.c **** void CyIntEnable(uint8 number)
1740:.\Generated_Source\PSoC4/CyLib.c **** {
 1591              		.loc 1 1740 0
 1592              		.cfi_startproc
 1593              	.LVL113:
1741:.\Generated_Source\PSoC4/CyLib.c ****     CY_INT_ENABLE_REG = ((uint32) 0x01u << (CY_INT_ENABLE_RANGE_MASK & number));
 1594              		.loc 1 1741 0
 1595 0000 1F23     		mov	r3, #31
 1596 0002 1840     		and	r0, r3
 1597              	.LVL114:
 1598 0004 024A     		ldr	r2, .L130
 1599 0006 0121     		mov	r1, #1
 1600 0008 8140     		lsl	r1, r1, r0
 1601 000a 1160     		str	r1, [r2]
1742:.\Generated_Source\PSoC4/CyLib.c **** }
 1602              		.loc 1 1742 0
 1603              		@ sp needed for prologue
 1604 000c 7047     		bx	lr
 1605              	.L131:
 1606 000e C046     		.align	2
 1607              	.L130:
 1608 0010 00E100E0 		.word	-536813312
 1609              		.cfi_endproc
 1610              	.LFE38:
 1611              		.size	CyIntEnable, .-CyIntEnable
 1612              		.section	.text.CyIntGetState,"ax",%progbits
 1613              		.align	1
 1614              		.global	CyIntGetState
 1615              		.code	16
 1616              		.thumb_func
ARM GAS  C:\Users\CHUCK~1.ERH\AppData\Local\Temp\ccGtqbdp.s 			page 61


 1617              		.type	CyIntGetState, %function
 1618              	CyIntGetState:
 1619              	.LFB39:
1743:.\Generated_Source\PSoC4/CyLib.c **** 
1744:.\Generated_Source\PSoC4/CyLib.c **** 
1745:.\Generated_Source\PSoC4/CyLib.c **** /*******************************************************************************
1746:.\Generated_Source\PSoC4/CyLib.c **** * Function Name: CyIntGetState
1747:.\Generated_Source\PSoC4/CyLib.c **** ********************************************************************************
1748:.\Generated_Source\PSoC4/CyLib.c **** *
1749:.\Generated_Source\PSoC4/CyLib.c **** * Summary:
1750:.\Generated_Source\PSoC4/CyLib.c **** *  Gets the enable state of the specified interrupt number.
1751:.\Generated_Source\PSoC4/CyLib.c **** *
1752:.\Generated_Source\PSoC4/CyLib.c **** * Parameters:
1753:.\Generated_Source\PSoC4/CyLib.c **** *  number: Valid range [0-31].  Interrupt number.
1754:.\Generated_Source\PSoC4/CyLib.c **** *
1755:.\Generated_Source\PSoC4/CyLib.c **** * Return:
1756:.\Generated_Source\PSoC4/CyLib.c **** *  Enable status: 1 if enabled, 0 if disabled
1757:.\Generated_Source\PSoC4/CyLib.c **** *
1758:.\Generated_Source\PSoC4/CyLib.c **** *******************************************************************************/
1759:.\Generated_Source\PSoC4/CyLib.c **** uint8 CyIntGetState(uint8 number)
1760:.\Generated_Source\PSoC4/CyLib.c **** {
 1620              		.loc 1 1760 0
 1621              		.cfi_startproc
 1622              	.LVL115:
1761:.\Generated_Source\PSoC4/CyLib.c ****     /* Get the state of the interrupt. */
1762:.\Generated_Source\PSoC4/CyLib.c ****     return ((0u != (CY_INT_ENABLE_REG & ((uint32) 0x01u << (CY_INT_ENABLE_RANGE_MASK & number)))) ?
 1623              		.loc 1 1762 0
 1624 0000 044B     		ldr	r3, .L133
 1625 0002 1F22     		mov	r2, #31
 1626 0004 1968     		ldr	r1, [r3]
 1627 0006 1040     		and	r0, r2
 1628              	.LVL116:
 1629 0008 C140     		lsr	r1, r1, r0
 1630 000a 081C     		mov	r0, r1
 1631 000c 0123     		mov	r3, #1
 1632 000e 1840     		and	r0, r3
1763:.\Generated_Source\PSoC4/CyLib.c **** }
 1633              		.loc 1 1763 0
 1634              		@ sp needed for prologue
 1635 0010 7047     		bx	lr
 1636              	.L134:
 1637 0012 C046     		.align	2
 1638              	.L133:
 1639 0014 00E100E0 		.word	-536813312
 1640              		.cfi_endproc
 1641              	.LFE39:
 1642              		.size	CyIntGetState, .-CyIntGetState
 1643              		.section	.text.CyIntDisable,"ax",%progbits
 1644              		.align	1
 1645              		.global	CyIntDisable
 1646              		.code	16
 1647              		.thumb_func
 1648              		.type	CyIntDisable, %function
 1649              	CyIntDisable:
 1650              	.LFB40:
1764:.\Generated_Source\PSoC4/CyLib.c **** 
1765:.\Generated_Source\PSoC4/CyLib.c **** 
ARM GAS  C:\Users\CHUCK~1.ERH\AppData\Local\Temp\ccGtqbdp.s 			page 62


1766:.\Generated_Source\PSoC4/CyLib.c **** /*******************************************************************************
1767:.\Generated_Source\PSoC4/CyLib.c **** * Function Name: CyIntDisable
1768:.\Generated_Source\PSoC4/CyLib.c **** ********************************************************************************
1769:.\Generated_Source\PSoC4/CyLib.c **** *
1770:.\Generated_Source\PSoC4/CyLib.c **** * Summary:
1771:.\Generated_Source\PSoC4/CyLib.c **** *   Disables the specified interrupt number.
1772:.\Generated_Source\PSoC4/CyLib.c **** *
1773:.\Generated_Source\PSoC4/CyLib.c **** * Parameters:
1774:.\Generated_Source\PSoC4/CyLib.c **** *   number: Valid range [0-31].  Interrupt number.
1775:.\Generated_Source\PSoC4/CyLib.c **** *
1776:.\Generated_Source\PSoC4/CyLib.c **** * Return:
1777:.\Generated_Source\PSoC4/CyLib.c **** *  None
1778:.\Generated_Source\PSoC4/CyLib.c **** *
1779:.\Generated_Source\PSoC4/CyLib.c **** *******************************************************************************/
1780:.\Generated_Source\PSoC4/CyLib.c **** void CyIntDisable(uint8 number)
1781:.\Generated_Source\PSoC4/CyLib.c **** {
 1651              		.loc 1 1781 0
 1652              		.cfi_startproc
 1653              	.LVL117:
1782:.\Generated_Source\PSoC4/CyLib.c ****     CY_INT_CLEAR_REG = ((uint32) 0x01u << (CY_INT_ENABLE_RANGE_MASK & number));
 1654              		.loc 1 1782 0
 1655 0000 1F23     		mov	r3, #31
 1656 0002 1840     		and	r0, r3
 1657              	.LVL118:
 1658 0004 024A     		ldr	r2, .L136
 1659 0006 0121     		mov	r1, #1
 1660 0008 8140     		lsl	r1, r1, r0
 1661 000a 1160     		str	r1, [r2]
1783:.\Generated_Source\PSoC4/CyLib.c **** }
 1662              		.loc 1 1783 0
 1663              		@ sp needed for prologue
 1664 000c 7047     		bx	lr
 1665              	.L137:
 1666 000e C046     		.align	2
 1667              	.L136:
 1668 0010 80E100E0 		.word	-536813184
 1669              		.cfi_endproc
 1670              	.LFE40:
 1671              		.size	CyIntDisable, .-CyIntDisable
 1672              		.section	.text.CyIntSetPending,"ax",%progbits
 1673              		.align	1
 1674              		.global	CyIntSetPending
 1675              		.code	16
 1676              		.thumb_func
 1677              		.type	CyIntSetPending, %function
 1678              	CyIntSetPending:
 1679              	.LFB41:
1784:.\Generated_Source\PSoC4/CyLib.c **** 
1785:.\Generated_Source\PSoC4/CyLib.c **** /*******************************************************************************
1786:.\Generated_Source\PSoC4/CyLib.c **** * Function Name: CyIntSetPending
1787:.\Generated_Source\PSoC4/CyLib.c **** ********************************************************************************
1788:.\Generated_Source\PSoC4/CyLib.c **** *
1789:.\Generated_Source\PSoC4/CyLib.c **** * Summary:
1790:.\Generated_Source\PSoC4/CyLib.c **** *  Forces the specified interrupt number to be pending.
1791:.\Generated_Source\PSoC4/CyLib.c **** *
1792:.\Generated_Source\PSoC4/CyLib.c **** * Parameters:
1793:.\Generated_Source\PSoC4/CyLib.c **** *  number: Valid range [0-31].  Interrupt number.
ARM GAS  C:\Users\CHUCK~1.ERH\AppData\Local\Temp\ccGtqbdp.s 			page 63


1794:.\Generated_Source\PSoC4/CyLib.c **** *
1795:.\Generated_Source\PSoC4/CyLib.c **** * Return:
1796:.\Generated_Source\PSoC4/CyLib.c **** *  None
1797:.\Generated_Source\PSoC4/CyLib.c **** *
1798:.\Generated_Source\PSoC4/CyLib.c **** *******************************************************************************/
1799:.\Generated_Source\PSoC4/CyLib.c **** void CyIntSetPending(uint8 number)
1800:.\Generated_Source\PSoC4/CyLib.c **** {
 1680              		.loc 1 1800 0
 1681              		.cfi_startproc
 1682              	.LVL119:
1801:.\Generated_Source\PSoC4/CyLib.c ****     CY_INT_SET_PEND_REG = ((uint32) 0x01u << (CY_INT_ENABLE_RANGE_MASK & number));
 1683              		.loc 1 1801 0
 1684 0000 1F23     		mov	r3, #31
 1685 0002 1840     		and	r0, r3
 1686              	.LVL120:
 1687 0004 024A     		ldr	r2, .L139
 1688 0006 0121     		mov	r1, #1
 1689 0008 8140     		lsl	r1, r1, r0
 1690 000a 1160     		str	r1, [r2]
1802:.\Generated_Source\PSoC4/CyLib.c **** }
 1691              		.loc 1 1802 0
 1692              		@ sp needed for prologue
 1693 000c 7047     		bx	lr
 1694              	.L140:
 1695 000e C046     		.align	2
 1696              	.L139:
 1697 0010 00E200E0 		.word	-536813056
 1698              		.cfi_endproc
 1699              	.LFE41:
 1700              		.size	CyIntSetPending, .-CyIntSetPending
 1701              		.section	.text.CyIntClearPending,"ax",%progbits
 1702              		.align	1
 1703              		.global	CyIntClearPending
 1704              		.code	16
 1705              		.thumb_func
 1706              		.type	CyIntClearPending, %function
 1707              	CyIntClearPending:
 1708              	.LFB42:
1803:.\Generated_Source\PSoC4/CyLib.c **** 
1804:.\Generated_Source\PSoC4/CyLib.c **** 
1805:.\Generated_Source\PSoC4/CyLib.c **** /*******************************************************************************
1806:.\Generated_Source\PSoC4/CyLib.c **** * Function Name: CyIntClearPending
1807:.\Generated_Source\PSoC4/CyLib.c **** ********************************************************************************
1808:.\Generated_Source\PSoC4/CyLib.c **** *
1809:.\Generated_Source\PSoC4/CyLib.c **** * Summary:
1810:.\Generated_Source\PSoC4/CyLib.c **** *  Clears any pending interrupt for the specified interrupt number.
1811:.\Generated_Source\PSoC4/CyLib.c **** *
1812:.\Generated_Source\PSoC4/CyLib.c **** * Parameters:
1813:.\Generated_Source\PSoC4/CyLib.c **** *  number: Valid range [0-31].  Interrupt number.
1814:.\Generated_Source\PSoC4/CyLib.c **** *
1815:.\Generated_Source\PSoC4/CyLib.c **** * Return:
1816:.\Generated_Source\PSoC4/CyLib.c **** *  None
1817:.\Generated_Source\PSoC4/CyLib.c **** *
1818:.\Generated_Source\PSoC4/CyLib.c **** *******************************************************************************/
1819:.\Generated_Source\PSoC4/CyLib.c **** void CyIntClearPending(uint8 number)
1820:.\Generated_Source\PSoC4/CyLib.c **** {
 1709              		.loc 1 1820 0
ARM GAS  C:\Users\CHUCK~1.ERH\AppData\Local\Temp\ccGtqbdp.s 			page 64


 1710              		.cfi_startproc
 1711              	.LVL121:
1821:.\Generated_Source\PSoC4/CyLib.c ****     CY_INT_CLR_PEND_REG = ((uint32) 0x01u << (CY_INT_ENABLE_RANGE_MASK & number));
 1712              		.loc 1 1821 0
 1713 0000 1F23     		mov	r3, #31
 1714 0002 1840     		and	r0, r3
 1715              	.LVL122:
 1716 0004 024A     		ldr	r2, .L142
 1717 0006 0121     		mov	r1, #1
 1718 0008 8140     		lsl	r1, r1, r0
 1719 000a 1160     		str	r1, [r2]
1822:.\Generated_Source\PSoC4/CyLib.c **** }
 1720              		.loc 1 1822 0
 1721              		@ sp needed for prologue
 1722 000c 7047     		bx	lr
 1723              	.L143:
 1724 000e C046     		.align	2
 1725              	.L142:
 1726 0010 80E200E0 		.word	-536812928
 1727              		.cfi_endproc
 1728              	.LFE42:
 1729              		.size	CyIntClearPending, .-CyIntClearPending
 1730              		.section	.text.CyHalt,"ax",%progbits
 1731              		.align	1
 1732              		.global	CyHalt
 1733              		.code	16
 1734              		.thumb_func
 1735              		.type	CyHalt, %function
 1736              	CyHalt:
 1737              	.LFB43:
1823:.\Generated_Source\PSoC4/CyLib.c **** 
1824:.\Generated_Source\PSoC4/CyLib.c **** 
1825:.\Generated_Source\PSoC4/CyLib.c **** /*******************************************************************************
1826:.\Generated_Source\PSoC4/CyLib.c **** * Function Name: CyHalt
1827:.\Generated_Source\PSoC4/CyLib.c **** ********************************************************************************
1828:.\Generated_Source\PSoC4/CyLib.c **** *
1829:.\Generated_Source\PSoC4/CyLib.c **** * Summary:
1830:.\Generated_Source\PSoC4/CyLib.c **** *  Halts the CPU.
1831:.\Generated_Source\PSoC4/CyLib.c **** *
1832:.\Generated_Source\PSoC4/CyLib.c **** * Parameters:
1833:.\Generated_Source\PSoC4/CyLib.c **** *  reason: Value to be used during debugging.
1834:.\Generated_Source\PSoC4/CyLib.c **** *
1835:.\Generated_Source\PSoC4/CyLib.c **** * Return:
1836:.\Generated_Source\PSoC4/CyLib.c **** *  None
1837:.\Generated_Source\PSoC4/CyLib.c **** *
1838:.\Generated_Source\PSoC4/CyLib.c **** *******************************************************************************/
1839:.\Generated_Source\PSoC4/CyLib.c **** void CyHalt(uint8 reason)
1840:.\Generated_Source\PSoC4/CyLib.c **** {
 1738              		.loc 1 1840 0
 1739              		.cfi_startproc
 1740              	.LVL123:
1841:.\Generated_Source\PSoC4/CyLib.c ****     if(0u != reason)
1842:.\Generated_Source\PSoC4/CyLib.c ****     {
1843:.\Generated_Source\PSoC4/CyLib.c ****         /* To remove unreferenced local variable warning */
1844:.\Generated_Source\PSoC4/CyLib.c ****     }
1845:.\Generated_Source\PSoC4/CyLib.c **** 
1846:.\Generated_Source\PSoC4/CyLib.c ****     #if defined (__ARMCC_VERSION)
ARM GAS  C:\Users\CHUCK~1.ERH\AppData\Local\Temp\ccGtqbdp.s 			page 65


1847:.\Generated_Source\PSoC4/CyLib.c ****         __breakpoint(0x0);
1848:.\Generated_Source\PSoC4/CyLib.c ****     #elif defined(__GNUC__) || defined (__ICCARM__)
1849:.\Generated_Source\PSoC4/CyLib.c ****         __asm("    bkpt    1");
 1741              		.loc 1 1849 0
 1742              	@ 1849 ".\Generated_Source\PSoC4\CyLib.c" 1
 1743 0000 01BE     		    bkpt    1
 1744              	@ 0 "" 2
1850:.\Generated_Source\PSoC4/CyLib.c ****     #elif defined(__C51__)
1851:.\Generated_Source\PSoC4/CyLib.c ****         CYDEV_HALT_CPU;
1852:.\Generated_Source\PSoC4/CyLib.c ****     #endif  /* (__ARMCC_VERSION) */
1853:.\Generated_Source\PSoC4/CyLib.c **** }
 1745              		.loc 1 1853 0
 1746              		.code	16
 1747              		@ sp needed for prologue
 1748 0002 7047     		bx	lr
 1749              		.cfi_endproc
 1750              	.LFE43:
 1751              		.size	CyHalt, .-CyHalt
 1752              		.section	.text.CySoftwareReset,"ax",%progbits
 1753              		.align	1
 1754              		.global	CySoftwareReset
 1755              		.code	16
 1756              		.thumb_func
 1757              		.type	CySoftwareReset, %function
 1758              	CySoftwareReset:
 1759              	.LFB44:
1854:.\Generated_Source\PSoC4/CyLib.c **** 
1855:.\Generated_Source\PSoC4/CyLib.c **** 
1856:.\Generated_Source\PSoC4/CyLib.c **** /*******************************************************************************
1857:.\Generated_Source\PSoC4/CyLib.c **** * Function Name: CySoftwareReset
1858:.\Generated_Source\PSoC4/CyLib.c **** ********************************************************************************
1859:.\Generated_Source\PSoC4/CyLib.c **** *
1860:.\Generated_Source\PSoC4/CyLib.c **** * Summary:
1861:.\Generated_Source\PSoC4/CyLib.c **** *  Forces a software reset of the device.
1862:.\Generated_Source\PSoC4/CyLib.c **** *
1863:.\Generated_Source\PSoC4/CyLib.c **** * Parameters:
1864:.\Generated_Source\PSoC4/CyLib.c **** *  None
1865:.\Generated_Source\PSoC4/CyLib.c **** *
1866:.\Generated_Source\PSoC4/CyLib.c **** * Return:
1867:.\Generated_Source\PSoC4/CyLib.c **** *  None
1868:.\Generated_Source\PSoC4/CyLib.c **** *
1869:.\Generated_Source\PSoC4/CyLib.c **** *******************************************************************************/
1870:.\Generated_Source\PSoC4/CyLib.c **** void CySoftwareReset(void)
1871:.\Generated_Source\PSoC4/CyLib.c **** {
 1760              		.loc 1 1871 0
 1761              		.cfi_startproc
1872:.\Generated_Source\PSoC4/CyLib.c ****     /***************************************************************************
1873:.\Generated_Source\PSoC4/CyLib.c ****     * Setting the system reset request bit. The vector key value must be written
1874:.\Generated_Source\PSoC4/CyLib.c ****     * to the register, otherwise the register write is unpredictable.
1875:.\Generated_Source\PSoC4/CyLib.c ****     ***************************************************************************/
1876:.\Generated_Source\PSoC4/CyLib.c ****     CY_SYS_CM0_AIRCR_REG = (CY_SYS_CM0_AIRCR_REG & (uint32)(~CY_SYS_CM0_AIRCR_VECTKEY_MASK)) |
 1762              		.loc 1 1876 0
 1763 0000 034B     		ldr	r3, .L146
1877:.\Generated_Source\PSoC4/CyLib.c ****                             CY_SYS_CM0_AIRCR_VECTKEY | CY_SYS_CM0_AIRCR_SYSRESETREQ;
 1764              		.loc 1 1877 0
 1765 0002 0449     		ldr	r1, .L146+4
1876:.\Generated_Source\PSoC4/CyLib.c ****     CY_SYS_CM0_AIRCR_REG = (CY_SYS_CM0_AIRCR_REG & (uint32)(~CY_SYS_CM0_AIRCR_VECTKEY_MASK)) |
ARM GAS  C:\Users\CHUCK~1.ERH\AppData\Local\Temp\ccGtqbdp.s 			page 66


 1766              		.loc 1 1876 0
 1767 0004 1A68     		ldr	r2, [r3]
1878:.\Generated_Source\PSoC4/CyLib.c **** }
 1768              		.loc 1 1878 0
 1769              		@ sp needed for prologue
1876:.\Generated_Source\PSoC4/CyLib.c ****     CY_SYS_CM0_AIRCR_REG = (CY_SYS_CM0_AIRCR_REG & (uint32)(~CY_SYS_CM0_AIRCR_VECTKEY_MASK)) |
 1770              		.loc 1 1876 0
 1771 0006 90B2     		uxth	r0, r2
1877:.\Generated_Source\PSoC4/CyLib.c ****                             CY_SYS_CM0_AIRCR_VECTKEY | CY_SYS_CM0_AIRCR_SYSRESETREQ;
 1772              		.loc 1 1877 0
 1773 0008 0843     		orr	r0, r1
1876:.\Generated_Source\PSoC4/CyLib.c ****     CY_SYS_CM0_AIRCR_REG = (CY_SYS_CM0_AIRCR_REG & (uint32)(~CY_SYS_CM0_AIRCR_VECTKEY_MASK)) |
 1774              		.loc 1 1876 0
 1775 000a 1860     		str	r0, [r3]
 1776              		.loc 1 1878 0
 1777 000c 7047     		bx	lr
 1778              	.L147:
 1779 000e C046     		.align	2
 1780              	.L146:
 1781 0010 0CED00E0 		.word	-536810228
 1782 0014 0400FA05 		.word	100270084
 1783              		.cfi_endproc
 1784              	.LFE44:
 1785              		.size	CySoftwareReset, .-CySoftwareReset
 1786              		.section	.text.CyDelay,"ax",%progbits
 1787              		.align	1
 1788              		.global	CyDelay
 1789              		.code	16
 1790              		.thumb_func
 1791              		.type	CyDelay, %function
 1792              	CyDelay:
 1793              	.LFB45:
1879:.\Generated_Source\PSoC4/CyLib.c **** 
1880:.\Generated_Source\PSoC4/CyLib.c **** 
1881:.\Generated_Source\PSoC4/CyLib.c **** /*******************************************************************************
1882:.\Generated_Source\PSoC4/CyLib.c **** * Function Name: CyDelay
1883:.\Generated_Source\PSoC4/CyLib.c **** ********************************************************************************
1884:.\Generated_Source\PSoC4/CyLib.c **** *
1885:.\Generated_Source\PSoC4/CyLib.c **** * Summary:
1886:.\Generated_Source\PSoC4/CyLib.c **** *  Blocks for milliseconds.
1887:.\Generated_Source\PSoC4/CyLib.c **** *
1888:.\Generated_Source\PSoC4/CyLib.c **** * Parameters:
1889:.\Generated_Source\PSoC4/CyLib.c **** *  milliseconds: number of milliseconds to delay.
1890:.\Generated_Source\PSoC4/CyLib.c **** *
1891:.\Generated_Source\PSoC4/CyLib.c **** * Return:
1892:.\Generated_Source\PSoC4/CyLib.c **** *  None
1893:.\Generated_Source\PSoC4/CyLib.c **** *
1894:.\Generated_Source\PSoC4/CyLib.c **** *******************************************************************************/
1895:.\Generated_Source\PSoC4/CyLib.c **** void CyDelay(uint32 milliseconds)
1896:.\Generated_Source\PSoC4/CyLib.c **** {
 1794              		.loc 1 1896 0
 1795              		.cfi_startproc
 1796              	.LVL124:
 1797 0000 10B5     		push	{r4, lr}
 1798              	.LCFI13:
 1799              		.cfi_def_cfa_offset 8
 1800              		.cfi_offset 4, -8
ARM GAS  C:\Users\CHUCK~1.ERH\AppData\Local\Temp\ccGtqbdp.s 			page 67


 1801              		.cfi_offset 14, -4
 1802 0002 041C     		mov	r4, r0
 1803              	.LVL125:
 1804              	.L149:
1897:.\Generated_Source\PSoC4/CyLib.c ****     while (milliseconds > CY_DELAY_MS_OVERFLOW)
 1805              		.loc 1 1897 0 discriminator 1
 1806 0004 8022     		mov	r2, #128
 1807 0006 074B     		ldr	r3, .L152
 1808 0008 1002     		lsl	r0, r2, #8
 1809 000a 8442     		cmp	r4, r0
 1810 000c 05D9     		bls	.L151
 1811              	.L150:
1898:.\Generated_Source\PSoC4/CyLib.c ****     {
1899:.\Generated_Source\PSoC4/CyLib.c ****         /* This loop prevents overflow.
1900:.\Generated_Source\PSoC4/CyLib.c ****          * At 100MHz, milliseconds * cydelayFreqKhz overflows at about 42 seconds
1901:.\Generated_Source\PSoC4/CyLib.c ****          */
1902:.\Generated_Source\PSoC4/CyLib.c ****         CyDelayCycles(cydelay32kMs);
 1812              		.loc 1 1902 0
 1813 000e 1868     		ldr	r0, [r3]
 1814 0010 FFF7FEFF 		bl	CyDelayCycles
 1815              	.LVL126:
1903:.\Generated_Source\PSoC4/CyLib.c ****         milliseconds -= CY_DELAY_MS_OVERFLOW;
 1816              		.loc 1 1903 0
 1817 0014 0449     		ldr	r1, .L152+4
 1818 0016 6418     		add	r4, r4, r1
 1819              	.LVL127:
 1820 0018 F4E7     		b	.L149
 1821              	.L151:
1904:.\Generated_Source\PSoC4/CyLib.c ****     }
1905:.\Generated_Source\PSoC4/CyLib.c **** 
1906:.\Generated_Source\PSoC4/CyLib.c ****     CyDelayCycles(milliseconds * cydelayFreqKhz);
 1822              		.loc 1 1906 0
 1823 001a 5868     		ldr	r0, [r3, #4]
1907:.\Generated_Source\PSoC4/CyLib.c **** }
 1824              		.loc 1 1907 0
 1825              		@ sp needed for prologue
1906:.\Generated_Source\PSoC4/CyLib.c ****     CyDelayCycles(milliseconds * cydelayFreqKhz);
 1826              		.loc 1 1906 0
 1827 001c 6043     		mul	r0, r4
 1828 001e FFF7FEFF 		bl	CyDelayCycles
 1829              	.LVL128:
 1830              	.LVL129:
 1831              		.loc 1 1907 0
 1832 0022 10BD     		pop	{r4, pc}
 1833              	.L153:
 1834              		.align	2
 1835              	.L152:
 1836 0024 00000000 		.word	.LANCHOR0
 1837 0028 0080FFFF 		.word	-32768
 1838              		.cfi_endproc
 1839              	.LFE45:
 1840              		.size	CyDelay, .-CyDelay
 1841              		.section	.text.CyDelayUs,"ax",%progbits
 1842              		.align	1
 1843              		.global	CyDelayUs
 1844              		.code	16
 1845              		.thumb_func
ARM GAS  C:\Users\CHUCK~1.ERH\AppData\Local\Temp\ccGtqbdp.s 			page 68


 1846              		.type	CyDelayUs, %function
 1847              	CyDelayUs:
 1848              	.LFB46:
1908:.\Generated_Source\PSoC4/CyLib.c **** 
1909:.\Generated_Source\PSoC4/CyLib.c **** 
1910:.\Generated_Source\PSoC4/CyLib.c **** /*******************************************************************************
1911:.\Generated_Source\PSoC4/CyLib.c **** * Function Name: CyDelayUs
1912:.\Generated_Source\PSoC4/CyLib.c **** ********************************************************************************
1913:.\Generated_Source\PSoC4/CyLib.c **** * Summary:
1914:.\Generated_Source\PSoC4/CyLib.c **** *  Blocks for microseconds.
1915:.\Generated_Source\PSoC4/CyLib.c **** *
1916:.\Generated_Source\PSoC4/CyLib.c **** * Parameters:
1917:.\Generated_Source\PSoC4/CyLib.c **** *  microseconds: number of microseconds to delay.
1918:.\Generated_Source\PSoC4/CyLib.c **** *
1919:.\Generated_Source\PSoC4/CyLib.c **** * Return:
1920:.\Generated_Source\PSoC4/CyLib.c **** *  None
1921:.\Generated_Source\PSoC4/CyLib.c **** *
1922:.\Generated_Source\PSoC4/CyLib.c **** *******************************************************************************/
1923:.\Generated_Source\PSoC4/CyLib.c **** void CyDelayUs(uint16 microseconds)
1924:.\Generated_Source\PSoC4/CyLib.c **** {
 1849              		.loc 1 1924 0
 1850              		.cfi_startproc
 1851              	.LVL130:
 1852 0000 08B5     		push	{r3, lr}
 1853              	.LCFI14:
 1854              		.cfi_def_cfa_offset 8
 1855              		.cfi_offset 3, -8
 1856              		.cfi_offset 14, -4
1925:.\Generated_Source\PSoC4/CyLib.c ****     CyDelayCycles((uint32)microseconds * cydelayFreqMhz);
 1857              		.loc 1 1925 0
 1858 0002 034B     		ldr	r3, .L155
1926:.\Generated_Source\PSoC4/CyLib.c **** }
 1859              		.loc 1 1926 0
 1860              		@ sp needed for prologue
1925:.\Generated_Source\PSoC4/CyLib.c ****     CyDelayCycles((uint32)microseconds * cydelayFreqMhz);
 1861              		.loc 1 1925 0
 1862 0004 197A     		ldrb	r1, [r3, #8]
 1863 0006 4843     		mul	r0, r1
 1864              	.LVL131:
 1865 0008 FFF7FEFF 		bl	CyDelayCycles
 1866              	.LVL132:
 1867              		.loc 1 1926 0
 1868 000c 08BD     		pop	{r3, pc}
 1869              	.L156:
 1870 000e C046     		.align	2
 1871              	.L155:
 1872 0010 00000000 		.word	.LANCHOR0
 1873              		.cfi_endproc
 1874              	.LFE46:
 1875              		.size	CyDelayUs, .-CyDelayUs
 1876              		.section	.text.CySysWdtWriteMatch,"ax",%progbits
 1877              		.align	1
 1878              		.global	CySysWdtWriteMatch
 1879              		.code	16
 1880              		.thumb_func
 1881              		.type	CySysWdtWriteMatch, %function
 1882              	CySysWdtWriteMatch:
ARM GAS  C:\Users\CHUCK~1.ERH\AppData\Local\Temp\ccGtqbdp.s 			page 69


 1883              	.LFB18:
 766:.\Generated_Source\PSoC4/CyLib.c ****     {
 1884              		.loc 1 766 0
 1885              		.cfi_startproc
 1886              	.LVL133:
 1887 0000 38B5     		push	{r3, r4, r5, lr}
 1888              	.LCFI15:
 1889              		.cfi_def_cfa_offset 16
 1890              		.cfi_offset 3, -16
 1891              		.cfi_offset 4, -12
 1892              		.cfi_offset 5, -8
 1893              		.cfi_offset 14, -4
 775:.\Generated_Source\PSoC4/CyLib.c ****         if (0u == (CY_SYS_CLK_ILO_CONFIG_REG & CY_SYS_CLK_ILO_CONFIG_ENABLE))
 1894              		.loc 1 775 0
 1895 0002 0B4B     		ldr	r3, .L159
 766:.\Generated_Source\PSoC4/CyLib.c ****     {
 1896              		.loc 1 766 0
 1897 0004 051C     		mov	r5, r0
 775:.\Generated_Source\PSoC4/CyLib.c ****         if (0u == (CY_SYS_CLK_ILO_CONFIG_REG & CY_SYS_CLK_ILO_CONFIG_ENABLE))
 1898              		.loc 1 775 0
 1899 0006 1868     		ldr	r0, [r3]
 1900              	.LVL134:
 766:.\Generated_Source\PSoC4/CyLib.c ****     {
 1901              		.loc 1 766 0
 1902 0008 0C1C     		mov	r4, r1
 775:.\Generated_Source\PSoC4/CyLib.c ****         if (0u == (CY_SYS_CLK_ILO_CONFIG_REG & CY_SYS_CLK_ILO_CONFIG_ENABLE))
 1903              		.loc 1 775 0
 1904 000a 0028     		cmp	r0, #0
 1905 000c 01DB     		blt	.L158
 777:.\Generated_Source\PSoC4/CyLib.c ****             CySysClkIloStart();
 1906              		.loc 1 777 0
 1907 000e FFF7FEFF 		bl	CySysClkIloStart
 1908              	.LVL135:
 1909              	.L158:
 781:.\Generated_Source\PSoC4/CyLib.c ****         CyDelayUs(CY_SYS_WDT_3LFCLK_DELAY_US);
 1910              		.loc 1 781 0
 1911 0012 8220     		mov	r0, #130
 1912 0014 FFF7FEFF 		bl	CyDelayUs
 1913              	.LVL136:
 783:.\Generated_Source\PSoC4/CyLib.c ****         regValue = CY_SYS_WDT_MATCH_REG;
 1914              		.loc 1 783 0
 1915 0018 064B     		ldr	r3, .L159+4
 784:.\Generated_Source\PSoC4/CyLib.c ****         regValue &= (uint32)~((uint32)(CY_SYS_WDT_LOWER_16BITS_MASK << (counterNum * CY_SYS_WDT_CNT
 1916              		.loc 1 784 0
 1917 001a 0749     		ldr	r1, .L159+8
 1918 001c 2D01     		lsl	r5, r5, #4
 1919              	.LVL137:
 783:.\Generated_Source\PSoC4/CyLib.c ****         regValue = CY_SYS_WDT_MATCH_REG;
 1920              		.loc 1 783 0
 1921 001e 1A68     		ldr	r2, [r3]
 1922              	.LVL138:
 784:.\Generated_Source\PSoC4/CyLib.c ****         regValue &= (uint32)~((uint32)(CY_SYS_WDT_LOWER_16BITS_MASK << (counterNum * CY_SYS_WDT_CNT
 1923              		.loc 1 784 0
 1924 0020 A940     		lsl	r1, r1, r5
 1925 0022 8A43     		bic	r2, r1
 1926              	.LVL139:
 785:.\Generated_Source\PSoC4/CyLib.c ****         CY_SYS_WDT_MATCH_REG = (regValue | (match << (counterNum * CY_SYS_WDT_CNT_MATCH_SHIFT)));
ARM GAS  C:\Users\CHUCK~1.ERH\AppData\Local\Temp\ccGtqbdp.s 			page 70


 1927              		.loc 1 785 0
 1928 0024 AC40     		lsl	r4, r4, r5
 1929              	.LVL140:
 1930 0026 101C     		mov	r0, r2
 1931 0028 2043     		orr	r0, r4
 1932 002a 1860     		str	r0, [r3]
 786:.\Generated_Source\PSoC4/CyLib.c ****     }
 1933              		.loc 1 786 0
 1934              		@ sp needed for prologue
 1935 002c 38BD     		pop	{r3, r4, r5, pc}
 1936              	.L160:
 1937 002e C046     		.align	2
 1938              	.L159:
 1939 0030 04010B40 		.word	1074462980
 1940 0034 08020B40 		.word	1074463240
 1941 0038 FFFF0000 		.word	65535
 1942              		.cfi_endproc
 1943              	.LFE18:
 1944              		.size	CySysWdtWriteMatch, .-CySysWdtWriteMatch
 1945              		.section	.text.CySysClkWriteImoFreq,"ax",%progbits
 1946              		.align	1
 1947              		.global	CySysClkWriteImoFreq
 1948              		.code	16
 1949              		.thumb_func
 1950              		.type	CySysClkWriteImoFreq, %function
 1951              	CySysClkWriteImoFreq:
 1952              	.LFB6:
 217:.\Generated_Source\PSoC4/CyLib.c ****     {
 1953              		.loc 1 217 0
 1954              		.cfi_startproc
 1955              	.LVL141:
 1956 0000 F0B5     		push	{r4, r5, r6, r7, lr}
 1957              	.LCFI16:
 1958              		.cfi_def_cfa_offset 20
 1959              		.cfi_offset 4, -20
 1960              		.cfi_offset 5, -16
 1961              		.cfi_offset 6, -12
 1962              		.cfi_offset 7, -8
 1963              		.cfi_offset 14, -4
 240:.\Generated_Source\PSoC4/CyLib.c ****         if ((freq >= CY_SYS_CLK_IMO_MIN_FREQ_MHZ) && (freq <= CY_SYS_CLK_IMO_MAX_FREQ_MHZ))
 1964              		.loc 1 240 0
 1965 0002 C11E     		sub	r1, r0, #3
 217:.\Generated_Source\PSoC4/CyLib.c ****     {
 1966              		.loc 1 217 0
 1967 0004 85B0     		sub	sp, sp, #20
 1968              	.LCFI17:
 1969              		.cfi_def_cfa_offset 40
 217:.\Generated_Source\PSoC4/CyLib.c ****     {
 1970              		.loc 1 217 0
 1971 0006 041C     		mov	r4, r0
 240:.\Generated_Source\PSoC4/CyLib.c ****         if ((freq >= CY_SYS_CLK_IMO_MIN_FREQ_MHZ) && (freq <= CY_SYS_CLK_IMO_MAX_FREQ_MHZ))
 1972              		.loc 1 240 0
 1973 0008 0191     		str	r1, [sp, #4]
 1974 000a 2D29     		cmp	r1, #45
 1975 000c 6CD8     		bhi	.L161
 242:.\Generated_Source\PSoC4/CyLib.c ****             interruptState = CyEnterCriticalSection();
 1976              		.loc 1 242 0
ARM GAS  C:\Users\CHUCK~1.ERH\AppData\Local\Temp\ccGtqbdp.s 			page 71


 1977 000e FFF7FEFF 		bl	CyEnterCriticalSection
 1978              	.LVL142:
 245:.\Generated_Source\PSoC4/CyLib.c ****             for (i = 0u; i < CY_SYS_CLK_IMO_FREQ_TABLE_SIZE; i++)
 1979              		.loc 1 245 0
 1980 0012 0023     		mov	r3, #0
 242:.\Generated_Source\PSoC4/CyLib.c ****             interruptState = CyEnterCriticalSection();
 1981              		.loc 1 242 0
 1982 0014 0390     		str	r0, [sp, #12]
 1983              	.LVL143:
 1984              	.L165:
 247:.\Generated_Source\PSoC4/CyLib.c ****                 if (cyImoFreqMhz2Reg[i] == (CY_SYS_CLK_IMO_TRIM2_REG & CY_SYS_CLK_IMO_FREQ_BITS_MAS
 1985              		.loc 1 247 0
 1986 0016 354F     		ldr	r7, .L177
 1987 0018 354A     		ldr	r2, .L177+4
 1988 001a 3D68     		ldr	r5, [r7]
 1989 001c 985C     		ldrb	r0, [r3, r2]
 1990 001e 3F26     		mov	r6, #63
 1991 0020 2E40     		and	r6, r5
 1992 0022 B042     		cmp	r0, r6
 1993 0024 01D1     		bne	.L163
 249:.\Generated_Source\PSoC4/CyLib.c ****                     currentFreq = i + CY_SYS_CLK_IMO_FREQ_TABLE_OFFSET;
 1994              		.loc 1 249 0
 1995 0026 0333     		add	r3, r3, #3
 1996              	.LVL144:
 250:.\Generated_Source\PSoC4/CyLib.c ****                     break;
 1997              		.loc 1 250 0
 1998 0028 03E0     		b	.L164
 1999              	.LVL145:
 2000              	.L163:
 245:.\Generated_Source\PSoC4/CyLib.c ****             for (i = 0u; i < CY_SYS_CLK_IMO_FREQ_TABLE_SIZE; i++)
 2001              		.loc 1 245 0
 2002 002a 0133     		add	r3, r3, #1
 2003              	.LVL146:
 2004 002c 2E2B     		cmp	r3, #46
 2005 002e F2D1     		bne	.L165
 220:.\Generated_Source\PSoC4/CyLib.c ****         uint32 currentFreq = CY_SYS_CLK_IMO_MAX_FREQ_MHZ;
 2006              		.loc 1 220 0
 2007 0030 3023     		mov	r3, #48
 2008              	.LVL147:
 2009              	.L164:
 254:.\Generated_Source\PSoC4/CyLib.c ****             if(freq <= CY_SFLASH_IMO_MAXF0_REG)
 2010              		.loc 1 254 0
 2011 0032 3049     		ldr	r1, .L177+8
 2012 0034 0D78     		ldrb	r5, [r1]
 2013 0036 AC42     		cmp	r4, r5
 2014 0038 03D8     		bhi	.L166
 256:.\Generated_Source\PSoC4/CyLib.c ****                 bgTrim4 = CY_SFLASH_IMO_ABS0_REG;
 2015              		.loc 1 256 0
 2016 003a 2F4E     		ldr	r6, .L177+12
 257:.\Generated_Source\PSoC4/CyLib.c ****                 bgTrim5 = CY_SFLASH_IMO_TMPCO0_REG;
 2017              		.loc 1 257 0
 2018 003c 2F49     		ldr	r1, .L177+16
 256:.\Generated_Source\PSoC4/CyLib.c ****                 bgTrim4 = CY_SFLASH_IMO_ABS0_REG;
 2019              		.loc 1 256 0
 2020 003e 3678     		ldrb	r6, [r6]
 2021              	.LVL148:
 2022 0040 1AE0     		b	.L176
ARM GAS  C:\Users\CHUCK~1.ERH\AppData\Local\Temp\ccGtqbdp.s 			page 72


 2023              	.LVL149:
 2024              	.L166:
 259:.\Generated_Source\PSoC4/CyLib.c ****             else if(freq <= CY_SFLASH_IMO_MAXF1_REG)
 2025              		.loc 1 259 0
 2026 0042 2F4A     		ldr	r2, .L177+20
 2027 0044 1078     		ldrb	r0, [r2]
 2028 0046 8442     		cmp	r4, r0
 2029 0048 03D8     		bhi	.L168
 261:.\Generated_Source\PSoC4/CyLib.c ****                 bgTrim4 = CY_SFLASH_IMO_ABS1_REG;
 2030              		.loc 1 261 0
 2031 004a 2E48     		ldr	r0, .L177+24
 262:.\Generated_Source\PSoC4/CyLib.c ****                 bgTrim5 = CY_SFLASH_IMO_TMPCO1_REG;
 2032              		.loc 1 262 0
 2033 004c 2E49     		ldr	r1, .L177+28
 261:.\Generated_Source\PSoC4/CyLib.c ****                 bgTrim4 = CY_SFLASH_IMO_ABS1_REG;
 2034              		.loc 1 261 0
 2035 004e 0678     		ldrb	r6, [r0]
 2036              	.LVL150:
 2037 0050 12E0     		b	.L176
 2038              	.LVL151:
 2039              	.L168:
 264:.\Generated_Source\PSoC4/CyLib.c ****             else if(freq <= CY_SFLASH_IMO_MAXF2_REG)
 2040              		.loc 1 264 0
 2041 0052 2E4E     		ldr	r6, .L177+32
 2042 0054 3178     		ldrb	r1, [r6]
 2043 0056 8C42     		cmp	r4, r1
 2044 0058 03D8     		bhi	.L169
 266:.\Generated_Source\PSoC4/CyLib.c ****                 bgTrim4 = CY_SFLASH_IMO_ABS2_REG;
 2045              		.loc 1 266 0
 2046 005a 2D4A     		ldr	r2, .L177+36
 267:.\Generated_Source\PSoC4/CyLib.c ****                 bgTrim5 = CY_SFLASH_IMO_TMPCO2_REG;
 2047              		.loc 1 267 0
 2048 005c 2D49     		ldr	r1, .L177+40
 266:.\Generated_Source\PSoC4/CyLib.c ****                 bgTrim4 = CY_SFLASH_IMO_ABS2_REG;
 2049              		.loc 1 266 0
 2050 005e 1678     		ldrb	r6, [r2]
 2051              	.LVL152:
 2052 0060 0AE0     		b	.L176
 2053              	.LVL153:
 2054              	.L169:
 269:.\Generated_Source\PSoC4/CyLib.c ****             else if(freq <= CY_SFLASH_IMO_MAXF3_REG)
 2055              		.loc 1 269 0
 2056 0062 2D4D     		ldr	r5, .L177+44
 2057 0064 2A78     		ldrb	r2, [r5]
 2058 0066 9442     		cmp	r4, r2
 2059 0068 03D8     		bhi	.L170
 271:.\Generated_Source\PSoC4/CyLib.c ****                 bgTrim4 = CY_SFLASH_IMO_ABS3_REG;
 2060              		.loc 1 271 0
 2061 006a 2C4D     		ldr	r5, .L177+48
 272:.\Generated_Source\PSoC4/CyLib.c ****                 bgTrim5 = CY_SFLASH_IMO_TMPCO3_REG;
 2062              		.loc 1 272 0
 2063 006c 2C49     		ldr	r1, .L177+52
 271:.\Generated_Source\PSoC4/CyLib.c ****                 bgTrim4 = CY_SFLASH_IMO_ABS3_REG;
 2064              		.loc 1 271 0
 2065 006e 2E78     		ldrb	r6, [r5]
 2066              	.LVL154:
 2067 0070 02E0     		b	.L176
ARM GAS  C:\Users\CHUCK~1.ERH\AppData\Local\Temp\ccGtqbdp.s 			page 73


 2068              	.LVL155:
 2069              	.L170:
 276:.\Generated_Source\PSoC4/CyLib.c ****                 bgTrim4 = CY_SFLASH_IMO_ABS4_REG;
 2070              		.loc 1 276 0
 2071 0072 2C48     		ldr	r0, .L177+56
 277:.\Generated_Source\PSoC4/CyLib.c ****                 bgTrim5 = CY_SFLASH_IMO_TMPCO4_REG;
 2072              		.loc 1 277 0
 2073 0074 2C49     		ldr	r1, .L177+60
 276:.\Generated_Source\PSoC4/CyLib.c ****                 bgTrim4 = CY_SFLASH_IMO_ABS4_REG;
 2074              		.loc 1 276 0
 2075 0076 0678     		ldrb	r6, [r0]
 2076              	.LVL156:
 2077              	.L176:
 277:.\Generated_Source\PSoC4/CyLib.c ****                 bgTrim5 = CY_SFLASH_IMO_TMPCO4_REG;
 2078              		.loc 1 277 0
 2079 0078 0D78     		ldrb	r5, [r1]
 2080              	.LVL157:
 2081 007a 2B49     		ldr	r1, .L177+60
 2082 007c 6218     		add	r2, r4, r1
 2083 007e 0292     		str	r2, [sp, #8]
 286:.\Generated_Source\PSoC4/CyLib.c ****             if ((currentFreq >= CY_SYS_CLK_IMO_BOUNDARY_FREQ_MHZ) && (freq >= CY_SYS_CLK_IMO_BOUNDA
 2084              		.loc 1 286 0
 2085 0080 2A2B     		cmp	r3, #42
 2086 0082 07D9     		bls	.L171
 286:.\Generated_Source\PSoC4/CyLib.c ****             if ((currentFreq >= CY_SYS_CLK_IMO_BOUNDARY_FREQ_MHZ) && (freq >= CY_SYS_CLK_IMO_BOUNDA
 2087              		.loc 1 286 0 is_stmt 0 discriminator 1
 2088 0084 2A2C     		cmp	r4, #42
 2089 0086 1AD9     		bls	.L172
 289:.\Generated_Source\PSoC4/CyLib.c ****                 CY_SYS_CLK_IMO_TRIM2_REG = (uint32) cyImoFreqMhz2Reg[CY_SYS_CLK_IMO_TEMP_FREQ_MHZ -
 2090              		.loc 1 289 0 is_stmt 1
 2091 0088 1923     		mov	r3, #25
 2092              	.LVL158:
 2093 008a 3B60     		str	r3, [r7]
 292:.\Generated_Source\PSoC4/CyLib.c ****                 CyDelayCycles(CY_SYS_CLK_IMO_FREQ_TIMEOUT_CYCLES);
 2094              		.loc 1 292 0
 2095 008c 0520     		mov	r0, #5
 2096 008e FFF7FEFF 		bl	CyDelayCycles
 2097              	.LVL159:
 2098 0092 01E0     		b	.L173
 2099              	.LVL160:
 2100              	.L171:
 302:.\Generated_Source\PSoC4/CyLib.c ****             if (freq > currentFreq)
 2101              		.loc 1 302 0
 2102 0094 9C42     		cmp	r4, r3
 2103 0096 12D9     		bls	.L172
 2104              	.LVL161:
 2105              	.L173:
 305:.\Generated_Source\PSoC4/CyLib.c ****                 CY_SYS_CLK_IMO_TRIM1_REG = (uint32) CY_SFLASH_IMO_TRIM_REG(freq - CY_SYS_CLK_IMO_FR
 2106              		.loc 1 305 0
 2107 0098 0298     		ldr	r0, [sp, #8]
 2108 009a 244A     		ldr	r2, .L177+64
 2109 009c 0178     		ldrb	r1, [r0]
 306:.\Generated_Source\PSoC4/CyLib.c ****                 CY_PWR_BG_TRIM4_REG  = bgTrim4;
 2110              		.loc 1 306 0
 2111 009e 244C     		ldr	r4, .L177+68
 2112              	.LVL162:
 305:.\Generated_Source\PSoC4/CyLib.c ****                 CY_SYS_CLK_IMO_TRIM1_REG = (uint32) CY_SFLASH_IMO_TRIM_REG(freq - CY_SYS_CLK_IMO_FR
ARM GAS  C:\Users\CHUCK~1.ERH\AppData\Local\Temp\ccGtqbdp.s 			page 74


 2113              		.loc 1 305 0
 2114 00a0 1160     		str	r1, [r2]
 306:.\Generated_Source\PSoC4/CyLib.c ****                 CY_PWR_BG_TRIM4_REG  = bgTrim4;
 2115              		.loc 1 306 0
 2116 00a2 2660     		str	r6, [r4]
 307:.\Generated_Source\PSoC4/CyLib.c ****                 CY_PWR_BG_TRIM5_REG  = bgTrim5;
 2117              		.loc 1 307 0
 2118 00a4 234E     		ldr	r6, .L177+72
 2119              	.LVL163:
 308:.\Generated_Source\PSoC4/CyLib.c ****                 CyDelayUs(CY_SYS_CLK_IMO_TRIM_TIMEOUT_US);
 2120              		.loc 1 308 0
 2121 00a6 0520     		mov	r0, #5
 307:.\Generated_Source\PSoC4/CyLib.c ****                 CY_PWR_BG_TRIM5_REG  = bgTrim5;
 2122              		.loc 1 307 0
 2123 00a8 3560     		str	r5, [r6]
 308:.\Generated_Source\PSoC4/CyLib.c ****                 CyDelayUs(CY_SYS_CLK_IMO_TRIM_TIMEOUT_US);
 2124              		.loc 1 308 0
 2125 00aa FFF7FEFF 		bl	CyDelayUs
 2126              	.LVL164:
 311:.\Generated_Source\PSoC4/CyLib.c ****                 CY_SYS_CLK_IMO_TRIM2_REG = cyImoFreqMhz2Reg[freq - CY_SYS_CLK_IMO_FREQ_TABLE_OFFSET
 2127              		.loc 1 311 0
 2128 00ae 019B     		ldr	r3, [sp, #4]
 2129 00b0 0F4D     		ldr	r5, .L177+4
 2130              	.LVL165:
 2131 00b2 E85C     		ldrb	r0, [r5, r3]
 2132 00b4 3860     		str	r0, [r7]
 312:.\Generated_Source\PSoC4/CyLib.c ****                 CyDelayCycles(CY_SYS_CLK_IMO_FREQ_TIMEOUT_CYCLES);
 2133              		.loc 1 312 0
 2134 00b6 0520     		mov	r0, #5
 2135 00b8 FFF7FEFF 		bl	CyDelayCycles
 2136              	.LVL166:
 2137 00bc 11E0     		b	.L174
 2138              	.LVL167:
 2139              	.L172:
 317:.\Generated_Source\PSoC4/CyLib.c ****                 CY_SYS_CLK_IMO_TRIM2_REG = cyImoFreqMhz2Reg[freq - CY_SYS_CLK_IMO_FREQ_TABLE_OFFSET
 2140              		.loc 1 317 0
 2141 00be 0C4C     		ldr	r4, .L177+4
 2142              	.LVL168:
 2143 00c0 019B     		ldr	r3, [sp, #4]
 2144              	.LVL169:
 2145 00c2 E05C     		ldrb	r0, [r4, r3]
 322:.\Generated_Source\PSoC4/CyLib.c ****                 CY_PWR_BG_TRIM4_REG  = bgTrim4;
 2146              		.loc 1 322 0
 2147 00c4 1A4C     		ldr	r4, .L177+68
 317:.\Generated_Source\PSoC4/CyLib.c ****                 CY_SYS_CLK_IMO_TRIM2_REG = cyImoFreqMhz2Reg[freq - CY_SYS_CLK_IMO_FREQ_TABLE_OFFSET
 2148              		.loc 1 317 0
 2149 00c6 3860     		str	r0, [r7]
 318:.\Generated_Source\PSoC4/CyLib.c ****                 CyDelayCycles(CY_SYS_CLK_IMO_FREQ_TIMEOUT_CYCLES);
 2150              		.loc 1 318 0
 2151 00c8 0520     		mov	r0, #5
 2152 00ca FFF7FEFF 		bl	CyDelayCycles
 2153              	.LVL170:
 321:.\Generated_Source\PSoC4/CyLib.c ****                 CY_SYS_CLK_IMO_TRIM1_REG = CY_SFLASH_IMO_TRIM_REG(freq - CY_SYS_CLK_IMO_FREQ_TABLE_
 2154              		.loc 1 321 0
 2155 00ce 029F     		ldr	r7, [sp, #8]
 2156 00d0 1649     		ldr	r1, .L177+64
 2157 00d2 3A78     		ldrb	r2, [r7]
ARM GAS  C:\Users\CHUCK~1.ERH\AppData\Local\Temp\ccGtqbdp.s 			page 75


 324:.\Generated_Source\PSoC4/CyLib.c ****                 CyDelayUs(CY_SYS_CLK_IMO_TRIM_TIMEOUT_US);
 2158              		.loc 1 324 0
 2159 00d4 0520     		mov	r0, #5
 321:.\Generated_Source\PSoC4/CyLib.c ****                 CY_SYS_CLK_IMO_TRIM1_REG = CY_SFLASH_IMO_TRIM_REG(freq - CY_SYS_CLK_IMO_FREQ_TABLE_
 2160              		.loc 1 321 0
 2161 00d6 0A60     		str	r2, [r1]
 322:.\Generated_Source\PSoC4/CyLib.c ****                 CY_PWR_BG_TRIM4_REG  = bgTrim4;
 2162              		.loc 1 322 0
 2163 00d8 2660     		str	r6, [r4]
 323:.\Generated_Source\PSoC4/CyLib.c ****                 CY_PWR_BG_TRIM5_REG  = bgTrim5;
 2164              		.loc 1 323 0
 2165 00da 164E     		ldr	r6, .L177+72
 2166              	.LVL171:
 2167 00dc 3560     		str	r5, [r6]
 324:.\Generated_Source\PSoC4/CyLib.c ****                 CyDelayUs(CY_SYS_CLK_IMO_TRIM_TIMEOUT_US);
 2168              		.loc 1 324 0
 2169 00de FFF7FEFF 		bl	CyDelayUs
 2170              	.LVL172:
 2171              	.L174:
 327:.\Generated_Source\PSoC4/CyLib.c ****             CyExitCriticalSection(interruptState);
 2172              		.loc 1 327 0
 2173 00e2 0398     		ldr	r0, [sp, #12]
 2174 00e4 FFF7FEFF 		bl	CyExitCriticalSection
 2175              	.LVL173:
 2176              	.L161:
 334:.\Generated_Source\PSoC4/CyLib.c ****     }
 2177              		.loc 1 334 0
 2178 00e8 05B0     		add	sp, sp, #20
 2179              		@ sp needed for prologue
 2180 00ea F0BD     		pop	{r4, r5, r6, r7, pc}
 2181              	.L178:
 2182              		.align	2
 2183              	.L177:
 2184 00ec 2CFF0B40 		.word	1074528044
 2185 00f0 00000000 		.word	.LANCHOR1
 2186 00f4 C0F1FF0F 		.word	268431808
 2187 00f8 C1F1FF0F 		.word	268431809
 2188 00fc C2F1FF0F 		.word	268431810
 2189 0100 C3F1FF0F 		.word	268431811
 2190 0104 C4F1FF0F 		.word	268431812
 2191 0108 C5F1FF0F 		.word	268431813
 2192 010c C6F1FF0F 		.word	268431814
 2193 0110 C7F1FF0F 		.word	268431815
 2194 0114 C8F1FF0F 		.word	268431816
 2195 0118 C9F1FF0F 		.word	268431817
 2196 011c CAF1FF0F 		.word	268431818
 2197 0120 CBF1FF0F 		.word	268431819
 2198 0124 CCF1FF0F 		.word	268431820
 2199 0128 CDF1FF0F 		.word	268431821
 2200 012c 28FF0B40 		.word	1074528040
 2201 0130 1CFF0B40 		.word	1074528028
 2202 0134 20FF0B40 		.word	1074528032
 2203              		.cfi_endproc
 2204              	.LFE6:
 2205              		.size	CySysClkWriteImoFreq, .-CySysClkWriteImoFreq
 2206              		.global	__aeabi_uidiv
 2207              		.section	.text.CyDelayFreq,"ax",%progbits
ARM GAS  C:\Users\CHUCK~1.ERH\AppData\Local\Temp\ccGtqbdp.s 			page 76


 2208              		.align	1
 2209              		.global	CyDelayFreq
 2210              		.code	16
 2211              		.thumb_func
 2212              		.type	CyDelayFreq, %function
 2213              	CyDelayFreq:
 2214              	.LFB47:
1927:.\Generated_Source\PSoC4/CyLib.c **** 
1928:.\Generated_Source\PSoC4/CyLib.c **** 
1929:.\Generated_Source\PSoC4/CyLib.c **** /*******************************************************************************
1930:.\Generated_Source\PSoC4/CyLib.c **** * Function Name: CyDelayFreq
1931:.\Generated_Source\PSoC4/CyLib.c **** ********************************************************************************
1932:.\Generated_Source\PSoC4/CyLib.c **** * Summary:
1933:.\Generated_Source\PSoC4/CyLib.c **** *  Sets clock frequency for CyDelay.
1934:.\Generated_Source\PSoC4/CyLib.c **** *
1935:.\Generated_Source\PSoC4/CyLib.c **** * Parameters:
1936:.\Generated_Source\PSoC4/CyLib.c **** *  freq: Frequency of bus clock in Hertz.
1937:.\Generated_Source\PSoC4/CyLib.c **** *
1938:.\Generated_Source\PSoC4/CyLib.c **** * Return:
1939:.\Generated_Source\PSoC4/CyLib.c **** *  None
1940:.\Generated_Source\PSoC4/CyLib.c **** *
1941:.\Generated_Source\PSoC4/CyLib.c **** *******************************************************************************/
1942:.\Generated_Source\PSoC4/CyLib.c **** void CyDelayFreq(uint32 freq)
1943:.\Generated_Source\PSoC4/CyLib.c **** {
 2215              		.loc 1 1943 0
 2216              		.cfi_startproc
 2217              	.LVL174:
 2218 0000 38B5     		push	{r3, r4, r5, lr}
 2219              	.LCFI18:
 2220              		.cfi_def_cfa_offset 16
 2221              		.cfi_offset 3, -16
 2222              		.cfi_offset 4, -12
 2223              		.cfi_offset 5, -8
 2224              		.cfi_offset 14, -4
 2225 0002 0C4C     		ldr	r4, .L182
1944:.\Generated_Source\PSoC4/CyLib.c ****     if (freq != 0u)
 2226              		.loc 1 1944 0
 2227 0004 0028     		cmp	r0, #0
 2228 0006 01D0     		beq	.L180
1945:.\Generated_Source\PSoC4/CyLib.c ****     {
1946:.\Generated_Source\PSoC4/CyLib.c ****         cydelayFreqHz = freq;
 2229              		.loc 1 1946 0
 2230 0008 E060     		str	r0, [r4, #12]
 2231 000a 01E0     		b	.L181
 2232              	.L180:
1947:.\Generated_Source\PSoC4/CyLib.c ****     }
1948:.\Generated_Source\PSoC4/CyLib.c ****     else
1949:.\Generated_Source\PSoC4/CyLib.c ****     {
1950:.\Generated_Source\PSoC4/CyLib.c ****         cydelayFreqHz = CYDEV_BCLK__SYSCLK__HZ;
 2233              		.loc 1 1950 0
 2234 000c 0A4B     		ldr	r3, .L182+4
 2235 000e E360     		str	r3, [r4, #12]
 2236              	.L181:
1951:.\Generated_Source\PSoC4/CyLib.c ****     }
1952:.\Generated_Source\PSoC4/CyLib.c **** 
1953:.\Generated_Source\PSoC4/CyLib.c ****     cydelayFreqMhz = (uint8)((cydelayFreqHz + CY_DELAY_1M_MINUS_1_THRESHOLD) / CY_DELAY_1M_THRESHOL
 2237              		.loc 1 1953 0
ARM GAS  C:\Users\CHUCK~1.ERH\AppData\Local\Temp\ccGtqbdp.s 			page 77


 2238 0010 E568     		ldr	r5, [r4, #12]
 2239 0012 0A48     		ldr	r0, .L182+8
 2240              	.LVL175:
 2241 0014 0A49     		ldr	r1, .L182+12
 2242 0016 2818     		add	r0, r5, r0
 2243 0018 FFF7FEFF 		bl	__aeabi_uidiv
 2244              	.LVL176:
1954:.\Generated_Source\PSoC4/CyLib.c ****     cydelayFreqKhz = (cydelayFreqHz + CY_DELAY_1K_MINUS_1_THRESHOLD) / CY_DELAY_1K_THRESHOLD;
 2245              		.loc 1 1954 0
 2246 001c 0949     		ldr	r1, .L182+16
 2247 001e FA22     		mov	r2, #250
1953:.\Generated_Source\PSoC4/CyLib.c ****     cydelayFreqMhz = (uint8)((cydelayFreqHz + CY_DELAY_1M_MINUS_1_THRESHOLD) / CY_DELAY_1M_THRESHOL
 2248              		.loc 1 1953 0
 2249 0020 2072     		strb	r0, [r4, #8]
 2250              		.loc 1 1954 0
 2251 0022 6818     		add	r0, r5, r1
 2252 0024 9100     		lsl	r1, r2, #2
 2253 0026 FFF7FEFF 		bl	__aeabi_uidiv
 2254              	.LVL177:
1955:.\Generated_Source\PSoC4/CyLib.c ****     cydelay32kMs   = CY_DELAY_MS_OVERFLOW * cydelayFreqKhz;
 2255              		.loc 1 1955 0
 2256 002a C303     		lsl	r3, r0, #15
1954:.\Generated_Source\PSoC4/CyLib.c ****     cydelayFreqKhz = (cydelayFreqHz + CY_DELAY_1K_MINUS_1_THRESHOLD) / CY_DELAY_1K_THRESHOLD;
 2257              		.loc 1 1954 0
 2258 002c 6060     		str	r0, [r4, #4]
 2259              		.loc 1 1955 0
 2260 002e 2360     		str	r3, [r4]
1956:.\Generated_Source\PSoC4/CyLib.c **** }
 2261              		.loc 1 1956 0
 2262              		@ sp needed for prologue
 2263 0030 38BD     		pop	{r3, r4, r5, pc}
 2264              	.L183:
 2265 0032 C046     		.align	2
 2266              	.L182:
 2267 0034 00000000 		.word	.LANCHOR0
 2268 0038 006CDC02 		.word	48000000
 2269 003c 3F420F00 		.word	999999
 2270 0040 40420F00 		.word	1000000
 2271 0044 E7030000 		.word	999
 2272              		.cfi_endproc
 2273              	.LFE47:
 2274              		.size	CyDelayFreq, .-CyDelayFreq
 2275              		.global	cydelay32kMs
 2276              		.global	cydelayFreqMhz
 2277              		.global	cydelayFreqKhz
 2278              		.global	cydelayFreqHz
 2279              		.section	.rodata
 2280              		.set	.LANCHOR1,. + 0
 2281              		.type	cyImoFreqMhz2Reg.4608, %object
 2282              		.size	cyImoFreqMhz2Reg.4608, 46
 2283              	cyImoFreqMhz2Reg.4608:
 2284 0000 03       		.byte	3
 2285 0001 04       		.byte	4
 2286 0002 05       		.byte	5
 2287 0003 06       		.byte	6
 2288 0004 07       		.byte	7
 2289 0005 08       		.byte	8
ARM GAS  C:\Users\CHUCK~1.ERH\AppData\Local\Temp\ccGtqbdp.s 			page 78


 2290 0006 09       		.byte	9
 2291 0007 0A       		.byte	10
 2292 0008 0B       		.byte	11
 2293 0009 0C       		.byte	12
 2294 000a 0E       		.byte	14
 2295 000b 0F       		.byte	15
 2296 000c 10       		.byte	16
 2297 000d 11       		.byte	17
 2298 000e 12       		.byte	18
 2299 000f 13       		.byte	19
 2300 0010 14       		.byte	20
 2301 0011 15       		.byte	21
 2302 0012 16       		.byte	22
 2303 0013 17       		.byte	23
 2304 0014 18       		.byte	24
 2305 0015 19       		.byte	25
 2306 0016 1B       		.byte	27
 2307 0017 1C       		.byte	28
 2308 0018 1D       		.byte	29
 2309 0019 1E       		.byte	30
 2310 001a 1F       		.byte	31
 2311 001b 20       		.byte	32
 2312 001c 21       		.byte	33
 2313 001d 22       		.byte	34
 2314 001e 23       		.byte	35
 2315 001f 25       		.byte	37
 2316 0020 26       		.byte	38
 2317 0021 27       		.byte	39
 2318 0022 28       		.byte	40
 2319 0023 29       		.byte	41
 2320 0024 2A       		.byte	42
 2321 0025 2B       		.byte	43
 2322 0026 2E       		.byte	46
 2323 0027 2F       		.byte	47
 2324 0028 30       		.byte	48
 2325 0029 31       		.byte	49
 2326 002a 32       		.byte	50
 2327 002b 33       		.byte	51
 2328 002c 34       		.byte	52
 2329 002d 35       		.byte	53
 2330              		.data
 2331              		.align	2
 2332              		.set	.LANCHOR0,. + 0
 2333              		.type	cydelay32kMs, %object
 2334              		.size	cydelay32kMs, 4
 2335              	cydelay32kMs:
 2336 0000 0000C05D 		.word	1572864000
 2337              		.type	cydelayFreqKhz, %object
 2338              		.size	cydelayFreqKhz, 4
 2339              	cydelayFreqKhz:
 2340 0004 80BB0000 		.word	48000
 2341              		.type	cydelayFreqMhz, %object
 2342              		.size	cydelayFreqMhz, 1
 2343              	cydelayFreqMhz:
 2344 0008 30       		.byte	48
 2345 0009 000000   		.space	3
 2346              		.type	cydelayFreqHz, %object
ARM GAS  C:\Users\CHUCK~1.ERH\AppData\Local\Temp\ccGtqbdp.s 			page 79


 2347              		.size	cydelayFreqHz, 4
 2348              	cydelayFreqHz:
 2349 000c 006CDC02 		.word	48000000
 2350              		.text
 2351              	.Letext0:
 2352              		.file 2 ".\\Generated_Source\\PSoC4\\cytypes.h"
 2353              		.file 3 ".\\Generated_Source\\PSoC4\\CyLib.h"
 2354              		.section	.debug_info,"",%progbits
 2355              	.Ldebug_info0:
 2356 0000 AC0C0000 		.4byte	0xcac
 2357 0004 0200     		.2byte	0x2
 2358 0006 00000000 		.4byte	.Ldebug_abbrev0
 2359 000a 04       		.byte	0x4
 2360 000b 01       		.uleb128 0x1
 2361 000c B8040000 		.4byte	.LASF103
 2362 0010 01       		.byte	0x1
 2363 0011 45030000 		.4byte	.LASF104
 2364 0015 5F000000 		.4byte	.LASF105
 2365 0019 68000000 		.4byte	.Ldebug_ranges0+0x68
 2366 001d 00000000 		.4byte	0
 2367 0021 00000000 		.4byte	0
 2368 0025 00000000 		.4byte	.Ldebug_line0
 2369 0029 02       		.uleb128 0x2
 2370 002a 01       		.byte	0x1
 2371 002b 06       		.byte	0x6
 2372 002c 37010000 		.4byte	.LASF0
 2373 0030 02       		.uleb128 0x2
 2374 0031 01       		.byte	0x1
 2375 0032 08       		.byte	0x8
 2376 0033 17050000 		.4byte	.LASF1
 2377 0037 02       		.uleb128 0x2
 2378 0038 02       		.byte	0x2
 2379 0039 05       		.byte	0x5
 2380 003a 25050000 		.4byte	.LASF2
 2381 003e 02       		.uleb128 0x2
 2382 003f 02       		.byte	0x2
 2383 0040 07       		.byte	0x7
 2384 0041 23030000 		.4byte	.LASF3
 2385 0045 02       		.uleb128 0x2
 2386 0046 04       		.byte	0x4
 2387 0047 05       		.byte	0x5
 2388 0048 A1010000 		.4byte	.LASF4
 2389 004c 02       		.uleb128 0x2
 2390 004d 04       		.byte	0x4
 2391 004e 07       		.byte	0x7
 2392 004f B0020000 		.4byte	.LASF5
 2393 0053 02       		.uleb128 0x2
 2394 0054 08       		.byte	0x8
 2395 0055 05       		.byte	0x5
 2396 0056 29010000 		.4byte	.LASF6
 2397 005a 02       		.uleb128 0x2
 2398 005b 08       		.byte	0x8
 2399 005c 07       		.byte	0x7
 2400 005d E7000000 		.4byte	.LASF7
 2401 0061 03       		.uleb128 0x3
 2402 0062 04       		.byte	0x4
 2403 0063 05       		.byte	0x5
ARM GAS  C:\Users\CHUCK~1.ERH\AppData\Local\Temp\ccGtqbdp.s 			page 80


 2404 0064 696E7400 		.ascii	"int\000"
 2405 0068 02       		.uleb128 0x2
 2406 0069 04       		.byte	0x4
 2407 006a 07       		.byte	0x7
 2408 006b A3020000 		.4byte	.LASF8
 2409 006f 04       		.uleb128 0x4
 2410 0070 B7010000 		.4byte	.LASF9
 2411 0074 02       		.byte	0x2
 2412 0075 5B       		.byte	0x5b
 2413 0076 30000000 		.4byte	0x30
 2414 007a 04       		.uleb128 0x4
 2415 007b 1A000000 		.4byte	.LASF10
 2416 007f 02       		.byte	0x2
 2417 0080 5C       		.byte	0x5c
 2418 0081 3E000000 		.4byte	0x3e
 2419 0085 04       		.uleb128 0x4
 2420 0086 29020000 		.4byte	.LASF11
 2421 008a 02       		.byte	0x2
 2422 008b 5D       		.byte	0x5d
 2423 008c 4C000000 		.4byte	0x4c
 2424 0090 02       		.uleb128 0x2
 2425 0091 04       		.byte	0x4
 2426 0092 04       		.byte	0x4
 2427 0093 65040000 		.4byte	.LASF12
 2428 0097 02       		.uleb128 0x2
 2429 0098 08       		.byte	0x8
 2430 0099 04       		.byte	0x4
 2431 009a D3010000 		.4byte	.LASF13
 2432 009e 02       		.uleb128 0x2
 2433 009f 01       		.byte	0x1
 2434 00a0 08       		.byte	0x8
 2435 00a1 BE050000 		.4byte	.LASF14
 2436 00a5 04       		.uleb128 0x4
 2437 00a6 01050000 		.4byte	.LASF15
 2438 00aa 02       		.byte	0x2
 2439 00ab F0       		.byte	0xf0
 2440 00ac B0000000 		.4byte	0xb0
 2441 00b0 05       		.uleb128 0x5
 2442 00b1 6F000000 		.4byte	0x6f
 2443 00b5 04       		.uleb128 0x4
 2444 00b6 9E030000 		.4byte	.LASF16
 2445 00ba 02       		.byte	0x2
 2446 00bb F2       		.byte	0xf2
 2447 00bc C0000000 		.4byte	0xc0
 2448 00c0 05       		.uleb128 0x5
 2449 00c1 85000000 		.4byte	0x85
 2450 00c5 06       		.uleb128 0x6
 2451 00c6 D1050000 		.4byte	.LASF17
 2452 00ca 02       		.byte	0x2
 2453 00cb 0201     		.2byte	0x102
 2454 00cd D1000000 		.4byte	0xd1
 2455 00d1 07       		.uleb128 0x7
 2456 00d2 04       		.byte	0x4
 2457 00d3 D7000000 		.4byte	0xd7
 2458 00d7 08       		.uleb128 0x8
 2459 00d8 01       		.byte	0x1
 2460 00d9 02       		.uleb128 0x2
ARM GAS  C:\Users\CHUCK~1.ERH\AppData\Local\Temp\ccGtqbdp.s 			page 81


 2461 00da 04       		.byte	0x4
 2462 00db 07       		.byte	0x7
 2463 00dc D7030000 		.4byte	.LASF18
 2464 00e0 09       		.uleb128 0x9
 2465 00e1 01       		.byte	0x1
 2466 00e2 58060000 		.4byte	.LASF19
 2467 00e6 01       		.byte	0x1
 2468 00e7 2C       		.byte	0x2c
 2469 00e8 01       		.byte	0x1
 2470 00e9 00000000 		.4byte	.LFB0
 2471 00ed 14000000 		.4byte	.LFE0
 2472 00f1 02       		.byte	0x2
 2473 00f2 7D       		.byte	0x7d
 2474 00f3 00       		.sleb128 0
 2475 00f4 01       		.byte	0x1
 2476 00f5 09       		.uleb128 0x9
 2477 00f6 01       		.byte	0x1
 2478 00f7 EC020000 		.4byte	.LASF20
 2479 00fb 01       		.byte	0x1
 2480 00fc 40       		.byte	0x40
 2481 00fd 01       		.byte	0x1
 2482 00fe 00000000 		.4byte	.LFB1
 2483 0102 10000000 		.4byte	.LFE1
 2484 0106 02       		.byte	0x2
 2485 0107 7D       		.byte	0x7d
 2486 0108 00       		.sleb128 0
 2487 0109 01       		.byte	0x1
 2488 010a 09       		.uleb128 0x9
 2489 010b 01       		.byte	0x1
 2490 010c 66030000 		.4byte	.LASF21
 2491 0110 01       		.byte	0x1
 2492 0111 54       		.byte	0x54
 2493 0112 01       		.byte	0x1
 2494 0113 00000000 		.4byte	.LFB2
 2495 0117 14000000 		.4byte	.LFE2
 2496 011b 02       		.byte	0x2
 2497 011c 7D       		.byte	0x7d
 2498 011d 00       		.sleb128 0
 2499 011e 01       		.byte	0x1
 2500 011f 09       		.uleb128 0x9
 2501 0120 01       		.byte	0x1
 2502 0121 DA010000 		.4byte	.LASF22
 2503 0125 01       		.byte	0x1
 2504 0126 6D       		.byte	0x6d
 2505 0127 01       		.byte	0x1
 2506 0128 00000000 		.4byte	.LFB3
 2507 012c 10000000 		.4byte	.LFE3
 2508 0130 02       		.byte	0x2
 2509 0131 7D       		.byte	0x7d
 2510 0132 00       		.sleb128 0
 2511 0133 01       		.byte	0x1
 2512 0134 0A       		.uleb128 0xa
 2513 0135 01       		.byte	0x1
 2514 0136 30000000 		.4byte	.LASF23
 2515 013a 01       		.byte	0x1
 2516 013b 91       		.byte	0x91
 2517 013c 01       		.byte	0x1
ARM GAS  C:\Users\CHUCK~1.ERH\AppData\Local\Temp\ccGtqbdp.s 			page 82


 2518 013d 00000000 		.4byte	.LFB4
 2519 0141 18000000 		.4byte	.LFE4
 2520 0145 02       		.byte	0x2
 2521 0146 7D       		.byte	0x7d
 2522 0147 00       		.sleb128 0
 2523 0148 01       		.byte	0x1
 2524 0149 5D010000 		.4byte	0x15d
 2525 014d 0B       		.uleb128 0xb
 2526 014e 83050000 		.4byte	.LASF25
 2527 0152 01       		.byte	0x1
 2528 0153 91       		.byte	0x91
 2529 0154 85000000 		.4byte	0x85
 2530 0158 00000000 		.4byte	.LLST0
 2531 015c 00       		.byte	0
 2532 015d 0C       		.uleb128 0xc
 2533 015e 01       		.byte	0x1
 2534 015f EA050000 		.4byte	.LASF24
 2535 0163 01       		.byte	0x1
 2536 0164 B8       		.byte	0xb8
 2537 0165 01       		.byte	0x1
 2538 0166 00000000 		.4byte	.LFB5
 2539 016a 20000000 		.4byte	.LFE5
 2540 016e 21000000 		.4byte	.LLST1
 2541 0172 01       		.byte	0x1
 2542 0173 87010000 		.4byte	0x187
 2543 0177 0B       		.uleb128 0xb
 2544 0178 50060000 		.4byte	.LASF26
 2545 017c 01       		.byte	0x1
 2546 017d B8       		.byte	0xb8
 2547 017e 85000000 		.4byte	0x85
 2548 0182 41000000 		.4byte	.LLST2
 2549 0186 00       		.byte	0
 2550 0187 0D       		.uleb128 0xd
 2551 0188 01       		.byte	0x1
 2552 0189 72010000 		.4byte	.LASF27
 2553 018d 01       		.byte	0x1
 2554 018e 6501     		.2byte	0x165
 2555 0190 01       		.byte	0x1
 2556 0191 00000000 		.4byte	.LFB7
 2557 0195 30000000 		.4byte	.LFE7
 2558 0199 62000000 		.4byte	.LLST3
 2559 019d 01       		.byte	0x1
 2560 019e D5010000 		.4byte	0x1d5
 2561 01a2 0E       		.uleb128 0xe
 2562 01a3 DD020000 		.4byte	.LASF29
 2563 01a7 01       		.byte	0x1
 2564 01a8 6701     		.2byte	0x167
 2565 01aa 6F000000 		.4byte	0x6f
 2566 01ae 82000000 		.4byte	.LLST4
 2567 01b2 0F       		.uleb128 0xf
 2568 01b3 06000000 		.4byte	.LVL4
 2569 01b7 7D0C0000 		.4byte	0xc7d
 2570 01bb 0F       		.uleb128 0xf
 2571 01bc 14000000 		.4byte	.LVL7
 2572 01c0 0A010000 		.4byte	0x10a
 2573 01c4 10       		.uleb128 0x10
 2574 01c5 26000000 		.4byte	.LVL8
ARM GAS  C:\Users\CHUCK~1.ERH\AppData\Local\Temp\ccGtqbdp.s 			page 83


 2575 01c9 8B0C0000 		.4byte	0xc8b
 2576 01cd 11       		.uleb128 0x11
 2577 01ce 01       		.byte	0x1
 2578 01cf 50       		.byte	0x50
 2579 01d0 02       		.byte	0x2
 2580 01d1 74       		.byte	0x74
 2581 01d2 00       		.sleb128 0
 2582 01d3 00       		.byte	0
 2583 01d4 00       		.byte	0
 2584 01d5 0D       		.uleb128 0xd
 2585 01d6 01       		.byte	0x1
 2586 01d7 49000000 		.4byte	.LASF28
 2587 01db 01       		.byte	0x1
 2588 01dc 8B01     		.2byte	0x18b
 2589 01de 01       		.byte	0x1
 2590 01df 00000000 		.4byte	.LFB8
 2591 01e3 44000000 		.4byte	.LFE8
 2592 01e7 A0000000 		.4byte	.LLST5
 2593 01eb 01       		.byte	0x1
 2594 01ec 23020000 		.4byte	0x223
 2595 01f0 0E       		.uleb128 0xe
 2596 01f1 DD020000 		.4byte	.LASF29
 2597 01f5 01       		.byte	0x1
 2598 01f6 8D01     		.2byte	0x18d
 2599 01f8 6F000000 		.4byte	0x6f
 2600 01fc C0000000 		.4byte	.LLST6
 2601 0200 0F       		.uleb128 0xf
 2602 0201 06000000 		.4byte	.LVL10
 2603 0205 7D0C0000 		.4byte	0xc7d
 2604 0209 0F       		.uleb128 0xf
 2605 020a 14000000 		.4byte	.LVL13
 2606 020e 0A010000 		.4byte	0x10a
 2607 0212 10       		.uleb128 0x10
 2608 0213 36000000 		.4byte	.LVL14
 2609 0217 8B0C0000 		.4byte	0xc8b
 2610 021b 11       		.uleb128 0x11
 2611 021c 01       		.byte	0x1
 2612 021d 50       		.byte	0x50
 2613 021e 02       		.byte	0x2
 2614 021f 74       		.byte	0x74
 2615 0220 00       		.sleb128 0
 2616 0221 00       		.byte	0
 2617 0222 00       		.byte	0
 2618 0223 12       		.uleb128 0x12
 2619 0224 01       		.byte	0x1
 2620 0225 69060000 		.4byte	.LASF106
 2621 0229 01       		.byte	0x1
 2622 022a B801     		.2byte	0x1b8
 2623 022c 01       		.byte	0x1
 2624 022d 85000000 		.4byte	0x85
 2625 0231 01       		.byte	0x1
 2626 0232 43020000 		.4byte	0x243
 2627 0236 13       		.uleb128 0x13
 2628 0237 C1000000 		.4byte	.LASF31
 2629 023b 01       		.byte	0x1
 2630 023c B801     		.2byte	0x1b8
 2631 023e 85000000 		.4byte	0x85
ARM GAS  C:\Users\CHUCK~1.ERH\AppData\Local\Temp\ccGtqbdp.s 			page 84


 2632 0242 00       		.byte	0
 2633 0243 14       		.uleb128 0x14
 2634 0244 23020000 		.4byte	0x223
 2635 0248 00000000 		.4byte	.LFB9
 2636 024c 18000000 		.4byte	.LFE9
 2637 0250 02       		.byte	0x2
 2638 0251 7D       		.byte	0x7d
 2639 0252 00       		.sleb128 0
 2640 0253 01       		.byte	0x1
 2641 0254 62020000 		.4byte	0x262
 2642 0258 15       		.uleb128 0x15
 2643 0259 36020000 		.4byte	0x236
 2644 025d DE000000 		.4byte	.LLST7
 2645 0261 00       		.byte	0
 2646 0262 0D       		.uleb128 0xd
 2647 0263 01       		.byte	0x1
 2648 0264 00000000 		.4byte	.LASF30
 2649 0268 01       		.byte	0x1
 2650 0269 DB01     		.2byte	0x1db
 2651 026b 01       		.byte	0x1
 2652 026c 00000000 		.4byte	.LFB10
 2653 0270 3C000000 		.4byte	.LFE10
 2654 0274 FF000000 		.4byte	.LLST8
 2655 0278 01       		.byte	0x1
 2656 0279 C7020000 		.4byte	0x2c7
 2657 027d 16       		.uleb128 0x16
 2658 027e C1000000 		.4byte	.LASF31
 2659 0282 01       		.byte	0x1
 2660 0283 DB01     		.2byte	0x1db
 2661 0285 85000000 		.4byte	0x85
 2662 0289 1F010000 		.4byte	.LLST9
 2663 028d 16       		.uleb128 0x16
 2664 028e CC050000 		.4byte	.LASF32
 2665 0292 01       		.byte	0x1
 2666 0293 DB01     		.2byte	0x1db
 2667 0295 85000000 		.4byte	0x85
 2668 0299 4B010000 		.4byte	.LLST10
 2669 029d 0E       		.uleb128 0xe
 2670 029e 19060000 		.4byte	.LASF33
 2671 02a2 01       		.byte	0x1
 2672 02a3 DD01     		.2byte	0x1dd
 2673 02a5 85000000 		.4byte	0x85
 2674 02a9 77010000 		.4byte	.LLST11
 2675 02ad 0F       		.uleb128 0xf
 2676 02ae 12000000 		.4byte	.LVL20
 2677 02b2 0A010000 		.4byte	0x10a
 2678 02b6 10       		.uleb128 0x10
 2679 02b7 18000000 		.4byte	.LVL21
 2680 02bb 23020000 		.4byte	0x223
 2681 02bf 11       		.uleb128 0x11
 2682 02c0 01       		.byte	0x1
 2683 02c1 50       		.byte	0x50
 2684 02c2 02       		.byte	0x2
 2685 02c3 74       		.byte	0x74
 2686 02c4 00       		.sleb128 0
 2687 02c5 00       		.byte	0
 2688 02c6 00       		.byte	0
ARM GAS  C:\Users\CHUCK~1.ERH\AppData\Local\Temp\ccGtqbdp.s 			page 85


 2689 02c7 17       		.uleb128 0x17
 2690 02c8 01       		.byte	0x1
 2691 02c9 43010000 		.4byte	.LASF36
 2692 02cd 01       		.byte	0x1
 2693 02ce 0202     		.2byte	0x202
 2694 02d0 01       		.byte	0x1
 2695 02d1 85000000 		.4byte	0x85
 2696 02d5 00000000 		.4byte	.LFB11
 2697 02d9 14000000 		.4byte	.LFE11
 2698 02dd 02       		.byte	0x2
 2699 02de 7D       		.byte	0x7d
 2700 02df 00       		.sleb128 0
 2701 02e0 01       		.byte	0x1
 2702 02e1 F6020000 		.4byte	0x2f6
 2703 02e5 16       		.uleb128 0x16
 2704 02e6 C1000000 		.4byte	.LASF31
 2705 02ea 01       		.byte	0x1
 2706 02eb 0202     		.2byte	0x202
 2707 02ed 85000000 		.4byte	0x85
 2708 02f1 8A010000 		.4byte	.LLST12
 2709 02f5 00       		.byte	0
 2710 02f6 0D       		.uleb128 0xd
 2711 02f7 01       		.byte	0x1
 2712 02f8 A4030000 		.4byte	.LASF34
 2713 02fc 01       		.byte	0x1
 2714 02fd 2302     		.2byte	0x223
 2715 02ff 01       		.byte	0x1
 2716 0300 00000000 		.4byte	.LFB12
 2717 0304 34000000 		.4byte	.LFE12
 2718 0308 AB010000 		.4byte	.LLST13
 2719 030c 01       		.byte	0x1
 2720 030d 4B030000 		.4byte	0x34b
 2721 0311 16       		.uleb128 0x16
 2722 0312 C1000000 		.4byte	.LASF31
 2723 0316 01       		.byte	0x1
 2724 0317 2302     		.2byte	0x223
 2725 0319 85000000 		.4byte	0x85
 2726 031d CB010000 		.4byte	.LLST14
 2727 0321 16       		.uleb128 0x16
 2728 0322 CC010000 		.4byte	.LASF35
 2729 0326 01       		.byte	0x1
 2730 0327 2302     		.2byte	0x223
 2731 0329 85000000 		.4byte	0x85
 2732 032d F7010000 		.4byte	.LLST15
 2733 0331 0F       		.uleb128 0xf
 2734 0332 12000000 		.4byte	.LVL31
 2735 0336 0A010000 		.4byte	0x10a
 2736 033a 10       		.uleb128 0x10
 2737 033b 18000000 		.4byte	.LVL32
 2738 033f 23020000 		.4byte	0x223
 2739 0343 11       		.uleb128 0x11
 2740 0344 01       		.byte	0x1
 2741 0345 50       		.byte	0x50
 2742 0346 02       		.byte	0x2
 2743 0347 74       		.byte	0x74
 2744 0348 00       		.sleb128 0
 2745 0349 00       		.byte	0
ARM GAS  C:\Users\CHUCK~1.ERH\AppData\Local\Temp\ccGtqbdp.s 			page 86


 2746 034a 00       		.byte	0
 2747 034b 17       		.uleb128 0x17
 2748 034c 01       		.byte	0x1
 2749 034d BE030000 		.4byte	.LASF37
 2750 0351 01       		.byte	0x1
 2751 0352 4702     		.2byte	0x247
 2752 0354 01       		.byte	0x1
 2753 0355 85000000 		.4byte	0x85
 2754 0359 00000000 		.4byte	.LFB13
 2755 035d 18000000 		.4byte	.LFE13
 2756 0361 02       		.byte	0x2
 2757 0362 7D       		.byte	0x7d
 2758 0363 00       		.sleb128 0
 2759 0364 01       		.byte	0x1
 2760 0365 7A030000 		.4byte	0x37a
 2761 0369 16       		.uleb128 0x16
 2762 036a C1000000 		.4byte	.LASF31
 2763 036e 01       		.byte	0x1
 2764 036f 4702     		.2byte	0x247
 2765 0371 85000000 		.4byte	0x85
 2766 0375 23020000 		.4byte	.LLST16
 2767 0379 00       		.byte	0
 2768 037a 0D       		.uleb128 0xd
 2769 037b 01       		.byte	0x1
 2770 037c 88020000 		.4byte	.LASF38
 2771 0380 01       		.byte	0x1
 2772 0381 6802     		.2byte	0x268
 2773 0383 01       		.byte	0x1
 2774 0384 00000000 		.4byte	.LFB14
 2775 0388 24000000 		.4byte	.LFE14
 2776 038c 44020000 		.4byte	.LLST17
 2777 0390 01       		.byte	0x1
 2778 0391 AF030000 		.4byte	0x3af
 2779 0395 16       		.uleb128 0x16
 2780 0396 97020000 		.4byte	.LASF39
 2781 039a 01       		.byte	0x1
 2782 039b 6802     		.2byte	0x268
 2783 039d 85000000 		.4byte	0x85
 2784 03a1 64020000 		.4byte	.LLST18
 2785 03a5 0F       		.uleb128 0xf
 2786 03a6 10000000 		.4byte	.LVL39
 2787 03aa 0A010000 		.4byte	0x10a
 2788 03ae 00       		.byte	0
 2789 03af 0D       		.uleb128 0xd
 2790 03b0 01       		.byte	0x1
 2791 03b1 43050000 		.4byte	.LASF40
 2792 03b5 01       		.byte	0x1
 2793 03b6 8D02     		.2byte	0x28d
 2794 03b8 01       		.byte	0x1
 2795 03b9 00000000 		.4byte	.LFB15
 2796 03bd 24000000 		.4byte	.LFE15
 2797 03c1 90020000 		.4byte	.LLST19
 2798 03c5 01       		.byte	0x1
 2799 03c6 E4030000 		.4byte	0x3e4
 2800 03ca 16       		.uleb128 0x16
 2801 03cb 97020000 		.4byte	.LASF39
 2802 03cf 01       		.byte	0x1
ARM GAS  C:\Users\CHUCK~1.ERH\AppData\Local\Temp\ccGtqbdp.s 			page 87


 2803 03d0 8D02     		.2byte	0x28d
 2804 03d2 85000000 		.4byte	0x85
 2805 03d6 B0020000 		.4byte	.LLST20
 2806 03da 0F       		.uleb128 0xf
 2807 03db 10000000 		.4byte	.LVL43
 2808 03df 0A010000 		.4byte	0x10a
 2809 03e3 00       		.byte	0
 2810 03e4 0D       		.uleb128 0xd
 2811 03e5 01       		.byte	0x1
 2812 03e6 EA010000 		.4byte	.LASF41
 2813 03ea 01       		.byte	0x1
 2814 03eb B402     		.2byte	0x2b4
 2815 03ed 01       		.byte	0x1
 2816 03ee 00000000 		.4byte	.LFB16
 2817 03f2 44000000 		.4byte	.LFE16
 2818 03f6 DC020000 		.4byte	.LLST21
 2819 03fa 01       		.byte	0x1
 2820 03fb 8A040000 		.4byte	0x48a
 2821 03ff 16       		.uleb128 0x16
 2822 0400 44060000 		.4byte	.LASF42
 2823 0404 01       		.byte	0x1
 2824 0405 B402     		.2byte	0x2b4
 2825 0407 85000000 		.4byte	0x85
 2826 040b FC020000 		.4byte	.LLST22
 2827 040f 0E       		.uleb128 0xe
 2828 0410 19060000 		.4byte	.LASF33
 2829 0414 01       		.byte	0x1
 2830 0415 B602     		.2byte	0x2b6
 2831 0417 85000000 		.4byte	0x85
 2832 041b 28030000 		.4byte	.LLST23
 2833 041f 0E       		.uleb128 0xe
 2834 0420 73020000 		.4byte	.LASF43
 2835 0424 01       		.byte	0x1
 2836 0425 B702     		.2byte	0x2b7
 2837 0427 85000000 		.4byte	0x85
 2838 042b 51030000 		.4byte	.LLST24
 2839 042f 18       		.uleb128 0x18
 2840 0430 23020000 		.4byte	0x223
 2841 0434 00000000 		.4byte	.LBB8
 2842 0438 00000000 		.4byte	.Ldebug_ranges0+0
 2843 043c 01       		.byte	0x1
 2844 043d B902     		.2byte	0x2b9
 2845 043f 4A040000 		.4byte	0x44a
 2846 0443 19       		.uleb128 0x19
 2847 0444 36020000 		.4byte	0x236
 2848 0448 00       		.byte	0
 2849 0449 00       		.byte	0
 2850 044a 18       		.uleb128 0x18
 2851 044b 23020000 		.4byte	0x223
 2852 044f 08000000 		.4byte	.LBB13
 2853 0453 20000000 		.4byte	.Ldebug_ranges0+0x20
 2854 0457 01       		.byte	0x1
 2855 0458 BA02     		.2byte	0x2ba
 2856 045a 65040000 		.4byte	0x465
 2857 045e 19       		.uleb128 0x19
 2858 045f 36020000 		.4byte	0x236
 2859 0463 01       		.byte	0x1
ARM GAS  C:\Users\CHUCK~1.ERH\AppData\Local\Temp\ccGtqbdp.s 			page 88


 2860 0464 00       		.byte	0
 2861 0465 18       		.uleb128 0x18
 2862 0466 23020000 		.4byte	0x223
 2863 046a 0A000000 		.4byte	.LBB16
 2864 046e 38000000 		.4byte	.Ldebug_ranges0+0x38
 2865 0472 01       		.byte	0x1
 2866 0473 BB02     		.2byte	0x2bb
 2867 0475 80040000 		.4byte	0x480
 2868 0479 19       		.uleb128 0x19
 2869 047a 36020000 		.4byte	0x236
 2870 047e 02       		.byte	0x2
 2871 047f 00       		.byte	0
 2872 0480 0F       		.uleb128 0xf
 2873 0481 26000000 		.4byte	.LVL50
 2874 0485 0A010000 		.4byte	0x10a
 2875 0489 00       		.byte	0
 2876 048a 1A       		.uleb128 0x1a
 2877 048b 01       		.byte	0x1
 2878 048c 2F050000 		.4byte	.LASF46
 2879 0490 01       		.byte	0x1
 2880 0491 E102     		.2byte	0x2e1
 2881 0493 01       		.byte	0x1
 2882 0494 85000000 		.4byte	0x85
 2883 0498 00000000 		.4byte	.LFB17
 2884 049c 14000000 		.4byte	.LFE17
 2885 04a0 02       		.byte	0x2
 2886 04a1 7D       		.byte	0x7d
 2887 04a2 00       		.sleb128 0
 2888 04a3 01       		.byte	0x1
 2889 04a4 0D       		.uleb128 0xd
 2890 04a5 01       		.byte	0x1
 2891 04a6 90060000 		.4byte	.LASF44
 2892 04aa 01       		.byte	0x1
 2893 04ab 2B03     		.2byte	0x32b
 2894 04ad 01       		.byte	0x1
 2895 04ae 00000000 		.4byte	.LFB19
 2896 04b2 3C000000 		.4byte	.LFE19
 2897 04b6 78030000 		.4byte	.LLST25
 2898 04ba 01       		.byte	0x1
 2899 04bb 04050000 		.4byte	0x504
 2900 04bf 16       		.uleb128 0x16
 2901 04c0 9C010000 		.4byte	.LASF45
 2902 04c4 01       		.byte	0x1
 2903 04c5 2B03     		.2byte	0x32b
 2904 04c7 85000000 		.4byte	0x85
 2905 04cb 98030000 		.4byte	.LLST26
 2906 04cf 0E       		.uleb128 0xe
 2907 04d0 19060000 		.4byte	.LASF33
 2908 04d4 01       		.byte	0x1
 2909 04d5 2D03     		.2byte	0x32d
 2910 04d7 85000000 		.4byte	0x85
 2911 04db C4030000 		.4byte	.LLST27
 2912 04df 18       		.uleb128 0x18
 2913 04e0 23020000 		.4byte	0x223
 2914 04e4 00000000 		.4byte	.LBB24
 2915 04e8 50000000 		.4byte	.Ldebug_ranges0+0x50
 2916 04ec 01       		.byte	0x1
ARM GAS  C:\Users\CHUCK~1.ERH\AppData\Local\Temp\ccGtqbdp.s 			page 89


 2917 04ed 2F03     		.2byte	0x32f
 2918 04ef FA040000 		.4byte	0x4fa
 2919 04f3 19       		.uleb128 0x19
 2920 04f4 36020000 		.4byte	0x236
 2921 04f8 02       		.byte	0x2
 2922 04f9 00       		.byte	0
 2923 04fa 0F       		.uleb128 0xf
 2924 04fb 18000000 		.4byte	.LVL57
 2925 04ff 0A010000 		.4byte	0x10a
 2926 0503 00       		.byte	0
 2927 0504 1A       		.uleb128 0x1a
 2928 0505 01       		.byte	0x1
 2929 0506 A2040000 		.4byte	.LASF47
 2930 050a 01       		.byte	0x1
 2931 050b 4F03     		.2byte	0x34f
 2932 050d 01       		.byte	0x1
 2933 050e 85000000 		.4byte	0x85
 2934 0512 00000000 		.4byte	.LFB20
 2935 0516 10000000 		.4byte	.LFE20
 2936 051a 02       		.byte	0x2
 2937 051b 7D       		.byte	0x7d
 2938 051c 00       		.sleb128 0
 2939 051d 01       		.byte	0x1
 2940 051e 17       		.uleb128 0x17
 2941 051f 01       		.byte	0x1
 2942 0520 71050000 		.4byte	.LASF48
 2943 0524 01       		.byte	0x1
 2944 0525 6403     		.2byte	0x364
 2945 0527 01       		.byte	0x1
 2946 0528 85000000 		.4byte	0x85
 2947 052c 00000000 		.4byte	.LFB21
 2948 0530 10000000 		.4byte	.LFE21
 2949 0534 02       		.byte	0x2
 2950 0535 7D       		.byte	0x7d
 2951 0536 00       		.sleb128 0
 2952 0537 01       		.byte	0x1
 2953 0538 4D050000 		.4byte	0x54d
 2954 053c 16       		.uleb128 0x16
 2955 053d C1000000 		.4byte	.LASF31
 2956 0541 01       		.byte	0x1
 2957 0542 6403     		.2byte	0x364
 2958 0544 85000000 		.4byte	0x85
 2959 0548 ED030000 		.4byte	.LLST28
 2960 054c 00       		.byte	0
 2961 054d 1B       		.uleb128 0x1b
 2962 054e 01       		.byte	0x1
 2963 054f 54010000 		.4byte	.LASF49
 2964 0553 01       		.byte	0x1
 2965 0554 7B03     		.2byte	0x37b
 2966 0556 01       		.byte	0x1
 2967 0557 85000000 		.4byte	0x85
 2968 055b 00000000 		.4byte	.LFB22
 2969 055f 30000000 		.4byte	.LFE22
 2970 0563 0E040000 		.4byte	.LLST29
 2971 0567 01       		.byte	0x1
 2972 0568 8D050000 		.4byte	0x58d
 2973 056c 16       		.uleb128 0x16
ARM GAS  C:\Users\CHUCK~1.ERH\AppData\Local\Temp\ccGtqbdp.s 			page 90


 2974 056d C1000000 		.4byte	.LASF31
 2975 0571 01       		.byte	0x1
 2976 0572 7B03     		.2byte	0x37b
 2977 0574 85000000 		.4byte	0x85
 2978 0578 2E040000 		.4byte	.LLST30
 2979 057c 0E       		.uleb128 0xe
 2980 057d 4A020000 		.4byte	.LASF50
 2981 0581 01       		.byte	0x1
 2982 0582 7D03     		.2byte	0x37d
 2983 0584 85000000 		.4byte	0x85
 2984 0588 9A040000 		.4byte	.LLST31
 2985 058c 00       		.byte	0
 2986 058d 1A       		.uleb128 0x1a
 2987 058e 01       		.byte	0x1
 2988 058f 8D050000 		.4byte	.LASF51
 2989 0593 01       		.byte	0x1
 2990 0594 AC03     		.2byte	0x3ac
 2991 0596 01       		.byte	0x1
 2992 0597 85000000 		.4byte	0x85
 2993 059b 00000000 		.4byte	.LFB23
 2994 059f 14000000 		.4byte	.LFE23
 2995 05a3 02       		.byte	0x2
 2996 05a4 7D       		.byte	0x7d
 2997 05a5 00       		.sleb128 0
 2998 05a6 01       		.byte	0x1
 2999 05a7 0D       		.uleb128 0xd
 3000 05a8 01       		.byte	0x1
 3001 05a9 4E040000 		.4byte	.LASF52
 3002 05ad 01       		.byte	0x1
 3003 05ae CD03     		.2byte	0x3cd
 3004 05b0 01       		.byte	0x1
 3005 05b1 00000000 		.4byte	.LFB24
 3006 05b5 78000000 		.4byte	.LFE24
 3007 05b9 FE040000 		.4byte	.LLST32
 3008 05bd 01       		.byte	0x1
 3009 05be 15060000 		.4byte	0x615
 3010 05c2 16       		.uleb128 0x16
 3011 05c3 97020000 		.4byte	.LASF39
 3012 05c7 01       		.byte	0x1
 3013 05c8 CD03     		.2byte	0x3cd
 3014 05ca 85000000 		.4byte	0x85
 3015 05ce 1E050000 		.4byte	.LLST33
 3016 05d2 0E       		.uleb128 0xe
 3017 05d3 DD020000 		.4byte	.LASF29
 3018 05d7 01       		.byte	0x1
 3019 05d8 CF03     		.2byte	0x3cf
 3020 05da 6F000000 		.4byte	0x6f
 3021 05de 4A050000 		.4byte	.LLST34
 3022 05e2 0E       		.uleb128 0xe
 3023 05e3 37060000 		.4byte	.LASF53
 3024 05e7 01       		.byte	0x1
 3025 05e8 D003     		.2byte	0x3d0
 3026 05ea 85000000 		.4byte	0x85
 3027 05ee 68050000 		.4byte	.LLST35
 3028 05f2 0F       		.uleb128 0xf
 3029 05f3 08000000 		.4byte	.LVL75
 3030 05f7 7D0C0000 		.4byte	0xc7d
ARM GAS  C:\Users\CHUCK~1.ERH\AppData\Local\Temp\ccGtqbdp.s 			page 91


 3031 05fb 0F       		.uleb128 0xf
 3032 05fc 16000000 		.4byte	.LVL78
 3033 0600 0A010000 		.4byte	0x10a
 3034 0604 10       		.uleb128 0x10
 3035 0605 62000000 		.4byte	.LVL83
 3036 0609 8B0C0000 		.4byte	0xc8b
 3037 060d 11       		.uleb128 0x11
 3038 060e 01       		.byte	0x1
 3039 060f 50       		.byte	0x50
 3040 0610 02       		.byte	0x2
 3041 0611 74       		.byte	0x74
 3042 0612 00       		.sleb128 0
 3043 0613 00       		.byte	0
 3044 0614 00       		.byte	0
 3045 0615 0D       		.uleb128 0xd
 3046 0616 01       		.byte	0x1
 3047 0617 27040000 		.4byte	.LASF54
 3048 061b 01       		.byte	0x1
 3049 061c 1104     		.2byte	0x411
 3050 061e 01       		.byte	0x1
 3051 061f 00000000 		.4byte	.LFB25
 3052 0623 2C000000 		.4byte	.LFE25
 3053 0627 87050000 		.4byte	.LLST36
 3054 062b 01       		.byte	0x1
 3055 062c 4A060000 		.4byte	0x64a
 3056 0630 16       		.uleb128 0x16
 3057 0631 05020000 		.4byte	.LASF55
 3058 0635 01       		.byte	0x1
 3059 0636 1104     		.2byte	0x411
 3060 0638 85000000 		.4byte	0x85
 3061 063c A7050000 		.4byte	.LLST37
 3062 0640 0F       		.uleb128 0xf
 3063 0641 10000000 		.4byte	.LVL87
 3064 0645 0A010000 		.4byte	0x10a
 3065 0649 00       		.byte	0
 3066 064a 1C       		.uleb128 0x1c
 3067 064b 01       		.byte	0x1
 3068 064c 53020000 		.4byte	.LASF56
 3069 0650 01       		.byte	0x1
 3070 0651 9205     		.2byte	0x592
 3071 0653 01       		.byte	0x1
 3072 0654 00000000 		.4byte	.LFB26
 3073 0658 2C000000 		.4byte	.LFE26
 3074 065c 02       		.byte	0x2
 3075 065d 7D       		.byte	0x7d
 3076 065e 00       		.sleb128 0
 3077 065f 01       		.byte	0x1
 3078 0660 75060000 		.4byte	0x675
 3079 0664 16       		.uleb128 0x16
 3080 0665 06050000 		.4byte	.LASF57
 3081 0669 01       		.byte	0x1
 3082 066a 9205     		.2byte	0x592
 3083 066c 85000000 		.4byte	0x85
 3084 0670 D3050000 		.4byte	.LLST38
 3085 0674 00       		.byte	0
 3086 0675 1D       		.uleb128 0x1d
 3087 0676 01       		.byte	0x1
ARM GAS  C:\Users\CHUCK~1.ERH\AppData\Local\Temp\ccGtqbdp.s 			page 92


 3088 0677 09060000 		.4byte	.LASF58
 3089 067b 01       		.byte	0x1
 3090 067c AB05     		.2byte	0x5ab
 3091 067e 01       		.byte	0x1
 3092 067f 00000000 		.4byte	.LFB27
 3093 0683 20000000 		.4byte	.LFE27
 3094 0687 02       		.byte	0x2
 3095 0688 7D       		.byte	0x7d
 3096 0689 00       		.sleb128 0
 3097 068a 01       		.byte	0x1
 3098 068b 1A       		.uleb128 0x1a
 3099 068c 01       		.byte	0x1
 3100 068d C2020000 		.4byte	.LASF59
 3101 0691 01       		.byte	0x1
 3102 0692 C105     		.2byte	0x5c1
 3103 0694 01       		.byte	0x1
 3104 0695 85000000 		.4byte	0x85
 3105 0699 00000000 		.4byte	.LFB28
 3106 069d 10000000 		.4byte	.LFE28
 3107 06a1 02       		.byte	0x2
 3108 06a2 7D       		.byte	0x7d
 3109 06a3 00       		.sleb128 0
 3110 06a4 01       		.byte	0x1
 3111 06a5 1D       		.uleb128 0x1d
 3112 06a6 01       		.byte	0x1
 3113 06a7 12020000 		.4byte	.LASF60
 3114 06ab 01       		.byte	0x1
 3115 06ac D505     		.2byte	0x5d5
 3116 06ae 01       		.byte	0x1
 3117 06af 00000000 		.4byte	.LFB29
 3118 06b3 0C000000 		.4byte	.LFE29
 3119 06b7 02       		.byte	0x2
 3120 06b8 7D       		.byte	0x7d
 3121 06b9 00       		.sleb128 0
 3122 06ba 01       		.byte	0x1
 3123 06bb 17       		.uleb128 0x17
 3124 06bc 01       		.byte	0x1
 3125 06bd CC000000 		.4byte	.LASF61
 3126 06c1 01       		.byte	0x1
 3127 06c2 EB05     		.2byte	0x5eb
 3128 06c4 01       		.byte	0x1
 3129 06c5 85000000 		.4byte	0x85
 3130 06c9 00000000 		.4byte	.LFB30
 3131 06cd 10000000 		.4byte	.LFE30
 3132 06d1 02       		.byte	0x2
 3133 06d2 7D       		.byte	0x7d
 3134 06d3 00       		.sleb128 0
 3135 06d4 01       		.byte	0x1
 3136 06d5 E8060000 		.4byte	0x6e8
 3137 06d9 1E       		.uleb128 0x1e
 3138 06da 21000000 		.4byte	.LASF62
 3139 06de 01       		.byte	0x1
 3140 06df ED05     		.2byte	0x5ed
 3141 06e1 85000000 		.4byte	0x85
 3142 06e5 01       		.byte	0x1
 3143 06e6 50       		.byte	0x50
 3144 06e7 00       		.byte	0
ARM GAS  C:\Users\CHUCK~1.ERH\AppData\Local\Temp\ccGtqbdp.s 			page 93


 3145 06e8 1C       		.uleb128 0x1c
 3146 06e9 01       		.byte	0x1
 3147 06ea FE000000 		.4byte	.LASF63
 3148 06ee 01       		.byte	0x1
 3149 06ef 0706     		.2byte	0x607
 3150 06f1 01       		.byte	0x1
 3151 06f2 00000000 		.4byte	.LFB31
 3152 06f6 0C000000 		.4byte	.LFE31
 3153 06fa 02       		.byte	0x2
 3154 06fb 7D       		.byte	0x7d
 3155 06fc 00       		.sleb128 0
 3156 06fd 01       		.byte	0x1
 3157 06fe 11070000 		.4byte	0x711
 3158 0702 1F       		.uleb128 0x1f
 3159 0703 45020000 		.4byte	.LASF64
 3160 0707 01       		.byte	0x1
 3161 0708 0706     		.2byte	0x607
 3162 070a 85000000 		.4byte	0x85
 3163 070e 01       		.byte	0x1
 3164 070f 50       		.byte	0x50
 3165 0710 00       		.byte	0
 3166 0711 17       		.uleb128 0x17
 3167 0712 01       		.byte	0x1
 3168 0713 8C030000 		.4byte	.LASF65
 3169 0717 01       		.byte	0x1
 3170 0718 1D06     		.2byte	0x61d
 3171 071a 01       		.byte	0x1
 3172 071b C5000000 		.4byte	0xc5
 3173 071f 00000000 		.4byte	.LFB32
 3174 0723 0E000000 		.4byte	.LFE32
 3175 0727 02       		.byte	0x2
 3176 0728 7D       		.byte	0x7d
 3177 0729 00       		.sleb128 0
 3178 072a 01       		.byte	0x1
 3179 072b 6C070000 		.4byte	0x76c
 3180 072f 16       		.uleb128 0x16
 3181 0730 3E020000 		.4byte	.LASF66
 3182 0734 01       		.byte	0x1
 3183 0735 1D06     		.2byte	0x61d
 3184 0737 6F000000 		.4byte	0x6f
 3185 073b F4050000 		.4byte	.LLST39
 3186 073f 1F       		.uleb128 0x1f
 3187 0740 F2030000 		.4byte	.LASF67
 3188 0744 01       		.byte	0x1
 3189 0745 1D06     		.2byte	0x61d
 3190 0747 C5000000 		.4byte	0xc5
 3191 074b 01       		.byte	0x1
 3192 074c 51       		.byte	0x51
 3193 074d 1E       		.uleb128 0x1e
 3194 074e 58000000 		.4byte	.LASF68
 3195 0752 01       		.byte	0x1
 3196 0753 1F06     		.2byte	0x61f
 3197 0755 C5000000 		.4byte	0xc5
 3198 0759 01       		.byte	0x1
 3199 075a 50       		.byte	0x50
 3200 075b 20       		.uleb128 0x20
 3201 075c AF050000 		.4byte	.LASF69
ARM GAS  C:\Users\CHUCK~1.ERH\AppData\Local\Temp\ccGtqbdp.s 			page 94


 3202 0760 01       		.byte	0x1
 3203 0761 2006     		.2byte	0x620
 3204 0763 6C070000 		.4byte	0x76c
 3205 0767 00000020 		.4byte	0x20000000
 3206 076b 00       		.byte	0
 3207 076c 07       		.uleb128 0x7
 3208 076d 04       		.byte	0x4
 3209 076e C5000000 		.4byte	0xc5
 3210 0772 17       		.uleb128 0x17
 3211 0773 01       		.byte	0x1
 3212 0774 5F050000 		.4byte	.LASF70
 3213 0778 01       		.byte	0x1
 3214 0779 3D06     		.2byte	0x63d
 3215 077b 01       		.byte	0x1
 3216 077c C5000000 		.4byte	0xc5
 3217 0780 00000000 		.4byte	.LFB33
 3218 0784 0C000000 		.4byte	.LFE33
 3219 0788 02       		.byte	0x2
 3220 0789 7D       		.byte	0x7d
 3221 078a 00       		.sleb128 0
 3222 078b 01       		.byte	0x1
 3223 078c B1070000 		.4byte	0x7b1
 3224 0790 16       		.uleb128 0x16
 3225 0791 3E020000 		.4byte	.LASF66
 3226 0795 01       		.byte	0x1
 3227 0796 3D06     		.2byte	0x63d
 3228 0798 6F000000 		.4byte	0x6f
 3229 079c 15060000 		.4byte	.LLST40
 3230 07a0 20       		.uleb128 0x20
 3231 07a1 AF050000 		.4byte	.LASF69
 3232 07a5 01       		.byte	0x1
 3233 07a6 3F06     		.2byte	0x63f
 3234 07a8 6C070000 		.4byte	0x76c
 3235 07ac 00000020 		.4byte	0x20000000
 3236 07b0 00       		.byte	0
 3237 07b1 17       		.uleb128 0x17
 3238 07b2 01       		.byte	0x1
 3239 07b3 36030000 		.4byte	.LASF71
 3240 07b7 01       		.byte	0x1
 3241 07b8 5606     		.2byte	0x656
 3242 07ba 01       		.byte	0x1
 3243 07bb C5000000 		.4byte	0xc5
 3244 07bf 00000000 		.4byte	.LFB34
 3245 07c3 10000000 		.4byte	.LFE34
 3246 07c7 02       		.byte	0x2
 3247 07c8 7D       		.byte	0x7d
 3248 07c9 00       		.sleb128 0
 3249 07ca 01       		.byte	0x1
 3250 07cb 0C080000 		.4byte	0x80c
 3251 07cf 16       		.uleb128 0x16
 3252 07d0 3E020000 		.4byte	.LASF66
 3253 07d4 01       		.byte	0x1
 3254 07d5 5606     		.2byte	0x656
 3255 07d7 6F000000 		.4byte	0x6f
 3256 07db 36060000 		.4byte	.LLST41
 3257 07df 1F       		.uleb128 0x1f
 3258 07e0 F2030000 		.4byte	.LASF67
ARM GAS  C:\Users\CHUCK~1.ERH\AppData\Local\Temp\ccGtqbdp.s 			page 95


 3259 07e4 01       		.byte	0x1
 3260 07e5 5606     		.2byte	0x656
 3261 07e7 C5000000 		.4byte	0xc5
 3262 07eb 01       		.byte	0x1
 3263 07ec 51       		.byte	0x51
 3264 07ed 1E       		.uleb128 0x1e
 3265 07ee 58000000 		.4byte	.LASF68
 3266 07f2 01       		.byte	0x1
 3267 07f3 5806     		.2byte	0x658
 3268 07f5 C5000000 		.4byte	0xc5
 3269 07f9 01       		.byte	0x1
 3270 07fa 50       		.byte	0x50
 3271 07fb 20       		.uleb128 0x20
 3272 07fc AF050000 		.4byte	.LASF69
 3273 0800 01       		.byte	0x1
 3274 0801 5906     		.2byte	0x659
 3275 0803 6C070000 		.4byte	0x76c
 3276 0807 00000020 		.4byte	0x20000000
 3277 080b 00       		.byte	0
 3278 080c 17       		.uleb128 0x17
 3279 080d 01       		.byte	0x1
 3280 080e 86040000 		.4byte	.LASF72
 3281 0812 01       		.byte	0x1
 3282 0813 7506     		.2byte	0x675
 3283 0815 01       		.byte	0x1
 3284 0816 C5000000 		.4byte	0xc5
 3285 081a 00000000 		.4byte	.LFB35
 3286 081e 10000000 		.4byte	.LFE35
 3287 0822 02       		.byte	0x2
 3288 0823 7D       		.byte	0x7d
 3289 0824 00       		.sleb128 0
 3290 0825 01       		.byte	0x1
 3291 0826 4B080000 		.4byte	0x84b
 3292 082a 16       		.uleb128 0x16
 3293 082b 3E020000 		.4byte	.LASF66
 3294 082f 01       		.byte	0x1
 3295 0830 7506     		.2byte	0x675
 3296 0832 6F000000 		.4byte	0x6f
 3297 0836 57060000 		.4byte	.LLST42
 3298 083a 20       		.uleb128 0x20
 3299 083b AF050000 		.4byte	.LASF69
 3300 083f 01       		.byte	0x1
 3301 0840 7706     		.2byte	0x677
 3302 0842 6C070000 		.4byte	0x76c
 3303 0846 00000020 		.4byte	0x20000000
 3304 084a 00       		.byte	0
 3305 084b 0D       		.uleb128 0xd
 3306 084c 01       		.byte	0x1
 3307 084d 3D040000 		.4byte	.LASF73
 3308 0851 01       		.byte	0x1
 3309 0852 8D06     		.2byte	0x68d
 3310 0854 01       		.byte	0x1
 3311 0855 00000000 		.4byte	.LFB36
 3312 0859 34000000 		.4byte	.LFE36
 3313 085d 78060000 		.4byte	.LLST43
 3314 0861 01       		.byte	0x1
 3315 0862 C9080000 		.4byte	0x8c9
ARM GAS  C:\Users\CHUCK~1.ERH\AppData\Local\Temp\ccGtqbdp.s 			page 96


 3316 0866 16       		.uleb128 0x16
 3317 0867 3E020000 		.4byte	.LASF66
 3318 086b 01       		.byte	0x1
 3319 086c 8D06     		.2byte	0x68d
 3320 086e 6F000000 		.4byte	0x6f
 3321 0872 98060000 		.4byte	.LLST44
 3322 0876 16       		.uleb128 0x16
 3323 0877 C3050000 		.4byte	.LASF74
 3324 087b 01       		.byte	0x1
 3325 087c 8D06     		.2byte	0x68d
 3326 087e 6F000000 		.4byte	0x6f
 3327 0882 B9060000 		.4byte	.LLST45
 3328 0886 0E       		.uleb128 0xe
 3329 0887 DD020000 		.4byte	.LASF29
 3330 088b 01       		.byte	0x1
 3331 088c 8F06     		.2byte	0x68f
 3332 088e 6F000000 		.4byte	0x6f
 3333 0892 DA060000 		.4byte	.LLST46
 3334 0896 0E       		.uleb128 0xe
 3335 0897 FF010000 		.4byte	.LASF75
 3336 089b 01       		.byte	0x1
 3337 089c 9006     		.2byte	0x690
 3338 089e 85000000 		.4byte	0x85
 3339 08a2 ED060000 		.4byte	.LLST47
 3340 08a6 0E       		.uleb128 0xe
 3341 08a7 2A000000 		.4byte	.LASF76
 3342 08ab 01       		.byte	0x1
 3343 08ac 9106     		.2byte	0x691
 3344 08ae 85000000 		.4byte	0x85
 3345 08b2 21070000 		.4byte	.LLST48
 3346 08b6 0F       		.uleb128 0xf
 3347 08b7 0A000000 		.4byte	.LVL104
 3348 08bb 7D0C0000 		.4byte	0xc7d
 3349 08bf 0F       		.uleb128 0xf
 3350 08c0 2C000000 		.4byte	.LVL109
 3351 08c4 8B0C0000 		.4byte	0xc8b
 3352 08c8 00       		.byte	0
 3353 08c9 17       		.uleb128 0x17
 3354 08ca 01       		.byte	0x1
 3355 08cb 62020000 		.4byte	.LASF77
 3356 08cf 01       		.byte	0x1
 3357 08d0 B106     		.2byte	0x6b1
 3358 08d2 01       		.byte	0x1
 3359 08d3 6F000000 		.4byte	0x6f
 3360 08d7 00000000 		.4byte	.LFB37
 3361 08db 20000000 		.4byte	.LFE37
 3362 08df 02       		.byte	0x2
 3363 08e0 7D       		.byte	0x7d
 3364 08e1 00       		.sleb128 0
 3365 08e2 01       		.byte	0x1
 3366 08e3 04090000 		.4byte	0x904
 3367 08e7 16       		.uleb128 0x16
 3368 08e8 3E020000 		.4byte	.LASF66
 3369 08ec 01       		.byte	0x1
 3370 08ed B106     		.2byte	0x6b1
 3371 08ef 6F000000 		.4byte	0x6f
 3372 08f3 3F070000 		.4byte	.LLST49
ARM GAS  C:\Users\CHUCK~1.ERH\AppData\Local\Temp\ccGtqbdp.s 			page 97


 3373 08f7 21       		.uleb128 0x21
 3374 08f8 C3050000 		.4byte	.LASF74
 3375 08fc 01       		.byte	0x1
 3376 08fd B306     		.2byte	0x6b3
 3377 08ff 6F000000 		.4byte	0x6f
 3378 0903 00       		.byte	0
 3379 0904 1C       		.uleb128 0x1c
 3380 0905 01       		.byte	0x1
 3381 0906 53050000 		.4byte	.LASF78
 3382 090a 01       		.byte	0x1
 3383 090b CB06     		.2byte	0x6cb
 3384 090d 01       		.byte	0x1
 3385 090e 00000000 		.4byte	.LFB38
 3386 0912 14000000 		.4byte	.LFE38
 3387 0916 02       		.byte	0x2
 3388 0917 7D       		.byte	0x7d
 3389 0918 00       		.sleb128 0
 3390 0919 01       		.byte	0x1
 3391 091a 2F090000 		.4byte	0x92f
 3392 091e 16       		.uleb128 0x16
 3393 091f 3E020000 		.4byte	.LASF66
 3394 0923 01       		.byte	0x1
 3395 0924 CB06     		.2byte	0x6cb
 3396 0926 6F000000 		.4byte	0x6f
 3397 092a 60070000 		.4byte	.LLST50
 3398 092e 00       		.byte	0
 3399 092f 17       		.uleb128 0x17
 3400 0930 01       		.byte	0x1
 3401 0931 1B010000 		.4byte	.LASF79
 3402 0935 01       		.byte	0x1
 3403 0936 DF06     		.2byte	0x6df
 3404 0938 01       		.byte	0x1
 3405 0939 6F000000 		.4byte	0x6f
 3406 093d 00000000 		.4byte	.LFB39
 3407 0941 18000000 		.4byte	.LFE39
 3408 0945 02       		.byte	0x2
 3409 0946 7D       		.byte	0x7d
 3410 0947 00       		.sleb128 0
 3411 0948 01       		.byte	0x1
 3412 0949 5E090000 		.4byte	0x95e
 3413 094d 16       		.uleb128 0x16
 3414 094e 3E020000 		.4byte	.LASF66
 3415 0952 01       		.byte	0x1
 3416 0953 DF06     		.2byte	0x6df
 3417 0955 6F000000 		.4byte	0x6f
 3418 0959 81070000 		.4byte	.LLST51
 3419 095d 00       		.byte	0
 3420 095e 1C       		.uleb128 0x1c
 3421 095f 01       		.byte	0x1
 3422 0960 AA010000 		.4byte	.LASF80
 3423 0964 01       		.byte	0x1
 3424 0965 F406     		.2byte	0x6f4
 3425 0967 01       		.byte	0x1
 3426 0968 00000000 		.4byte	.LFB40
 3427 096c 14000000 		.4byte	.LFE40
 3428 0970 02       		.byte	0x2
 3429 0971 7D       		.byte	0x7d
ARM GAS  C:\Users\CHUCK~1.ERH\AppData\Local\Temp\ccGtqbdp.s 			page 98


 3430 0972 00       		.sleb128 0
 3431 0973 01       		.byte	0x1
 3432 0974 89090000 		.4byte	0x989
 3433 0978 16       		.uleb128 0x16
 3434 0979 3E020000 		.4byte	.LASF66
 3435 097d 01       		.byte	0x1
 3436 097e F406     		.2byte	0x6f4
 3437 0980 6F000000 		.4byte	0x6f
 3438 0984 A2070000 		.4byte	.LLST52
 3439 0988 00       		.byte	0
 3440 0989 1C       		.uleb128 0x1c
 3441 098a 01       		.byte	0x1
 3442 098b 13030000 		.4byte	.LASF81
 3443 098f 01       		.byte	0x1
 3444 0990 0707     		.2byte	0x707
 3445 0992 01       		.byte	0x1
 3446 0993 00000000 		.4byte	.LFB41
 3447 0997 14000000 		.4byte	.LFE41
 3448 099b 02       		.byte	0x2
 3449 099c 7D       		.byte	0x7d
 3450 099d 00       		.sleb128 0
 3451 099e 01       		.byte	0x1
 3452 099f B4090000 		.4byte	0x9b4
 3453 09a3 16       		.uleb128 0x16
 3454 09a4 3E020000 		.4byte	.LASF66
 3455 09a8 01       		.byte	0x1
 3456 09a9 0707     		.2byte	0x707
 3457 09ab 6F000000 		.4byte	0x6f
 3458 09af C3070000 		.4byte	.LLST53
 3459 09b3 00       		.byte	0
 3460 09b4 1C       		.uleb128 0x1c
 3461 09b5 01       		.byte	0x1
 3462 09b6 E0030000 		.4byte	.LASF82
 3463 09ba 01       		.byte	0x1
 3464 09bb 1B07     		.2byte	0x71b
 3465 09bd 01       		.byte	0x1
 3466 09be 00000000 		.4byte	.LFB42
 3467 09c2 14000000 		.4byte	.LFE42
 3468 09c6 02       		.byte	0x2
 3469 09c7 7D       		.byte	0x7d
 3470 09c8 00       		.sleb128 0
 3471 09c9 01       		.byte	0x1
 3472 09ca DF090000 		.4byte	0x9df
 3473 09ce 16       		.uleb128 0x16
 3474 09cf 3E020000 		.4byte	.LASF66
 3475 09d3 01       		.byte	0x1
 3476 09d4 1B07     		.2byte	0x71b
 3477 09d6 6F000000 		.4byte	0x6f
 3478 09da E4070000 		.4byte	.LLST54
 3479 09de 00       		.byte	0
 3480 09df 1C       		.uleb128 0x1c
 3481 09e0 01       		.byte	0x1
 3482 09e1 10050000 		.4byte	.LASF83
 3483 09e5 01       		.byte	0x1
 3484 09e6 2F07     		.2byte	0x72f
 3485 09e8 01       		.byte	0x1
 3486 09e9 00000000 		.4byte	.LFB43
ARM GAS  C:\Users\CHUCK~1.ERH\AppData\Local\Temp\ccGtqbdp.s 			page 99


 3487 09ed 04000000 		.4byte	.LFE43
 3488 09f1 02       		.byte	0x2
 3489 09f2 7D       		.byte	0x7d
 3490 09f3 00       		.sleb128 0
 3491 09f4 01       		.byte	0x1
 3492 09f5 080A0000 		.4byte	0xa08
 3493 09f9 1F       		.uleb128 0x1f
 3494 09fa A8050000 		.4byte	.LASF84
 3495 09fe 01       		.byte	0x1
 3496 09ff 2F07     		.2byte	0x72f
 3497 0a01 6F000000 		.4byte	0x6f
 3498 0a05 01       		.byte	0x1
 3499 0a06 50       		.byte	0x50
 3500 0a07 00       		.byte	0
 3501 0a08 1D       		.uleb128 0x1d
 3502 0a09 01       		.byte	0x1
 3503 0a0a 0B010000 		.4byte	.LASF85
 3504 0a0e 01       		.byte	0x1
 3505 0a0f 4E07     		.2byte	0x74e
 3506 0a11 01       		.byte	0x1
 3507 0a12 00000000 		.4byte	.LFB44
 3508 0a16 18000000 		.4byte	.LFE44
 3509 0a1a 02       		.byte	0x2
 3510 0a1b 7D       		.byte	0x7d
 3511 0a1c 00       		.sleb128 0
 3512 0a1d 01       		.byte	0x1
 3513 0a1e 0D       		.uleb128 0xd
 3514 0a1f 01       		.byte	0x1
 3515 0a20 01060000 		.4byte	.LASF86
 3516 0a24 01       		.byte	0x1
 3517 0a25 6707     		.2byte	0x767
 3518 0a27 01       		.byte	0x1
 3519 0a28 00000000 		.4byte	.LFB45
 3520 0a2c 2C000000 		.4byte	.LFE45
 3521 0a30 05080000 		.4byte	.LLST55
 3522 0a34 01       		.byte	0x1
 3523 0a35 5C0A0000 		.4byte	0xa5c
 3524 0a39 16       		.uleb128 0x16
 3525 0a3a 95040000 		.4byte	.LASF87
 3526 0a3e 01       		.byte	0x1
 3527 0a3f 6707     		.2byte	0x767
 3528 0a41 85000000 		.4byte	0x85
 3529 0a45 25080000 		.4byte	.LLST56
 3530 0a49 0F       		.uleb128 0xf
 3531 0a4a 14000000 		.4byte	.LVL126
 3532 0a4e 9F0C0000 		.4byte	0xc9f
 3533 0a52 0F       		.uleb128 0xf
 3534 0a53 22000000 		.4byte	.LVL128
 3535 0a57 9F0C0000 		.4byte	0xc9f
 3536 0a5b 00       		.byte	0
 3537 0a5c 0D       		.uleb128 0xd
 3538 0a5d 01       		.byte	0x1
 3539 0a5e 7F010000 		.4byte	.LASF88
 3540 0a62 01       		.byte	0x1
 3541 0a63 8307     		.2byte	0x783
 3542 0a65 01       		.byte	0x1
 3543 0a66 00000000 		.4byte	.LFB46
ARM GAS  C:\Users\CHUCK~1.ERH\AppData\Local\Temp\ccGtqbdp.s 			page 100


 3544 0a6a 14000000 		.4byte	.LFE46
 3545 0a6e 43080000 		.4byte	.LLST57
 3546 0a72 01       		.byte	0x1
 3547 0a73 910A0000 		.4byte	0xa91
 3548 0a77 16       		.uleb128 0x16
 3549 0a78 83060000 		.4byte	.LASF89
 3550 0a7c 01       		.byte	0x1
 3551 0a7d 8307     		.2byte	0x783
 3552 0a7f 7A000000 		.4byte	0x7a
 3553 0a83 63080000 		.4byte	.LLST58
 3554 0a87 0F       		.uleb128 0xf
 3555 0a88 0C000000 		.4byte	.LVL132
 3556 0a8c 9F0C0000 		.4byte	0xc9f
 3557 0a90 00       		.byte	0
 3558 0a91 0D       		.uleb128 0xd
 3559 0a92 01       		.byte	0x1
 3560 0a93 89010000 		.4byte	.LASF90
 3561 0a97 01       		.byte	0x1
 3562 0a98 FD02     		.2byte	0x2fd
 3563 0a9a 01       		.byte	0x1
 3564 0a9b 00000000 		.4byte	.LFB18
 3565 0a9f 3C000000 		.4byte	.LFE18
 3566 0aa3 84080000 		.4byte	.LLST59
 3567 0aa7 01       		.byte	0x1
 3568 0aa8 F60A0000 		.4byte	0xaf6
 3569 0aac 16       		.uleb128 0x16
 3570 0aad C1000000 		.4byte	.LASF31
 3571 0ab1 01       		.byte	0x1
 3572 0ab2 FD02     		.2byte	0x2fd
 3573 0ab4 85000000 		.4byte	0x85
 3574 0ab8 A4080000 		.4byte	.LLST60
 3575 0abc 16       		.uleb128 0x16
 3576 0abd 02040000 		.4byte	.LASF91
 3577 0ac1 01       		.byte	0x1
 3578 0ac2 FD02     		.2byte	0x2fd
 3579 0ac4 85000000 		.4byte	0x85
 3580 0ac8 D0080000 		.4byte	.LLST61
 3581 0acc 0E       		.uleb128 0xe
 3582 0acd 4A020000 		.4byte	.LASF50
 3583 0ad1 01       		.byte	0x1
 3584 0ad2 FF02     		.2byte	0x2ff
 3585 0ad4 85000000 		.4byte	0x85
 3586 0ad8 FC080000 		.4byte	.LLST62
 3587 0adc 0F       		.uleb128 0xf
 3588 0add 12000000 		.4byte	.LVL135
 3589 0ae1 0A010000 		.4byte	0x10a
 3590 0ae5 10       		.uleb128 0x10
 3591 0ae6 18000000 		.4byte	.LVL136
 3592 0aea 5C0A0000 		.4byte	0xa5c
 3593 0aee 11       		.uleb128 0x11
 3594 0aef 01       		.byte	0x1
 3595 0af0 50       		.byte	0x50
 3596 0af1 02       		.byte	0x2
 3597 0af2 08       		.byte	0x8
 3598 0af3 82       		.byte	0x82
 3599 0af4 00       		.byte	0
 3600 0af5 00       		.byte	0
ARM GAS  C:\Users\CHUCK~1.ERH\AppData\Local\Temp\ccGtqbdp.s 			page 101


 3601 0af6 0C       		.uleb128 0xc
 3602 0af7 01       		.byte	0x1
 3603 0af8 77030000 		.4byte	.LASF92
 3604 0afc 01       		.byte	0x1
 3605 0afd D8       		.byte	0xd8
 3606 0afe 01       		.byte	0x1
 3607 0aff 00000000 		.4byte	.LFB6
 3608 0b03 38010000 		.4byte	.LFE6
 3609 0b07 24090000 		.4byte	.LLST63
 3610 0b0b 01       		.byte	0x1
 3611 0b0c F40B0000 		.4byte	0xbf4
 3612 0b10 0B       		.uleb128 0xb
 3613 0b11 81040000 		.4byte	.LASF93
 3614 0b15 01       		.byte	0x1
 3615 0b16 D8       		.byte	0xd8
 3616 0b17 85000000 		.4byte	0x85
 3617 0b1b 50090000 		.4byte	.LLST64
 3618 0b1f 22       		.uleb128 0x22
 3619 0b20 12000000 		.4byte	.LASF94
 3620 0b24 01       		.byte	0x1
 3621 0b25 DA       		.byte	0xda
 3622 0b26 6F000000 		.4byte	0x6f
 3623 0b2a C2090000 		.4byte	.LLST65
 3624 0b2e 22       		.uleb128 0x22
 3625 0b2f FA030000 		.4byte	.LASF95
 3626 0b33 01       		.byte	0x1
 3627 0b34 DB       		.byte	0xdb
 3628 0b35 6F000000 		.4byte	0x6f
 3629 0b39 280A0000 		.4byte	.LLST66
 3630 0b3d 22       		.uleb128 0x22
 3631 0b3e DE050000 		.4byte	.LASF96
 3632 0b42 01       		.byte	0x1
 3633 0b43 DC       		.byte	0xdc
 3634 0b44 85000000 		.4byte	0x85
 3635 0b48 460A0000 		.4byte	.LLST67
 3636 0b4c 22       		.uleb128 0x22
 3637 0b4d DD020000 		.4byte	.LASF29
 3638 0b51 01       		.byte	0x1
 3639 0b52 DD       		.byte	0xdd
 3640 0b53 6F000000 		.4byte	0x6f
 3641 0b57 A00A0000 		.4byte	.LLST68
 3642 0b5b 23       		.uleb128 0x23
 3643 0b5c 6900     		.ascii	"i\000"
 3644 0b5e 01       		.byte	0x1
 3645 0b5f DE       		.byte	0xde
 3646 0b60 85000000 		.4byte	0x85
 3647 0b64 B40A0000 		.4byte	.LLST69
 3648 0b68 24       		.uleb128 0x24
 3649 0b69 08040000 		.4byte	.LASF97
 3650 0b6d 01       		.byte	0x1
 3651 0b6e E1       		.byte	0xe1
 3652 0b6f 040C0000 		.4byte	0xc04
 3653 0b73 05       		.byte	0x5
 3654 0b74 03       		.byte	0x3
 3655 0b75 00000000 		.4byte	cyImoFreqMhz2Reg.4608
 3656 0b79 0F       		.uleb128 0xf
 3657 0b7a 12000000 		.4byte	.LVL142
ARM GAS  C:\Users\CHUCK~1.ERH\AppData\Local\Temp\ccGtqbdp.s 			page 102


 3658 0b7e 7D0C0000 		.4byte	0xc7d
 3659 0b82 25       		.uleb128 0x25
 3660 0b83 92000000 		.4byte	.LVL159
 3661 0b87 9F0C0000 		.4byte	0xc9f
 3662 0b8b 950B0000 		.4byte	0xb95
 3663 0b8f 11       		.uleb128 0x11
 3664 0b90 01       		.byte	0x1
 3665 0b91 50       		.byte	0x50
 3666 0b92 01       		.byte	0x1
 3667 0b93 35       		.byte	0x35
 3668 0b94 00       		.byte	0
 3669 0b95 25       		.uleb128 0x25
 3670 0b96 AE000000 		.4byte	.LVL164
 3671 0b9a 5C0A0000 		.4byte	0xa5c
 3672 0b9e A80B0000 		.4byte	0xba8
 3673 0ba2 11       		.uleb128 0x11
 3674 0ba3 01       		.byte	0x1
 3675 0ba4 50       		.byte	0x50
 3676 0ba5 01       		.byte	0x1
 3677 0ba6 35       		.byte	0x35
 3678 0ba7 00       		.byte	0
 3679 0ba8 25       		.uleb128 0x25
 3680 0ba9 BC000000 		.4byte	.LVL166
 3681 0bad 9F0C0000 		.4byte	0xc9f
 3682 0bb1 BB0B0000 		.4byte	0xbbb
 3683 0bb5 11       		.uleb128 0x11
 3684 0bb6 01       		.byte	0x1
 3685 0bb7 50       		.byte	0x50
 3686 0bb8 01       		.byte	0x1
 3687 0bb9 35       		.byte	0x35
 3688 0bba 00       		.byte	0
 3689 0bbb 25       		.uleb128 0x25
 3690 0bbc CE000000 		.4byte	.LVL170
 3691 0bc0 9F0C0000 		.4byte	0xc9f
 3692 0bc4 CE0B0000 		.4byte	0xbce
 3693 0bc8 11       		.uleb128 0x11
 3694 0bc9 01       		.byte	0x1
 3695 0bca 50       		.byte	0x50
 3696 0bcb 01       		.byte	0x1
 3697 0bcc 35       		.byte	0x35
 3698 0bcd 00       		.byte	0
 3699 0bce 25       		.uleb128 0x25
 3700 0bcf E2000000 		.4byte	.LVL172
 3701 0bd3 5C0A0000 		.4byte	0xa5c
 3702 0bd7 E10B0000 		.4byte	0xbe1
 3703 0bdb 11       		.uleb128 0x11
 3704 0bdc 01       		.byte	0x1
 3705 0bdd 50       		.byte	0x50
 3706 0bde 01       		.byte	0x1
 3707 0bdf 35       		.byte	0x35
 3708 0be0 00       		.byte	0
 3709 0be1 10       		.uleb128 0x10
 3710 0be2 E8000000 		.4byte	.LVL173
 3711 0be6 8B0C0000 		.4byte	0xc8b
 3712 0bea 11       		.uleb128 0x11
 3713 0beb 01       		.byte	0x1
 3714 0bec 50       		.byte	0x50
ARM GAS  C:\Users\CHUCK~1.ERH\AppData\Local\Temp\ccGtqbdp.s 			page 103


 3715 0bed 04       		.byte	0x4
 3716 0bee 91       		.byte	0x91
 3717 0bef 64       		.sleb128 -28
 3718 0bf0 94       		.byte	0x94
 3719 0bf1 01       		.byte	0x1
 3720 0bf2 00       		.byte	0
 3721 0bf3 00       		.byte	0
 3722 0bf4 26       		.uleb128 0x26
 3723 0bf5 6F000000 		.4byte	0x6f
 3724 0bf9 040C0000 		.4byte	0xc04
 3725 0bfd 27       		.uleb128 0x27
 3726 0bfe D9000000 		.4byte	0xd9
 3727 0c02 2D       		.byte	0x2d
 3728 0c03 00       		.byte	0
 3729 0c04 28       		.uleb128 0x28
 3730 0c05 F40B0000 		.4byte	0xbf4
 3731 0c09 29       		.uleb128 0x29
 3732 0c0a 01       		.byte	0x1
 3733 0c0b 66010000 		.4byte	.LASF98
 3734 0c0f 01       		.byte	0x1
 3735 0c10 9607     		.2byte	0x796
 3736 0c12 01       		.byte	0x1
 3737 0c13 00000000 		.4byte	.LFB47
 3738 0c17 48000000 		.4byte	.LFE47
 3739 0c1b C70A0000 		.4byte	.LLST70
 3740 0c1f 01       		.byte	0x1
 3741 0c20 350C0000 		.4byte	0xc35
 3742 0c24 16       		.uleb128 0x16
 3743 0c25 81040000 		.4byte	.LASF93
 3744 0c29 01       		.byte	0x1
 3745 0c2a 9607     		.2byte	0x796
 3746 0c2c 85000000 		.4byte	0x85
 3747 0c30 E70A0000 		.4byte	.LLST71
 3748 0c34 00       		.byte	0
 3749 0c35 2A       		.uleb128 0x2a
 3750 0c36 19040000 		.4byte	.LASF99
 3751 0c3a 01       		.byte	0x1
 3752 0c3b 17       		.byte	0x17
 3753 0c3c 85000000 		.4byte	0x85
 3754 0c40 01       		.byte	0x1
 3755 0c41 05       		.byte	0x5
 3756 0c42 03       		.byte	0x3
 3757 0c43 00000000 		.4byte	cydelayFreqHz
 3758 0c47 2A       		.uleb128 0x2a
 3759 0c48 BD010000 		.4byte	.LASF100
 3760 0c4c 01       		.byte	0x1
 3761 0c4d 18       		.byte	0x18
 3762 0c4e 85000000 		.4byte	0x85
 3763 0c52 01       		.byte	0x1
 3764 0c53 05       		.byte	0x5
 3765 0c54 03       		.byte	0x3
 3766 0c55 00000000 		.4byte	cydelayFreqKhz
 3767 0c59 2A       		.uleb128 0x2a
 3768 0c5a 28060000 		.4byte	.LASF101
 3769 0c5e 01       		.byte	0x1
 3770 0c5f 19       		.byte	0x19
 3771 0c60 6F000000 		.4byte	0x6f
ARM GAS  C:\Users\CHUCK~1.ERH\AppData\Local\Temp\ccGtqbdp.s 			page 104


 3772 0c64 01       		.byte	0x1
 3773 0c65 05       		.byte	0x5
 3774 0c66 03       		.byte	0x3
 3775 0c67 00000000 		.4byte	cydelayFreqMhz
 3776 0c6b 2A       		.uleb128 0x2a
 3777 0c6c DA000000 		.4byte	.LASF102
 3778 0c70 01       		.byte	0x1
 3779 0c71 1A       		.byte	0x1a
 3780 0c72 85000000 		.4byte	0x85
 3781 0c76 01       		.byte	0x1
 3782 0c77 05       		.byte	0x5
 3783 0c78 03       		.byte	0x3
 3784 0c79 00000000 		.4byte	cydelay32kMs
 3785 0c7d 2B       		.uleb128 0x2b
 3786 0c7e 01       		.byte	0x1
 3787 0c7f FC020000 		.4byte	.LASF107
 3788 0c83 03       		.byte	0x3
 3789 0c84 70       		.byte	0x70
 3790 0c85 01       		.byte	0x1
 3791 0c86 6F000000 		.4byte	0x6f
 3792 0c8a 01       		.byte	0x1
 3793 0c8b 2C       		.uleb128 0x2c
 3794 0c8c 01       		.byte	0x1
 3795 0c8d 6B040000 		.4byte	.LASF108
 3796 0c91 03       		.byte	0x3
 3797 0c92 71       		.byte	0x71
 3798 0c93 01       		.byte	0x1
 3799 0c94 01       		.byte	0x1
 3800 0c95 9F0C0000 		.4byte	0xc9f
 3801 0c99 2D       		.uleb128 0x2d
 3802 0c9a 6F000000 		.4byte	0x6f
 3803 0c9e 00       		.byte	0
 3804 0c9f 2E       		.uleb128 0x2e
 3805 0ca0 01       		.byte	0x1
 3806 0ca1 30020000 		.4byte	.LASF109
 3807 0ca5 03       		.byte	0x3
 3808 0ca6 6C       		.byte	0x6c
 3809 0ca7 01       		.byte	0x1
 3810 0ca8 01       		.byte	0x1
 3811 0ca9 2D       		.uleb128 0x2d
 3812 0caa 85000000 		.4byte	0x85
 3813 0cae 00       		.byte	0
 3814 0caf 00       		.byte	0
 3815              		.section	.debug_abbrev,"",%progbits
 3816              	.Ldebug_abbrev0:
 3817 0000 01       		.uleb128 0x1
 3818 0001 11       		.uleb128 0x11
 3819 0002 01       		.byte	0x1
 3820 0003 25       		.uleb128 0x25
 3821 0004 0E       		.uleb128 0xe
 3822 0005 13       		.uleb128 0x13
 3823 0006 0B       		.uleb128 0xb
 3824 0007 03       		.uleb128 0x3
 3825 0008 0E       		.uleb128 0xe
 3826 0009 1B       		.uleb128 0x1b
 3827 000a 0E       		.uleb128 0xe
 3828 000b 55       		.uleb128 0x55
ARM GAS  C:\Users\CHUCK~1.ERH\AppData\Local\Temp\ccGtqbdp.s 			page 105


 3829 000c 06       		.uleb128 0x6
 3830 000d 11       		.uleb128 0x11
 3831 000e 01       		.uleb128 0x1
 3832 000f 52       		.uleb128 0x52
 3833 0010 01       		.uleb128 0x1
 3834 0011 10       		.uleb128 0x10
 3835 0012 06       		.uleb128 0x6
 3836 0013 00       		.byte	0
 3837 0014 00       		.byte	0
 3838 0015 02       		.uleb128 0x2
 3839 0016 24       		.uleb128 0x24
 3840 0017 00       		.byte	0
 3841 0018 0B       		.uleb128 0xb
 3842 0019 0B       		.uleb128 0xb
 3843 001a 3E       		.uleb128 0x3e
 3844 001b 0B       		.uleb128 0xb
 3845 001c 03       		.uleb128 0x3
 3846 001d 0E       		.uleb128 0xe
 3847 001e 00       		.byte	0
 3848 001f 00       		.byte	0
 3849 0020 03       		.uleb128 0x3
 3850 0021 24       		.uleb128 0x24
 3851 0022 00       		.byte	0
 3852 0023 0B       		.uleb128 0xb
 3853 0024 0B       		.uleb128 0xb
 3854 0025 3E       		.uleb128 0x3e
 3855 0026 0B       		.uleb128 0xb
 3856 0027 03       		.uleb128 0x3
 3857 0028 08       		.uleb128 0x8
 3858 0029 00       		.byte	0
 3859 002a 00       		.byte	0
 3860 002b 04       		.uleb128 0x4
 3861 002c 16       		.uleb128 0x16
 3862 002d 00       		.byte	0
 3863 002e 03       		.uleb128 0x3
 3864 002f 0E       		.uleb128 0xe
 3865 0030 3A       		.uleb128 0x3a
 3866 0031 0B       		.uleb128 0xb
 3867 0032 3B       		.uleb128 0x3b
 3868 0033 0B       		.uleb128 0xb
 3869 0034 49       		.uleb128 0x49
 3870 0035 13       		.uleb128 0x13
 3871 0036 00       		.byte	0
 3872 0037 00       		.byte	0
 3873 0038 05       		.uleb128 0x5
 3874 0039 35       		.uleb128 0x35
 3875 003a 00       		.byte	0
 3876 003b 49       		.uleb128 0x49
 3877 003c 13       		.uleb128 0x13
 3878 003d 00       		.byte	0
 3879 003e 00       		.byte	0
 3880 003f 06       		.uleb128 0x6
 3881 0040 16       		.uleb128 0x16
 3882 0041 00       		.byte	0
 3883 0042 03       		.uleb128 0x3
 3884 0043 0E       		.uleb128 0xe
 3885 0044 3A       		.uleb128 0x3a
ARM GAS  C:\Users\CHUCK~1.ERH\AppData\Local\Temp\ccGtqbdp.s 			page 106


 3886 0045 0B       		.uleb128 0xb
 3887 0046 3B       		.uleb128 0x3b
 3888 0047 05       		.uleb128 0x5
 3889 0048 49       		.uleb128 0x49
 3890 0049 13       		.uleb128 0x13
 3891 004a 00       		.byte	0
 3892 004b 00       		.byte	0
 3893 004c 07       		.uleb128 0x7
 3894 004d 0F       		.uleb128 0xf
 3895 004e 00       		.byte	0
 3896 004f 0B       		.uleb128 0xb
 3897 0050 0B       		.uleb128 0xb
 3898 0051 49       		.uleb128 0x49
 3899 0052 13       		.uleb128 0x13
 3900 0053 00       		.byte	0
 3901 0054 00       		.byte	0
 3902 0055 08       		.uleb128 0x8
 3903 0056 15       		.uleb128 0x15
 3904 0057 00       		.byte	0
 3905 0058 27       		.uleb128 0x27
 3906 0059 0C       		.uleb128 0xc
 3907 005a 00       		.byte	0
 3908 005b 00       		.byte	0
 3909 005c 09       		.uleb128 0x9
 3910 005d 2E       		.uleb128 0x2e
 3911 005e 00       		.byte	0
 3912 005f 3F       		.uleb128 0x3f
 3913 0060 0C       		.uleb128 0xc
 3914 0061 03       		.uleb128 0x3
 3915 0062 0E       		.uleb128 0xe
 3916 0063 3A       		.uleb128 0x3a
 3917 0064 0B       		.uleb128 0xb
 3918 0065 3B       		.uleb128 0x3b
 3919 0066 0B       		.uleb128 0xb
 3920 0067 27       		.uleb128 0x27
 3921 0068 0C       		.uleb128 0xc
 3922 0069 11       		.uleb128 0x11
 3923 006a 01       		.uleb128 0x1
 3924 006b 12       		.uleb128 0x12
 3925 006c 01       		.uleb128 0x1
 3926 006d 40       		.uleb128 0x40
 3927 006e 0A       		.uleb128 0xa
 3928 006f 9742     		.uleb128 0x2117
 3929 0071 0C       		.uleb128 0xc
 3930 0072 00       		.byte	0
 3931 0073 00       		.byte	0
 3932 0074 0A       		.uleb128 0xa
 3933 0075 2E       		.uleb128 0x2e
 3934 0076 01       		.byte	0x1
 3935 0077 3F       		.uleb128 0x3f
 3936 0078 0C       		.uleb128 0xc
 3937 0079 03       		.uleb128 0x3
 3938 007a 0E       		.uleb128 0xe
 3939 007b 3A       		.uleb128 0x3a
 3940 007c 0B       		.uleb128 0xb
 3941 007d 3B       		.uleb128 0x3b
 3942 007e 0B       		.uleb128 0xb
ARM GAS  C:\Users\CHUCK~1.ERH\AppData\Local\Temp\ccGtqbdp.s 			page 107


 3943 007f 27       		.uleb128 0x27
 3944 0080 0C       		.uleb128 0xc
 3945 0081 11       		.uleb128 0x11
 3946 0082 01       		.uleb128 0x1
 3947 0083 12       		.uleb128 0x12
 3948 0084 01       		.uleb128 0x1
 3949 0085 40       		.uleb128 0x40
 3950 0086 0A       		.uleb128 0xa
 3951 0087 9742     		.uleb128 0x2117
 3952 0089 0C       		.uleb128 0xc
 3953 008a 01       		.uleb128 0x1
 3954 008b 13       		.uleb128 0x13
 3955 008c 00       		.byte	0
 3956 008d 00       		.byte	0
 3957 008e 0B       		.uleb128 0xb
 3958 008f 05       		.uleb128 0x5
 3959 0090 00       		.byte	0
 3960 0091 03       		.uleb128 0x3
 3961 0092 0E       		.uleb128 0xe
 3962 0093 3A       		.uleb128 0x3a
 3963 0094 0B       		.uleb128 0xb
 3964 0095 3B       		.uleb128 0x3b
 3965 0096 0B       		.uleb128 0xb
 3966 0097 49       		.uleb128 0x49
 3967 0098 13       		.uleb128 0x13
 3968 0099 02       		.uleb128 0x2
 3969 009a 06       		.uleb128 0x6
 3970 009b 00       		.byte	0
 3971 009c 00       		.byte	0
 3972 009d 0C       		.uleb128 0xc
 3973 009e 2E       		.uleb128 0x2e
 3974 009f 01       		.byte	0x1
 3975 00a0 3F       		.uleb128 0x3f
 3976 00a1 0C       		.uleb128 0xc
 3977 00a2 03       		.uleb128 0x3
 3978 00a3 0E       		.uleb128 0xe
 3979 00a4 3A       		.uleb128 0x3a
 3980 00a5 0B       		.uleb128 0xb
 3981 00a6 3B       		.uleb128 0x3b
 3982 00a7 0B       		.uleb128 0xb
 3983 00a8 27       		.uleb128 0x27
 3984 00a9 0C       		.uleb128 0xc
 3985 00aa 11       		.uleb128 0x11
 3986 00ab 01       		.uleb128 0x1
 3987 00ac 12       		.uleb128 0x12
 3988 00ad 01       		.uleb128 0x1
 3989 00ae 40       		.uleb128 0x40
 3990 00af 06       		.uleb128 0x6
 3991 00b0 9742     		.uleb128 0x2117
 3992 00b2 0C       		.uleb128 0xc
 3993 00b3 01       		.uleb128 0x1
 3994 00b4 13       		.uleb128 0x13
 3995 00b5 00       		.byte	0
 3996 00b6 00       		.byte	0
 3997 00b7 0D       		.uleb128 0xd
 3998 00b8 2E       		.uleb128 0x2e
 3999 00b9 01       		.byte	0x1
ARM GAS  C:\Users\CHUCK~1.ERH\AppData\Local\Temp\ccGtqbdp.s 			page 108


 4000 00ba 3F       		.uleb128 0x3f
 4001 00bb 0C       		.uleb128 0xc
 4002 00bc 03       		.uleb128 0x3
 4003 00bd 0E       		.uleb128 0xe
 4004 00be 3A       		.uleb128 0x3a
 4005 00bf 0B       		.uleb128 0xb
 4006 00c0 3B       		.uleb128 0x3b
 4007 00c1 05       		.uleb128 0x5
 4008 00c2 27       		.uleb128 0x27
 4009 00c3 0C       		.uleb128 0xc
 4010 00c4 11       		.uleb128 0x11
 4011 00c5 01       		.uleb128 0x1
 4012 00c6 12       		.uleb128 0x12
 4013 00c7 01       		.uleb128 0x1
 4014 00c8 40       		.uleb128 0x40
 4015 00c9 06       		.uleb128 0x6
 4016 00ca 9742     		.uleb128 0x2117
 4017 00cc 0C       		.uleb128 0xc
 4018 00cd 01       		.uleb128 0x1
 4019 00ce 13       		.uleb128 0x13
 4020 00cf 00       		.byte	0
 4021 00d0 00       		.byte	0
 4022 00d1 0E       		.uleb128 0xe
 4023 00d2 34       		.uleb128 0x34
 4024 00d3 00       		.byte	0
 4025 00d4 03       		.uleb128 0x3
 4026 00d5 0E       		.uleb128 0xe
 4027 00d6 3A       		.uleb128 0x3a
 4028 00d7 0B       		.uleb128 0xb
 4029 00d8 3B       		.uleb128 0x3b
 4030 00d9 05       		.uleb128 0x5
 4031 00da 49       		.uleb128 0x49
 4032 00db 13       		.uleb128 0x13
 4033 00dc 02       		.uleb128 0x2
 4034 00dd 06       		.uleb128 0x6
 4035 00de 00       		.byte	0
 4036 00df 00       		.byte	0
 4037 00e0 0F       		.uleb128 0xf
 4038 00e1 898201   		.uleb128 0x4109
 4039 00e4 00       		.byte	0
 4040 00e5 11       		.uleb128 0x11
 4041 00e6 01       		.uleb128 0x1
 4042 00e7 31       		.uleb128 0x31
 4043 00e8 13       		.uleb128 0x13
 4044 00e9 00       		.byte	0
 4045 00ea 00       		.byte	0
 4046 00eb 10       		.uleb128 0x10
 4047 00ec 898201   		.uleb128 0x4109
 4048 00ef 01       		.byte	0x1
 4049 00f0 11       		.uleb128 0x11
 4050 00f1 01       		.uleb128 0x1
 4051 00f2 31       		.uleb128 0x31
 4052 00f3 13       		.uleb128 0x13
 4053 00f4 00       		.byte	0
 4054 00f5 00       		.byte	0
 4055 00f6 11       		.uleb128 0x11
 4056 00f7 8A8201   		.uleb128 0x410a
ARM GAS  C:\Users\CHUCK~1.ERH\AppData\Local\Temp\ccGtqbdp.s 			page 109


 4057 00fa 00       		.byte	0
 4058 00fb 02       		.uleb128 0x2
 4059 00fc 0A       		.uleb128 0xa
 4060 00fd 9142     		.uleb128 0x2111
 4061 00ff 0A       		.uleb128 0xa
 4062 0100 00       		.byte	0
 4063 0101 00       		.byte	0
 4064 0102 12       		.uleb128 0x12
 4065 0103 2E       		.uleb128 0x2e
 4066 0104 01       		.byte	0x1
 4067 0105 3F       		.uleb128 0x3f
 4068 0106 0C       		.uleb128 0xc
 4069 0107 03       		.uleb128 0x3
 4070 0108 0E       		.uleb128 0xe
 4071 0109 3A       		.uleb128 0x3a
 4072 010a 0B       		.uleb128 0xb
 4073 010b 3B       		.uleb128 0x3b
 4074 010c 05       		.uleb128 0x5
 4075 010d 27       		.uleb128 0x27
 4076 010e 0C       		.uleb128 0xc
 4077 010f 49       		.uleb128 0x49
 4078 0110 13       		.uleb128 0x13
 4079 0111 20       		.uleb128 0x20
 4080 0112 0B       		.uleb128 0xb
 4081 0113 01       		.uleb128 0x1
 4082 0114 13       		.uleb128 0x13
 4083 0115 00       		.byte	0
 4084 0116 00       		.byte	0
 4085 0117 13       		.uleb128 0x13
 4086 0118 05       		.uleb128 0x5
 4087 0119 00       		.byte	0
 4088 011a 03       		.uleb128 0x3
 4089 011b 0E       		.uleb128 0xe
 4090 011c 3A       		.uleb128 0x3a
 4091 011d 0B       		.uleb128 0xb
 4092 011e 3B       		.uleb128 0x3b
 4093 011f 05       		.uleb128 0x5
 4094 0120 49       		.uleb128 0x49
 4095 0121 13       		.uleb128 0x13
 4096 0122 00       		.byte	0
 4097 0123 00       		.byte	0
 4098 0124 14       		.uleb128 0x14
 4099 0125 2E       		.uleb128 0x2e
 4100 0126 01       		.byte	0x1
 4101 0127 31       		.uleb128 0x31
 4102 0128 13       		.uleb128 0x13
 4103 0129 11       		.uleb128 0x11
 4104 012a 01       		.uleb128 0x1
 4105 012b 12       		.uleb128 0x12
 4106 012c 01       		.uleb128 0x1
 4107 012d 40       		.uleb128 0x40
 4108 012e 0A       		.uleb128 0xa
 4109 012f 9742     		.uleb128 0x2117
 4110 0131 0C       		.uleb128 0xc
 4111 0132 01       		.uleb128 0x1
 4112 0133 13       		.uleb128 0x13
 4113 0134 00       		.byte	0
ARM GAS  C:\Users\CHUCK~1.ERH\AppData\Local\Temp\ccGtqbdp.s 			page 110


 4114 0135 00       		.byte	0
 4115 0136 15       		.uleb128 0x15
 4116 0137 05       		.uleb128 0x5
 4117 0138 00       		.byte	0
 4118 0139 31       		.uleb128 0x31
 4119 013a 13       		.uleb128 0x13
 4120 013b 02       		.uleb128 0x2
 4121 013c 06       		.uleb128 0x6
 4122 013d 00       		.byte	0
 4123 013e 00       		.byte	0
 4124 013f 16       		.uleb128 0x16
 4125 0140 05       		.uleb128 0x5
 4126 0141 00       		.byte	0
 4127 0142 03       		.uleb128 0x3
 4128 0143 0E       		.uleb128 0xe
 4129 0144 3A       		.uleb128 0x3a
 4130 0145 0B       		.uleb128 0xb
 4131 0146 3B       		.uleb128 0x3b
 4132 0147 05       		.uleb128 0x5
 4133 0148 49       		.uleb128 0x49
 4134 0149 13       		.uleb128 0x13
 4135 014a 02       		.uleb128 0x2
 4136 014b 06       		.uleb128 0x6
 4137 014c 00       		.byte	0
 4138 014d 00       		.byte	0
 4139 014e 17       		.uleb128 0x17
 4140 014f 2E       		.uleb128 0x2e
 4141 0150 01       		.byte	0x1
 4142 0151 3F       		.uleb128 0x3f
 4143 0152 0C       		.uleb128 0xc
 4144 0153 03       		.uleb128 0x3
 4145 0154 0E       		.uleb128 0xe
 4146 0155 3A       		.uleb128 0x3a
 4147 0156 0B       		.uleb128 0xb
 4148 0157 3B       		.uleb128 0x3b
 4149 0158 05       		.uleb128 0x5
 4150 0159 27       		.uleb128 0x27
 4151 015a 0C       		.uleb128 0xc
 4152 015b 49       		.uleb128 0x49
 4153 015c 13       		.uleb128 0x13
 4154 015d 11       		.uleb128 0x11
 4155 015e 01       		.uleb128 0x1
 4156 015f 12       		.uleb128 0x12
 4157 0160 01       		.uleb128 0x1
 4158 0161 40       		.uleb128 0x40
 4159 0162 0A       		.uleb128 0xa
 4160 0163 9742     		.uleb128 0x2117
 4161 0165 0C       		.uleb128 0xc
 4162 0166 01       		.uleb128 0x1
 4163 0167 13       		.uleb128 0x13
 4164 0168 00       		.byte	0
 4165 0169 00       		.byte	0
 4166 016a 18       		.uleb128 0x18
 4167 016b 1D       		.uleb128 0x1d
 4168 016c 01       		.byte	0x1
 4169 016d 31       		.uleb128 0x31
 4170 016e 13       		.uleb128 0x13
ARM GAS  C:\Users\CHUCK~1.ERH\AppData\Local\Temp\ccGtqbdp.s 			page 111


 4171 016f 52       		.uleb128 0x52
 4172 0170 01       		.uleb128 0x1
 4173 0171 55       		.uleb128 0x55
 4174 0172 06       		.uleb128 0x6
 4175 0173 58       		.uleb128 0x58
 4176 0174 0B       		.uleb128 0xb
 4177 0175 59       		.uleb128 0x59
 4178 0176 05       		.uleb128 0x5
 4179 0177 01       		.uleb128 0x1
 4180 0178 13       		.uleb128 0x13
 4181 0179 00       		.byte	0
 4182 017a 00       		.byte	0
 4183 017b 19       		.uleb128 0x19
 4184 017c 05       		.uleb128 0x5
 4185 017d 00       		.byte	0
 4186 017e 31       		.uleb128 0x31
 4187 017f 13       		.uleb128 0x13
 4188 0180 1C       		.uleb128 0x1c
 4189 0181 0B       		.uleb128 0xb
 4190 0182 00       		.byte	0
 4191 0183 00       		.byte	0
 4192 0184 1A       		.uleb128 0x1a
 4193 0185 2E       		.uleb128 0x2e
 4194 0186 00       		.byte	0
 4195 0187 3F       		.uleb128 0x3f
 4196 0188 0C       		.uleb128 0xc
 4197 0189 03       		.uleb128 0x3
 4198 018a 0E       		.uleb128 0xe
 4199 018b 3A       		.uleb128 0x3a
 4200 018c 0B       		.uleb128 0xb
 4201 018d 3B       		.uleb128 0x3b
 4202 018e 05       		.uleb128 0x5
 4203 018f 27       		.uleb128 0x27
 4204 0190 0C       		.uleb128 0xc
 4205 0191 49       		.uleb128 0x49
 4206 0192 13       		.uleb128 0x13
 4207 0193 11       		.uleb128 0x11
 4208 0194 01       		.uleb128 0x1
 4209 0195 12       		.uleb128 0x12
 4210 0196 01       		.uleb128 0x1
 4211 0197 40       		.uleb128 0x40
 4212 0198 0A       		.uleb128 0xa
 4213 0199 9742     		.uleb128 0x2117
 4214 019b 0C       		.uleb128 0xc
 4215 019c 00       		.byte	0
 4216 019d 00       		.byte	0
 4217 019e 1B       		.uleb128 0x1b
 4218 019f 2E       		.uleb128 0x2e
 4219 01a0 01       		.byte	0x1
 4220 01a1 3F       		.uleb128 0x3f
 4221 01a2 0C       		.uleb128 0xc
 4222 01a3 03       		.uleb128 0x3
 4223 01a4 0E       		.uleb128 0xe
 4224 01a5 3A       		.uleb128 0x3a
 4225 01a6 0B       		.uleb128 0xb
 4226 01a7 3B       		.uleb128 0x3b
 4227 01a8 05       		.uleb128 0x5
ARM GAS  C:\Users\CHUCK~1.ERH\AppData\Local\Temp\ccGtqbdp.s 			page 112


 4228 01a9 27       		.uleb128 0x27
 4229 01aa 0C       		.uleb128 0xc
 4230 01ab 49       		.uleb128 0x49
 4231 01ac 13       		.uleb128 0x13
 4232 01ad 11       		.uleb128 0x11
 4233 01ae 01       		.uleb128 0x1
 4234 01af 12       		.uleb128 0x12
 4235 01b0 01       		.uleb128 0x1
 4236 01b1 40       		.uleb128 0x40
 4237 01b2 06       		.uleb128 0x6
 4238 01b3 9742     		.uleb128 0x2117
 4239 01b5 0C       		.uleb128 0xc
 4240 01b6 01       		.uleb128 0x1
 4241 01b7 13       		.uleb128 0x13
 4242 01b8 00       		.byte	0
 4243 01b9 00       		.byte	0
 4244 01ba 1C       		.uleb128 0x1c
 4245 01bb 2E       		.uleb128 0x2e
 4246 01bc 01       		.byte	0x1
 4247 01bd 3F       		.uleb128 0x3f
 4248 01be 0C       		.uleb128 0xc
 4249 01bf 03       		.uleb128 0x3
 4250 01c0 0E       		.uleb128 0xe
 4251 01c1 3A       		.uleb128 0x3a
 4252 01c2 0B       		.uleb128 0xb
 4253 01c3 3B       		.uleb128 0x3b
 4254 01c4 05       		.uleb128 0x5
 4255 01c5 27       		.uleb128 0x27
 4256 01c6 0C       		.uleb128 0xc
 4257 01c7 11       		.uleb128 0x11
 4258 01c8 01       		.uleb128 0x1
 4259 01c9 12       		.uleb128 0x12
 4260 01ca 01       		.uleb128 0x1
 4261 01cb 40       		.uleb128 0x40
 4262 01cc 0A       		.uleb128 0xa
 4263 01cd 9742     		.uleb128 0x2117
 4264 01cf 0C       		.uleb128 0xc
 4265 01d0 01       		.uleb128 0x1
 4266 01d1 13       		.uleb128 0x13
 4267 01d2 00       		.byte	0
 4268 01d3 00       		.byte	0
 4269 01d4 1D       		.uleb128 0x1d
 4270 01d5 2E       		.uleb128 0x2e
 4271 01d6 00       		.byte	0
 4272 01d7 3F       		.uleb128 0x3f
 4273 01d8 0C       		.uleb128 0xc
 4274 01d9 03       		.uleb128 0x3
 4275 01da 0E       		.uleb128 0xe
 4276 01db 3A       		.uleb128 0x3a
 4277 01dc 0B       		.uleb128 0xb
 4278 01dd 3B       		.uleb128 0x3b
 4279 01de 05       		.uleb128 0x5
 4280 01df 27       		.uleb128 0x27
 4281 01e0 0C       		.uleb128 0xc
 4282 01e1 11       		.uleb128 0x11
 4283 01e2 01       		.uleb128 0x1
 4284 01e3 12       		.uleb128 0x12
ARM GAS  C:\Users\CHUCK~1.ERH\AppData\Local\Temp\ccGtqbdp.s 			page 113


 4285 01e4 01       		.uleb128 0x1
 4286 01e5 40       		.uleb128 0x40
 4287 01e6 0A       		.uleb128 0xa
 4288 01e7 9742     		.uleb128 0x2117
 4289 01e9 0C       		.uleb128 0xc
 4290 01ea 00       		.byte	0
 4291 01eb 00       		.byte	0
 4292 01ec 1E       		.uleb128 0x1e
 4293 01ed 34       		.uleb128 0x34
 4294 01ee 00       		.byte	0
 4295 01ef 03       		.uleb128 0x3
 4296 01f0 0E       		.uleb128 0xe
 4297 01f1 3A       		.uleb128 0x3a
 4298 01f2 0B       		.uleb128 0xb
 4299 01f3 3B       		.uleb128 0x3b
 4300 01f4 05       		.uleb128 0x5
 4301 01f5 49       		.uleb128 0x49
 4302 01f6 13       		.uleb128 0x13
 4303 01f7 02       		.uleb128 0x2
 4304 01f8 0A       		.uleb128 0xa
 4305 01f9 00       		.byte	0
 4306 01fa 00       		.byte	0
 4307 01fb 1F       		.uleb128 0x1f
 4308 01fc 05       		.uleb128 0x5
 4309 01fd 00       		.byte	0
 4310 01fe 03       		.uleb128 0x3
 4311 01ff 0E       		.uleb128 0xe
 4312 0200 3A       		.uleb128 0x3a
 4313 0201 0B       		.uleb128 0xb
 4314 0202 3B       		.uleb128 0x3b
 4315 0203 05       		.uleb128 0x5
 4316 0204 49       		.uleb128 0x49
 4317 0205 13       		.uleb128 0x13
 4318 0206 02       		.uleb128 0x2
 4319 0207 0A       		.uleb128 0xa
 4320 0208 00       		.byte	0
 4321 0209 00       		.byte	0
 4322 020a 20       		.uleb128 0x20
 4323 020b 34       		.uleb128 0x34
 4324 020c 00       		.byte	0
 4325 020d 03       		.uleb128 0x3
 4326 020e 0E       		.uleb128 0xe
 4327 020f 3A       		.uleb128 0x3a
 4328 0210 0B       		.uleb128 0xb
 4329 0211 3B       		.uleb128 0x3b
 4330 0212 05       		.uleb128 0x5
 4331 0213 49       		.uleb128 0x49
 4332 0214 13       		.uleb128 0x13
 4333 0215 1C       		.uleb128 0x1c
 4334 0216 06       		.uleb128 0x6
 4335 0217 00       		.byte	0
 4336 0218 00       		.byte	0
 4337 0219 21       		.uleb128 0x21
 4338 021a 34       		.uleb128 0x34
 4339 021b 00       		.byte	0
 4340 021c 03       		.uleb128 0x3
 4341 021d 0E       		.uleb128 0xe
ARM GAS  C:\Users\CHUCK~1.ERH\AppData\Local\Temp\ccGtqbdp.s 			page 114


 4342 021e 3A       		.uleb128 0x3a
 4343 021f 0B       		.uleb128 0xb
 4344 0220 3B       		.uleb128 0x3b
 4345 0221 05       		.uleb128 0x5
 4346 0222 49       		.uleb128 0x49
 4347 0223 13       		.uleb128 0x13
 4348 0224 00       		.byte	0
 4349 0225 00       		.byte	0
 4350 0226 22       		.uleb128 0x22
 4351 0227 34       		.uleb128 0x34
 4352 0228 00       		.byte	0
 4353 0229 03       		.uleb128 0x3
 4354 022a 0E       		.uleb128 0xe
 4355 022b 3A       		.uleb128 0x3a
 4356 022c 0B       		.uleb128 0xb
 4357 022d 3B       		.uleb128 0x3b
 4358 022e 0B       		.uleb128 0xb
 4359 022f 49       		.uleb128 0x49
 4360 0230 13       		.uleb128 0x13
 4361 0231 02       		.uleb128 0x2
 4362 0232 06       		.uleb128 0x6
 4363 0233 00       		.byte	0
 4364 0234 00       		.byte	0
 4365 0235 23       		.uleb128 0x23
 4366 0236 34       		.uleb128 0x34
 4367 0237 00       		.byte	0
 4368 0238 03       		.uleb128 0x3
 4369 0239 08       		.uleb128 0x8
 4370 023a 3A       		.uleb128 0x3a
 4371 023b 0B       		.uleb128 0xb
 4372 023c 3B       		.uleb128 0x3b
 4373 023d 0B       		.uleb128 0xb
 4374 023e 49       		.uleb128 0x49
 4375 023f 13       		.uleb128 0x13
 4376 0240 02       		.uleb128 0x2
 4377 0241 06       		.uleb128 0x6
 4378 0242 00       		.byte	0
 4379 0243 00       		.byte	0
 4380 0244 24       		.uleb128 0x24
 4381 0245 34       		.uleb128 0x34
 4382 0246 00       		.byte	0
 4383 0247 03       		.uleb128 0x3
 4384 0248 0E       		.uleb128 0xe
 4385 0249 3A       		.uleb128 0x3a
 4386 024a 0B       		.uleb128 0xb
 4387 024b 3B       		.uleb128 0x3b
 4388 024c 0B       		.uleb128 0xb
 4389 024d 49       		.uleb128 0x49
 4390 024e 13       		.uleb128 0x13
 4391 024f 02       		.uleb128 0x2
 4392 0250 0A       		.uleb128 0xa
 4393 0251 00       		.byte	0
 4394 0252 00       		.byte	0
 4395 0253 25       		.uleb128 0x25
 4396 0254 898201   		.uleb128 0x4109
 4397 0257 01       		.byte	0x1
 4398 0258 11       		.uleb128 0x11
ARM GAS  C:\Users\CHUCK~1.ERH\AppData\Local\Temp\ccGtqbdp.s 			page 115


 4399 0259 01       		.uleb128 0x1
 4400 025a 31       		.uleb128 0x31
 4401 025b 13       		.uleb128 0x13
 4402 025c 01       		.uleb128 0x1
 4403 025d 13       		.uleb128 0x13
 4404 025e 00       		.byte	0
 4405 025f 00       		.byte	0
 4406 0260 26       		.uleb128 0x26
 4407 0261 01       		.uleb128 0x1
 4408 0262 01       		.byte	0x1
 4409 0263 49       		.uleb128 0x49
 4410 0264 13       		.uleb128 0x13
 4411 0265 01       		.uleb128 0x1
 4412 0266 13       		.uleb128 0x13
 4413 0267 00       		.byte	0
 4414 0268 00       		.byte	0
 4415 0269 27       		.uleb128 0x27
 4416 026a 21       		.uleb128 0x21
 4417 026b 00       		.byte	0
 4418 026c 49       		.uleb128 0x49
 4419 026d 13       		.uleb128 0x13
 4420 026e 2F       		.uleb128 0x2f
 4421 026f 0B       		.uleb128 0xb
 4422 0270 00       		.byte	0
 4423 0271 00       		.byte	0
 4424 0272 28       		.uleb128 0x28
 4425 0273 26       		.uleb128 0x26
 4426 0274 00       		.byte	0
 4427 0275 49       		.uleb128 0x49
 4428 0276 13       		.uleb128 0x13
 4429 0277 00       		.byte	0
 4430 0278 00       		.byte	0
 4431 0279 29       		.uleb128 0x29
 4432 027a 2E       		.uleb128 0x2e
 4433 027b 01       		.byte	0x1
 4434 027c 3F       		.uleb128 0x3f
 4435 027d 0C       		.uleb128 0xc
 4436 027e 03       		.uleb128 0x3
 4437 027f 0E       		.uleb128 0xe
 4438 0280 3A       		.uleb128 0x3a
 4439 0281 0B       		.uleb128 0xb
 4440 0282 3B       		.uleb128 0x3b
 4441 0283 05       		.uleb128 0x5
 4442 0284 27       		.uleb128 0x27
 4443 0285 0C       		.uleb128 0xc
 4444 0286 11       		.uleb128 0x11
 4445 0287 01       		.uleb128 0x1
 4446 0288 12       		.uleb128 0x12
 4447 0289 01       		.uleb128 0x1
 4448 028a 40       		.uleb128 0x40
 4449 028b 06       		.uleb128 0x6
 4450 028c 9642     		.uleb128 0x2116
 4451 028e 0C       		.uleb128 0xc
 4452 028f 01       		.uleb128 0x1
 4453 0290 13       		.uleb128 0x13
 4454 0291 00       		.byte	0
 4455 0292 00       		.byte	0
ARM GAS  C:\Users\CHUCK~1.ERH\AppData\Local\Temp\ccGtqbdp.s 			page 116


 4456 0293 2A       		.uleb128 0x2a
 4457 0294 34       		.uleb128 0x34
 4458 0295 00       		.byte	0
 4459 0296 03       		.uleb128 0x3
 4460 0297 0E       		.uleb128 0xe
 4461 0298 3A       		.uleb128 0x3a
 4462 0299 0B       		.uleb128 0xb
 4463 029a 3B       		.uleb128 0x3b
 4464 029b 0B       		.uleb128 0xb
 4465 029c 49       		.uleb128 0x49
 4466 029d 13       		.uleb128 0x13
 4467 029e 3F       		.uleb128 0x3f
 4468 029f 0C       		.uleb128 0xc
 4469 02a0 02       		.uleb128 0x2
 4470 02a1 0A       		.uleb128 0xa
 4471 02a2 00       		.byte	0
 4472 02a3 00       		.byte	0
 4473 02a4 2B       		.uleb128 0x2b
 4474 02a5 2E       		.uleb128 0x2e
 4475 02a6 00       		.byte	0
 4476 02a7 3F       		.uleb128 0x3f
 4477 02a8 0C       		.uleb128 0xc
 4478 02a9 03       		.uleb128 0x3
 4479 02aa 0E       		.uleb128 0xe
 4480 02ab 3A       		.uleb128 0x3a
 4481 02ac 0B       		.uleb128 0xb
 4482 02ad 3B       		.uleb128 0x3b
 4483 02ae 0B       		.uleb128 0xb
 4484 02af 27       		.uleb128 0x27
 4485 02b0 0C       		.uleb128 0xc
 4486 02b1 49       		.uleb128 0x49
 4487 02b2 13       		.uleb128 0x13
 4488 02b3 3C       		.uleb128 0x3c
 4489 02b4 0C       		.uleb128 0xc
 4490 02b5 00       		.byte	0
 4491 02b6 00       		.byte	0
 4492 02b7 2C       		.uleb128 0x2c
 4493 02b8 2E       		.uleb128 0x2e
 4494 02b9 01       		.byte	0x1
 4495 02ba 3F       		.uleb128 0x3f
 4496 02bb 0C       		.uleb128 0xc
 4497 02bc 03       		.uleb128 0x3
 4498 02bd 0E       		.uleb128 0xe
 4499 02be 3A       		.uleb128 0x3a
 4500 02bf 0B       		.uleb128 0xb
 4501 02c0 3B       		.uleb128 0x3b
 4502 02c1 0B       		.uleb128 0xb
 4503 02c2 27       		.uleb128 0x27
 4504 02c3 0C       		.uleb128 0xc
 4505 02c4 3C       		.uleb128 0x3c
 4506 02c5 0C       		.uleb128 0xc
 4507 02c6 01       		.uleb128 0x1
 4508 02c7 13       		.uleb128 0x13
 4509 02c8 00       		.byte	0
 4510 02c9 00       		.byte	0
 4511 02ca 2D       		.uleb128 0x2d
 4512 02cb 05       		.uleb128 0x5
ARM GAS  C:\Users\CHUCK~1.ERH\AppData\Local\Temp\ccGtqbdp.s 			page 117


 4513 02cc 00       		.byte	0
 4514 02cd 49       		.uleb128 0x49
 4515 02ce 13       		.uleb128 0x13
 4516 02cf 00       		.byte	0
 4517 02d0 00       		.byte	0
 4518 02d1 2E       		.uleb128 0x2e
 4519 02d2 2E       		.uleb128 0x2e
 4520 02d3 01       		.byte	0x1
 4521 02d4 3F       		.uleb128 0x3f
 4522 02d5 0C       		.uleb128 0xc
 4523 02d6 03       		.uleb128 0x3
 4524 02d7 0E       		.uleb128 0xe
 4525 02d8 3A       		.uleb128 0x3a
 4526 02d9 0B       		.uleb128 0xb
 4527 02da 3B       		.uleb128 0x3b
 4528 02db 0B       		.uleb128 0xb
 4529 02dc 27       		.uleb128 0x27
 4530 02dd 0C       		.uleb128 0xc
 4531 02de 3C       		.uleb128 0x3c
 4532 02df 0C       		.uleb128 0xc
 4533 02e0 00       		.byte	0
 4534 02e1 00       		.byte	0
 4535 02e2 00       		.byte	0
 4536              		.section	.debug_loc,"",%progbits
 4537              	.Ldebug_loc0:
 4538              	.LLST0:
 4539 0000 00000000 		.4byte	.LVL0
 4540 0004 08000000 		.4byte	.LVL1
 4541 0008 0100     		.2byte	0x1
 4542 000a 50       		.byte	0x50
 4543 000b 08000000 		.4byte	.LVL1
 4544 000f 18000000 		.4byte	.LFE4
 4545 0013 0400     		.2byte	0x4
 4546 0015 F3       		.byte	0xf3
 4547 0016 01       		.uleb128 0x1
 4548 0017 50       		.byte	0x50
 4549 0018 9F       		.byte	0x9f
 4550 0019 00000000 		.4byte	0
 4551 001d 00000000 		.4byte	0
 4552              	.LLST1:
 4553 0021 00000000 		.4byte	.LFB5
 4554 0025 04000000 		.4byte	.LCFI0
 4555 0029 0200     		.2byte	0x2
 4556 002b 7D       		.byte	0x7d
 4557 002c 00       		.sleb128 0
 4558 002d 04000000 		.4byte	.LCFI0
 4559 0031 20000000 		.4byte	.LFE5
 4560 0035 0200     		.2byte	0x2
 4561 0037 7D       		.byte	0x7d
 4562 0038 08       		.sleb128 8
 4563 0039 00000000 		.4byte	0
 4564 003d 00000000 		.4byte	0
 4565              	.LLST2:
 4566 0041 00000000 		.4byte	.LVL2
 4567 0045 0A000000 		.4byte	.LVL3
 4568 0049 0100     		.2byte	0x1
 4569 004b 50       		.byte	0x50
ARM GAS  C:\Users\CHUCK~1.ERH\AppData\Local\Temp\ccGtqbdp.s 			page 118


 4570 004c 0A000000 		.4byte	.LVL3
 4571 0050 20000000 		.4byte	.LFE5
 4572 0054 0400     		.2byte	0x4
 4573 0056 F3       		.byte	0xf3
 4574 0057 01       		.uleb128 0x1
 4575 0058 50       		.byte	0x50
 4576 0059 9F       		.byte	0x9f
 4577 005a 00000000 		.4byte	0
 4578 005e 00000000 		.4byte	0
 4579              	.LLST3:
 4580 0062 00000000 		.4byte	.LFB7
 4581 0066 02000000 		.4byte	.LCFI1
 4582 006a 0200     		.2byte	0x2
 4583 006c 7D       		.byte	0x7d
 4584 006d 00       		.sleb128 0
 4585 006e 02000000 		.4byte	.LCFI1
 4586 0072 30000000 		.4byte	.LFE7
 4587 0076 0200     		.2byte	0x2
 4588 0078 7D       		.byte	0x7d
 4589 0079 08       		.sleb128 8
 4590 007a 00000000 		.4byte	0
 4591 007e 00000000 		.4byte	0
 4592              	.LLST4:
 4593 0082 0A000000 		.4byte	.LVL5
 4594 0086 0C000000 		.4byte	.LVL6
 4595 008a 0100     		.2byte	0x1
 4596 008c 50       		.byte	0x50
 4597 008d 0C000000 		.4byte	.LVL6
 4598 0091 26000000 		.4byte	.LVL9
 4599 0095 0100     		.2byte	0x1
 4600 0097 54       		.byte	0x54
 4601 0098 00000000 		.4byte	0
 4602 009c 00000000 		.4byte	0
 4603              	.LLST5:
 4604 00a0 00000000 		.4byte	.LFB8
 4605 00a4 02000000 		.4byte	.LCFI2
 4606 00a8 0200     		.2byte	0x2
 4607 00aa 7D       		.byte	0x7d
 4608 00ab 00       		.sleb128 0
 4609 00ac 02000000 		.4byte	.LCFI2
 4610 00b0 44000000 		.4byte	.LFE8
 4611 00b4 0200     		.2byte	0x2
 4612 00b6 7D       		.byte	0x7d
 4613 00b7 08       		.sleb128 8
 4614 00b8 00000000 		.4byte	0
 4615 00bc 00000000 		.4byte	0
 4616              	.LLST6:
 4617 00c0 0A000000 		.4byte	.LVL11
 4618 00c4 0C000000 		.4byte	.LVL12
 4619 00c8 0100     		.2byte	0x1
 4620 00ca 50       		.byte	0x50
 4621 00cb 0C000000 		.4byte	.LVL12
 4622 00cf 36000000 		.4byte	.LVL15
 4623 00d3 0100     		.2byte	0x1
 4624 00d5 54       		.byte	0x54
 4625 00d6 00000000 		.4byte	0
 4626 00da 00000000 		.4byte	0
ARM GAS  C:\Users\CHUCK~1.ERH\AppData\Local\Temp\ccGtqbdp.s 			page 119


 4627              	.LLST7:
 4628 00de 00000000 		.4byte	.LVL16
 4629 00e2 04000000 		.4byte	.LVL17
 4630 00e6 0100     		.2byte	0x1
 4631 00e8 50       		.byte	0x50
 4632 00e9 04000000 		.4byte	.LVL17
 4633 00ed 18000000 		.4byte	.LFE9
 4634 00f1 0400     		.2byte	0x4
 4635 00f3 F3       		.byte	0xf3
 4636 00f4 01       		.uleb128 0x1
 4637 00f5 50       		.byte	0x50
 4638 00f6 9F       		.byte	0x9f
 4639 00f7 00000000 		.4byte	0
 4640 00fb 00000000 		.4byte	0
 4641              	.LLST8:
 4642 00ff 00000000 		.4byte	.LFB10
 4643 0103 02000000 		.4byte	.LCFI3
 4644 0107 0200     		.2byte	0x2
 4645 0109 7D       		.byte	0x7d
 4646 010a 00       		.sleb128 0
 4647 010b 02000000 		.4byte	.LCFI3
 4648 010f 3C000000 		.4byte	.LFE10
 4649 0113 0200     		.2byte	0x2
 4650 0115 7D       		.byte	0x7d
 4651 0116 10       		.sleb128 16
 4652 0117 00000000 		.4byte	0
 4653 011b 00000000 		.4byte	0
 4654              	.LLST9:
 4655 011f 00000000 		.4byte	.LVL18
 4656 0123 08000000 		.4byte	.LVL19
 4657 0127 0100     		.2byte	0x1
 4658 0129 50       		.byte	0x50
 4659 012a 08000000 		.4byte	.LVL19
 4660 012e 24000000 		.4byte	.LVL22
 4661 0132 0100     		.2byte	0x1
 4662 0134 54       		.byte	0x54
 4663 0135 24000000 		.4byte	.LVL22
 4664 0139 3C000000 		.4byte	.LFE10
 4665 013d 0400     		.2byte	0x4
 4666 013f F3       		.byte	0xf3
 4667 0140 01       		.uleb128 0x1
 4668 0141 50       		.byte	0x50
 4669 0142 9F       		.byte	0x9f
 4670 0143 00000000 		.4byte	0
 4671 0147 00000000 		.4byte	0
 4672              	.LLST10:
 4673 014b 00000000 		.4byte	.LVL18
 4674 014f 11000000 		.4byte	.LVL20-1
 4675 0153 0100     		.2byte	0x1
 4676 0155 51       		.byte	0x51
 4677 0156 11000000 		.4byte	.LVL20-1
 4678 015a 2A000000 		.4byte	.LVL23
 4679 015e 0100     		.2byte	0x1
 4680 0160 55       		.byte	0x55
 4681 0161 2A000000 		.4byte	.LVL23
 4682 0165 3C000000 		.4byte	.LFE10
 4683 0169 0400     		.2byte	0x4
ARM GAS  C:\Users\CHUCK~1.ERH\AppData\Local\Temp\ccGtqbdp.s 			page 120


 4684 016b F3       		.byte	0xf3
 4685 016c 01       		.uleb128 0x1
 4686 016d 51       		.byte	0x51
 4687 016e 9F       		.byte	0x9f
 4688 016f 00000000 		.4byte	0
 4689 0173 00000000 		.4byte	0
 4690              	.LLST11:
 4691 0177 2C000000 		.4byte	.LVL24
 4692 017b 32000000 		.4byte	.LVL26
 4693 017f 0100     		.2byte	0x1
 4694 0181 51       		.byte	0x51
 4695 0182 00000000 		.4byte	0
 4696 0186 00000000 		.4byte	0
 4697              	.LLST12:
 4698 018a 00000000 		.4byte	.LVL27
 4699 018e 04000000 		.4byte	.LVL28
 4700 0192 0100     		.2byte	0x1
 4701 0194 50       		.byte	0x50
 4702 0195 04000000 		.4byte	.LVL28
 4703 0199 14000000 		.4byte	.LFE11
 4704 019d 0400     		.2byte	0x4
 4705 019f F3       		.byte	0xf3
 4706 01a0 01       		.uleb128 0x1
 4707 01a1 50       		.byte	0x50
 4708 01a2 9F       		.byte	0x9f
 4709 01a3 00000000 		.4byte	0
 4710 01a7 00000000 		.4byte	0
 4711              	.LLST13:
 4712 01ab 00000000 		.4byte	.LFB12
 4713 01af 02000000 		.4byte	.LCFI4
 4714 01b3 0200     		.2byte	0x2
 4715 01b5 7D       		.byte	0x7d
 4716 01b6 00       		.sleb128 0
 4717 01b7 02000000 		.4byte	.LCFI4
 4718 01bb 34000000 		.4byte	.LFE12
 4719 01bf 0200     		.2byte	0x2
 4720 01c1 7D       		.byte	0x7d
 4721 01c2 10       		.sleb128 16
 4722 01c3 00000000 		.4byte	0
 4723 01c7 00000000 		.4byte	0
 4724              	.LLST14:
 4725 01cb 00000000 		.4byte	.LVL29
 4726 01cf 08000000 		.4byte	.LVL30
 4727 01d3 0100     		.2byte	0x1
 4728 01d5 50       		.byte	0x50
 4729 01d6 08000000 		.4byte	.LVL30
 4730 01da 20000000 		.4byte	.LVL33
 4731 01de 0100     		.2byte	0x1
 4732 01e0 54       		.byte	0x54
 4733 01e1 20000000 		.4byte	.LVL33
 4734 01e5 34000000 		.4byte	.LFE12
 4735 01e9 0400     		.2byte	0x4
 4736 01eb F3       		.byte	0xf3
 4737 01ec 01       		.uleb128 0x1
 4738 01ed 50       		.byte	0x50
 4739 01ee 9F       		.byte	0x9f
 4740 01ef 00000000 		.4byte	0
ARM GAS  C:\Users\CHUCK~1.ERH\AppData\Local\Temp\ccGtqbdp.s 			page 121


 4741 01f3 00000000 		.4byte	0
 4742              	.LLST15:
 4743 01f7 00000000 		.4byte	.LVL29
 4744 01fb 11000000 		.4byte	.LVL31-1
 4745 01ff 0100     		.2byte	0x1
 4746 0201 51       		.byte	0x51
 4747 0202 11000000 		.4byte	.LVL31-1
 4748 0206 26000000 		.4byte	.LVL34
 4749 020a 0100     		.2byte	0x1
 4750 020c 55       		.byte	0x55
 4751 020d 26000000 		.4byte	.LVL34
 4752 0211 34000000 		.4byte	.LFE12
 4753 0215 0400     		.2byte	0x4
 4754 0217 F3       		.byte	0xf3
 4755 0218 01       		.uleb128 0x1
 4756 0219 51       		.byte	0x51
 4757 021a 9F       		.byte	0x9f
 4758 021b 00000000 		.4byte	0
 4759 021f 00000000 		.4byte	0
 4760              	.LLST16:
 4761 0223 00000000 		.4byte	.LVL35
 4762 0227 04000000 		.4byte	.LVL36
 4763 022b 0100     		.2byte	0x1
 4764 022d 50       		.byte	0x50
 4765 022e 04000000 		.4byte	.LVL36
 4766 0232 18000000 		.4byte	.LFE13
 4767 0236 0400     		.2byte	0x4
 4768 0238 F3       		.byte	0xf3
 4769 0239 01       		.uleb128 0x1
 4770 023a 50       		.byte	0x50
 4771 023b 9F       		.byte	0x9f
 4772 023c 00000000 		.4byte	0
 4773 0240 00000000 		.4byte	0
 4774              	.LLST17:
 4775 0244 00000000 		.4byte	.LFB14
 4776 0248 04000000 		.4byte	.LCFI5
 4777 024c 0200     		.2byte	0x2
 4778 024e 7D       		.byte	0x7d
 4779 024f 00       		.sleb128 0
 4780 0250 04000000 		.4byte	.LCFI5
 4781 0254 24000000 		.4byte	.LFE14
 4782 0258 0200     		.2byte	0x2
 4783 025a 7D       		.byte	0x7d
 4784 025b 08       		.sleb128 8
 4785 025c 00000000 		.4byte	0
 4786 0260 00000000 		.4byte	0
 4787              	.LLST18:
 4788 0264 00000000 		.4byte	.LVL37
 4789 0268 08000000 		.4byte	.LVL38
 4790 026c 0100     		.2byte	0x1
 4791 026e 50       		.byte	0x50
 4792 026f 08000000 		.4byte	.LVL38
 4793 0273 16000000 		.4byte	.LVL40
 4794 0277 0100     		.2byte	0x1
 4795 0279 54       		.byte	0x54
 4796 027a 16000000 		.4byte	.LVL40
 4797 027e 24000000 		.4byte	.LFE14
ARM GAS  C:\Users\CHUCK~1.ERH\AppData\Local\Temp\ccGtqbdp.s 			page 122


 4798 0282 0400     		.2byte	0x4
 4799 0284 F3       		.byte	0xf3
 4800 0285 01       		.uleb128 0x1
 4801 0286 50       		.byte	0x50
 4802 0287 9F       		.byte	0x9f
 4803 0288 00000000 		.4byte	0
 4804 028c 00000000 		.4byte	0
 4805              	.LLST19:
 4806 0290 00000000 		.4byte	.LFB15
 4807 0294 04000000 		.4byte	.LCFI6
 4808 0298 0200     		.2byte	0x2
 4809 029a 7D       		.byte	0x7d
 4810 029b 00       		.sleb128 0
 4811 029c 04000000 		.4byte	.LCFI6
 4812 02a0 24000000 		.4byte	.LFE15
 4813 02a4 0200     		.2byte	0x2
 4814 02a6 7D       		.byte	0x7d
 4815 02a7 08       		.sleb128 8
 4816 02a8 00000000 		.4byte	0
 4817 02ac 00000000 		.4byte	0
 4818              	.LLST20:
 4819 02b0 00000000 		.4byte	.LVL41
 4820 02b4 08000000 		.4byte	.LVL42
 4821 02b8 0100     		.2byte	0x1
 4822 02ba 50       		.byte	0x50
 4823 02bb 08000000 		.4byte	.LVL42
 4824 02bf 18000000 		.4byte	.LVL44
 4825 02c3 0100     		.2byte	0x1
 4826 02c5 54       		.byte	0x54
 4827 02c6 18000000 		.4byte	.LVL44
 4828 02ca 24000000 		.4byte	.LFE15
 4829 02ce 0400     		.2byte	0x4
 4830 02d0 F3       		.byte	0xf3
 4831 02d1 01       		.uleb128 0x1
 4832 02d2 50       		.byte	0x50
 4833 02d3 9F       		.byte	0x9f
 4834 02d4 00000000 		.4byte	0
 4835 02d8 00000000 		.4byte	0
 4836              	.LLST21:
 4837 02dc 00000000 		.4byte	.LFB16
 4838 02e0 04000000 		.4byte	.LCFI7
 4839 02e4 0200     		.2byte	0x2
 4840 02e6 7D       		.byte	0x7d
 4841 02e7 00       		.sleb128 0
 4842 02e8 04000000 		.4byte	.LCFI7
 4843 02ec 44000000 		.4byte	.LFE16
 4844 02f0 0200     		.2byte	0x2
 4845 02f2 7D       		.byte	0x7d
 4846 02f3 08       		.sleb128 8
 4847 02f4 00000000 		.4byte	0
 4848 02f8 00000000 		.4byte	0
 4849              	.LLST22:
 4850 02fc 00000000 		.4byte	.LVL45
 4851 0300 08000000 		.4byte	.LVL46
 4852 0304 0100     		.2byte	0x1
 4853 0306 50       		.byte	0x50
 4854 0307 08000000 		.4byte	.LVL46
ARM GAS  C:\Users\CHUCK~1.ERH\AppData\Local\Temp\ccGtqbdp.s 			page 123


 4855 030b 30000000 		.4byte	.LVL53
 4856 030f 0100     		.2byte	0x1
 4857 0311 54       		.byte	0x54
 4858 0312 30000000 		.4byte	.LVL53
 4859 0316 44000000 		.4byte	.LFE16
 4860 031a 0400     		.2byte	0x4
 4861 031c F3       		.byte	0xf3
 4862 031d 01       		.uleb128 0x1
 4863 031e 50       		.byte	0x50
 4864 031f 9F       		.byte	0x9f
 4865 0320 00000000 		.4byte	0
 4866 0324 00000000 		.4byte	0
 4867              	.LLST23:
 4868 0328 2C000000 		.4byte	.LVL51
 4869 032c 2E000000 		.4byte	.LVL52
 4870 0330 0100     		.2byte	0x1
 4871 0332 50       		.byte	0x50
 4872 0333 2E000000 		.4byte	.LVL52
 4873 0337 30000000 		.4byte	.LVL53
 4874 033b 0100     		.2byte	0x1
 4875 033d 52       		.byte	0x52
 4876 033e 30000000 		.4byte	.LVL53
 4877 0342 32000000 		.4byte	.LVL54
 4878 0346 0100     		.2byte	0x1
 4879 0348 54       		.byte	0x54
 4880 0349 00000000 		.4byte	0
 4881 034d 00000000 		.4byte	0
 4882              	.LLST24:
 4883 0351 0C000000 		.4byte	.LVL48
 4884 0355 0E000000 		.4byte	.LVL49
 4885 0359 1500     		.2byte	0x15
 4886 035b 71       		.byte	0x71
 4887 035c 00       		.sleb128 0
 4888 035d 39       		.byte	0x39
 4889 035e 25       		.byte	0x25
 4890 035f 31       		.byte	0x31
 4891 0360 1A       		.byte	0x1a
 4892 0361 70       		.byte	0x70
 4893 0362 00       		.sleb128 0
 4894 0363 31       		.byte	0x31
 4895 0364 25       		.byte	0x25
 4896 0365 31       		.byte	0x31
 4897 0366 1A       		.byte	0x1a
 4898 0367 21       		.byte	0x21
 4899 0368 72       		.byte	0x72
 4900 0369 00       		.sleb128 0
 4901 036a 41       		.byte	0x41
 4902 036b 25       		.byte	0x25
 4903 036c 31       		.byte	0x31
 4904 036d 1A       		.byte	0x1a
 4905 036e 21       		.byte	0x21
 4906 036f 9F       		.byte	0x9f
 4907 0370 00000000 		.4byte	0
 4908 0374 00000000 		.4byte	0
 4909              	.LLST25:
 4910 0378 00000000 		.4byte	.LFB19
 4911 037c 04000000 		.4byte	.LCFI8
ARM GAS  C:\Users\CHUCK~1.ERH\AppData\Local\Temp\ccGtqbdp.s 			page 124


 4912 0380 0200     		.2byte	0x2
 4913 0382 7D       		.byte	0x7d
 4914 0383 00       		.sleb128 0
 4915 0384 04000000 		.4byte	.LCFI8
 4916 0388 3C000000 		.4byte	.LFE19
 4917 038c 0200     		.2byte	0x2
 4918 038e 7D       		.byte	0x7d
 4919 038f 08       		.sleb128 8
 4920 0390 00000000 		.4byte	0
 4921 0394 00000000 		.4byte	0
 4922              	.LLST26:
 4923 0398 00000000 		.4byte	.LVL55
 4924 039c 08000000 		.4byte	.LVL56
 4925 03a0 0100     		.2byte	0x1
 4926 03a2 50       		.byte	0x50
 4927 03a3 08000000 		.4byte	.LVL56
 4928 03a7 22000000 		.4byte	.LVL59
 4929 03ab 0100     		.2byte	0x1
 4930 03ad 54       		.byte	0x54
 4931 03ae 22000000 		.4byte	.LVL59
 4932 03b2 3C000000 		.4byte	.LFE19
 4933 03b6 0400     		.2byte	0x4
 4934 03b8 F3       		.byte	0xf3
 4935 03b9 01       		.uleb128 0x1
 4936 03ba 50       		.byte	0x50
 4937 03bb 9F       		.byte	0x9f
 4938 03bc 00000000 		.4byte	0
 4939 03c0 00000000 		.4byte	0
 4940              	.LLST27:
 4941 03c4 1E000000 		.4byte	.LVL58
 4942 03c8 24000000 		.4byte	.LVL60
 4943 03cc 0100     		.2byte	0x1
 4944 03ce 50       		.byte	0x50
 4945 03cf 24000000 		.4byte	.LVL60
 4946 03d3 28000000 		.4byte	.LVL61
 4947 03d7 0100     		.2byte	0x1
 4948 03d9 52       		.byte	0x52
 4949 03da 28000000 		.4byte	.LVL61
 4950 03de 2A000000 		.4byte	.LVL62
 4951 03e2 0100     		.2byte	0x1
 4952 03e4 54       		.byte	0x54
 4953 03e5 00000000 		.4byte	0
 4954 03e9 00000000 		.4byte	0
 4955              	.LLST28:
 4956 03ed 00000000 		.4byte	.LVL63
 4957 03f1 04000000 		.4byte	.LVL64
 4958 03f5 0100     		.2byte	0x1
 4959 03f7 50       		.byte	0x50
 4960 03f8 04000000 		.4byte	.LVL64
 4961 03fc 10000000 		.4byte	.LFE21
 4962 0400 0400     		.2byte	0x4
 4963 0402 F3       		.byte	0xf3
 4964 0403 01       		.uleb128 0x1
 4965 0404 50       		.byte	0x50
 4966 0405 9F       		.byte	0x9f
 4967 0406 00000000 		.4byte	0
 4968 040a 00000000 		.4byte	0
ARM GAS  C:\Users\CHUCK~1.ERH\AppData\Local\Temp\ccGtqbdp.s 			page 125


 4969              	.LLST29:
 4970 040e 00000000 		.4byte	.LFB22
 4971 0412 02000000 		.4byte	.LCFI9
 4972 0416 0200     		.2byte	0x2
 4973 0418 7D       		.byte	0x7d
 4974 0419 00       		.sleb128 0
 4975 041a 02000000 		.4byte	.LCFI9
 4976 041e 30000000 		.4byte	.LFE22
 4977 0422 0200     		.2byte	0x2
 4978 0424 7D       		.byte	0x7d
 4979 0425 04       		.sleb128 4
 4980 0426 00000000 		.4byte	0
 4981 042a 00000000 		.4byte	0
 4982              	.LLST30:
 4983 042e 00000000 		.4byte	.LVL65
 4984 0432 12000000 		.4byte	.LVL66
 4985 0436 0100     		.2byte	0x1
 4986 0438 50       		.byte	0x50
 4987 0439 12000000 		.4byte	.LVL66
 4988 043d 14000000 		.4byte	.LVL67
 4989 0441 0400     		.2byte	0x4
 4990 0443 F3       		.byte	0xf3
 4991 0444 01       		.uleb128 0x1
 4992 0445 50       		.byte	0x50
 4993 0446 9F       		.byte	0x9f
 4994 0447 14000000 		.4byte	.LVL67
 4995 044b 16000000 		.4byte	.LVL68
 4996 044f 0100     		.2byte	0x1
 4997 0451 50       		.byte	0x50
 4998 0452 16000000 		.4byte	.LVL68
 4999 0456 1C000000 		.4byte	.LVL70
 5000 045a 0400     		.2byte	0x4
 5001 045c F3       		.byte	0xf3
 5002 045d 01       		.uleb128 0x1
 5003 045e 50       		.byte	0x50
 5004 045f 9F       		.byte	0x9f
 5005 0460 1C000000 		.4byte	.LVL70
 5006 0464 22000000 		.4byte	.LVL71
 5007 0468 0100     		.2byte	0x1
 5008 046a 50       		.byte	0x50
 5009 046b 22000000 		.4byte	.LVL71
 5010 046f 24000000 		.4byte	.LVL72
 5011 0473 0400     		.2byte	0x4
 5012 0475 F3       		.byte	0xf3
 5013 0476 01       		.uleb128 0x1
 5014 0477 50       		.byte	0x50
 5015 0478 9F       		.byte	0x9f
 5016 0479 24000000 		.4byte	.LVL72
 5017 047d 26000000 		.4byte	.LVL73
 5018 0481 0100     		.2byte	0x1
 5019 0483 50       		.byte	0x50
 5020 0484 26000000 		.4byte	.LVL73
 5021 0488 30000000 		.4byte	.LFE22
 5022 048c 0400     		.2byte	0x4
 5023 048e F3       		.byte	0xf3
 5024 048f 01       		.uleb128 0x1
 5025 0490 50       		.byte	0x50
ARM GAS  C:\Users\CHUCK~1.ERH\AppData\Local\Temp\ccGtqbdp.s 			page 126


 5026 0491 9F       		.byte	0x9f
 5027 0492 00000000 		.4byte	0
 5028 0496 00000000 		.4byte	0
 5029              	.LLST31:
 5030 049a 00000000 		.4byte	.LVL65
 5031 049e 12000000 		.4byte	.LVL66
 5032 04a2 0200     		.2byte	0x2
 5033 04a4 30       		.byte	0x30
 5034 04a5 9F       		.byte	0x9f
 5035 04a6 12000000 		.4byte	.LVL66
 5036 04aa 14000000 		.4byte	.LVL67
 5037 04ae 0100     		.2byte	0x1
 5038 04b0 50       		.byte	0x50
 5039 04b1 14000000 		.4byte	.LVL67
 5040 04b5 1A000000 		.4byte	.LVL69
 5041 04b9 0200     		.2byte	0x2
 5042 04bb 30       		.byte	0x30
 5043 04bc 9F       		.byte	0x9f
 5044 04bd 1A000000 		.4byte	.LVL69
 5045 04c1 1C000000 		.4byte	.LVL70
 5046 04c5 0100     		.2byte	0x1
 5047 04c7 50       		.byte	0x50
 5048 04c8 1C000000 		.4byte	.LVL70
 5049 04cc 22000000 		.4byte	.LVL71
 5050 04d0 0200     		.2byte	0x2
 5051 04d2 30       		.byte	0x30
 5052 04d3 9F       		.byte	0x9f
 5053 04d4 22000000 		.4byte	.LVL71
 5054 04d8 24000000 		.4byte	.LVL72
 5055 04dc 0100     		.2byte	0x1
 5056 04de 50       		.byte	0x50
 5057 04df 24000000 		.4byte	.LVL72
 5058 04e3 26000000 		.4byte	.LVL73
 5059 04e7 0200     		.2byte	0x2
 5060 04e9 30       		.byte	0x30
 5061 04ea 9F       		.byte	0x9f
 5062 04eb 26000000 		.4byte	.LVL73
 5063 04ef 30000000 		.4byte	.LFE22
 5064 04f3 0100     		.2byte	0x1
 5065 04f5 50       		.byte	0x50
 5066 04f6 00000000 		.4byte	0
 5067 04fa 00000000 		.4byte	0
 5068              	.LLST32:
 5069 04fe 00000000 		.4byte	.LFB24
 5070 0502 02000000 		.4byte	.LCFI10
 5071 0506 0200     		.2byte	0x2
 5072 0508 7D       		.byte	0x7d
 5073 0509 00       		.sleb128 0
 5074 050a 02000000 		.4byte	.LCFI10
 5075 050e 78000000 		.4byte	.LFE24
 5076 0512 0200     		.2byte	0x2
 5077 0514 7D       		.byte	0x7d
 5078 0515 10       		.sleb128 16
 5079 0516 00000000 		.4byte	0
 5080 051a 00000000 		.4byte	0
 5081              	.LLST33:
 5082 051e 00000000 		.4byte	.LVL74
ARM GAS  C:\Users\CHUCK~1.ERH\AppData\Local\Temp\ccGtqbdp.s 			page 127


 5083 0522 07000000 		.4byte	.LVL75-1
 5084 0526 0100     		.2byte	0x1
 5085 0528 50       		.byte	0x50
 5086 0529 07000000 		.4byte	.LVL75-1
 5087 052d 4A000000 		.4byte	.LVL81
 5088 0531 0100     		.2byte	0x1
 5089 0533 55       		.byte	0x55
 5090 0534 4A000000 		.4byte	.LVL81
 5091 0538 78000000 		.4byte	.LFE24
 5092 053c 0400     		.2byte	0x4
 5093 053e F3       		.byte	0xf3
 5094 053f 01       		.uleb128 0x1
 5095 0540 50       		.byte	0x50
 5096 0541 9F       		.byte	0x9f
 5097 0542 00000000 		.4byte	0
 5098 0546 00000000 		.4byte	0
 5099              	.LLST34:
 5100 054a 0C000000 		.4byte	.LVL76
 5101 054e 0E000000 		.4byte	.LVL77
 5102 0552 0100     		.2byte	0x1
 5103 0554 50       		.byte	0x50
 5104 0555 0E000000 		.4byte	.LVL77
 5105 0559 62000000 		.4byte	.LVL84
 5106 055d 0100     		.2byte	0x1
 5107 055f 54       		.byte	0x54
 5108 0560 00000000 		.4byte	0
 5109 0564 00000000 		.4byte	0
 5110              	.LLST35:
 5111 0568 26000000 		.4byte	.LVL79
 5112 056c 42000000 		.4byte	.LVL80
 5113 0570 0200     		.2byte	0x2
 5114 0572 31       		.byte	0x31
 5115 0573 9F       		.byte	0x9f
 5116 0574 42000000 		.4byte	.LVL80
 5117 0578 56000000 		.4byte	.LVL82
 5118 057c 0100     		.2byte	0x1
 5119 057e 52       		.byte	0x52
 5120 057f 00000000 		.4byte	0
 5121 0583 00000000 		.4byte	0
 5122              	.LLST36:
 5123 0587 00000000 		.4byte	.LFB25
 5124 058b 04000000 		.4byte	.LCFI11
 5125 058f 0200     		.2byte	0x2
 5126 0591 7D       		.byte	0x7d
 5127 0592 00       		.sleb128 0
 5128 0593 04000000 		.4byte	.LCFI11
 5129 0597 2C000000 		.4byte	.LFE25
 5130 059b 0200     		.2byte	0x2
 5131 059d 7D       		.byte	0x7d
 5132 059e 08       		.sleb128 8
 5133 059f 00000000 		.4byte	0
 5134 05a3 00000000 		.4byte	0
 5135              	.LLST37:
 5136 05a7 00000000 		.4byte	.LVL85
 5137 05ab 08000000 		.4byte	.LVL86
 5138 05af 0100     		.2byte	0x1
 5139 05b1 50       		.byte	0x50
ARM GAS  C:\Users\CHUCK~1.ERH\AppData\Local\Temp\ccGtqbdp.s 			page 128


 5140 05b2 08000000 		.4byte	.LVL86
 5141 05b6 18000000 		.4byte	.LVL88
 5142 05ba 0100     		.2byte	0x1
 5143 05bc 54       		.byte	0x54
 5144 05bd 18000000 		.4byte	.LVL88
 5145 05c1 2C000000 		.4byte	.LFE25
 5146 05c5 0400     		.2byte	0x4
 5147 05c7 F3       		.byte	0xf3
 5148 05c8 01       		.uleb128 0x1
 5149 05c9 50       		.byte	0x50
 5150 05ca 9F       		.byte	0x9f
 5151 05cb 00000000 		.4byte	0
 5152 05cf 00000000 		.4byte	0
 5153              	.LLST38:
 5154 05d3 00000000 		.4byte	.LVL89
 5155 05d7 08000000 		.4byte	.LVL90
 5156 05db 0100     		.2byte	0x1
 5157 05dd 50       		.byte	0x50
 5158 05de 08000000 		.4byte	.LVL90
 5159 05e2 2C000000 		.4byte	.LFE26
 5160 05e6 0400     		.2byte	0x4
 5161 05e8 F3       		.byte	0xf3
 5162 05e9 01       		.uleb128 0x1
 5163 05ea 50       		.byte	0x50
 5164 05eb 9F       		.byte	0x9f
 5165 05ec 00000000 		.4byte	0
 5166 05f0 00000000 		.4byte	0
 5167              	.LLST39:
 5168 05f4 00000000 		.4byte	.LVL93
 5169 05f8 06000000 		.4byte	.LVL94
 5170 05fc 0100     		.2byte	0x1
 5171 05fe 50       		.byte	0x50
 5172 05ff 06000000 		.4byte	.LVL94
 5173 0603 0E000000 		.4byte	.LFE32
 5174 0607 0400     		.2byte	0x4
 5175 0609 F3       		.byte	0xf3
 5176 060a 01       		.uleb128 0x1
 5177 060b 50       		.byte	0x50
 5178 060c 9F       		.byte	0x9f
 5179 060d 00000000 		.4byte	0
 5180 0611 00000000 		.4byte	0
 5181              	.LLST40:
 5182 0615 00000000 		.4byte	.LVL96
 5183 0619 04000000 		.4byte	.LVL97
 5184 061d 0100     		.2byte	0x1
 5185 061f 50       		.byte	0x50
 5186 0620 04000000 		.4byte	.LVL97
 5187 0624 0C000000 		.4byte	.LFE33
 5188 0628 0400     		.2byte	0x4
 5189 062a F3       		.byte	0xf3
 5190 062b 01       		.uleb128 0x1
 5191 062c 50       		.byte	0x50
 5192 062d 9F       		.byte	0x9f
 5193 062e 00000000 		.4byte	0
 5194 0632 00000000 		.4byte	0
 5195              	.LLST41:
 5196 0636 00000000 		.4byte	.LVL98
ARM GAS  C:\Users\CHUCK~1.ERH\AppData\Local\Temp\ccGtqbdp.s 			page 129


 5197 063a 08000000 		.4byte	.LVL99
 5198 063e 0100     		.2byte	0x1
 5199 0640 50       		.byte	0x50
 5200 0641 08000000 		.4byte	.LVL99
 5201 0645 10000000 		.4byte	.LFE34
 5202 0649 0400     		.2byte	0x4
 5203 064b F3       		.byte	0xf3
 5204 064c 01       		.uleb128 0x1
 5205 064d 50       		.byte	0x50
 5206 064e 9F       		.byte	0x9f
 5207 064f 00000000 		.4byte	0
 5208 0653 00000000 		.4byte	0
 5209              	.LLST42:
 5210 0657 00000000 		.4byte	.LVL100
 5211 065b 04000000 		.4byte	.LVL101
 5212 065f 0100     		.2byte	0x1
 5213 0661 50       		.byte	0x50
 5214 0662 04000000 		.4byte	.LVL101
 5215 0666 10000000 		.4byte	.LFE35
 5216 066a 0400     		.2byte	0x4
 5217 066c F3       		.byte	0xf3
 5218 066d 01       		.uleb128 0x1
 5219 066e 50       		.byte	0x50
 5220 066f 9F       		.byte	0x9f
 5221 0670 00000000 		.4byte	0
 5222 0674 00000000 		.4byte	0
 5223              	.LLST43:
 5224 0678 00000000 		.4byte	.LFB36
 5225 067c 02000000 		.4byte	.LCFI12
 5226 0680 0200     		.2byte	0x2
 5227 0682 7D       		.byte	0x7d
 5228 0683 00       		.sleb128 0
 5229 0684 02000000 		.4byte	.LCFI12
 5230 0688 34000000 		.4byte	.LFE36
 5231 068c 0200     		.2byte	0x2
 5232 068e 7D       		.byte	0x7d
 5233 068f 10       		.sleb128 16
 5234 0690 00000000 		.4byte	0
 5235 0694 00000000 		.4byte	0
 5236              	.LLST44:
 5237 0698 00000000 		.4byte	.LVL102
 5238 069c 09000000 		.4byte	.LVL104-1
 5239 06a0 0100     		.2byte	0x1
 5240 06a2 50       		.byte	0x50
 5241 06a3 09000000 		.4byte	.LVL104-1
 5242 06a7 34000000 		.4byte	.LFE36
 5243 06ab 0400     		.2byte	0x4
 5244 06ad F3       		.byte	0xf3
 5245 06ae 01       		.uleb128 0x1
 5246 06af 50       		.byte	0x50
 5247 06b0 9F       		.byte	0x9f
 5248 06b1 00000000 		.4byte	0
 5249 06b5 00000000 		.4byte	0
 5250              	.LLST45:
 5251 06b9 00000000 		.4byte	.LVL102
 5252 06bd 09000000 		.4byte	.LVL104-1
 5253 06c1 0100     		.2byte	0x1
ARM GAS  C:\Users\CHUCK~1.ERH\AppData\Local\Temp\ccGtqbdp.s 			page 130


 5254 06c3 51       		.byte	0x51
 5255 06c4 09000000 		.4byte	.LVL104-1
 5256 06c8 34000000 		.4byte	.LFE36
 5257 06cc 0400     		.2byte	0x4
 5258 06ce F3       		.byte	0xf3
 5259 06cf 01       		.uleb128 0x1
 5260 06d0 51       		.byte	0x51
 5261 06d1 9F       		.byte	0x9f
 5262 06d2 00000000 		.4byte	0
 5263 06d6 00000000 		.4byte	0
 5264              	.LLST46:
 5265 06da 0A000000 		.4byte	.LVL104
 5266 06de 2B000000 		.4byte	.LVL109-1
 5267 06e2 0100     		.2byte	0x1
 5268 06e4 50       		.byte	0x50
 5269 06e5 00000000 		.4byte	0
 5270 06e9 00000000 		.4byte	0
 5271              	.LLST47:
 5272 06ed 04000000 		.4byte	.LVL103
 5273 06f1 09000000 		.4byte	.LVL104-1
 5274 06f5 0C00     		.2byte	0xc
 5275 06f7 70       		.byte	0x70
 5276 06f8 00       		.sleb128 0
 5277 06f9 33       		.byte	0x33
 5278 06fa 1A       		.byte	0x1a
 5279 06fb 08       		.byte	0x8
 5280 06fc FF       		.byte	0xff
 5281 06fd 1A       		.byte	0x1a
 5282 06fe 33       		.byte	0x33
 5283 06ff 24       		.byte	0x24
 5284 0700 23       		.byte	0x23
 5285 0701 06       		.uleb128 0x6
 5286 0702 9F       		.byte	0x9f
 5287 0703 09000000 		.4byte	.LVL104-1
 5288 0707 16000000 		.4byte	.LVL105
 5289 070b 0C00     		.2byte	0xc
 5290 070d 74       		.byte	0x74
 5291 070e 00       		.sleb128 0
 5292 070f 33       		.byte	0x33
 5293 0710 1A       		.byte	0x1a
 5294 0711 08       		.byte	0x8
 5295 0712 FF       		.byte	0xff
 5296 0713 1A       		.byte	0x1a
 5297 0714 33       		.byte	0x33
 5298 0715 24       		.byte	0x24
 5299 0716 23       		.byte	0x23
 5300 0717 06       		.uleb128 0x6
 5301 0718 9F       		.byte	0x9f
 5302 0719 00000000 		.4byte	0
 5303 071d 00000000 		.4byte	0
 5304              	.LLST48:
 5305 0721 1A000000 		.4byte	.LVL106
 5306 0725 26000000 		.4byte	.LVL108
 5307 0729 0100     		.2byte	0x1
 5308 072b 51       		.byte	0x51
 5309 072c 26000000 		.4byte	.LVL108
 5310 0730 2C000000 		.4byte	.LVL110
ARM GAS  C:\Users\CHUCK~1.ERH\AppData\Local\Temp\ccGtqbdp.s 			page 131


 5311 0734 0100     		.2byte	0x1
 5312 0736 54       		.byte	0x54
 5313 0737 00000000 		.4byte	0
 5314 073b 00000000 		.4byte	0
 5315              	.LLST49:
 5316 073f 00000000 		.4byte	.LVL111
 5317 0743 0C000000 		.4byte	.LVL112
 5318 0747 0100     		.2byte	0x1
 5319 0749 50       		.byte	0x50
 5320 074a 0C000000 		.4byte	.LVL112
 5321 074e 20000000 		.4byte	.LFE37
 5322 0752 0400     		.2byte	0x4
 5323 0754 F3       		.byte	0xf3
 5324 0755 01       		.uleb128 0x1
 5325 0756 50       		.byte	0x50
 5326 0757 9F       		.byte	0x9f
 5327 0758 00000000 		.4byte	0
 5328 075c 00000000 		.4byte	0
 5329              	.LLST50:
 5330 0760 00000000 		.4byte	.LVL113
 5331 0764 04000000 		.4byte	.LVL114
 5332 0768 0100     		.2byte	0x1
 5333 076a 50       		.byte	0x50
 5334 076b 04000000 		.4byte	.LVL114
 5335 076f 14000000 		.4byte	.LFE38
 5336 0773 0400     		.2byte	0x4
 5337 0775 F3       		.byte	0xf3
 5338 0776 01       		.uleb128 0x1
 5339 0777 50       		.byte	0x50
 5340 0778 9F       		.byte	0x9f
 5341 0779 00000000 		.4byte	0
 5342 077d 00000000 		.4byte	0
 5343              	.LLST51:
 5344 0781 00000000 		.4byte	.LVL115
 5345 0785 08000000 		.4byte	.LVL116
 5346 0789 0100     		.2byte	0x1
 5347 078b 50       		.byte	0x50
 5348 078c 08000000 		.4byte	.LVL116
 5349 0790 18000000 		.4byte	.LFE39
 5350 0794 0400     		.2byte	0x4
 5351 0796 F3       		.byte	0xf3
 5352 0797 01       		.uleb128 0x1
 5353 0798 50       		.byte	0x50
 5354 0799 9F       		.byte	0x9f
 5355 079a 00000000 		.4byte	0
 5356 079e 00000000 		.4byte	0
 5357              	.LLST52:
 5358 07a2 00000000 		.4byte	.LVL117
 5359 07a6 04000000 		.4byte	.LVL118
 5360 07aa 0100     		.2byte	0x1
 5361 07ac 50       		.byte	0x50
 5362 07ad 04000000 		.4byte	.LVL118
 5363 07b1 14000000 		.4byte	.LFE40
 5364 07b5 0400     		.2byte	0x4
 5365 07b7 F3       		.byte	0xf3
 5366 07b8 01       		.uleb128 0x1
 5367 07b9 50       		.byte	0x50
ARM GAS  C:\Users\CHUCK~1.ERH\AppData\Local\Temp\ccGtqbdp.s 			page 132


 5368 07ba 9F       		.byte	0x9f
 5369 07bb 00000000 		.4byte	0
 5370 07bf 00000000 		.4byte	0
 5371              	.LLST53:
 5372 07c3 00000000 		.4byte	.LVL119
 5373 07c7 04000000 		.4byte	.LVL120
 5374 07cb 0100     		.2byte	0x1
 5375 07cd 50       		.byte	0x50
 5376 07ce 04000000 		.4byte	.LVL120
 5377 07d2 14000000 		.4byte	.LFE41
 5378 07d6 0400     		.2byte	0x4
 5379 07d8 F3       		.byte	0xf3
 5380 07d9 01       		.uleb128 0x1
 5381 07da 50       		.byte	0x50
 5382 07db 9F       		.byte	0x9f
 5383 07dc 00000000 		.4byte	0
 5384 07e0 00000000 		.4byte	0
 5385              	.LLST54:
 5386 07e4 00000000 		.4byte	.LVL121
 5387 07e8 04000000 		.4byte	.LVL122
 5388 07ec 0100     		.2byte	0x1
 5389 07ee 50       		.byte	0x50
 5390 07ef 04000000 		.4byte	.LVL122
 5391 07f3 14000000 		.4byte	.LFE42
 5392 07f7 0400     		.2byte	0x4
 5393 07f9 F3       		.byte	0xf3
 5394 07fa 01       		.uleb128 0x1
 5395 07fb 50       		.byte	0x50
 5396 07fc 9F       		.byte	0x9f
 5397 07fd 00000000 		.4byte	0
 5398 0801 00000000 		.4byte	0
 5399              	.LLST55:
 5400 0805 00000000 		.4byte	.LFB45
 5401 0809 02000000 		.4byte	.LCFI13
 5402 080d 0200     		.2byte	0x2
 5403 080f 7D       		.byte	0x7d
 5404 0810 00       		.sleb128 0
 5405 0811 02000000 		.4byte	.LCFI13
 5406 0815 2C000000 		.4byte	.LFE45
 5407 0819 0200     		.2byte	0x2
 5408 081b 7D       		.byte	0x7d
 5409 081c 08       		.sleb128 8
 5410 081d 00000000 		.4byte	0
 5411 0821 00000000 		.4byte	0
 5412              	.LLST56:
 5413 0825 00000000 		.4byte	.LVL124
 5414 0829 04000000 		.4byte	.LVL125
 5415 082d 0100     		.2byte	0x1
 5416 082f 50       		.byte	0x50
 5417 0830 04000000 		.4byte	.LVL125
 5418 0834 22000000 		.4byte	.LVL129
 5419 0838 0100     		.2byte	0x1
 5420 083a 54       		.byte	0x54
 5421 083b 00000000 		.4byte	0
 5422 083f 00000000 		.4byte	0
 5423              	.LLST57:
 5424 0843 00000000 		.4byte	.LFB46
ARM GAS  C:\Users\CHUCK~1.ERH\AppData\Local\Temp\ccGtqbdp.s 			page 133


 5425 0847 02000000 		.4byte	.LCFI14
 5426 084b 0200     		.2byte	0x2
 5427 084d 7D       		.byte	0x7d
 5428 084e 00       		.sleb128 0
 5429 084f 02000000 		.4byte	.LCFI14
 5430 0853 14000000 		.4byte	.LFE46
 5431 0857 0200     		.2byte	0x2
 5432 0859 7D       		.byte	0x7d
 5433 085a 08       		.sleb128 8
 5434 085b 00000000 		.4byte	0
 5435 085f 00000000 		.4byte	0
 5436              	.LLST58:
 5437 0863 00000000 		.4byte	.LVL130
 5438 0867 08000000 		.4byte	.LVL131
 5439 086b 0100     		.2byte	0x1
 5440 086d 50       		.byte	0x50
 5441 086e 08000000 		.4byte	.LVL131
 5442 0872 14000000 		.4byte	.LFE46
 5443 0876 0400     		.2byte	0x4
 5444 0878 F3       		.byte	0xf3
 5445 0879 01       		.uleb128 0x1
 5446 087a 50       		.byte	0x50
 5447 087b 9F       		.byte	0x9f
 5448 087c 00000000 		.4byte	0
 5449 0880 00000000 		.4byte	0
 5450              	.LLST59:
 5451 0884 00000000 		.4byte	.LFB18
 5452 0888 02000000 		.4byte	.LCFI15
 5453 088c 0200     		.2byte	0x2
 5454 088e 7D       		.byte	0x7d
 5455 088f 00       		.sleb128 0
 5456 0890 02000000 		.4byte	.LCFI15
 5457 0894 3C000000 		.4byte	.LFE18
 5458 0898 0200     		.2byte	0x2
 5459 089a 7D       		.byte	0x7d
 5460 089b 10       		.sleb128 16
 5461 089c 00000000 		.4byte	0
 5462 08a0 00000000 		.4byte	0
 5463              	.LLST60:
 5464 08a4 00000000 		.4byte	.LVL133
 5465 08a8 08000000 		.4byte	.LVL134
 5466 08ac 0100     		.2byte	0x1
 5467 08ae 50       		.byte	0x50
 5468 08af 08000000 		.4byte	.LVL134
 5469 08b3 1E000000 		.4byte	.LVL137
 5470 08b7 0100     		.2byte	0x1
 5471 08b9 55       		.byte	0x55
 5472 08ba 1E000000 		.4byte	.LVL137
 5473 08be 3C000000 		.4byte	.LFE18
 5474 08c2 0400     		.2byte	0x4
 5475 08c4 F3       		.byte	0xf3
 5476 08c5 01       		.uleb128 0x1
 5477 08c6 50       		.byte	0x50
 5478 08c7 9F       		.byte	0x9f
 5479 08c8 00000000 		.4byte	0
 5480 08cc 00000000 		.4byte	0
 5481              	.LLST61:
ARM GAS  C:\Users\CHUCK~1.ERH\AppData\Local\Temp\ccGtqbdp.s 			page 134


 5482 08d0 00000000 		.4byte	.LVL133
 5483 08d4 11000000 		.4byte	.LVL135-1
 5484 08d8 0100     		.2byte	0x1
 5485 08da 51       		.byte	0x51
 5486 08db 11000000 		.4byte	.LVL135-1
 5487 08df 26000000 		.4byte	.LVL140
 5488 08e3 0100     		.2byte	0x1
 5489 08e5 54       		.byte	0x54
 5490 08e6 26000000 		.4byte	.LVL140
 5491 08ea 3C000000 		.4byte	.LFE18
 5492 08ee 0400     		.2byte	0x4
 5493 08f0 F3       		.byte	0xf3
 5494 08f1 01       		.uleb128 0x1
 5495 08f2 51       		.byte	0x51
 5496 08f3 9F       		.byte	0x9f
 5497 08f4 00000000 		.4byte	0
 5498 08f8 00000000 		.4byte	0
 5499              	.LLST62:
 5500 08fc 20000000 		.4byte	.LVL138
 5501 0900 24000000 		.4byte	.LVL139
 5502 0904 0B00     		.2byte	0xb
 5503 0906 0A       		.byte	0xa
 5504 0907 FFFF     		.2byte	0xffff
 5505 0909 75       		.byte	0x75
 5506 090a 00       		.sleb128 0
 5507 090b 24       		.byte	0x24
 5508 090c 20       		.byte	0x20
 5509 090d 72       		.byte	0x72
 5510 090e 00       		.sleb128 0
 5511 090f 1A       		.byte	0x1a
 5512 0910 9F       		.byte	0x9f
 5513 0911 24000000 		.4byte	.LVL139
 5514 0915 3C000000 		.4byte	.LFE18
 5515 0919 0100     		.2byte	0x1
 5516 091b 52       		.byte	0x52
 5517 091c 00000000 		.4byte	0
 5518 0920 00000000 		.4byte	0
 5519              	.LLST63:
 5520 0924 00000000 		.4byte	.LFB6
 5521 0928 02000000 		.4byte	.LCFI16
 5522 092c 0200     		.2byte	0x2
 5523 092e 7D       		.byte	0x7d
 5524 092f 00       		.sleb128 0
 5525 0930 02000000 		.4byte	.LCFI16
 5526 0934 06000000 		.4byte	.LCFI17
 5527 0938 0200     		.2byte	0x2
 5528 093a 7D       		.byte	0x7d
 5529 093b 14       		.sleb128 20
 5530 093c 06000000 		.4byte	.LCFI17
 5531 0940 38010000 		.4byte	.LFE6
 5532 0944 0200     		.2byte	0x2
 5533 0946 7D       		.byte	0x7d
 5534 0947 28       		.sleb128 40
 5535 0948 00000000 		.4byte	0
 5536 094c 00000000 		.4byte	0
 5537              	.LLST64:
 5538 0950 00000000 		.4byte	.LVL141
ARM GAS  C:\Users\CHUCK~1.ERH\AppData\Local\Temp\ccGtqbdp.s 			page 135


 5539 0954 11000000 		.4byte	.LVL142-1
 5540 0958 0100     		.2byte	0x1
 5541 095a 50       		.byte	0x50
 5542 095b 11000000 		.4byte	.LVL142-1
 5543 095f A0000000 		.4byte	.LVL162
 5544 0963 0100     		.2byte	0x1
 5545 0965 54       		.byte	0x54
 5546 0966 A0000000 		.4byte	.LVL162
 5547 096a BE000000 		.4byte	.LVL167
 5548 096e 0A00     		.2byte	0xa
 5549 0970 91       		.byte	0x91
 5550 0971 60       		.sleb128 -32
 5551 0972 06       		.byte	0x6
 5552 0973 0C       		.byte	0xc
 5553 0974 CDF1FF0F 		.4byte	0xffff1cd
 5554 0978 1C       		.byte	0x1c
 5555 0979 9F       		.byte	0x9f
 5556 097a BE000000 		.4byte	.LVL167
 5557 097e C0000000 		.4byte	.LVL168
 5558 0982 0100     		.2byte	0x1
 5559 0984 54       		.byte	0x54
 5560 0985 C0000000 		.4byte	.LVL168
 5561 0989 CD000000 		.4byte	.LVL170-1
 5562 098d 0700     		.2byte	0x7
 5563 098f 72       		.byte	0x72
 5564 0990 B39C8080 		.sleb128 -268431821
 5564      7F
 5565 0995 9F       		.byte	0x9f
 5566 0996 CD000000 		.4byte	.LVL170-1
 5567 099a E8000000 		.4byte	.LVL173
 5568 099e 0A00     		.2byte	0xa
 5569 09a0 91       		.byte	0x91
 5570 09a1 60       		.sleb128 -32
 5571 09a2 06       		.byte	0x6
 5572 09a3 0C       		.byte	0xc
 5573 09a4 CDF1FF0F 		.4byte	0xffff1cd
 5574 09a8 1C       		.byte	0x1c
 5575 09a9 9F       		.byte	0x9f
 5576 09aa E8000000 		.4byte	.LVL173
 5577 09ae 38010000 		.4byte	.LFE6
 5578 09b2 0600     		.2byte	0x6
 5579 09b4 91       		.byte	0x91
 5580 09b5 5C       		.sleb128 -36
 5581 09b6 06       		.byte	0x6
 5582 09b7 23       		.byte	0x23
 5583 09b8 03       		.uleb128 0x3
 5584 09b9 9F       		.byte	0x9f
 5585 09ba 00000000 		.4byte	0
 5586 09be 00000000 		.4byte	0
 5587              	.LLST65:
 5588 09c2 40000000 		.4byte	.LVL148
 5589 09c6 42000000 		.4byte	.LVL149
 5590 09ca 0100     		.2byte	0x1
 5591 09cc 56       		.byte	0x56
 5592 09cd 50000000 		.4byte	.LVL150
 5593 09d1 52000000 		.4byte	.LVL151
 5594 09d5 0100     		.2byte	0x1
ARM GAS  C:\Users\CHUCK~1.ERH\AppData\Local\Temp\ccGtqbdp.s 			page 136


 5595 09d7 56       		.byte	0x56
 5596 09d8 60000000 		.4byte	.LVL152
 5597 09dc 62000000 		.4byte	.LVL153
 5598 09e0 0100     		.2byte	0x1
 5599 09e2 56       		.byte	0x56
 5600 09e3 70000000 		.4byte	.LVL154
 5601 09e7 72000000 		.4byte	.LVL155
 5602 09eb 0100     		.2byte	0x1
 5603 09ed 56       		.byte	0x56
 5604 09ee 7A000000 		.4byte	.LVL157
 5605 09f2 A6000000 		.4byte	.LVL163
 5606 09f6 0100     		.2byte	0x1
 5607 09f8 56       		.byte	0x56
 5608 09f9 A6000000 		.4byte	.LVL163
 5609 09fd AD000000 		.4byte	.LVL164-1
 5610 0a01 0400     		.2byte	0x4
 5611 0a03 74       		.byte	0x74
 5612 0a04 00       		.sleb128 0
 5613 0a05 06       		.byte	0x6
 5614 0a06 9F       		.byte	0x9f
 5615 0a07 BE000000 		.4byte	.LVL167
 5616 0a0b DC000000 		.4byte	.LVL171
 5617 0a0f 0100     		.2byte	0x1
 5618 0a11 56       		.byte	0x56
 5619 0a12 DC000000 		.4byte	.LVL171
 5620 0a16 E1000000 		.4byte	.LVL172-1
 5621 0a1a 0400     		.2byte	0x4
 5622 0a1c 74       		.byte	0x74
 5623 0a1d 00       		.sleb128 0
 5624 0a1e 06       		.byte	0x6
 5625 0a1f 9F       		.byte	0x9f
 5626 0a20 00000000 		.4byte	0
 5627 0a24 00000000 		.4byte	0
 5628              	.LLST66:
 5629 0a28 7A000000 		.4byte	.LVL157
 5630 0a2c B2000000 		.4byte	.LVL165
 5631 0a30 0100     		.2byte	0x1
 5632 0a32 55       		.byte	0x55
 5633 0a33 BE000000 		.4byte	.LVL167
 5634 0a37 E2000000 		.4byte	.LVL172
 5635 0a3b 0100     		.2byte	0x1
 5636 0a3d 55       		.byte	0x55
 5637 0a3e 00000000 		.4byte	0
 5638 0a42 00000000 		.4byte	0
 5639              	.LLST67:
 5640 0a46 00000000 		.4byte	.LVL141
 5641 0a4a 28000000 		.4byte	.LVL144
 5642 0a4e 0300     		.2byte	0x3
 5643 0a50 08       		.byte	0x8
 5644 0a51 30       		.byte	0x30
 5645 0a52 9F       		.byte	0x9f
 5646 0a53 28000000 		.4byte	.LVL144
 5647 0a57 2A000000 		.4byte	.LVL145
 5648 0a5b 0100     		.2byte	0x1
 5649 0a5d 53       		.byte	0x53
 5650 0a5e 2A000000 		.4byte	.LVL145
 5651 0a62 32000000 		.4byte	.LVL147
ARM GAS  C:\Users\CHUCK~1.ERH\AppData\Local\Temp\ccGtqbdp.s 			page 137


 5652 0a66 0300     		.2byte	0x3
 5653 0a68 08       		.byte	0x8
 5654 0a69 30       		.byte	0x30
 5655 0a6a 9F       		.byte	0x9f
 5656 0a6b 32000000 		.4byte	.LVL147
 5657 0a6f 8A000000 		.4byte	.LVL158
 5658 0a73 0100     		.2byte	0x1
 5659 0a75 53       		.byte	0x53
 5660 0a76 92000000 		.4byte	.LVL159
 5661 0a7a 94000000 		.4byte	.LVL160
 5662 0a7e 0200     		.2byte	0x2
 5663 0a80 48       		.byte	0x48
 5664 0a81 9F       		.byte	0x9f
 5665 0a82 94000000 		.4byte	.LVL160
 5666 0a86 98000000 		.4byte	.LVL161
 5667 0a8a 0100     		.2byte	0x1
 5668 0a8c 53       		.byte	0x53
 5669 0a8d BE000000 		.4byte	.LVL167
 5670 0a91 C2000000 		.4byte	.LVL169
 5671 0a95 0100     		.2byte	0x1
 5672 0a97 53       		.byte	0x53
 5673 0a98 00000000 		.4byte	0
 5674 0a9c 00000000 		.4byte	0
 5675              	.LLST68:
 5676 0aa0 16000000 		.4byte	.LVL143
 5677 0aa4 E8000000 		.4byte	.LVL173
 5678 0aa8 0200     		.2byte	0x2
 5679 0aaa 91       		.byte	0x91
 5680 0aab 64       		.sleb128 -28
 5681 0aac 00000000 		.4byte	0
 5682 0ab0 00000000 		.4byte	0
 5683              	.LLST69:
 5684 0ab4 2C000000 		.4byte	.LVL146
 5685 0ab8 32000000 		.4byte	.LVL147
 5686 0abc 0100     		.2byte	0x1
 5687 0abe 53       		.byte	0x53
 5688 0abf 00000000 		.4byte	0
 5689 0ac3 00000000 		.4byte	0
 5690              	.LLST70:
 5691 0ac7 00000000 		.4byte	.LFB47
 5692 0acb 02000000 		.4byte	.LCFI18
 5693 0acf 0200     		.2byte	0x2
 5694 0ad1 7D       		.byte	0x7d
 5695 0ad2 00       		.sleb128 0
 5696 0ad3 02000000 		.4byte	.LCFI18
 5697 0ad7 48000000 		.4byte	.LFE47
 5698 0adb 0200     		.2byte	0x2
 5699 0add 7D       		.byte	0x7d
 5700 0ade 10       		.sleb128 16
 5701 0adf 00000000 		.4byte	0
 5702 0ae3 00000000 		.4byte	0
 5703              	.LLST71:
 5704 0ae7 00000000 		.4byte	.LVL174
 5705 0aeb 14000000 		.4byte	.LVL175
 5706 0aef 0100     		.2byte	0x1
 5707 0af1 50       		.byte	0x50
 5708 0af2 14000000 		.4byte	.LVL175
ARM GAS  C:\Users\CHUCK~1.ERH\AppData\Local\Temp\ccGtqbdp.s 			page 138


 5709 0af6 48000000 		.4byte	.LFE47
 5710 0afa 0400     		.2byte	0x4
 5711 0afc F3       		.byte	0xf3
 5712 0afd 01       		.uleb128 0x1
 5713 0afe 50       		.byte	0x50
 5714 0aff 9F       		.byte	0x9f
 5715 0b00 00000000 		.4byte	0
 5716 0b04 00000000 		.4byte	0
 5717              		.section	.debug_aranges,"",%progbits
 5718 0000 94010000 		.4byte	0x194
 5719 0004 0200     		.2byte	0x2
 5720 0006 00000000 		.4byte	.Ldebug_info0
 5721 000a 04       		.byte	0x4
 5722 000b 00       		.byte	0
 5723 000c 0000     		.2byte	0
 5724 000e 0000     		.2byte	0
 5725 0010 00000000 		.4byte	.LFB0
 5726 0014 14000000 		.4byte	.LFE0-.LFB0
 5727 0018 00000000 		.4byte	.LFB1
 5728 001c 10000000 		.4byte	.LFE1-.LFB1
 5729 0020 00000000 		.4byte	.LFB2
 5730 0024 14000000 		.4byte	.LFE2-.LFB2
 5731 0028 00000000 		.4byte	.LFB3
 5732 002c 10000000 		.4byte	.LFE3-.LFB3
 5733 0030 00000000 		.4byte	.LFB4
 5734 0034 18000000 		.4byte	.LFE4-.LFB4
 5735 0038 00000000 		.4byte	.LFB5
 5736 003c 20000000 		.4byte	.LFE5-.LFB5
 5737 0040 00000000 		.4byte	.LFB7
 5738 0044 30000000 		.4byte	.LFE7-.LFB7
 5739 0048 00000000 		.4byte	.LFB8
 5740 004c 44000000 		.4byte	.LFE8-.LFB8
 5741 0050 00000000 		.4byte	.LFB9
 5742 0054 18000000 		.4byte	.LFE9-.LFB9
 5743 0058 00000000 		.4byte	.LFB10
 5744 005c 3C000000 		.4byte	.LFE10-.LFB10
 5745 0060 00000000 		.4byte	.LFB11
 5746 0064 14000000 		.4byte	.LFE11-.LFB11
 5747 0068 00000000 		.4byte	.LFB12
 5748 006c 34000000 		.4byte	.LFE12-.LFB12
 5749 0070 00000000 		.4byte	.LFB13
 5750 0074 18000000 		.4byte	.LFE13-.LFB13
 5751 0078 00000000 		.4byte	.LFB14
 5752 007c 24000000 		.4byte	.LFE14-.LFB14
 5753 0080 00000000 		.4byte	.LFB15
 5754 0084 24000000 		.4byte	.LFE15-.LFB15
 5755 0088 00000000 		.4byte	.LFB16
 5756 008c 44000000 		.4byte	.LFE16-.LFB16
 5757 0090 00000000 		.4byte	.LFB17
 5758 0094 14000000 		.4byte	.LFE17-.LFB17
 5759 0098 00000000 		.4byte	.LFB19
 5760 009c 3C000000 		.4byte	.LFE19-.LFB19
 5761 00a0 00000000 		.4byte	.LFB20
 5762 00a4 10000000 		.4byte	.LFE20-.LFB20
 5763 00a8 00000000 		.4byte	.LFB21
 5764 00ac 10000000 		.4byte	.LFE21-.LFB21
 5765 00b0 00000000 		.4byte	.LFB22
ARM GAS  C:\Users\CHUCK~1.ERH\AppData\Local\Temp\ccGtqbdp.s 			page 139


 5766 00b4 30000000 		.4byte	.LFE22-.LFB22
 5767 00b8 00000000 		.4byte	.LFB23
 5768 00bc 14000000 		.4byte	.LFE23-.LFB23
 5769 00c0 00000000 		.4byte	.LFB24
 5770 00c4 78000000 		.4byte	.LFE24-.LFB24
 5771 00c8 00000000 		.4byte	.LFB25
 5772 00cc 2C000000 		.4byte	.LFE25-.LFB25
 5773 00d0 00000000 		.4byte	.LFB26
 5774 00d4 2C000000 		.4byte	.LFE26-.LFB26
 5775 00d8 00000000 		.4byte	.LFB27
 5776 00dc 20000000 		.4byte	.LFE27-.LFB27
 5777 00e0 00000000 		.4byte	.LFB28
 5778 00e4 10000000 		.4byte	.LFE28-.LFB28
 5779 00e8 00000000 		.4byte	.LFB29
 5780 00ec 0C000000 		.4byte	.LFE29-.LFB29
 5781 00f0 00000000 		.4byte	.LFB30
 5782 00f4 10000000 		.4byte	.LFE30-.LFB30
 5783 00f8 00000000 		.4byte	.LFB31
 5784 00fc 0C000000 		.4byte	.LFE31-.LFB31
 5785 0100 00000000 		.4byte	.LFB32
 5786 0104 0E000000 		.4byte	.LFE32-.LFB32
 5787 0108 00000000 		.4byte	.LFB33
 5788 010c 0C000000 		.4byte	.LFE33-.LFB33
 5789 0110 00000000 		.4byte	.LFB34
 5790 0114 10000000 		.4byte	.LFE34-.LFB34
 5791 0118 00000000 		.4byte	.LFB35
 5792 011c 10000000 		.4byte	.LFE35-.LFB35
 5793 0120 00000000 		.4byte	.LFB36
 5794 0124 34000000 		.4byte	.LFE36-.LFB36
 5795 0128 00000000 		.4byte	.LFB37
 5796 012c 20000000 		.4byte	.LFE37-.LFB37
 5797 0130 00000000 		.4byte	.LFB38
 5798 0134 14000000 		.4byte	.LFE38-.LFB38
 5799 0138 00000000 		.4byte	.LFB39
 5800 013c 18000000 		.4byte	.LFE39-.LFB39
 5801 0140 00000000 		.4byte	.LFB40
 5802 0144 14000000 		.4byte	.LFE40-.LFB40
 5803 0148 00000000 		.4byte	.LFB41
 5804 014c 14000000 		.4byte	.LFE41-.LFB41
 5805 0150 00000000 		.4byte	.LFB42
 5806 0154 14000000 		.4byte	.LFE42-.LFB42
 5807 0158 00000000 		.4byte	.LFB43
 5808 015c 04000000 		.4byte	.LFE43-.LFB43
 5809 0160 00000000 		.4byte	.LFB44
 5810 0164 18000000 		.4byte	.LFE44-.LFB44
 5811 0168 00000000 		.4byte	.LFB45
 5812 016c 2C000000 		.4byte	.LFE45-.LFB45
 5813 0170 00000000 		.4byte	.LFB46
 5814 0174 14000000 		.4byte	.LFE46-.LFB46
 5815 0178 00000000 		.4byte	.LFB18
 5816 017c 3C000000 		.4byte	.LFE18-.LFB18
 5817 0180 00000000 		.4byte	.LFB6
 5818 0184 38010000 		.4byte	.LFE6-.LFB6
 5819 0188 00000000 		.4byte	.LFB47
 5820 018c 48000000 		.4byte	.LFE47-.LFB47
 5821 0190 00000000 		.4byte	0
 5822 0194 00000000 		.4byte	0
ARM GAS  C:\Users\CHUCK~1.ERH\AppData\Local\Temp\ccGtqbdp.s 			page 140


 5823              		.section	.debug_ranges,"",%progbits
 5824              	.Ldebug_ranges0:
 5825 0000 00000000 		.4byte	.LBB8
 5826 0004 02000000 		.4byte	.LBE8
 5827 0008 06000000 		.4byte	.LBB12
 5828 000c 08000000 		.4byte	.LBE12
 5829 0010 0E000000 		.4byte	.LBB20
 5830 0014 12000000 		.4byte	.LBE20
 5831 0018 00000000 		.4byte	0
 5832 001c 00000000 		.4byte	0
 5833 0020 08000000 		.4byte	.LBB13
 5834 0024 0A000000 		.4byte	.LBE13
 5835 0028 0C000000 		.4byte	.LBB19
 5836 002c 0E000000 		.4byte	.LBE19
 5837 0030 00000000 		.4byte	0
 5838 0034 00000000 		.4byte	0
 5839 0038 0A000000 		.4byte	.LBB16
 5840 003c 0C000000 		.4byte	.LBE16
 5841 0040 12000000 		.4byte	.LBB21
 5842 0044 16000000 		.4byte	.LBE21
 5843 0048 00000000 		.4byte	0
 5844 004c 00000000 		.4byte	0
 5845 0050 00000000 		.4byte	.LBB24
 5846 0054 02000000 		.4byte	.LBE24
 5847 0058 06000000 		.4byte	.LBB27
 5848 005c 08000000 		.4byte	.LBE27
 5849 0060 00000000 		.4byte	0
 5850 0064 00000000 		.4byte	0
 5851 0068 00000000 		.4byte	.LFB0
 5852 006c 14000000 		.4byte	.LFE0
 5853 0070 00000000 		.4byte	.LFB1
 5854 0074 10000000 		.4byte	.LFE1
 5855 0078 00000000 		.4byte	.LFB2
 5856 007c 14000000 		.4byte	.LFE2
 5857 0080 00000000 		.4byte	.LFB3
 5858 0084 10000000 		.4byte	.LFE3
 5859 0088 00000000 		.4byte	.LFB4
 5860 008c 18000000 		.4byte	.LFE4
 5861 0090 00000000 		.4byte	.LFB5
 5862 0094 20000000 		.4byte	.LFE5
 5863 0098 00000000 		.4byte	.LFB7
 5864 009c 30000000 		.4byte	.LFE7
 5865 00a0 00000000 		.4byte	.LFB8
 5866 00a4 44000000 		.4byte	.LFE8
 5867 00a8 00000000 		.4byte	.LFB9
 5868 00ac 18000000 		.4byte	.LFE9
 5869 00b0 00000000 		.4byte	.LFB10
 5870 00b4 3C000000 		.4byte	.LFE10
 5871 00b8 00000000 		.4byte	.LFB11
 5872 00bc 14000000 		.4byte	.LFE11
 5873 00c0 00000000 		.4byte	.LFB12
 5874 00c4 34000000 		.4byte	.LFE12
 5875 00c8 00000000 		.4byte	.LFB13
 5876 00cc 18000000 		.4byte	.LFE13
 5877 00d0 00000000 		.4byte	.LFB14
 5878 00d4 24000000 		.4byte	.LFE14
 5879 00d8 00000000 		.4byte	.LFB15
ARM GAS  C:\Users\CHUCK~1.ERH\AppData\Local\Temp\ccGtqbdp.s 			page 141


 5880 00dc 24000000 		.4byte	.LFE15
 5881 00e0 00000000 		.4byte	.LFB16
 5882 00e4 44000000 		.4byte	.LFE16
 5883 00e8 00000000 		.4byte	.LFB17
 5884 00ec 14000000 		.4byte	.LFE17
 5885 00f0 00000000 		.4byte	.LFB19
 5886 00f4 3C000000 		.4byte	.LFE19
 5887 00f8 00000000 		.4byte	.LFB20
 5888 00fc 10000000 		.4byte	.LFE20
 5889 0100 00000000 		.4byte	.LFB21
 5890 0104 10000000 		.4byte	.LFE21
 5891 0108 00000000 		.4byte	.LFB22
 5892 010c 30000000 		.4byte	.LFE22
 5893 0110 00000000 		.4byte	.LFB23
 5894 0114 14000000 		.4byte	.LFE23
 5895 0118 00000000 		.4byte	.LFB24
 5896 011c 78000000 		.4byte	.LFE24
 5897 0120 00000000 		.4byte	.LFB25
 5898 0124 2C000000 		.4byte	.LFE25
 5899 0128 00000000 		.4byte	.LFB26
 5900 012c 2C000000 		.4byte	.LFE26
 5901 0130 00000000 		.4byte	.LFB27
 5902 0134 20000000 		.4byte	.LFE27
 5903 0138 00000000 		.4byte	.LFB28
 5904 013c 10000000 		.4byte	.LFE28
 5905 0140 00000000 		.4byte	.LFB29
 5906 0144 0C000000 		.4byte	.LFE29
 5907 0148 00000000 		.4byte	.LFB30
 5908 014c 10000000 		.4byte	.LFE30
 5909 0150 00000000 		.4byte	.LFB31
 5910 0154 0C000000 		.4byte	.LFE31
 5911 0158 00000000 		.4byte	.LFB32
 5912 015c 0E000000 		.4byte	.LFE32
 5913 0160 00000000 		.4byte	.LFB33
 5914 0164 0C000000 		.4byte	.LFE33
 5915 0168 00000000 		.4byte	.LFB34
 5916 016c 10000000 		.4byte	.LFE34
 5917 0170 00000000 		.4byte	.LFB35
 5918 0174 10000000 		.4byte	.LFE35
 5919 0178 00000000 		.4byte	.LFB36
 5920 017c 34000000 		.4byte	.LFE36
 5921 0180 00000000 		.4byte	.LFB37
 5922 0184 20000000 		.4byte	.LFE37
 5923 0188 00000000 		.4byte	.LFB38
 5924 018c 14000000 		.4byte	.LFE38
 5925 0190 00000000 		.4byte	.LFB39
 5926 0194 18000000 		.4byte	.LFE39
 5927 0198 00000000 		.4byte	.LFB40
 5928 019c 14000000 		.4byte	.LFE40
 5929 01a0 00000000 		.4byte	.LFB41
 5930 01a4 14000000 		.4byte	.LFE41
 5931 01a8 00000000 		.4byte	.LFB42
 5932 01ac 14000000 		.4byte	.LFE42
 5933 01b0 00000000 		.4byte	.LFB43
 5934 01b4 04000000 		.4byte	.LFE43
 5935 01b8 00000000 		.4byte	.LFB44
 5936 01bc 18000000 		.4byte	.LFE44
ARM GAS  C:\Users\CHUCK~1.ERH\AppData\Local\Temp\ccGtqbdp.s 			page 142


 5937 01c0 00000000 		.4byte	.LFB45
 5938 01c4 2C000000 		.4byte	.LFE45
 5939 01c8 00000000 		.4byte	.LFB46
 5940 01cc 14000000 		.4byte	.LFE46
 5941 01d0 00000000 		.4byte	.LFB18
 5942 01d4 3C000000 		.4byte	.LFE18
 5943 01d8 00000000 		.4byte	.LFB6
 5944 01dc 38010000 		.4byte	.LFE6
 5945 01e0 00000000 		.4byte	.LFB47
 5946 01e4 48000000 		.4byte	.LFE47
 5947 01e8 00000000 		.4byte	0
 5948 01ec 00000000 		.4byte	0
 5949              		.section	.debug_line,"",%progbits
 5950              	.Ldebug_line0:
 5951 0000 08050000 		.section	.debug_str,"MS",%progbits,1
 5951      02004F00 
 5951      00000201 
 5951      FB0E0D00 
 5951      01010101 
 5952              	.LASF30:
 5953 0000 43795379 		.ascii	"CySysWdtWriteMode\000"
 5953      73576474 
 5953      57726974 
 5953      654D6F64 
 5953      6500
 5954              	.LASF94:
 5955 0012 62675472 		.ascii	"bgTrim4\000"
 5955      696D3400 
 5956              	.LASF10:
 5957 001a 75696E74 		.ascii	"uint16\000"
 5957      313600
 5958              	.LASF62:
 5959 0021 696E7453 		.ascii	"intState\000"
 5959      74617465 
 5959      00
 5960              	.LASF76:
 5961 002a 76616C75 		.ascii	"value\000"
 5961      6500
 5962              	.LASF23:
 5963 0030 43795379 		.ascii	"CySysClkWriteHfclkDirect\000"
 5963      73436C6B 
 5963      57726974 
 5963      65486663 
 5963      6C6B4469 
 5964              	.LASF28:
 5965 0049 43795379 		.ascii	"CySysWdtUnlock\000"
 5965      73576474 
 5965      556E6C6F 
 5965      636B00
 5966              	.LASF68:
 5967 0058 6F6C6449 		.ascii	"oldIsr\000"
 5967      737200
 5968              	.LASF105:
 5969 005f 433A5C55 		.ascii	"C:\\Users\\chuck.erhardt\\Documents\\GitHub\\PSoC-W"
 5969      73657273 
 5969      5C636875 
 5969      636B2E65 
ARM GAS  C:\Users\CHUCK~1.ERH\AppData\Local\Temp\ccGtqbdp.s 			page 143


 5969      72686172 
 5970 008d 35313030 		.ascii	"5100-Driver\\PSoCPioneer+ArduinoShield_Example.cyds"
 5970      2D447269 
 5970      7665725C 
 5970      50536F43 
 5970      50696F6E 
 5971 00bf 6E00     		.ascii	"n\000"
 5972              	.LASF31:
 5973 00c1 636F756E 		.ascii	"counterNum\000"
 5973      7465724E 
 5973      756D00
 5974              	.LASF61:
 5975 00cc 43794469 		.ascii	"CyDisableInts\000"
 5975      7361626C 
 5975      65496E74 
 5975      7300
 5976              	.LASF102:
 5977 00da 63796465 		.ascii	"cydelay32kMs\000"
 5977      6C617933 
 5977      326B4D73 
 5977      00
 5978              	.LASF7:
 5979 00e7 6C6F6E67 		.ascii	"long long unsigned int\000"
 5979      206C6F6E 
 5979      6720756E 
 5979      7369676E 
 5979      65642069 
 5980              	.LASF63:
 5981 00fe 4379456E 		.ascii	"CyEnableInts\000"
 5981      61626C65 
 5981      496E7473 
 5981      00
 5982              	.LASF85:
 5983 010b 4379536F 		.ascii	"CySoftwareReset\000"
 5983      66747761 
 5983      72655265 
 5983      73657400 
 5984              	.LASF79:
 5985 011b 4379496E 		.ascii	"CyIntGetState\000"
 5985      74476574 
 5985      53746174 
 5985      6500
 5986              	.LASF6:
 5987 0129 6C6F6E67 		.ascii	"long long int\000"
 5987      206C6F6E 
 5987      6720696E 
 5987      7400
 5988              	.LASF0:
 5989 0137 7369676E 		.ascii	"signed char\000"
 5989      65642063 
 5989      68617200 
 5990              	.LASF36:
 5991 0143 43795379 		.ascii	"CySysWdtReadMode\000"
 5991      73576474 
 5991      52656164 
 5991      4D6F6465 
 5991      00
ARM GAS  C:\Users\CHUCK~1.ERH\AppData\Local\Temp\ccGtqbdp.s 			page 144


 5992              	.LASF49:
 5993 0154 43795379 		.ascii	"CySysWdtReadCount\000"
 5993      73576474 
 5993      52656164 
 5993      436F756E 
 5993      7400
 5994              	.LASF98:
 5995 0166 43794465 		.ascii	"CyDelayFreq\000"
 5995      6C617946 
 5995      72657100 
 5996              	.LASF27:
 5997 0172 43795379 		.ascii	"CySysWdtLock\000"
 5997      73576474 
 5997      4C6F636B 
 5997      00
 5998              	.LASF88:
 5999 017f 43794465 		.ascii	"CyDelayUs\000"
 5999      6C617955 
 5999      7300
 6000              	.LASF90:
 6001 0189 43795379 		.ascii	"CySysWdtWriteMatch\000"
 6001      73576474 
 6001      57726974 
 6001      654D6174 
 6001      636800
 6002              	.LASF45:
 6003 019c 62697473 		.ascii	"bits\000"
 6003      00
 6004              	.LASF4:
 6005 01a1 6C6F6E67 		.ascii	"long int\000"
 6005      20696E74 
 6005      00
 6006              	.LASF80:
 6007 01aa 4379496E 		.ascii	"CyIntDisable\000"
 6007      74446973 
 6007      61626C65 
 6007      00
 6008              	.LASF9:
 6009 01b7 75696E74 		.ascii	"uint8\000"
 6009      3800
 6010              	.LASF100:
 6011 01bd 63796465 		.ascii	"cydelayFreqKhz\000"
 6011      6C617946 
 6011      7265714B 
 6011      687A00
 6012              	.LASF35:
 6013 01cc 656E6162 		.ascii	"enable\000"
 6013      6C6500
 6014              	.LASF13:
 6015 01d3 646F7562 		.ascii	"double\000"
 6015      6C6500
 6016              	.LASF22:
 6017 01da 43795379 		.ascii	"CySysClkIloStop\000"
 6017      73436C6B 
 6017      496C6F53 
 6017      746F7000 
 6018              	.LASF41:
ARM GAS  C:\Users\CHUCK~1.ERH\AppData\Local\Temp\ccGtqbdp.s 			page 145


 6019 01ea 43795379 		.ascii	"CySysWdtWriteCascade\000"
 6019      73576474 
 6019      57726974 
 6019      65436173 
 6019      63616465 
 6020              	.LASF75:
 6021 01ff 73686966 		.ascii	"shift\000"
 6021      7400
 6022              	.LASF55:
 6023 0205 636F756E 		.ascii	"countersMask\000"
 6023      74657273 
 6023      4D61736B 
 6023      00
 6024              	.LASF60:
 6025 0212 43795379 		.ascii	"CySysLvdClearInterrupt\000"
 6025      734C7664 
 6025      436C6561 
 6025      72496E74 
 6025      65727275 
 6026              	.LASF11:
 6027 0229 75696E74 		.ascii	"uint32\000"
 6027      333200
 6028              	.LASF109:
 6029 0230 43794465 		.ascii	"CyDelayCycles\000"
 6029      6C617943 
 6029      79636C65 
 6029      7300
 6030              	.LASF66:
 6031 023e 6E756D62 		.ascii	"number\000"
 6031      657200
 6032              	.LASF64:
 6033 0245 6D61736B 		.ascii	"mask\000"
 6033      00
 6034              	.LASF50:
 6035 024a 72656756 		.ascii	"regValue\000"
 6035      616C7565 
 6035      00
 6036              	.LASF56:
 6037 0253 43795379 		.ascii	"CySysLvdEnable\000"
 6037      734C7664 
 6037      456E6162 
 6037      6C6500
 6038              	.LASF77:
 6039 0262 4379496E 		.ascii	"CyIntGetPriority\000"
 6039      74476574 
 6039      5072696F 
 6039      72697479 
 6039      00
 6040              	.LASF43:
 6041 0273 636F756E 		.ascii	"countersEnableStatus\000"
 6041      74657273 
 6041      456E6162 
 6041      6C655374 
 6041      61747573 
 6042              	.LASF38:
 6043 0288 43795379 		.ascii	"CySysWdtEnable\000"
 6043      73576474 
ARM GAS  C:\Users\CHUCK~1.ERH\AppData\Local\Temp\ccGtqbdp.s 			page 146


 6043      456E6162 
 6043      6C6500
 6044              	.LASF39:
 6045 0297 636F756E 		.ascii	"counterMask\000"
 6045      7465724D 
 6045      61736B00 
 6046              	.LASF8:
 6047 02a3 756E7369 		.ascii	"unsigned int\000"
 6047      676E6564 
 6047      20696E74 
 6047      00
 6048              	.LASF5:
 6049 02b0 6C6F6E67 		.ascii	"long unsigned int\000"
 6049      20756E73 
 6049      69676E65 
 6049      6420696E 
 6049      7400
 6050              	.LASF59:
 6051 02c2 43795379 		.ascii	"CySysLvdGetInterruptSource\000"
 6051      734C7664 
 6051      47657449 
 6051      6E746572 
 6051      72757074 
 6052              	.LASF29:
 6053 02dd 696E7465 		.ascii	"interruptState\000"
 6053      72727570 
 6053      74537461 
 6053      746500
 6054              	.LASF20:
 6055 02ec 43795379 		.ascii	"CySysClkImoStop\000"
 6055      73436C6B 
 6055      496D6F53 
 6055      746F7000 
 6056              	.LASF107:
 6057 02fc 4379456E 		.ascii	"CyEnterCriticalSection\000"
 6057      74657243 
 6057      72697469 
 6057      63616C53 
 6057      65637469 
 6058              	.LASF81:
 6059 0313 4379496E 		.ascii	"CyIntSetPending\000"
 6059      74536574 
 6059      50656E64 
 6059      696E6700 
 6060              	.LASF3:
 6061 0323 73686F72 		.ascii	"short unsigned int\000"
 6061      7420756E 
 6061      7369676E 
 6061      65642069 
 6061      6E7400
 6062              	.LASF71:
 6063 0336 4379496E 		.ascii	"CyIntSetVector\000"
 6063      74536574 
 6063      56656374 
 6063      6F7200
 6064              	.LASF104:
 6065 0345 2E5C4765 		.ascii	".\\Generated_Source\\PSoC4\\CyLib.c\000"
ARM GAS  C:\Users\CHUCK~1.ERH\AppData\Local\Temp\ccGtqbdp.s 			page 147


 6065      6E657261 
 6065      7465645F 
 6065      536F7572 
 6065      63655C50 
 6066              	.LASF21:
 6067 0366 43795379 		.ascii	"CySysClkIloStart\000"
 6067      73436C6B 
 6067      496C6F53 
 6067      74617274 
 6067      00
 6068              	.LASF92:
 6069 0377 43795379 		.ascii	"CySysClkWriteImoFreq\000"
 6069      73436C6B 
 6069      57726974 
 6069      65496D6F 
 6069      46726571 
 6070              	.LASF65:
 6071 038c 4379496E 		.ascii	"CyIntSetSysVector\000"
 6071      74536574 
 6071      53797356 
 6071      6563746F 
 6071      7200
 6072              	.LASF16:
 6073 039e 72656733 		.ascii	"reg32\000"
 6073      3200
 6074              	.LASF34:
 6075 03a4 43795379 		.ascii	"CySysWdtWriteClearOnMatch\000"
 6075      73576474 
 6075      57726974 
 6075      65436C65 
 6075      61724F6E 
 6076              	.LASF37:
 6077 03be 43795379 		.ascii	"CySysWdtReadClearOnMatch\000"
 6077      73576474 
 6077      52656164 
 6077      436C6561 
 6077      724F6E4D 
 6078              	.LASF18:
 6079 03d7 73697A65 		.ascii	"sizetype\000"
 6079      74797065 
 6079      00
 6080              	.LASF82:
 6081 03e0 4379496E 		.ascii	"CyIntClearPending\000"
 6081      74436C65 
 6081      61725065 
 6081      6E64696E 
 6081      6700
 6082              	.LASF67:
 6083 03f2 61646472 		.ascii	"address\000"
 6083      65737300 
 6084              	.LASF95:
 6085 03fa 62675472 		.ascii	"bgTrim5\000"
 6085      696D3500 
 6086              	.LASF91:
 6087 0402 6D617463 		.ascii	"match\000"
 6087      6800
 6088              	.LASF97:
ARM GAS  C:\Users\CHUCK~1.ERH\AppData\Local\Temp\ccGtqbdp.s 			page 148


 6089 0408 6379496D 		.ascii	"cyImoFreqMhz2Reg\000"
 6089      6F467265 
 6089      714D687A 
 6089      32526567 
 6089      00
 6090              	.LASF99:
 6091 0419 63796465 		.ascii	"cydelayFreqHz\000"
 6091      6C617946 
 6091      72657148 
 6091      7A00
 6092              	.LASF54:
 6093 0427 43795379 		.ascii	"CySysWdtResetCounters\000"
 6093      73576474 
 6093      52657365 
 6093      74436F75 
 6093      6E746572 
 6094              	.LASF73:
 6095 043d 4379496E 		.ascii	"CyIntSetPriority\000"
 6095      74536574 
 6095      5072696F 
 6095      72697479 
 6095      00
 6096              	.LASF52:
 6097 044e 43795379 		.ascii	"CySysWdtClearInterrupt\000"
 6097      73576474 
 6097      436C6561 
 6097      72496E74 
 6097      65727275 
 6098              	.LASF12:
 6099 0465 666C6F61 		.ascii	"float\000"
 6099      7400
 6100              	.LASF108:
 6101 046b 43794578 		.ascii	"CyExitCriticalSection\000"
 6101      69744372 
 6101      69746963 
 6101      616C5365 
 6101      6374696F 
 6102              	.LASF93:
 6103 0481 66726571 		.ascii	"freq\000"
 6103      00
 6104              	.LASF72:
 6105 0486 4379496E 		.ascii	"CyIntGetVector\000"
 6105      74476574 
 6105      56656374 
 6105      6F7200
 6106              	.LASF87:
 6107 0495 6D696C6C 		.ascii	"milliseconds\000"
 6107      69736563 
 6107      6F6E6473 
 6107      00
 6108              	.LASF47:
 6109 04a2 43795379 		.ascii	"CySysWdtReadToggleBit\000"
 6109      73576474 
 6109      52656164 
 6109      546F6767 
 6109      6C654269 
 6110              	.LASF103:
ARM GAS  C:\Users\CHUCK~1.ERH\AppData\Local\Temp\ccGtqbdp.s 			page 149


 6111 04b8 474E5520 		.ascii	"GNU C 4.7.3 20130312 (release) [ARM/embedded-4_7-br"
 6111      4320342E 
 6111      372E3320 
 6111      32303133 
 6111      30333132 
 6112 04eb 616E6368 		.ascii	"anch revision 196615]\000"
 6112      20726576 
 6112      6973696F 
 6112      6E203139 
 6112      36363135 
 6113              	.LASF15:
 6114 0501 72656738 		.ascii	"reg8\000"
 6114      00
 6115              	.LASF57:
 6116 0506 74687265 		.ascii	"threshold\000"
 6116      73686F6C 
 6116      6400
 6117              	.LASF83:
 6118 0510 43794861 		.ascii	"CyHalt\000"
 6118      6C7400
 6119              	.LASF1:
 6120 0517 756E7369 		.ascii	"unsigned char\000"
 6120      676E6564 
 6120      20636861 
 6120      7200
 6121              	.LASF2:
 6122 0525 73686F72 		.ascii	"short int\000"
 6122      7420696E 
 6122      7400
 6123              	.LASF46:
 6124 052f 43795379 		.ascii	"CySysWdtReadCascade\000"
 6124      73576474 
 6124      52656164 
 6124      43617363 
 6124      61646500 
 6125              	.LASF40:
 6126 0543 43795379 		.ascii	"CySysWdtDisable\000"
 6126      73576474 
 6126      44697361 
 6126      626C6500 
 6127              	.LASF78:
 6128 0553 4379496E 		.ascii	"CyIntEnable\000"
 6128      74456E61 
 6128      626C6500 
 6129              	.LASF70:
 6130 055f 4379496E 		.ascii	"CyIntGetSysVector\000"
 6130      74476574 
 6130      53797356 
 6130      6563746F 
 6130      7200
 6131              	.LASF48:
 6132 0571 43795379 		.ascii	"CySysWdtReadMatch\000"
 6132      73576474 
 6132      52656164 
 6132      4D617463 
 6132      6800
 6133              	.LASF25:
ARM GAS  C:\Users\CHUCK~1.ERH\AppData\Local\Temp\ccGtqbdp.s 			page 150


 6134 0583 636C6B53 		.ascii	"clkSelect\000"
 6134      656C6563 
 6134      7400
 6135              	.LASF51:
 6136 058d 43795379 		.ascii	"CySysWdtGetInterruptSource\000"
 6136      73576474 
 6136      47657449 
 6136      6E746572 
 6136      72757074 
 6137              	.LASF84:
 6138 05a8 72656173 		.ascii	"reason\000"
 6138      6F6E00
 6139              	.LASF69:
 6140 05af 72616D56 		.ascii	"ramVectorTable\000"
 6140      6563746F 
 6140      72546162 
 6140      6C6500
 6141              	.LASF14:
 6142 05be 63686172 		.ascii	"char\000"
 6142      00
 6143              	.LASF74:
 6144 05c3 7072696F 		.ascii	"priority\000"
 6144      72697479 
 6144      00
 6145              	.LASF32:
 6146 05cc 6D6F6465 		.ascii	"mode\000"
 6146      00
 6147              	.LASF17:
 6148 05d1 63796973 		.ascii	"cyisraddress\000"
 6148      72616464 
 6148      72657373 
 6148      00
 6149              	.LASF96:
 6150 05de 63757272 		.ascii	"currentFreq\000"
 6150      656E7446 
 6150      72657100 
 6151              	.LASF24:
 6152 05ea 43795379 		.ascii	"CySysClkWriteSysclkDiv\000"
 6152      73436C6B 
 6152      57726974 
 6152      65537973 
 6152      636C6B44 
 6153              	.LASF86:
 6154 0601 43794465 		.ascii	"CyDelay\000"
 6154      6C617900 
 6155              	.LASF58:
 6156 0609 43795379 		.ascii	"CySysLvdDisable\000"
 6156      734C7664 
 6156      44697361 
 6156      626C6500 
 6157              	.LASF33:
 6158 0619 636F6E66 		.ascii	"configRegValue\000"
 6158      69675265 
 6158      6756616C 
 6158      756500
 6159              	.LASF101:
 6160 0628 63796465 		.ascii	"cydelayFreqMhz\000"
ARM GAS  C:\Users\CHUCK~1.ERH\AppData\Local\Temp\ccGtqbdp.s 			page 151


 6160      6C617946 
 6160      7265714D 
 6160      687A00
 6161              	.LASF53:
 6162 0637 7764744C 		.ascii	"wdtLockState\000"
 6162      6F636B53 
 6162      74617465 
 6162      00
 6163              	.LASF42:
 6164 0644 63617363 		.ascii	"cascadeMask\000"
 6164      6164654D 
 6164      61736B00 
 6165              	.LASF26:
 6166 0650 64697669 		.ascii	"divider\000"
 6166      64657200 
 6167              	.LASF19:
 6168 0658 43795379 		.ascii	"CySysClkImoStart\000"
 6168      73436C6B 
 6168      496D6F53 
 6168      74617274 
 6168      00
 6169              	.LASF106:
 6170 0669 43795379 		.ascii	"CySysWdtReadEnabledStatus\000"
 6170      73576474 
 6170      52656164 
 6170      456E6162 
 6170      6C656453 
 6171              	.LASF89:
 6172 0683 6D696372 		.ascii	"microseconds\000"
 6172      6F736563 
 6172      6F6E6473 
 6172      00
 6173              	.LASF44:
 6174 0690 43795379 		.ascii	"CySysWdtWriteToggleBit\000"
 6174      73576474 
 6174      57726974 
 6174      65546F67 
 6174      676C6542 
 6175              		.ident	"GCC: (GNU Tools for ARM Embedded Processors) 4.7.3 20130312 (release) [ARM/embedded-4_7-br
