ARM GAS  C:\Users\CHUCK~1.ERH\AppData\Local\Temp\cc7afQgf.s 			page 1


   1              		.cpu cortex-m0
   2              		.fpu softvfp
   3              		.eabi_attribute 20, 1
   4              		.eabi_attribute 21, 1
   5              		.eabi_attribute 23, 3
   6              		.eabi_attribute 24, 1
   7              		.eabi_attribute 25, 1
   8              		.eabi_attribute 26, 1
   9              		.eabi_attribute 30, 4
  10              		.eabi_attribute 34, 0
  11              		.eabi_attribute 18, 4
  12              		.code	16
  13              		.file	"cyPm.c"
  14              		.text
  15              	.Ltext0:
  16              		.cfi_sections	.debug_frame
  17              		.section	.text.CySysPmSleep,"ax",%progbits
  18              		.align	1
  19              		.global	CySysPmSleep
  20              		.code	16
  21              		.thumb_func
  22              		.type	CySysPmSleep, %function
  23              	CySysPmSleep:
  24              	.LFB0:
  25              		.file 1 ".\\Generated_Source\\PSoC4\\cyPm.c"
   1:.\Generated_Source\PSoC4/cyPm.c **** /*******************************************************************************
   2:.\Generated_Source\PSoC4/cyPm.c **** * File Name: cyPm.c
   3:.\Generated_Source\PSoC4/cyPm.c **** * Version 4.0
   4:.\Generated_Source\PSoC4/cyPm.c **** *
   5:.\Generated_Source\PSoC4/cyPm.c **** *  Description:
   6:.\Generated_Source\PSoC4/cyPm.c **** *   Provides an API for the power management.
   7:.\Generated_Source\PSoC4/cyPm.c **** *
   8:.\Generated_Source\PSoC4/cyPm.c **** *  Note:
   9:.\Generated_Source\PSoC4/cyPm.c **** *   Documentation of the API's in this file is located in the
  10:.\Generated_Source\PSoC4/cyPm.c **** *   System Reference Guide provided with PSoC Creator.
  11:.\Generated_Source\PSoC4/cyPm.c **** *
  12:.\Generated_Source\PSoC4/cyPm.c **** ********************************************************************************
  13:.\Generated_Source\PSoC4/cyPm.c **** * Copyright 2011-2013, Cypress Semiconductor Corporation.  All rights reserved.
  14:.\Generated_Source\PSoC4/cyPm.c **** * You may use this file only in accordance with the license, terms, conditions,
  15:.\Generated_Source\PSoC4/cyPm.c **** * disclaimers, and limitations in the end user license agreement accompanying
  16:.\Generated_Source\PSoC4/cyPm.c **** * the software package with which this file was provided.
  17:.\Generated_Source\PSoC4/cyPm.c **** *******************************************************************************/
  18:.\Generated_Source\PSoC4/cyPm.c **** 
  19:.\Generated_Source\PSoC4/cyPm.c **** #include "cyPm.h"
  20:.\Generated_Source\PSoC4/cyPm.c **** #include "CyLib.h"
  21:.\Generated_Source\PSoC4/cyPm.c **** 
  22:.\Generated_Source\PSoC4/cyPm.c **** 
  23:.\Generated_Source\PSoC4/cyPm.c **** /*******************************************************************************
  24:.\Generated_Source\PSoC4/cyPm.c **** * Function Name: CySysPmSleep
  25:.\Generated_Source\PSoC4/cyPm.c **** ********************************************************************************
  26:.\Generated_Source\PSoC4/cyPm.c **** *
  27:.\Generated_Source\PSoC4/cyPm.c **** * Summary:
  28:.\Generated_Source\PSoC4/cyPm.c **** *  Puts the part into the Sleep state. This is a CPU-centric power mode.
  29:.\Generated_Source\PSoC4/cyPm.c **** *  It means that the CPU has indicated that it is in sleep mode and
  30:.\Generated_Source\PSoC4/cyPm.c **** *  its main clock can be removed. It is identical to Active from a peripheral
  31:.\Generated_Source\PSoC4/cyPm.c **** *  point of view. Any enabled interrupts can cause wakeup from a Sleep mode.
  32:.\Generated_Source\PSoC4/cyPm.c **** *
ARM GAS  C:\Users\CHUCK~1.ERH\AppData\Local\Temp\cc7afQgf.s 			page 2


  33:.\Generated_Source\PSoC4/cyPm.c **** * Parameters:
  34:.\Generated_Source\PSoC4/cyPm.c **** *  None
  35:.\Generated_Source\PSoC4/cyPm.c **** *
  36:.\Generated_Source\PSoC4/cyPm.c **** * Return:
  37:.\Generated_Source\PSoC4/cyPm.c **** *  None
  38:.\Generated_Source\PSoC4/cyPm.c **** *
  39:.\Generated_Source\PSoC4/cyPm.c **** *******************************************************************************/
  40:.\Generated_Source\PSoC4/cyPm.c **** void CySysPmSleep(void)
  41:.\Generated_Source\PSoC4/cyPm.c **** {
  26              		.loc 1 41 0
  27              		.cfi_startproc
  28 0000 08B5     		push	{r3, lr}
  29              	.LCFI0:
  30              		.cfi_def_cfa_offset 8
  31              		.cfi_offset 3, -8
  32              		.cfi_offset 14, -4
  42:.\Generated_Source\PSoC4/cyPm.c ****     uint8 interruptState;
  43:.\Generated_Source\PSoC4/cyPm.c **** 
  44:.\Generated_Source\PSoC4/cyPm.c ****     interruptState = CyEnterCriticalSection();
  33              		.loc 1 44 0
  34 0002 FFF7FEFF 		bl	CyEnterCriticalSection
  35              	.LVL0:
  45:.\Generated_Source\PSoC4/cyPm.c **** 
  46:.\Generated_Source\PSoC4/cyPm.c ****     /* CM0 enters Sleep mode upon execution of WFI */
  47:.\Generated_Source\PSoC4/cyPm.c ****     CY_PM_CM0_SCR_REG &= (uint32) (~CY_PM_CM0_SCR_SLEEPDEEP);
  36              		.loc 1 47 0
  37 0006 044B     		ldr	r3, .L2
  38 0008 0421     		mov	r1, #4
  39 000a 1A68     		ldr	r2, [r3]
  40 000c 8A43     		bic	r2, r1
  41 000e 1A60     		str	r2, [r3]
  48:.\Generated_Source\PSoC4/cyPm.c **** 
  49:.\Generated_Source\PSoC4/cyPm.c ****     /* Sleep and wait for interrupt */
  50:.\Generated_Source\PSoC4/cyPm.c ****     CY_PM_WFI;
  42              		.loc 1 50 0
  43              	@ 50 ".\Generated_Source\PSoC4\cyPm.c" 1
  44 0010 30BF     		WFI 
  45              	
  46              	@ 0 "" 2
  51:.\Generated_Source\PSoC4/cyPm.c **** 
  52:.\Generated_Source\PSoC4/cyPm.c ****     CyExitCriticalSection(interruptState);
  47              		.loc 1 52 0
  48              		.code	16
  49 0012 FFF7FEFF 		bl	CyExitCriticalSection
  50              	.LVL1:
  53:.\Generated_Source\PSoC4/cyPm.c **** }
  51              		.loc 1 53 0
  52              		@ sp needed for prologue
  53 0016 08BD     		pop	{r3, pc}
  54              	.L3:
  55              		.align	2
  56              	.L2:
  57 0018 10ED00E0 		.word	-536810224
  58              		.cfi_endproc
  59              	.LFE0:
  60              		.size	CySysPmSleep, .-CySysPmSleep
  61              		.section	.text.CySysPmDeepSleep,"ax",%progbits
ARM GAS  C:\Users\CHUCK~1.ERH\AppData\Local\Temp\cc7afQgf.s 			page 3


  62              		.align	1
  63              		.global	CySysPmDeepSleep
  64              		.code	16
  65              		.thumb_func
  66              		.type	CySysPmDeepSleep, %function
  67              	CySysPmDeepSleep:
  68              	.LFB1:
  54:.\Generated_Source\PSoC4/cyPm.c **** 
  55:.\Generated_Source\PSoC4/cyPm.c **** 
  56:.\Generated_Source\PSoC4/cyPm.c **** /*******************************************************************************
  57:.\Generated_Source\PSoC4/cyPm.c **** * Function Name: CySysPmDeepSleep
  58:.\Generated_Source\PSoC4/cyPm.c **** ********************************************************************************
  59:.\Generated_Source\PSoC4/cyPm.c **** *
  60:.\Generated_Source\PSoC4/cyPm.c **** * Summary:
  61:.\Generated_Source\PSoC4/cyPm.c **** *  Puts the part into the Deep Sleep state. If firmware attempts to enter this
  62:.\Generated_Source\PSoC4/cyPm.c **** *  mode before the system is ready (that is, when PWR_CONTROL.LPM_READY = 0),
  63:.\Generated_Source\PSoC4/cyPm.c **** *  then the device will go into Sleep mode instead and automatically enter
  64:.\Generated_Source\PSoC4/cyPm.c **** *  the originally intended mode when the holdoff expires.
  65:.\Generated_Source\PSoC4/cyPm.c **** *
  66:.\Generated_Source\PSoC4/cyPm.c **** *  The wakeup occurs when an interrupt is received from a DeepSleep or
  67:.\Generated_Source\PSoC4/cyPm.c **** *  Hibernate peripheral. For more details, see corresponding
  68:.\Generated_Source\PSoC4/cyPm.c **** *  peripheral's datasheet.
  69:.\Generated_Source\PSoC4/cyPm.c **** *
  70:.\Generated_Source\PSoC4/cyPm.c **** * Parameters:
  71:.\Generated_Source\PSoC4/cyPm.c **** *  None
  72:.\Generated_Source\PSoC4/cyPm.c **** *
  73:.\Generated_Source\PSoC4/cyPm.c **** * Return:
  74:.\Generated_Source\PSoC4/cyPm.c **** *  None
  75:.\Generated_Source\PSoC4/cyPm.c **** *
  76:.\Generated_Source\PSoC4/cyPm.c **** *******************************************************************************/
  77:.\Generated_Source\PSoC4/cyPm.c **** void CySysPmDeepSleep(void)
  78:.\Generated_Source\PSoC4/cyPm.c **** {
  69              		.loc 1 78 0
  70              		.cfi_startproc
  71 0000 37B5     		push	{r0, r1, r2, r4, r5, lr}
  72              	.LCFI1:
  73              		.cfi_def_cfa_offset 24
  74              		.cfi_offset 0, -24
  75              		.cfi_offset 1, -20
  76              		.cfi_offset 2, -16
  77              		.cfi_offset 4, -12
  78              		.cfi_offset 5, -8
  79              		.cfi_offset 14, -4
  79:.\Generated_Source\PSoC4/cyPm.c ****     uint8 interruptState;
  80:.\Generated_Source\PSoC4/cyPm.c ****     #if(CY_PSOC4A)
  81:.\Generated_Source\PSoC4/cyPm.c ****         volatile uint32 clkSelectReg;
  82:.\Generated_Source\PSoC4/cyPm.c ****     #endif /* (CY_PSOC4A) */
  83:.\Generated_Source\PSoC4/cyPm.c **** 
  84:.\Generated_Source\PSoC4/cyPm.c ****     interruptState = CyEnterCriticalSection();
  80              		.loc 1 84 0
  81 0002 FFF7FEFF 		bl	CyEnterCriticalSection
  82              	.LVL2:
  85:.\Generated_Source\PSoC4/cyPm.c **** 
  86:.\Generated_Source\PSoC4/cyPm.c ****     #if(CY_PSOC4A)
  87:.\Generated_Source\PSoC4/cyPm.c ****         /* Device enters DeepSleep mode when CPU asserts SLEEPDEEP signal */
  88:.\Generated_Source\PSoC4/cyPm.c ****         CY_PM_PWR_CONTROL_REG &= (uint32) (~CY_PM_PWR_CONTROL_HIBERNATE);
  83              		.loc 1 88 0
ARM GAS  C:\Users\CHUCK~1.ERH\AppData\Local\Temp\cc7afQgf.s 			page 4


  84 0006 0E4B     		ldr	r3, .L5
  84:.\Generated_Source\PSoC4/cyPm.c ****     interruptState = CyEnterCriticalSection();
  85              		.loc 1 84 0
  86 0008 051C     		mov	r5, r0
  87              	.LVL3:
  88              		.loc 1 88 0
  89 000a 1A68     		ldr	r2, [r3]
  89:.\Generated_Source\PSoC4/cyPm.c ****     #endif /* (CY_PSOC4A) */
  90:.\Generated_Source\PSoC4/cyPm.c **** 
  91:.\Generated_Source\PSoC4/cyPm.c ****     /* Adjust delay to wait for references to settle on wakeup from deepsleep */
  92:.\Generated_Source\PSoC4/cyPm.c ****     CY_PM_PWR_KEY_DELAY_REG = CY_SFLASH_DPSLP_KEY_DELAY_REG;
  90              		.loc 1 92 0
  91 000c 0D4C     		ldr	r4, .L5+4
  88:.\Generated_Source\PSoC4/cyPm.c ****         CY_PM_PWR_CONTROL_REG &= (uint32) (~CY_PM_PWR_CONTROL_HIBERNATE);
  92              		.loc 1 88 0
  93 000e 5000     		lsl	r0, r2, #1
  94              	.LVL4:
  95 0010 4108     		lsr	r1, r0, #1
  96 0012 1960     		str	r1, [r3]
  97              		.loc 1 92 0
  98 0014 2288     		ldrh	r2, [r4]
  99 0016 0C4B     		ldr	r3, .L5+8
  93:.\Generated_Source\PSoC4/cyPm.c **** 
  94:.\Generated_Source\PSoC4/cyPm.c ****     /* CM0 enters DeepSleep/Hibernate mode upon execution of WFI */
  95:.\Generated_Source\PSoC4/cyPm.c ****     CY_PM_CM0_SCR_REG |= CY_PM_CM0_SCR_SLEEPDEEP;
 100              		.loc 1 95 0
 101 0018 0C48     		ldr	r0, .L5+12
  92:.\Generated_Source\PSoC4/cyPm.c ****     CY_PM_PWR_KEY_DELAY_REG = CY_SFLASH_DPSLP_KEY_DELAY_REG;
 102              		.loc 1 92 0
 103 001a 1A60     		str	r2, [r3]
 104              		.loc 1 95 0
 105 001c 0468     		ldr	r4, [r0]
 106 001e 0421     		mov	r1, #4
 107 0020 0C43     		orr	r4, r1
 108 0022 0460     		str	r4, [r0]
  96:.\Generated_Source\PSoC4/cyPm.c ****     
  97:.\Generated_Source\PSoC4/cyPm.c ****     #if(CY_PSOC4A)
  98:.\Generated_Source\PSoC4/cyPm.c ****         /* Preserve system clock configuration and 
  99:.\Generated_Source\PSoC4/cyPm.c ****         * reduce sysclk to <=24 MHz (Cypress ID #158710).
 100:.\Generated_Source\PSoC4/cyPm.c ****         */
 101:.\Generated_Source\PSoC4/cyPm.c ****         clkSelectReg = CY_SYS_CLK_SELECT_REG;
 109              		.loc 1 101 0
 110 0024 0A4C     		ldr	r4, .L5+16
 102:.\Generated_Source\PSoC4/cyPm.c ****         CySysClkWriteSysclkDiv(CY_SYS_CLK_SYSCLK_DIV2);
 111              		.loc 1 102 0
 112 0026 0120     		mov	r0, #1
 101:.\Generated_Source\PSoC4/cyPm.c ****         clkSelectReg = CY_SYS_CLK_SELECT_REG;
 113              		.loc 1 101 0
 114 0028 2268     		ldr	r2, [r4]
 115              	.LVL5:
 116 002a 0192     		str	r2, [sp, #4]
 117              		.loc 1 102 0
 118 002c FFF7FEFF 		bl	CySysClkWriteSysclkDiv
 119              	.LVL6:
 103:.\Generated_Source\PSoC4/cyPm.c ****     #endif /* (CY_PSOC4A) */
 104:.\Generated_Source\PSoC4/cyPm.c **** 
 105:.\Generated_Source\PSoC4/cyPm.c ****     /* Sleep and wait for interrupt */
ARM GAS  C:\Users\CHUCK~1.ERH\AppData\Local\Temp\cc7afQgf.s 			page 5


 106:.\Generated_Source\PSoC4/cyPm.c ****     CY_PM_WFI;
 120              		.loc 1 106 0
 121              	@ 106 ".\Generated_Source\PSoC4\cyPm.c" 1
 122 0030 30BF     		WFI 
 123              	
 124              	@ 0 "" 2
 107:.\Generated_Source\PSoC4/cyPm.c **** 
 108:.\Generated_Source\PSoC4/cyPm.c ****     #if(CY_PSOC4A)
 109:.\Generated_Source\PSoC4/cyPm.c ****         /* Restore system clock configuration */
 110:.\Generated_Source\PSoC4/cyPm.c ****         CY_SYS_CLK_SELECT_REG = clkSelectReg;
 125              		.loc 1 110 0
 126              		.code	16
 127 0032 019B     		ldr	r3, [sp, #4]
 111:.\Generated_Source\PSoC4/cyPm.c ****     #endif /* (CY_PSOC4A) */
 112:.\Generated_Source\PSoC4/cyPm.c **** 
 113:.\Generated_Source\PSoC4/cyPm.c ****     CyExitCriticalSection(interruptState);
 128              		.loc 1 113 0
 129 0034 281C     		mov	r0, r5
 110:.\Generated_Source\PSoC4/cyPm.c ****         CY_SYS_CLK_SELECT_REG = clkSelectReg;
 130              		.loc 1 110 0
 131 0036 2360     		str	r3, [r4]
 132              		.loc 1 113 0
 133 0038 FFF7FEFF 		bl	CyExitCriticalSection
 134              	.LVL7:
 114:.\Generated_Source\PSoC4/cyPm.c **** }
 135              		.loc 1 114 0
 136              		@ sp needed for prologue
 137              	.LVL8:
 138 003c 37BD     		pop	{r0, r1, r2, r4, r5, pc}
 139              	.L6:
 140 003e C046     		.align	2
 141              	.L5:
 142 0040 00000B40 		.word	1074462720
 143 0044 52F1FF0F 		.word	268431698
 144 0048 0C000B40 		.word	1074462732
 145 004c 10ED00E0 		.word	-536810224
 146 0050 00010B40 		.word	1074462976
 147              		.cfi_endproc
 148              	.LFE1:
 149              		.size	CySysPmDeepSleep, .-CySysPmDeepSleep
 150              		.section	.text.CySysPmHibernate,"ax",%progbits
 151              		.align	1
 152              		.global	CySysPmHibernate
 153              		.code	16
 154              		.thumb_func
 155              		.type	CySysPmHibernate, %function
 156              	CySysPmHibernate:
 157              	.LFB2:
 115:.\Generated_Source\PSoC4/cyPm.c **** 
 116:.\Generated_Source\PSoC4/cyPm.c **** 
 117:.\Generated_Source\PSoC4/cyPm.c **** #if(CY_PSOC4A)
 118:.\Generated_Source\PSoC4/cyPm.c **** 
 119:.\Generated_Source\PSoC4/cyPm.c ****     /*******************************************************************************
 120:.\Generated_Source\PSoC4/cyPm.c ****     * Function Name: CySysPmHibernate
 121:.\Generated_Source\PSoC4/cyPm.c ****     ********************************************************************************
 122:.\Generated_Source\PSoC4/cyPm.c ****     *
 123:.\Generated_Source\PSoC4/cyPm.c ****     * Summary:
ARM GAS  C:\Users\CHUCK~1.ERH\AppData\Local\Temp\cc7afQgf.s 			page 6


 124:.\Generated_Source\PSoC4/cyPm.c ****     *  Puts the part into the Hibernate state. Only SRAM and UDBs are retained;
 125:.\Generated_Source\PSoC4/cyPm.c ****     *  most internal supplies are off. Wakeup is possible from a pin or a hibernate
 126:.\Generated_Source\PSoC4/cyPm.c ****     *  comparator only.
 127:.\Generated_Source\PSoC4/cyPm.c ****     *
 128:.\Generated_Source\PSoC4/cyPm.c ****     *  It is expected that the firmware has already frozen the IO-Cells using
 129:.\Generated_Source\PSoC4/cyPm.c ****     *  CySysPmFreezeIo() function before the call to this function. If this is
 130:.\Generated_Source\PSoC4/cyPm.c ****     *  omitted the IO-cells will be frozen in the same way as they are
 131:.\Generated_Source\PSoC4/cyPm.c ****     *  in the Active to Deep Sleep transition, but will lose their state on wake up
 132:.\Generated_Source\PSoC4/cyPm.c ****     *  (because of the reset occurring at that time).
 133:.\Generated_Source\PSoC4/cyPm.c ****     *
 134:.\Generated_Source\PSoC4/cyPm.c ****     *  Because all CPU state is lost, the CPU will start up at the reset vector.
 135:.\Generated_Source\PSoC4/cyPm.c ****     *  To save firmware state through Hibernate low power mode, corresponding
 136:.\Generated_Source\PSoC4/cyPm.c ****     *  variable should be defined with CY_NOINIT attribute. It prevents data
 137:.\Generated_Source\PSoC4/cyPm.c ****     *  from being initialized to zero on startup. The interrupt cause of
 138:.\Generated_Source\PSoC4/cyPm.c ****     *  the hibernate peripheral is retained, such that it can be either read by
 139:.\Generated_Source\PSoC4/cyPm.c ****     *  the firmware or cause an interrupt after the firmware has booted and
 140:.\Generated_Source\PSoC4/cyPm.c ****     *  enabled the corresponding interrupt. To distinguish the wakeup from
 141:.\Generated_Source\PSoC4/cyPm.c ****     *  the Hibernate mode and the general Reset event, the CySysPmGetResetReason()
 142:.\Generated_Source\PSoC4/cyPm.c ****     *  function could be used.
 143:.\Generated_Source\PSoC4/cyPm.c ****     *
 144:.\Generated_Source\PSoC4/cyPm.c ****     * Parameters:
 145:.\Generated_Source\PSoC4/cyPm.c ****     *  None
 146:.\Generated_Source\PSoC4/cyPm.c ****     *
 147:.\Generated_Source\PSoC4/cyPm.c ****     * Return:
 148:.\Generated_Source\PSoC4/cyPm.c ****     *  None
 149:.\Generated_Source\PSoC4/cyPm.c ****     *
 150:.\Generated_Source\PSoC4/cyPm.c ****     *******************************************************************************/
 151:.\Generated_Source\PSoC4/cyPm.c ****     void CySysPmHibernate(void)
 152:.\Generated_Source\PSoC4/cyPm.c ****     {
 158              		.loc 1 152 0
 159              		.cfi_startproc
 160 0000 08B5     		push	{r3, lr}
 161              	.LCFI2:
 162              		.cfi_def_cfa_offset 8
 163              		.cfi_offset 3, -8
 164              		.cfi_offset 14, -4
 153:.\Generated_Source\PSoC4/cyPm.c ****         uint8 interruptState;
 154:.\Generated_Source\PSoC4/cyPm.c **** 
 155:.\Generated_Source\PSoC4/cyPm.c ****         interruptState = CyEnterCriticalSection();
 165              		.loc 1 155 0
 166 0002 FFF7FEFF 		bl	CyEnterCriticalSection
 167              	.LVL9:
 156:.\Generated_Source\PSoC4/cyPm.c **** 
 157:.\Generated_Source\PSoC4/cyPm.c ****         /* Device enters Hibernate mode when CPU asserts SLEEPDEEP signal */
 158:.\Generated_Source\PSoC4/cyPm.c ****         CY_PM_PWR_CONTROL_REG |= CY_PM_PWR_CONTROL_HIBERNATE;
 168              		.loc 1 158 0
 169 0006 0D4B     		ldr	r3, .L8
 170 0008 8022     		mov	r2, #128
 171 000a 1968     		ldr	r1, [r3]
 172 000c 1206     		lsl	r2, r2, #24
 173 000e 0A43     		orr	r2, r1
 174 0010 1A60     		str	r2, [r3]
 159:.\Generated_Source\PSoC4/cyPm.c **** 
 160:.\Generated_Source\PSoC4/cyPm.c ****         /* Adjust delay to wait for references to settle on wakeup from hibernate */
 161:.\Generated_Source\PSoC4/cyPm.c ****         CY_PM_PWR_KEY_DELAY_REG = CY_SFLASH_HIB_KEY_DELAY_REG;
 175              		.loc 1 161 0
 176 0012 0B4B     		ldr	r3, .L8+4
ARM GAS  C:\Users\CHUCK~1.ERH\AppData\Local\Temp\cc7afQgf.s 			page 7


 177 0014 0B4A     		ldr	r2, .L8+8
 178 0016 1988     		ldrh	r1, [r3]
 162:.\Generated_Source\PSoC4/cyPm.c **** 
 163:.\Generated_Source\PSoC4/cyPm.c ****         /* CM0 enters DeepSleep/Hibernate mode upon execution of WFI */
 164:.\Generated_Source\PSoC4/cyPm.c ****         CY_PM_CM0_SCR_REG |= CY_PM_CM0_SCR_SLEEPDEEP;
 179              		.loc 1 164 0
 180 0018 0B4B     		ldr	r3, .L8+12
 161:.\Generated_Source\PSoC4/cyPm.c ****         CY_PM_PWR_KEY_DELAY_REG = CY_SFLASH_HIB_KEY_DELAY_REG;
 181              		.loc 1 161 0
 182 001a 1160     		str	r1, [r2]
 183              		.loc 1 164 0
 184 001c 1A68     		ldr	r2, [r3]
 185 001e 0421     		mov	r1, #4
 186 0020 0A43     		orr	r2, r1
 187 0022 1A60     		str	r2, [r3]
 165:.\Generated_Source\PSoC4/cyPm.c **** 
 166:.\Generated_Source\PSoC4/cyPm.c ****         /* Save token that will retain through a STOP/WAKEUP sequence
 167:.\Generated_Source\PSoC4/cyPm.c ****          * thus could be used by CySysPmGetResetReason() to differentiate
 168:.\Generated_Source\PSoC4/cyPm.c ****          * WAKEUP from a general RESET event.
 169:.\Generated_Source\PSoC4/cyPm.c ****          */
 170:.\Generated_Source\PSoC4/cyPm.c ****         CY_PM_PWR_STOP_REG = (CY_PM_PWR_STOP_REG & (uint32)(~CY_PM_PWR_STOP_TOKEN_MASK)) | CY_PM_PW
 188              		.loc 1 170 0
 189 0024 094B     		ldr	r3, .L8+16
 190 0026 FF21     		mov	r1, #255
 191 0028 1A68     		ldr	r2, [r3]
 192 002a 8A43     		bic	r2, r1
 193 002c F121     		mov	r1, #241
 194 002e 0A43     		orr	r2, r1
 195 0030 1A60     		str	r2, [r3]
 171:.\Generated_Source\PSoC4/cyPm.c **** 
 172:.\Generated_Source\PSoC4/cyPm.c ****         /* Sleep and wait for interrupt. Wakeup from Hibernate is performed 
 173:.\Generated_Source\PSoC4/cyPm.c ****          * through RESET state, causing a normal Boot procedure to occur.
 174:.\Generated_Source\PSoC4/cyPm.c ****          * The WFI instruction doesn't put the core to sleep if its wake condition 
 175:.\Generated_Source\PSoC4/cyPm.c ****          * is true when the instruction is executed.
 176:.\Generated_Source\PSoC4/cyPm.c ****          */
 177:.\Generated_Source\PSoC4/cyPm.c ****         CY_PM_WFI;
 196              		.loc 1 177 0
 197              	@ 177 ".\Generated_Source\PSoC4\cyPm.c" 1
 198 0032 30BF     		WFI 
 199              	
 200              	@ 0 "" 2
 178:.\Generated_Source\PSoC4/cyPm.c **** 
 179:.\Generated_Source\PSoC4/cyPm.c ****         CyExitCriticalSection(interruptState);
 201              		.loc 1 179 0
 202              		.code	16
 203 0034 FFF7FEFF 		bl	CyExitCriticalSection
 204              	.LVL10:
 180:.\Generated_Source\PSoC4/cyPm.c ****     }
 205              		.loc 1 180 0
 206              		@ sp needed for prologue
 207 0038 08BD     		pop	{r3, pc}
 208              	.L9:
 209 003a C046     		.align	2
 210              	.L8:
 211 003c 00000B40 		.word	1074462720
 212 0040 50F1FF0F 		.word	268431696
 213 0044 0C000B40 		.word	1074462732
ARM GAS  C:\Users\CHUCK~1.ERH\AppData\Local\Temp\cc7afQgf.s 			page 8


 214 0048 10ED00E0 		.word	-536810224
 215 004c 2C000B40 		.word	1074462764
 216              		.cfi_endproc
 217              	.LFE2:
 218              		.size	CySysPmHibernate, .-CySysPmHibernate
 219              		.section	.text.CySysPmSetWakeupPolarity,"ax",%progbits
 220              		.align	1
 221              		.global	CySysPmSetWakeupPolarity
 222              		.code	16
 223              		.thumb_func
 224              		.type	CySysPmSetWakeupPolarity, %function
 225              	CySysPmSetWakeupPolarity:
 226              	.LFB4:
 181:.\Generated_Source\PSoC4/cyPm.c **** 
 182:.\Generated_Source\PSoC4/cyPm.c **** 
 183:.\Generated_Source\PSoC4/cyPm.c ****     /*******************************************************************************
 184:.\Generated_Source\PSoC4/cyPm.c ****     * Function Name: CySysPmStop
 185:.\Generated_Source\PSoC4/cyPm.c ****     ********************************************************************************
 186:.\Generated_Source\PSoC4/cyPm.c ****     *
 187:.\Generated_Source\PSoC4/cyPm.c ****     * Summary:
 188:.\Generated_Source\PSoC4/cyPm.c ****     *  Puts the part into the Stop state. All internal supplies are off;
 189:.\Generated_Source\PSoC4/cyPm.c ****     *  no state is retained.
 190:.\Generated_Source\PSoC4/cyPm.c ****     *
 191:.\Generated_Source\PSoC4/cyPm.c ****     *  Wakeup from Stop is performed by toggling the wakeup pin (P0.7), causing
 192:.\Generated_Source\PSoC4/cyPm.c ****     *  a normal Boot procedure to occur. To configure the wakeup pin,
 193:.\Generated_Source\PSoC4/cyPm.c ****     *  the Digital Input Pin component should be placed on the schematic,
 194:.\Generated_Source\PSoC4/cyPm.c ****     *  assigned to the P0.7, and resistively pulled up or down to the inverse state
 195:.\Generated_Source\PSoC4/cyPm.c ****     *  of the wakeup polarity. To distinguish the wakeup from the Stop mode and
 196:.\Generated_Source\PSoC4/cyPm.c ****     *  the general Reset event, CySysPmGetResetReason() function could be used.
 197:.\Generated_Source\PSoC4/cyPm.c ****     *  The wakeup pin is active low by default. The wakeup pin polarity
 198:.\Generated_Source\PSoC4/cyPm.c ****     *  could be changed with the CySysPmSetWakeupPolarity() function.
 199:.\Generated_Source\PSoC4/cyPm.c ****     *
 200:.\Generated_Source\PSoC4/cyPm.c ****     *  This function freezes IO cells implicitly. It is not possible to enter
 201:.\Generated_Source\PSoC4/cyPm.c ****     *  STOP mode before freezing the IO cells. The IO cells remain frozen after
 202:.\Generated_Source\PSoC4/cyPm.c ****     *  awake from the Stop mode until the firmware unfreezes them after booting
 203:.\Generated_Source\PSoC4/cyPm.c ****     *  explicitly with CySysPmUnfreezeIo() function call.
 204:.\Generated_Source\PSoC4/cyPm.c ****     *
 205:.\Generated_Source\PSoC4/cyPm.c ****     * Parameters:
 206:.\Generated_Source\PSoC4/cyPm.c ****     *  None
 207:.\Generated_Source\PSoC4/cyPm.c ****     *
 208:.\Generated_Source\PSoC4/cyPm.c ****     * Return:
 209:.\Generated_Source\PSoC4/cyPm.c ****     *  None
 210:.\Generated_Source\PSoC4/cyPm.c ****     *
 211:.\Generated_Source\PSoC4/cyPm.c ****     *******************************************************************************/
 212:.\Generated_Source\PSoC4/cyPm.c ****     void CySysPmStop(void)
 213:.\Generated_Source\PSoC4/cyPm.c ****     {
 214:.\Generated_Source\PSoC4/cyPm.c ****         (void)CyEnterCriticalSection();
 215:.\Generated_Source\PSoC4/cyPm.c **** 
 216:.\Generated_Source\PSoC4/cyPm.c ****         /* Freeze IO-Cells to save IO-Cell state */
 217:.\Generated_Source\PSoC4/cyPm.c ****         CySysPmFreezeIo();
 218:.\Generated_Source\PSoC4/cyPm.c **** 
 219:.\Generated_Source\PSoC4/cyPm.c ****         /* Initiates transition to the Stop state */
 220:.\Generated_Source\PSoC4/cyPm.c ****         CY_PM_PWR_STOP_REG = (CY_PM_PWR_STOP_REG & (uint32)(~CY_PM_PWR_STOP_TOKEN_MASK)) |
 221:.\Generated_Source\PSoC4/cyPm.c ****                             CY_PM_PWR_STOP_TOKEN_STOP | CY_PM_PWR_STOP_STOP;
 222:.\Generated_Source\PSoC4/cyPm.c **** 
 223:.\Generated_Source\PSoC4/cyPm.c ****         /* Depending on the clock frequency and internal timing delays,
 224:.\Generated_Source\PSoC4/cyPm.c ****          * the final AHB transaction may or may not complete. To guard against
ARM GAS  C:\Users\CHUCK~1.ERH\AppData\Local\Temp\cc7afQgf.s 			page 9


 225:.\Generated_Source\PSoC4/cyPm.c ****          * accidentally executing an unintended instruction, it is recommended
 226:.\Generated_Source\PSoC4/cyPm.c ****          * to add 2 NOP cycles after the final write to the STOP register.
 227:.\Generated_Source\PSoC4/cyPm.c ****          */
 228:.\Generated_Source\PSoC4/cyPm.c ****         CY_NOP;
 229:.\Generated_Source\PSoC4/cyPm.c ****         CY_NOP;
 230:.\Generated_Source\PSoC4/cyPm.c ****         
 231:.\Generated_Source\PSoC4/cyPm.c ****         /* Should never get to this WFI instruction */
 232:.\Generated_Source\PSoC4/cyPm.c ****         CY_PM_WFI;
 233:.\Generated_Source\PSoC4/cyPm.c **** 
 234:.\Generated_Source\PSoC4/cyPm.c ****         /* Wakeup from Stop is performed by toggling of Wakeup pin,
 235:.\Generated_Source\PSoC4/cyPm.c ****          * causing a normal Boot procedure to occur. No need to exit
 236:.\Generated_Source\PSoC4/cyPm.c ****          * from the critical section.
 237:.\Generated_Source\PSoC4/cyPm.c ****          */
 238:.\Generated_Source\PSoC4/cyPm.c ****     }
 239:.\Generated_Source\PSoC4/cyPm.c **** 
 240:.\Generated_Source\PSoC4/cyPm.c **** 
 241:.\Generated_Source\PSoC4/cyPm.c ****     /*******************************************************************************
 242:.\Generated_Source\PSoC4/cyPm.c ****     * Function Name: CySysPmSetWakeupPolarity
 243:.\Generated_Source\PSoC4/cyPm.c ****     ********************************************************************************
 244:.\Generated_Source\PSoC4/cyPm.c ****     *
 245:.\Generated_Source\PSoC4/cyPm.c ****     * Summary:
 246:.\Generated_Source\PSoC4/cyPm.c ****     *  Wake up from stop mode is performed by toggling the wakeup pin (P0.7),
 247:.\Generated_Source\PSoC4/cyPm.c ****     *  causing a normal boot procedure to occur. This function assigns
 248:.\Generated_Source\PSoC4/cyPm.c ****     *  the wakeup pin active level. Setting the wakeup pin to this level will cause
 249:.\Generated_Source\PSoC4/cyPm.c ****     *  the wakeup from stop mode. The wakeup pin is active low by default.
 250:.\Generated_Source\PSoC4/cyPm.c ****     *
 251:.\Generated_Source\PSoC4/cyPm.c ****     * Parameters:
 252:.\Generated_Source\PSoC4/cyPm.c ****     *  polarity: Wakeup pin active level:
 253:.\Generated_Source\PSoC4/cyPm.c ****     *   Value    Define                          Level
 254:.\Generated_Source\PSoC4/cyPm.c ****     *    0        CY_PM_STOP_WAKEUP_ACTIVE_LOW    Logical zero will wakeup the chip
 255:.\Generated_Source\PSoC4/cyPm.c ****     *    1        CY_PM_STOP_WAKEUP_ACTIVE_HIGH   Logical one will wakeup the chip
 256:.\Generated_Source\PSoC4/cyPm.c ****     *
 257:.\Generated_Source\PSoC4/cyPm.c ****     * Return:
 258:.\Generated_Source\PSoC4/cyPm.c ****     *  None
 259:.\Generated_Source\PSoC4/cyPm.c ****     *
 260:.\Generated_Source\PSoC4/cyPm.c ****     *******************************************************************************/
 261:.\Generated_Source\PSoC4/cyPm.c ****     void CySysPmSetWakeupPolarity(uint32 polarity)
 262:.\Generated_Source\PSoC4/cyPm.c ****     {
 227              		.loc 1 262 0
 228              		.cfi_startproc
 229              	.LVL11:
 230 0000 10B5     		push	{r4, lr}
 231              	.LCFI3:
 232              		.cfi_def_cfa_offset 8
 233              		.cfi_offset 4, -8
 234              		.cfi_offset 14, -4
 235              		.loc 1 262 0
 236 0002 041C     		mov	r4, r0
 263:.\Generated_Source\PSoC4/cyPm.c ****         uint8 interruptState;
 264:.\Generated_Source\PSoC4/cyPm.c **** 
 265:.\Generated_Source\PSoC4/cyPm.c ****         interruptState = CyEnterCriticalSection();
 237              		.loc 1 265 0
 238 0004 FFF7FEFF 		bl	CyEnterCriticalSection
 239              	.LVL12:
 240 0008 064B     		ldr	r3, .L14
 266:.\Generated_Source\PSoC4/cyPm.c **** 
 267:.\Generated_Source\PSoC4/cyPm.c ****         CY_PM_PWR_STOP_REG = (CY_PM_STOP_WAKEUP_ACTIVE_LOW != polarity) ?
ARM GAS  C:\Users\CHUCK~1.ERH\AppData\Local\Temp\cc7afQgf.s 			page 10


 268:.\Generated_Source\PSoC4/cyPm.c ****                             (CY_PM_PWR_STOP_REG | CY_PM_PWR_STOP_POLARITY) :
 241              		.loc 1 268 0
 242 000a 1968     		ldr	r1, [r3]
 243 000c 002C     		cmp	r4, #0
 244 000e 03D0     		beq	.L11
 245              		.loc 1 268 0 is_stmt 0 discriminator 1
 246 0010 8024     		mov	r4, #128
 247              	.LVL13:
 248 0012 6202     		lsl	r2, r4, #9
 249 0014 0A43     		orr	r2, r1
 250 0016 01E0     		b	.L12
 251              	.LVL14:
 252              	.L11:
 253              		.loc 1 268 0 discriminator 2
 254 0018 034A     		ldr	r2, .L14+4
 255 001a 0A40     		and	r2, r1
 256              	.LVL15:
 257              	.L12:
 267:.\Generated_Source\PSoC4/cyPm.c ****         CY_PM_PWR_STOP_REG = (CY_PM_STOP_WAKEUP_ACTIVE_LOW != polarity) ?
 258              		.loc 1 267 0 is_stmt 1
 259 001c 1A60     		str	r2, [r3]
 269:.\Generated_Source\PSoC4/cyPm.c ****                             (CY_PM_PWR_STOP_REG & (uint32) (~CY_PM_PWR_STOP_POLARITY));
 270:.\Generated_Source\PSoC4/cyPm.c **** 
 271:.\Generated_Source\PSoC4/cyPm.c ****         CyExitCriticalSection(interruptState);
 260              		.loc 1 271 0
 261 001e FFF7FEFF 		bl	CyExitCriticalSection
 262              	.LVL16:
 272:.\Generated_Source\PSoC4/cyPm.c ****     }
 263              		.loc 1 272 0
 264              		@ sp needed for prologue
 265 0022 10BD     		pop	{r4, pc}
 266              	.L15:
 267              		.align	2
 268              	.L14:
 269 0024 2C000B40 		.word	1074462764
 270 0028 FFFFFEFF 		.word	-65537
 271              		.cfi_endproc
 272              	.LFE4:
 273              		.size	CySysPmSetWakeupPolarity, .-CySysPmSetWakeupPolarity
 274              		.section	.text.CySysPmGetResetReason,"ax",%progbits
 275              		.align	1
 276              		.global	CySysPmGetResetReason
 277              		.code	16
 278              		.thumb_func
 279              		.type	CySysPmGetResetReason, %function
 280              	CySysPmGetResetReason:
 281              	.LFB5:
 273:.\Generated_Source\PSoC4/cyPm.c **** 
 274:.\Generated_Source\PSoC4/cyPm.c **** 
 275:.\Generated_Source\PSoC4/cyPm.c ****     /*******************************************************************************
 276:.\Generated_Source\PSoC4/cyPm.c ****     * Function Name: CySysPmGetResetReason
 277:.\Generated_Source\PSoC4/cyPm.c ****     ********************************************************************************
 278:.\Generated_Source\PSoC4/cyPm.c ****     *
 279:.\Generated_Source\PSoC4/cyPm.c ****     * Summary:
 280:.\Generated_Source\PSoC4/cyPm.c ****     *  Retrieves last reset reason - transition from OFF/XRES/STOP/HIBERNATE to
 281:.\Generated_Source\PSoC4/cyPm.c ****     *  RESET state. Note that waking up from STOP using XRES will be perceived as
 282:.\Generated_Source\PSoC4/cyPm.c ****     *  general RESET.
ARM GAS  C:\Users\CHUCK~1.ERH\AppData\Local\Temp\cc7afQgf.s 			page 11


 283:.\Generated_Source\PSoC4/cyPm.c ****     *
 284:.\Generated_Source\PSoC4/cyPm.c ****     * Parameters:
 285:.\Generated_Source\PSoC4/cyPm.c ****     *  None
 286:.\Generated_Source\PSoC4/cyPm.c ****     *
 287:.\Generated_Source\PSoC4/cyPm.c ****     * Return:
 288:.\Generated_Source\PSoC4/cyPm.c ****     *  Reset reason.
 289:.\Generated_Source\PSoC4/cyPm.c ****     *  CY_PM_RESET_REASON_UNKN        - unknown
 290:.\Generated_Source\PSoC4/cyPm.c ****     *  CY_PM_RESET_REASON_XRES        - transition from OFF/XRES to RESET
 291:.\Generated_Source\PSoC4/cyPm.c ****     *  CY_PM_RESET_REASON_WAKEUP_HIB  - transition/wakeup from HIBERNATE to RESET
 292:.\Generated_Source\PSoC4/cyPm.c ****     *  CY_PM_RESET_REASON_WAKEUP_STOP - transition/wakeup from STOP to RESET
 293:.\Generated_Source\PSoC4/cyPm.c ****     *
 294:.\Generated_Source\PSoC4/cyPm.c ****     *******************************************************************************/
 295:.\Generated_Source\PSoC4/cyPm.c ****     uint32 CySysPmGetResetReason(void)
 296:.\Generated_Source\PSoC4/cyPm.c ****     {
 282              		.loc 1 296 0
 283              		.cfi_startproc
 284              	.LVL17:
 297:.\Generated_Source\PSoC4/cyPm.c ****         uint32 reason = CY_PM_RESET_REASON_UNKN;
 298:.\Generated_Source\PSoC4/cyPm.c **** 
 299:.\Generated_Source\PSoC4/cyPm.c ****         switch(CY_PM_PWR_STOP_REG & CY_PM_PWR_STOP_TOKEN_MASK)
 285              		.loc 1 299 0
 286 0000 074B     		ldr	r3, .L22
 296:.\Generated_Source\PSoC4/cyPm.c ****     {
 287              		.loc 1 296 0
 288 0002 00B5     		push	{lr}
 289              	.LCFI4:
 290              		.cfi_def_cfa_offset 4
 291              		.cfi_offset 14, -4
 292              		.loc 1 299 0
 293 0004 1868     		ldr	r0, [r3]
 294 0006 C0B2     		uxtb	r0, r0
 295 0008 F128     		cmp	r0, #241
 296 000a 04D0     		beq	.L19
 297 000c F228     		cmp	r0, #242
 298 000e 04D0     		beq	.L20
 297:.\Generated_Source\PSoC4/cyPm.c ****         uint32 reason = CY_PM_RESET_REASON_UNKN;
 299              		.loc 1 297 0
 300 0010 4342     		neg	r3, r0
 301 0012 5841     		adc	r0, r0, r3
 302 0014 02E0     		b	.L18
 303              	.L19:
 304              	.LVL18:
 300:.\Generated_Source\PSoC4/cyPm.c ****         {
 301:.\Generated_Source\PSoC4/cyPm.c ****         /* Power up, XRES */
 302:.\Generated_Source\PSoC4/cyPm.c ****         case CY_PM_PWR_STOP_TOKEN_XRES:
 303:.\Generated_Source\PSoC4/cyPm.c ****             reason = CY_PM_RESET_REASON_XRES;
 304:.\Generated_Source\PSoC4/cyPm.c ****             break;
 305:.\Generated_Source\PSoC4/cyPm.c **** 
 306:.\Generated_Source\PSoC4/cyPm.c ****         /* Wakeup from Hibernate */
 307:.\Generated_Source\PSoC4/cyPm.c ****         case CY_PM_PWR_STOP_TOKEN_HIB:
 308:.\Generated_Source\PSoC4/cyPm.c ****             reason = CY_PM_RESET_REASON_WAKEUP_HIB;
 305              		.loc 1 308 0
 306 0016 0220     		mov	r0, #2
 309:.\Generated_Source\PSoC4/cyPm.c ****             break;
 307              		.loc 1 309 0
 308 0018 00E0     		b	.L18
 309              	.LVL19:
ARM GAS  C:\Users\CHUCK~1.ERH\AppData\Local\Temp\cc7afQgf.s 			page 12


 310              	.L20:
 310:.\Generated_Source\PSoC4/cyPm.c **** 
 311:.\Generated_Source\PSoC4/cyPm.c ****         /* Wakeup from Stop (through WAKEUP pin assert) */
 312:.\Generated_Source\PSoC4/cyPm.c ****         case CY_PM_PWR_STOP_TOKEN_STOP:
 313:.\Generated_Source\PSoC4/cyPm.c ****             reason = CY_PM_RESET_REASON_WAKEUP_STOP;
 311              		.loc 1 313 0
 312 001a 0320     		mov	r0, #3
 313              	.LVL20:
 314              	.L18:
 314:.\Generated_Source\PSoC4/cyPm.c ****             break;
 315:.\Generated_Source\PSoC4/cyPm.c **** 
 316:.\Generated_Source\PSoC4/cyPm.c ****         /* Unknown reason */
 317:.\Generated_Source\PSoC4/cyPm.c ****         default:
 318:.\Generated_Source\PSoC4/cyPm.c ****             break;
 319:.\Generated_Source\PSoC4/cyPm.c ****         }
 320:.\Generated_Source\PSoC4/cyPm.c **** 
 321:.\Generated_Source\PSoC4/cyPm.c ****         return (reason);
 322:.\Generated_Source\PSoC4/cyPm.c ****     }
 315              		.loc 1 322 0
 316              		@ sp needed for prologue
 317 001c 00BD     		pop	{pc}
 318              	.L23:
 319 001e C046     		.align	2
 320              	.L22:
 321 0020 2C000B40 		.word	1074462764
 322              		.cfi_endproc
 323              	.LFE5:
 324              		.size	CySysPmGetResetReason, .-CySysPmGetResetReason
 325              		.section	.text.CySysPmFreezeIo,"ax",%progbits
 326              		.align	1
 327              		.global	CySysPmFreezeIo
 328              		.code	16
 329              		.thumb_func
 330              		.type	CySysPmFreezeIo, %function
 331              	CySysPmFreezeIo:
 332              	.LFB6:
 323:.\Generated_Source\PSoC4/cyPm.c **** 
 324:.\Generated_Source\PSoC4/cyPm.c **** 
 325:.\Generated_Source\PSoC4/cyPm.c ****     /*******************************************************************************
 326:.\Generated_Source\PSoC4/cyPm.c ****     * Function Name: CySysPmFreezeIo
 327:.\Generated_Source\PSoC4/cyPm.c ****     ********************************************************************************
 328:.\Generated_Source\PSoC4/cyPm.c ****     *
 329:.\Generated_Source\PSoC4/cyPm.c ****     * Summary:
 330:.\Generated_Source\PSoC4/cyPm.c ****     *  Freezes IO-Cells directly to save IO-Cell state on wake up from Hibernate or
 331:.\Generated_Source\PSoC4/cyPm.c ****     *  Stop state. It is not required to call this function before entering
 332:.\Generated_Source\PSoC4/cyPm.c ****     *  Stop mode, since CySysPmStop() function freezes IO-Cells implicitly.
 333:.\Generated_Source\PSoC4/cyPm.c ****     *
 334:.\Generated_Source\PSoC4/cyPm.c ****     * Parameters:
 335:.\Generated_Source\PSoC4/cyPm.c ****     *  None
 336:.\Generated_Source\PSoC4/cyPm.c ****     *
 337:.\Generated_Source\PSoC4/cyPm.c ****     * Return:
 338:.\Generated_Source\PSoC4/cyPm.c ****     *  None
 339:.\Generated_Source\PSoC4/cyPm.c ****     *
 340:.\Generated_Source\PSoC4/cyPm.c ****     *******************************************************************************/
 341:.\Generated_Source\PSoC4/cyPm.c ****     void CySysPmFreezeIo(void)
 342:.\Generated_Source\PSoC4/cyPm.c ****     {
 333              		.loc 1 342 0
ARM GAS  C:\Users\CHUCK~1.ERH\AppData\Local\Temp\cc7afQgf.s 			page 13


 334              		.cfi_startproc
 335 0000 38B5     		push	{r3, r4, r5, lr}
 336              	.LCFI5:
 337              		.cfi_def_cfa_offset 16
 338              		.cfi_offset 3, -16
 339              		.cfi_offset 4, -12
 340              		.cfi_offset 5, -8
 341              		.cfi_offset 14, -4
 343:.\Generated_Source\PSoC4/cyPm.c ****         uint8 interruptState;
 344:.\Generated_Source\PSoC4/cyPm.c **** 
 345:.\Generated_Source\PSoC4/cyPm.c ****         interruptState = CyEnterCriticalSection();
 342              		.loc 1 345 0
 343 0002 FFF7FEFF 		bl	CyEnterCriticalSection
 344              	.LVL21:
 346:.\Generated_Source\PSoC4/cyPm.c **** 
 347:.\Generated_Source\PSoC4/cyPm.c ****         /* Check FREEZE state to avoid recurrent IO-Cells freeze attempt,
 348:.\Generated_Source\PSoC4/cyPm.c ****          * since the second call to this function will cause accidental switch
 349:.\Generated_Source\PSoC4/cyPm.c ****          * to the STOP mode (the system will enter STOP mode immediately after
 350:.\Generated_Source\PSoC4/cyPm.c ****          * writing to STOP bit since both UNLOCK and FREEZE have been set correctly
 351:.\Generated_Source\PSoC4/cyPm.c ****          * in a previous call to this function).
 352:.\Generated_Source\PSoC4/cyPm.c ****          */
 353:.\Generated_Source\PSoC4/cyPm.c ****         if (0u == (CY_PM_PWR_STOP_REG & CY_PM_PWR_STOP_FREEZE))
 345              		.loc 1 353 0
 346 0006 0B4C     		ldr	r4, .L26
 345:.\Generated_Source\PSoC4/cyPm.c ****         interruptState = CyEnterCriticalSection();
 347              		.loc 1 345 0
 348 0008 051C     		mov	r5, r0
 349              	.LVL22:
 350              		.loc 1 353 0
 351 000a 2368     		ldr	r3, [r4]
 352 000c 9A03     		lsl	r2, r3, #14
 353 000e 0CD4     		bmi	.L25
 354:.\Generated_Source\PSoC4/cyPm.c ****         {
 355:.\Generated_Source\PSoC4/cyPm.c ****             /* Preserve last reset reason and disable overrides the next freeze command by peripher
 356:.\Generated_Source\PSoC4/cyPm.c ****             CY_PM_PWR_STOP_REG = CY_PM_PWR_STOP_STOP | CY_PM_PWR_STOP_FREEZE | CY_PM_PWR_STOP_UNLOC
 357:.\Generated_Source\PSoC4/cyPm.c ****                                 (CY_PM_PWR_STOP_REG & (CY_PM_PWR_STOP_TOKEN_MASK | CY_PM_PWR_STOP_P
 354              		.loc 1 357 0
 355 0010 2268     		ldr	r2, [r4]
 356 0012 0948     		ldr	r0, .L26+4
 357              	.LVL23:
 356:.\Generated_Source\PSoC4/cyPm.c ****             CY_PM_PWR_STOP_REG = CY_PM_PWR_STOP_STOP | CY_PM_PWR_STOP_FREEZE | CY_PM_PWR_STOP_UNLOC
 358              		.loc 1 356 0
 359 0014 0949     		ldr	r1, .L26+8
 360              		.loc 1 357 0
 361 0016 1040     		and	r0, r2
 356:.\Generated_Source\PSoC4/cyPm.c ****             CY_PM_PWR_STOP_REG = CY_PM_PWR_STOP_STOP | CY_PM_PWR_STOP_FREEZE | CY_PM_PWR_STOP_UNLOC
 362              		.loc 1 356 0
 363 0018 0843     		orr	r0, r1
 364 001a 2060     		str	r0, [r4]
 358:.\Generated_Source\PSoC4/cyPm.c **** 
 359:.\Generated_Source\PSoC4/cyPm.c ****             /* PWR_STOP read after write must be delayed for 6 clock cycles to let internal nodes t
 360:.\Generated_Source\PSoC4/cyPm.c ****             CyDelayCycles(6u);
 365              		.loc 1 360 0
 366 001c 0620     		mov	r0, #6
 367 001e FFF7FEFF 		bl	CyDelayCycles
 368              	.LVL24:
 361:.\Generated_Source\PSoC4/cyPm.c **** 
ARM GAS  C:\Users\CHUCK~1.ERH\AppData\Local\Temp\cc7afQgf.s 			page 14


 362:.\Generated_Source\PSoC4/cyPm.c ****             /* The second write causes the freeze of IO-Cells to save IO-Cell state */
 363:.\Generated_Source\PSoC4/cyPm.c ****             CY_PM_PWR_STOP_REG &= ~CY_PM_PWR_STOP_STOP;
 369              		.loc 1 363 0
 370 0022 2368     		ldr	r3, [r4]
 371 0024 5A00     		lsl	r2, r3, #1
 372 0026 5008     		lsr	r0, r2, #1
 373 0028 2060     		str	r0, [r4]
 374              	.L25:
 364:.\Generated_Source\PSoC4/cyPm.c ****         }
 365:.\Generated_Source\PSoC4/cyPm.c **** 
 366:.\Generated_Source\PSoC4/cyPm.c ****         CyExitCriticalSection(interruptState);
 375              		.loc 1 366 0
 376 002a 281C     		mov	r0, r5
 377 002c FFF7FEFF 		bl	CyExitCriticalSection
 378              	.LVL25:
 367:.\Generated_Source\PSoC4/cyPm.c ****     }
 379              		.loc 1 367 0
 380              		@ sp needed for prologue
 381              	.LVL26:
 382 0030 38BD     		pop	{r3, r4, r5, pc}
 383              	.L27:
 384 0032 C046     		.align	2
 385              	.L26:
 386 0034 2C000B40 		.word	1074462764
 387 0038 FF000100 		.word	65791
 388 003c 003A0280 		.word	-2147337728
 389              		.cfi_endproc
 390              	.LFE6:
 391              		.size	CySysPmFreezeIo, .-CySysPmFreezeIo
 392              		.section	.text.CySysPmStop,"ax",%progbits
 393              		.align	1
 394              		.global	CySysPmStop
 395              		.code	16
 396              		.thumb_func
 397              		.type	CySysPmStop, %function
 398              	CySysPmStop:
 399              	.LFB3:
 213:.\Generated_Source\PSoC4/cyPm.c ****     {
 400              		.loc 1 213 0
 401              		.cfi_startproc
 402 0000 08B5     		push	{r3, lr}
 403              	.LCFI6:
 404              		.cfi_def_cfa_offset 8
 405              		.cfi_offset 3, -8
 406              		.cfi_offset 14, -4
 214:.\Generated_Source\PSoC4/cyPm.c ****         (void)CyEnterCriticalSection();
 407              		.loc 1 214 0
 408 0002 FFF7FEFF 		bl	CyEnterCriticalSection
 409              	.LVL27:
 217:.\Generated_Source\PSoC4/cyPm.c ****         CySysPmFreezeIo();
 410              		.loc 1 217 0
 411 0006 FFF7FEFF 		bl	CySysPmFreezeIo
 412              	.LVL28:
 220:.\Generated_Source\PSoC4/cyPm.c ****         CY_PM_PWR_STOP_REG = (CY_PM_PWR_STOP_REG & (uint32)(~CY_PM_PWR_STOP_TOKEN_MASK)) |
 413              		.loc 1 220 0
 414 000a 054B     		ldr	r3, .L29
 221:.\Generated_Source\PSoC4/cyPm.c ****                             CY_PM_PWR_STOP_TOKEN_STOP | CY_PM_PWR_STOP_STOP;
ARM GAS  C:\Users\CHUCK~1.ERH\AppData\Local\Temp\cc7afQgf.s 			page 15


 415              		.loc 1 221 0
 416 000c 054A     		ldr	r2, .L29+4
 220:.\Generated_Source\PSoC4/cyPm.c ****         CY_PM_PWR_STOP_REG = (CY_PM_PWR_STOP_REG & (uint32)(~CY_PM_PWR_STOP_TOKEN_MASK)) |
 417              		.loc 1 220 0
 418 000e 1968     		ldr	r1, [r3]
 221:.\Generated_Source\PSoC4/cyPm.c ****                             CY_PM_PWR_STOP_TOKEN_STOP | CY_PM_PWR_STOP_STOP;
 419              		.loc 1 221 0
 420 0010 0548     		ldr	r0, .L29+8
 421 0012 0A40     		and	r2, r1
 422 0014 0243     		orr	r2, r0
 220:.\Generated_Source\PSoC4/cyPm.c ****         CY_PM_PWR_STOP_REG = (CY_PM_PWR_STOP_REG & (uint32)(~CY_PM_PWR_STOP_TOKEN_MASK)) |
 423              		.loc 1 220 0
 424 0016 1A60     		str	r2, [r3]
 228:.\Generated_Source\PSoC4/cyPm.c ****         CY_NOP;
 425              		.loc 1 228 0
 426              	@ 228 ".\Generated_Source\PSoC4\cyPm.c" 1
 427 0018 C046     		NOP
 428              	
 429              	@ 0 "" 2
 229:.\Generated_Source\PSoC4/cyPm.c ****         CY_NOP;
 430              		.loc 1 229 0
 431              	@ 229 ".\Generated_Source\PSoC4\cyPm.c" 1
 432 001a C046     		NOP
 433              	
 434              	@ 0 "" 2
 232:.\Generated_Source\PSoC4/cyPm.c ****         CY_PM_WFI;
 435              		.loc 1 232 0
 436              	@ 232 ".\Generated_Source\PSoC4\cyPm.c" 1
 437 001c 30BF     		WFI 
 438              	
 439              	@ 0 "" 2
 238:.\Generated_Source\PSoC4/cyPm.c ****     }
 440              		.loc 1 238 0
 441              		.code	16
 442              		@ sp needed for prologue
 443 001e 08BD     		pop	{r3, pc}
 444              	.L30:
 445              		.align	2
 446              	.L29:
 447 0020 2C000B40 		.word	1074462764
 448 0024 00FFFF7F 		.word	2147483392
 449 0028 F2000080 		.word	-2147483406
 450              		.cfi_endproc
 451              	.LFE3:
 452              		.size	CySysPmStop, .-CySysPmStop
 453              		.section	.text.CySysPmUnfreezeIo,"ax",%progbits
 454              		.align	1
 455              		.global	CySysPmUnfreezeIo
 456              		.code	16
 457              		.thumb_func
 458              		.type	CySysPmUnfreezeIo, %function
 459              	CySysPmUnfreezeIo:
 460              	.LFB7:
 368:.\Generated_Source\PSoC4/cyPm.c **** 
 369:.\Generated_Source\PSoC4/cyPm.c **** 
 370:.\Generated_Source\PSoC4/cyPm.c ****     /*******************************************************************************
 371:.\Generated_Source\PSoC4/cyPm.c ****     * Function Name: CySysPmUnfreezeIo
ARM GAS  C:\Users\CHUCK~1.ERH\AppData\Local\Temp\cc7afQgf.s 			page 16


 372:.\Generated_Source\PSoC4/cyPm.c ****     ********************************************************************************
 373:.\Generated_Source\PSoC4/cyPm.c ****     *
 374:.\Generated_Source\PSoC4/cyPm.c ****     * Summary:
 375:.\Generated_Source\PSoC4/cyPm.c ****     *  The IO-Cells remain frozen after awake from Hibernate or Stop mode until
 376:.\Generated_Source\PSoC4/cyPm.c ****     *  the firmware unfreezes them after booting. The call of this function
 377:.\Generated_Source\PSoC4/cyPm.c ****     *  unfreezes IO-Cells explicitly.
 378:.\Generated_Source\PSoC4/cyPm.c ****     *
 379:.\Generated_Source\PSoC4/cyPm.c ****     * Parameters:
 380:.\Generated_Source\PSoC4/cyPm.c ****     *  None
 381:.\Generated_Source\PSoC4/cyPm.c ****     *
 382:.\Generated_Source\PSoC4/cyPm.c ****     * Return:
 383:.\Generated_Source\PSoC4/cyPm.c ****     *  None
 384:.\Generated_Source\PSoC4/cyPm.c ****     *
 385:.\Generated_Source\PSoC4/cyPm.c ****     *******************************************************************************/
 386:.\Generated_Source\PSoC4/cyPm.c ****     void CySysPmUnfreezeIo(void)
 387:.\Generated_Source\PSoC4/cyPm.c ****     {
 461              		.loc 1 387 0
 462              		.cfi_startproc
 463 0000 70B5     		push	{r4, r5, r6, lr}
 464              	.LCFI7:
 465              		.cfi_def_cfa_offset 16
 466              		.cfi_offset 4, -16
 467              		.cfi_offset 5, -12
 468              		.cfi_offset 6, -8
 469              		.cfi_offset 14, -4
 388:.\Generated_Source\PSoC4/cyPm.c ****         uint8 interruptState;
 389:.\Generated_Source\PSoC4/cyPm.c **** 
 390:.\Generated_Source\PSoC4/cyPm.c ****         interruptState = CyEnterCriticalSection();
 470              		.loc 1 390 0
 471 0002 FFF7FEFF 		bl	CyEnterCriticalSection
 472              	.LVL29:
 391:.\Generated_Source\PSoC4/cyPm.c **** 
 392:.\Generated_Source\PSoC4/cyPm.c ****         /* Preserve last reset reason and wakeup polarity. Then, unfreeze I/O:
 393:.\Generated_Source\PSoC4/cyPm.c ****          * write PWR_STOP.FREEZE=0, .UNLOCK=0x3A, .STOP=0, .TOKEN
 394:.\Generated_Source\PSoC4/cyPm.c ****          */
 395:.\Generated_Source\PSoC4/cyPm.c ****         CY_PM_PWR_STOP_REG = CY_PM_PWR_STOP_UNLOCK |
 396:.\Generated_Source\PSoC4/cyPm.c ****                             (CY_PM_PWR_STOP_REG & (CY_PM_PWR_STOP_TOKEN_MASK | CY_PM_PWR_STOP_POLAR
 473              		.loc 1 396 0
 474 0006 094C     		ldr	r4, .L32
 475 0008 094D     		ldr	r5, .L32+4
 476 000a 2368     		ldr	r3, [r4]
 395:.\Generated_Source\PSoC4/cyPm.c ****         CY_PM_PWR_STOP_REG = CY_PM_PWR_STOP_UNLOCK |
 477              		.loc 1 395 0
 478 000c E822     		mov	r2, #232
 390:.\Generated_Source\PSoC4/cyPm.c ****         interruptState = CyEnterCriticalSection();
 479              		.loc 1 390 0
 480 000e 061C     		mov	r6, r0
 481              	.LVL30:
 482              		.loc 1 396 0
 483 0010 2B40     		and	r3, r5
 395:.\Generated_Source\PSoC4/cyPm.c ****         CY_PM_PWR_STOP_REG = CY_PM_PWR_STOP_UNLOCK |
 484              		.loc 1 395 0
 485 0012 9001     		lsl	r0, r2, #6
 486              	.LVL31:
 487 0014 0343     		orr	r3, r0
 488 0016 2360     		str	r3, [r4]
 397:.\Generated_Source\PSoC4/cyPm.c **** 
ARM GAS  C:\Users\CHUCK~1.ERH\AppData\Local\Temp\cc7afQgf.s 			page 17


 398:.\Generated_Source\PSoC4/cyPm.c ****         /* PWR_STOP read after write must be delayed for 6 clock cycles to let internal nodes to se
 399:.\Generated_Source\PSoC4/cyPm.c ****         CyDelayCycles(6u);
 489              		.loc 1 399 0
 490 0018 0620     		mov	r0, #6
 491 001a FFF7FEFF 		bl	CyDelayCycles
 492              	.LVL32:
 400:.\Generated_Source\PSoC4/cyPm.c **** 
 401:.\Generated_Source\PSoC4/cyPm.c ****         /* Lock STOP mode: write PWR_STOP.FREEZE=0, UNLOCK=0x00, STOP=0, .TOKEN */
 402:.\Generated_Source\PSoC4/cyPm.c ****         CY_PM_PWR_STOP_REG &= (CY_PM_PWR_STOP_TOKEN_MASK | CY_PM_PWR_STOP_POLARITY);
 493              		.loc 1 402 0
 494 001e 2168     		ldr	r1, [r4]
 403:.\Generated_Source\PSoC4/cyPm.c **** 
 404:.\Generated_Source\PSoC4/cyPm.c ****         CyExitCriticalSection(interruptState);
 495              		.loc 1 404 0
 496 0020 301C     		mov	r0, r6
 402:.\Generated_Source\PSoC4/cyPm.c ****         CY_PM_PWR_STOP_REG &= (CY_PM_PWR_STOP_TOKEN_MASK | CY_PM_PWR_STOP_POLARITY);
 497              		.loc 1 402 0
 498 0022 0D40     		and	r5, r1
 499 0024 2560     		str	r5, [r4]
 500              		.loc 1 404 0
 501 0026 FFF7FEFF 		bl	CyExitCriticalSection
 502              	.LVL33:
 405:.\Generated_Source\PSoC4/cyPm.c ****     }
 503              		.loc 1 405 0
 504              		@ sp needed for prologue
 505              	.LVL34:
 506 002a 70BD     		pop	{r4, r5, r6, pc}
 507              	.L33:
 508              		.align	2
 509              	.L32:
 510 002c 2C000B40 		.word	1074462764
 511 0030 FF000100 		.word	65791
 512              		.cfi_endproc
 513              	.LFE7:
 514              		.size	CySysPmUnfreezeIo, .-CySysPmUnfreezeIo
 515              		.text
 516              	.Letext0:
 517              		.file 2 ".\\Generated_Source\\PSoC4\\cytypes.h"
 518              		.file 3 ".\\Generated_Source\\PSoC4\\CyLib.h"