ARM GAS  C:\Users\CHUCK~1.ERH\AppData\Local\Temp\ccS3ojsf.s 			page 1


   1              		.cpu cortex-m0
   2              		.fpu softvfp
   3              		.eabi_attribute 20, 1
   4              		.eabi_attribute 21, 1
   5              		.eabi_attribute 23, 3
   6              		.eabi_attribute 24, 1
   7              		.eabi_attribute 25, 1
   8              		.eabi_attribute 26, 1
   9              		.eabi_attribute 30, 4
  10              		.eabi_attribute 34, 0
  11              		.eabi_attribute 18, 4
  12              		.code	16
  13              		.file	"LED0_PM.c"
  14              		.text
  15              	.Ltext0:
  16              		.cfi_sections	.debug_frame
  17              		.section	.text.LED0_SaveConfig,"ax",%progbits
  18              		.align	1
  19              		.global	LED0_SaveConfig
  20              		.code	16
  21              		.thumb_func
  22              		.type	LED0_SaveConfig, %function
  23              	LED0_SaveConfig:
  24              	.LFB0:
  25              		.file 1 ".\\Generated_Source\\PSoC4\\LED0_PM.c"
   1:.\Generated_Source\PSoC4/LED0_PM.c **** /*******************************************************************************
   2:.\Generated_Source\PSoC4/LED0_PM.c **** * File Name: LED0_PM.c
   3:.\Generated_Source\PSoC4/LED0_PM.c **** * Version 2.20
   4:.\Generated_Source\PSoC4/LED0_PM.c **** *
   5:.\Generated_Source\PSoC4/LED0_PM.c **** * Description:
   6:.\Generated_Source\PSoC4/LED0_PM.c **** *  This file provides Sleep/WakeUp APIs functionality of the PrISM component
   7:.\Generated_Source\PSoC4/LED0_PM.c **** *
   8:.\Generated_Source\PSoC4/LED0_PM.c **** * Note:
   9:.\Generated_Source\PSoC4/LED0_PM.c **** *
  10:.\Generated_Source\PSoC4/LED0_PM.c **** ********************************************************************************
  11:.\Generated_Source\PSoC4/LED0_PM.c **** * Copyright 2008-2012, Cypress Semiconductor Corporation.  All rights reserved.
  12:.\Generated_Source\PSoC4/LED0_PM.c **** * You may use this file only in accordance with the license, terms, conditions, 
  13:.\Generated_Source\PSoC4/LED0_PM.c **** * disclaimers, and limitations in the end user license agreement accompanying 
  14:.\Generated_Source\PSoC4/LED0_PM.c **** * the software package with which this file was provided.
  15:.\Generated_Source\PSoC4/LED0_PM.c **** *******************************************************************************/
  16:.\Generated_Source\PSoC4/LED0_PM.c **** 
  17:.\Generated_Source\PSoC4/LED0_PM.c **** #include "LED0.h"
  18:.\Generated_Source\PSoC4/LED0_PM.c **** 
  19:.\Generated_Source\PSoC4/LED0_PM.c **** 
  20:.\Generated_Source\PSoC4/LED0_PM.c **** /***************************************
  21:.\Generated_Source\PSoC4/LED0_PM.c **** * Local data allocation
  22:.\Generated_Source\PSoC4/LED0_PM.c **** ***************************************/
  23:.\Generated_Source\PSoC4/LED0_PM.c **** static LED0_BACKUP_STRUCT  LED0_backup = 
  24:.\Generated_Source\PSoC4/LED0_PM.c **** {
  25:.\Generated_Source\PSoC4/LED0_PM.c ****     /* enableState */
  26:.\Generated_Source\PSoC4/LED0_PM.c ****     0u,
  27:.\Generated_Source\PSoC4/LED0_PM.c ****     /* cr */
  28:.\Generated_Source\PSoC4/LED0_PM.c ****     #if(!LED0_PULSE_TYPE_HARDCODED)
  29:.\Generated_Source\PSoC4/LED0_PM.c ****        (((LED0_GREATERTHAN_OR_EQUAL == LED0_COMPARE0) ? \
  30:.\Generated_Source\PSoC4/LED0_PM.c ****                                                 LED0_CTRL_COMPARE_TYPE0_GREATER_THAN_OR_EQUAL : 0u)
  31:.\Generated_Source\PSoC4/LED0_PM.c ****         ((LED0_GREATERTHAN_OR_EQUAL == LED0_COMPARE1) ? \
  32:.\Generated_Source\PSoC4/LED0_PM.c ****                                                 LED0_CTRL_COMPARE_TYPE1_GREATER_THAN_OR_EQUAL : 0u)
ARM GAS  C:\Users\CHUCK~1.ERH\AppData\Local\Temp\ccS3ojsf.s 			page 2


  33:.\Generated_Source\PSoC4/LED0_PM.c ****     #endif /* End LED0_PULSE_TYPE_HARDCODED */
  34:.\Generated_Source\PSoC4/LED0_PM.c ****     /* seed */    
  35:.\Generated_Source\PSoC4/LED0_PM.c ****     LED0_SEED,
  36:.\Generated_Source\PSoC4/LED0_PM.c ****     /* seed_copy */    
  37:.\Generated_Source\PSoC4/LED0_PM.c ****     LED0_SEED,
  38:.\Generated_Source\PSoC4/LED0_PM.c ****     /* polynom */
  39:.\Generated_Source\PSoC4/LED0_PM.c ****     LED0_POLYNOM,
  40:.\Generated_Source\PSoC4/LED0_PM.c ****     #if(CY_UDB_V0)
  41:.\Generated_Source\PSoC4/LED0_PM.c ****         /* density0 */
  42:.\Generated_Source\PSoC4/LED0_PM.c ****         LED0_DENSITY0,
  43:.\Generated_Source\PSoC4/LED0_PM.c ****         /* density1 */
  44:.\Generated_Source\PSoC4/LED0_PM.c ****         LED0_DENSITY1,
  45:.\Generated_Source\PSoC4/LED0_PM.c ****     #endif /*End CY_UDB_V0*/
  46:.\Generated_Source\PSoC4/LED0_PM.c **** };
  47:.\Generated_Source\PSoC4/LED0_PM.c **** 
  48:.\Generated_Source\PSoC4/LED0_PM.c **** 
  49:.\Generated_Source\PSoC4/LED0_PM.c **** /*******************************************************************************
  50:.\Generated_Source\PSoC4/LED0_PM.c **** * Function Name: LED0_SaveConfig
  51:.\Generated_Source\PSoC4/LED0_PM.c **** ********************************************************************************
  52:.\Generated_Source\PSoC4/LED0_PM.c **** *
  53:.\Generated_Source\PSoC4/LED0_PM.c **** * Summary:
  54:.\Generated_Source\PSoC4/LED0_PM.c **** *  Saves the current user configuration.
  55:.\Generated_Source\PSoC4/LED0_PM.c **** *  
  56:.\Generated_Source\PSoC4/LED0_PM.c **** * Parameters:  
  57:.\Generated_Source\PSoC4/LED0_PM.c **** *  None.
  58:.\Generated_Source\PSoC4/LED0_PM.c **** *
  59:.\Generated_Source\PSoC4/LED0_PM.c **** * Return: 
  60:.\Generated_Source\PSoC4/LED0_PM.c **** *  None.
  61:.\Generated_Source\PSoC4/LED0_PM.c **** *
  62:.\Generated_Source\PSoC4/LED0_PM.c **** * Global Variables:
  63:.\Generated_Source\PSoC4/LED0_PM.c **** *  LED0_backup - modified when non-retention registers are saved.
  64:.\Generated_Source\PSoC4/LED0_PM.c **** *
  65:.\Generated_Source\PSoC4/LED0_PM.c **** * Reentrant:
  66:.\Generated_Source\PSoC4/LED0_PM.c **** *  No.
  67:.\Generated_Source\PSoC4/LED0_PM.c **** *
  68:.\Generated_Source\PSoC4/LED0_PM.c **** *******************************************************************************/
  69:.\Generated_Source\PSoC4/LED0_PM.c **** void LED0_SaveConfig(void) 
  70:.\Generated_Source\PSoC4/LED0_PM.c **** {
  26              		.loc 1 70 0
  27              		.cfi_startproc
  28 0000 10B5     		push	{r4, lr}
  29              	.LCFI0:
  30              		.cfi_def_cfa_offset 8
  31              		.cfi_offset 4, -8
  32              		.cfi_offset 14, -4
  71:.\Generated_Source\PSoC4/LED0_PM.c ****     #if (CY_UDB_V0)
  72:.\Generated_Source\PSoC4/LED0_PM.c ****         #if(!LED0_PULSE_TYPE_HARDCODED)
  73:.\Generated_Source\PSoC4/LED0_PM.c ****             LED0_backup.cr = LED0_CONTROL_REG;
  74:.\Generated_Source\PSoC4/LED0_PM.c ****         #endif /* End LED0_PULSE_TYPE_HARDCODED */
  75:.\Generated_Source\PSoC4/LED0_PM.c ****         LED0_backup.seed = LED0_ReadSeed();
  76:.\Generated_Source\PSoC4/LED0_PM.c ****         LED0_backup.seed_copy = CY_GET_REG8(LED0_SEED_COPY_PTR);
  77:.\Generated_Source\PSoC4/LED0_PM.c ****         LED0_backup.polynom = LED0_ReadPolynomial();
  78:.\Generated_Source\PSoC4/LED0_PM.c ****         LED0_backup.density0 = LED0_ReadPulse0();
  79:.\Generated_Source\PSoC4/LED0_PM.c ****         LED0_backup.density1 = LED0_ReadPulse1();
  80:.\Generated_Source\PSoC4/LED0_PM.c ****     #else /* CY_UDB_V1 */
  81:.\Generated_Source\PSoC4/LED0_PM.c ****         #if(!LED0_PULSE_TYPE_HARDCODED)
  82:.\Generated_Source\PSoC4/LED0_PM.c ****             LED0_backup.cr = LED0_CONTROL_REG;
ARM GAS  C:\Users\CHUCK~1.ERH\AppData\Local\Temp\ccS3ojsf.s 			page 3


  33              		.loc 1 82 0
  34 0002 074B     		ldr	r3, .L2
  35 0004 074C     		ldr	r4, .L2+4
  36 0006 1878     		ldrb	r0, [r3]
  83:.\Generated_Source\PSoC4/LED0_PM.c ****         #endif /* End LED0_PULSE_TYPE_HARDCODED */
  84:.\Generated_Source\PSoC4/LED0_PM.c ****         LED0_backup.seed = LED0_ReadSeed();
  85:.\Generated_Source\PSoC4/LED0_PM.c ****         LED0_backup.seed_copy = CY_GET_REG8(LED0_SEED_COPY_PTR);
  86:.\Generated_Source\PSoC4/LED0_PM.c ****         LED0_backup.polynom = LED0_ReadPolynomial();
  87:.\Generated_Source\PSoC4/LED0_PM.c ****     #endif  /* CY_UDB_V0 */
  88:.\Generated_Source\PSoC4/LED0_PM.c **** }
  37              		.loc 1 88 0
  38              		@ sp needed for prologue
  82:.\Generated_Source\PSoC4/LED0_PM.c ****             LED0_backup.cr = LED0_CONTROL_REG;
  39              		.loc 1 82 0
  40 0008 6070     		strb	r0, [r4, #1]
  84:.\Generated_Source\PSoC4/LED0_PM.c ****         LED0_backup.seed = LED0_ReadSeed();
  41              		.loc 1 84 0
  42 000a FFF7FEFF 		bl	LED0_ReadSeed
  43              	.LVL0:
  85:.\Generated_Source\PSoC4/LED0_PM.c ****         LED0_backup.seed_copy = CY_GET_REG8(LED0_SEED_COPY_PTR);
  44              		.loc 1 85 0
  45 000e 0649     		ldr	r1, .L2+8
  84:.\Generated_Source\PSoC4/LED0_PM.c ****         LED0_backup.seed = LED0_ReadSeed();
  46              		.loc 1 84 0
  47 0010 A070     		strb	r0, [r4, #2]
  85:.\Generated_Source\PSoC4/LED0_PM.c ****         LED0_backup.seed_copy = CY_GET_REG8(LED0_SEED_COPY_PTR);
  48              		.loc 1 85 0
  49 0012 0A78     		ldrb	r2, [r1]
  50 0014 E270     		strb	r2, [r4, #3]
  86:.\Generated_Source\PSoC4/LED0_PM.c ****         LED0_backup.polynom = LED0_ReadPolynomial();
  51              		.loc 1 86 0
  52 0016 FFF7FEFF 		bl	LED0_ReadPolynomial
  53              	.LVL1:
  54 001a 2071     		strb	r0, [r4, #4]
  55              		.loc 1 88 0
  56 001c 10BD     		pop	{r4, pc}
  57              	.L3:
  58 001e C046     		.align	2
  59              	.L2:
  60 0020 73000F40 		.word	1074724979
  61 0024 00000000 		.word	.LANCHOR0
  62 0028 43000F40 		.word	1074724931
  63              		.cfi_endproc
  64              	.LFE0:
  65              		.size	LED0_SaveConfig, .-LED0_SaveConfig
  66              		.section	.text.LED0_RestoreConfig,"ax",%progbits
  67              		.align	1
  68              		.global	LED0_RestoreConfig
  69              		.code	16
  70              		.thumb_func
  71              		.type	LED0_RestoreConfig, %function
  72              	LED0_RestoreConfig:
  73              	.LFB1:
  89:.\Generated_Source\PSoC4/LED0_PM.c **** 
  90:.\Generated_Source\PSoC4/LED0_PM.c **** 
  91:.\Generated_Source\PSoC4/LED0_PM.c **** /*******************************************************************************
  92:.\Generated_Source\PSoC4/LED0_PM.c **** * Function Name: LED0_RestoreConfig
ARM GAS  C:\Users\CHUCK~1.ERH\AppData\Local\Temp\ccS3ojsf.s 			page 4


  93:.\Generated_Source\PSoC4/LED0_PM.c **** ********************************************************************************
  94:.\Generated_Source\PSoC4/LED0_PM.c **** *
  95:.\Generated_Source\PSoC4/LED0_PM.c **** * Summary:
  96:.\Generated_Source\PSoC4/LED0_PM.c **** *  Restores the current user configuration.
  97:.\Generated_Source\PSoC4/LED0_PM.c **** *
  98:.\Generated_Source\PSoC4/LED0_PM.c **** * Parameters:  
  99:.\Generated_Source\PSoC4/LED0_PM.c **** *  None.
 100:.\Generated_Source\PSoC4/LED0_PM.c **** *
 101:.\Generated_Source\PSoC4/LED0_PM.c **** * Return: 
 102:.\Generated_Source\PSoC4/LED0_PM.c **** *  None.
 103:.\Generated_Source\PSoC4/LED0_PM.c **** *
 104:.\Generated_Source\PSoC4/LED0_PM.c **** * Global Variables:
 105:.\Generated_Source\PSoC4/LED0_PM.c **** *  LED0_backup - used when non-retention registers are restored.
 106:.\Generated_Source\PSoC4/LED0_PM.c **** *
 107:.\Generated_Source\PSoC4/LED0_PM.c **** *******************************************************************************/
 108:.\Generated_Source\PSoC4/LED0_PM.c **** void LED0_RestoreConfig(void) 
 109:.\Generated_Source\PSoC4/LED0_PM.c **** {
  74              		.loc 1 109 0
  75              		.cfi_startproc
  76 0000 08B5     		push	{r3, lr}
  77              	.LCFI1:
  78              		.cfi_def_cfa_offset 8
  79              		.cfi_offset 3, -8
  80              		.cfi_offset 14, -4
 110:.\Generated_Source\PSoC4/LED0_PM.c ****     #if (CY_UDB_V0)
 111:.\Generated_Source\PSoC4/LED0_PM.c ****     
 112:.\Generated_Source\PSoC4/LED0_PM.c ****         uint8 enableInterrupts;
 113:.\Generated_Source\PSoC4/LED0_PM.c ****         
 114:.\Generated_Source\PSoC4/LED0_PM.c ****         #if(!LED0_PULSE_TYPE_HARDCODED)
 115:.\Generated_Source\PSoC4/LED0_PM.c ****             LED0_CONTROL_REG = LED0_backup.cr;
 116:.\Generated_Source\PSoC4/LED0_PM.c ****         #endif /* End LED0_PULSE_TYPE_HARDCODED */
 117:.\Generated_Source\PSoC4/LED0_PM.c **** 
 118:.\Generated_Source\PSoC4/LED0_PM.c ****         CY_SET_REG8(LED0_SEED_COPY_PTR, LED0_backup.seed_copy);
 119:.\Generated_Source\PSoC4/LED0_PM.c ****         CY_SET_REG8(LED0_SEED_PTR, LED0_backup.seed);
 120:.\Generated_Source\PSoC4/LED0_PM.c ****         LED0_WritePolynomial(LED0_backup.polynom);
 121:.\Generated_Source\PSoC4/LED0_PM.c ****         LED0_WritePulse0(LED0_backup.density0);
 122:.\Generated_Source\PSoC4/LED0_PM.c ****         LED0_WritePulse1(LED0_backup.density1);
 123:.\Generated_Source\PSoC4/LED0_PM.c ****         
 124:.\Generated_Source\PSoC4/LED0_PM.c ****         enableInterrupts = CyEnterCriticalSection();
 125:.\Generated_Source\PSoC4/LED0_PM.c ****         /* Set FIFO0_CLR bit to use FIFO0 as a simple one-byte buffer*/
 126:.\Generated_Source\PSoC4/LED0_PM.c ****         CY_SET_REG8(LED0_AUX_CONTROL_PTR, 
 127:.\Generated_Source\PSoC4/LED0_PM.c ****                         CY_GET_REG8(LED0_AUX_CONTROL_PTR) | LED0_FIFO0_CLR);
 128:.\Generated_Source\PSoC4/LED0_PM.c ****         CyExitCriticalSection(enableInterrupts);
 129:.\Generated_Source\PSoC4/LED0_PM.c **** 
 130:.\Generated_Source\PSoC4/LED0_PM.c ****     #else   /* CY_UDB_V1 */
 131:.\Generated_Source\PSoC4/LED0_PM.c **** 
 132:.\Generated_Source\PSoC4/LED0_PM.c ****         #if(!LED0_PULSE_TYPE_HARDCODED)
 133:.\Generated_Source\PSoC4/LED0_PM.c ****             LED0_CONTROL_REG = LED0_backup.cr;
  81              		.loc 1 133 0
  82 0002 074B     		ldr	r3, .L5
  83 0004 074A     		ldr	r2, .L5+4
  84 0006 5978     		ldrb	r1, [r3, #1]
 134:.\Generated_Source\PSoC4/LED0_PM.c ****         #endif /* End LED0_PULSE_TYPE_HARDCODED */
 135:.\Generated_Source\PSoC4/LED0_PM.c **** 
 136:.\Generated_Source\PSoC4/LED0_PM.c ****         CY_SET_REG8(LED0_SEED_COPY_PTR, LED0_backup.seed_copy);
 137:.\Generated_Source\PSoC4/LED0_PM.c ****         CY_SET_REG8(LED0_SEED_PTR, LED0_backup.seed);
 138:.\Generated_Source\PSoC4/LED0_PM.c ****         LED0_WritePolynomial(LED0_backup.polynom);
ARM GAS  C:\Users\CHUCK~1.ERH\AppData\Local\Temp\ccS3ojsf.s 			page 5


 139:.\Generated_Source\PSoC4/LED0_PM.c ****     
 140:.\Generated_Source\PSoC4/LED0_PM.c ****     #endif  /* End CY_UDB_V0 */
 141:.\Generated_Source\PSoC4/LED0_PM.c **** }
  85              		.loc 1 141 0
  86              		@ sp needed for prologue
 133:.\Generated_Source\PSoC4/LED0_PM.c ****             LED0_CONTROL_REG = LED0_backup.cr;
  87              		.loc 1 133 0
  88 0008 1170     		strb	r1, [r2]
 136:.\Generated_Source\PSoC4/LED0_PM.c ****         CY_SET_REG8(LED0_SEED_COPY_PTR, LED0_backup.seed_copy);
  89              		.loc 1 136 0
  90 000a D878     		ldrb	r0, [r3, #3]
  91 000c 0649     		ldr	r1, .L5+8
 137:.\Generated_Source\PSoC4/LED0_PM.c ****         CY_SET_REG8(LED0_SEED_PTR, LED0_backup.seed);
  92              		.loc 1 137 0
  93 000e 074A     		ldr	r2, .L5+12
 136:.\Generated_Source\PSoC4/LED0_PM.c ****         CY_SET_REG8(LED0_SEED_COPY_PTR, LED0_backup.seed_copy);
  94              		.loc 1 136 0
  95 0010 0870     		strb	r0, [r1]
 137:.\Generated_Source\PSoC4/LED0_PM.c ****         CY_SET_REG8(LED0_SEED_PTR, LED0_backup.seed);
  96              		.loc 1 137 0
  97 0012 9878     		ldrb	r0, [r3, #2]
  98 0014 1070     		strb	r0, [r2]
 138:.\Generated_Source\PSoC4/LED0_PM.c ****         LED0_WritePolynomial(LED0_backup.polynom);
  99              		.loc 1 138 0
 100 0016 1879     		ldrb	r0, [r3, #4]
 101 0018 FFF7FEFF 		bl	LED0_WritePolynomial
 102              	.LVL2:
 103              		.loc 1 141 0
 104 001c 08BD     		pop	{r3, pc}
 105              	.L6:
 106 001e C046     		.align	2
 107              	.L5:
 108 0020 00000000 		.word	.LANCHOR0
 109 0024 73000F40 		.word	1074724979
 110 0028 43000F40 		.word	1074724931
 111 002c 03000F40 		.word	1074724867
 112              		.cfi_endproc
 113              	.LFE1:
 114              		.size	LED0_RestoreConfig, .-LED0_RestoreConfig
 115              		.section	.text.LED0_Sleep,"ax",%progbits
 116              		.align	1
 117              		.global	LED0_Sleep
 118              		.code	16
 119              		.thumb_func
 120              		.type	LED0_Sleep, %function
 121              	LED0_Sleep:
 122              	.LFB2:
 142:.\Generated_Source\PSoC4/LED0_PM.c **** 
 143:.\Generated_Source\PSoC4/LED0_PM.c **** 
 144:.\Generated_Source\PSoC4/LED0_PM.c **** /*******************************************************************************
 145:.\Generated_Source\PSoC4/LED0_PM.c **** * Function Name: LED0_Sleep
 146:.\Generated_Source\PSoC4/LED0_PM.c **** ********************************************************************************
 147:.\Generated_Source\PSoC4/LED0_PM.c **** *
 148:.\Generated_Source\PSoC4/LED0_PM.c **** * Summary:
 149:.\Generated_Source\PSoC4/LED0_PM.c **** *  Stops and saves the user configuration
 150:.\Generated_Source\PSoC4/LED0_PM.c **** *  
 151:.\Generated_Source\PSoC4/LED0_PM.c **** * Parameters:  
ARM GAS  C:\Users\CHUCK~1.ERH\AppData\Local\Temp\ccS3ojsf.s 			page 6


 152:.\Generated_Source\PSoC4/LED0_PM.c **** *  None.
 153:.\Generated_Source\PSoC4/LED0_PM.c **** *
 154:.\Generated_Source\PSoC4/LED0_PM.c **** * Return: 
 155:.\Generated_Source\PSoC4/LED0_PM.c **** *  None.
 156:.\Generated_Source\PSoC4/LED0_PM.c **** *
 157:.\Generated_Source\PSoC4/LED0_PM.c **** * Global Variables:
 158:.\Generated_Source\PSoC4/LED0_PM.c **** *  LED0_backup - modified when non-retention registers are saved.
 159:.\Generated_Source\PSoC4/LED0_PM.c **** *
 160:.\Generated_Source\PSoC4/LED0_PM.c **** * Reentrant:
 161:.\Generated_Source\PSoC4/LED0_PM.c **** *  No.
 162:.\Generated_Source\PSoC4/LED0_PM.c **** *
 163:.\Generated_Source\PSoC4/LED0_PM.c **** *******************************************************************************/
 164:.\Generated_Source\PSoC4/LED0_PM.c **** void LED0_Sleep(void) 
 165:.\Generated_Source\PSoC4/LED0_PM.c **** {
 123              		.loc 1 165 0
 124              		.cfi_startproc
 125 0000 08B5     		push	{r3, lr}
 126              	.LCFI2:
 127              		.cfi_def_cfa_offset 8
 128              		.cfi_offset 3, -8
 129              		.cfi_offset 14, -4
 166:.\Generated_Source\PSoC4/LED0_PM.c ****     #if(!LED0_PULSE_TYPE_HARDCODED)
 167:.\Generated_Source\PSoC4/LED0_PM.c ****         if((LED0_CONTROL_REG & LED0_CTRL_ENABLE) != 0u) 
 130              		.loc 1 167 0
 131 0002 074B     		ldr	r3, .L11
 132 0004 0121     		mov	r1, #1
 133 0006 1A78     		ldrb	r2, [r3]
 134 0008 0648     		ldr	r0, .L11+4
 135 000a 0A40     		and	r2, r1
 136 000c 01D0     		beq	.L8
 168:.\Generated_Source\PSoC4/LED0_PM.c ****         {
 169:.\Generated_Source\PSoC4/LED0_PM.c ****             LED0_backup.enableState = 1u;
 137              		.loc 1 169 0
 138 000e 0170     		strb	r1, [r0]
 139 0010 00E0     		b	.L9
 140              	.L8:
 170:.\Generated_Source\PSoC4/LED0_PM.c ****         }
 171:.\Generated_Source\PSoC4/LED0_PM.c ****         else
 172:.\Generated_Source\PSoC4/LED0_PM.c ****         {
 173:.\Generated_Source\PSoC4/LED0_PM.c ****             LED0_backup.enableState = 0u;
 141              		.loc 1 173 0
 142 0012 0270     		strb	r2, [r0]
 143              	.L9:
 174:.\Generated_Source\PSoC4/LED0_PM.c ****         }
 175:.\Generated_Source\PSoC4/LED0_PM.c ****     #endif /* End LED0_PULSE_TYPE_HARDCODED */
 176:.\Generated_Source\PSoC4/LED0_PM.c ****     LED0_Stop();
 144              		.loc 1 176 0
 145 0014 FFF7FEFF 		bl	LED0_Stop
 146              	.LVL3:
 177:.\Generated_Source\PSoC4/LED0_PM.c ****     LED0_SaveConfig();
 178:.\Generated_Source\PSoC4/LED0_PM.c **** }
 147              		.loc 1 178 0
 148              		@ sp needed for prologue
 177:.\Generated_Source\PSoC4/LED0_PM.c ****     LED0_SaveConfig();
 149              		.loc 1 177 0
 150 0018 FFF7FEFF 		bl	LED0_SaveConfig
 151              	.LVL4:
ARM GAS  C:\Users\CHUCK~1.ERH\AppData\Local\Temp\ccS3ojsf.s 			page 7


 152              		.loc 1 178 0
 153 001c 08BD     		pop	{r3, pc}
 154              	.L12:
 155 001e C046     		.align	2
 156              	.L11:
 157 0020 73000F40 		.word	1074724979
 158 0024 00000000 		.word	.LANCHOR0
 159              		.cfi_endproc
 160              	.LFE2:
 161              		.size	LED0_Sleep, .-LED0_Sleep
 162              		.section	.text.LED0_Wakeup,"ax",%progbits
 163              		.align	1
 164              		.global	LED0_Wakeup
 165              		.code	16
 166              		.thumb_func
 167              		.type	LED0_Wakeup, %function
 168              	LED0_Wakeup:
 169              	.LFB3:
 179:.\Generated_Source\PSoC4/LED0_PM.c **** 
 180:.\Generated_Source\PSoC4/LED0_PM.c **** 
 181:.\Generated_Source\PSoC4/LED0_PM.c **** /*******************************************************************************
 182:.\Generated_Source\PSoC4/LED0_PM.c **** * Function Name: LED0_Wakeup
 183:.\Generated_Source\PSoC4/LED0_PM.c **** ********************************************************************************
 184:.\Generated_Source\PSoC4/LED0_PM.c **** *
 185:.\Generated_Source\PSoC4/LED0_PM.c **** * Summary:
 186:.\Generated_Source\PSoC4/LED0_PM.c **** *  Restores and enables the user configuration
 187:.\Generated_Source\PSoC4/LED0_PM.c **** *  
 188:.\Generated_Source\PSoC4/LED0_PM.c **** * Parameters:  
 189:.\Generated_Source\PSoC4/LED0_PM.c **** *  None.
 190:.\Generated_Source\PSoC4/LED0_PM.c **** *
 191:.\Generated_Source\PSoC4/LED0_PM.c **** * Return: 
 192:.\Generated_Source\PSoC4/LED0_PM.c **** *  None.
 193:.\Generated_Source\PSoC4/LED0_PM.c **** *
 194:.\Generated_Source\PSoC4/LED0_PM.c **** * Global Variables:
 195:.\Generated_Source\PSoC4/LED0_PM.c **** *  LED0_backup - used when non-retention registers are restored.
 196:.\Generated_Source\PSoC4/LED0_PM.c **** *
 197:.\Generated_Source\PSoC4/LED0_PM.c **** *******************************************************************************/
 198:.\Generated_Source\PSoC4/LED0_PM.c **** void LED0_Wakeup(void) 
 199:.\Generated_Source\PSoC4/LED0_PM.c **** {
 170              		.loc 1 199 0
 171              		.cfi_startproc
 172 0000 08B5     		push	{r3, lr}
 173              	.LCFI3:
 174              		.cfi_def_cfa_offset 8
 175              		.cfi_offset 3, -8
 176              		.cfi_offset 14, -4
 200:.\Generated_Source\PSoC4/LED0_PM.c ****     LED0_RestoreConfig();
 177              		.loc 1 200 0
 178 0002 FFF7FEFF 		bl	LED0_RestoreConfig
 179              	.LVL5:
 201:.\Generated_Source\PSoC4/LED0_PM.c ****     if(LED0_backup.enableState != 0u)
 180              		.loc 1 201 0
 181 0006 034B     		ldr	r3, .L18
 182 0008 1878     		ldrb	r0, [r3]
 183 000a 0028     		cmp	r0, #0
 184 000c 01D0     		beq	.L13
 202:.\Generated_Source\PSoC4/LED0_PM.c ****     {
ARM GAS  C:\Users\CHUCK~1.ERH\AppData\Local\Temp\ccS3ojsf.s 			page 8


 203:.\Generated_Source\PSoC4/LED0_PM.c ****         LED0_Enable();
 185              		.loc 1 203 0
 186 000e FFF7FEFF 		bl	LED0_Enable
 187              	.LVL6:
 188              	.L13:
 204:.\Generated_Source\PSoC4/LED0_PM.c ****     } 
 205:.\Generated_Source\PSoC4/LED0_PM.c **** }
 189              		.loc 1 205 0
 190              		@ sp needed for prologue
 191 0012 08BD     		pop	{r3, pc}
 192              	.L19:
 193              		.align	2
 194              	.L18:
 195 0014 00000000 		.word	.LANCHOR0
 196              		.cfi_endproc
 197              	.LFE3:
 198              		.size	LED0_Wakeup, .-LED0_Wakeup
 199              		.data
 200              		.set	.LANCHOR0,. + 0
 201              		.type	LED0_backup, %object
 202              		.size	LED0_backup, 5
 203              	LED0_backup:
 204 0000 00       		.byte	0
 205 0001 00       		.byte	0
 206 0002 FF       		.byte	-1
 207 0003 FF       		.byte	-1
 208 0004 B8       		.byte	-72
 209              		.text
 210              	.Letext0:
 211              		.file 2 ".\\Generated_Source\\PSoC4\\cytypes.h"
 212              		.file 3 ".\\Generated_Source\\PSoC4\\LED0.h"