ARM GAS  C:\Users\CHUCK~1.ERH\AppData\Local\Temp\ccskf6Hg.s 			page 1


   1              		.cpu cortex-m0
   2              		.fpu softvfp
   3              		.eabi_attribute 20, 1
   4              		.eabi_attribute 21, 1
   5              		.eabi_attribute 23, 3
   6              		.eabi_attribute 24, 1
   7              		.eabi_attribute 25, 1
   8              		.eabi_attribute 26, 1
   9              		.eabi_attribute 30, 4
  10              		.eabi_attribute 34, 0
  11              		.eabi_attribute 18, 4
  12              		.code	16
  13              		.file	"LED1.c"
  14              		.text
  15              	.Ltext0:
  16              		.cfi_sections	.debug_frame
  17              		.section	.text.LED1_Init,"ax",%progbits
  18              		.align	1
  19              		.global	LED1_Init
  20              		.code	16
  21              		.thumb_func
  22              		.type	LED1_Init, %function
  23              	LED1_Init:
  24              	.LFB1:
  25              		.file 1 ".\\Generated_Source\\PSoC4\\LED1.c"
   1:.\Generated_Source\PSoC4/LED1.c **** /*******************************************************************************
   2:.\Generated_Source\PSoC4/LED1.c **** * File Name: LED1.c
   3:.\Generated_Source\PSoC4/LED1.c **** * Version 2.20
   4:.\Generated_Source\PSoC4/LED1.c **** *
   5:.\Generated_Source\PSoC4/LED1.c **** * Description:
   6:.\Generated_Source\PSoC4/LED1.c **** *  This file provides the source code of the API for the PrISM Component.
   7:.\Generated_Source\PSoC4/LED1.c **** *
   8:.\Generated_Source\PSoC4/LED1.c **** * Note:
   9:.\Generated_Source\PSoC4/LED1.c **** *  The PRiSM Component consists of a 8, 16, 24, 32 - bit PrISM, it
  10:.\Generated_Source\PSoC4/LED1.c **** *  depends on length Polynomial value and user selected Seed Value. 
  11:.\Generated_Source\PSoC4/LED1.c **** *
  12:.\Generated_Source\PSoC4/LED1.c **** ********************************************************************************
  13:.\Generated_Source\PSoC4/LED1.c **** * Copyright 2008-2012, Cypress Semiconductor Corporation.  All rights reserved.
  14:.\Generated_Source\PSoC4/LED1.c **** * You may use this file only in accordance with the license, terms, conditions, 
  15:.\Generated_Source\PSoC4/LED1.c **** * disclaimers, and limitations in the end user license agreement accompanying 
  16:.\Generated_Source\PSoC4/LED1.c **** * the software package with which this file was provided.
  17:.\Generated_Source\PSoC4/LED1.c **** *******************************************************************************/
  18:.\Generated_Source\PSoC4/LED1.c **** 
  19:.\Generated_Source\PSoC4/LED1.c **** #include "LED1.h"
  20:.\Generated_Source\PSoC4/LED1.c **** 
  21:.\Generated_Source\PSoC4/LED1.c **** 
  22:.\Generated_Source\PSoC4/LED1.c **** /***************************************
  23:.\Generated_Source\PSoC4/LED1.c **** * Local data allocation
  24:.\Generated_Source\PSoC4/LED1.c **** ***************************************/
  25:.\Generated_Source\PSoC4/LED1.c **** 
  26:.\Generated_Source\PSoC4/LED1.c **** uint8 LED1_initVar = 0u;
  27:.\Generated_Source\PSoC4/LED1.c **** 
  28:.\Generated_Source\PSoC4/LED1.c **** 
  29:.\Generated_Source\PSoC4/LED1.c **** /*******************************************************************************
  30:.\Generated_Source\PSoC4/LED1.c **** * FUNCTION NAME:   LED1_Start
  31:.\Generated_Source\PSoC4/LED1.c **** ********************************************************************************
  32:.\Generated_Source\PSoC4/LED1.c **** *
ARM GAS  C:\Users\CHUCK~1.ERH\AppData\Local\Temp\ccskf6Hg.s 			page 2


  33:.\Generated_Source\PSoC4/LED1.c **** * Summary:
  34:.\Generated_Source\PSoC4/LED1.c **** *  The start function sets Polynomial, Seed and Pulse Density registers provided
  35:.\Generated_Source\PSoC4/LED1.c **** *  by customizer. PrISM computation starts on rising edge of input clock.
  36:.\Generated_Source\PSoC4/LED1.c **** *
  37:.\Generated_Source\PSoC4/LED1.c **** * Parameters:  
  38:.\Generated_Source\PSoC4/LED1.c **** *  None.
  39:.\Generated_Source\PSoC4/LED1.c **** *
  40:.\Generated_Source\PSoC4/LED1.c **** * Return:  
  41:.\Generated_Source\PSoC4/LED1.c **** *  None.
  42:.\Generated_Source\PSoC4/LED1.c **** *
  43:.\Generated_Source\PSoC4/LED1.c **** * Global variables:
  44:.\Generated_Source\PSoC4/LED1.c **** *  The LED1_initVar variable is used to indicate initial
  45:.\Generated_Source\PSoC4/LED1.c **** *  configuration of this component.  The variable is initialized to zero and
  46:.\Generated_Source\PSoC4/LED1.c **** *  set to 1 the first time LED1_Start() is called. This allows for
  47:.\Generated_Source\PSoC4/LED1.c **** *  component initialization without re-initialization in all subsequent calls
  48:.\Generated_Source\PSoC4/LED1.c **** *  to the LED1_Start() routine. 
  49:.\Generated_Source\PSoC4/LED1.c **** 
  50:.\Generated_Source\PSoC4/LED1.c **** * Reentrant:
  51:.\Generated_Source\PSoC4/LED1.c **** *  No.
  52:.\Generated_Source\PSoC4/LED1.c **** *
  53:.\Generated_Source\PSoC4/LED1.c **** *******************************************************************************/
  54:.\Generated_Source\PSoC4/LED1.c **** void LED1_Start(void) 
  55:.\Generated_Source\PSoC4/LED1.c **** {
  56:.\Generated_Source\PSoC4/LED1.c ****     /* If not Initialized then initialize all required hardware and software */
  57:.\Generated_Source\PSoC4/LED1.c ****     if(LED1_initVar == 0u)
  58:.\Generated_Source\PSoC4/LED1.c ****     {
  59:.\Generated_Source\PSoC4/LED1.c ****         LED1_Init();
  60:.\Generated_Source\PSoC4/LED1.c ****         LED1_initVar = 1u;
  61:.\Generated_Source\PSoC4/LED1.c ****     }
  62:.\Generated_Source\PSoC4/LED1.c ****     LED1_Enable();
  63:.\Generated_Source\PSoC4/LED1.c **** }
  64:.\Generated_Source\PSoC4/LED1.c **** 
  65:.\Generated_Source\PSoC4/LED1.c **** 
  66:.\Generated_Source\PSoC4/LED1.c **** /*******************************************************************************
  67:.\Generated_Source\PSoC4/LED1.c **** * Function Name: LED1_Init
  68:.\Generated_Source\PSoC4/LED1.c **** ********************************************************************************
  69:.\Generated_Source\PSoC4/LED1.c **** *
  70:.\Generated_Source\PSoC4/LED1.c **** * Summary:
  71:.\Generated_Source\PSoC4/LED1.c **** *  Initialize component's parameters to the parameters set by user in the 
  72:.\Generated_Source\PSoC4/LED1.c **** *  customizer of the component placed onto schematic. Usually called in 
  73:.\Generated_Source\PSoC4/LED1.c **** *  LED1_Start().
  74:.\Generated_Source\PSoC4/LED1.c **** *
  75:.\Generated_Source\PSoC4/LED1.c **** * Parameters:  
  76:.\Generated_Source\PSoC4/LED1.c **** *  None.
  77:.\Generated_Source\PSoC4/LED1.c **** *
  78:.\Generated_Source\PSoC4/LED1.c **** * Return: 
  79:.\Generated_Source\PSoC4/LED1.c **** *  None.
  80:.\Generated_Source\PSoC4/LED1.c **** *
  81:.\Generated_Source\PSoC4/LED1.c **** *******************************************************************************/
  82:.\Generated_Source\PSoC4/LED1.c **** void LED1_Init(void) 
  83:.\Generated_Source\PSoC4/LED1.c **** {
  26              		.loc 1 83 0
  27              		.cfi_startproc
  28              	.LVL0:
  29              	.LBB16:
  30              	.LBB17:
  84:.\Generated_Source\PSoC4/LED1.c ****     uint8 enableInterrupts;
ARM GAS  C:\Users\CHUCK~1.ERH\AppData\Local\Temp\ccskf6Hg.s 			page 3


  85:.\Generated_Source\PSoC4/LED1.c ****     
  86:.\Generated_Source\PSoC4/LED1.c ****     /* Writes Seed value, polynom value and density provided by customizer */
  87:.\Generated_Source\PSoC4/LED1.c ****     LED1_WriteSeed(LED1_SEED);
  88:.\Generated_Source\PSoC4/LED1.c ****     LED1_WritePolynomial(LED1_POLYNOM);
  89:.\Generated_Source\PSoC4/LED1.c ****     LED1_WritePulse0(LED1_DENSITY0);
  90:.\Generated_Source\PSoC4/LED1.c ****     LED1_WritePulse1(LED1_DENSITY1);
  91:.\Generated_Source\PSoC4/LED1.c ****     
  92:.\Generated_Source\PSoC4/LED1.c ****     enableInterrupts = CyEnterCriticalSection();
  93:.\Generated_Source\PSoC4/LED1.c ****     /* Set FIFO0_CLR bit to use FIFO0 as a simple one-byte buffer*/
  94:.\Generated_Source\PSoC4/LED1.c ****     CY_SET_REG8(LED1_AUX_CONTROL_PTR, 
  95:.\Generated_Source\PSoC4/LED1.c ****                         CY_GET_REG8(LED1_AUX_CONTROL_PTR) | LED1_FIFO0_CLR);
  96:.\Generated_Source\PSoC4/LED1.c ****     CyExitCriticalSection(enableInterrupts);
  97:.\Generated_Source\PSoC4/LED1.c ****     
  98:.\Generated_Source\PSoC4/LED1.c ****     #if(!LED1_PULSE_TYPE_HARDCODED)
  99:.\Generated_Source\PSoC4/LED1.c ****         /* Writes density type provided by customizer */
 100:.\Generated_Source\PSoC4/LED1.c ****         #if(LED1_GREATERTHAN_OR_EQUAL == LED1_COMPARE0)
 101:.\Generated_Source\PSoC4/LED1.c ****             LED1_CONTROL_REG |= LED1_CTRL_COMPARE_TYPE0_GREATER_THAN_OR_EQUAL;
 102:.\Generated_Source\PSoC4/LED1.c ****         #else
 103:.\Generated_Source\PSoC4/LED1.c ****             LED1_CONTROL_REG &= (uint8)~LED1_CTRL_COMPARE_TYPE0_GREATER_THAN_OR_EQUAL;
 104:.\Generated_Source\PSoC4/LED1.c ****         #endif /* End LED1_COMPARE0 */    
 105:.\Generated_Source\PSoC4/LED1.c ****     
 106:.\Generated_Source\PSoC4/LED1.c ****         #if(LED1_GREATERTHAN_OR_EQUAL == LED1_COMPARE1)
 107:.\Generated_Source\PSoC4/LED1.c ****             LED1_CONTROL_REG |= LED1_CTRL_COMPARE_TYPE1_GREATER_THAN_OR_EQUAL;
 108:.\Generated_Source\PSoC4/LED1.c ****         #else
 109:.\Generated_Source\PSoC4/LED1.c ****             LED1_CONTROL_REG &= (uint8)~LED1_CTRL_COMPARE_TYPE1_GREATER_THAN_OR_EQUAL;
 110:.\Generated_Source\PSoC4/LED1.c ****         #endif /* End LED1_COMPARE1 */    
 111:.\Generated_Source\PSoC4/LED1.c ****     #endif /* End LED1_PULSE_TYPE_HARDCODED */
 112:.\Generated_Source\PSoC4/LED1.c **** }
 113:.\Generated_Source\PSoC4/LED1.c **** 
 114:.\Generated_Source\PSoC4/LED1.c **** 
 115:.\Generated_Source\PSoC4/LED1.c **** /*******************************************************************************
 116:.\Generated_Source\PSoC4/LED1.c **** * Function Name: LED1_Enable
 117:.\Generated_Source\PSoC4/LED1.c **** ********************************************************************************
 118:.\Generated_Source\PSoC4/LED1.c **** *  
 119:.\Generated_Source\PSoC4/LED1.c **** * Summary: 
 120:.\Generated_Source\PSoC4/LED1.c **** *  Enables the PrISM block operation
 121:.\Generated_Source\PSoC4/LED1.c **** *
 122:.\Generated_Source\PSoC4/LED1.c **** * Parameters:  
 123:.\Generated_Source\PSoC4/LED1.c **** *  None.
 124:.\Generated_Source\PSoC4/LED1.c **** *
 125:.\Generated_Source\PSoC4/LED1.c **** * Return: 
 126:.\Generated_Source\PSoC4/LED1.c **** *  None.
 127:.\Generated_Source\PSoC4/LED1.c **** *
 128:.\Generated_Source\PSoC4/LED1.c **** *******************************************************************************/
 129:.\Generated_Source\PSoC4/LED1.c **** void LED1_Enable(void) 
 130:.\Generated_Source\PSoC4/LED1.c **** {
 131:.\Generated_Source\PSoC4/LED1.c ****     #if(!LED1_PULSE_TYPE_HARDCODED)
 132:.\Generated_Source\PSoC4/LED1.c ****         /* Enable the PrISM computation */
 133:.\Generated_Source\PSoC4/LED1.c ****         LED1_CONTROL_REG |= LED1_CTRL_ENABLE;
 134:.\Generated_Source\PSoC4/LED1.c ****     #endif /* End LED1_PULSE_TYPE_HARDCODED */
 135:.\Generated_Source\PSoC4/LED1.c **** }
 136:.\Generated_Source\PSoC4/LED1.c **** 
 137:.\Generated_Source\PSoC4/LED1.c **** 
 138:.\Generated_Source\PSoC4/LED1.c **** /*******************************************************************************
 139:.\Generated_Source\PSoC4/LED1.c **** * FUNCTION NAME:   LED1_Stop
 140:.\Generated_Source\PSoC4/LED1.c **** ********************************************************************************
 141:.\Generated_Source\PSoC4/LED1.c **** *
ARM GAS  C:\Users\CHUCK~1.ERH\AppData\Local\Temp\ccskf6Hg.s 			page 4


 142:.\Generated_Source\PSoC4/LED1.c **** * Summary:
 143:.\Generated_Source\PSoC4/LED1.c **** *  Stops PrISM computation. Outputs remain constant.
 144:.\Generated_Source\PSoC4/LED1.c **** *
 145:.\Generated_Source\PSoC4/LED1.c **** * Parameters:  
 146:.\Generated_Source\PSoC4/LED1.c **** *  None.
 147:.\Generated_Source\PSoC4/LED1.c **** *
 148:.\Generated_Source\PSoC4/LED1.c **** * Return: 
 149:.\Generated_Source\PSoC4/LED1.c **** *  None.
 150:.\Generated_Source\PSoC4/LED1.c **** *
 151:.\Generated_Source\PSoC4/LED1.c **** *******************************************************************************/
 152:.\Generated_Source\PSoC4/LED1.c **** void LED1_Stop(void) 
 153:.\Generated_Source\PSoC4/LED1.c **** {
 154:.\Generated_Source\PSoC4/LED1.c ****     #if(!LED1_PULSE_TYPE_HARDCODED)
 155:.\Generated_Source\PSoC4/LED1.c ****         LED1_CONTROL_REG &= (uint8)~LED1_CTRL_ENABLE;
 156:.\Generated_Source\PSoC4/LED1.c ****     #else
 157:.\Generated_Source\PSoC4/LED1.c ****         /* PulseTypeHardoded option enabled - to stop PrISM use enable input */
 158:.\Generated_Source\PSoC4/LED1.c ****     #endif /* End $INSTANCE_NAME`_PULSE_TYPE_HARDCODED */
 159:.\Generated_Source\PSoC4/LED1.c **** }
 160:.\Generated_Source\PSoC4/LED1.c **** 
 161:.\Generated_Source\PSoC4/LED1.c **** #if(!LED1_PULSE_TYPE_HARDCODED)
 162:.\Generated_Source\PSoC4/LED1.c **** 
 163:.\Generated_Source\PSoC4/LED1.c **** 
 164:.\Generated_Source\PSoC4/LED1.c ****     /***************************************************************************
 165:.\Generated_Source\PSoC4/LED1.c ****     * FUNCTION NAME:     LED1_SetPulse0Mode
 166:.\Generated_Source\PSoC4/LED1.c ****     ****************************************************************************
 167:.\Generated_Source\PSoC4/LED1.c ****     *
 168:.\Generated_Source\PSoC4/LED1.c ****     * Summary:
 169:.\Generated_Source\PSoC4/LED1.c ****     *  Sets the pulse density type for Density0. Less than or Equal(<=) or 
 170:.\Generated_Source\PSoC4/LED1.c ****     *  Greater than or Equal(>=).
 171:.\Generated_Source\PSoC4/LED1.c ****     *
 172:.\Generated_Source\PSoC4/LED1.c ****     * Parameters:
 173:.\Generated_Source\PSoC4/LED1.c ****     *  pulse0Type: Selected pulse density type.
 174:.\Generated_Source\PSoC4/LED1.c ****     *
 175:.\Generated_Source\PSoC4/LED1.c ****     * Return:
 176:.\Generated_Source\PSoC4/LED1.c ****     *  None.
 177:.\Generated_Source\PSoC4/LED1.c ****     *
 178:.\Generated_Source\PSoC4/LED1.c ****     ***************************************************************************/
 179:.\Generated_Source\PSoC4/LED1.c ****     void LED1_SetPulse0Mode(uint8 pulse0Type) 
 180:.\Generated_Source\PSoC4/LED1.c ****     {
 181:.\Generated_Source\PSoC4/LED1.c ****         if(pulse0Type == LED1_GREATERTHAN_OR_EQUAL)
 182:.\Generated_Source\PSoC4/LED1.c ****         {
 183:.\Generated_Source\PSoC4/LED1.c ****             LED1_CONTROL_REG |= LED1_CTRL_COMPARE_TYPE0_GREATER_THAN_OR_EQUAL;
 184:.\Generated_Source\PSoC4/LED1.c ****         }
 185:.\Generated_Source\PSoC4/LED1.c ****         else
 186:.\Generated_Source\PSoC4/LED1.c ****         {
 187:.\Generated_Source\PSoC4/LED1.c ****             LED1_CONTROL_REG &= (uint8)~LED1_CTRL_COMPARE_TYPE0_GREATER_THAN_OR_EQUAL;
 188:.\Generated_Source\PSoC4/LED1.c ****         }
 189:.\Generated_Source\PSoC4/LED1.c ****     }
 190:.\Generated_Source\PSoC4/LED1.c ****     
 191:.\Generated_Source\PSoC4/LED1.c ****     
 192:.\Generated_Source\PSoC4/LED1.c ****     /***************************************************************************
 193:.\Generated_Source\PSoC4/LED1.c ****     * FUNCTION NAME:   LED1_SetPulse1Mode
 194:.\Generated_Source\PSoC4/LED1.c ****     ****************************************************************************
 195:.\Generated_Source\PSoC4/LED1.c ****     *
 196:.\Generated_Source\PSoC4/LED1.c ****     * Summary:
 197:.\Generated_Source\PSoC4/LED1.c ****     *  Sets the pulse density type for Density1. Less than or Equal(<=) or 
 198:.\Generated_Source\PSoC4/LED1.c ****     *  Greater than or Equal(>=).
ARM GAS  C:\Users\CHUCK~1.ERH\AppData\Local\Temp\ccskf6Hg.s 			page 5


 199:.\Generated_Source\PSoC4/LED1.c ****     *
 200:.\Generated_Source\PSoC4/LED1.c ****     * Parameters:  
 201:.\Generated_Source\PSoC4/LED1.c ****     *  pulse1Type: Selected pulse density type.
 202:.\Generated_Source\PSoC4/LED1.c ****     *
 203:.\Generated_Source\PSoC4/LED1.c ****     * Return:
 204:.\Generated_Source\PSoC4/LED1.c ****     *  None.
 205:.\Generated_Source\PSoC4/LED1.c ****     *
 206:.\Generated_Source\PSoC4/LED1.c ****     ***************************************************************************/
 207:.\Generated_Source\PSoC4/LED1.c ****     void LED1_SetPulse1Mode(uint8 pulse1Type) 
 208:.\Generated_Source\PSoC4/LED1.c ****     {
 209:.\Generated_Source\PSoC4/LED1.c ****         if(pulse1Type == LED1_GREATERTHAN_OR_EQUAL)
 210:.\Generated_Source\PSoC4/LED1.c ****         {
 211:.\Generated_Source\PSoC4/LED1.c ****             LED1_CONTROL_REG |= LED1_CTRL_COMPARE_TYPE1_GREATER_THAN_OR_EQUAL;
 212:.\Generated_Source\PSoC4/LED1.c ****         }
 213:.\Generated_Source\PSoC4/LED1.c ****         else
 214:.\Generated_Source\PSoC4/LED1.c ****         {
 215:.\Generated_Source\PSoC4/LED1.c ****             LED1_CONTROL_REG &= (uint8)~LED1_CTRL_COMPARE_TYPE1_GREATER_THAN_OR_EQUAL;
 216:.\Generated_Source\PSoC4/LED1.c ****         }
 217:.\Generated_Source\PSoC4/LED1.c ****     }
 218:.\Generated_Source\PSoC4/LED1.c **** 
 219:.\Generated_Source\PSoC4/LED1.c **** #endif /* End LED1_PULSE_TYPE_HARDCODED == 0 */
 220:.\Generated_Source\PSoC4/LED1.c **** 
 221:.\Generated_Source\PSoC4/LED1.c **** 
 222:.\Generated_Source\PSoC4/LED1.c **** /*******************************************************************************
 223:.\Generated_Source\PSoC4/LED1.c **** * FUNCTION NAME:   LED1_ReadSeed
 224:.\Generated_Source\PSoC4/LED1.c **** ********************************************************************************
 225:.\Generated_Source\PSoC4/LED1.c **** *
 226:.\Generated_Source\PSoC4/LED1.c **** * Summary:
 227:.\Generated_Source\PSoC4/LED1.c **** *  Reads the PrISM Seed register.
 228:.\Generated_Source\PSoC4/LED1.c **** *
 229:.\Generated_Source\PSoC4/LED1.c **** * Parameters:
 230:.\Generated_Source\PSoC4/LED1.c **** *  None.
 231:.\Generated_Source\PSoC4/LED1.c **** *
 232:.\Generated_Source\PSoC4/LED1.c **** * Return:
 233:.\Generated_Source\PSoC4/LED1.c **** *  Current Period register value.
 234:.\Generated_Source\PSoC4/LED1.c **** *
 235:.\Generated_Source\PSoC4/LED1.c **** *******************************************************************************/
 236:.\Generated_Source\PSoC4/LED1.c **** uint8 LED1_ReadSeed(void) 
 237:.\Generated_Source\PSoC4/LED1.c **** {
 238:.\Generated_Source\PSoC4/LED1.c ****     return( CY_GET_REG8(LED1_SEED_PTR) );
 239:.\Generated_Source\PSoC4/LED1.c **** }
 240:.\Generated_Source\PSoC4/LED1.c **** 
 241:.\Generated_Source\PSoC4/LED1.c **** 
 242:.\Generated_Source\PSoC4/LED1.c **** /*******************************************************************************
 243:.\Generated_Source\PSoC4/LED1.c **** * FUNCTION NAME:   LED1_WriteSeed
 244:.\Generated_Source\PSoC4/LED1.c **** ********************************************************************************
 245:.\Generated_Source\PSoC4/LED1.c **** *
 246:.\Generated_Source\PSoC4/LED1.c **** * Summary:
 247:.\Generated_Source\PSoC4/LED1.c **** *  Writes the PrISM Seed register with the start value.
 248:.\Generated_Source\PSoC4/LED1.c **** *
 249:.\Generated_Source\PSoC4/LED1.c **** * Parameters:
 250:.\Generated_Source\PSoC4/LED1.c **** *  seed: Seed register value.
 251:.\Generated_Source\PSoC4/LED1.c **** *
 252:.\Generated_Source\PSoC4/LED1.c **** * Return:
 253:.\Generated_Source\PSoC4/LED1.c **** *  None.
 254:.\Generated_Source\PSoC4/LED1.c **** *
 255:.\Generated_Source\PSoC4/LED1.c **** *******************************************************************************/
ARM GAS  C:\Users\CHUCK~1.ERH\AppData\Local\Temp\ccskf6Hg.s 			page 6


 256:.\Generated_Source\PSoC4/LED1.c **** void LED1_WriteSeed(uint8 seed) 
 257:.\Generated_Source\PSoC4/LED1.c **** {
 258:.\Generated_Source\PSoC4/LED1.c ****     if(seed != 0u)
 259:.\Generated_Source\PSoC4/LED1.c ****     {
 260:.\Generated_Source\PSoC4/LED1.c ****         CY_SET_REG8(LED1_SEED_COPY_PTR, seed);
  31              		.loc 1 260 0
  32 0000 0F4A     		ldr	r2, .L2
 261:.\Generated_Source\PSoC4/LED1.c ****         CY_SET_REG8(LED1_SEED_PTR, seed);
  33              		.loc 1 261 0
  34 0002 1048     		ldr	r0, .L2+4
  35              	.LBE17:
  36              	.LBE16:
  83:.\Generated_Source\PSoC4/LED1.c **** {
  37              		.loc 1 83 0
  38 0004 10B5     		push	{r4, lr}
  39              	.LCFI0:
  40              		.cfi_def_cfa_offset 8
  41              		.cfi_offset 4, -8
  42              		.cfi_offset 14, -4
  43              	.LBB21:
  44              	.LBB18:
 260:.\Generated_Source\PSoC4/LED1.c ****         CY_SET_REG8(LED1_SEED_COPY_PTR, seed);
  45              		.loc 1 260 0
  46 0006 FF23     		mov	r3, #255
  47              	.LBE18:
  48              	.LBE21:
  49              	.LBB22:
  50              	.LBB23:
 262:.\Generated_Source\PSoC4/LED1.c ****     }
 263:.\Generated_Source\PSoC4/LED1.c **** }
 264:.\Generated_Source\PSoC4/LED1.c **** 
 265:.\Generated_Source\PSoC4/LED1.c **** 
 266:.\Generated_Source\PSoC4/LED1.c **** /*******************************************************************************
 267:.\Generated_Source\PSoC4/LED1.c **** * FUNCTION NAME:   LED1_ReadPolynomial
 268:.\Generated_Source\PSoC4/LED1.c **** ********************************************************************************
 269:.\Generated_Source\PSoC4/LED1.c **** *
 270:.\Generated_Source\PSoC4/LED1.c **** * Summary:
 271:.\Generated_Source\PSoC4/LED1.c **** *  Reads the PrISM polynomial.
 272:.\Generated_Source\PSoC4/LED1.c **** *
 273:.\Generated_Source\PSoC4/LED1.c **** * Parameters:
 274:.\Generated_Source\PSoC4/LED1.c **** *  None.
 275:.\Generated_Source\PSoC4/LED1.c **** *
 276:.\Generated_Source\PSoC4/LED1.c **** * Return:
 277:.\Generated_Source\PSoC4/LED1.c **** *  PrISM polynomial.
 278:.\Generated_Source\PSoC4/LED1.c **** *
 279:.\Generated_Source\PSoC4/LED1.c **** *******************************************************************************/
 280:.\Generated_Source\PSoC4/LED1.c **** uint8 LED1_ReadPolynomial(void) 
 281:.\Generated_Source\PSoC4/LED1.c **** {
 282:.\Generated_Source\PSoC4/LED1.c ****     return( CY_GET_REG8(LED1_POLYNOM_PTR) );
 283:.\Generated_Source\PSoC4/LED1.c **** }
 284:.\Generated_Source\PSoC4/LED1.c **** 
 285:.\Generated_Source\PSoC4/LED1.c **** 
 286:.\Generated_Source\PSoC4/LED1.c **** /*******************************************************************************
 287:.\Generated_Source\PSoC4/LED1.c **** * FUNCTION NAME:   LED1_WritePolynomial
 288:.\Generated_Source\PSoC4/LED1.c **** ********************************************************************************
 289:.\Generated_Source\PSoC4/LED1.c **** *
 290:.\Generated_Source\PSoC4/LED1.c **** * Summary:
ARM GAS  C:\Users\CHUCK~1.ERH\AppData\Local\Temp\ccskf6Hg.s 			page 7


 291:.\Generated_Source\PSoC4/LED1.c **** *  Writes the PrISM polynomial.
 292:.\Generated_Source\PSoC4/LED1.c **** *
 293:.\Generated_Source\PSoC4/LED1.c **** * Parameters:
 294:.\Generated_Source\PSoC4/LED1.c **** *  polynomial: PrISM polynomial.
 295:.\Generated_Source\PSoC4/LED1.c **** *
 296:.\Generated_Source\PSoC4/LED1.c **** * Return:
 297:.\Generated_Source\PSoC4/LED1.c **** *  None.
 298:.\Generated_Source\PSoC4/LED1.c **** *
 299:.\Generated_Source\PSoC4/LED1.c **** *******************************************************************************/
 300:.\Generated_Source\PSoC4/LED1.c **** void LED1_WritePolynomial(uint8 polynomial) \
 301:.\Generated_Source\PSoC4/LED1.c ****                                                                 
 302:.\Generated_Source\PSoC4/LED1.c **** {
 303:.\Generated_Source\PSoC4/LED1.c ****     CY_SET_REG8(LED1_POLYNOM_PTR, polynomial);
  51              		.loc 1 303 0
  52 0008 0F4C     		ldr	r4, .L2+8
  53              	.LBE23:
  54              	.LBE22:
  55              	.LBB26:
  56              	.LBB19:
 260:.\Generated_Source\PSoC4/LED1.c ****         CY_SET_REG8(LED1_SEED_COPY_PTR, seed);
  57              		.loc 1 260 0
  58 000a 1370     		strb	r3, [r2]
  59              	.LBE19:
  60              	.LBE26:
  61              	.LBB27:
  62              	.LBB24:
  63              		.loc 1 303 0
  64 000c B821     		mov	r1, #184
  65              	.LBE24:
  66              	.LBE27:
  67              	.LBB28:
  68              	.LBB20:
 261:.\Generated_Source\PSoC4/LED1.c ****         CY_SET_REG8(LED1_SEED_PTR, seed);
  69              		.loc 1 261 0
  70 000e 0370     		strb	r3, [r0]
  71              	.LVL1:
  72              	.LBE20:
  73              	.LBE28:
  74              	.LBB29:
  75              	.LBB30:
 304:.\Generated_Source\PSoC4/LED1.c ****     
 305:.\Generated_Source\PSoC4/LED1.c **** }
 306:.\Generated_Source\PSoC4/LED1.c **** 
 307:.\Generated_Source\PSoC4/LED1.c **** 
 308:.\Generated_Source\PSoC4/LED1.c **** /*******************************************************************************
 309:.\Generated_Source\PSoC4/LED1.c **** * FUNCTION NAME:   LED1_ReadPulse0
 310:.\Generated_Source\PSoC4/LED1.c **** ********************************************************************************
 311:.\Generated_Source\PSoC4/LED1.c **** *
 312:.\Generated_Source\PSoC4/LED1.c **** * Summary:
 313:.\Generated_Source\PSoC4/LED1.c **** *  Reads the PrISM Pulse Density0 register.
 314:.\Generated_Source\PSoC4/LED1.c **** *
 315:.\Generated_Source\PSoC4/LED1.c **** * Parameters:
 316:.\Generated_Source\PSoC4/LED1.c **** *  None.
 317:.\Generated_Source\PSoC4/LED1.c **** *
 318:.\Generated_Source\PSoC4/LED1.c **** * Return:
 319:.\Generated_Source\PSoC4/LED1.c **** *  Pulse Density0 register value.
 320:.\Generated_Source\PSoC4/LED1.c **** *
ARM GAS  C:\Users\CHUCK~1.ERH\AppData\Local\Temp\ccskf6Hg.s 			page 8


 321:.\Generated_Source\PSoC4/LED1.c **** *******************************************************************************/
 322:.\Generated_Source\PSoC4/LED1.c **** uint8 LED1_ReadPulse0(void) 
 323:.\Generated_Source\PSoC4/LED1.c **** {
 324:.\Generated_Source\PSoC4/LED1.c ****     return( CY_GET_REG8(LED1_DENSITY0_PTR) );
 325:.\Generated_Source\PSoC4/LED1.c **** }
 326:.\Generated_Source\PSoC4/LED1.c **** 
 327:.\Generated_Source\PSoC4/LED1.c **** 
 328:.\Generated_Source\PSoC4/LED1.c **** /*******************************************************************************
 329:.\Generated_Source\PSoC4/LED1.c **** * FUNCTION NAME:   LED1_WritePulse0
 330:.\Generated_Source\PSoC4/LED1.c **** ********************************************************************************
 331:.\Generated_Source\PSoC4/LED1.c **** *
 332:.\Generated_Source\PSoC4/LED1.c **** * Summary:
 333:.\Generated_Source\PSoC4/LED1.c **** *  Writes the PrISM Pulse Density0 register with the Pulse Density value.
 334:.\Generated_Source\PSoC4/LED1.c **** *
 335:.\Generated_Source\PSoC4/LED1.c **** * Parameters:
 336:.\Generated_Source\PSoC4/LED1.c **** *  pulseDensity0: Pulse Density value.
 337:.\Generated_Source\PSoC4/LED1.c **** *
 338:.\Generated_Source\PSoC4/LED1.c **** * Return:
 339:.\Generated_Source\PSoC4/LED1.c **** *  None.
 340:.\Generated_Source\PSoC4/LED1.c **** *
 341:.\Generated_Source\PSoC4/LED1.c **** *******************************************************************************/
 342:.\Generated_Source\PSoC4/LED1.c **** void LED1_WritePulse0(uint8 pulseDensity0) \
 343:.\Generated_Source\PSoC4/LED1.c ****                                                                 
 344:.\Generated_Source\PSoC4/LED1.c **** {
 345:.\Generated_Source\PSoC4/LED1.c ****     CY_SET_REG8(LED1_DENSITY0_PTR, pulseDensity0);
 346:.\Generated_Source\PSoC4/LED1.c **** }
 347:.\Generated_Source\PSoC4/LED1.c **** 
 348:.\Generated_Source\PSoC4/LED1.c **** 
 349:.\Generated_Source\PSoC4/LED1.c **** /*******************************************************************************
 350:.\Generated_Source\PSoC4/LED1.c **** * FUNCTION NAME:   LED1_ReadPulse1
 351:.\Generated_Source\PSoC4/LED1.c **** ********************************************************************************
 352:.\Generated_Source\PSoC4/LED1.c **** *
 353:.\Generated_Source\PSoC4/LED1.c **** * Summary:
 354:.\Generated_Source\PSoC4/LED1.c **** *  Reads the PrISM Pulse Density1 register.
 355:.\Generated_Source\PSoC4/LED1.c **** *
 356:.\Generated_Source\PSoC4/LED1.c **** * Parameters:
 357:.\Generated_Source\PSoC4/LED1.c **** *  None.
 358:.\Generated_Source\PSoC4/LED1.c **** *
 359:.\Generated_Source\PSoC4/LED1.c **** * Return:
 360:.\Generated_Source\PSoC4/LED1.c **** *  Pulse Density1 register value.
 361:.\Generated_Source\PSoC4/LED1.c **** *
 362:.\Generated_Source\PSoC4/LED1.c **** *******************************************************************************/
 363:.\Generated_Source\PSoC4/LED1.c **** uint8 LED1_ReadPulse1(void) 
 364:.\Generated_Source\PSoC4/LED1.c **** {
 365:.\Generated_Source\PSoC4/LED1.c ****     return( CY_GET_REG8(LED1_DENSITY1_PTR) );
 366:.\Generated_Source\PSoC4/LED1.c **** }
 367:.\Generated_Source\PSoC4/LED1.c **** 
 368:.\Generated_Source\PSoC4/LED1.c **** 
 369:.\Generated_Source\PSoC4/LED1.c **** /*******************************************************************************
 370:.\Generated_Source\PSoC4/LED1.c **** * FUNCTION NAME:   LED1_WritePulse1
 371:.\Generated_Source\PSoC4/LED1.c **** ********************************************************************************
 372:.\Generated_Source\PSoC4/LED1.c **** *
 373:.\Generated_Source\PSoC4/LED1.c **** * Summary:
 374:.\Generated_Source\PSoC4/LED1.c **** *  Writes the PrISM Pulse Density1 register with the Pulse Density value.
 375:.\Generated_Source\PSoC4/LED1.c **** *
 376:.\Generated_Source\PSoC4/LED1.c **** * Parameters:
 377:.\Generated_Source\PSoC4/LED1.c **** *  pulseDensity1: Pulse Density value.
ARM GAS  C:\Users\CHUCK~1.ERH\AppData\Local\Temp\ccskf6Hg.s 			page 9


 378:.\Generated_Source\PSoC4/LED1.c **** *
 379:.\Generated_Source\PSoC4/LED1.c **** * Return:
 380:.\Generated_Source\PSoC4/LED1.c **** *  None.
 381:.\Generated_Source\PSoC4/LED1.c **** *
 382:.\Generated_Source\PSoC4/LED1.c **** *******************************************************************************/
 383:.\Generated_Source\PSoC4/LED1.c **** void LED1_WritePulse1(uint8 pulseDensity1) \
 384:.\Generated_Source\PSoC4/LED1.c ****                                                                     
 385:.\Generated_Source\PSoC4/LED1.c **** {
 386:.\Generated_Source\PSoC4/LED1.c ****     CY_SET_REG8(LED1_DENSITY1_PTR, pulseDensity1);
  76              		.loc 1 386 0
  77 0010 0E4A     		ldr	r2, .L2+12
  78              	.LBE30:
  79              	.LBE29:
  80              	.LBB32:
  81              	.LBB33:
 345:.\Generated_Source\PSoC4/LED1.c ****     CY_SET_REG8(LED1_DENSITY0_PTR, pulseDensity0);
  82              		.loc 1 345 0
  83 0012 0F4B     		ldr	r3, .L2+16
  84              	.LBE33:
  85              	.LBE32:
  86              	.LBB35:
  87              	.LBB25:
 303:.\Generated_Source\PSoC4/LED1.c ****     CY_SET_REG8(LED1_POLYNOM_PTR, polynomial);
  88              		.loc 1 303 0
  89 0014 2170     		strb	r1, [r4]
  90              	.LVL2:
  91              	.LBE25:
  92              	.LBE35:
  93              	.LBB36:
  94              	.LBB34:
 345:.\Generated_Source\PSoC4/LED1.c ****     CY_SET_REG8(LED1_DENSITY0_PTR, pulseDensity0);
  95              		.loc 1 345 0
  96 0016 0124     		mov	r4, #1
  97 0018 1C70     		strb	r4, [r3]
  98              	.LVL3:
  99              	.LBE34:
 100              	.LBE36:
 101              	.LBB37:
 102              	.LBB31:
 103              		.loc 1 386 0
 104 001a 1470     		strb	r4, [r2]
 105              	.LBE31:
 106              	.LBE37:
  92:.\Generated_Source\PSoC4/LED1.c ****     enableInterrupts = CyEnterCriticalSection();
 107              		.loc 1 92 0
 108 001c FFF7FEFF 		bl	CyEnterCriticalSection
 109              	.LVL4:
  94:.\Generated_Source\PSoC4/LED1.c ****     CY_SET_REG8(LED1_AUX_CONTROL_PTR, 
 110              		.loc 1 94 0
 111 0020 0C49     		ldr	r1, .L2+20
 112:.\Generated_Source\PSoC4/LED1.c **** }
 112              		.loc 1 112 0
 113              		@ sp needed for prologue
  94:.\Generated_Source\PSoC4/LED1.c ****     CY_SET_REG8(LED1_AUX_CONTROL_PTR, 
 114              		.loc 1 94 0
 115 0022 0B78     		ldrb	r3, [r1]
 116 0024 1C43     		orr	r4, r3
ARM GAS  C:\Users\CHUCK~1.ERH\AppData\Local\Temp\ccskf6Hg.s 			page 10


 117 0026 0C70     		strb	r4, [r1]
  96:.\Generated_Source\PSoC4/LED1.c ****     CyExitCriticalSection(enableInterrupts);
 118              		.loc 1 96 0
 119 0028 FFF7FEFF 		bl	CyExitCriticalSection
 120              	.LVL5:
 103:.\Generated_Source\PSoC4/LED1.c ****             LED1_CONTROL_REG &= (uint8)~LED1_CTRL_COMPARE_TYPE0_GREATER_THAN_OR_EQUAL;
 121              		.loc 1 103 0
 122 002c 0A48     		ldr	r0, .L2+24
 123 002e 0222     		mov	r2, #2
 124 0030 0478     		ldrb	r4, [r0]
 109:.\Generated_Source\PSoC4/LED1.c ****             LED1_CONTROL_REG &= (uint8)~LED1_CTRL_COMPARE_TYPE1_GREATER_THAN_OR_EQUAL;
 125              		.loc 1 109 0
 126 0032 0421     		mov	r1, #4
 103:.\Generated_Source\PSoC4/LED1.c ****             LED1_CONTROL_REG &= (uint8)~LED1_CTRL_COMPARE_TYPE0_GREATER_THAN_OR_EQUAL;
 127              		.loc 1 103 0
 128 0034 9443     		bic	r4, r2
 129 0036 0470     		strb	r4, [r0]
 109:.\Generated_Source\PSoC4/LED1.c ****             LED1_CONTROL_REG &= (uint8)~LED1_CTRL_COMPARE_TYPE1_GREATER_THAN_OR_EQUAL;
 130              		.loc 1 109 0
 131 0038 0378     		ldrb	r3, [r0]
 132 003a 8B43     		bic	r3, r1
 133 003c 0370     		strb	r3, [r0]
 112:.\Generated_Source\PSoC4/LED1.c **** }
 134              		.loc 1 112 0
 135 003e 10BD     		pop	{r4, pc}
 136              	.L3:
 137              		.align	2
 138              	.L2:
 139 0040 42000F40 		.word	1074724930
 140 0044 02000F40 		.word	1074724866
 141 0048 12000F40 		.word	1074724882
 142 004c 32000F40 		.word	1074724914
 143 0050 22000F40 		.word	1074724898
 144 0054 92000F40 		.word	1074725010
 145 0058 72000F40 		.word	1074724978
 146              		.cfi_endproc
 147              	.LFE1:
 148              		.size	LED1_Init, .-LED1_Init
 149              		.section	.text.LED1_Enable,"ax",%progbits
 150              		.align	1
 151              		.global	LED1_Enable
 152              		.code	16
 153              		.thumb_func
 154              		.type	LED1_Enable, %function
 155              	LED1_Enable:
 156              	.LFB2:
 130:.\Generated_Source\PSoC4/LED1.c **** {
 157              		.loc 1 130 0
 158              		.cfi_startproc
 133:.\Generated_Source\PSoC4/LED1.c ****         LED1_CONTROL_REG |= LED1_CTRL_ENABLE;
 159              		.loc 1 133 0
 160 0000 024B     		ldr	r3, .L5
 161 0002 0121     		mov	r1, #1
 162 0004 1A78     		ldrb	r2, [r3]
 135:.\Generated_Source\PSoC4/LED1.c **** }
 163              		.loc 1 135 0
 164              		@ sp needed for prologue
ARM GAS  C:\Users\CHUCK~1.ERH\AppData\Local\Temp\ccskf6Hg.s 			page 11


 133:.\Generated_Source\PSoC4/LED1.c ****         LED1_CONTROL_REG |= LED1_CTRL_ENABLE;
 165              		.loc 1 133 0
 166 0006 0A43     		orr	r2, r1
 167 0008 1A70     		strb	r2, [r3]
 135:.\Generated_Source\PSoC4/LED1.c **** }
 168              		.loc 1 135 0
 169 000a 7047     		bx	lr
 170              	.L6:
 171              		.align	2
 172              	.L5:
 173 000c 72000F40 		.word	1074724978
 174              		.cfi_endproc
 175              	.LFE2:
 176              		.size	LED1_Enable, .-LED1_Enable
 177              		.section	.text.LED1_Start,"ax",%progbits
 178              		.align	1
 179              		.global	LED1_Start
 180              		.code	16
 181              		.thumb_func
 182              		.type	LED1_Start, %function
 183              	LED1_Start:
 184              	.LFB0:
  55:.\Generated_Source\PSoC4/LED1.c **** {
 185              		.loc 1 55 0
 186              		.cfi_startproc
 187 0000 10B5     		push	{r4, lr}
 188              	.LCFI1:
 189              		.cfi_def_cfa_offset 8
 190              		.cfi_offset 4, -8
 191              		.cfi_offset 14, -4
  57:.\Generated_Source\PSoC4/LED1.c ****     if(LED1_initVar == 0u)
 192              		.loc 1 57 0
 193 0002 054C     		ldr	r4, .L10
 194 0004 2378     		ldrb	r3, [r4]
 195 0006 002B     		cmp	r3, #0
 196 0008 03D1     		bne	.L8
  59:.\Generated_Source\PSoC4/LED1.c ****         LED1_Init();
 197              		.loc 1 59 0
 198 000a FFF7FEFF 		bl	LED1_Init
 199              	.LVL6:
  60:.\Generated_Source\PSoC4/LED1.c ****         LED1_initVar = 1u;
 200              		.loc 1 60 0
 201 000e 0120     		mov	r0, #1
 202 0010 2070     		strb	r0, [r4]
 203              	.L8:
  62:.\Generated_Source\PSoC4/LED1.c ****     LED1_Enable();
 204              		.loc 1 62 0
 205 0012 FFF7FEFF 		bl	LED1_Enable
 206              	.LVL7:
  63:.\Generated_Source\PSoC4/LED1.c **** }
 207              		.loc 1 63 0
 208              		@ sp needed for prologue
 209 0016 10BD     		pop	{r4, pc}
 210              	.L11:
 211              		.align	2
 212              	.L10:
 213 0018 00000000 		.word	.LANCHOR0
ARM GAS  C:\Users\CHUCK~1.ERH\AppData\Local\Temp\ccskf6Hg.s 			page 12


 214              		.cfi_endproc
 215              	.LFE0:
 216              		.size	LED1_Start, .-LED1_Start
 217              		.section	.text.LED1_Stop,"ax",%progbits
 218              		.align	1
 219              		.global	LED1_Stop
 220              		.code	16
 221              		.thumb_func
 222              		.type	LED1_Stop, %function
 223              	LED1_Stop:
 224              	.LFB3:
 153:.\Generated_Source\PSoC4/LED1.c **** {
 225              		.loc 1 153 0
 226              		.cfi_startproc
 155:.\Generated_Source\PSoC4/LED1.c ****         LED1_CONTROL_REG &= (uint8)~LED1_CTRL_ENABLE;
 227              		.loc 1 155 0
 228 0000 024B     		ldr	r3, .L13
 229 0002 0121     		mov	r1, #1
 230 0004 1A78     		ldrb	r2, [r3]
 159:.\Generated_Source\PSoC4/LED1.c **** }
 231              		.loc 1 159 0
 232              		@ sp needed for prologue
 155:.\Generated_Source\PSoC4/LED1.c ****         LED1_CONTROL_REG &= (uint8)~LED1_CTRL_ENABLE;
 233              		.loc 1 155 0
 234 0006 8A43     		bic	r2, r1
 235 0008 1A70     		strb	r2, [r3]
 159:.\Generated_Source\PSoC4/LED1.c **** }
 236              		.loc 1 159 0
 237 000a 7047     		bx	lr
 238              	.L14:
 239              		.align	2
 240              	.L13:
 241 000c 72000F40 		.word	1074724978
 242              		.cfi_endproc
 243              	.LFE3:
 244              		.size	LED1_Stop, .-LED1_Stop
 245              		.section	.text.LED1_SetPulse0Mode,"ax",%progbits
 246              		.align	1
 247              		.global	LED1_SetPulse0Mode
 248              		.code	16
 249              		.thumb_func
 250              		.type	LED1_SetPulse0Mode, %function
 251              	LED1_SetPulse0Mode:
 252              	.LFB4:
 180:.\Generated_Source\PSoC4/LED1.c ****     {
 253              		.loc 1 180 0
 254              		.cfi_startproc
 255              	.LVL8:
 256 0000 00B5     		push	{lr}
 257              	.LCFI2:
 258              		.cfi_def_cfa_offset 4
 259              		.cfi_offset 14, -4
 260 0002 054B     		ldr	r3, .L19
 183:.\Generated_Source\PSoC4/LED1.c ****             LED1_CONTROL_REG |= LED1_CTRL_COMPARE_TYPE0_GREATER_THAN_OR_EQUAL;
 261              		.loc 1 183 0
 262 0004 0221     		mov	r1, #2
 263 0006 1A78     		ldrb	r2, [r3]
ARM GAS  C:\Users\CHUCK~1.ERH\AppData\Local\Temp\ccskf6Hg.s 			page 13


 181:.\Generated_Source\PSoC4/LED1.c ****         if(pulse0Type == LED1_GREATERTHAN_OR_EQUAL)
 264              		.loc 1 181 0
 265 0008 0128     		cmp	r0, #1
 266 000a 01D1     		bne	.L16
 183:.\Generated_Source\PSoC4/LED1.c ****             LED1_CONTROL_REG |= LED1_CTRL_COMPARE_TYPE0_GREATER_THAN_OR_EQUAL;
 267              		.loc 1 183 0
 268 000c 0A43     		orr	r2, r1
 269 000e 00E0     		b	.L18
 270              	.L16:
 187:.\Generated_Source\PSoC4/LED1.c ****             LED1_CONTROL_REG &= (uint8)~LED1_CTRL_COMPARE_TYPE0_GREATER_THAN_OR_EQUAL;
 271              		.loc 1 187 0
 272 0010 8A43     		bic	r2, r1
 273              	.L18:
 274 0012 1A70     		strb	r2, [r3]
 189:.\Generated_Source\PSoC4/LED1.c ****     }
 275              		.loc 1 189 0
 276              		@ sp needed for prologue
 277 0014 00BD     		pop	{pc}
 278              	.L20:
 279 0016 C046     		.align	2
 280              	.L19:
 281 0018 72000F40 		.word	1074724978
 282              		.cfi_endproc
 283              	.LFE4:
 284              		.size	LED1_SetPulse0Mode, .-LED1_SetPulse0Mode
 285              		.section	.text.LED1_SetPulse1Mode,"ax",%progbits
 286              		.align	1
 287              		.global	LED1_SetPulse1Mode
 288              		.code	16
 289              		.thumb_func
 290              		.type	LED1_SetPulse1Mode, %function
 291              	LED1_SetPulse1Mode:
 292              	.LFB5:
 208:.\Generated_Source\PSoC4/LED1.c ****     {
 293              		.loc 1 208 0
 294              		.cfi_startproc
 295              	.LVL9:
 296 0000 00B5     		push	{lr}
 297              	.LCFI3:
 298              		.cfi_def_cfa_offset 4
 299              		.cfi_offset 14, -4
 300 0002 054B     		ldr	r3, .L25
 211:.\Generated_Source\PSoC4/LED1.c ****             LED1_CONTROL_REG |= LED1_CTRL_COMPARE_TYPE1_GREATER_THAN_OR_EQUAL;
 301              		.loc 1 211 0
 302 0004 0421     		mov	r1, #4
 303 0006 1A78     		ldrb	r2, [r3]
 209:.\Generated_Source\PSoC4/LED1.c ****         if(pulse1Type == LED1_GREATERTHAN_OR_EQUAL)
 304              		.loc 1 209 0
 305 0008 0128     		cmp	r0, #1
 306 000a 01D1     		bne	.L22
 211:.\Generated_Source\PSoC4/LED1.c ****             LED1_CONTROL_REG |= LED1_CTRL_COMPARE_TYPE1_GREATER_THAN_OR_EQUAL;
 307              		.loc 1 211 0
 308 000c 0A43     		orr	r2, r1
 309 000e 00E0     		b	.L24
 310              	.L22:
 215:.\Generated_Source\PSoC4/LED1.c ****             LED1_CONTROL_REG &= (uint8)~LED1_CTRL_COMPARE_TYPE1_GREATER_THAN_OR_EQUAL;
 311              		.loc 1 215 0
ARM GAS  C:\Users\CHUCK~1.ERH\AppData\Local\Temp\ccskf6Hg.s 			page 14


 312 0010 8A43     		bic	r2, r1
 313              	.L24:
 314 0012 1A70     		strb	r2, [r3]
 217:.\Generated_Source\PSoC4/LED1.c ****     }
 315              		.loc 1 217 0
 316              		@ sp needed for prologue
 317 0014 00BD     		pop	{pc}
 318              	.L26:
 319 0016 C046     		.align	2
 320              	.L25:
 321 0018 72000F40 		.word	1074724978
 322              		.cfi_endproc
 323              	.LFE5:
 324              		.size	LED1_SetPulse1Mode, .-LED1_SetPulse1Mode
 325              		.section	.text.LED1_ReadSeed,"ax",%progbits
 326              		.align	1
 327              		.global	LED1_ReadSeed
 328              		.code	16
 329              		.thumb_func
 330              		.type	LED1_ReadSeed, %function
 331              	LED1_ReadSeed:
 332              	.LFB6:
 237:.\Generated_Source\PSoC4/LED1.c **** {
 333              		.loc 1 237 0
 334              		.cfi_startproc
 238:.\Generated_Source\PSoC4/LED1.c ****     return( CY_GET_REG8(LED1_SEED_PTR) );
 335              		.loc 1 238 0
 336 0000 014B     		ldr	r3, .L28
 239:.\Generated_Source\PSoC4/LED1.c **** }
 337              		.loc 1 239 0
 338              		@ sp needed for prologue
 238:.\Generated_Source\PSoC4/LED1.c ****     return( CY_GET_REG8(LED1_SEED_PTR) );
 339              		.loc 1 238 0
 340 0002 1878     		ldrb	r0, [r3]
 239:.\Generated_Source\PSoC4/LED1.c **** }
 341              		.loc 1 239 0
 342 0004 7047     		bx	lr
 343              	.L29:
 344 0006 C046     		.align	2
 345              	.L28:
 346 0008 02000F40 		.word	1074724866
 347              		.cfi_endproc
 348              	.LFE6:
 349              		.size	LED1_ReadSeed, .-LED1_ReadSeed
 350              		.section	.text.LED1_WriteSeed,"ax",%progbits
 351              		.align	1
 352              		.global	LED1_WriteSeed
 353              		.code	16
 354              		.thumb_func
 355              		.type	LED1_WriteSeed, %function
 356              	LED1_WriteSeed:
 357              	.LFB7:
 257:.\Generated_Source\PSoC4/LED1.c **** {
 358              		.loc 1 257 0
 359              		.cfi_startproc
 360              	.LVL10:
 361 0000 00B5     		push	{lr}
ARM GAS  C:\Users\CHUCK~1.ERH\AppData\Local\Temp\ccskf6Hg.s 			page 15


 362              	.LCFI4:
 363              		.cfi_def_cfa_offset 4
 364              		.cfi_offset 14, -4
 258:.\Generated_Source\PSoC4/LED1.c ****     if(seed != 0u)
 365              		.loc 1 258 0
 366 0002 0028     		cmp	r0, #0
 367 0004 03D0     		beq	.L30
 260:.\Generated_Source\PSoC4/LED1.c ****         CY_SET_REG8(LED1_SEED_COPY_PTR, seed);
 368              		.loc 1 260 0
 369 0006 024B     		ldr	r3, .L35
 261:.\Generated_Source\PSoC4/LED1.c ****         CY_SET_REG8(LED1_SEED_PTR, seed);
 370              		.loc 1 261 0
 371 0008 0249     		ldr	r1, .L35+4
 260:.\Generated_Source\PSoC4/LED1.c ****         CY_SET_REG8(LED1_SEED_COPY_PTR, seed);
 372              		.loc 1 260 0
 373 000a 1870     		strb	r0, [r3]
 261:.\Generated_Source\PSoC4/LED1.c ****         CY_SET_REG8(LED1_SEED_PTR, seed);
 374              		.loc 1 261 0
 375 000c 0870     		strb	r0, [r1]
 376              	.L30:
 263:.\Generated_Source\PSoC4/LED1.c **** }
 377              		.loc 1 263 0
 378              		@ sp needed for prologue
 379 000e 00BD     		pop	{pc}
 380              	.L36:
 381              		.align	2
 382              	.L35:
 383 0010 42000F40 		.word	1074724930
 384 0014 02000F40 		.word	1074724866
 385              		.cfi_endproc
 386              	.LFE7:
 387              		.size	LED1_WriteSeed, .-LED1_WriteSeed
 388              		.section	.text.LED1_ReadPolynomial,"ax",%progbits
 389              		.align	1
 390              		.global	LED1_ReadPolynomial
 391              		.code	16
 392              		.thumb_func
 393              		.type	LED1_ReadPolynomial, %function
 394              	LED1_ReadPolynomial:
 395              	.LFB8:
 281:.\Generated_Source\PSoC4/LED1.c **** {
 396              		.loc 1 281 0
 397              		.cfi_startproc
 282:.\Generated_Source\PSoC4/LED1.c ****     return( CY_GET_REG8(LED1_POLYNOM_PTR) );
 398              		.loc 1 282 0
 399 0000 014B     		ldr	r3, .L38
 283:.\Generated_Source\PSoC4/LED1.c **** }
 400              		.loc 1 283 0
 401              		@ sp needed for prologue
 282:.\Generated_Source\PSoC4/LED1.c ****     return( CY_GET_REG8(LED1_POLYNOM_PTR) );
 402              		.loc 1 282 0
 403 0002 1878     		ldrb	r0, [r3]
 283:.\Generated_Source\PSoC4/LED1.c **** }
 404              		.loc 1 283 0
 405 0004 7047     		bx	lr
 406              	.L39:
 407 0006 C046     		.align	2
ARM GAS  C:\Users\CHUCK~1.ERH\AppData\Local\Temp\ccskf6Hg.s 			page 16


 408              	.L38:
 409 0008 12000F40 		.word	1074724882
 410              		.cfi_endproc
 411              	.LFE8:
 412              		.size	LED1_ReadPolynomial, .-LED1_ReadPolynomial
 413              		.section	.text.LED1_WritePolynomial,"ax",%progbits
 414              		.align	1
 415              		.global	LED1_WritePolynomial
 416              		.code	16
 417              		.thumb_func
 418              		.type	LED1_WritePolynomial, %function
 419              	LED1_WritePolynomial:
 420              	.LFB9:
 302:.\Generated_Source\PSoC4/LED1.c **** {
 421              		.loc 1 302 0
 422              		.cfi_startproc
 423              	.LVL11:
 303:.\Generated_Source\PSoC4/LED1.c ****     CY_SET_REG8(LED1_POLYNOM_PTR, polynomial);
 424              		.loc 1 303 0
 425 0000 014B     		ldr	r3, .L41
 305:.\Generated_Source\PSoC4/LED1.c **** }
 426              		.loc 1 305 0
 427              		@ sp needed for prologue
 303:.\Generated_Source\PSoC4/LED1.c ****     CY_SET_REG8(LED1_POLYNOM_PTR, polynomial);
 428              		.loc 1 303 0
 429 0002 1870     		strb	r0, [r3]
 305:.\Generated_Source\PSoC4/LED1.c **** }
 430              		.loc 1 305 0
 431 0004 7047     		bx	lr
 432              	.L42:
 433 0006 C046     		.align	2
 434              	.L41:
 435 0008 12000F40 		.word	1074724882
 436              		.cfi_endproc
 437              	.LFE9:
 438              		.size	LED1_WritePolynomial, .-LED1_WritePolynomial
 439              		.section	.text.LED1_ReadPulse0,"ax",%progbits
 440              		.align	1
 441              		.global	LED1_ReadPulse0
 442              		.code	16
 443              		.thumb_func
 444              		.type	LED1_ReadPulse0, %function
 445              	LED1_ReadPulse0:
 446              	.LFB10:
 323:.\Generated_Source\PSoC4/LED1.c **** {
 447              		.loc 1 323 0
 448              		.cfi_startproc
 324:.\Generated_Source\PSoC4/LED1.c ****     return( CY_GET_REG8(LED1_DENSITY0_PTR) );
 449              		.loc 1 324 0
 450 0000 014B     		ldr	r3, .L44
 325:.\Generated_Source\PSoC4/LED1.c **** }
 451              		.loc 1 325 0
 452              		@ sp needed for prologue
 324:.\Generated_Source\PSoC4/LED1.c ****     return( CY_GET_REG8(LED1_DENSITY0_PTR) );
 453              		.loc 1 324 0
 454 0002 1878     		ldrb	r0, [r3]
 325:.\Generated_Source\PSoC4/LED1.c **** }
ARM GAS  C:\Users\CHUCK~1.ERH\AppData\Local\Temp\ccskf6Hg.s 			page 17


 455              		.loc 1 325 0
 456 0004 7047     		bx	lr
 457              	.L45:
 458 0006 C046     		.align	2
 459              	.L44:
 460 0008 22000F40 		.word	1074724898
 461              		.cfi_endproc
 462              	.LFE10:
 463              		.size	LED1_ReadPulse0, .-LED1_ReadPulse0
 464              		.section	.text.LED1_WritePulse0,"ax",%progbits
 465              		.align	1
 466              		.global	LED1_WritePulse0
 467              		.code	16
 468              		.thumb_func
 469              		.type	LED1_WritePulse0, %function
 470              	LED1_WritePulse0:
 471              	.LFB11:
 344:.\Generated_Source\PSoC4/LED1.c **** {
 472              		.loc 1 344 0
 473              		.cfi_startproc
 474              	.LVL12:
 345:.\Generated_Source\PSoC4/LED1.c ****     CY_SET_REG8(LED1_DENSITY0_PTR, pulseDensity0);
 475              		.loc 1 345 0
 476 0000 014B     		ldr	r3, .L47
 346:.\Generated_Source\PSoC4/LED1.c **** }
 477              		.loc 1 346 0
 478              		@ sp needed for prologue
 345:.\Generated_Source\PSoC4/LED1.c ****     CY_SET_REG8(LED1_DENSITY0_PTR, pulseDensity0);
 479              		.loc 1 345 0
 480 0002 1870     		strb	r0, [r3]
 346:.\Generated_Source\PSoC4/LED1.c **** }
 481              		.loc 1 346 0
 482 0004 7047     		bx	lr
 483              	.L48:
 484 0006 C046     		.align	2
 485              	.L47:
 486 0008 22000F40 		.word	1074724898
 487              		.cfi_endproc
 488              	.LFE11:
 489              		.size	LED1_WritePulse0, .-LED1_WritePulse0
 490              		.section	.text.LED1_ReadPulse1,"ax",%progbits
 491              		.align	1
 492              		.global	LED1_ReadPulse1
 493              		.code	16
 494              		.thumb_func
 495              		.type	LED1_ReadPulse1, %function
 496              	LED1_ReadPulse1:
 497              	.LFB12:
 364:.\Generated_Source\PSoC4/LED1.c **** {
 498              		.loc 1 364 0
 499              		.cfi_startproc
 365:.\Generated_Source\PSoC4/LED1.c ****     return( CY_GET_REG8(LED1_DENSITY1_PTR) );
 500              		.loc 1 365 0
 501 0000 014B     		ldr	r3, .L50
 366:.\Generated_Source\PSoC4/LED1.c **** }
 502              		.loc 1 366 0
 503              		@ sp needed for prologue
ARM GAS  C:\Users\CHUCK~1.ERH\AppData\Local\Temp\ccskf6Hg.s 			page 18


 365:.\Generated_Source\PSoC4/LED1.c ****     return( CY_GET_REG8(LED1_DENSITY1_PTR) );
 504              		.loc 1 365 0
 505 0002 1878     		ldrb	r0, [r3]
 366:.\Generated_Source\PSoC4/LED1.c **** }
 506              		.loc 1 366 0
 507 0004 7047     		bx	lr
 508              	.L51:
 509 0006 C046     		.align	2
 510              	.L50:
 511 0008 32000F40 		.word	1074724914
 512              		.cfi_endproc
 513              	.LFE12:
 514              		.size	LED1_ReadPulse1, .-LED1_ReadPulse1
 515              		.section	.text.LED1_WritePulse1,"ax",%progbits
 516              		.align	1
 517              		.global	LED1_WritePulse1
 518              		.code	16
 519              		.thumb_func
 520              		.type	LED1_WritePulse1, %function
 521              	LED1_WritePulse1:
 522              	.LFB13:
 385:.\Generated_Source\PSoC4/LED1.c **** {
 523              		.loc 1 385 0
 524              		.cfi_startproc
 525              	.LVL13:
 526              		.loc 1 386 0
 527 0000 014B     		ldr	r3, .L53
 387:.\Generated_Source\PSoC4/LED1.c **** }
 528              		.loc 1 387 0
 529              		@ sp needed for prologue
 386:.\Generated_Source\PSoC4/LED1.c ****     CY_SET_REG8(LED1_DENSITY1_PTR, pulseDensity1);
 530              		.loc 1 386 0
 531 0002 1870     		strb	r0, [r3]
 532              		.loc 1 387 0
 533 0004 7047     		bx	lr
 534              	.L54:
 535 0006 C046     		.align	2
 536              	.L53:
 537 0008 32000F40 		.word	1074724914
 538              		.cfi_endproc
 539              	.LFE13:
 540              		.size	LED1_WritePulse1, .-LED1_WritePulse1
 541              		.global	LED1_initVar
 542              		.bss
 543              		.set	.LANCHOR0,. + 0
 544              		.type	LED1_initVar, %object
 545              		.size	LED1_initVar, 1
 546              	LED1_initVar:
 547 0000 00       		.space	1
 548              		.text
 549              	.Letext0:
 550              		.file 2 ".\\Generated_Source\\PSoC4\\cytypes.h"
 551              		.file 3 ".\\Generated_Source\\PSoC4\\CyLib.h"