ARM GAS  C:\Users\CHUCK~1.ERH\AppData\Local\Temp\ccv7iUuM.s 			page 1


   1              		.cpu cortex-m0
   2              		.fpu softvfp
   3              		.eabi_attribute 20, 1
   4              		.eabi_attribute 21, 1
   5              		.eabi_attribute 23, 3
   6              		.eabi_attribute 24, 1
   7              		.eabi_attribute 25, 1
   8              		.eabi_attribute 26, 1
   9              		.eabi_attribute 30, 4
  10              		.eabi_attribute 34, 0
  11              		.eabi_attribute 18, 4
  12              		.code	16
  13              		.file	"SPI0.c"
  14              		.text
  15              	.Ltext0:
  16              		.cfi_sections	.debug_frame
  17              		.section	.text.SPI0_Init,"ax",%progbits
  18              		.align	1
  19              		.global	SPI0_Init
  20              		.code	16
  21              		.thumb_func
  22              		.type	SPI0_Init, %function
  23              	SPI0_Init:
  24              	.LFB0:
  25              		.file 1 ".\\Generated_Source\\PSoC4\\SPI0.c"
   1:.\Generated_Source\PSoC4/SPI0.c **** /*******************************************************************************
   2:.\Generated_Source\PSoC4/SPI0.c **** * File Name: SPI0.c
   3:.\Generated_Source\PSoC4/SPI0.c **** * Version 1.10
   4:.\Generated_Source\PSoC4/SPI0.c **** *
   5:.\Generated_Source\PSoC4/SPI0.c **** * Description:
   6:.\Generated_Source\PSoC4/SPI0.c **** *  This file provides the source code to the API for the SCB Component.
   7:.\Generated_Source\PSoC4/SPI0.c **** *
   8:.\Generated_Source\PSoC4/SPI0.c **** * Note:
   9:.\Generated_Source\PSoC4/SPI0.c **** *
  10:.\Generated_Source\PSoC4/SPI0.c **** *******************************************************************************
  11:.\Generated_Source\PSoC4/SPI0.c **** * Copyright 2013, Cypress Semiconductor Corporation.  All rights reserved.
  12:.\Generated_Source\PSoC4/SPI0.c **** * You may use this file only in accordance with the license, terms, conditions,
  13:.\Generated_Source\PSoC4/SPI0.c **** * disclaimers, and limitations in the end user license agreement accompanying
  14:.\Generated_Source\PSoC4/SPI0.c **** * the software package with which this file was provided.
  15:.\Generated_Source\PSoC4/SPI0.c **** *******************************************************************************/
  16:.\Generated_Source\PSoC4/SPI0.c **** 
  17:.\Generated_Source\PSoC4/SPI0.c **** #include "SPI0_PVT.h"
  18:.\Generated_Source\PSoC4/SPI0.c **** 
  19:.\Generated_Source\PSoC4/SPI0.c **** #if(SPI0_SCB_MODE_I2C_INC)
  20:.\Generated_Source\PSoC4/SPI0.c ****     #include "SPI0_I2C_PVT.h"
  21:.\Generated_Source\PSoC4/SPI0.c **** #endif /* (SPI0_SCB_MODE_I2C_INC) */
  22:.\Generated_Source\PSoC4/SPI0.c **** 
  23:.\Generated_Source\PSoC4/SPI0.c **** #if(SPI0_SCB_MODE_EZI2C_INC)
  24:.\Generated_Source\PSoC4/SPI0.c ****     #include "SPI0_EZI2C_PVT.h"
  25:.\Generated_Source\PSoC4/SPI0.c **** #endif /* (SPI0_SCB_MODE_EZI2C_INC) */
  26:.\Generated_Source\PSoC4/SPI0.c **** 
  27:.\Generated_Source\PSoC4/SPI0.c **** #if(SPI0_SCB_MODE_SPI_INC || SPI0_SCB_MODE_UART_INC)
  28:.\Generated_Source\PSoC4/SPI0.c ****     #include "SPI0_SPI_UART_PVT.h"
  29:.\Generated_Source\PSoC4/SPI0.c **** #endif /* (SPI0_SCB_MODE_SPI_INC || SPI0_SCB_MODE_UART_INC) */
  30:.\Generated_Source\PSoC4/SPI0.c **** 
  31:.\Generated_Source\PSoC4/SPI0.c **** 
  32:.\Generated_Source\PSoC4/SPI0.c **** /**********************************
ARM GAS  C:\Users\CHUCK~1.ERH\AppData\Local\Temp\ccv7iUuM.s 			page 2


  33:.\Generated_Source\PSoC4/SPI0.c **** *    Run Time Configuration Vars
  34:.\Generated_Source\PSoC4/SPI0.c **** **********************************/
  35:.\Generated_Source\PSoC4/SPI0.c **** 
  36:.\Generated_Source\PSoC4/SPI0.c **** /* Stores internal component configuration for unconfigured mode */
  37:.\Generated_Source\PSoC4/SPI0.c **** #if(SPI0_SCB_MODE_UNCONFIG_CONST_CFG)
  38:.\Generated_Source\PSoC4/SPI0.c ****     /* Common config vars */
  39:.\Generated_Source\PSoC4/SPI0.c ****     uint8 SPI0_scbMode = SPI0_SCB_MODE_UNCONFIG;
  40:.\Generated_Source\PSoC4/SPI0.c ****     uint8 SPI0_scbEnableWake;
  41:.\Generated_Source\PSoC4/SPI0.c ****     uint8 SPI0_scbEnableIntr;
  42:.\Generated_Source\PSoC4/SPI0.c **** 
  43:.\Generated_Source\PSoC4/SPI0.c ****     /* I2C config vars */
  44:.\Generated_Source\PSoC4/SPI0.c ****     uint8 SPI0_mode;
  45:.\Generated_Source\PSoC4/SPI0.c ****     uint8 SPI0_acceptAddr;
  46:.\Generated_Source\PSoC4/SPI0.c **** 
  47:.\Generated_Source\PSoC4/SPI0.c ****     /* SPI/UART config vars */
  48:.\Generated_Source\PSoC4/SPI0.c ****     volatile uint8 * SPI0_rxBuffer;
  49:.\Generated_Source\PSoC4/SPI0.c ****     uint8  SPI0_rxDataBits;
  50:.\Generated_Source\PSoC4/SPI0.c ****     uint32 SPI0_rxBufferSize;
  51:.\Generated_Source\PSoC4/SPI0.c **** 
  52:.\Generated_Source\PSoC4/SPI0.c ****     volatile uint8 * SPI0_txBuffer;
  53:.\Generated_Source\PSoC4/SPI0.c ****     uint8  SPI0_txDataBits;
  54:.\Generated_Source\PSoC4/SPI0.c ****     uint32 SPI0_txBufferSize;
  55:.\Generated_Source\PSoC4/SPI0.c **** 
  56:.\Generated_Source\PSoC4/SPI0.c ****     /* EZI2C config vars */
  57:.\Generated_Source\PSoC4/SPI0.c ****     uint8 SPI0_numberOfAddr;
  58:.\Generated_Source\PSoC4/SPI0.c ****     uint8 SPI0_subAddrSize;
  59:.\Generated_Source\PSoC4/SPI0.c **** #endif /* (SPI0_SCB_MODE_UNCONFIG_CONST_CFG) */
  60:.\Generated_Source\PSoC4/SPI0.c **** 
  61:.\Generated_Source\PSoC4/SPI0.c **** 
  62:.\Generated_Source\PSoC4/SPI0.c **** /**********************************
  63:.\Generated_Source\PSoC4/SPI0.c **** *     Common SCB Vars
  64:.\Generated_Source\PSoC4/SPI0.c **** **********************************/
  65:.\Generated_Source\PSoC4/SPI0.c **** 
  66:.\Generated_Source\PSoC4/SPI0.c **** uint8 SPI0_initVar = 0u;
  67:.\Generated_Source\PSoC4/SPI0.c **** cyisraddress SPI0_customIntrHandler = NULL;
  68:.\Generated_Source\PSoC4/SPI0.c **** 
  69:.\Generated_Source\PSoC4/SPI0.c **** 
  70:.\Generated_Source\PSoC4/SPI0.c **** /***************************************
  71:.\Generated_Source\PSoC4/SPI0.c **** *    Private Function Prototypes
  72:.\Generated_Source\PSoC4/SPI0.c **** ***************************************/
  73:.\Generated_Source\PSoC4/SPI0.c **** 
  74:.\Generated_Source\PSoC4/SPI0.c **** static void SPI0_ScbEnableIntr(void);
  75:.\Generated_Source\PSoC4/SPI0.c **** static void SPI0_ScbModeStop(void);
  76:.\Generated_Source\PSoC4/SPI0.c **** 
  77:.\Generated_Source\PSoC4/SPI0.c **** 
  78:.\Generated_Source\PSoC4/SPI0.c **** /*******************************************************************************
  79:.\Generated_Source\PSoC4/SPI0.c **** * Function Name: SPI0_Init
  80:.\Generated_Source\PSoC4/SPI0.c **** ********************************************************************************
  81:.\Generated_Source\PSoC4/SPI0.c **** *
  82:.\Generated_Source\PSoC4/SPI0.c **** * Summary:
  83:.\Generated_Source\PSoC4/SPI0.c **** *  Initializes SCB component to operate in one of selected configurations:
  84:.\Generated_Source\PSoC4/SPI0.c **** *  I2C, SPI, UART, EZI2C or EZSPI.
  85:.\Generated_Source\PSoC4/SPI0.c **** *  This function does not do any initialization when configuration is set to
  86:.\Generated_Source\PSoC4/SPI0.c **** *  Unconfigured SCB.
  87:.\Generated_Source\PSoC4/SPI0.c **** *
  88:.\Generated_Source\PSoC4/SPI0.c **** * Parameters:
  89:.\Generated_Source\PSoC4/SPI0.c **** *  None
ARM GAS  C:\Users\CHUCK~1.ERH\AppData\Local\Temp\ccv7iUuM.s 			page 3


  90:.\Generated_Source\PSoC4/SPI0.c **** *
  91:.\Generated_Source\PSoC4/SPI0.c **** * Return:
  92:.\Generated_Source\PSoC4/SPI0.c **** *  None
  93:.\Generated_Source\PSoC4/SPI0.c **** *
  94:.\Generated_Source\PSoC4/SPI0.c **** *******************************************************************************/
  95:.\Generated_Source\PSoC4/SPI0.c **** void SPI0_Init(void)
  96:.\Generated_Source\PSoC4/SPI0.c **** {
  26              		.loc 1 96 0
  27              		.cfi_startproc
  28 0000 08B5     		push	{r3, lr}
  29              	.LCFI0:
  30              		.cfi_def_cfa_offset 8
  31              		.cfi_offset 3, -8
  32              		.cfi_offset 14, -4
  97:.\Generated_Source\PSoC4/SPI0.c **** #if(SPI0_SCB_MODE_UNCONFIG_CONST_CFG)
  98:.\Generated_Source\PSoC4/SPI0.c ****     if(SPI0_SCB_MODE_UNCONFIG_RUNTM_CFG)
  99:.\Generated_Source\PSoC4/SPI0.c ****     {
 100:.\Generated_Source\PSoC4/SPI0.c ****         SPI0_initVar = 0u; /* Clear init var */
 101:.\Generated_Source\PSoC4/SPI0.c ****     }
 102:.\Generated_Source\PSoC4/SPI0.c ****     else
 103:.\Generated_Source\PSoC4/SPI0.c ****     {
 104:.\Generated_Source\PSoC4/SPI0.c ****         /* Initialization was done before call */
 105:.\Generated_Source\PSoC4/SPI0.c ****     }
 106:.\Generated_Source\PSoC4/SPI0.c **** 
 107:.\Generated_Source\PSoC4/SPI0.c **** #elif(SPI0_SCB_MODE_I2C_CONST_CFG)
 108:.\Generated_Source\PSoC4/SPI0.c ****     SPI0_I2CInit();
 109:.\Generated_Source\PSoC4/SPI0.c **** 
 110:.\Generated_Source\PSoC4/SPI0.c **** #elif(SPI0_SCB_MODE_SPI_CONST_CFG)
 111:.\Generated_Source\PSoC4/SPI0.c ****     SPI0_SpiInit();
  33              		.loc 1 111 0
  34 0002 FFF7FEFF 		bl	SPI0_SpiInit
  35              	.LVL0:
 112:.\Generated_Source\PSoC4/SPI0.c **** 
 113:.\Generated_Source\PSoC4/SPI0.c **** #elif(SPI0_SCB_MODE_UART_CONST_CFG)
 114:.\Generated_Source\PSoC4/SPI0.c ****     SPI0_UartInit();
 115:.\Generated_Source\PSoC4/SPI0.c **** 
 116:.\Generated_Source\PSoC4/SPI0.c **** #elif(SPI0_SCB_MODE_EZI2C_CONST_CFG)
 117:.\Generated_Source\PSoC4/SPI0.c ****     SPI0_EzI2CInit();
 118:.\Generated_Source\PSoC4/SPI0.c **** 
 119:.\Generated_Source\PSoC4/SPI0.c **** #endif /* (SPI0_SCB_MODE_UNCONFIG_CONST_CFG) */
 120:.\Generated_Source\PSoC4/SPI0.c **** }
  36              		.loc 1 120 0
  37              		@ sp needed for prologue
  38 0006 08BD     		pop	{r3, pc}
  39              		.cfi_endproc
  40              	.LFE0:
  41              		.size	SPI0_Init, .-SPI0_Init
  42              		.section	.text.SPI0_Enable,"ax",%progbits
  43              		.align	1
  44              		.global	SPI0_Enable
  45              		.code	16
  46              		.thumb_func
  47              		.type	SPI0_Enable, %function
  48              	SPI0_Enable:
  49              	.LFB1:
 121:.\Generated_Source\PSoC4/SPI0.c **** 
 122:.\Generated_Source\PSoC4/SPI0.c **** 
ARM GAS  C:\Users\CHUCK~1.ERH\AppData\Local\Temp\ccv7iUuM.s 			page 4


 123:.\Generated_Source\PSoC4/SPI0.c **** /*******************************************************************************
 124:.\Generated_Source\PSoC4/SPI0.c **** * Function Name: SPI0_Enable
 125:.\Generated_Source\PSoC4/SPI0.c **** ********************************************************************************
 126:.\Generated_Source\PSoC4/SPI0.c **** *
 127:.\Generated_Source\PSoC4/SPI0.c **** * Summary:
 128:.\Generated_Source\PSoC4/SPI0.c **** *  Enables SCB component operation.
 129:.\Generated_Source\PSoC4/SPI0.c **** *  The SCB configuration should be not changed when the component is enabled.
 130:.\Generated_Source\PSoC4/SPI0.c **** *  Any configuration changes should be made after disabling the component.
 131:.\Generated_Source\PSoC4/SPI0.c **** *
 132:.\Generated_Source\PSoC4/SPI0.c **** * Parameters:
 133:.\Generated_Source\PSoC4/SPI0.c **** *  None
 134:.\Generated_Source\PSoC4/SPI0.c **** *
 135:.\Generated_Source\PSoC4/SPI0.c **** * Return:
 136:.\Generated_Source\PSoC4/SPI0.c **** *  None
 137:.\Generated_Source\PSoC4/SPI0.c **** *
 138:.\Generated_Source\PSoC4/SPI0.c **** *******************************************************************************/
 139:.\Generated_Source\PSoC4/SPI0.c **** void SPI0_Enable(void)
 140:.\Generated_Source\PSoC4/SPI0.c **** {
  50              		.loc 1 140 0
  51              		.cfi_startproc
 141:.\Generated_Source\PSoC4/SPI0.c **** #if(SPI0_SCB_MODE_UNCONFIG_CONST_CFG)
 142:.\Generated_Source\PSoC4/SPI0.c ****     if(!SPI0_SCB_MODE_UNCONFIG_RUNTM_CFG)
 143:.\Generated_Source\PSoC4/SPI0.c ****     {
 144:.\Generated_Source\PSoC4/SPI0.c ****         /* Enable SCB block, only if already configured */
 145:.\Generated_Source\PSoC4/SPI0.c ****         SPI0_CTRL_REG |= SPI0_CTRL_ENABLED;
 146:.\Generated_Source\PSoC4/SPI0.c ****         
 147:.\Generated_Source\PSoC4/SPI0.c ****         /* Enable interrupt */
 148:.\Generated_Source\PSoC4/SPI0.c ****         SPI0_ScbEnableIntr();
 149:.\Generated_Source\PSoC4/SPI0.c ****     }
 150:.\Generated_Source\PSoC4/SPI0.c **** #else
 151:.\Generated_Source\PSoC4/SPI0.c ****     SPI0_CTRL_REG |= SPI0_CTRL_ENABLED; /* Enable SCB block */
  52              		.loc 1 151 0
  53 0000 034B     		ldr	r3, .L3
  54 0002 8022     		mov	r2, #128
  55 0004 1968     		ldr	r1, [r3]
  56 0006 1006     		lsl	r0, r2, #24
  57 0008 0843     		orr	r0, r1
  58 000a 1860     		str	r0, [r3]
 152:.\Generated_Source\PSoC4/SPI0.c ****     
 153:.\Generated_Source\PSoC4/SPI0.c ****     SPI0_ScbEnableIntr();
 154:.\Generated_Source\PSoC4/SPI0.c **** #endif /* (SPI0_SCB_MODE_UNCONFIG_CONST_CFG) */
 155:.\Generated_Source\PSoC4/SPI0.c **** }
  59              		.loc 1 155 0
  60              		@ sp needed for prologue
  61 000c 7047     		bx	lr
  62              	.L4:
  63 000e C046     		.align	2
  64              	.L3:
  65 0010 00000740 		.word	1074200576
  66              		.cfi_endproc
  67              	.LFE1:
  68              		.size	SPI0_Enable, .-SPI0_Enable
  69              		.section	.text.SPI0_Start,"ax",%progbits
  70              		.align	1
  71              		.global	SPI0_Start
  72              		.code	16
  73              		.thumb_func
ARM GAS  C:\Users\CHUCK~1.ERH\AppData\Local\Temp\ccv7iUuM.s 			page 5


  74              		.type	SPI0_Start, %function
  75              	SPI0_Start:
  76              	.LFB2:
 156:.\Generated_Source\PSoC4/SPI0.c **** 
 157:.\Generated_Source\PSoC4/SPI0.c **** 
 158:.\Generated_Source\PSoC4/SPI0.c **** /*******************************************************************************
 159:.\Generated_Source\PSoC4/SPI0.c **** * Function Name: SPI0_Start
 160:.\Generated_Source\PSoC4/SPI0.c **** ********************************************************************************
 161:.\Generated_Source\PSoC4/SPI0.c **** *
 162:.\Generated_Source\PSoC4/SPI0.c **** * Summary:
 163:.\Generated_Source\PSoC4/SPI0.c **** *  Invokes SCB_Init() and SCB_Enable().
 164:.\Generated_Source\PSoC4/SPI0.c **** *  After this function call the component is enabled and ready for operation.
 165:.\Generated_Source\PSoC4/SPI0.c **** *
 166:.\Generated_Source\PSoC4/SPI0.c **** * Parameters:
 167:.\Generated_Source\PSoC4/SPI0.c **** *  None
 168:.\Generated_Source\PSoC4/SPI0.c **** *
 169:.\Generated_Source\PSoC4/SPI0.c **** * Return:
 170:.\Generated_Source\PSoC4/SPI0.c **** *  None
 171:.\Generated_Source\PSoC4/SPI0.c **** *
 172:.\Generated_Source\PSoC4/SPI0.c **** * Global variables:
 173:.\Generated_Source\PSoC4/SPI0.c **** *  SPI0_initVar - used to check initial configuration, modified
 174:.\Generated_Source\PSoC4/SPI0.c **** *  on first function call.
 175:.\Generated_Source\PSoC4/SPI0.c **** *
 176:.\Generated_Source\PSoC4/SPI0.c **** *******************************************************************************/
 177:.\Generated_Source\PSoC4/SPI0.c **** void SPI0_Start(void)
 178:.\Generated_Source\PSoC4/SPI0.c **** {
  77              		.loc 1 178 0
  78              		.cfi_startproc
  79 0000 08B5     		push	{r3, lr}
  80              	.LCFI1:
  81              		.cfi_def_cfa_offset 8
  82              		.cfi_offset 3, -8
  83              		.cfi_offset 14, -4
 179:.\Generated_Source\PSoC4/SPI0.c ****     if(0u == SPI0_initVar)
  84              		.loc 1 179 0
  85 0002 054B     		ldr	r3, .L8
  86 0004 1A78     		ldrb	r2, [r3]
  87 0006 002A     		cmp	r2, #0
  88 0008 03D1     		bne	.L6
 180:.\Generated_Source\PSoC4/SPI0.c ****     {
 181:.\Generated_Source\PSoC4/SPI0.c ****         SPI0_initVar = 1u; /* Component was initialized */
  89              		.loc 1 181 0
  90 000a 0120     		mov	r0, #1
  91 000c 1870     		strb	r0, [r3]
  92              	.LBB8:
  93              	.LBB9:
 111:.\Generated_Source\PSoC4/SPI0.c ****     SPI0_SpiInit();
  94              		.loc 1 111 0
  95 000e FFF7FEFF 		bl	SPI0_SpiInit
  96              	.LVL1:
  97              	.L6:
  98              	.LBE9:
  99              	.LBE8:
 182:.\Generated_Source\PSoC4/SPI0.c ****         SPI0_Init();       /* Initialize component      */
 183:.\Generated_Source\PSoC4/SPI0.c ****     }
 184:.\Generated_Source\PSoC4/SPI0.c **** 
 185:.\Generated_Source\PSoC4/SPI0.c ****     SPI0_Enable();
ARM GAS  C:\Users\CHUCK~1.ERH\AppData\Local\Temp\ccv7iUuM.s 			page 6


 100              		.loc 1 185 0
 101 0012 FFF7FEFF 		bl	SPI0_Enable
 102              	.LVL2:
 186:.\Generated_Source\PSoC4/SPI0.c **** }
 103              		.loc 1 186 0
 104              		@ sp needed for prologue
 105 0016 08BD     		pop	{r3, pc}
 106              	.L9:
 107              		.align	2
 108              	.L8:
 109 0018 00000000 		.word	.LANCHOR0
 110              		.cfi_endproc
 111              	.LFE2:
 112              		.size	SPI0_Start, .-SPI0_Start
 113              		.section	.text.SPI0_Stop,"ax",%progbits
 114              		.align	1
 115              		.global	SPI0_Stop
 116              		.code	16
 117              		.thumb_func
 118              		.type	SPI0_Stop, %function
 119              	SPI0_Stop:
 120              	.LFB3:
 187:.\Generated_Source\PSoC4/SPI0.c **** 
 188:.\Generated_Source\PSoC4/SPI0.c **** 
 189:.\Generated_Source\PSoC4/SPI0.c **** /*******************************************************************************
 190:.\Generated_Source\PSoC4/SPI0.c **** * Function Name: SPI0_Stop
 191:.\Generated_Source\PSoC4/SPI0.c **** ********************************************************************************
 192:.\Generated_Source\PSoC4/SPI0.c **** *
 193:.\Generated_Source\PSoC4/SPI0.c **** * Summary:
 194:.\Generated_Source\PSoC4/SPI0.c **** *  Disables the SCB component.
 195:.\Generated_Source\PSoC4/SPI0.c **** *
 196:.\Generated_Source\PSoC4/SPI0.c **** * Parameters:
 197:.\Generated_Source\PSoC4/SPI0.c **** *  None
 198:.\Generated_Source\PSoC4/SPI0.c **** *
 199:.\Generated_Source\PSoC4/SPI0.c **** * Return:
 200:.\Generated_Source\PSoC4/SPI0.c **** *  None
 201:.\Generated_Source\PSoC4/SPI0.c **** *
 202:.\Generated_Source\PSoC4/SPI0.c **** *******************************************************************************/
 203:.\Generated_Source\PSoC4/SPI0.c **** void SPI0_Stop(void)
 204:.\Generated_Source\PSoC4/SPI0.c **** {
 121              		.loc 1 204 0
 122              		.cfi_startproc
 205:.\Generated_Source\PSoC4/SPI0.c **** #if(SPI0_SCB_IRQ_INTERNAL)
 206:.\Generated_Source\PSoC4/SPI0.c ****     SPI0_SCB_IRQ_Disable();     /* Disable interrupt before block */
 207:.\Generated_Source\PSoC4/SPI0.c **** #endif /* (SPI0_SCB_IRQ_INTERNAL) */
 208:.\Generated_Source\PSoC4/SPI0.c **** 
 209:.\Generated_Source\PSoC4/SPI0.c ****     SPI0_CTRL_REG &= (uint32) ~SPI0_CTRL_ENABLED;  /* Disable SCB block */
 123              		.loc 1 209 0
 124 0000 024B     		ldr	r3, .L11
 210:.\Generated_Source\PSoC4/SPI0.c **** 
 211:.\Generated_Source\PSoC4/SPI0.c **** #if(SPI0_SCB_IRQ_INTERNAL)
 212:.\Generated_Source\PSoC4/SPI0.c ****     SPI0_SCB_IRQ_ClearPending(); /* Clear pending interrupt */
 213:.\Generated_Source\PSoC4/SPI0.c **** #endif /* (SPI0_SCB_IRQ_INTERNAL) */
 214:.\Generated_Source\PSoC4/SPI0.c ****     
 215:.\Generated_Source\PSoC4/SPI0.c ****     SPI0_ScbModeStop(); /* Calls scbMode specific Stop function */
 216:.\Generated_Source\PSoC4/SPI0.c **** }
 125              		.loc 1 216 0
ARM GAS  C:\Users\CHUCK~1.ERH\AppData\Local\Temp\ccv7iUuM.s 			page 7


 126              		@ sp needed for prologue
 209:.\Generated_Source\PSoC4/SPI0.c ****     SPI0_CTRL_REG &= (uint32) ~SPI0_CTRL_ENABLED;  /* Disable SCB block */
 127              		.loc 1 209 0
 128 0002 1A68     		ldr	r2, [r3]
 129 0004 5000     		lsl	r0, r2, #1
 130 0006 4108     		lsr	r1, r0, #1
 131 0008 1960     		str	r1, [r3]
 132              		.loc 1 216 0
 133 000a 7047     		bx	lr
 134              	.L12:
 135              		.align	2
 136              	.L11:
 137 000c 00000740 		.word	1074200576
 138              		.cfi_endproc
 139              	.LFE3:
 140              		.size	SPI0_Stop, .-SPI0_Stop
 141              		.section	.text.SPI0_SetCustomInterruptHandler,"ax",%progbits
 142              		.align	1
 143              		.global	SPI0_SetCustomInterruptHandler
 144              		.code	16
 145              		.thumb_func
 146              		.type	SPI0_SetCustomInterruptHandler, %function
 147              	SPI0_SetCustomInterruptHandler:
 148              	.LFB4:
 217:.\Generated_Source\PSoC4/SPI0.c **** 
 218:.\Generated_Source\PSoC4/SPI0.c **** 
 219:.\Generated_Source\PSoC4/SPI0.c **** /*******************************************************************************
 220:.\Generated_Source\PSoC4/SPI0.c **** * Function Name: SPI0_SetCustomInterruptHandler
 221:.\Generated_Source\PSoC4/SPI0.c **** ********************************************************************************
 222:.\Generated_Source\PSoC4/SPI0.c **** *
 223:.\Generated_Source\PSoC4/SPI0.c **** * Summary:
 224:.\Generated_Source\PSoC4/SPI0.c **** *  Registers a function to be called by the internal interrupt handler.
 225:.\Generated_Source\PSoC4/SPI0.c **** *  First the function that is registered is called, then the internal interrupt
 226:.\Generated_Source\PSoC4/SPI0.c **** *  handler performs any operations such as software buffer management functions
 227:.\Generated_Source\PSoC4/SPI0.c **** *  before the interrupt returns.  It is user's responsibility to not break the
 228:.\Generated_Source\PSoC4/SPI0.c **** *  software buffer operations. Only one custom handler is supported, which is
 229:.\Generated_Source\PSoC4/SPI0.c **** *  the function provided by the most recent call.
 230:.\Generated_Source\PSoC4/SPI0.c **** *  At initialization time no custom handler is registered.
 231:.\Generated_Source\PSoC4/SPI0.c **** *
 232:.\Generated_Source\PSoC4/SPI0.c **** * Parameters:
 233:.\Generated_Source\PSoC4/SPI0.c **** *  func: Pointer to the function to register.
 234:.\Generated_Source\PSoC4/SPI0.c **** *        The value NULL indicates to remove the current custom interrupt
 235:.\Generated_Source\PSoC4/SPI0.c **** *        handler.
 236:.\Generated_Source\PSoC4/SPI0.c **** *
 237:.\Generated_Source\PSoC4/SPI0.c **** * Return:
 238:.\Generated_Source\PSoC4/SPI0.c **** *  None
 239:.\Generated_Source\PSoC4/SPI0.c **** *
 240:.\Generated_Source\PSoC4/SPI0.c **** *******************************************************************************/
 241:.\Generated_Source\PSoC4/SPI0.c **** void SPI0_SetCustomInterruptHandler(cyisraddress func)
 242:.\Generated_Source\PSoC4/SPI0.c **** {
 149              		.loc 1 242 0
 150              		.cfi_startproc
 151              	.LVL3:
 243:.\Generated_Source\PSoC4/SPI0.c ****     SPI0_customIntrHandler = func; /* Register interrupt handler */
 152              		.loc 1 243 0
 153 0000 014B     		ldr	r3, .L14
 244:.\Generated_Source\PSoC4/SPI0.c **** }
ARM GAS  C:\Users\CHUCK~1.ERH\AppData\Local\Temp\ccv7iUuM.s 			page 8


 154              		.loc 1 244 0
 155              		@ sp needed for prologue
 243:.\Generated_Source\PSoC4/SPI0.c ****     SPI0_customIntrHandler = func; /* Register interrupt handler */
 156              		.loc 1 243 0
 157 0002 5860     		str	r0, [r3, #4]
 158              		.loc 1 244 0
 159 0004 7047     		bx	lr
 160              	.L15:
 161 0006 C046     		.align	2
 162              	.L14:
 163 0008 00000000 		.word	.LANCHOR0
 164              		.cfi_endproc
 165              	.LFE4:
 166              		.size	SPI0_SetCustomInterruptHandler, .-SPI0_SetCustomInterruptHandler
 167              		.global	SPI0_customIntrHandler
 168              		.global	SPI0_initVar
 169              		.bss
 170              		.align	2
 171              		.set	.LANCHOR0,. + 0
 172              		.type	SPI0_initVar, %object
 173              		.size	SPI0_initVar, 1
 174              	SPI0_initVar:
 175 0000 00       		.space	1
 176 0001 000000   		.space	3
 177              		.type	SPI0_customIntrHandler, %object
 178              		.size	SPI0_customIntrHandler, 4
 179              	SPI0_customIntrHandler:
 180 0004 00000000 		.space	4
 181              		.text
 182              	.Letext0:
 183              		.file 2 ".\\Generated_Source\\PSoC4\\cytypes.h"
 184              		.file 3 ".\\Generated_Source\\PSoC4\\SPI0_SPI_UART_PVT.h"