ARM GAS  C:\Users\CHUCK~1.ERH\AppData\Local\Temp\ccBzWuci.s 			page 1


   1              		.syntax unified
   2              		.cpu cortex-m3
   3              		.fpu softvfp
   4              		.eabi_attribute 20, 1
   5              		.eabi_attribute 21, 1
   6              		.eabi_attribute 23, 3
   7              		.eabi_attribute 24, 1
   8              		.eabi_attribute 25, 1
   9              		.eabi_attribute 26, 1
  10              		.eabi_attribute 30, 4
  11              		.eabi_attribute 34, 1
  12              		.eabi_attribute 18, 4
  13              		.thumb
  14              		.file	"cyfitter_cfg.c"
  15              		.text
  16              	.Ltext0:
  17              		.cfi_sections	.debug_frame
  18              		.section	.text.SetAnalogRoutingPumps,"ax",%progbits
  19              		.align	1
  20              		.global	SetAnalogRoutingPumps
  21              		.thumb
  22              		.thumb_func
  23              		.type	SetAnalogRoutingPumps, %function
  24              	SetAnalogRoutingPumps:
  25              	.LFB7:
  26              		.file 1 ".\\Generated_Source\\PSoC5\\cyfitter_cfg.c"
   1:.\Generated_Source\PSoC5/cyfitter_cfg.c **** /*******************************************************************************
   2:.\Generated_Source\PSoC5/cyfitter_cfg.c **** * FILENAME: cyfitter_cfg.c
   3:.\Generated_Source\PSoC5/cyfitter_cfg.c **** * PSoC Creator 3.0 Component Pack 7
   4:.\Generated_Source\PSoC5/cyfitter_cfg.c **** *
   5:.\Generated_Source\PSoC5/cyfitter_cfg.c **** * Description:
   6:.\Generated_Source\PSoC5/cyfitter_cfg.c **** * This file is automatically generated by PSoC Creator with device 
   7:.\Generated_Source\PSoC5/cyfitter_cfg.c **** * initialization code.  Except for the user defined sections in
   8:.\Generated_Source\PSoC5/cyfitter_cfg.c **** * CyClockStartupError(), this file should not be modified.
   9:.\Generated_Source\PSoC5/cyfitter_cfg.c **** *
  10:.\Generated_Source\PSoC5/cyfitter_cfg.c **** ********************************************************************************
  11:.\Generated_Source\PSoC5/cyfitter_cfg.c **** * Copyright 2013, Cypress Semiconductor Corporation.  All rights reserved.
  12:.\Generated_Source\PSoC5/cyfitter_cfg.c **** * You may use this file only in accordance with the license, terms, conditions, 
  13:.\Generated_Source\PSoC5/cyfitter_cfg.c **** * disclaimers, and limitations in the end user license agreement accompanying 
  14:.\Generated_Source\PSoC5/cyfitter_cfg.c **** * the software package with which this file was provided.
  15:.\Generated_Source\PSoC5/cyfitter_cfg.c **** ********************************************************************************/
  16:.\Generated_Source\PSoC5/cyfitter_cfg.c **** 
  17:.\Generated_Source\PSoC5/cyfitter_cfg.c **** #include <string.h>
  18:.\Generated_Source\PSoC5/cyfitter_cfg.c **** #include <cytypes.h>
  19:.\Generated_Source\PSoC5/cyfitter_cfg.c **** #include <cydevice_trm.h>
  20:.\Generated_Source\PSoC5/cyfitter_cfg.c **** #include <cyfitter.h>
  21:.\Generated_Source\PSoC5/cyfitter_cfg.c **** #include <CyLib.h>
  22:.\Generated_Source\PSoC5/cyfitter_cfg.c **** #include <cyfitter_cfg.h>
  23:.\Generated_Source\PSoC5/cyfitter_cfg.c **** 
  24:.\Generated_Source\PSoC5/cyfitter_cfg.c **** #define CY_NEED_CYCLOCKSTARTUPERROR 1
  25:.\Generated_Source\PSoC5/cyfitter_cfg.c **** 
  26:.\Generated_Source\PSoC5/cyfitter_cfg.c **** 
  27:.\Generated_Source\PSoC5/cyfitter_cfg.c **** #if defined(__GNUC__) || defined(__ARMCC_VERSION)
  28:.\Generated_Source\PSoC5/cyfitter_cfg.c ****     #define CYPACKED 
  29:.\Generated_Source\PSoC5/cyfitter_cfg.c ****     #define CYPACKED_ATTR __attribute__ ((packed))
  30:.\Generated_Source\PSoC5/cyfitter_cfg.c ****     #define CYALIGNED __attribute__ ((aligned))
  31:.\Generated_Source\PSoC5/cyfitter_cfg.c ****     #define CY_CFG_UNUSED __attribute__ ((unused))
ARM GAS  C:\Users\CHUCK~1.ERH\AppData\Local\Temp\ccBzWuci.s 			page 2


  32:.\Generated_Source\PSoC5/cyfitter_cfg.c ****     #define CY_CFG_SECTION __attribute__ ((section(".psocinit")))
  33:.\Generated_Source\PSoC5/cyfitter_cfg.c ****     
  34:.\Generated_Source\PSoC5/cyfitter_cfg.c ****     #if defined(__ARMCC_VERSION)
  35:.\Generated_Source\PSoC5/cyfitter_cfg.c ****         #define CY_CFG_MEMORY_BARRIER() __memory_changed()
  36:.\Generated_Source\PSoC5/cyfitter_cfg.c ****     #else
  37:.\Generated_Source\PSoC5/cyfitter_cfg.c ****         #define CY_CFG_MEMORY_BARRIER() __sync_synchronize()
  38:.\Generated_Source\PSoC5/cyfitter_cfg.c ****     #endif
  39:.\Generated_Source\PSoC5/cyfitter_cfg.c ****     
  40:.\Generated_Source\PSoC5/cyfitter_cfg.c **** #elif defined(__ICCARM__)
  41:.\Generated_Source\PSoC5/cyfitter_cfg.c ****     #include <intrinsics.h>
  42:.\Generated_Source\PSoC5/cyfitter_cfg.c **** 
  43:.\Generated_Source\PSoC5/cyfitter_cfg.c ****     #define CYPACKED __packed
  44:.\Generated_Source\PSoC5/cyfitter_cfg.c ****     #define CYPACKED_ATTR 
  45:.\Generated_Source\PSoC5/cyfitter_cfg.c ****     #define CYALIGNED _Pragma("data_alignment=4")
  46:.\Generated_Source\PSoC5/cyfitter_cfg.c ****     #define CY_CFG_UNUSED _Pragma("diag_suppress=Pe177")
  47:.\Generated_Source\PSoC5/cyfitter_cfg.c ****     #define CY_CFG_SECTION _Pragma("location=\".psocinit\"")
  48:.\Generated_Source\PSoC5/cyfitter_cfg.c ****     
  49:.\Generated_Source\PSoC5/cyfitter_cfg.c ****     #define CY_CFG_MEMORY_BARRIER() __DMB()
  50:.\Generated_Source\PSoC5/cyfitter_cfg.c ****     
  51:.\Generated_Source\PSoC5/cyfitter_cfg.c **** #else
  52:.\Generated_Source\PSoC5/cyfitter_cfg.c ****     #error Unsupported toolchain
  53:.\Generated_Source\PSoC5/cyfitter_cfg.c **** #endif
  54:.\Generated_Source\PSoC5/cyfitter_cfg.c **** 
  55:.\Generated_Source\PSoC5/cyfitter_cfg.c **** 
  56:.\Generated_Source\PSoC5/cyfitter_cfg.c **** CY_CFG_UNUSED
  57:.\Generated_Source\PSoC5/cyfitter_cfg.c **** static void CYMEMZERO(void *s, size_t n);
  58:.\Generated_Source\PSoC5/cyfitter_cfg.c **** CY_CFG_UNUSED
  59:.\Generated_Source\PSoC5/cyfitter_cfg.c **** static void CYMEMZERO(void *s, size_t n)
  60:.\Generated_Source\PSoC5/cyfitter_cfg.c **** {
  61:.\Generated_Source\PSoC5/cyfitter_cfg.c **** 	(void)memset(s, 0, n);
  62:.\Generated_Source\PSoC5/cyfitter_cfg.c **** }
  63:.\Generated_Source\PSoC5/cyfitter_cfg.c **** CY_CFG_UNUSED
  64:.\Generated_Source\PSoC5/cyfitter_cfg.c **** static void CYCONFIGCPY(void *dest, const void *src, size_t n);
  65:.\Generated_Source\PSoC5/cyfitter_cfg.c **** CY_CFG_UNUSED
  66:.\Generated_Source\PSoC5/cyfitter_cfg.c **** static void CYCONFIGCPY(void *dest, const void *src, size_t n)
  67:.\Generated_Source\PSoC5/cyfitter_cfg.c **** {
  68:.\Generated_Source\PSoC5/cyfitter_cfg.c **** 	(void)memcpy(dest, src, n);
  69:.\Generated_Source\PSoC5/cyfitter_cfg.c **** }
  70:.\Generated_Source\PSoC5/cyfitter_cfg.c **** CY_CFG_UNUSED
  71:.\Generated_Source\PSoC5/cyfitter_cfg.c **** static void CYCONFIGCPYCODE(void *dest, const void *src, size_t n);
  72:.\Generated_Source\PSoC5/cyfitter_cfg.c **** CY_CFG_UNUSED
  73:.\Generated_Source\PSoC5/cyfitter_cfg.c **** static void CYCONFIGCPYCODE(void *dest, const void *src, size_t n)
  74:.\Generated_Source\PSoC5/cyfitter_cfg.c **** {
  75:.\Generated_Source\PSoC5/cyfitter_cfg.c **** 	(void)memcpy(dest, src, n);
  76:.\Generated_Source\PSoC5/cyfitter_cfg.c **** }
  77:.\Generated_Source\PSoC5/cyfitter_cfg.c **** 
  78:.\Generated_Source\PSoC5/cyfitter_cfg.c **** 
  79:.\Generated_Source\PSoC5/cyfitter_cfg.c **** 
  80:.\Generated_Source\PSoC5/cyfitter_cfg.c **** /* Clock startup error codes                                                   */
  81:.\Generated_Source\PSoC5/cyfitter_cfg.c **** #define CYCLOCKSTART_NO_ERROR    0u
  82:.\Generated_Source\PSoC5/cyfitter_cfg.c **** #define CYCLOCKSTART_XTAL_ERROR  1u
  83:.\Generated_Source\PSoC5/cyfitter_cfg.c **** #define CYCLOCKSTART_32KHZ_ERROR 2u
  84:.\Generated_Source\PSoC5/cyfitter_cfg.c **** #define CYCLOCKSTART_PLL_ERROR   3u
  85:.\Generated_Source\PSoC5/cyfitter_cfg.c **** 
  86:.\Generated_Source\PSoC5/cyfitter_cfg.c **** #ifdef CY_NEED_CYCLOCKSTARTUPERROR
  87:.\Generated_Source\PSoC5/cyfitter_cfg.c **** /*******************************************************************************
  88:.\Generated_Source\PSoC5/cyfitter_cfg.c **** * Function Name: CyClockStartupError
ARM GAS  C:\Users\CHUCK~1.ERH\AppData\Local\Temp\ccBzWuci.s 			page 3


  89:.\Generated_Source\PSoC5/cyfitter_cfg.c **** ********************************************************************************
  90:.\Generated_Source\PSoC5/cyfitter_cfg.c **** * Summary:
  91:.\Generated_Source\PSoC5/cyfitter_cfg.c **** *  If an error is encountered during clock configuration (crystal startup error,
  92:.\Generated_Source\PSoC5/cyfitter_cfg.c **** *  PLL lock error, etc.), the system will end up here.  Unless reimplemented by
  93:.\Generated_Source\PSoC5/cyfitter_cfg.c **** *  the customer, this function will stop in an infinite loop.
  94:.\Generated_Source\PSoC5/cyfitter_cfg.c **** *
  95:.\Generated_Source\PSoC5/cyfitter_cfg.c **** * Parameters:
  96:.\Generated_Source\PSoC5/cyfitter_cfg.c **** *   void
  97:.\Generated_Source\PSoC5/cyfitter_cfg.c **** *
  98:.\Generated_Source\PSoC5/cyfitter_cfg.c **** * Return:
  99:.\Generated_Source\PSoC5/cyfitter_cfg.c **** *   void
 100:.\Generated_Source\PSoC5/cyfitter_cfg.c **** *
 101:.\Generated_Source\PSoC5/cyfitter_cfg.c **** *******************************************************************************/
 102:.\Generated_Source\PSoC5/cyfitter_cfg.c **** CY_CFG_UNUSED
 103:.\Generated_Source\PSoC5/cyfitter_cfg.c **** static void CyClockStartupError(uint8 errorCode);
 104:.\Generated_Source\PSoC5/cyfitter_cfg.c **** CY_CFG_UNUSED
 105:.\Generated_Source\PSoC5/cyfitter_cfg.c **** static void CyClockStartupError(uint8 errorCode)
 106:.\Generated_Source\PSoC5/cyfitter_cfg.c **** {
 107:.\Generated_Source\PSoC5/cyfitter_cfg.c ****     /* To remove the compiler warning if errorCode not used.                */
 108:.\Generated_Source\PSoC5/cyfitter_cfg.c ****     errorCode = errorCode;
 109:.\Generated_Source\PSoC5/cyfitter_cfg.c **** 
 110:.\Generated_Source\PSoC5/cyfitter_cfg.c ****     /* `#START CyClockStartupError` */
 111:.\Generated_Source\PSoC5/cyfitter_cfg.c **** 
 112:.\Generated_Source\PSoC5/cyfitter_cfg.c ****     /* If we have a clock startup error (bad MHz crystal, PLL lock, etc.),  */
 113:.\Generated_Source\PSoC5/cyfitter_cfg.c ****     /* we will end up here to allow the customer to implement something to  */
 114:.\Generated_Source\PSoC5/cyfitter_cfg.c ****     /* deal with the clock condition.                                       */
 115:.\Generated_Source\PSoC5/cyfitter_cfg.c **** 
 116:.\Generated_Source\PSoC5/cyfitter_cfg.c ****     /* `#END` */
 117:.\Generated_Source\PSoC5/cyfitter_cfg.c **** 
 118:.\Generated_Source\PSoC5/cyfitter_cfg.c ****     /* If nothing else, stop here since the clocks have not started         */
 119:.\Generated_Source\PSoC5/cyfitter_cfg.c ****     /* correctly.                                                           */
 120:.\Generated_Source\PSoC5/cyfitter_cfg.c ****     while(1) {}
 121:.\Generated_Source\PSoC5/cyfitter_cfg.c **** }
 122:.\Generated_Source\PSoC5/cyfitter_cfg.c **** #endif
 123:.\Generated_Source\PSoC5/cyfitter_cfg.c **** 
 124:.\Generated_Source\PSoC5/cyfitter_cfg.c **** #define CY_CFG_BASE_ADDR_COUNT 15u
 125:.\Generated_Source\PSoC5/cyfitter_cfg.c **** CYPACKED typedef struct
 126:.\Generated_Source\PSoC5/cyfitter_cfg.c **** {
 127:.\Generated_Source\PSoC5/cyfitter_cfg.c **** 	uint8 offset;
 128:.\Generated_Source\PSoC5/cyfitter_cfg.c **** 	uint8 value;
 129:.\Generated_Source\PSoC5/cyfitter_cfg.c **** } CYPACKED_ATTR cy_cfg_addrvalue_t;
 130:.\Generated_Source\PSoC5/cyfitter_cfg.c **** 
 131:.\Generated_Source\PSoC5/cyfitter_cfg.c **** #define cy_cfg_addr_table ((const uint32 CYFAR *)0x48000000u)
 132:.\Generated_Source\PSoC5/cyfitter_cfg.c **** #define cy_cfg_data_table ((const cy_cfg_addrvalue_t CYFAR *)0x4800003Cu)
 133:.\Generated_Source\PSoC5/cyfitter_cfg.c **** 
 134:.\Generated_Source\PSoC5/cyfitter_cfg.c **** /* UDB_1_1_1_CONFIG Address: CYDEV_UCFG_B1_P3_U0_BASE Size (bytes): 128 */
 135:.\Generated_Source\PSoC5/cyfitter_cfg.c **** #define BS_UDB_1_1_1_CONFIG_VAL ((const uint8 CYFAR *)0x48000288u)
 136:.\Generated_Source\PSoC5/cyfitter_cfg.c **** 
 137:.\Generated_Source\PSoC5/cyfitter_cfg.c **** /* IOPINS0_0 Address: CYREG_PRT0_DM0 Size (bytes): 8 */
 138:.\Generated_Source\PSoC5/cyfitter_cfg.c **** #define BS_IOPINS0_0_VAL ((const uint8 CYFAR *)0x48000308u)
 139:.\Generated_Source\PSoC5/cyfitter_cfg.c **** 
 140:.\Generated_Source\PSoC5/cyfitter_cfg.c **** /* IOPINS0_7 Address: CYREG_PRT12_DR Size (bytes): 10 */
 141:.\Generated_Source\PSoC5/cyfitter_cfg.c **** #define BS_IOPINS0_7_VAL ((const uint8 CYFAR *)0x48000310u)
 142:.\Generated_Source\PSoC5/cyfitter_cfg.c **** 
 143:.\Generated_Source\PSoC5/cyfitter_cfg.c **** /* IOPINS0_3 Address: CYREG_PRT3_DM0 Size (bytes): 8 */
 144:.\Generated_Source\PSoC5/cyfitter_cfg.c **** #define BS_IOPINS0_3_VAL ((const uint8 CYFAR *)0x4800031Cu)
 145:.\Generated_Source\PSoC5/cyfitter_cfg.c **** 
ARM GAS  C:\Users\CHUCK~1.ERH\AppData\Local\Temp\ccBzWuci.s 			page 4


 146:.\Generated_Source\PSoC5/cyfitter_cfg.c **** /* IOPINS0_5 Address: CYREG_PRT5_DM0 Size (bytes): 8 */
 147:.\Generated_Source\PSoC5/cyfitter_cfg.c **** #define BS_IOPINS0_5_VAL ((const uint8 CYFAR *)0x48000324u)
 148:.\Generated_Source\PSoC5/cyfitter_cfg.c **** 
 149:.\Generated_Source\PSoC5/cyfitter_cfg.c **** 
 150:.\Generated_Source\PSoC5/cyfitter_cfg.c **** /*******************************************************************************
 151:.\Generated_Source\PSoC5/cyfitter_cfg.c **** * Function Name: cfg_write_bytes32
 152:.\Generated_Source\PSoC5/cyfitter_cfg.c **** ********************************************************************************
 153:.\Generated_Source\PSoC5/cyfitter_cfg.c **** * Summary:
 154:.\Generated_Source\PSoC5/cyfitter_cfg.c **** *  This function is used for setting up the chip configuration areas that
 155:.\Generated_Source\PSoC5/cyfitter_cfg.c **** *  contain relatively sparse data.
 156:.\Generated_Source\PSoC5/cyfitter_cfg.c **** *
 157:.\Generated_Source\PSoC5/cyfitter_cfg.c **** * Parameters:
 158:.\Generated_Source\PSoC5/cyfitter_cfg.c **** *   void
 159:.\Generated_Source\PSoC5/cyfitter_cfg.c **** *
 160:.\Generated_Source\PSoC5/cyfitter_cfg.c **** * Return:
 161:.\Generated_Source\PSoC5/cyfitter_cfg.c **** *   void
 162:.\Generated_Source\PSoC5/cyfitter_cfg.c **** *
 163:.\Generated_Source\PSoC5/cyfitter_cfg.c **** *******************************************************************************/
 164:.\Generated_Source\PSoC5/cyfitter_cfg.c **** static void cfg_write_bytes32(const uint32 addr_table[], const cy_cfg_addrvalue_t data_table[]);
 165:.\Generated_Source\PSoC5/cyfitter_cfg.c **** static void cfg_write_bytes32(const uint32 addr_table[], const cy_cfg_addrvalue_t data_table[])
 166:.\Generated_Source\PSoC5/cyfitter_cfg.c **** {
 167:.\Generated_Source\PSoC5/cyfitter_cfg.c **** 	/* For 32-bit little-endian architectures */
 168:.\Generated_Source\PSoC5/cyfitter_cfg.c **** 	uint32 i, j = 0u;
 169:.\Generated_Source\PSoC5/cyfitter_cfg.c **** 	for (i = 0u; i < CY_CFG_BASE_ADDR_COUNT; i++)
 170:.\Generated_Source\PSoC5/cyfitter_cfg.c **** 	{
 171:.\Generated_Source\PSoC5/cyfitter_cfg.c **** 		uint32 baseAddr = addr_table[i];
 172:.\Generated_Source\PSoC5/cyfitter_cfg.c **** 		uint8 count = (uint8)baseAddr;
 173:.\Generated_Source\PSoC5/cyfitter_cfg.c **** 		baseAddr &= 0xFFFFFF00u;
 174:.\Generated_Source\PSoC5/cyfitter_cfg.c **** 		while (count != 0u)
 175:.\Generated_Source\PSoC5/cyfitter_cfg.c **** 		{
 176:.\Generated_Source\PSoC5/cyfitter_cfg.c **** 			CY_SET_XTND_REG8((void CYFAR *)(baseAddr + data_table[j].offset), data_table[j].value);
 177:.\Generated_Source\PSoC5/cyfitter_cfg.c **** 			j++;
 178:.\Generated_Source\PSoC5/cyfitter_cfg.c **** 			count--;
 179:.\Generated_Source\PSoC5/cyfitter_cfg.c **** 		}
 180:.\Generated_Source\PSoC5/cyfitter_cfg.c **** 	}
 181:.\Generated_Source\PSoC5/cyfitter_cfg.c **** }
 182:.\Generated_Source\PSoC5/cyfitter_cfg.c **** 
 183:.\Generated_Source\PSoC5/cyfitter_cfg.c **** /*******************************************************************************
 184:.\Generated_Source\PSoC5/cyfitter_cfg.c **** * Function Name: ClockSetup
 185:.\Generated_Source\PSoC5/cyfitter_cfg.c **** ********************************************************************************
 186:.\Generated_Source\PSoC5/cyfitter_cfg.c **** *
 187:.\Generated_Source\PSoC5/cyfitter_cfg.c **** * Summary:
 188:.\Generated_Source\PSoC5/cyfitter_cfg.c **** *  Performs the initialization of all of the clocks in the device based on the
 189:.\Generated_Source\PSoC5/cyfitter_cfg.c **** *  settings in the Clock tab of the DWR.  This includes enabling the requested
 190:.\Generated_Source\PSoC5/cyfitter_cfg.c **** *  clocks and setting the necessary dividers to produce the desired frequency. 
 191:.\Generated_Source\PSoC5/cyfitter_cfg.c **** *
 192:.\Generated_Source\PSoC5/cyfitter_cfg.c **** * Parameters:
 193:.\Generated_Source\PSoC5/cyfitter_cfg.c **** *  void
 194:.\Generated_Source\PSoC5/cyfitter_cfg.c **** *
 195:.\Generated_Source\PSoC5/cyfitter_cfg.c **** * Return:
 196:.\Generated_Source\PSoC5/cyfitter_cfg.c **** *  void
 197:.\Generated_Source\PSoC5/cyfitter_cfg.c **** *
 198:.\Generated_Source\PSoC5/cyfitter_cfg.c **** *******************************************************************************/
 199:.\Generated_Source\PSoC5/cyfitter_cfg.c **** static void ClockSetup(void);
 200:.\Generated_Source\PSoC5/cyfitter_cfg.c **** static void ClockSetup(void)
 201:.\Generated_Source\PSoC5/cyfitter_cfg.c **** {
 202:.\Generated_Source\PSoC5/cyfitter_cfg.c **** 	uint32 timeout;
ARM GAS  C:\Users\CHUCK~1.ERH\AppData\Local\Temp\ccBzWuci.s 			page 5


 203:.\Generated_Source\PSoC5/cyfitter_cfg.c **** 	uint8 pllLock;
 204:.\Generated_Source\PSoC5/cyfitter_cfg.c **** 
 205:.\Generated_Source\PSoC5/cyfitter_cfg.c **** 
 206:.\Generated_Source\PSoC5/cyfitter_cfg.c **** 	/* Configure Digital Clocks based on settings from Clock DWR */
 207:.\Generated_Source\PSoC5/cyfitter_cfg.c **** 	CY_SET_XTND_REG16((void CYFAR *)(CYREG_CLKDIST_DCFG0_CFG0), 0x0001u);
 208:.\Generated_Source\PSoC5/cyfitter_cfg.c **** 	CY_SET_XTND_REG8((void CYFAR *)(CYREG_CLKDIST_DCFG0_CFG0 + 0x2u), 0x18u);
 209:.\Generated_Source\PSoC5/cyfitter_cfg.c **** 
 210:.\Generated_Source\PSoC5/cyfitter_cfg.c **** 	/* Configure ILO based on settings from Clock DWR */
 211:.\Generated_Source\PSoC5/cyfitter_cfg.c **** 	CY_SET_XTND_REG8((void CYFAR *)(CYREG_SLOWCLK_ILO_CR0), 0x02u);
 212:.\Generated_Source\PSoC5/cyfitter_cfg.c **** 	CY_SET_XTND_REG8((void CYFAR *)(CYREG_CLKDIST_CR), 0x08u);
 213:.\Generated_Source\PSoC5/cyfitter_cfg.c **** 
 214:.\Generated_Source\PSoC5/cyfitter_cfg.c **** 	/* Configure IMO based on settings from Clock DWR */
 215:.\Generated_Source\PSoC5/cyfitter_cfg.c **** 	CY_SET_XTND_REG8((void CYFAR *)(CYREG_FASTCLK_IMO_CR), 0x02u);
 216:.\Generated_Source\PSoC5/cyfitter_cfg.c **** 	CY_SET_XTND_REG8((void CYFAR *)(CYREG_IMO_TR1), (CY_GET_XTND_REG8((void CYFAR *)CYREG_FLSHID_CUST_
 217:.\Generated_Source\PSoC5/cyfitter_cfg.c **** 
 218:.\Generated_Source\PSoC5/cyfitter_cfg.c **** 	/* Configure PLL based on settings from Clock DWR */
 219:.\Generated_Source\PSoC5/cyfitter_cfg.c **** 	CY_SET_XTND_REG16((void CYFAR *)(CYREG_FASTCLK_PLL_P), 0x0818u);
 220:.\Generated_Source\PSoC5/cyfitter_cfg.c **** 	CY_SET_XTND_REG16((void CYFAR *)(CYREG_FASTCLK_PLL_CFG0), 0x1251u);
 221:.\Generated_Source\PSoC5/cyfitter_cfg.c **** 	/* Wait up to 250us for the PLL to lock */
 222:.\Generated_Source\PSoC5/cyfitter_cfg.c **** 	pllLock = 0u;
 223:.\Generated_Source\PSoC5/cyfitter_cfg.c **** 	for (timeout = 250u / 10u; (timeout > 0u) && (pllLock != 0x03u); timeout--)
 224:.\Generated_Source\PSoC5/cyfitter_cfg.c **** 	{ 
 225:.\Generated_Source\PSoC5/cyfitter_cfg.c **** 		pllLock = 0x03u & ((uint8)((uint8)pllLock << 1) | ((CY_GET_XTND_REG8((void CYFAR *)CYREG_FASTCLK_
 226:.\Generated_Source\PSoC5/cyfitter_cfg.c **** 		CyDelayCycles(10u * 48u); /* Delay 10us based on 48MHz clock */
 227:.\Generated_Source\PSoC5/cyfitter_cfg.c **** 	}
 228:.\Generated_Source\PSoC5/cyfitter_cfg.c **** 	/* If we ran out of time the PLL didn't lock so go to the error function */
 229:.\Generated_Source\PSoC5/cyfitter_cfg.c **** 	if (timeout == 0u)
 230:.\Generated_Source\PSoC5/cyfitter_cfg.c **** 	{
 231:.\Generated_Source\PSoC5/cyfitter_cfg.c **** 		CyClockStartupError(CYCLOCKSTART_PLL_ERROR);
 232:.\Generated_Source\PSoC5/cyfitter_cfg.c **** 	}
 233:.\Generated_Source\PSoC5/cyfitter_cfg.c **** 
 234:.\Generated_Source\PSoC5/cyfitter_cfg.c **** 	/* Configure Bus/Master Clock based on settings from Clock DWR */
 235:.\Generated_Source\PSoC5/cyfitter_cfg.c **** 	CY_SET_XTND_REG16((void CYFAR *)(CYREG_CLKDIST_MSTR0), 0x0100u);
 236:.\Generated_Source\PSoC5/cyfitter_cfg.c **** 	CY_SET_XTND_REG8((void CYFAR *)(CYREG_CLKDIST_MSTR0), 0x07u);
 237:.\Generated_Source\PSoC5/cyfitter_cfg.c **** 	CY_SET_XTND_REG8((void CYFAR *)(CYREG_CLKDIST_BCFG0), 0x00u);
 238:.\Generated_Source\PSoC5/cyfitter_cfg.c **** 	CY_SET_XTND_REG8((void CYFAR *)(CYREG_CLKDIST_BCFG2), 0x48u);
 239:.\Generated_Source\PSoC5/cyfitter_cfg.c **** 	CY_SET_XTND_REG8((void CYFAR *)(CYREG_CLKDIST_MSTR0), 0x00u);
 240:.\Generated_Source\PSoC5/cyfitter_cfg.c **** 	CY_SET_XTND_REG8((void CYFAR *)(CYREG_CLKDIST_LD), 0x02u);
 241:.\Generated_Source\PSoC5/cyfitter_cfg.c **** 
 242:.\Generated_Source\PSoC5/cyfitter_cfg.c **** 	CY_SET_XTND_REG8((void CYFAR *)(CYREG_PM_ACT_CFG2), ((CY_GET_XTND_REG8((void CYFAR *)CYREG_PM_ACT_
 243:.\Generated_Source\PSoC5/cyfitter_cfg.c **** }
 244:.\Generated_Source\PSoC5/cyfitter_cfg.c **** 
 245:.\Generated_Source\PSoC5/cyfitter_cfg.c **** 
 246:.\Generated_Source\PSoC5/cyfitter_cfg.c **** /* Analog API Functions */
 247:.\Generated_Source\PSoC5/cyfitter_cfg.c **** 
 248:.\Generated_Source\PSoC5/cyfitter_cfg.c **** 
 249:.\Generated_Source\PSoC5/cyfitter_cfg.c **** /*******************************************************************************
 250:.\Generated_Source\PSoC5/cyfitter_cfg.c **** * Function Name: AnalogSetDefault
 251:.\Generated_Source\PSoC5/cyfitter_cfg.c **** ********************************************************************************
 252:.\Generated_Source\PSoC5/cyfitter_cfg.c **** *
 253:.\Generated_Source\PSoC5/cyfitter_cfg.c **** * Summary:
 254:.\Generated_Source\PSoC5/cyfitter_cfg.c **** *  Sets up the analog portions of the chip to default values based on chip
 255:.\Generated_Source\PSoC5/cyfitter_cfg.c **** *  configuration options from the project.
 256:.\Generated_Source\PSoC5/cyfitter_cfg.c **** *
 257:.\Generated_Source\PSoC5/cyfitter_cfg.c **** * Parameters:
 258:.\Generated_Source\PSoC5/cyfitter_cfg.c **** *  void
 259:.\Generated_Source\PSoC5/cyfitter_cfg.c **** *
ARM GAS  C:\Users\CHUCK~1.ERH\AppData\Local\Temp\ccBzWuci.s 			page 6


 260:.\Generated_Source\PSoC5/cyfitter_cfg.c **** * Return:
 261:.\Generated_Source\PSoC5/cyfitter_cfg.c **** *  void
 262:.\Generated_Source\PSoC5/cyfitter_cfg.c **** *
 263:.\Generated_Source\PSoC5/cyfitter_cfg.c **** *******************************************************************************/
 264:.\Generated_Source\PSoC5/cyfitter_cfg.c **** static void AnalogSetDefault(void);
 265:.\Generated_Source\PSoC5/cyfitter_cfg.c **** static void AnalogSetDefault(void)
 266:.\Generated_Source\PSoC5/cyfitter_cfg.c **** {
 267:.\Generated_Source\PSoC5/cyfitter_cfg.c **** 	uint8 bg_xover_inl_trim = CY_GET_XTND_REG8((void CYFAR *)(CYREG_FLSHID_MFG_CFG_BG_XOVER_INL_TRIM +
 268:.\Generated_Source\PSoC5/cyfitter_cfg.c **** 	CY_SET_XTND_REG8((void CYFAR *)(CYREG_BG_DFT0), (bg_xover_inl_trim & 0x07u));
 269:.\Generated_Source\PSoC5/cyfitter_cfg.c **** 	CY_SET_XTND_REG8((void CYFAR *)(CYREG_BG_DFT1), ((bg_xover_inl_trim >> 4) & 0x0Fu));
 270:.\Generated_Source\PSoC5/cyfitter_cfg.c **** 	CY_SET_XTND_REG8((void CYFAR *)CYREG_PUMP_CR0, 0x44u);
 271:.\Generated_Source\PSoC5/cyfitter_cfg.c **** }
 272:.\Generated_Source\PSoC5/cyfitter_cfg.c **** 
 273:.\Generated_Source\PSoC5/cyfitter_cfg.c **** 
 274:.\Generated_Source\PSoC5/cyfitter_cfg.c **** /*******************************************************************************
 275:.\Generated_Source\PSoC5/cyfitter_cfg.c **** * Function Name: SetAnalogRoutingPumps
 276:.\Generated_Source\PSoC5/cyfitter_cfg.c **** ********************************************************************************
 277:.\Generated_Source\PSoC5/cyfitter_cfg.c **** *
 278:.\Generated_Source\PSoC5/cyfitter_cfg.c **** * Summary:
 279:.\Generated_Source\PSoC5/cyfitter_cfg.c **** * Enables or disables the analog pumps feeding analog routing switches.
 280:.\Generated_Source\PSoC5/cyfitter_cfg.c **** * Intended to be called at startup, based on the Vdda system configuration;
 281:.\Generated_Source\PSoC5/cyfitter_cfg.c **** * may be called during operation when the user informs us that the Vdda voltage
 282:.\Generated_Source\PSoC5/cyfitter_cfg.c **** * crossed the pump threshold.
 283:.\Generated_Source\PSoC5/cyfitter_cfg.c **** *
 284:.\Generated_Source\PSoC5/cyfitter_cfg.c **** * Parameters:
 285:.\Generated_Source\PSoC5/cyfitter_cfg.c **** *  enabled - 1 to enable the pumps, 0 to disable the pumps
 286:.\Generated_Source\PSoC5/cyfitter_cfg.c **** *
 287:.\Generated_Source\PSoC5/cyfitter_cfg.c **** * Return:
 288:.\Generated_Source\PSoC5/cyfitter_cfg.c **** *  void
 289:.\Generated_Source\PSoC5/cyfitter_cfg.c **** *
 290:.\Generated_Source\PSoC5/cyfitter_cfg.c **** *******************************************************************************/
 291:.\Generated_Source\PSoC5/cyfitter_cfg.c **** void SetAnalogRoutingPumps(uint8 enabled)
 292:.\Generated_Source\PSoC5/cyfitter_cfg.c **** {
  27              		.loc 1 292 0
  28              		.cfi_startproc
  29              		@ args = 0, pretend = 0, frame = 0
  30              		@ frame_needed = 0, uses_anonymous_args = 0
  31              		@ link register save eliminated.
  32              	.LVL0:
 293:.\Generated_Source\PSoC5/cyfitter_cfg.c **** 	uint8 regValue = CY_GET_XTND_REG8((void CYFAR *)CYREG_PUMP_CR0);
  33              		.loc 1 293 0
  34 0000 014B     		ldr	r3, .L2
  35 0002 1A78     		ldrb	r2, [r3, #0]	@ zero_extendqisi2
  36              	.LVL1:
 294:.\Generated_Source\PSoC5/cyfitter_cfg.c **** 	if (enabled != 0u)
 295:.\Generated_Source\PSoC5/cyfitter_cfg.c **** 	{
 296:.\Generated_Source\PSoC5/cyfitter_cfg.c **** 		regValue |= 0x00u;
 297:.\Generated_Source\PSoC5/cyfitter_cfg.c **** 	}
 298:.\Generated_Source\PSoC5/cyfitter_cfg.c **** 	else
 299:.\Generated_Source\PSoC5/cyfitter_cfg.c **** 	{
 300:.\Generated_Source\PSoC5/cyfitter_cfg.c **** 		regValue &= (uint8)~0x00u;
 301:.\Generated_Source\PSoC5/cyfitter_cfg.c **** 	}
 302:.\Generated_Source\PSoC5/cyfitter_cfg.c **** 	CY_SET_XTND_REG8((void CYFAR *)CYREG_PUMP_CR0, regValue);
  37              		.loc 1 302 0
  38 0004 1A70     		strb	r2, [r3, #0]
  39 0006 7047     		bx	lr
  40              	.L3:
ARM GAS  C:\Users\CHUCK~1.ERH\AppData\Local\Temp\ccBzWuci.s 			page 7


  41              		.align	2
  42              	.L2:
  43 0008 76580040 		.word	1073764470
  44              		.cfi_endproc
  45              	.LFE7:
  46              		.size	SetAnalogRoutingPumps, .-SetAnalogRoutingPumps
  47              		.section	.text.cyfitter_cfg,"ax",%progbits
  48              		.align	1
  49              		.global	cyfitter_cfg
  50              		.thumb
  51              		.thumb_func
  52              		.type	cyfitter_cfg, %function
  53              	cyfitter_cfg:
  54              	.LFB8:
 303:.\Generated_Source\PSoC5/cyfitter_cfg.c **** }
 304:.\Generated_Source\PSoC5/cyfitter_cfg.c **** 
 305:.\Generated_Source\PSoC5/cyfitter_cfg.c **** #define CY_AMUX_UNUSED CYREG_BOOST_SR
 306:.\Generated_Source\PSoC5/cyfitter_cfg.c **** 
 307:.\Generated_Source\PSoC5/cyfitter_cfg.c **** 
 308:.\Generated_Source\PSoC5/cyfitter_cfg.c **** /*******************************************************************************
 309:.\Generated_Source\PSoC5/cyfitter_cfg.c **** * Function Name: cyfitter_cfg
 310:.\Generated_Source\PSoC5/cyfitter_cfg.c **** ********************************************************************************
 311:.\Generated_Source\PSoC5/cyfitter_cfg.c **** * Summary:
 312:.\Generated_Source\PSoC5/cyfitter_cfg.c **** *  This function is called by the start-up code for the selected device. It
 313:.\Generated_Source\PSoC5/cyfitter_cfg.c **** *  performs all of the necessary device configuration based on the design
 314:.\Generated_Source\PSoC5/cyfitter_cfg.c **** *  settings.  This includes settings from the Design Wide Resources (DWR) such
 315:.\Generated_Source\PSoC5/cyfitter_cfg.c **** *  as Clocks and Pins as well as any component configuration that is necessary.
 316:.\Generated_Source\PSoC5/cyfitter_cfg.c **** *
 317:.\Generated_Source\PSoC5/cyfitter_cfg.c **** * Parameters:  
 318:.\Generated_Source\PSoC5/cyfitter_cfg.c **** *   void
 319:.\Generated_Source\PSoC5/cyfitter_cfg.c **** *
 320:.\Generated_Source\PSoC5/cyfitter_cfg.c **** * Return:
 321:.\Generated_Source\PSoC5/cyfitter_cfg.c **** *   void
 322:.\Generated_Source\PSoC5/cyfitter_cfg.c **** *
 323:.\Generated_Source\PSoC5/cyfitter_cfg.c **** *******************************************************************************/
 324:.\Generated_Source\PSoC5/cyfitter_cfg.c **** 
 325:.\Generated_Source\PSoC5/cyfitter_cfg.c **** void cyfitter_cfg(void)
 326:.\Generated_Source\PSoC5/cyfitter_cfg.c **** {
  55              		.loc 1 326 0
  56              		.cfi_startproc
  57              		@ args = 0, pretend = 0, frame = 0
  58              		@ frame_needed = 0, uses_anonymous_args = 0
  59 0000 F8B5     		push	{r3, r4, r5, r6, r7, lr}
  60              	.LCFI0:
  61              		.cfi_def_cfa_offset 24
  62              		.cfi_offset 3, -24
  63              		.cfi_offset 4, -20
  64              		.cfi_offset 5, -16
  65              		.cfi_offset 6, -12
  66              		.cfi_offset 7, -8
  67              		.cfi_offset 14, -4
 327:.\Generated_Source\PSoC5/cyfitter_cfg.c **** #ifdef CYGlobalIntDisable
 328:.\Generated_Source\PSoC5/cyfitter_cfg.c **** 	/* Disable interrupts by default. Let user enable if/when they want. */
 329:.\Generated_Source\PSoC5/cyfitter_cfg.c **** 	CYGlobalIntDisable
  68              		.loc 1 329 0
  69              	@ 329 ".\Generated_Source\PSoC5\cyfitter_cfg.c" 1
  70 0002 72B6     		CPSID   i
ARM GAS  C:\Users\CHUCK~1.ERH\AppData\Local\Temp\ccBzWuci.s 			page 8


  71              	@ 0 "" 2
 330:.\Generated_Source\PSoC5/cyfitter_cfg.c **** #endif
 331:.\Generated_Source\PSoC5/cyfitter_cfg.c **** 
 332:.\Generated_Source\PSoC5/cyfitter_cfg.c **** 
 333:.\Generated_Source\PSoC5/cyfitter_cfg.c **** 	/* Set Flash Cycles based on max possible frequency in case a glitch occurs during ClockSetup(). *
 334:.\Generated_Source\PSoC5/cyfitter_cfg.c **** 	CY_SET_XTND_REG8((void CYFAR *)(CYREG_CACHE_CC_CTL), (((CYDEV_INSTRUCT_CACHE_ENABLED) != 0) ? 0x01
  72              		.loc 1 334 0
  73              		.thumb
  74 0004 644A     		ldr	r2, .L23
  75 0006 0123     		movs	r3, #1
  76              	.LBB44:
  77              	.LBB45:
 207:.\Generated_Source\PSoC5/cyfitter_cfg.c **** 	CY_SET_XTND_REG16((void CYFAR *)(CYREG_CLKDIST_DCFG0_CFG0), 0x0001u);
  78              		.loc 1 207 0
  79 0008 A2F5F060 		sub	r0, r2, #1920
 208:.\Generated_Source\PSoC5/cyfitter_cfg.c **** 	CY_SET_XTND_REG8((void CYFAR *)(CYREG_CLKDIST_DCFG0_CFG0 + 0x2u), 0x18u);
  80              		.loc 1 208 0
  81 000c 634C     		ldr	r4, .L23+4
 211:.\Generated_Source\PSoC5/cyfitter_cfg.c **** 	CY_SET_XTND_REG8((void CYFAR *)(CYREG_SLOWCLK_ILO_CR0), 0x02u);
  82              		.loc 1 211 0
  83 000e 644E     		ldr	r6, .L23+8
  84              	.LBE45:
  85              	.LBE44:
  86              		.loc 1 334 0
  87 0010 1370     		strb	r3, [r2, #0]
  88              	.LBB48:
  89              	.LBB46:
 211:.\Generated_Source\PSoC5/cyfitter_cfg.c **** 	CY_SET_XTND_REG8((void CYFAR *)(CYREG_SLOWCLK_ILO_CR0), 0x02u);
  90              		.loc 1 211 0
  91 0012 0225     		movs	r5, #2
 207:.\Generated_Source\PSoC5/cyfitter_cfg.c **** 	CY_SET_XTND_REG16((void CYFAR *)(CYREG_CLKDIST_DCFG0_CFG0), 0x0001u);
  92              		.loc 1 207 0
  93 0014 0380     		strh	r3, [r0, #0]	@ movhi
 208:.\Generated_Source\PSoC5/cyfitter_cfg.c **** 	CY_SET_XTND_REG8((void CYFAR *)(CYREG_CLKDIST_DCFG0_CFG0 + 0x2u), 0x18u);
  94              		.loc 1 208 0
  95 0016 1821     		movs	r1, #24
 212:.\Generated_Source\PSoC5/cyfitter_cfg.c **** 	CY_SET_XTND_REG8((void CYFAR *)(CYREG_CLKDIST_CR), 0x08u);
  96              		.loc 1 212 0
  97 0018 4FF04023 		mov	r3, #1073758208
  98 001c 0827     		movs	r7, #8
 216:.\Generated_Source\PSoC5/cyfitter_cfg.c **** 	CY_SET_XTND_REG8((void CYFAR *)(CYREG_IMO_TR1), (CY_GET_XTND_REG8((void CYFAR *)CYREG_FLSHID_CUST_
  99              		.loc 1 216 0
 100 001e 614A     		ldr	r2, .L23+12
 208:.\Generated_Source\PSoC5/cyfitter_cfg.c **** 	CY_SET_XTND_REG8((void CYFAR *)(CYREG_CLKDIST_DCFG0_CFG0 + 0x2u), 0x18u);
 101              		.loc 1 208 0
 102 0020 2170     		strb	r1, [r4, #0]
 211:.\Generated_Source\PSoC5/cyfitter_cfg.c **** 	CY_SET_XTND_REG8((void CYFAR *)(CYREG_SLOWCLK_ILO_CR0), 0x02u);
 103              		.loc 1 211 0
 104 0022 3570     		strb	r5, [r6, #0]
 212:.\Generated_Source\PSoC5/cyfitter_cfg.c **** 	CY_SET_XTND_REG8((void CYFAR *)(CYREG_CLKDIST_CR), 0x08u);
 105              		.loc 1 212 0
 106 0024 1F70     		strb	r7, [r3, #0]
 215:.\Generated_Source\PSoC5/cyfitter_cfg.c **** 	CY_SET_XTND_REG8((void CYFAR *)(CYREG_FASTCLK_IMO_CR), 0x02u);
 107              		.loc 1 215 0
 108 0026 83F80052 		strb	r5, [r3, #512]
 216:.\Generated_Source\PSoC5/cyfitter_cfg.c **** 	CY_SET_XTND_REG8((void CYFAR *)(CYREG_IMO_TR1), (CY_GET_XTND_REG8((void CYFAR *)CYREG_FLSHID_CUST_
 109              		.loc 1 216 0
ARM GAS  C:\Users\CHUCK~1.ERH\AppData\Local\Temp\ccBzWuci.s 			page 9


 110 002a 1078     		ldrb	r0, [r2, #0]	@ zero_extendqisi2
 219:.\Generated_Source\PSoC5/cyfitter_cfg.c **** 	CY_SET_XTND_REG16((void CYFAR *)(CYREG_FASTCLK_PLL_P), 0x0818u);
 111              		.loc 1 219 0
 112 002c 5E4D     		ldr	r5, .L23+16
 216:.\Generated_Source\PSoC5/cyfitter_cfg.c **** 	CY_SET_XTND_REG8((void CYFAR *)(CYREG_IMO_TR1), (CY_GET_XTND_REG8((void CYFAR *)CYREG_FLSHID_CUST_
 113              		.loc 1 216 0
 114 002e 5F49     		ldr	r1, .L23+20
 219:.\Generated_Source\PSoC5/cyfitter_cfg.c **** 	CY_SET_XTND_REG16((void CYFAR *)(CYREG_FASTCLK_PLL_P), 0x0818u);
 115              		.loc 1 219 0
 116 0030 40F61804 		movw	r4, #2072
 220:.\Generated_Source\PSoC5/cyfitter_cfg.c **** 	CY_SET_XTND_REG16((void CYFAR *)(CYREG_FASTCLK_PLL_CFG0), 0x1251u);
 117              		.loc 1 220 0
 118 0034 41F25126 		movw	r6, #4689
 216:.\Generated_Source\PSoC5/cyfitter_cfg.c **** 	CY_SET_XTND_REG8((void CYFAR *)(CYREG_IMO_TR1), (CY_GET_XTND_REG8((void CYFAR *)CYREG_FLSHID_CUST_
 119              		.loc 1 216 0
 120 0038 0870     		strb	r0, [r1, #0]
 219:.\Generated_Source\PSoC5/cyfitter_cfg.c **** 	CY_SET_XTND_REG16((void CYFAR *)(CYREG_FASTCLK_PLL_P), 0x0818u);
 121              		.loc 1 219 0
 122 003a 2C80     		strh	r4, [r5, #0]	@ movhi
 220:.\Generated_Source\PSoC5/cyfitter_cfg.c **** 	CY_SET_XTND_REG16((void CYFAR *)(CYREG_FASTCLK_PLL_CFG0), 0x1251u);
 123              		.loc 1 220 0
 124 003c 25F8026C 		strh	r6, [r5, #-2]	@ movhi
 125              	.LVL2:
 222:.\Generated_Source\PSoC5/cyfitter_cfg.c **** 	pllLock = 0u;
 126              		.loc 1 222 0
 127 0040 0024     		movs	r4, #0
 220:.\Generated_Source\PSoC5/cyfitter_cfg.c **** 	CY_SET_XTND_REG16((void CYFAR *)(CYREG_FASTCLK_PLL_CFG0), 0x1251u);
 128              		.loc 1 220 0
 129 0042 1925     		movs	r5, #25
 130              	.LVL3:
 131              	.L6:
 225:.\Generated_Source\PSoC5/cyfitter_cfg.c **** 		pllLock = 0x03u & ((uint8)((uint8)pllLock << 1) | ((CY_GET_XTND_REG8((void CYFAR *)CYREG_FASTCLK_
 132              		.loc 1 225 0
 133 0044 5A4F     		ldr	r7, .L23+24
 134 0046 3B78     		ldrb	r3, [r7, #0]	@ zero_extendqisi2
 135 0048 03F00102 		and	r2, r3, #1
 136 004c 42EA4400 		orr	r0, r2, r4, lsl #1
 137 0050 00F00304 		and	r4, r0, #3
 138              	.LVL4:
 226:.\Generated_Source\PSoC5/cyfitter_cfg.c **** 		CyDelayCycles(10u * 48u); /* Delay 10us based on 48MHz clock */
 139              		.loc 1 226 0
 140 0054 4FF4F070 		mov	r0, #480
 141 0058 FFF7FEFF 		bl	CyDelayCycles
 142              	.LVL5:
 223:.\Generated_Source\PSoC5/cyfitter_cfg.c **** 	for (timeout = 250u / 10u; (timeout > 0u) && (pllLock != 0x03u); timeout--)
 143              		.loc 1 223 0
 144 005c 013D     		subs	r5, r5, #1
 145 005e 1BD0     		beq	.L5
 146 0060 032C     		cmp	r4, #3
 147 0062 EFD1     		bne	.L6
 235:.\Generated_Source\PSoC5/cyfitter_cfg.c **** 	CY_SET_XTND_REG16((void CYFAR *)(CYREG_CLKDIST_MSTR0), 0x0100u);
 148              		.loc 1 235 0
 149 0064 534E     		ldr	r6, .L23+28
 237:.\Generated_Source\PSoC5/cyfitter_cfg.c **** 	CY_SET_XTND_REG8((void CYFAR *)(CYREG_CLKDIST_BCFG0), 0x00u);
 150              		.loc 1 237 0
 151 0066 544B     		ldr	r3, .L23+32
 235:.\Generated_Source\PSoC5/cyfitter_cfg.c **** 	CY_SET_XTND_REG16((void CYFAR *)(CYREG_CLKDIST_MSTR0), 0x0100u);
ARM GAS  C:\Users\CHUCK~1.ERH\AppData\Local\Temp\ccBzWuci.s 			page 10


 152              		.loc 1 235 0
 153 0068 4FF48071 		mov	r1, #256
 236:.\Generated_Source\PSoC5/cyfitter_cfg.c **** 	CY_SET_XTND_REG8((void CYFAR *)(CYREG_CLKDIST_MSTR0), 0x07u);
 154              		.loc 1 236 0
 155 006c 0727     		movs	r7, #7
 237:.\Generated_Source\PSoC5/cyfitter_cfg.c **** 	CY_SET_XTND_REG8((void CYFAR *)(CYREG_CLKDIST_BCFG0), 0x00u);
 156              		.loc 1 237 0
 157 006e 0024     		movs	r4, #0
 158              	.LVL6:
 238:.\Generated_Source\PSoC5/cyfitter_cfg.c **** 	CY_SET_XTND_REG8((void CYFAR *)(CYREG_CLKDIST_BCFG2), 0x48u);
 159              		.loc 1 238 0
 160 0070 4822     		movs	r2, #72
 242:.\Generated_Source\PSoC5/cyfitter_cfg.c **** 	CY_SET_XTND_REG8((void CYFAR *)(CYREG_PM_ACT_CFG2), ((CY_GET_XTND_REG8((void CYFAR *)CYREG_PM_ACT_
 161              		.loc 1 242 0
 162 0072 524D     		ldr	r5, .L23+36
 240:.\Generated_Source\PSoC5/cyfitter_cfg.c **** 	CY_SET_XTND_REG8((void CYFAR *)(CYREG_CLKDIST_LD), 0x02u);
 163              		.loc 1 240 0
 164 0074 0220     		movs	r0, #2
 235:.\Generated_Source\PSoC5/cyfitter_cfg.c **** 	CY_SET_XTND_REG16((void CYFAR *)(CYREG_CLKDIST_MSTR0), 0x0100u);
 165              		.loc 1 235 0
 166 0076 3180     		strh	r1, [r6, #0]	@ movhi
 236:.\Generated_Source\PSoC5/cyfitter_cfg.c **** 	CY_SET_XTND_REG8((void CYFAR *)(CYREG_CLKDIST_MSTR0), 0x07u);
 167              		.loc 1 236 0
 168 0078 3770     		strb	r7, [r6, #0]
 237:.\Generated_Source\PSoC5/cyfitter_cfg.c **** 	CY_SET_XTND_REG8((void CYFAR *)(CYREG_CLKDIST_BCFG0), 0x00u);
 169              		.loc 1 237 0
 170 007a 1C70     		strb	r4, [r3, #0]
 238:.\Generated_Source\PSoC5/cyfitter_cfg.c **** 	CY_SET_XTND_REG8((void CYFAR *)(CYREG_CLKDIST_BCFG2), 0x48u);
 171              		.loc 1 238 0
 172 007c 9A70     		strb	r2, [r3, #2]
 239:.\Generated_Source\PSoC5/cyfitter_cfg.c **** 	CY_SET_XTND_REG8((void CYFAR *)(CYREG_CLKDIST_MSTR0), 0x00u);
 173              		.loc 1 239 0
 174 007e 3470     		strb	r4, [r6, #0]
 240:.\Generated_Source\PSoC5/cyfitter_cfg.c **** 	CY_SET_XTND_REG8((void CYFAR *)(CYREG_CLKDIST_LD), 0x02u);
 175              		.loc 1 240 0
 176 0080 06F8030C 		strb	r0, [r6, #-3]
 242:.\Generated_Source\PSoC5/cyfitter_cfg.c **** 	CY_SET_XTND_REG8((void CYFAR *)(CYREG_PM_ACT_CFG2), ((CY_GET_XTND_REG8((void CYFAR *)CYREG_PM_ACT_
 177              		.loc 1 242 0
 178 0084 2E78     		ldrb	r6, [r5, #0]	@ zero_extendqisi2
 179              	.LBE46:
 180              	.LBE48:
 335:.\Generated_Source\PSoC5/cyfitter_cfg.c **** 	/* Setup clocks based on selections from Clock DWR */
 336:.\Generated_Source\PSoC5/cyfitter_cfg.c **** 	ClockSetup();
 337:.\Generated_Source\PSoC5/cyfitter_cfg.c **** 	/* Enable/Disable Debug functionality based on settings from System DWR */
 338:.\Generated_Source\PSoC5/cyfitter_cfg.c **** 	CY_SET_XTND_REG8((void CYFAR *)CYREG_MLOGIC_DEBUG, (CY_GET_XTND_REG8((void CYFAR *)CYREG_MLOGIC_DE
 181              		.loc 1 338 0
 182 0086 4E4F     		ldr	r7, .L23+40
 183              	.LBB49:
 184              	.LBB47:
 242:.\Generated_Source\PSoC5/cyfitter_cfg.c **** 	CY_SET_XTND_REG8((void CYFAR *)(CYREG_PM_ACT_CFG2), ((CY_GET_XTND_REG8((void CYFAR *)CYREG_PM_ACT_
 185              		.loc 1 242 0
 186 0088 46F00101 		orr	r1, r6, #1
 187 008c 2970     		strb	r1, [r5, #0]
 188              	.LBE47:
 189              	.LBE49:
 190              		.loc 1 338 0
 191 008e 3B78     		ldrb	r3, [r7, #0]	@ zero_extendqisi2
ARM GAS  C:\Users\CHUCK~1.ERH\AppData\Local\Temp\ccBzWuci.s 			page 11


 192 0090 43F00402 		orr	r2, r3, #4
 193 0094 3A70     		strb	r2, [r7, #0]
 194              	.LVL7:
 195 0096 00E0     		b	.L8
 196              	.LVL8:
 197              	.L5:
 198 0098 FEE7     		b	.L5
 199              	.LVL9:
 200              	.L8:
 201              	.LBB50:
 202              	.LBB51:
 339:.\Generated_Source\PSoC5/cyfitter_cfg.c **** 
 340:.\Generated_Source\PSoC5/cyfitter_cfg.c **** 	{
 341:.\Generated_Source\PSoC5/cyfitter_cfg.c **** 
 342:.\Generated_Source\PSoC5/cyfitter_cfg.c **** 		CYPACKED typedef struct {
 343:.\Generated_Source\PSoC5/cyfitter_cfg.c **** 			void CYFAR *address;
 344:.\Generated_Source\PSoC5/cyfitter_cfg.c **** 			uint16 size;
 345:.\Generated_Source\PSoC5/cyfitter_cfg.c **** 		} CYPACKED_ATTR cfg_memset_t;
 346:.\Generated_Source\PSoC5/cyfitter_cfg.c **** 
 347:.\Generated_Source\PSoC5/cyfitter_cfg.c **** 
 348:.\Generated_Source\PSoC5/cyfitter_cfg.c **** 		CYPACKED typedef struct {
 349:.\Generated_Source\PSoC5/cyfitter_cfg.c **** 			void CYFAR *dest;
 350:.\Generated_Source\PSoC5/cyfitter_cfg.c **** 			const void CYFAR *src;
 351:.\Generated_Source\PSoC5/cyfitter_cfg.c **** 			uint16 size;
 352:.\Generated_Source\PSoC5/cyfitter_cfg.c **** 		} CYPACKED_ATTR cfg_memcpy_t;
 353:.\Generated_Source\PSoC5/cyfitter_cfg.c **** 
 354:.\Generated_Source\PSoC5/cyfitter_cfg.c **** 		static const cfg_memset_t CYCODE cfg_memset_list [] = {
 355:.\Generated_Source\PSoC5/cyfitter_cfg.c **** 			/* address, size */
 356:.\Generated_Source\PSoC5/cyfitter_cfg.c **** 			{(void CYFAR *)(CYREG_PRT1_DR), 32u},
 357:.\Generated_Source\PSoC5/cyfitter_cfg.c **** 			{(void CYFAR *)(CYREG_PRT4_DR), 16u},
 358:.\Generated_Source\PSoC5/cyfitter_cfg.c **** 			{(void CYFAR *)(CYREG_PRT6_DR), 16u},
 359:.\Generated_Source\PSoC5/cyfitter_cfg.c **** 			{(void CYFAR *)(CYREG_PRT15_DR), 16u},
 360:.\Generated_Source\PSoC5/cyfitter_cfg.c **** 			{(void CYFAR *)(CYDEV_UCFG_B0_P0_U0_BASE), 4096u},
 361:.\Generated_Source\PSoC5/cyfitter_cfg.c **** 			{(void CYFAR *)(CYDEV_UCFG_B1_P2_U0_BASE), 512u},
 362:.\Generated_Source\PSoC5/cyfitter_cfg.c **** 			{(void CYFAR *)(CYDEV_UCFG_B1_P3_U1_BASE), 1408u},
 363:.\Generated_Source\PSoC5/cyfitter_cfg.c **** 			{(void CYFAR *)(CYDEV_UCFG_DSI0_BASE), 2560u},
 364:.\Generated_Source\PSoC5/cyfitter_cfg.c **** 			{(void CYFAR *)(CYDEV_UCFG_DSI12_BASE), 512u},
 365:.\Generated_Source\PSoC5/cyfitter_cfg.c **** 			{(void CYFAR *)(CYREG_BCTL0_MDCLK_EN), 32u},
 366:.\Generated_Source\PSoC5/cyfitter_cfg.c **** 		};
 367:.\Generated_Source\PSoC5/cyfitter_cfg.c **** 
 368:.\Generated_Source\PSoC5/cyfitter_cfg.c **** 		static const cfg_memcpy_t CYCODE cfg_memcpy_list [] = {
 369:.\Generated_Source\PSoC5/cyfitter_cfg.c **** 			/* dest, src, size */
 370:.\Generated_Source\PSoC5/cyfitter_cfg.c **** 			{(void CYFAR *)(CYDEV_UCFG_B1_P3_U0_BASE), BS_UDB_1_1_1_CONFIG_VAL, 128u},
 371:.\Generated_Source\PSoC5/cyfitter_cfg.c **** 		};
 372:.\Generated_Source\PSoC5/cyfitter_cfg.c **** 
 373:.\Generated_Source\PSoC5/cyfitter_cfg.c **** 		uint8 CYDATA i;
 374:.\Generated_Source\PSoC5/cyfitter_cfg.c **** 
 375:.\Generated_Source\PSoC5/cyfitter_cfg.c **** 		/* Zero out critical memory blocks before beginning configuration */
 376:.\Generated_Source\PSoC5/cyfitter_cfg.c **** 		for (i = 0u; i < (sizeof(cfg_memset_list)/sizeof(cfg_memset_list[0])); i++)
 377:.\Generated_Source\PSoC5/cyfitter_cfg.c **** 		{
 378:.\Generated_Source\PSoC5/cyfitter_cfg.c **** 			const cfg_memset_t CYCODE * CYDATA ms = &cfg_memset_list[i];
 203              		.loc 1 378 0 discriminator 2
 204 009a 4A4D     		ldr	r5, .L23+44
 205 009c 0620     		movs	r0, #6
 206 009e 00FB0456 		mla	r6, r0, r4, r5
 207              	.LVL10:
 208              	.LBB52:
ARM GAS  C:\Users\CHUCK~1.ERH\AppData\Local\Temp\ccBzWuci.s 			page 12


 209              	.LBB53:
  61:.\Generated_Source\PSoC5/cyfitter_cfg.c **** 	(void)memset(s, 0, n);
 210              		.loc 1 61 0 discriminator 2
 211 00a2 0021     		movs	r1, #0
 212 00a4 3068     		ldr	r0, [r6, #0]	@ unaligned
 213 00a6 B288     		ldrh	r2, [r6, #4]	@ unaligned
 214 00a8 0134     		adds	r4, r4, #1
 215              	.LVL11:
 216 00aa FFF7FEFF 		bl	memset
 217              	.LVL12:
 218              	.LBE53:
 219              	.LBE52:
 220              	.LBE51:
 376:.\Generated_Source\PSoC5/cyfitter_cfg.c **** 		for (i = 0u; i < (sizeof(cfg_memset_list)/sizeof(cfg_memset_list[0])); i++)
 221              		.loc 1 376 0 discriminator 2
 222 00ae 0A2C     		cmp	r4, #10
 223 00b0 F3D1     		bne	.L8
 224              	.LVL13:
 225              	.LBB54:
 226              	.LBB55:
 227              	.LBB56:
  68:.\Generated_Source\PSoC5/cyfitter_cfg.c **** 	(void)memcpy(dest, src, n);
 228              		.loc 1 68 0 discriminator 2
 229 00b2 4549     		ldr	r1, .L23+48
 230 00b4 8022     		movs	r2, #128
 231 00b6 4548     		ldr	r0, .L23+52
 232 00b8 FFF7FEFF 		bl	memcpy
 233              	.LVL14:
 234 00bc 444A     		ldr	r2, .L23+56
 235 00be 0021     		movs	r1, #0
 236              	.LVL15:
 237              	.L11:
 238              	.LBE56:
 239              	.LBE55:
 240              	.LBE54:
 241              	.LBB59:
 242              	.LBB60:
 243              	.LBB61:
 171:.\Generated_Source\PSoC5/cyfitter_cfg.c **** 		uint32 baseAddr = addr_table[i];
 244              		.loc 1 171 0
 245 00c0 52F8040F 		ldr	r0, [r2, #4]!
 246              	.LVL16:
 325:.\Generated_Source\PSoC5/cyfitter_cfg.c **** void cyfitter_cfg(void)
 247              		.loc 1 325 0
 248 00c4 4F00     		lsls	r7, r1, #1
 172:.\Generated_Source\PSoC5/cyfitter_cfg.c **** 		uint8 count = (uint8)baseAddr;
 249              		.loc 1 172 0
 250 00c6 C5B2     		uxtb	r5, r0
 251              	.LVL17:
 173:.\Generated_Source\PSoC5/cyfitter_cfg.c **** 		baseAddr &= 0xFFFFFF00u;
 252              		.loc 1 173 0
 253 00c8 20F0FF06 		bic	r6, r0, #255
 254              	.LVL18:
 255              	.LBE61:
 256              	.LBE60:
 257              	.LBE59:
 258              	.LBB64:
ARM GAS  C:\Users\CHUCK~1.ERH\AppData\Local\Temp\ccBzWuci.s 			page 13


 259              	.LBB58:
 260              	.LBB57:
 325:.\Generated_Source\PSoC5/cyfitter_cfg.c **** void cyfitter_cfg(void)
 261              		.loc 1 325 0
 262 00cc 0023     		movs	r3, #0
 263              	.LVL19:
 264              	.L9:
 265              	.LBE57:
 266              	.LBE58:
 267              	.LBE64:
 268              	.LBB65:
 269              	.LBB63:
 270              	.LBB62:
 174:.\Generated_Source\PSoC5/cyfitter_cfg.c **** 		while (count != 0u)
 271              		.loc 1 174 0
 272 00ce DCB2     		uxtb	r4, r3
 273 00d0 A542     		cmp	r5, r4
 274 00d2 0CD0     		beq	.L22
 275              	.L10:
 325:.\Generated_Source\PSoC5/cyfitter_cfg.c **** void cyfitter_cfg(void)
 276              		.loc 1 325 0
 277 00d4 07F19044 		add	r4, r7, #1207959552
 278 00d8 04F13C0C 		add	ip, r4, #60
 279 00dc 3D34     		adds	r4, r4, #61
 176:.\Generated_Source\PSoC5/cyfitter_cfg.c **** 			CY_SET_XTND_REG8((void CYFAR *)(baseAddr + data_table[j].offset), data_table[j].value);
 280              		.loc 1 176 0
 281 00de 1CF813E0 		ldrb	lr, [ip, r3, lsl #1]	@ zero_extendqisi2
 282 00e2 14F81340 		ldrb	r4, [r4, r3, lsl #1]	@ zero_extendqisi2
 283 00e6 0133     		adds	r3, r3, #1
 284 00e8 0EF80640 		strb	r4, [lr, r6]
 285 00ec EFE7     		b	.L9
 286              	.L22:
 325:.\Generated_Source\PSoC5/cyfitter_cfg.c **** void cyfitter_cfg(void)
 287              		.loc 1 325 0
 288 00ee C3B2     		uxtb	r3, r0
 289              	.LBE62:
 169:.\Generated_Source\PSoC5/cyfitter_cfg.c **** 	for (i = 0u; i < CY_CFG_BASE_ADDR_COUNT; i++)
 290              		.loc 1 169 0
 291 00f0 3848     		ldr	r0, .L23+60
 292 00f2 C918     		adds	r1, r1, r3
 293              	.LVL20:
 294 00f4 8242     		cmp	r2, r0
 295 00f6 E3D1     		bne	.L11
 296              	.LBE63:
 297              	.LBE65:
 379:.\Generated_Source\PSoC5/cyfitter_cfg.c **** 			CYMEMZERO(ms->address, (uint32)(ms->size));
 380:.\Generated_Source\PSoC5/cyfitter_cfg.c **** 		}
 381:.\Generated_Source\PSoC5/cyfitter_cfg.c **** 
 382:.\Generated_Source\PSoC5/cyfitter_cfg.c **** 		/* Copy device configuration data into registers */
 383:.\Generated_Source\PSoC5/cyfitter_cfg.c **** 		for (i = 0u; i < (sizeof(cfg_memcpy_list)/sizeof(cfg_memcpy_list[0])); i++)
 384:.\Generated_Source\PSoC5/cyfitter_cfg.c **** 		{
 385:.\Generated_Source\PSoC5/cyfitter_cfg.c **** 			const cfg_memcpy_t CYCODE * CYDATA mc = &cfg_memcpy_list[i];
 386:.\Generated_Source\PSoC5/cyfitter_cfg.c **** 			void * CYDATA destPtr = mc->dest;
 387:.\Generated_Source\PSoC5/cyfitter_cfg.c **** 			const void * CYDATA srcPtr = mc->src;
 388:.\Generated_Source\PSoC5/cyfitter_cfg.c **** 			uint16 CYDATA numBytes = mc->size;
 389:.\Generated_Source\PSoC5/cyfitter_cfg.c **** 			CYCONFIGCPY(destPtr, srcPtr, numBytes);
 390:.\Generated_Source\PSoC5/cyfitter_cfg.c **** 		}
ARM GAS  C:\Users\CHUCK~1.ERH\AppData\Local\Temp\ccBzWuci.s 			page 14


 391:.\Generated_Source\PSoC5/cyfitter_cfg.c **** 
 392:.\Generated_Source\PSoC5/cyfitter_cfg.c **** 		cfg_write_bytes32(cy_cfg_addr_table, cy_cfg_data_table);
 393:.\Generated_Source\PSoC5/cyfitter_cfg.c **** 
 394:.\Generated_Source\PSoC5/cyfitter_cfg.c **** 		/* Enable digital routing */
 395:.\Generated_Source\PSoC5/cyfitter_cfg.c **** 		CY_SET_XTND_REG8((void CYFAR *)CYREG_BCTL0_BANK_CTL, CY_GET_XTND_REG8((void CYFAR *)CYREG_BCTL0_B
 298              		.loc 1 395 0
 299 00f8 374B     		ldr	r3, .L23+64
 300 00fa 1A78     		ldrb	r2, [r3, #0]	@ zero_extendqisi2
 301 00fc 42F00201 		orr	r1, r2, #2
 302              	.LVL21:
 303 0100 1970     		strb	r1, [r3, #0]
 396:.\Generated_Source\PSoC5/cyfitter_cfg.c **** 		CY_SET_XTND_REG8((void CYFAR *)CYREG_BCTL1_BANK_CTL, CY_GET_XTND_REG8((void CYFAR *)CYREG_BCTL1_B
 304              		.loc 1 396 0
 305 0102 187C     		ldrb	r0, [r3, #16]	@ zero_extendqisi2
 306 0104 40F00202 		orr	r2, r0, #2
 307 0108 1A74     		strb	r2, [r3, #16]
 397:.\Generated_Source\PSoC5/cyfitter_cfg.c **** 
 398:.\Generated_Source\PSoC5/cyfitter_cfg.c **** 		/* Enable UDB array */
 399:.\Generated_Source\PSoC5/cyfitter_cfg.c **** 		CY_SET_XTND_REG8((void CYFAR *)CYREG_PM_ACT_CFG0, CY_GET_XTND_REG8((void CYFAR *)CYREG_PM_ACT_CFG
 308              		.loc 1 399 0
 309 010a 344B     		ldr	r3, .L23+68
 400:.\Generated_Source\PSoC5/cyfitter_cfg.c **** 		CY_SET_XTND_REG8((void CYFAR *)CYREG_PM_AVAIL_CR2, CY_GET_XTND_REG8((void CYFAR *)CYREG_PM_AVAIL_
 310              		.loc 1 400 0
 311 010c 344A     		ldr	r2, .L23+72
 399:.\Generated_Source\PSoC5/cyfitter_cfg.c **** 		CY_SET_XTND_REG8((void CYFAR *)CYREG_PM_ACT_CFG0, CY_GET_XTND_REG8((void CYFAR *)CYREG_PM_ACT_CFG
 312              		.loc 1 399 0
 313 010e 1978     		ldrb	r1, [r3, #0]	@ zero_extendqisi2
 314 0110 41F04000 		orr	r0, r1, #64
 315 0114 1870     		strb	r0, [r3, #0]
 316              		.loc 1 400 0
 317 0116 1178     		ldrb	r1, [r2, #0]	@ zero_extendqisi2
 318 0118 41F01000 		orr	r0, r1, #16
 319              	.LBE50:
 320              	.LBB66:
 321              	.LBB67:
  68:.\Generated_Source\PSoC5/cyfitter_cfg.c **** 	(void)memcpy(dest, src, n);
 322              		.loc 1 68 0
 323 011c 3149     		ldr	r1, .L23+76
 324              	.LBE67:
 325              	.LBE66:
 326              	.LBB69:
 327              		.loc 1 400 0
 328 011e 1070     		strb	r0, [r2, #0]
 329              	.LVL22:
 330              	.LBE69:
 331              	.LBB70:
 332              	.LBB68:
  68:.\Generated_Source\PSoC5/cyfitter_cfg.c **** 	(void)memcpy(dest, src, n);
 333              		.loc 1 68 0
 334 0120 0868     		ldr	r0, [r1, #0]	@ unaligned
 335 0122 C2F8400D 		str	r0, [r2, #3392]	@ unaligned
 336 0126 4968     		ldr	r1, [r1, #4]	@ unaligned
 337 0128 C2F8441D 		str	r1, [r2, #3396]	@ unaligned
 338              	.LVL23:
 339              	.LBE68:
 340              	.LBE70:
 341              	.LBB71:
ARM GAS  C:\Users\CHUCK~1.ERH\AppData\Local\Temp\ccBzWuci.s 			page 15


 342              	.LBB72:
 343 012c 2E49     		ldr	r1, .L23+80
 344 012e 0868     		ldr	r0, [r1, #0]	@ unaligned
 345 0130 C2F8FE0D 		str	r0, [r2, #3582]	@ unaligned
 346 0134 4868     		ldr	r0, [r1, #4]	@ unaligned
 347 0136 C2F8020E 		str	r0, [r2, #3586]	@ unaligned
 348 013a 0989     		ldrh	r1, [r1, #8]	@ unaligned
 349 013c A2F8061E 		strh	r1, [r2, #3590]	@ unaligned
 350              	.LVL24:
 351              	.LBE72:
 352              	.LBE71:
 353              	.LBB73:
 354              	.LBB74:
 355 0140 2A49     		ldr	r1, .L23+84
 356 0142 0868     		ldr	r0, [r1, #0]	@ unaligned
 357 0144 C2F8700D 		str	r0, [r2, #3440]	@ unaligned
 358 0148 4968     		ldr	r1, [r1, #4]	@ unaligned
 359 014a C2F8741D 		str	r1, [r2, #3444]	@ unaligned
 360              	.LVL25:
 361              	.LBE74:
 362              	.LBE73:
 363              	.LBB76:
 364              	.LBB77:
 365 014e 2849     		ldr	r1, .L23+88
 366 0150 0868     		ldr	r0, [r1, #0]	@ unaligned
 367 0152 C2F8900D 		str	r0, [r2, #3472]	@ unaligned
 368 0156 4968     		ldr	r1, [r1, #4]	@ unaligned
 369 0158 C2F8941D 		str	r1, [r2, #3476]	@ unaligned
 370              	.LBE77:
 371              	.LBE76:
 372              	.LBB78:
 373              	.LBB75:
 374 015c 02F55762 		add	r2, r2, #3440
 375              	.LBE75:
 376              	.LBE78:
 401:.\Generated_Source\PSoC5/cyfitter_cfg.c **** 	}
 402:.\Generated_Source\PSoC5/cyfitter_cfg.c **** 
 403:.\Generated_Source\PSoC5/cyfitter_cfg.c **** 	/* Perform second pass device configuration. These items must be configured in specific order afte
 404:.\Generated_Source\PSoC5/cyfitter_cfg.c **** 	CYCONFIGCPY((void CYFAR *)(CYREG_PRT0_DM0), (const void CYFAR *)(BS_IOPINS0_0_VAL), 8u);
 405:.\Generated_Source\PSoC5/cyfitter_cfg.c **** 	CYCONFIGCPY((void CYFAR *)(CYREG_PRT12_DR), (const void CYFAR *)(BS_IOPINS0_7_VAL), 10u);
 406:.\Generated_Source\PSoC5/cyfitter_cfg.c **** 	CYCONFIGCPY((void CYFAR *)(CYREG_PRT3_DM0), (const void CYFAR *)(BS_IOPINS0_3_VAL), 8u);
 407:.\Generated_Source\PSoC5/cyfitter_cfg.c **** 	CYCONFIGCPY((void CYFAR *)(CYREG_PRT5_DM0), (const void CYFAR *)(BS_IOPINS0_5_VAL), 8u);
 408:.\Generated_Source\PSoC5/cyfitter_cfg.c **** 
 409:.\Generated_Source\PSoC5/cyfitter_cfg.c **** 	/* Switch Boost to the precision bandgap reference from its internal reference */
 410:.\Generated_Source\PSoC5/cyfitter_cfg.c **** 	CY_SET_REG8((void CYXDATA *)CYREG_BOOST_CR2, (CY_GET_REG8((void CYXDATA *)CYREG_BOOST_CR2) | 0x08u
 377              		.loc 1 410 0
 378 0160 A2F56160 		sub	r0, r2, #3600
 379 0164 0178     		ldrb	r1, [r0, #0]	@ zero_extendqisi2
 380 0166 41F00802 		orr	r2, r1, #8
 381 016a 0270     		strb	r2, [r0, #0]
 382              	.LBB79:
 383              	.LBB80:
 267:.\Generated_Source\PSoC5/cyfitter_cfg.c **** 	uint8 bg_xover_inl_trim = CY_GET_XTND_REG8((void CYFAR *)(CYREG_FLSHID_MFG_CFG_BG_XOVER_INL_TRIM +
 384              		.loc 1 267 0
 385 016c 2148     		ldr	r0, .L23+92
 268:.\Generated_Source\PSoC5/cyfitter_cfg.c **** 	CY_SET_XTND_REG8((void CYFAR *)(CYREG_BG_DFT0), (bg_xover_inl_trim & 0x07u));
 386              		.loc 1 268 0
ARM GAS  C:\Users\CHUCK~1.ERH\AppData\Local\Temp\ccBzWuci.s 			page 16


 387 016e 2249     		ldr	r1, .L23+96
 267:.\Generated_Source\PSoC5/cyfitter_cfg.c **** 	uint8 bg_xover_inl_trim = CY_GET_XTND_REG8((void CYFAR *)(CYREG_FLSHID_MFG_CFG_BG_XOVER_INL_TRIM +
 388              		.loc 1 267 0
 389 0170 0278     		ldrb	r2, [r0, #0]	@ zero_extendqisi2
 390              	.LVL26:
 268:.\Generated_Source\PSoC5/cyfitter_cfg.c **** 	CY_SET_XTND_REG8((void CYFAR *)(CYREG_BG_DFT0), (bg_xover_inl_trim & 0x07u));
 391              		.loc 1 268 0
 392 0172 02F00700 		and	r0, r2, #7
 269:.\Generated_Source\PSoC5/cyfitter_cfg.c **** 	CY_SET_XTND_REG8((void CYFAR *)(CYREG_BG_DFT1), ((bg_xover_inl_trim >> 4) & 0x0Fu));
 393              		.loc 1 269 0
 394 0176 1209     		lsrs	r2, r2, #4
 395              	.LVL27:
 268:.\Generated_Source\PSoC5/cyfitter_cfg.c **** 	CY_SET_XTND_REG8((void CYFAR *)(CYREG_BG_DFT0), (bg_xover_inl_trim & 0x07u));
 396              		.loc 1 268 0
 397 0178 0870     		strb	r0, [r1, #0]
 269:.\Generated_Source\PSoC5/cyfitter_cfg.c **** 	CY_SET_XTND_REG8((void CYFAR *)(CYREG_BG_DFT1), ((bg_xover_inl_trim >> 4) & 0x0Fu));
 398              		.loc 1 269 0
 399 017a 4A70     		strb	r2, [r1, #1]
 270:.\Generated_Source\PSoC5/cyfitter_cfg.c **** 	CY_SET_XTND_REG8((void CYFAR *)CYREG_PUMP_CR0, 0x44u);
 400              		.loc 1 270 0
 401 017c 1F49     		ldr	r1, .L23+100
 402 017e 4420     		movs	r0, #68
 403 0180 0870     		strb	r0, [r1, #0]
 404              	.LVL28:
 405              	.LBE80:
 406              	.LBE79:
 407              	.LBB81:
 408              	.LBB82:
  68:.\Generated_Source\PSoC5/cyfitter_cfg.c **** 	(void)memcpy(dest, src, n);
 409              		.loc 1 68 0
 410 0182 1F4A     		ldr	r2, .L23+104
 411 0184 1F49     		ldr	r1, .L23+108
 412              	.L12:
 413 0186 53F8040B 		ldr	r0, [r3], #4	@ unaligned
 414 018a 8B42     		cmp	r3, r1
 415 018c 42F8040B 		str	r0, [r2], #4	@ unaligned
 416 0190 F9D1     		bne	.L12
 417 0192 1B88     		ldrh	r3, [r3, #0]	@ unaligned
 418 0194 1380     		strh	r3, [r2, #0]	@ unaligned
 419 0196 F8BD     		pop	{r3, r4, r5, r6, r7, pc}
 420              	.L24:
 421              		.align	2
 422              	.L23:
 423 0198 00480040 		.word	1073760256
 424 019c 82400040 		.word	1073758338
 425 01a0 00430040 		.word	1073758976
 426 01a4 0B010049 		.word	1224737035
 427 01a8 22420040 		.word	1073758754
 428 01ac A1460040 		.word	1073759905
 429 01b0 25420040 		.word	1073758757
 430 01b4 04400040 		.word	1073758212
 431 01b8 06400040 		.word	1073758214
 432 01bc A2430040 		.word	1073759138
 433 01c0 E8460040 		.word	1073759976
 434 01c4 00000000 		.word	.LANCHOR0
 435 01c8 88020048 		.word	1207960200
 436 01cc 00160140 		.word	1073812992
ARM GAS  C:\Users\CHUCK~1.ERH\AppData\Local\Temp\ccBzWuci.s 			page 17


 437 01d0 FCFFFF47 		.word	1207959548
 438 01d4 38000048 		.word	1207959608
 439 01d8 03500140 		.word	1073827843
 440 01dc A0430040 		.word	1073759136
 441 01e0 C2430040 		.word	1073759170
 442 01e4 08030048 		.word	1207960328
 443 01e8 10030048 		.word	1207960336
 444 01ec 1C030048 		.word	1207960348
 445 01f0 24030048 		.word	1207960356
 446 01f4 CF010049 		.word	1224737231
 447 01f8 6E580040 		.word	1073764462
 448 01fc 76580040 		.word	1073764470
 449 0200 B0430040 		.word	1073759152
 450 0204 AC430040 		.word	1073759148
 451              	.LBE82:
 452              	.LBE81:
 453              		.cfi_endproc
 454              	.LFE8:
 455              		.size	cyfitter_cfg, .-cyfitter_cfg
 456              		.section	.rodata
 457              		.set	.LANCHOR0,. + 0
 458              		.type	cfg_memset_list.4813, %object
 459              		.size	cfg_memset_list.4813, 60
 460              	cfg_memset_list.4813:
 461 0000 10510040 		.4byte	1073762576
 462 0004 2000     		.2byte	32
 463 0006 40510040 		.4byte	1073762624
 464 000a 1000     		.2byte	16
 465 000c 60510040 		.4byte	1073762656
 466 0010 1000     		.2byte	16
 467 0012 F0510040 		.4byte	1073762800
 468 0016 1000     		.2byte	16
 469 0018 00000140 		.4byte	1073807360
 470 001c 0010     		.2byte	4096
 471 001e 00140140 		.4byte	1073812480
 472 0022 0002     		.2byte	512
 473 0024 80160140 		.4byte	1073813120
 474 0028 8005     		.2byte	1408
 475 002a 00400140 		.4byte	1073823744
 476 002e 000A     		.2byte	2560
 477 0030 004C0140 		.4byte	1073826816
 478 0034 0002     		.2byte	512
 479 0036 00500140 		.4byte	1073827840
 480 003a 2000     		.2byte	32
 481              		.text
 482              	.Letext0:
 483              		.file 2 "c:\\program files (x86)\\cypress\\psoc creator\\3.0\\psoc creator\\import\\gnu_cs\\arm\\4
 484              		.file 3 "./Generated_Source/PSoC5/cytypes.h"
 485              		.file 4 "./Generated_Source/PSoC5/CyLib.h"