ARM GAS  C:\Users\CHUCK~1.ERH\AppData\Local\Temp\ccyUD26b.s 			page 1


   1              		.syntax unified
   2              		.cpu cortex-m3
   3              		.fpu softvfp
   4              		.eabi_attribute 20, 1
   5              		.eabi_attribute 21, 1
   6              		.eabi_attribute 23, 3
   7              		.eabi_attribute 24, 1
   8              		.eabi_attribute 25, 1
   9              		.eabi_attribute 26, 1
  10              		.eabi_attribute 30, 4
  11              		.eabi_attribute 34, 1
  12              		.eabi_attribute 18, 4
  13              		.thumb
  14              		.file	"CyFlash.c"
  15              		.text
  16              	.Ltext0:
  17              		.cfi_sections	.debug_frame
  18              		.section	.text.CySetTempInt.part.0,"ax",%progbits
  19              		.align	1
  20              		.thumb
  21              		.thumb_func
  22              		.type	CySetTempInt.part.0, %function
  23              	CySetTempInt.part.0:
  24              	.LFB12:
  25              		.file 1 ".\\Generated_Source\\PSoC5\\CyFlash.c"
   1:.\Generated_Source\PSoC5/CyFlash.c **** /*******************************************************************************
   2:.\Generated_Source\PSoC5/CyFlash.c **** * File Name: CyFlash.c
   3:.\Generated_Source\PSoC5/CyFlash.c **** * Version 4.0
   4:.\Generated_Source\PSoC5/CyFlash.c **** *
   5:.\Generated_Source\PSoC5/CyFlash.c **** *  Description:
   6:.\Generated_Source\PSoC5/CyFlash.c **** *   Provides an API for the FLASH/EEPROM.
   7:.\Generated_Source\PSoC5/CyFlash.c **** *
   8:.\Generated_Source\PSoC5/CyFlash.c **** *  Note:
   9:.\Generated_Source\PSoC5/CyFlash.c **** *   This code is endian agnostic.
  10:.\Generated_Source\PSoC5/CyFlash.c **** *
  11:.\Generated_Source\PSoC5/CyFlash.c **** *  Note:
  12:.\Generated_Source\PSoC5/CyFlash.c **** *   Documentation of the API's in this file is located in the
  13:.\Generated_Source\PSoC5/CyFlash.c **** *   System Reference Guide provided with PSoC Creator.
  14:.\Generated_Source\PSoC5/CyFlash.c **** *
  15:.\Generated_Source\PSoC5/CyFlash.c **** ********************************************************************************
  16:.\Generated_Source\PSoC5/CyFlash.c **** * Copyright 2008-2013, Cypress Semiconductor Corporation. All rights reserved.
  17:.\Generated_Source\PSoC5/CyFlash.c **** * You may use this file only in accordance with the license, terms, conditions,
  18:.\Generated_Source\PSoC5/CyFlash.c **** * disclaimers, and limitations in the end user license agreement accompanying
  19:.\Generated_Source\PSoC5/CyFlash.c **** * the software package with which this file was provided.
  20:.\Generated_Source\PSoC5/CyFlash.c **** *******************************************************************************/
  21:.\Generated_Source\PSoC5/CyFlash.c **** 
  22:.\Generated_Source\PSoC5/CyFlash.c **** #include "CyFlash.h"
  23:.\Generated_Source\PSoC5/CyFlash.c **** 
  24:.\Generated_Source\PSoC5/CyFlash.c **** 
  25:.\Generated_Source\PSoC5/CyFlash.c **** /*******************************************************************************
  26:.\Generated_Source\PSoC5/CyFlash.c **** * Holds die temperature, updated by CySetTemp(). Used for flash writting.
  27:.\Generated_Source\PSoC5/CyFlash.c **** * The first byte is the sign of the temperature (0 = negative, 1 = positive).
  28:.\Generated_Source\PSoC5/CyFlash.c **** * The second byte is the magnitude.
  29:.\Generated_Source\PSoC5/CyFlash.c **** *******************************************************************************/
  30:.\Generated_Source\PSoC5/CyFlash.c **** uint8 dieTemperature[CY_FLASH_DIE_TEMP_DATA_SIZE];
  31:.\Generated_Source\PSoC5/CyFlash.c **** 
  32:.\Generated_Source\PSoC5/CyFlash.c **** #if(CYDEV_ECC_ENABLE == 0)
ARM GAS  C:\Users\CHUCK~1.ERH\AppData\Local\Temp\ccyUD26b.s 			page 2


  33:.\Generated_Source\PSoC5/CyFlash.c ****     static uint8 * rowBuffer = 0;
  34:.\Generated_Source\PSoC5/CyFlash.c **** #endif  /* (CYDEV_ECC_ENABLE == 0) */
  35:.\Generated_Source\PSoC5/CyFlash.c **** 
  36:.\Generated_Source\PSoC5/CyFlash.c **** 
  37:.\Generated_Source\PSoC5/CyFlash.c **** static cystatus CySetTempInt(void);
  38:.\Generated_Source\PSoC5/CyFlash.c **** 
  39:.\Generated_Source\PSoC5/CyFlash.c **** 
  40:.\Generated_Source\PSoC5/CyFlash.c **** /*******************************************************************************
  41:.\Generated_Source\PSoC5/CyFlash.c **** * Function Name: CyFlash_Start
  42:.\Generated_Source\PSoC5/CyFlash.c **** ********************************************************************************
  43:.\Generated_Source\PSoC5/CyFlash.c **** *
  44:.\Generated_Source\PSoC5/CyFlash.c **** * Summary:
  45:.\Generated_Source\PSoC5/CyFlash.c **** *  Enable the Flash.
  46:.\Generated_Source\PSoC5/CyFlash.c **** *
  47:.\Generated_Source\PSoC5/CyFlash.c **** * Parameters:
  48:.\Generated_Source\PSoC5/CyFlash.c **** *  None
  49:.\Generated_Source\PSoC5/CyFlash.c **** *
  50:.\Generated_Source\PSoC5/CyFlash.c **** * Return:
  51:.\Generated_Source\PSoC5/CyFlash.c **** *  None
  52:.\Generated_Source\PSoC5/CyFlash.c **** *
  53:.\Generated_Source\PSoC5/CyFlash.c **** *******************************************************************************/
  54:.\Generated_Source\PSoC5/CyFlash.c **** void CyFlash_Start(void) 
  55:.\Generated_Source\PSoC5/CyFlash.c **** {
  56:.\Generated_Source\PSoC5/CyFlash.c ****     /* Active Power Mode */
  57:.\Generated_Source\PSoC5/CyFlash.c ****     *CY_FLASH_PM_ACT_EEFLASH_PTR |= CY_FLASH_PM_FLASH_MASK;
  58:.\Generated_Source\PSoC5/CyFlash.c **** 
  59:.\Generated_Source\PSoC5/CyFlash.c ****     /* Standby Power Mode */
  60:.\Generated_Source\PSoC5/CyFlash.c ****     *CY_FLASH_PM_ALTACT_EEFLASH_PTR |= CY_FLASH_PM_FLASH_MASK;
  61:.\Generated_Source\PSoC5/CyFlash.c **** 
  62:.\Generated_Source\PSoC5/CyFlash.c ****     CyDelayUs(CY_FLASH_EE_STARTUP_DELAY);
  63:.\Generated_Source\PSoC5/CyFlash.c **** }
  64:.\Generated_Source\PSoC5/CyFlash.c **** 
  65:.\Generated_Source\PSoC5/CyFlash.c **** 
  66:.\Generated_Source\PSoC5/CyFlash.c **** /*******************************************************************************
  67:.\Generated_Source\PSoC5/CyFlash.c **** * Function Name: CyFlash_Stop
  68:.\Generated_Source\PSoC5/CyFlash.c **** ********************************************************************************
  69:.\Generated_Source\PSoC5/CyFlash.c **** *
  70:.\Generated_Source\PSoC5/CyFlash.c **** * Summary:
  71:.\Generated_Source\PSoC5/CyFlash.c **** *  Disable the Flash.
  72:.\Generated_Source\PSoC5/CyFlash.c **** *
  73:.\Generated_Source\PSoC5/CyFlash.c **** * Parameters:
  74:.\Generated_Source\PSoC5/CyFlash.c **** *  None
  75:.\Generated_Source\PSoC5/CyFlash.c **** *
  76:.\Generated_Source\PSoC5/CyFlash.c **** * Return:
  77:.\Generated_Source\PSoC5/CyFlash.c **** *  None
  78:.\Generated_Source\PSoC5/CyFlash.c **** *
  79:.\Generated_Source\PSoC5/CyFlash.c **** * Side Effects:
  80:.\Generated_Source\PSoC5/CyFlash.c **** *  This setting is ignored as long as the CPU is currently running.  This will
  81:.\Generated_Source\PSoC5/CyFlash.c **** *  only take effect when the CPU is later disabled.
  82:.\Generated_Source\PSoC5/CyFlash.c **** *
  83:.\Generated_Source\PSoC5/CyFlash.c **** *******************************************************************************/
  84:.\Generated_Source\PSoC5/CyFlash.c **** void CyFlash_Stop(void) 
  85:.\Generated_Source\PSoC5/CyFlash.c **** {
  86:.\Generated_Source\PSoC5/CyFlash.c ****     /* Active Power Mode */
  87:.\Generated_Source\PSoC5/CyFlash.c ****     *CY_FLASH_PM_ACT_EEFLASH_PTR &= ((uint8)(~CY_FLASH_PM_FLASH_MASK));
  88:.\Generated_Source\PSoC5/CyFlash.c **** 
  89:.\Generated_Source\PSoC5/CyFlash.c ****     /* Standby Power Mode */
ARM GAS  C:\Users\CHUCK~1.ERH\AppData\Local\Temp\ccyUD26b.s 			page 3


  90:.\Generated_Source\PSoC5/CyFlash.c ****     *CY_FLASH_PM_ALTACT_EEFLASH_PTR &= ((uint8)(~CY_FLASH_PM_FLASH_MASK));
  91:.\Generated_Source\PSoC5/CyFlash.c **** }
  92:.\Generated_Source\PSoC5/CyFlash.c **** 
  93:.\Generated_Source\PSoC5/CyFlash.c **** 
  94:.\Generated_Source\PSoC5/CyFlash.c **** /*******************************************************************************
  95:.\Generated_Source\PSoC5/CyFlash.c **** * Function Name: CySetTempInt
  96:.\Generated_Source\PSoC5/CyFlash.c **** ********************************************************************************
  97:.\Generated_Source\PSoC5/CyFlash.c **** *
  98:.\Generated_Source\PSoC5/CyFlash.c **** * Summary:
  99:.\Generated_Source\PSoC5/CyFlash.c **** *  Sends a command to the SPC to read the die temperature. Sets a global value
 100:.\Generated_Source\PSoC5/CyFlash.c **** *  used by the Write functions. This function must be called once before
 101:.\Generated_Source\PSoC5/CyFlash.c **** *  executing a series of Flash writing functions.
 102:.\Generated_Source\PSoC5/CyFlash.c **** *
 103:.\Generated_Source\PSoC5/CyFlash.c **** * Parameters:
 104:.\Generated_Source\PSoC5/CyFlash.c **** *  None
 105:.\Generated_Source\PSoC5/CyFlash.c **** *
 106:.\Generated_Source\PSoC5/CyFlash.c **** * Return:
 107:.\Generated_Source\PSoC5/CyFlash.c **** *  status:
 108:.\Generated_Source\PSoC5/CyFlash.c **** *   CYRET_SUCCESS - if successful
 109:.\Generated_Source\PSoC5/CyFlash.c **** *   CYRET_LOCKED  - if Flash writing already in use
 110:.\Generated_Source\PSoC5/CyFlash.c **** *   CYRET_UNKNOWN - if there was an SPC error
 111:.\Generated_Source\PSoC5/CyFlash.c **** *
 112:.\Generated_Source\PSoC5/CyFlash.c **** *******************************************************************************/
 113:.\Generated_Source\PSoC5/CyFlash.c **** static cystatus CySetTempInt(void) 
  26              		.loc 1 113 0
  27              		.cfi_startproc
  28              		@ args = 0, pretend = 0, frame = 0
  29              		@ frame_needed = 0, uses_anonymous_args = 0
 114:.\Generated_Source\PSoC5/CyFlash.c **** {
 115:.\Generated_Source\PSoC5/CyFlash.c ****     cystatus status;
 116:.\Generated_Source\PSoC5/CyFlash.c **** 
 117:.\Generated_Source\PSoC5/CyFlash.c ****     /* Make sure SPC is powered */
 118:.\Generated_Source\PSoC5/CyFlash.c ****     CySpcStart();
 119:.\Generated_Source\PSoC5/CyFlash.c **** 
 120:.\Generated_Source\PSoC5/CyFlash.c ****     /* Plan for failure. */
 121:.\Generated_Source\PSoC5/CyFlash.c ****     status = CYRET_UNKNOWN;
 122:.\Generated_Source\PSoC5/CyFlash.c **** 
 123:.\Generated_Source\PSoC5/CyFlash.c ****     if(CySpcLock() == CYRET_SUCCESS)
 124:.\Generated_Source\PSoC5/CyFlash.c ****     {
 125:.\Generated_Source\PSoC5/CyFlash.c ****         /* Write the command. */
 126:.\Generated_Source\PSoC5/CyFlash.c ****         if(CYRET_STARTED == CySpcGetTemp(CY_TEMP_NUMBER_OF_SAMPLES))
  30              		.loc 1 126 0
  31 0000 0120     		movs	r0, #1
 113:.\Generated_Source\PSoC5/CyFlash.c **** static cystatus CySetTempInt(void) 
  32              		.loc 1 113 0
  33 0002 10B5     		push	{r4, lr}
  34              	.LCFI0:
  35              		.cfi_def_cfa_offset 8
  36              		.cfi_offset 4, -8
  37              		.cfi_offset 14, -4
  38              		.loc 1 126 0
  39 0004 FFF7FEFF 		bl	CySpcGetTemp
  40              	.LVL0:
  41 0008 0728     		cmp	r0, #7
  42 000a 09D0     		beq	.L14
  43              	.L7:
 121:.\Generated_Source\PSoC5/CyFlash.c ****     status = CYRET_UNKNOWN;
ARM GAS  C:\Users\CHUCK~1.ERH\AppData\Local\Temp\ccyUD26b.s 			page 4


  44              		.loc 1 121 0
  45 000c 4FF0FF34 		mov	r4, #-1
  46 0010 17E0     		b	.L3
  47              	.L20:
 127:.\Generated_Source\PSoC5/CyFlash.c ****         {
 128:.\Generated_Source\PSoC5/CyFlash.c ****             do
 129:.\Generated_Source\PSoC5/CyFlash.c ****             {
 130:.\Generated_Source\PSoC5/CyFlash.c ****                 if(CySpcReadData(dieTemperature, CY_FLASH_DIE_TEMP_DATA_SIZE) == CY_FLASH_DIE_TEMP_
 131:.\Generated_Source\PSoC5/CyFlash.c ****                 {
 132:.\Generated_Source\PSoC5/CyFlash.c ****                     status = CYRET_SUCCESS;
 133:.\Generated_Source\PSoC5/CyFlash.c **** 
 134:.\Generated_Source\PSoC5/CyFlash.c ****                     while(CY_SPC_BUSY)
 135:.\Generated_Source\PSoC5/CyFlash.c ****                     {
 136:.\Generated_Source\PSoC5/CyFlash.c ****                         /* Spin until idle. */
 137:.\Generated_Source\PSoC5/CyFlash.c ****                         CyDelayUs(1u);
 138:.\Generated_Source\PSoC5/CyFlash.c ****                     }
 139:.\Generated_Source\PSoC5/CyFlash.c ****                     break;
 140:.\Generated_Source\PSoC5/CyFlash.c ****                 }
 141:.\Generated_Source\PSoC5/CyFlash.c **** 
 142:.\Generated_Source\PSoC5/CyFlash.c ****             } while(CY_SPC_BUSY);
  48              		.loc 1 142 0
  49 0012 0E4B     		ldr	r3, .L23
  50 0014 1878     		ldrb	r0, [r3, #0]	@ zero_extendqisi2
  51 0016 00F00201 		and	r1, r0, #2
  52 001a CAB2     		uxtb	r2, r1
  53 001c 002A     		cmp	r2, #0
  54 001e F5D1     		bne	.L7
  55              	.L14:
 130:.\Generated_Source\PSoC5/CyFlash.c ****                 if(CySpcReadData(dieTemperature, CY_FLASH_DIE_TEMP_DATA_SIZE) == CY_FLASH_DIE_TEMP_
  56              		.loc 1 130 0
  57 0020 0221     		movs	r1, #2
  58 0022 0B48     		ldr	r0, .L23+4
  59 0024 FFF7FEFF 		bl	CySpcReadData
  60              	.LVL1:
  61 0028 0228     		cmp	r0, #2
  62 002a F2D1     		bne	.L20
  63              	.L16:
 134:.\Generated_Source\PSoC5/CyFlash.c ****                     while(CY_SPC_BUSY)
  64              		.loc 1 134 0
  65 002c 074C     		ldr	r4, .L23
  66 002e 2378     		ldrb	r3, [r4, #0]	@ zero_extendqisi2
  67 0030 03F00200 		and	r0, r3, #2
  68 0034 C1B2     		uxtb	r1, r0
  69 0036 19B9     		cbnz	r1, .L22
  70              	.L6:
 137:.\Generated_Source\PSoC5/CyFlash.c ****                         CyDelayUs(1u);
  71              		.loc 1 137 0
  72 0038 0120     		movs	r0, #1
  73 003a FFF7FEFF 		bl	CyDelayUs
  74              	.LVL2:
  75 003e F5E7     		b	.L16
  76              	.L22:
 132:.\Generated_Source\PSoC5/CyFlash.c ****                     status = CYRET_SUCCESS;
  77              		.loc 1 132 0
  78 0040 0024     		movs	r4, #0
  79              	.L3:
  80              	.LVL3:
ARM GAS  C:\Users\CHUCK~1.ERH\AppData\Local\Temp\ccyUD26b.s 			page 5


 143:.\Generated_Source\PSoC5/CyFlash.c ****         }
 144:.\Generated_Source\PSoC5/CyFlash.c **** 
 145:.\Generated_Source\PSoC5/CyFlash.c ****         CySpcUnlock();
  81              		.loc 1 145 0
  82 0042 FFF7FEFF 		bl	CySpcUnlock
  83              	.LVL4:
 146:.\Generated_Source\PSoC5/CyFlash.c ****     }
 147:.\Generated_Source\PSoC5/CyFlash.c ****     else
 148:.\Generated_Source\PSoC5/CyFlash.c ****     {
 149:.\Generated_Source\PSoC5/CyFlash.c ****         status = CYRET_LOCKED;
 150:.\Generated_Source\PSoC5/CyFlash.c ****     }
 151:.\Generated_Source\PSoC5/CyFlash.c **** 
 152:.\Generated_Source\PSoC5/CyFlash.c ****     return (status);
 153:.\Generated_Source\PSoC5/CyFlash.c **** }
  84              		.loc 1 153 0
  85 0046 2046     		mov	r0, r4
  86 0048 10BD     		pop	{r4, pc}
  87              	.L24:
  88 004a 00BF     		.align	2
  89              	.L23:
  90 004c 22470040 		.word	1073760034
  91 0050 00000000 		.word	dieTemperature
  92              		.cfi_endproc
  93              	.LFE12:
  94              		.size	CySetTempInt.part.0, .-CySetTempInt.part.0
  95              		.section	.text.CyFlash_Start,"ax",%progbits
  96              		.align	1
  97              		.global	CyFlash_Start
  98              		.thumb
  99              		.thumb_func
 100              		.type	CyFlash_Start, %function
 101              	CyFlash_Start:
 102              	.LFB0:
  55:.\Generated_Source\PSoC5/CyFlash.c **** {
 103              		.loc 1 55 0
 104              		.cfi_startproc
 105              		@ args = 0, pretend = 0, frame = 0
 106              		@ frame_needed = 0, uses_anonymous_args = 0
 107              		@ link register save eliminated.
  57:.\Generated_Source\PSoC5/CyFlash.c ****     *CY_FLASH_PM_ACT_EEFLASH_PTR |= CY_FLASH_PM_FLASH_MASK;
 108              		.loc 1 57 0
 109 0000 054B     		ldr	r3, .L26
 110 0002 1A78     		ldrb	r2, [r3, #0]	@ zero_extendqisi2
 111 0004 42F00100 		orr	r0, r2, #1
 112 0008 1870     		strb	r0, [r3, #0]
  60:.\Generated_Source\PSoC5/CyFlash.c ****     *CY_FLASH_PM_ALTACT_EEFLASH_PTR |= CY_FLASH_PM_FLASH_MASK;
 113              		.loc 1 60 0
 114 000a 197C     		ldrb	r1, [r3, #16]	@ zero_extendqisi2
  62:.\Generated_Source\PSoC5/CyFlash.c ****     CyDelayUs(CY_FLASH_EE_STARTUP_DELAY);
 115              		.loc 1 62 0
 116 000c 0520     		movs	r0, #5
  60:.\Generated_Source\PSoC5/CyFlash.c ****     *CY_FLASH_PM_ALTACT_EEFLASH_PTR |= CY_FLASH_PM_FLASH_MASK;
 117              		.loc 1 60 0
 118 000e 41F00102 		orr	r2, r1, #1
 119 0012 1A74     		strb	r2, [r3, #16]
  63:.\Generated_Source\PSoC5/CyFlash.c **** }
 120              		.loc 1 63 0
ARM GAS  C:\Users\CHUCK~1.ERH\AppData\Local\Temp\ccyUD26b.s 			page 6


  62:.\Generated_Source\PSoC5/CyFlash.c ****     CyDelayUs(CY_FLASH_EE_STARTUP_DELAY);
 121              		.loc 1 62 0
 122 0014 FFF7FEBF 		b	CyDelayUs
 123              	.LVL5:
 124              	.L27:
 125              		.align	2
 126              	.L26:
 127 0018 AC430040 		.word	1073759148
 128              		.cfi_endproc
 129              	.LFE0:
 130              		.size	CyFlash_Start, .-CyFlash_Start
 131              		.section	.text.CyFlash_Stop,"ax",%progbits
 132              		.align	1
 133              		.global	CyFlash_Stop
 134              		.thumb
 135              		.thumb_func
 136              		.type	CyFlash_Stop, %function
 137              	CyFlash_Stop:
 138              	.LFB1:
  85:.\Generated_Source\PSoC5/CyFlash.c **** {
 139              		.loc 1 85 0
 140              		.cfi_startproc
 141              		@ args = 0, pretend = 0, frame = 0
 142              		@ frame_needed = 0, uses_anonymous_args = 0
 143              		@ link register save eliminated.
  87:.\Generated_Source\PSoC5/CyFlash.c ****     *CY_FLASH_PM_ACT_EEFLASH_PTR &= ((uint8)(~CY_FLASH_PM_FLASH_MASK));
 144              		.loc 1 87 0
 145 0000 044B     		ldr	r3, .L29
 146 0002 1A78     		ldrb	r2, [r3, #0]	@ zero_extendqisi2
 147 0004 02F0FE00 		and	r0, r2, #254
 148 0008 1870     		strb	r0, [r3, #0]
  90:.\Generated_Source\PSoC5/CyFlash.c ****     *CY_FLASH_PM_ALTACT_EEFLASH_PTR &= ((uint8)(~CY_FLASH_PM_FLASH_MASK));
 149              		.loc 1 90 0
 150 000a 197C     		ldrb	r1, [r3, #16]	@ zero_extendqisi2
 151 000c 01F0FE02 		and	r2, r1, #254
 152 0010 1A74     		strb	r2, [r3, #16]
 153 0012 7047     		bx	lr
 154              	.L30:
 155              		.align	2
 156              	.L29:
 157 0014 AC430040 		.word	1073759148
 158              		.cfi_endproc
 159              	.LFE1:
 160              		.size	CyFlash_Stop, .-CyFlash_Stop
 161              		.section	.text.CySetTemp,"ax",%progbits
 162              		.align	1
 163              		.global	CySetTemp
 164              		.thumb
 165              		.thumb_func
 166              		.type	CySetTemp, %function
 167              	CySetTemp:
 168              	.LFB3:
 154:.\Generated_Source\PSoC5/CyFlash.c **** 
 155:.\Generated_Source\PSoC5/CyFlash.c **** 
 156:.\Generated_Source\PSoC5/CyFlash.c **** /*******************************************************************************
 157:.\Generated_Source\PSoC5/CyFlash.c **** * Function Name: CySetTemp
 158:.\Generated_Source\PSoC5/CyFlash.c **** ********************************************************************************
ARM GAS  C:\Users\CHUCK~1.ERH\AppData\Local\Temp\ccyUD26b.s 			page 7


 159:.\Generated_Source\PSoC5/CyFlash.c **** *
 160:.\Generated_Source\PSoC5/CyFlash.c **** * Summary:
 161:.\Generated_Source\PSoC5/CyFlash.c **** *  This is a wraparound for CySetTempInt(). It is used to return second
 162:.\Generated_Source\PSoC5/CyFlash.c **** *  successful read of temperature value.
 163:.\Generated_Source\PSoC5/CyFlash.c **** *
 164:.\Generated_Source\PSoC5/CyFlash.c **** * Parameters:
 165:.\Generated_Source\PSoC5/CyFlash.c **** *  None
 166:.\Generated_Source\PSoC5/CyFlash.c **** *
 167:.\Generated_Source\PSoC5/CyFlash.c **** * Return:
 168:.\Generated_Source\PSoC5/CyFlash.c **** *  status:
 169:.\Generated_Source\PSoC5/CyFlash.c **** *   CYRET_SUCCESS if successful.
 170:.\Generated_Source\PSoC5/CyFlash.c **** *   CYRET_LOCKED  if Flash writing already in use
 171:.\Generated_Source\PSoC5/CyFlash.c **** *   CYRET_UNKNOWN if there was an SPC error.
 172:.\Generated_Source\PSoC5/CyFlash.c **** *
 173:.\Generated_Source\PSoC5/CyFlash.c **** *  uint8 dieTemperature[2]:
 174:.\Generated_Source\PSoC5/CyFlash.c **** *   Holds die temperature for the flash writting algorithm. The first byte is
 175:.\Generated_Source\PSoC5/CyFlash.c **** *   the sign of the temperature (0 = negative, 1 = positive). The second byte is
 176:.\Generated_Source\PSoC5/CyFlash.c **** *   the magnitude.
 177:.\Generated_Source\PSoC5/CyFlash.c **** *
 178:.\Generated_Source\PSoC5/CyFlash.c **** *******************************************************************************/
 179:.\Generated_Source\PSoC5/CyFlash.c **** cystatus CySetTemp(void) 
 180:.\Generated_Source\PSoC5/CyFlash.c **** {
 169              		.loc 1 180 0
 170              		.cfi_startproc
 171              		@ args = 0, pretend = 0, frame = 0
 172              		@ frame_needed = 0, uses_anonymous_args = 0
 173 0000 08B5     		push	{r3, lr}
 174              	.LCFI1:
 175              		.cfi_def_cfa_offset 8
 176              		.cfi_offset 3, -8
 177              		.cfi_offset 14, -4
 178              	.LBB6:
 179              	.LBB7:
 118:.\Generated_Source\PSoC5/CyFlash.c ****     CySpcStart();
 180              		.loc 1 118 0
 181 0002 FFF7FEFF 		bl	CySpcStart
 182              	.LVL6:
 123:.\Generated_Source\PSoC5/CyFlash.c ****     if(CySpcLock() == CYRET_SUCCESS)
 183              		.loc 1 123 0
 184 0006 FFF7FEFF 		bl	CySpcLock
 185              	.LVL7:
 186 000a 58B9     		cbnz	r0, .L34
 187 000c FFF7FEFF 		bl	CySetTempInt.part.0
 188              	.LVL8:
 189              	.LBE7:
 190              	.LBE6:
 181:.\Generated_Source\PSoC5/CyFlash.c ****     cystatus status = CySetTempInt();
 182:.\Generated_Source\PSoC5/CyFlash.c **** 
 183:.\Generated_Source\PSoC5/CyFlash.c ****     if(status == CYRET_SUCCESS)
 191              		.loc 1 183 0
 192 0010 48B9     		cbnz	r0, .L32
 193              	.LBB9:
 194              	.LBB10:
 118:.\Generated_Source\PSoC5/CyFlash.c ****     CySpcStart();
 195              		.loc 1 118 0
 196 0012 FFF7FEFF 		bl	CySpcStart
 197              	.LVL9:
ARM GAS  C:\Users\CHUCK~1.ERH\AppData\Local\Temp\ccyUD26b.s 			page 8


 123:.\Generated_Source\PSoC5/CyFlash.c ****     if(CySpcLock() == CYRET_SUCCESS)
 198              		.loc 1 123 0
 199 0016 FFF7FEFF 		bl	CySpcLock
 200              	.LVL10:
 201 001a 18B9     		cbnz	r0, .L34
 202              	.LBE10:
 203              	.LBE9:
 184:.\Generated_Source\PSoC5/CyFlash.c ****     {
 185:.\Generated_Source\PSoC5/CyFlash.c ****         status = CySetTempInt();
 186:.\Generated_Source\PSoC5/CyFlash.c ****     }
 187:.\Generated_Source\PSoC5/CyFlash.c **** 
 188:.\Generated_Source\PSoC5/CyFlash.c ****     return (status);
 189:.\Generated_Source\PSoC5/CyFlash.c **** }
 204              		.loc 1 189 0
 205 001c BDE80840 		pop	{r3, lr}
 206 0020 FFF7FEBF 		b	CySetTempInt.part.0
 207              	.LVL11:
 208              	.L34:
 209              	.LBB11:
 210              	.LBB8:
 149:.\Generated_Source\PSoC5/CyFlash.c ****         status = CYRET_LOCKED;
 211              		.loc 1 149 0
 212 0024 0420     		movs	r0, #4
 213              	.L32:
 214              	.LVL12:
 215              	.LBE8:
 216              	.LBE11:
 217              		.loc 1 189 0
 218 0026 08BD     		pop	{r3, pc}
 219              		.cfi_endproc
 220              	.LFE3:
 221              		.size	CySetTemp, .-CySetTemp
 222              		.section	.text.CySetFlashEEBuffer,"ax",%progbits
 223              		.align	1
 224              		.global	CySetFlashEEBuffer
 225              		.thumb
 226              		.thumb_func
 227              		.type	CySetFlashEEBuffer, %function
 228              	CySetFlashEEBuffer:
 229              	.LFB4:
 190:.\Generated_Source\PSoC5/CyFlash.c **** 
 191:.\Generated_Source\PSoC5/CyFlash.c **** 
 192:.\Generated_Source\PSoC5/CyFlash.c **** /*******************************************************************************
 193:.\Generated_Source\PSoC5/CyFlash.c **** * Function Name: CySetFlashEEBuffer
 194:.\Generated_Source\PSoC5/CyFlash.c **** ********************************************************************************
 195:.\Generated_Source\PSoC5/CyFlash.c **** *
 196:.\Generated_Source\PSoC5/CyFlash.c **** * Summary:
 197:.\Generated_Source\PSoC5/CyFlash.c **** *  Sets the user supplied temporary buffer to store SPC data while performing
 198:.\Generated_Source\PSoC5/CyFlash.c **** *  flash and EEPROM commands. This buffer is only necessary when Flash ECC is
 199:.\Generated_Source\PSoC5/CyFlash.c **** *  disabled.
 200:.\Generated_Source\PSoC5/CyFlash.c **** *
 201:.\Generated_Source\PSoC5/CyFlash.c **** * Parameters:
 202:.\Generated_Source\PSoC5/CyFlash.c **** *  buffer:
 203:.\Generated_Source\PSoC5/CyFlash.c **** *   Address of block of memory to store temporary memory. The size of the block
 204:.\Generated_Source\PSoC5/CyFlash.c **** *   of memory is CYDEV_FLS_ROW_SIZE + CYDEV_ECC_ROW_SIZE.
 205:.\Generated_Source\PSoC5/CyFlash.c **** *
 206:.\Generated_Source\PSoC5/CyFlash.c **** * Return:
ARM GAS  C:\Users\CHUCK~1.ERH\AppData\Local\Temp\ccyUD26b.s 			page 9


 207:.\Generated_Source\PSoC5/CyFlash.c **** *  status:
 208:.\Generated_Source\PSoC5/CyFlash.c **** *   CYRET_SUCCESS if successful.
 209:.\Generated_Source\PSoC5/CyFlash.c **** *   CYRET_BAD_PARAM if the buffer is NULL
 210:.\Generated_Source\PSoC5/CyFlash.c **** *
 211:.\Generated_Source\PSoC5/CyFlash.c **** *******************************************************************************/
 212:.\Generated_Source\PSoC5/CyFlash.c **** cystatus CySetFlashEEBuffer(uint8 * buffer) 
 213:.\Generated_Source\PSoC5/CyFlash.c **** {
 230              		.loc 1 213 0
 231              		.cfi_startproc
 232              		@ args = 0, pretend = 0, frame = 0
 233              		@ frame_needed = 0, uses_anonymous_args = 0
 234              	.LVL13:
 235 0000 38B5     		push	{r3, r4, r5, lr}
 236              	.LCFI2:
 237              		.cfi_def_cfa_offset 16
 238              		.cfi_offset 3, -16
 239              		.cfi_offset 4, -12
 240              		.cfi_offset 5, -8
 241              		.cfi_offset 14, -4
 242              		.loc 1 213 0
 243 0002 0446     		mov	r4, r0
 214:.\Generated_Source\PSoC5/CyFlash.c ****     cystatus status = CYRET_SUCCESS;
 215:.\Generated_Source\PSoC5/CyFlash.c **** 
 216:.\Generated_Source\PSoC5/CyFlash.c ****     CySpcStart();
 244              		.loc 1 216 0
 245 0004 FFF7FEFF 		bl	CySpcStart
 246              	.LVL14:
 217:.\Generated_Source\PSoC5/CyFlash.c **** 
 218:.\Generated_Source\PSoC5/CyFlash.c ****     #if(CYDEV_ECC_ENABLE == 0)
 219:.\Generated_Source\PSoC5/CyFlash.c **** 
 220:.\Generated_Source\PSoC5/CyFlash.c ****         if(NULL == buffer)
 247              		.loc 1 220 0
 248 0008 4CB1     		cbz	r4, .L37
 221:.\Generated_Source\PSoC5/CyFlash.c ****         {
 222:.\Generated_Source\PSoC5/CyFlash.c ****             status = CYRET_BAD_PARAM;
 223:.\Generated_Source\PSoC5/CyFlash.c ****         }
 224:.\Generated_Source\PSoC5/CyFlash.c ****         else if(CySpcLock() != CYRET_SUCCESS)
 249              		.loc 1 224 0
 250 000a FFF7FEFF 		bl	CySpcLock
 251              	.LVL15:
 252 000e 0546     		mov	r5, r0
 253 0010 38B9     		cbnz	r0, .L38
 225:.\Generated_Source\PSoC5/CyFlash.c ****         {
 226:.\Generated_Source\PSoC5/CyFlash.c ****             status = CYRET_LOCKED;
 227:.\Generated_Source\PSoC5/CyFlash.c ****         }
 228:.\Generated_Source\PSoC5/CyFlash.c ****         else
 229:.\Generated_Source\PSoC5/CyFlash.c ****         {
 230:.\Generated_Source\PSoC5/CyFlash.c ****             rowBuffer = buffer;
 254              		.loc 1 230 0
 255 0012 054B     		ldr	r3, .L39
 256 0014 1C60     		str	r4, [r3, #0]
 231:.\Generated_Source\PSoC5/CyFlash.c ****             CySpcUnlock();
 257              		.loc 1 231 0
 258 0016 FFF7FEFF 		bl	CySpcUnlock
 259              	.LVL16:
 214:.\Generated_Source\PSoC5/CyFlash.c ****     cystatus status = CYRET_SUCCESS;
 260              		.loc 1 214 0
ARM GAS  C:\Users\CHUCK~1.ERH\AppData\Local\Temp\ccyUD26b.s 			page 10


 261 001a 2846     		mov	r0, r5
 262 001c 38BD     		pop	{r3, r4, r5, pc}
 263              	.L37:
 222:.\Generated_Source\PSoC5/CyFlash.c ****             status = CYRET_BAD_PARAM;
 264              		.loc 1 222 0
 265 001e 0120     		movs	r0, #1
 266 0020 38BD     		pop	{r3, r4, r5, pc}
 267              	.L38:
 226:.\Generated_Source\PSoC5/CyFlash.c ****             status = CYRET_LOCKED;
 268              		.loc 1 226 0
 269 0022 0420     		movs	r0, #4
 270              	.LVL17:
 232:.\Generated_Source\PSoC5/CyFlash.c ****         }
 233:.\Generated_Source\PSoC5/CyFlash.c **** 
 234:.\Generated_Source\PSoC5/CyFlash.c ****     #else
 235:.\Generated_Source\PSoC5/CyFlash.c **** 
 236:.\Generated_Source\PSoC5/CyFlash.c ****         /* To supress the warning */
 237:.\Generated_Source\PSoC5/CyFlash.c ****         buffer = buffer;
 238:.\Generated_Source\PSoC5/CyFlash.c **** 
 239:.\Generated_Source\PSoC5/CyFlash.c ****     #endif  /* (CYDEV_ECC_ENABLE == 0u) */
 240:.\Generated_Source\PSoC5/CyFlash.c **** 
 241:.\Generated_Source\PSoC5/CyFlash.c ****     return(status);
 242:.\Generated_Source\PSoC5/CyFlash.c **** }
 271              		.loc 1 242 0
 272 0024 38BD     		pop	{r3, r4, r5, pc}
 273              	.L40:
 274 0026 00BF     		.align	2
 275              	.L39:
 276 0028 00000000 		.word	.LANCHOR0
 277              		.cfi_endproc
 278              	.LFE4:
 279              		.size	CySetFlashEEBuffer, .-CySetFlashEEBuffer
 280              		.section	.text.CyWriteRowFull,"ax",%progbits
 281              		.align	1
 282              		.global	CyWriteRowFull
 283              		.thumb
 284              		.thumb_func
 285              		.type	CyWriteRowFull, %function
 286              	CyWriteRowFull:
 287              	.LFB6:
 243:.\Generated_Source\PSoC5/CyFlash.c **** 
 244:.\Generated_Source\PSoC5/CyFlash.c **** 
 245:.\Generated_Source\PSoC5/CyFlash.c **** #if(CYDEV_ECC_ENABLE == 1)
 246:.\Generated_Source\PSoC5/CyFlash.c **** 
 247:.\Generated_Source\PSoC5/CyFlash.c ****     /*******************************************************************************
 248:.\Generated_Source\PSoC5/CyFlash.c ****     * Function Name: CyWriteRowData
 249:.\Generated_Source\PSoC5/CyFlash.c ****     ********************************************************************************
 250:.\Generated_Source\PSoC5/CyFlash.c ****     *
 251:.\Generated_Source\PSoC5/CyFlash.c ****     * Summary:
 252:.\Generated_Source\PSoC5/CyFlash.c ****     *  Sends a command to the SPC to load and program a row of data in
 253:.\Generated_Source\PSoC5/CyFlash.c ****     *  Flash or EEPROM.
 254:.\Generated_Source\PSoC5/CyFlash.c ****     *
 255:.\Generated_Source\PSoC5/CyFlash.c ****     * Parameters:
 256:.\Generated_Source\PSoC5/CyFlash.c ****     *  arrayID:    ID of the array to write.
 257:.\Generated_Source\PSoC5/CyFlash.c ****     *   The type of write, Flash or EEPROM, is determined from the array ID.
 258:.\Generated_Source\PSoC5/CyFlash.c ****     *   The arrays in the part are sequential starting at the first ID for the
 259:.\Generated_Source\PSoC5/CyFlash.c ****     *   specific memory type. The array ID for the Flash memory lasts from 0x00 to
ARM GAS  C:\Users\CHUCK~1.ERH\AppData\Local\Temp\ccyUD26b.s 			page 11


 260:.\Generated_Source\PSoC5/CyFlash.c ****     *   0x3F and for the EEPROM memory it lasts from 0x40 to 0x7F.
 261:.\Generated_Source\PSoC5/CyFlash.c ****     *  rowAddress: rowAddress of flash row to program.
 262:.\Generated_Source\PSoC5/CyFlash.c ****     *  rowData:    Array of bytes to write.
 263:.\Generated_Source\PSoC5/CyFlash.c ****     *
 264:.\Generated_Source\PSoC5/CyFlash.c ****     * Return:
 265:.\Generated_Source\PSoC5/CyFlash.c ****     *  status:
 266:.\Generated_Source\PSoC5/CyFlash.c ****     *   CYRET_SUCCESS if successful.
 267:.\Generated_Source\PSoC5/CyFlash.c ****     *   CYRET_LOCKED if the SPC is already in use.
 268:.\Generated_Source\PSoC5/CyFlash.c ****     *   CYRET_CANCELED if command not accepted
 269:.\Generated_Source\PSoC5/CyFlash.c ****     *   CYRET_UNKNOWN if there was an SPC error.
 270:.\Generated_Source\PSoC5/CyFlash.c ****     *
 271:.\Generated_Source\PSoC5/CyFlash.c ****     *******************************************************************************/
 272:.\Generated_Source\PSoC5/CyFlash.c ****     cystatus CyWriteRowData(uint8 arrayId, uint16 rowAddress, const uint8 * rowData) 
 273:.\Generated_Source\PSoC5/CyFlash.c ****     {
 274:.\Generated_Source\PSoC5/CyFlash.c ****         uint16 rowSize;
 275:.\Generated_Source\PSoC5/CyFlash.c ****         cystatus status;
 276:.\Generated_Source\PSoC5/CyFlash.c **** 
 277:.\Generated_Source\PSoC5/CyFlash.c ****         rowSize = (arrayId > CY_SPC_LAST_FLASH_ARRAYID) ? CYDEV_EEPROM_ROW_SIZE : CYDEV_FLS_ROW_SIZ
 278:.\Generated_Source\PSoC5/CyFlash.c ****         status = CyWriteRowFull(arrayId, rowAddress, rowData, rowSize);
 279:.\Generated_Source\PSoC5/CyFlash.c **** 
 280:.\Generated_Source\PSoC5/CyFlash.c ****         return(status);
 281:.\Generated_Source\PSoC5/CyFlash.c ****     }
 282:.\Generated_Source\PSoC5/CyFlash.c **** 
 283:.\Generated_Source\PSoC5/CyFlash.c **** #else
 284:.\Generated_Source\PSoC5/CyFlash.c **** 
 285:.\Generated_Source\PSoC5/CyFlash.c ****     /*******************************************************************************
 286:.\Generated_Source\PSoC5/CyFlash.c ****     * Function Name: CyWriteRowData
 287:.\Generated_Source\PSoC5/CyFlash.c ****     ********************************************************************************
 288:.\Generated_Source\PSoC5/CyFlash.c ****     *
 289:.\Generated_Source\PSoC5/CyFlash.c ****     * Summary:
 290:.\Generated_Source\PSoC5/CyFlash.c ****     *   Sends a command to the SPC to load and program a row of data in
 291:.\Generated_Source\PSoC5/CyFlash.c ****     *   Flash or EEPROM.
 292:.\Generated_Source\PSoC5/CyFlash.c ****     *
 293:.\Generated_Source\PSoC5/CyFlash.c ****     * Parameters:
 294:.\Generated_Source\PSoC5/CyFlash.c ****     *  arrayID      : ID of the array to write.
 295:.\Generated_Source\PSoC5/CyFlash.c ****     *   The type of write, Flash or EEPROM, is determined from the array ID.
 296:.\Generated_Source\PSoC5/CyFlash.c ****     *   The arrays in the part are sequential starting at the first ID for the
 297:.\Generated_Source\PSoC5/CyFlash.c ****     *   specific memory type. The array ID for the Flash memory lasts from 0x00 to
 298:.\Generated_Source\PSoC5/CyFlash.c ****     *   0x3F and for the EEPROM memory it lasts from 0x40 to 0x7F.
 299:.\Generated_Source\PSoC5/CyFlash.c ****     *  rowAddress   : rowAddress of flash row to program.
 300:.\Generated_Source\PSoC5/CyFlash.c ****     *  rowData      : Array of bytes to write.
 301:.\Generated_Source\PSoC5/CyFlash.c ****     *
 302:.\Generated_Source\PSoC5/CyFlash.c ****     * Return:
 303:.\Generated_Source\PSoC5/CyFlash.c ****     *  status:
 304:.\Generated_Source\PSoC5/CyFlash.c ****     *   CYRET_SUCCESS if successful.
 305:.\Generated_Source\PSoC5/CyFlash.c ****     *   CYRET_LOCKED if the SPC is already in use.
 306:.\Generated_Source\PSoC5/CyFlash.c ****     *   CYRET_CANCELED if command not accepted
 307:.\Generated_Source\PSoC5/CyFlash.c ****     *   CYRET_UNKNOWN if there was an SPC error.
 308:.\Generated_Source\PSoC5/CyFlash.c ****     *
 309:.\Generated_Source\PSoC5/CyFlash.c ****     *******************************************************************************/
 310:.\Generated_Source\PSoC5/CyFlash.c ****     cystatus CyWriteRowData(uint8 arrayId, uint16 rowAddress, const uint8 * rowData) 
 311:.\Generated_Source\PSoC5/CyFlash.c ****     {
 312:.\Generated_Source\PSoC5/CyFlash.c ****         uint8 i;
 313:.\Generated_Source\PSoC5/CyFlash.c ****         uint32 offset;
 314:.\Generated_Source\PSoC5/CyFlash.c ****         uint16 rowSize;
 315:.\Generated_Source\PSoC5/CyFlash.c ****         cystatus status;
 316:.\Generated_Source\PSoC5/CyFlash.c **** 
ARM GAS  C:\Users\CHUCK~1.ERH\AppData\Local\Temp\ccyUD26b.s 			page 12


 317:.\Generated_Source\PSoC5/CyFlash.c ****         /* Check whether rowBuffer pointer has been initialized by CySetFlashEEBuffer() */
 318:.\Generated_Source\PSoC5/CyFlash.c ****         if(NULL != rowBuffer)
 319:.\Generated_Source\PSoC5/CyFlash.c ****         {
 320:.\Generated_Source\PSoC5/CyFlash.c ****             if(arrayId > CY_SPC_LAST_FLASH_ARRAYID)
 321:.\Generated_Source\PSoC5/CyFlash.c ****             {
 322:.\Generated_Source\PSoC5/CyFlash.c ****                 rowSize = CYDEV_EEPROM_ROW_SIZE;
 323:.\Generated_Source\PSoC5/CyFlash.c ****             }
 324:.\Generated_Source\PSoC5/CyFlash.c ****             else
 325:.\Generated_Source\PSoC5/CyFlash.c ****             {
 326:.\Generated_Source\PSoC5/CyFlash.c ****                 rowSize = CYDEV_FLS_ROW_SIZE + CYDEV_ECC_ROW_SIZE;
 327:.\Generated_Source\PSoC5/CyFlash.c **** 
 328:.\Generated_Source\PSoC5/CyFlash.c ****                 /* Save the ECC area. */
 329:.\Generated_Source\PSoC5/CyFlash.c ****                 offset = CYDEV_ECC_BASE +
 330:.\Generated_Source\PSoC5/CyFlash.c ****                         ((uint32)arrayId * CYDEV_ECC_SECTOR_SIZE) +
 331:.\Generated_Source\PSoC5/CyFlash.c ****                         ((uint32)rowAddress * CYDEV_ECC_ROW_SIZE);
 332:.\Generated_Source\PSoC5/CyFlash.c **** 
 333:.\Generated_Source\PSoC5/CyFlash.c ****                 for(i = 0u; i < CYDEV_ECC_ROW_SIZE; i++)
 334:.\Generated_Source\PSoC5/CyFlash.c ****                 {
 335:.\Generated_Source\PSoC5/CyFlash.c ****                     *(rowBuffer + CYDEV_FLS_ROW_SIZE + i) = CY_GET_XTND_REG8((void CYFAR *)(offset 
 336:.\Generated_Source\PSoC5/CyFlash.c ****                 }
 337:.\Generated_Source\PSoC5/CyFlash.c ****             }
 338:.\Generated_Source\PSoC5/CyFlash.c **** 
 339:.\Generated_Source\PSoC5/CyFlash.c ****             /* Copy the rowdata to the temporary buffer. */
 340:.\Generated_Source\PSoC5/CyFlash.c ****         #if(CY_PSOC3)
 341:.\Generated_Source\PSoC5/CyFlash.c ****             (void) memcpy((void *) rowBuffer, (void *)((uint32) rowData), (int16) CYDEV_FLS_ROW_SIZ
 342:.\Generated_Source\PSoC5/CyFlash.c ****         #else
 343:.\Generated_Source\PSoC5/CyFlash.c ****             (void) memcpy((void *) rowBuffer, (const void *) rowData, CYDEV_FLS_ROW_SIZE);
 344:.\Generated_Source\PSoC5/CyFlash.c ****         #endif  /* (CY_PSOC3) */
 345:.\Generated_Source\PSoC5/CyFlash.c **** 
 346:.\Generated_Source\PSoC5/CyFlash.c ****             status = CyWriteRowFull(arrayId, rowAddress, rowBuffer, rowSize);
 347:.\Generated_Source\PSoC5/CyFlash.c ****         }
 348:.\Generated_Source\PSoC5/CyFlash.c ****         else
 349:.\Generated_Source\PSoC5/CyFlash.c ****         {
 350:.\Generated_Source\PSoC5/CyFlash.c ****             status = CYRET_UNKNOWN;
 351:.\Generated_Source\PSoC5/CyFlash.c ****         }
 352:.\Generated_Source\PSoC5/CyFlash.c **** 
 353:.\Generated_Source\PSoC5/CyFlash.c ****         return(status);
 354:.\Generated_Source\PSoC5/CyFlash.c ****     }
 355:.\Generated_Source\PSoC5/CyFlash.c **** 
 356:.\Generated_Source\PSoC5/CyFlash.c **** #endif /* (CYDEV_ECC_ENABLE == 0u) */
 357:.\Generated_Source\PSoC5/CyFlash.c **** 
 358:.\Generated_Source\PSoC5/CyFlash.c **** 
 359:.\Generated_Source\PSoC5/CyFlash.c **** #if ((CYDEV_ECC_ENABLE == 0u) && (CYDEV_CONFIGURATION_ECC == 0u))
 360:.\Generated_Source\PSoC5/CyFlash.c **** 
 361:.\Generated_Source\PSoC5/CyFlash.c ****     /*******************************************************************************
 362:.\Generated_Source\PSoC5/CyFlash.c ****     * Function Name: CyWriteRowConfig
 363:.\Generated_Source\PSoC5/CyFlash.c ****     ********************************************************************************
 364:.\Generated_Source\PSoC5/CyFlash.c ****     *
 365:.\Generated_Source\PSoC5/CyFlash.c ****     * Summary:
 366:.\Generated_Source\PSoC5/CyFlash.c ****     *  Sends a command to the SPC to load and program a row of config data in flash.
 367:.\Generated_Source\PSoC5/CyFlash.c ****     *  This function is only valid for Flash array IDs (not for EEPROM).
 368:.\Generated_Source\PSoC5/CyFlash.c ****     *
 369:.\Generated_Source\PSoC5/CyFlash.c ****     * Parameters:
 370:.\Generated_Source\PSoC5/CyFlash.c ****     *  arrayId:      ID of the array to write
 371:.\Generated_Source\PSoC5/CyFlash.c ****     *   The arrays in the part are sequential starting at the first ID for the
 372:.\Generated_Source\PSoC5/CyFlash.c ****     *   specific memory type. The array ID for the Flash memory lasts
 373:.\Generated_Source\PSoC5/CyFlash.c ****     *   from 0x00 to 0x3F.
ARM GAS  C:\Users\CHUCK~1.ERH\AppData\Local\Temp\ccyUD26b.s 			page 13


 374:.\Generated_Source\PSoC5/CyFlash.c ****     *  rowAddress:   Address of the sector to erase.
 375:.\Generated_Source\PSoC5/CyFlash.c ****     *  rowECC:       Array of bytes to write.
 376:.\Generated_Source\PSoC5/CyFlash.c ****     *
 377:.\Generated_Source\PSoC5/CyFlash.c ****     * Return:
 378:.\Generated_Source\PSoC5/CyFlash.c ****     *  status:
 379:.\Generated_Source\PSoC5/CyFlash.c ****     *   CYRET_SUCCESS if successful.
 380:.\Generated_Source\PSoC5/CyFlash.c ****     *   CYRET_LOCKED if the SPC is already in use.
 381:.\Generated_Source\PSoC5/CyFlash.c ****     *   CYRET_CANCELED if command not accepted
 382:.\Generated_Source\PSoC5/CyFlash.c ****     *   CYRET_UNKNOWN if there was an SPC error.
 383:.\Generated_Source\PSoC5/CyFlash.c ****     *
 384:.\Generated_Source\PSoC5/CyFlash.c ****     *******************************************************************************/
 385:.\Generated_Source\PSoC5/CyFlash.c ****     cystatus CyWriteRowConfig(uint8 arrayId, uint16 rowAddress, const uint8 * rowECC)\
 386:.\Generated_Source\PSoC5/CyFlash.c ****     
 387:.\Generated_Source\PSoC5/CyFlash.c ****     {
 388:.\Generated_Source\PSoC5/CyFlash.c ****         uint32 offset;
 389:.\Generated_Source\PSoC5/CyFlash.c ****         uint16 i;
 390:.\Generated_Source\PSoC5/CyFlash.c ****         cystatus status;
 391:.\Generated_Source\PSoC5/CyFlash.c **** 
 392:.\Generated_Source\PSoC5/CyFlash.c ****         /* Check whether rowBuffer pointer has been initialized by CySetFlashEEBuffer() */
 393:.\Generated_Source\PSoC5/CyFlash.c ****         if(NULL != rowBuffer)
 394:.\Generated_Source\PSoC5/CyFlash.c ****         {
 395:.\Generated_Source\PSoC5/CyFlash.c ****             /* Read the existing flash data. */
 396:.\Generated_Source\PSoC5/CyFlash.c ****             offset = ((uint32)arrayId * CYDEV_FLS_SECTOR_SIZE) +
 397:.\Generated_Source\PSoC5/CyFlash.c ****                      ((uint32)rowAddress * CYDEV_FLS_ROW_SIZE);
 398:.\Generated_Source\PSoC5/CyFlash.c **** 
 399:.\Generated_Source\PSoC5/CyFlash.c ****             #if (CYDEV_FLS_BASE != 0u)
 400:.\Generated_Source\PSoC5/CyFlash.c ****                 offset += CYDEV_FLS_BASE;
 401:.\Generated_Source\PSoC5/CyFlash.c ****             #endif  /* (CYDEV_FLS_BASE != 0u) */
 402:.\Generated_Source\PSoC5/CyFlash.c **** 
 403:.\Generated_Source\PSoC5/CyFlash.c ****             for (i = 0u; i < CYDEV_FLS_ROW_SIZE; i++)
 404:.\Generated_Source\PSoC5/CyFlash.c ****             {
 405:.\Generated_Source\PSoC5/CyFlash.c ****                 rowBuffer[i] = CY_GET_XTND_REG8((void CYFAR *)(offset + i));
 406:.\Generated_Source\PSoC5/CyFlash.c ****             }
 407:.\Generated_Source\PSoC5/CyFlash.c **** 
 408:.\Generated_Source\PSoC5/CyFlash.c ****             #if(CY_PSOC3)
 409:.\Generated_Source\PSoC5/CyFlash.c ****                 (void) memcpy((void *)&rowBuffer[CYDEV_FLS_ROW_SIZE],
 410:.\Generated_Source\PSoC5/CyFlash.c ****                               (void *)(uint32)rowECC,
 411:.\Generated_Source\PSoC5/CyFlash.c ****                               (int16)CYDEV_ECC_ROW_SIZE);
 412:.\Generated_Source\PSoC5/CyFlash.c ****             #else
 413:.\Generated_Source\PSoC5/CyFlash.c ****                 (void) memcpy((void *)&rowBuffer[CYDEV_FLS_ROW_SIZE],
 414:.\Generated_Source\PSoC5/CyFlash.c ****                               (const void *)rowECC,
 415:.\Generated_Source\PSoC5/CyFlash.c ****                               CYDEV_ECC_ROW_SIZE);
 416:.\Generated_Source\PSoC5/CyFlash.c ****             #endif  /* (CY_PSOC3) */
 417:.\Generated_Source\PSoC5/CyFlash.c **** 
 418:.\Generated_Source\PSoC5/CyFlash.c ****             status = CyWriteRowFull(arrayId, rowAddress, rowBuffer, CYDEV_FLS_ROW_SIZE + CYDEV_ECC_
 419:.\Generated_Source\PSoC5/CyFlash.c ****         }
 420:.\Generated_Source\PSoC5/CyFlash.c ****         else
 421:.\Generated_Source\PSoC5/CyFlash.c ****         {
 422:.\Generated_Source\PSoC5/CyFlash.c ****             status = CYRET_UNKNOWN;
 423:.\Generated_Source\PSoC5/CyFlash.c ****         }
 424:.\Generated_Source\PSoC5/CyFlash.c **** 
 425:.\Generated_Source\PSoC5/CyFlash.c ****         return (status);
 426:.\Generated_Source\PSoC5/CyFlash.c ****     }
 427:.\Generated_Source\PSoC5/CyFlash.c **** 
 428:.\Generated_Source\PSoC5/CyFlash.c **** #endif  /* ((CYDEV_ECC_ENABLE == 0u) && (CYDEV_CONFIGURATION_ECC == 0u)) */
 429:.\Generated_Source\PSoC5/CyFlash.c **** 
 430:.\Generated_Source\PSoC5/CyFlash.c **** 
ARM GAS  C:\Users\CHUCK~1.ERH\AppData\Local\Temp\ccyUD26b.s 			page 14


 431:.\Generated_Source\PSoC5/CyFlash.c **** 
 432:.\Generated_Source\PSoC5/CyFlash.c **** /*******************************************************************************
 433:.\Generated_Source\PSoC5/CyFlash.c **** * Function Name: CyWriteRowFull
 434:.\Generated_Source\PSoC5/CyFlash.c **** ********************************************************************************
 435:.\Generated_Source\PSoC5/CyFlash.c **** * Summary:
 436:.\Generated_Source\PSoC5/CyFlash.c **** *  Sends a command to the SPC to load and program a row of data in flash.
 437:.\Generated_Source\PSoC5/CyFlash.c **** *  rowData array is expected to contain Flash and ECC data if needed.
 438:.\Generated_Source\PSoC5/CyFlash.c **** *
 439:.\Generated_Source\PSoC5/CyFlash.c **** * Parameters:
 440:.\Generated_Source\PSoC5/CyFlash.c **** *  arrayId:    FLASH or EEPROM array id.
 441:.\Generated_Source\PSoC5/CyFlash.c **** *  rowData:    Pointer to a row of data to write.
 442:.\Generated_Source\PSoC5/CyFlash.c **** *  rowNumber:  Zero based number of the row.
 443:.\Generated_Source\PSoC5/CyFlash.c **** *  rowSize:    Size of the row.
 444:.\Generated_Source\PSoC5/CyFlash.c **** *
 445:.\Generated_Source\PSoC5/CyFlash.c **** * Return:
 446:.\Generated_Source\PSoC5/CyFlash.c **** *  CYRET_SUCCESS if successful.
 447:.\Generated_Source\PSoC5/CyFlash.c **** *  CYRET_LOCKED if the SPC is already in use.
 448:.\Generated_Source\PSoC5/CyFlash.c **** *  CYRET_CANCELED if command not accepted
 449:.\Generated_Source\PSoC5/CyFlash.c **** *  CYRET_UNKNOWN if there was an SPC error.
 450:.\Generated_Source\PSoC5/CyFlash.c **** *
 451:.\Generated_Source\PSoC5/CyFlash.c **** *******************************************************************************/
 452:.\Generated_Source\PSoC5/CyFlash.c **** cystatus CyWriteRowFull(uint8 arrayId, uint16 rowNumber, const uint8* rowData, uint16 rowSize) \
 453:.\Generated_Source\PSoC5/CyFlash.c ****         
 454:.\Generated_Source\PSoC5/CyFlash.c **** {
 288              		.loc 1 454 0
 289              		.cfi_startproc
 290              		@ args = 0, pretend = 0, frame = 0
 291              		@ frame_needed = 0, uses_anonymous_args = 0
 292              	.LVL18:
 293 0000 F8B5     		push	{r3, r4, r5, r6, r7, lr}
 294              	.LCFI3:
 295              		.cfi_def_cfa_offset 24
 296              		.cfi_offset 3, -24
 297              		.cfi_offset 4, -20
 298              		.cfi_offset 5, -16
 299              		.cfi_offset 6, -12
 300              		.cfi_offset 7, -8
 301              		.cfi_offset 14, -4
 302              		.loc 1 454 0
 303 0002 0546     		mov	r5, r0
 304 0004 0E46     		mov	r6, r1
 305 0006 1746     		mov	r7, r2
 306 0008 1C46     		mov	r4, r3
 455:.\Generated_Source\PSoC5/CyFlash.c ****     cystatus status;
 456:.\Generated_Source\PSoC5/CyFlash.c **** 
 457:.\Generated_Source\PSoC5/CyFlash.c ****     if(CySpcLock() == CYRET_SUCCESS)
 307              		.loc 1 457 0
 308 000a FFF7FEFF 		bl	CySpcLock
 309              	.LVL19:
 310 000e F0B9     		cbnz	r0, .L49
 458:.\Generated_Source\PSoC5/CyFlash.c ****     {
 459:.\Generated_Source\PSoC5/CyFlash.c ****         /* Load row data into SPC internal latch */
 460:.\Generated_Source\PSoC5/CyFlash.c ****         status = CySpcLoadRow(arrayId, rowData, rowSize);
 311              		.loc 1 460 0
 312 0010 2246     		mov	r2, r4
 313 0012 2846     		mov	r0, r5
 314 0014 3946     		mov	r1, r7
ARM GAS  C:\Users\CHUCK~1.ERH\AppData\Local\Temp\ccyUD26b.s 			page 15


 315 0016 FFF7FEFF 		bl	CySpcLoadRow
 316              	.LVL20:
 461:.\Generated_Source\PSoC5/CyFlash.c **** 
 462:.\Generated_Source\PSoC5/CyFlash.c ****         if(CYRET_STARTED == status)
 317              		.loc 1 462 0
 318 001a 0728     		cmp	r0, #7
 460:.\Generated_Source\PSoC5/CyFlash.c ****         status = CySpcLoadRow(arrayId, rowData, rowSize);
 319              		.loc 1 460 0
 320 001c 0446     		mov	r4, r0
 321              	.LVL21:
 322              		.loc 1 462 0
 323 001e 13D1     		bne	.L44
 324              	.LVL22:
 325              	.L57:
 463:.\Generated_Source\PSoC5/CyFlash.c ****         {
 464:.\Generated_Source\PSoC5/CyFlash.c ****             while(CY_SPC_BUSY)
 326              		.loc 1 464 0 discriminator 1
 327 0020 1D4B     		ldr	r3, .L64
 328 0022 1A78     		ldrb	r2, [r3, #0]	@ zero_extendqisi2
 329 0024 02F00200 		and	r0, r2, #2
 330 0028 C1B2     		uxtb	r1, r0
 331 002a 19B9     		cbnz	r1, .L62
 332              	.L45:
 465:.\Generated_Source\PSoC5/CyFlash.c ****             {
 466:.\Generated_Source\PSoC5/CyFlash.c ****                 /* Wait for SPC to finish and get SPC status */
 467:.\Generated_Source\PSoC5/CyFlash.c ****                 CyDelayUs(1u);
 333              		.loc 1 467 0
 334 002c 0120     		movs	r0, #1
 335 002e FFF7FEFF 		bl	CyDelayUs
 336              	.LVL23:
 337 0032 F5E7     		b	.L57
 338              	.L62:
 468:.\Generated_Source\PSoC5/CyFlash.c ****             }
 469:.\Generated_Source\PSoC5/CyFlash.c **** 
 470:.\Generated_Source\PSoC5/CyFlash.c ****             /* Hide SPC status */
 471:.\Generated_Source\PSoC5/CyFlash.c ****             if(CY_SPC_STATUS_SUCCESS == CY_SPC_READ_STATUS)
 339              		.loc 1 471 0
 340 0034 1C78     		ldrb	r4, [r3, #0]	@ zero_extendqisi2
 341              	.LVL24:
 342 0036 04F00202 		and	r2, r4, #2
 343 003a D0B2     		uxtb	r0, r2
 344 003c 10B1     		cbz	r0, .L51
 345              		.loc 1 471 0 is_stmt 0 discriminator 1
 346 003e 1B78     		ldrb	r3, [r3, #0]	@ zero_extendqisi2
 347 0040 9B08     		lsrs	r3, r3, #2
 348 0042 06D0     		beq	.L46
 349              	.L51:
 472:.\Generated_Source\PSoC5/CyFlash.c ****             {
 473:.\Generated_Source\PSoC5/CyFlash.c ****                 status = CYRET_SUCCESS;
 474:.\Generated_Source\PSoC5/CyFlash.c ****             }
 475:.\Generated_Source\PSoC5/CyFlash.c ****             else
 476:.\Generated_Source\PSoC5/CyFlash.c ****             {
 477:.\Generated_Source\PSoC5/CyFlash.c ****                 status = CYRET_UNKNOWN;
 478:.\Generated_Source\PSoC5/CyFlash.c ****             }
 479:.\Generated_Source\PSoC5/CyFlash.c **** 
 480:.\Generated_Source\PSoC5/CyFlash.c ****             if(CYRET_SUCCESS == status)
 481:.\Generated_Source\PSoC5/CyFlash.c ****             {
ARM GAS  C:\Users\CHUCK~1.ERH\AppData\Local\Temp\ccyUD26b.s 			page 16


 482:.\Generated_Source\PSoC5/CyFlash.c ****                 /* Erase and program flash with the data from SPC interval latch */
 483:.\Generated_Source\PSoC5/CyFlash.c ****                 status = CySpcWriteRow(arrayId, rowNumber, dieTemperature[0u], dieTemperature[1u]);
 484:.\Generated_Source\PSoC5/CyFlash.c **** 
 485:.\Generated_Source\PSoC5/CyFlash.c ****                 if(CYRET_STARTED == status)
 486:.\Generated_Source\PSoC5/CyFlash.c ****                 {
 487:.\Generated_Source\PSoC5/CyFlash.c ****                     while(CY_SPC_BUSY)
 488:.\Generated_Source\PSoC5/CyFlash.c ****                     {
 489:.\Generated_Source\PSoC5/CyFlash.c ****                         /* Wait for SPC to finish and get SPC status */
 490:.\Generated_Source\PSoC5/CyFlash.c ****                         CyDelayUs(1u);
 491:.\Generated_Source\PSoC5/CyFlash.c ****                     }
 492:.\Generated_Source\PSoC5/CyFlash.c **** 
 493:.\Generated_Source\PSoC5/CyFlash.c ****                     /* Hide SPC status */
 494:.\Generated_Source\PSoC5/CyFlash.c ****                     if(CY_SPC_STATUS_SUCCESS == CY_SPC_READ_STATUS)
 495:.\Generated_Source\PSoC5/CyFlash.c ****                     {
 496:.\Generated_Source\PSoC5/CyFlash.c ****                         status = CYRET_SUCCESS;
 497:.\Generated_Source\PSoC5/CyFlash.c ****                     }
 498:.\Generated_Source\PSoC5/CyFlash.c ****                     else
 499:.\Generated_Source\PSoC5/CyFlash.c ****                     {
 500:.\Generated_Source\PSoC5/CyFlash.c ****                         status = CYRET_UNKNOWN;
 350              		.loc 1 500 0 is_stmt 1
 351 0044 4FF0FF34 		mov	r4, #-1
 352              	.L44:
 353              	.LVL25:
 501:.\Generated_Source\PSoC5/CyFlash.c ****                     }
 502:.\Generated_Source\PSoC5/CyFlash.c ****                 }
 503:.\Generated_Source\PSoC5/CyFlash.c ****             }
 504:.\Generated_Source\PSoC5/CyFlash.c **** 
 505:.\Generated_Source\PSoC5/CyFlash.c ****         }
 506:.\Generated_Source\PSoC5/CyFlash.c **** 
 507:.\Generated_Source\PSoC5/CyFlash.c ****         CySpcUnlock();
 354              		.loc 1 507 0
 355 0048 FFF7FEFF 		bl	CySpcUnlock
 356              	.LVL26:
 357 004c 22E0     		b	.L61
 358              	.LVL27:
 359              	.L49:
 508:.\Generated_Source\PSoC5/CyFlash.c ****     }
 509:.\Generated_Source\PSoC5/CyFlash.c ****     else
 510:.\Generated_Source\PSoC5/CyFlash.c ****     {
 511:.\Generated_Source\PSoC5/CyFlash.c ****         status = CYRET_LOCKED;
 360              		.loc 1 511 0
 361 004e 0424     		movs	r4, #4
 362              	.LVL28:
 363 0050 20E0     		b	.L61
 364              	.LVL29:
 365              	.L46:
 483:.\Generated_Source\PSoC5/CyFlash.c ****                 status = CySpcWriteRow(arrayId, rowNumber, dieTemperature[0u], dieTemperature[1u]);
 366              		.loc 1 483 0
 367 0052 124C     		ldr	r4, .L64+4
 368 0054 2846     		mov	r0, r5
 369 0056 2278     		ldrb	r2, [r4, #0]	@ zero_extendqisi2
 370 0058 6378     		ldrb	r3, [r4, #1]	@ zero_extendqisi2
 371 005a 3146     		mov	r1, r6
 372 005c FFF7FEFF 		bl	CySpcWriteRow
 373              	.LVL30:
 485:.\Generated_Source\PSoC5/CyFlash.c ****                 if(CYRET_STARTED == status)
 374              		.loc 1 485 0
ARM GAS  C:\Users\CHUCK~1.ERH\AppData\Local\Temp\ccyUD26b.s 			page 17


 375 0060 0728     		cmp	r0, #7
 483:.\Generated_Source\PSoC5/CyFlash.c ****                 status = CySpcWriteRow(arrayId, rowNumber, dieTemperature[0u], dieTemperature[1u]);
 376              		.loc 1 483 0
 377 0062 0446     		mov	r4, r0
 378              	.LVL31:
 485:.\Generated_Source\PSoC5/CyFlash.c ****                 if(CYRET_STARTED == status)
 379              		.loc 1 485 0
 380 0064 F0D1     		bne	.L44
 381              	.LVL32:
 382              	.L58:
 487:.\Generated_Source\PSoC5/CyFlash.c ****                     while(CY_SPC_BUSY)
 383              		.loc 1 487 0 discriminator 1
 384 0066 0C49     		ldr	r1, .L64
 385 0068 0A78     		ldrb	r2, [r1, #0]	@ zero_extendqisi2
 386 006a 02F00200 		and	r0, r2, #2
 387 006e C3B2     		uxtb	r3, r0
 388 0070 1BB9     		cbnz	r3, .L63
 389              	.L47:
 490:.\Generated_Source\PSoC5/CyFlash.c ****                         CyDelayUs(1u);
 390              		.loc 1 490 0
 391 0072 0120     		movs	r0, #1
 392 0074 FFF7FEFF 		bl	CyDelayUs
 393              	.LVL33:
 394 0078 F5E7     		b	.L58
 395              	.L63:
 494:.\Generated_Source\PSoC5/CyFlash.c ****                     if(CY_SPC_STATUS_SUCCESS == CY_SPC_READ_STATUS)
 396              		.loc 1 494 0
 397 007a 0C78     		ldrb	r4, [r1, #0]	@ zero_extendqisi2
 398              	.LVL34:
 399 007c 04F00202 		and	r2, r4, #2
 400 0080 D0B2     		uxtb	r0, r2
 401 0082 0028     		cmp	r0, #0
 402 0084 DED0     		beq	.L51
 494:.\Generated_Source\PSoC5/CyFlash.c ****                     if(CY_SPC_STATUS_SUCCESS == CY_SPC_READ_STATUS)
 403              		.loc 1 494 0 is_stmt 0 discriminator 1
 404 0086 0978     		ldrb	r1, [r1, #0]	@ zero_extendqisi2
 496:.\Generated_Source\PSoC5/CyFlash.c ****                         status = CYRET_SUCCESS;
 405              		.loc 1 496 0 is_stmt 1 discriminator 1
 406 0088 8B08     		lsrs	r3, r1, #2
 407 008a 14BF     		ite	ne
 408 008c 4FF0FF34 		movne	r4, #-1
 409 0090 0024     		moveq	r4, #0
 410 0092 D9E7     		b	.L44
 411              	.LVL35:
 412              	.L61:
 512:.\Generated_Source\PSoC5/CyFlash.c ****     }
 513:.\Generated_Source\PSoC5/CyFlash.c **** 
 514:.\Generated_Source\PSoC5/CyFlash.c ****     return(status);
 515:.\Generated_Source\PSoC5/CyFlash.c **** }
 413              		.loc 1 515 0
 414 0094 2046     		mov	r0, r4
 415 0096 F8BD     		pop	{r3, r4, r5, r6, r7, pc}
 416              	.L65:
 417              		.align	2
 418              	.L64:
 419 0098 22470040 		.word	1073760034
 420 009c 00000000 		.word	dieTemperature
ARM GAS  C:\Users\CHUCK~1.ERH\AppData\Local\Temp\ccyUD26b.s 			page 18


 421              		.cfi_endproc
 422              	.LFE6:
 423              		.size	CyWriteRowFull, .-CyWriteRowFull
 424              		.section	.text.CyWriteRowData,"ax",%progbits
 425              		.align	1
 426              		.global	CyWriteRowData
 427              		.thumb
 428              		.thumb_func
 429              		.type	CyWriteRowData, %function
 430              	CyWriteRowData:
 431              	.LFB5:
 311:.\Generated_Source\PSoC5/CyFlash.c ****     {
 432              		.loc 1 311 0
 433              		.cfi_startproc
 434              		@ args = 0, pretend = 0, frame = 0
 435              		@ frame_needed = 0, uses_anonymous_args = 0
 436              	.LVL36:
 318:.\Generated_Source\PSoC5/CyFlash.c ****         if(NULL != rowBuffer)
 437              		.loc 1 318 0
 438 0000 154B     		ldr	r3, .L72
 311:.\Generated_Source\PSoC5/CyFlash.c ****     {
 439              		.loc 1 311 0
 440 0002 2DE9F041 		push	{r4, r5, r6, r7, r8, lr}
 441              	.LCFI4:
 442              		.cfi_def_cfa_offset 24
 443              		.cfi_offset 4, -24
 444              		.cfi_offset 5, -20
 445              		.cfi_offset 6, -16
 446              		.cfi_offset 7, -12
 447              		.cfi_offset 8, -8
 448              		.cfi_offset 14, -4
 318:.\Generated_Source\PSoC5/CyFlash.c ****         if(NULL != rowBuffer)
 449              		.loc 1 318 0
 450 0006 1C68     		ldr	r4, [r3, #0]
 311:.\Generated_Source\PSoC5/CyFlash.c ****     {
 451              		.loc 1 311 0
 452 0008 0546     		mov	r5, r0
 453 000a 0F46     		mov	r7, r1
 318:.\Generated_Source\PSoC5/CyFlash.c ****         if(NULL != rowBuffer)
 454              		.loc 1 318 0
 455 000c 04B3     		cbz	r4, .L67
 320:.\Generated_Source\PSoC5/CyFlash.c ****             if(arrayId > CY_SPC_LAST_FLASH_ARRAYID)
 456              		.loc 1 320 0
 457 000e 3F28     		cmp	r0, #63
 458 0010 0FD8     		bhi	.L70
 459              	.LVL37:
 330:.\Generated_Source\PSoC5/CyFlash.c ****                         ((uint32)arrayId * CYDEV_ECC_SECTOR_SIZE) +
 460              		.loc 1 330 0
 461 0012 00F51036 		add	r6, r0, #147456
 462 0016 01EB0620 		add	r0, r1, r6, lsl #8
 463              	.LVL38:
 329:.\Generated_Source\PSoC5/CyFlash.c ****                 offset = CYDEV_ECC_BASE +
 464              		.loc 1 329 0
 465 001a 4601     		lsls	r6, r0, #5
 466              	.LVL39:
 467 001c 0023     		movs	r3, #0
 468              	.LVL40:
ARM GAS  C:\Users\CHUCK~1.ERH\AppData\Local\Temp\ccyUD26b.s 			page 19


 469              	.L69:
 335:.\Generated_Source\PSoC5/CyFlash.c ****                     *(rowBuffer + CYDEV_FLS_ROW_SIZE + i) = CY_GET_XTND_REG8((void CYFAR *)(offset 
 470              		.loc 1 335 0 discriminator 2
 471 001e 985D     		ldrb	r0, [r3, r6]	@ zero_extendqisi2
 310:.\Generated_Source\PSoC5/CyFlash.c ****     cystatus CyWriteRowData(uint8 arrayId, uint16 rowAddress, const uint8 * rowData) 
 472              		.loc 1 310 0 discriminator 2
 473 0020 E118     		adds	r1, r4, r3
 474 0022 0133     		adds	r3, r3, #1
 333:.\Generated_Source\PSoC5/CyFlash.c ****                 for(i = 0u; i < CYDEV_ECC_ROW_SIZE; i++)
 475              		.loc 1 333 0 discriminator 2
 476 0024 202B     		cmp	r3, #32
 335:.\Generated_Source\PSoC5/CyFlash.c ****                     *(rowBuffer + CYDEV_FLS_ROW_SIZE + i) = CY_GET_XTND_REG8((void CYFAR *)(offset 
 477              		.loc 1 335 0 discriminator 2
 478 0026 81F80001 		strb	r0, [r1, #256]
 333:.\Generated_Source\PSoC5/CyFlash.c ****                 for(i = 0u; i < CYDEV_ECC_ROW_SIZE; i++)
 479              		.loc 1 333 0 discriminator 2
 480 002a F8D1     		bne	.L69
 326:.\Generated_Source\PSoC5/CyFlash.c ****                 rowSize = CYDEV_FLS_ROW_SIZE + CYDEV_ECC_ROW_SIZE;
 481              		.loc 1 326 0
 482 002c 4FF49076 		mov	r6, #288
 483              	.LVL41:
 484 0030 00E0     		b	.L68
 485              	.LVL42:
 486              	.L70:
 322:.\Generated_Source\PSoC5/CyFlash.c ****                 rowSize = CYDEV_EEPROM_ROW_SIZE;
 487              		.loc 1 322 0
 488 0032 1026     		movs	r6, #16
 489              	.LVL43:
 490              	.L68:
 343:.\Generated_Source\PSoC5/CyFlash.c ****             (void) memcpy((void *) rowBuffer, (const void *) rowData, CYDEV_FLS_ROW_SIZE);
 491              		.loc 1 343 0
 492 0034 1146     		mov	r1, r2
 493 0036 2046     		mov	r0, r4
 494 0038 4FF48072 		mov	r2, #256
 495              	.LVL44:
 496 003c FFF7FEFF 		bl	memcpy
 497              	.LVL45:
 346:.\Generated_Source\PSoC5/CyFlash.c ****             status = CyWriteRowFull(arrayId, rowAddress, rowBuffer, rowSize);
 498              		.loc 1 346 0
 499 0040 2846     		mov	r0, r5
 500 0042 3946     		mov	r1, r7
 501 0044 2246     		mov	r2, r4
 502 0046 3346     		mov	r3, r6
 354:.\Generated_Source\PSoC5/CyFlash.c ****     }
 503              		.loc 1 354 0
 504 0048 BDE8F041 		pop	{r4, r5, r6, r7, r8, lr}
 346:.\Generated_Source\PSoC5/CyFlash.c ****             status = CyWriteRowFull(arrayId, rowAddress, rowBuffer, rowSize);
 505              		.loc 1 346 0
 506 004c FFF7FEBF 		b	CyWriteRowFull
 507              	.LVL46:
 508              	.L67:
 354:.\Generated_Source\PSoC5/CyFlash.c ****     }
 509              		.loc 1 354 0
 510 0050 4FF0FF30 		mov	r0, #-1
 511              	.LVL47:
 512 0054 BDE8F081 		pop	{r4, r5, r6, r7, r8, pc}
 513              	.L73:
ARM GAS  C:\Users\CHUCK~1.ERH\AppData\Local\Temp\ccyUD26b.s 			page 20


 514              		.align	2
 515              	.L72:
 516 0058 00000000 		.word	.LANCHOR0
 517              		.cfi_endproc
 518              	.LFE5:
 519              		.size	CyWriteRowData, .-CyWriteRowData
 520              		.section	.text.CyFlash_SetWaitCycles,"ax",%progbits
 521              		.align	1
 522              		.global	CyFlash_SetWaitCycles
 523              		.thumb
 524              		.thumb_func
 525              		.type	CyFlash_SetWaitCycles, %function
 526              	CyFlash_SetWaitCycles:
 527              	.LFB7:
 516:.\Generated_Source\PSoC5/CyFlash.c **** 
 517:.\Generated_Source\PSoC5/CyFlash.c **** 
 518:.\Generated_Source\PSoC5/CyFlash.c **** /*******************************************************************************
 519:.\Generated_Source\PSoC5/CyFlash.c **** * Function Name: CyFlash_SetWaitCycles
 520:.\Generated_Source\PSoC5/CyFlash.c **** ********************************************************************************
 521:.\Generated_Source\PSoC5/CyFlash.c **** *
 522:.\Generated_Source\PSoC5/CyFlash.c **** * Summary:
 523:.\Generated_Source\PSoC5/CyFlash.c **** *  Sets the number of clock cycles the cache will wait before it samples data
 524:.\Generated_Source\PSoC5/CyFlash.c **** *  coming back from Flash. This function must be called before increasing CPU
 525:.\Generated_Source\PSoC5/CyFlash.c **** *  clock frequency. It can optionally be called after lowering CPU clock
 526:.\Generated_Source\PSoC5/CyFlash.c **** *  frequency in order to improve CPU performance.
 527:.\Generated_Source\PSoC5/CyFlash.c **** *
 528:.\Generated_Source\PSoC5/CyFlash.c **** * Parameters:
 529:.\Generated_Source\PSoC5/CyFlash.c **** *  uint8 freq:
 530:.\Generated_Source\PSoC5/CyFlash.c **** *   Frequency of operation in Megahertz.
 531:.\Generated_Source\PSoC5/CyFlash.c **** *
 532:.\Generated_Source\PSoC5/CyFlash.c **** * Return:
 533:.\Generated_Source\PSoC5/CyFlash.c **** *  None
 534:.\Generated_Source\PSoC5/CyFlash.c **** *
 535:.\Generated_Source\PSoC5/CyFlash.c **** *******************************************************************************/
 536:.\Generated_Source\PSoC5/CyFlash.c **** void CyFlash_SetWaitCycles(uint8 freq) 
 537:.\Generated_Source\PSoC5/CyFlash.c **** {
 528              		.loc 1 537 0
 529              		.cfi_startproc
 530              		@ args = 0, pretend = 0, frame = 0
 531              		@ frame_needed = 0, uses_anonymous_args = 0
 532              	.LVL48:
 533 0000 10B5     		push	{r4, lr}
 534              	.LCFI5:
 535              		.cfi_def_cfa_offset 8
 536              		.cfi_offset 4, -8
 537              		.cfi_offset 14, -4
 538              		.loc 1 537 0
 539 0002 0446     		mov	r4, r0
 538:.\Generated_Source\PSoC5/CyFlash.c ****     uint8 interruptState;
 539:.\Generated_Source\PSoC5/CyFlash.c **** 
 540:.\Generated_Source\PSoC5/CyFlash.c ****     /* Save current global interrupt enable and disable it */
 541:.\Generated_Source\PSoC5/CyFlash.c ****     interruptState = CyEnterCriticalSection();
 540              		.loc 1 541 0
 541 0004 FFF7FEFF 		bl	CyEnterCriticalSection
 542              	.LVL49:
 543 0008 0D4B     		ldr	r3, .L80
 542:.\Generated_Source\PSoC5/CyFlash.c **** 
ARM GAS  C:\Users\CHUCK~1.ERH\AppData\Local\Temp\ccyUD26b.s 			page 21


 543:.\Generated_Source\PSoC5/CyFlash.c ****     /***************************************************************************
 544:.\Generated_Source\PSoC5/CyFlash.c ****     * The number of clock cycles the cache will wait before it samples data
 545:.\Generated_Source\PSoC5/CyFlash.c ****     * coming back from Flash must be equal or greater to to the CPU frequency
 546:.\Generated_Source\PSoC5/CyFlash.c ****     * outlined in clock cycles.
 547:.\Generated_Source\PSoC5/CyFlash.c ****     ***************************************************************************/
 548:.\Generated_Source\PSoC5/CyFlash.c **** 
 549:.\Generated_Source\PSoC5/CyFlash.c ****     #if (CY_PSOC3)
 550:.\Generated_Source\PSoC5/CyFlash.c **** 
 551:.\Generated_Source\PSoC5/CyFlash.c ****         if (freq <= 22u)
 552:.\Generated_Source\PSoC5/CyFlash.c ****         {
 553:.\Generated_Source\PSoC5/CyFlash.c ****             *CY_FLASH_CONTROL_PTR = ((*CY_FLASH_CONTROL_PTR & ((uint8)(~CY_FLASH_CYCLES_MASK))) |
 554:.\Generated_Source\PSoC5/CyFlash.c ****                 ((uint8)(CY_FLASH_LESSER_OR_EQUAL_22MHz << CY_FLASH_CYCLES_MASK_SHIFT)));
 555:.\Generated_Source\PSoC5/CyFlash.c ****         }
 556:.\Generated_Source\PSoC5/CyFlash.c ****         else if (freq <= 44u)
 557:.\Generated_Source\PSoC5/CyFlash.c ****         {
 558:.\Generated_Source\PSoC5/CyFlash.c ****             *CY_FLASH_CONTROL_PTR = ((*CY_FLASH_CONTROL_PTR & ((uint8)(~CY_FLASH_CYCLES_MASK))) |
 559:.\Generated_Source\PSoC5/CyFlash.c ****                 ((uint8)(CY_FLASH_LESSER_OR_EQUAL_44MHz << CY_FLASH_CYCLES_MASK_SHIFT)));
 560:.\Generated_Source\PSoC5/CyFlash.c ****         }
 561:.\Generated_Source\PSoC5/CyFlash.c ****         else
 562:.\Generated_Source\PSoC5/CyFlash.c ****         {
 563:.\Generated_Source\PSoC5/CyFlash.c ****             *CY_FLASH_CONTROL_PTR = ((*CY_FLASH_CONTROL_PTR & ((uint8)(~CY_FLASH_CYCLES_MASK))) |
 564:.\Generated_Source\PSoC5/CyFlash.c ****                 ((uint8)(CY_FLASH_GREATER_44MHz << CY_FLASH_CYCLES_MASK_SHIFT)));
 565:.\Generated_Source\PSoC5/CyFlash.c ****         }
 566:.\Generated_Source\PSoC5/CyFlash.c **** 
 567:.\Generated_Source\PSoC5/CyFlash.c ****     #endif  /* (CY_PSOC3) */
 568:.\Generated_Source\PSoC5/CyFlash.c **** 
 569:.\Generated_Source\PSoC5/CyFlash.c **** 
 570:.\Generated_Source\PSoC5/CyFlash.c ****     #if (CY_PSOC5)
 571:.\Generated_Source\PSoC5/CyFlash.c **** 
 572:.\Generated_Source\PSoC5/CyFlash.c ****         if (freq <= 16u)
 544              		.loc 1 572 0
 545 000a 102C     		cmp	r4, #16
 573:.\Generated_Source\PSoC5/CyFlash.c ****         {
 574:.\Generated_Source\PSoC5/CyFlash.c ****             *CY_FLASH_CONTROL_PTR = ((*CY_FLASH_CONTROL_PTR & ((uint8)(~CY_FLASH_CYCLES_MASK))) |
 546              		.loc 1 574 0
 547 000c 1A78     		ldrb	r2, [r3, #0]	@ zero_extendqisi2
 572:.\Generated_Source\PSoC5/CyFlash.c ****         if (freq <= 16u)
 548              		.loc 1 572 0
 549 000e 04D8     		bhi	.L75
 550              		.loc 1 574 0
 551 0010 02F03F02 		and	r2, r2, #63
 552 0014 42F04002 		orr	r2, r2, #64
 553 0018 0CE0     		b	.L79
 554              	.L75:
 575:.\Generated_Source\PSoC5/CyFlash.c ****                 ((uint8)(CY_FLASH_LESSER_OR_EQUAL_16MHz << CY_FLASH_CYCLES_MASK_SHIFT)));
 576:.\Generated_Source\PSoC5/CyFlash.c ****         }
 577:.\Generated_Source\PSoC5/CyFlash.c ****         else if (freq <= 33u)
 555              		.loc 1 577 0
 556 001a 212C     		cmp	r4, #33
 557 001c 04D8     		bhi	.L77
 578:.\Generated_Source\PSoC5/CyFlash.c ****         {
 579:.\Generated_Source\PSoC5/CyFlash.c ****             *CY_FLASH_CONTROL_PTR = ((*CY_FLASH_CONTROL_PTR & ((uint8)(~CY_FLASH_CYCLES_MASK))) |
 558              		.loc 1 579 0
 559 001e 02F03F01 		and	r1, r2, #63
 560 0022 41F08002 		orr	r2, r1, #128
 561 0026 05E0     		b	.L79
 562              	.L77:
ARM GAS  C:\Users\CHUCK~1.ERH\AppData\Local\Temp\ccyUD26b.s 			page 22


 580:.\Generated_Source\PSoC5/CyFlash.c ****                 ((uint8)(CY_FLASH_LESSER_OR_EQUAL_33MHz << CY_FLASH_CYCLES_MASK_SHIFT)));
 581:.\Generated_Source\PSoC5/CyFlash.c ****         }
 582:.\Generated_Source\PSoC5/CyFlash.c ****         else if (freq <= 50u)
 563              		.loc 1 582 0
 564 0028 322C     		cmp	r4, #50
 583:.\Generated_Source\PSoC5/CyFlash.c ****         {
 584:.\Generated_Source\PSoC5/CyFlash.c ****             *CY_FLASH_CONTROL_PTR = ((*CY_FLASH_CONTROL_PTR & ((uint8)(~CY_FLASH_CYCLES_MASK))) |
 565              		.loc 1 584 0
 566 002a 94BF     		ite	ls
 567 002c 42F0C002 		orrls	r2, r2, #192
 585:.\Generated_Source\PSoC5/CyFlash.c ****                 ((uint8)(CY_FLASH_LESSER_OR_EQUAL_50MHz << CY_FLASH_CYCLES_MASK_SHIFT)));
 586:.\Generated_Source\PSoC5/CyFlash.c ****         }
 587:.\Generated_Source\PSoC5/CyFlash.c ****         else
 588:.\Generated_Source\PSoC5/CyFlash.c ****         {
 589:.\Generated_Source\PSoC5/CyFlash.c ****             *CY_FLASH_CONTROL_PTR = ((*CY_FLASH_CONTROL_PTR & ((uint8)(~CY_FLASH_CYCLES_MASK))) |
 568              		.loc 1 589 0
 569 0030 02F03F02 		andhi	r2, r2, #63
 570              	.L79:
 571 0034 1A70     		strb	r2, [r3, #0]
 590:.\Generated_Source\PSoC5/CyFlash.c ****                 ((uint8)(CY_FLASH_GREATER_51MHz << CY_FLASH_CYCLES_MASK_SHIFT)));
 591:.\Generated_Source\PSoC5/CyFlash.c ****         }
 592:.\Generated_Source\PSoC5/CyFlash.c **** 
 593:.\Generated_Source\PSoC5/CyFlash.c ****     #endif  /* (CY_PSOC5) */
 594:.\Generated_Source\PSoC5/CyFlash.c **** 
 595:.\Generated_Source\PSoC5/CyFlash.c ****     /* Restore global interrupt enable state */
 596:.\Generated_Source\PSoC5/CyFlash.c ****     CyExitCriticalSection(interruptState);
 597:.\Generated_Source\PSoC5/CyFlash.c **** }
 572              		.loc 1 597 0
 573 0036 BDE81040 		pop	{r4, lr}
 596:.\Generated_Source\PSoC5/CyFlash.c ****     CyExitCriticalSection(interruptState);
 574              		.loc 1 596 0
 575 003a FFF7FEBF 		b	CyExitCriticalSection
 576              	.LVL50:
 577              	.L81:
 578 003e 00BF     		.align	2
 579              	.L80:
 580 0040 00480040 		.word	1073760256
 581              		.cfi_endproc
 582              	.LFE7:
 583              		.size	CyFlash_SetWaitCycles, .-CyFlash_SetWaitCycles
 584              		.section	.text.CyEEPROM_Start,"ax",%progbits
 585              		.align	1
 586              		.global	CyEEPROM_Start
 587              		.thumb
 588              		.thumb_func
 589              		.type	CyEEPROM_Start, %function
 590              	CyEEPROM_Start:
 591              	.LFB8:
 598:.\Generated_Source\PSoC5/CyFlash.c **** 
 599:.\Generated_Source\PSoC5/CyFlash.c **** 
 600:.\Generated_Source\PSoC5/CyFlash.c **** /*******************************************************************************
 601:.\Generated_Source\PSoC5/CyFlash.c **** * Function Name: CyEEPROM_Start
 602:.\Generated_Source\PSoC5/CyFlash.c **** ********************************************************************************
 603:.\Generated_Source\PSoC5/CyFlash.c **** *
 604:.\Generated_Source\PSoC5/CyFlash.c **** * Summary:
 605:.\Generated_Source\PSoC5/CyFlash.c **** *  Enable the EEPROM.
 606:.\Generated_Source\PSoC5/CyFlash.c **** *
ARM GAS  C:\Users\CHUCK~1.ERH\AppData\Local\Temp\ccyUD26b.s 			page 23


 607:.\Generated_Source\PSoC5/CyFlash.c **** * Parameters:
 608:.\Generated_Source\PSoC5/CyFlash.c **** *  None
 609:.\Generated_Source\PSoC5/CyFlash.c **** *
 610:.\Generated_Source\PSoC5/CyFlash.c **** * Return:
 611:.\Generated_Source\PSoC5/CyFlash.c **** *  None
 612:.\Generated_Source\PSoC5/CyFlash.c **** *
 613:.\Generated_Source\PSoC5/CyFlash.c **** *******************************************************************************/
 614:.\Generated_Source\PSoC5/CyFlash.c **** void CyEEPROM_Start(void) 
 615:.\Generated_Source\PSoC5/CyFlash.c **** {
 592              		.loc 1 615 0
 593              		.cfi_startproc
 594              		@ args = 0, pretend = 0, frame = 0
 595              		@ frame_needed = 0, uses_anonymous_args = 0
 596              		@ link register save eliminated.
 616:.\Generated_Source\PSoC5/CyFlash.c ****     /* Active Power Mode */
 617:.\Generated_Source\PSoC5/CyFlash.c ****     *CY_FLASH_PM_ACT_EEFLASH_PTR |= CY_FLASH_PM_EE_MASK;
 597              		.loc 1 617 0
 598 0000 044B     		ldr	r3, .L83
 599 0002 1A78     		ldrb	r2, [r3, #0]	@ zero_extendqisi2
 600 0004 42F01000 		orr	r0, r2, #16
 601 0008 1870     		strb	r0, [r3, #0]
 618:.\Generated_Source\PSoC5/CyFlash.c **** 
 619:.\Generated_Source\PSoC5/CyFlash.c ****     /* Standby Power Mode */
 620:.\Generated_Source\PSoC5/CyFlash.c ****     *CY_FLASH_PM_ALTACT_EEFLASH_PTR |= CY_FLASH_PM_EE_MASK;
 602              		.loc 1 620 0
 603 000a 197C     		ldrb	r1, [r3, #16]	@ zero_extendqisi2
 604 000c 41F01002 		orr	r2, r1, #16
 605 0010 1A74     		strb	r2, [r3, #16]
 606 0012 7047     		bx	lr
 607              	.L84:
 608              		.align	2
 609              	.L83:
 610 0014 AC430040 		.word	1073759148
 611              		.cfi_endproc
 612              	.LFE8:
 613              		.size	CyEEPROM_Start, .-CyEEPROM_Start
 614              		.section	.text.CyEEPROM_Stop,"ax",%progbits
 615              		.align	1
 616              		.global	CyEEPROM_Stop
 617              		.thumb
 618              		.thumb_func
 619              		.type	CyEEPROM_Stop, %function
 620              	CyEEPROM_Stop:
 621              	.LFB9:
 621:.\Generated_Source\PSoC5/CyFlash.c **** }
 622:.\Generated_Source\PSoC5/CyFlash.c **** 
 623:.\Generated_Source\PSoC5/CyFlash.c **** 
 624:.\Generated_Source\PSoC5/CyFlash.c **** /*******************************************************************************
 625:.\Generated_Source\PSoC5/CyFlash.c **** * Function Name: CyEEPROM_Stop
 626:.\Generated_Source\PSoC5/CyFlash.c **** ********************************************************************************
 627:.\Generated_Source\PSoC5/CyFlash.c **** *
 628:.\Generated_Source\PSoC5/CyFlash.c **** * Summary:
 629:.\Generated_Source\PSoC5/CyFlash.c **** *  Disable the EEPROM.
 630:.\Generated_Source\PSoC5/CyFlash.c **** *
 631:.\Generated_Source\PSoC5/CyFlash.c **** * Parameters:
 632:.\Generated_Source\PSoC5/CyFlash.c **** *  None
 633:.\Generated_Source\PSoC5/CyFlash.c **** *
ARM GAS  C:\Users\CHUCK~1.ERH\AppData\Local\Temp\ccyUD26b.s 			page 24


 634:.\Generated_Source\PSoC5/CyFlash.c **** * Return:
 635:.\Generated_Source\PSoC5/CyFlash.c **** *  None
 636:.\Generated_Source\PSoC5/CyFlash.c **** *
 637:.\Generated_Source\PSoC5/CyFlash.c **** *******************************************************************************/
 638:.\Generated_Source\PSoC5/CyFlash.c **** void CyEEPROM_Stop (void) 
 639:.\Generated_Source\PSoC5/CyFlash.c **** {
 622              		.loc 1 639 0
 623              		.cfi_startproc
 624              		@ args = 0, pretend = 0, frame = 0
 625              		@ frame_needed = 0, uses_anonymous_args = 0
 626              		@ link register save eliminated.
 640:.\Generated_Source\PSoC5/CyFlash.c ****     /* Active Power Mode */
 641:.\Generated_Source\PSoC5/CyFlash.c ****     *CY_FLASH_PM_ACT_EEFLASH_PTR &= ((uint8)(~CY_FLASH_PM_EE_MASK));
 627              		.loc 1 641 0
 628 0000 044B     		ldr	r3, .L86
 629 0002 1A78     		ldrb	r2, [r3, #0]	@ zero_extendqisi2
 630 0004 02F0EF00 		and	r0, r2, #239
 631 0008 1870     		strb	r0, [r3, #0]
 642:.\Generated_Source\PSoC5/CyFlash.c **** 
 643:.\Generated_Source\PSoC5/CyFlash.c ****     /* Standby Power Mode */
 644:.\Generated_Source\PSoC5/CyFlash.c ****     *CY_FLASH_PM_ALTACT_EEFLASH_PTR &= ((uint8)(~CY_FLASH_PM_EE_MASK));
 632              		.loc 1 644 0
 633 000a 197C     		ldrb	r1, [r3, #16]	@ zero_extendqisi2
 634 000c 01F0EF02 		and	r2, r1, #239
 635 0010 1A74     		strb	r2, [r3, #16]
 636 0012 7047     		bx	lr
 637              	.L87:
 638              		.align	2
 639              	.L86:
 640 0014 AC430040 		.word	1073759148
 641              		.cfi_endproc
 642              	.LFE9:
 643              		.size	CyEEPROM_Stop, .-CyEEPROM_Stop
 644              		.section	.text.CyEEPROM_ReadReserve,"ax",%progbits
 645              		.align	1
 646              		.global	CyEEPROM_ReadReserve
 647              		.thumb
 648              		.thumb_func
 649              		.type	CyEEPROM_ReadReserve, %function
 650              	CyEEPROM_ReadReserve:
 651              	.LFB10:
 645:.\Generated_Source\PSoC5/CyFlash.c **** }
 646:.\Generated_Source\PSoC5/CyFlash.c **** 
 647:.\Generated_Source\PSoC5/CyFlash.c **** 
 648:.\Generated_Source\PSoC5/CyFlash.c **** /*******************************************************************************
 649:.\Generated_Source\PSoC5/CyFlash.c **** * Function Name: CyEEPROM_ReadReserve
 650:.\Generated_Source\PSoC5/CyFlash.c **** ********************************************************************************
 651:.\Generated_Source\PSoC5/CyFlash.c **** *
 652:.\Generated_Source\PSoC5/CyFlash.c **** * Summary:
 653:.\Generated_Source\PSoC5/CyFlash.c **** *  Request access to the EEPROM for reading and wait until access is available.
 654:.\Generated_Source\PSoC5/CyFlash.c **** *
 655:.\Generated_Source\PSoC5/CyFlash.c **** * Parameters:
 656:.\Generated_Source\PSoC5/CyFlash.c **** *  None
 657:.\Generated_Source\PSoC5/CyFlash.c **** *
 658:.\Generated_Source\PSoC5/CyFlash.c **** * Return:
 659:.\Generated_Source\PSoC5/CyFlash.c **** *  None
 660:.\Generated_Source\PSoC5/CyFlash.c **** *
ARM GAS  C:\Users\CHUCK~1.ERH\AppData\Local\Temp\ccyUD26b.s 			page 25


 661:.\Generated_Source\PSoC5/CyFlash.c **** *******************************************************************************/
 662:.\Generated_Source\PSoC5/CyFlash.c **** void CyEEPROM_ReadReserve(void) 
 663:.\Generated_Source\PSoC5/CyFlash.c **** {
 652              		.loc 1 663 0
 653              		.cfi_startproc
 654              		@ args = 0, pretend = 0, frame = 0
 655              		@ frame_needed = 0, uses_anonymous_args = 0
 656              		@ link register save eliminated.
 664:.\Generated_Source\PSoC5/CyFlash.c ****     /* Make a request for PHUB to have access */
 665:.\Generated_Source\PSoC5/CyFlash.c ****     *CY_FLASH_EE_SCR_PTR |= CY_FLASH_EE_SCR_AHB_EE_REQ;
 657              		.loc 1 665 0
 658 0000 064B     		ldr	r3, .L94
 659 0002 1A78     		ldrb	r2, [r3, #0]	@ zero_extendqisi2
 660 0004 42F00100 		orr	r0, r2, #1
 661 0008 1870     		strb	r0, [r3, #0]
 662              	.L89:
 666:.\Generated_Source\PSoC5/CyFlash.c **** 
 667:.\Generated_Source\PSoC5/CyFlash.c ****     while (0u == (*CY_FLASH_EE_SCR_PTR & CY_FLASH_EE_SCR_AHB_EE_ACK))
 663              		.loc 1 667 0 discriminator 1
 664 000a 0449     		ldr	r1, .L94
 665 000c 0B78     		ldrb	r3, [r1, #0]	@ zero_extendqisi2
 666 000e 03F00202 		and	r2, r3, #2
 667 0012 D0B2     		uxtb	r0, r2
 668 0014 0028     		cmp	r0, #0
 669 0016 F8D0     		beq	.L89
 668:.\Generated_Source\PSoC5/CyFlash.c ****     {
 669:.\Generated_Source\PSoC5/CyFlash.c ****         /* Wait for acknowledgement from PHUB */
 670:.\Generated_Source\PSoC5/CyFlash.c ****     }
 671:.\Generated_Source\PSoC5/CyFlash.c **** }
 670              		.loc 1 671 0
 671 0018 7047     		bx	lr
 672              	.L95:
 673 001a 00BF     		.align	2
 674              	.L94:
 675 001c 02470040 		.word	1073760002
 676              		.cfi_endproc
 677              	.LFE10:
 678              		.size	CyEEPROM_ReadReserve, .-CyEEPROM_ReadReserve
 679              		.section	.text.CyEEPROM_ReadRelease,"ax",%progbits
 680              		.align	1
 681              		.global	CyEEPROM_ReadRelease
 682              		.thumb
 683              		.thumb_func
 684              		.type	CyEEPROM_ReadRelease, %function
 685              	CyEEPROM_ReadRelease:
 686              	.LFB11:
 672:.\Generated_Source\PSoC5/CyFlash.c **** 
 673:.\Generated_Source\PSoC5/CyFlash.c **** 
 674:.\Generated_Source\PSoC5/CyFlash.c **** /*******************************************************************************
 675:.\Generated_Source\PSoC5/CyFlash.c **** * Function Name: CyEEPROM_ReadRelease
 676:.\Generated_Source\PSoC5/CyFlash.c **** ********************************************************************************
 677:.\Generated_Source\PSoC5/CyFlash.c **** *
 678:.\Generated_Source\PSoC5/CyFlash.c **** * Summary:
 679:.\Generated_Source\PSoC5/CyFlash.c **** *  Release the read reservation of the EEPROM.
 680:.\Generated_Source\PSoC5/CyFlash.c **** *
 681:.\Generated_Source\PSoC5/CyFlash.c **** * Parameters:
 682:.\Generated_Source\PSoC5/CyFlash.c **** *  None
ARM GAS  C:\Users\CHUCK~1.ERH\AppData\Local\Temp\ccyUD26b.s 			page 26


 683:.\Generated_Source\PSoC5/CyFlash.c **** *
 684:.\Generated_Source\PSoC5/CyFlash.c **** * Return:
 685:.\Generated_Source\PSoC5/CyFlash.c **** *  None
 686:.\Generated_Source\PSoC5/CyFlash.c **** *
 687:.\Generated_Source\PSoC5/CyFlash.c **** *******************************************************************************/
 688:.\Generated_Source\PSoC5/CyFlash.c **** void CyEEPROM_ReadRelease(void) 
 689:.\Generated_Source\PSoC5/CyFlash.c **** {
 687              		.loc 1 689 0
 688              		.cfi_startproc
 689              		@ args = 0, pretend = 0, frame = 0
 690              		@ frame_needed = 0, uses_anonymous_args = 0
 691              		@ link register save eliminated.
 690:.\Generated_Source\PSoC5/CyFlash.c ****     *CY_FLASH_EE_SCR_PTR |= 0x00u;
 692              		.loc 1 690 0
 693 0000 014B     		ldr	r3, .L97
 694 0002 1A78     		ldrb	r2, [r3, #0]	@ zero_extendqisi2
 695 0004 1A70     		strb	r2, [r3, #0]
 696 0006 7047     		bx	lr
 697              	.L98:
 698              		.align	2
 699              	.L97:
 700 0008 02470040 		.word	1073760002
 701              		.cfi_endproc
 702              	.LFE11:
 703              		.size	CyEEPROM_ReadRelease, .-CyEEPROM_ReadRelease
 704              		.comm	dieTemperature,2,1
 705              		.bss
 706              		.align	2
 707              		.set	.LANCHOR0,. + 0
 708              		.type	rowBuffer, %object
 709              		.size	rowBuffer, 4
 710              	rowBuffer:
 711 0000 00000000 		.space	4
 712              		.text
 713              	.Letext0:
 714              		.file 2 ".\\Generated_Source\\PSoC5\\cytypes.h"
 715              		.file 3 ".\\Generated_Source\\PSoC5\\CySpc.h"
 716              		.file 4 ".\\Generated_Source\\PSoC5\\CyLib.h"