ARM GAS  C:\Users\CHUCK~1.ERH\AppData\Local\Temp\ccby6rnL.s 			page 1


   1              		.syntax unified
   2              		.cpu cortex-m3
   3              		.fpu softvfp
   4              		.eabi_attribute 20, 1
   5              		.eabi_attribute 21, 1
   6              		.eabi_attribute 23, 3
   7              		.eabi_attribute 24, 1
   8              		.eabi_attribute 25, 1
   9              		.eabi_attribute 26, 1
  10              		.eabi_attribute 30, 4
  11              		.eabi_attribute 34, 1
  12              		.eabi_attribute 18, 4
  13              		.thumb
  14              		.file	"ETH0.c"
  15              		.text
  16              	.Ltext0:
  17              		.cfi_sections	.debug_frame
  18              		.section	.text.ETH0_W51_Write,"ax",%progbits
  19              		.align	1
  20              		.global	ETH0_W51_Write
  21              		.thumb
  22              		.thumb_func
  23              		.type	ETH0_W51_Write, %function
  24              	ETH0_W51_Write:
  25              	.LFB1:
  26              		.file 1 ".\\Generated_Source\\PSoC5\\ETH0.c"
   1:.\Generated_Source\PSoC5/ETH0.c **** /**
   2:.\Generated_Source\PSoC5/ETH0.c ****  * \addtogroup w5100
   3:.\Generated_Source\PSoC5/ETH0.c ****  * @{
   4:.\Generated_Source\PSoC5/ETH0.c ****  */
   5:.\Generated_Source\PSoC5/ETH0.c **** 
   6:.\Generated_Source\PSoC5/ETH0.c **** /**
   7:.\Generated_Source\PSoC5/ETH0.c ****  * \file Driver implementation for interfacing with the W5100 device
   8:.\Generated_Source\PSoC5/ETH0.c ****  * \author Chuck Erhardt (chuck@e2forlife.com)
   9:.\Generated_Source\PSoC5/ETH0.c ****  *
  10:.\Generated_Source\PSoC5/ETH0.c ****  * This file contains the main driver implementation for control
  11:.\Generated_Source\PSoC5/ETH0.c ****  * of the W5100 device.
  12:.\Generated_Source\PSoC5/ETH0.c **** */
  13:.\Generated_Source\PSoC5/ETH0.c **** 
  14:.\Generated_Source\PSoC5/ETH0.c **** /* Cypress library includes */
  15:.\Generated_Source\PSoC5/ETH0.c **** #include <cytypes.h>
  16:.\Generated_Source\PSoC5/ETH0.c **** #include <cylib.h>
  17:.\Generated_Source\PSoC5/ETH0.c **** 
  18:.\Generated_Source\PSoC5/ETH0.c **** /*  include functions and types for the driver */
  19:.\Generated_Source\PSoC5/ETH0.c **** #include "ETH0.h"
  20:.\Generated_Source\PSoC5/ETH0.c **** /* include the serial interface functions */
  21:.\Generated_Source\PSoC5/ETH0.c **** #include <SPI0.h>
  22:.\Generated_Source\PSoC5/ETH0.c **** 
  23:.\Generated_Source\PSoC5/ETH0.c **** extern uint8 SPI0_initVar;
  24:.\Generated_Source\PSoC5/ETH0.c **** 
  25:.\Generated_Source\PSoC5/ETH0.c **** typedef struct
  26:.\Generated_Source\PSoC5/ETH0.c **** {
  27:.\Generated_Source\PSoC5/ETH0.c **** 	uint8  Protocol;
  28:.\Generated_Source\PSoC5/ETH0.c **** 	uint8  SocketFlags;
  29:.\Generated_Source\PSoC5/ETH0.c **** 	uint16 SourcePort;
  30:.\Generated_Source\PSoC5/ETH0.c **** 	uint8  ServerFlag;
  31:.\Generated_Source\PSoC5/ETH0.c **** } ETH0_SOCKET;
ARM GAS  C:\Users\CHUCK~1.ERH\AppData\Local\Temp\ccby6rnL.s 			page 2


  32:.\Generated_Source\PSoC5/ETH0.c **** 
  33:.\Generated_Source\PSoC5/ETH0.c **** #define ETH0_SOCKET_TX_BASE(s)    ( 0x4000 + (s<<15) )
  34:.\Generated_Source\PSoC5/ETH0.c **** #define ETH0_SOCKET_RX_BASE(s)    ( 0x6000 + (s<<15) )
  35:.\Generated_Source\PSoC5/ETH0.c **** 
  36:.\Generated_Source\PSoC5/ETH0.c **** static ETH0_SOCKET ETH0_SocketConfig[4];
  37:.\Generated_Source\PSoC5/ETH0.c **** static uint32 ETH0_SubnetMask;
  38:.\Generated_Source\PSoC5/ETH0.c **** 
  39:.\Generated_Source\PSoC5/ETH0.c **** static uint8 ETH0_MAC[6] = { 0x00, 0xDE, 0xAD, 0xBE, 0xEF, 0x00 };
  40:.\Generated_Source\PSoC5/ETH0.c **** 
  41:.\Generated_Source\PSoC5/ETH0.c **** 
  42:.\Generated_Source\PSoC5/ETH0.c **** /* ======================================================================== */
  43:.\Generated_Source\PSoC5/ETH0.c **** /* Generic SPI Functions */
  44:.\Generated_Source\PSoC5/ETH0.c **** /*
  45:.\Generated_Source\PSoC5/ETH0.c ****  * NOTE: when using the SPIM, there must be a buffer length of at least 4
  46:.\Generated_Source\PSoC5/ETH0.c ****  * bytes to allow the transfer/receive cycle for each read/write operation
  47:.\Generated_Source\PSoC5/ETH0.c ****  * to be contained within the FIFO buffer.
  48:.\Generated_Source\PSoC5/ETH0.c ****  */
  49:.\Generated_Source\PSoC5/ETH0.c **** #if !defined(CY_SCB_SPI0_H)
  50:.\Generated_Source\PSoC5/ETH0.c **** /* ------------------------------------------------------------------------ */
  51:.\Generated_Source\PSoC5/ETH0.c **** /**
  52:.\Generated_Source\PSoC5/ETH0.c ****  * \brief Select the active SCB chip select connected to the W51
  53:.\Generated_Source\PSoC5/ETH0.c ****  *
  54:.\Generated_Source\PSoC5/ETH0.c ****  * this fucntion will set the active SS line within the SCB to select and
  55:.\Generated_Source\PSoC5/ETH0.c ****  * communicate with the W5100 device.
  56:.\Generated_Source\PSoC5/ETH0.c ****  * \note this functions requires that the device chip select is originating
  57:.\Generated_Source\PSoC5/ETH0.c ****  *  from the SPI device.
  58:.\Generated_Source\PSoC5/ETH0.c ****  */
  59:.\Generated_Source\PSoC5/ETH0.c **** static void ETH0_W51_Select( void )
  60:.\Generated_Source\PSoC5/ETH0.c **** {
  61:.\Generated_Source\PSoC5/ETH0.c **** 	/*
  62:.\Generated_Source\PSoC5/ETH0.c **** 	 * User code for setting the chip select enable.  This is called once
  63:.\Generated_Source\PSoC5/ETH0.c **** 	 * at the beginning of each tranfer to/from the W5100, so we recommend
  64:.\Generated_Source\PSoC5/ETH0.c **** 	 * either doing nothing (SPIM SS straight out), or to switch the demux
  65:.\Generated_Source\PSoC5/ETH0.c **** 	 * component to select the correct output for the SS routing.  This
  66:.\Generated_Source\PSoC5/ETH0.c **** 	 * should probably not drive a pin directly since there is no return
  67:.\Generated_Source\PSoC5/ETH0.c **** 	 * call from the driver that would allow an enable/disable type of
  68:.\Generated_Source\PSoC5/ETH0.c **** 	 * implementation for CSN control.
  69:.\Generated_Source\PSoC5/ETH0.c **** 	 */
  70:.\Generated_Source\PSoC5/ETH0.c **** 	/* `#START CHIP_SELECT_GENERATION` */
  71:.\Generated_Source\PSoC5/ETH0.c **** 
  72:.\Generated_Source\PSoC5/ETH0.c **** 	/* `#END` */
  73:.\Generated_Source\PSoC5/ETH0.c **** }
  74:.\Generated_Source\PSoC5/ETH0.c **** /* ------------------------------------------------------------------------ */
  75:.\Generated_Source\PSoC5/ETH0.c **** /**
  76:.\Generated_Source\PSoC5/ETH0.c ****  * \brief write Data to the W5100 at the specified address
  77:.\Generated_Source\PSoC5/ETH0.c ****  * \param addr Address of register or memory buffer
  78:.\Generated_Source\PSoC5/ETH0.c ****  * \param dat Data to write to the device
  79:.\Generated_Source\PSoC5/ETH0.c ****  *
  80:.\Generated_Source\PSoC5/ETH0.c ****  * This function will send the WRITE opcode, address and data to the W5100
  81:.\Generated_Source\PSoC5/ETH0.c ****  * in order to write the data to the specified register.
  82:.\Generated_Source\PSoC5/ETH0.c ****  */
  83:.\Generated_Source\PSoC5/ETH0.c **** void ETH0_W51_Write(uint16 addr, uint8 dat)
  84:.\Generated_Source\PSoC5/ETH0.c **** {
  27              		.loc 1 84 0
  28              		.cfi_startproc
  29              		@ args = 0, pretend = 0, frame = 0
  30              		@ frame_needed = 0, uses_anonymous_args = 0
ARM GAS  C:\Users\CHUCK~1.ERH\AppData\Local\Temp\ccby6rnL.s 			page 3


  31              	.LVL0:
  32 0000 38B5     		push	{r3, r4, r5, lr}
  33              	.LCFI0:
  34              		.cfi_def_cfa_offset 16
  35              		.cfi_offset 3, -16
  36              		.cfi_offset 4, -12
  37              		.cfi_offset 5, -8
  38              		.cfi_offset 14, -4
  39              		.loc 1 84 0
  40 0002 0D46     		mov	r5, r1
  41 0004 0446     		mov	r4, r0
  85:.\Generated_Source\PSoC5/ETH0.c **** 	/* Using internal device SS generation */
  86:.\Generated_Source\PSoC5/ETH0.c **** 	ETH0_W51_Select();
  87:.\Generated_Source\PSoC5/ETH0.c **** 	/*
  88:.\Generated_Source\PSoC5/ETH0.c **** 	 * The first thing to do is to clear the Rx Buffer of any lingering
  89:.\Generated_Source\PSoC5/ETH0.c **** 	 * data left from other transfers.  Then send the data per the W5100
  90:.\Generated_Source\PSoC5/ETH0.c **** 	 * datasheet p.62
  91:.\Generated_Source\PSoC5/ETH0.c **** 	 */
  92:.\Generated_Source\PSoC5/ETH0.c **** 	SPI0_ClearRxBuffer();
  42              		.loc 1 92 0
  43 0006 FFF7FEFF 		bl	SPI0_ClearRxBuffer
  44              	.LVL1:
  93:.\Generated_Source\PSoC5/ETH0.c **** 	/* Begin transfer of data to device */
  94:.\Generated_Source\PSoC5/ETH0.c **** 	SPI0_WriteTxData(ETH0_WRITE_OP);
  45              		.loc 1 94 0
  46 000a F020     		movs	r0, #240
  47 000c FFF7FEFF 		bl	SPI0_WriteTxData
  48              	.LVL2:
  95:.\Generated_Source\PSoC5/ETH0.c **** 	SPI0_WriteTxData((addr>>8)&0x00FF);
  49              		.loc 1 95 0
  50 0010 200A     		lsrs	r0, r4, #8
  51 0012 FFF7FEFF 		bl	SPI0_WriteTxData
  52              	.LVL3:
  96:.\Generated_Source\PSoC5/ETH0.c **** 	SPI0_WriteTxData(addr&0x00FF);
  53              		.loc 1 96 0
  54 0016 E0B2     		uxtb	r0, r4
  55 0018 FFF7FEFF 		bl	SPI0_WriteTxData
  56              	.LVL4:
  97:.\Generated_Source\PSoC5/ETH0.c **** 	SPI0_WriteTxData(dat);
  57              		.loc 1 97 0
  58 001c 2846     		mov	r0, r5
  59 001e FFF7FEFF 		bl	SPI0_WriteTxData
  60              	.LVL5:
  98:.\Generated_Source\PSoC5/ETH0.c **** 	/* Wait for operation to end */
  99:.\Generated_Source\PSoC5/ETH0.c **** 	CyDelayUs(2); /* At 6 MBPS it will take approx 6 uS to send the data */
  61              		.loc 1 99 0
  62 0022 0220     		movs	r0, #2
 100:.\Generated_Source\PSoC5/ETH0.c **** 
 101:.\Generated_Source\PSoC5/ETH0.c **** }
  63              		.loc 1 101 0
  64 0024 BDE83840 		pop	{r3, r4, r5, lr}
  99:.\Generated_Source\PSoC5/ETH0.c **** 	CyDelayUs(2); /* At 6 MBPS it will take approx 6 uS to send the data */
  65              		.loc 1 99 0
  66 0028 FFF7FEBF 		b	CyDelayUs
  67              	.LVL6:
  68              		.cfi_endproc
  69              	.LFE1:
ARM GAS  C:\Users\CHUCK~1.ERH\AppData\Local\Temp\ccby6rnL.s 			page 4


  70              		.size	ETH0_W51_Write, .-ETH0_W51_Write
  71              		.section	.text.ETH0_W51_Write16,"ax",%progbits
  72              		.align	1
  73              		.thumb
  74              		.thumb_func
  75              		.type	ETH0_W51_Write16, %function
  76              	ETH0_W51_Write16:
  77              	.LFB7:
 102:.\Generated_Source\PSoC5/ETH0.c **** 
 103:.\Generated_Source\PSoC5/ETH0.c **** /* ------------------------------------------------------------------------ */
 104:.\Generated_Source\PSoC5/ETH0.c **** /**
 105:.\Generated_Source\PSoC5/ETH0.c ****  * \brief Read data from the W5100 at the spsecified address
 106:.\Generated_Source\PSoC5/ETH0.c ****  * \param addr Address from which to read
 107:.\Generated_Source\PSoC5/ETH0.c ****  * \returns the data read from the address
 108:.\Generated_Source\PSoC5/ETH0.c ****  *
 109:.\Generated_Source\PSoC5/ETH0.c ****  * this fucntion will access a W5100 memory location and read the contents
 110:.\Generated_Source\PSoC5/ETH0.c ****  * using the serial protocol specified on P.61 of the datasheet.
 111:.\Generated_Source\PSoC5/ETH0.c ****  */
 112:.\Generated_Source\PSoC5/ETH0.c **** uint8 ETH0_W51_Read(uint16 addr)
 113:.\Generated_Source\PSoC5/ETH0.c **** {
 114:.\Generated_Source\PSoC5/ETH0.c **** 	uint32 dat;
 115:.\Generated_Source\PSoC5/ETH0.c **** 	uint32 count;
 116:.\Generated_Source\PSoC5/ETH0.c **** 	
 117:.\Generated_Source\PSoC5/ETH0.c **** 	/* Using internal device SS generation */
 118:.\Generated_Source\PSoC5/ETH0.c **** 	ETH0_W51_Select();
 119:.\Generated_Source\PSoC5/ETH0.c **** 	/*
 120:.\Generated_Source\PSoC5/ETH0.c **** 	 * First, clear the Rx Buffer of any waiting data.  Then begin the
 121:.\Generated_Source\PSoC5/ETH0.c **** 	 * read operation by sending the op code, followed byte the address
 122:.\Generated_Source\PSoC5/ETH0.c **** 	 * from which the read will be executed, then send a dummy byte
 123:.\Generated_Source\PSoC5/ETH0.c **** 	 * of zeros to read the data from the device.
 124:.\Generated_Source\PSoC5/ETH0.c **** 	 */
 125:.\Generated_Source\PSoC5/ETH0.c **** 	SPI0_ClearRxBuffer();
 126:.\Generated_Source\PSoC5/ETH0.c **** 	/* Begin data read */
 127:.\Generated_Source\PSoC5/ETH0.c **** 	SPI0_WriteTxData(ETH0_READ_OP);
 128:.\Generated_Source\PSoC5/ETH0.c **** 	SPI0_WriteTxData(addr>>8);
 129:.\Generated_Source\PSoC5/ETH0.c **** 	SPI0_WriteTxData(addr&0x00FF);
 130:.\Generated_Source\PSoC5/ETH0.c **** 	SPI0_WriteTxData( 0 );
 131:.\Generated_Source\PSoC5/ETH0.c **** 	/* Wait for operations to complete. */
 132:.\Generated_Source\PSoC5/ETH0.c **** 	CyDelayUs( 2 );
 133:.\Generated_Source\PSoC5/ETH0.c **** 	count = SPI0_GetRxBufferSize();
 134:.\Generated_Source\PSoC5/ETH0.c **** 	while( count > 0 )
 135:.\Generated_Source\PSoC5/ETH0.c **** 	{
 136:.\Generated_Source\PSoC5/ETH0.c **** 		dat = SPI0_ReadRxData(); 
 137:.\Generated_Source\PSoC5/ETH0.c **** 		count = SPI0_GetRxBufferSize();
 138:.\Generated_Source\PSoC5/ETH0.c **** 	}
 139:.\Generated_Source\PSoC5/ETH0.c **** 	
 140:.\Generated_Source\PSoC5/ETH0.c **** 	return( dat&0xFF );
 141:.\Generated_Source\PSoC5/ETH0.c **** }
 142:.\Generated_Source\PSoC5/ETH0.c **** /* ======================================================================== */
 143:.\Generated_Source\PSoC5/ETH0.c **** /* SCB Specific Functions */
 144:.\Generated_Source\PSoC5/ETH0.c **** #else
 145:.\Generated_Source\PSoC5/ETH0.c **** /* include SPI function header for the SCB */
 146:.\Generated_Source\PSoC5/ETH0.c **** #include <SPI0_SPI_UART.h>
 147:.\Generated_Source\PSoC5/ETH0.c **** 	
 148:.\Generated_Source\PSoC5/ETH0.c **** /* ------------------------------------------------------------------------ */
 149:.\Generated_Source\PSoC5/ETH0.c **** /**
 150:.\Generated_Source\PSoC5/ETH0.c ****  * \brief Select the active SCB chip select connected to the W51
ARM GAS  C:\Users\CHUCK~1.ERH\AppData\Local\Temp\ccby6rnL.s 			page 5


 151:.\Generated_Source\PSoC5/ETH0.c ****  *
 152:.\Generated_Source\PSoC5/ETH0.c ****  * this fucntion will set the active SS line within the SCB to select and
 153:.\Generated_Source\PSoC5/ETH0.c ****  * communicate with the W5100 device.
 154:.\Generated_Source\PSoC5/ETH0.c ****  */
 155:.\Generated_Source\PSoC5/ETH0.c **** static void ETH0_W51_Select( void )
 156:.\Generated_Source\PSoC5/ETH0.c **** {
 157:.\Generated_Source\PSoC5/ETH0.c **** #if (0 == 0)
 158:.\Generated_Source\PSoC5/ETH0.c **** 	SPI0_SpiSetActiveSlaveSelect( SPI0_SPIM_ACTIVE_SS0 );
 159:.\Generated_Source\PSoC5/ETH0.c **** #elif (0 == 1)
 160:.\Generated_Source\PSoC5/ETH0.c **** 	SPI0_SpiSetActiveSlaveSelect( SPI0_SPIM_ACTIVE_SS1 );
 161:.\Generated_Source\PSoC5/ETH0.c **** #elif (0 == 2)
 162:.\Generated_Source\PSoC5/ETH0.c **** 	SPI0_SpiSetActiveSlaveSelect( SPI0_SPIM_ACTIVE_SS2 );
 163:.\Generated_Source\PSoC5/ETH0.c **** #elif (0 == 3)
 164:.\Generated_Source\PSoC5/ETH0.c **** 	SPI0_SpiSetActiveSlaveSelect( SPI0_SPIM_ACTIVE_SS3 );
 165:.\Generated_Source\PSoC5/ETH0.c **** #else
 166:.\Generated_Source\PSoC5/ETH0.c **** 		SPI0_SpiSetActiveSlaveSelect(0);
 167:.\Generated_Source\PSoC5/ETH0.c **** #endif
 168:.\Generated_Source\PSoC5/ETH0.c **** }
 169:.\Generated_Source\PSoC5/ETH0.c **** /* ------------------------------------------------------------------------ */
 170:.\Generated_Source\PSoC5/ETH0.c **** /**
 171:.\Generated_Source\PSoC5/ETH0.c ****  * \brief write Data to the W5100 at the specified address
 172:.\Generated_Source\PSoC5/ETH0.c ****  * \param addr Address of register or memory buffer
 173:.\Generated_Source\PSoC5/ETH0.c ****  * \param dat Data to write to the device
 174:.\Generated_Source\PSoC5/ETH0.c ****  *
 175:.\Generated_Source\PSoC5/ETH0.c ****  * This function will send the WRITE opcode, address and data to the W5100
 176:.\Generated_Source\PSoC5/ETH0.c ****  * in order to write the data to the specified register.
 177:.\Generated_Source\PSoC5/ETH0.c ****  */
 178:.\Generated_Source\PSoC5/ETH0.c **** void ETH0_W51_Write(uint16 addr, uint8 dat)
 179:.\Generated_Source\PSoC5/ETH0.c **** {
 180:.\Generated_Source\PSoC5/ETH0.c **** 	/* Using internal device SS generation */
 181:.\Generated_Source\PSoC5/ETH0.c **** 	ETH0_W51_Select();
 182:.\Generated_Source\PSoC5/ETH0.c **** 	/*
 183:.\Generated_Source\PSoC5/ETH0.c **** 	 * The first thing to do is to clear the Rx Buffer of any lingering
 184:.\Generated_Source\PSoC5/ETH0.c **** 	 * data left from other transfers.  Then send the data per the W5100
 185:.\Generated_Source\PSoC5/ETH0.c **** 	 * datasheet p.62
 186:.\Generated_Source\PSoC5/ETH0.c **** 	 */
 187:.\Generated_Source\PSoC5/ETH0.c **** 	SPI0_SpiUartClearRxBuffer();
 188:.\Generated_Source\PSoC5/ETH0.c **** 	/* Begin transfer of data to device */
 189:.\Generated_Source\PSoC5/ETH0.c **** 	SPI0_SpiUartWriteTxData(ETH0_WRITE_OP);
 190:.\Generated_Source\PSoC5/ETH0.c **** 	SPI0_SpiUartWriteTxData((addr>>8)&0x00FF);
 191:.\Generated_Source\PSoC5/ETH0.c **** 	SPI0_SpiUartWriteTxData(addr&0x00FF);
 192:.\Generated_Source\PSoC5/ETH0.c **** 	SPI0_SpiUartWriteTxData(dat);
 193:.\Generated_Source\PSoC5/ETH0.c **** 	/* Wait for operation to end */
 194:.\Generated_Source\PSoC5/ETH0.c **** 	CyDelayUs(2); /* At 6 MBPS it will take approx 6 uS to send the data */
 195:.\Generated_Source\PSoC5/ETH0.c **** }
 196:.\Generated_Source\PSoC5/ETH0.c **** /* ------------------------------------------------------------------------ */
 197:.\Generated_Source\PSoC5/ETH0.c **** /**
 198:.\Generated_Source\PSoC5/ETH0.c ****  * \brief Read data from the W5100 at the spsecified address
 199:.\Generated_Source\PSoC5/ETH0.c ****  * \param addr Address from which to read
 200:.\Generated_Source\PSoC5/ETH0.c ****  * \returns the data read from the address
 201:.\Generated_Source\PSoC5/ETH0.c ****  *
 202:.\Generated_Source\PSoC5/ETH0.c ****  * this fucntion will access a W5100 memory location and read the contents
 203:.\Generated_Source\PSoC5/ETH0.c ****  * using the serial protocol specified on P.61 of the datasheet.
 204:.\Generated_Source\PSoC5/ETH0.c ****  */
 205:.\Generated_Source\PSoC5/ETH0.c **** uint8 ETH0_W51_Read(uint16 addr)
 206:.\Generated_Source\PSoC5/ETH0.c **** {
 207:.\Generated_Source\PSoC5/ETH0.c **** 	uint32 dat;
ARM GAS  C:\Users\CHUCK~1.ERH\AppData\Local\Temp\ccby6rnL.s 			page 6


 208:.\Generated_Source\PSoC5/ETH0.c **** 	uint32 count;
 209:.\Generated_Source\PSoC5/ETH0.c **** 	
 210:.\Generated_Source\PSoC5/ETH0.c **** 	/* Using internal device SS generation */
 211:.\Generated_Source\PSoC5/ETH0.c **** 	ETH0_W51_Select();
 212:.\Generated_Source\PSoC5/ETH0.c **** 	/*
 213:.\Generated_Source\PSoC5/ETH0.c **** 	 * First, clear the Rx Buffer of any waiting data.  Then begin the
 214:.\Generated_Source\PSoC5/ETH0.c **** 	 * read operation by sending the op code, followed byte the address
 215:.\Generated_Source\PSoC5/ETH0.c **** 	 * from which the read will be executed, then send a dummy byte
 216:.\Generated_Source\PSoC5/ETH0.c **** 	 * of zeros to read the data from the device.
 217:.\Generated_Source\PSoC5/ETH0.c **** 	 */
 218:.\Generated_Source\PSoC5/ETH0.c **** 	SPI0_SpiUartClearRxBuffer();
 219:.\Generated_Source\PSoC5/ETH0.c **** 	/* Begin data read */
 220:.\Generated_Source\PSoC5/ETH0.c **** 	SPI0_SpiUartWriteTxData(ETH0_READ_OP);
 221:.\Generated_Source\PSoC5/ETH0.c **** 	SPI0_SpiUartWriteTxData(addr>>8);
 222:.\Generated_Source\PSoC5/ETH0.c **** 	SPI0_SpiUartWriteTxData(addr&0x00FF);
 223:.\Generated_Source\PSoC5/ETH0.c **** 	SPI0_SpiUartWriteTxData( 0 );
 224:.\Generated_Source\PSoC5/ETH0.c **** 	/* Wait for operations to complete. */
 225:.\Generated_Source\PSoC5/ETH0.c **** 	CyDelayUs( 2 );
 226:.\Generated_Source\PSoC5/ETH0.c **** 	count = SPI0_SpiUartGetRxBufferSize();
 227:.\Generated_Source\PSoC5/ETH0.c **** 	while( count > 0 )
 228:.\Generated_Source\PSoC5/ETH0.c **** 	{
 229:.\Generated_Source\PSoC5/ETH0.c **** 		dat = SPI0_SpiUartReadRxData(); 
 230:.\Generated_Source\PSoC5/ETH0.c **** 		count = SPI0_SpiUartGetRxBufferSize();
 231:.\Generated_Source\PSoC5/ETH0.c **** 	}
 232:.\Generated_Source\PSoC5/ETH0.c **** 	
 233:.\Generated_Source\PSoC5/ETH0.c **** 	return( dat&0xFF );
 234:.\Generated_Source\PSoC5/ETH0.c **** }
 235:.\Generated_Source\PSoC5/ETH0.c **** 
 236:.\Generated_Source\PSoC5/ETH0.c **** #endif
 237:.\Generated_Source\PSoC5/ETH0.c **** 
 238:.\Generated_Source\PSoC5/ETH0.c **** /* ======================================================================== */
 239:.\Generated_Source\PSoC5/ETH0.c **** /* W5100 Register Access Primitaves */
 240:.\Generated_Source\PSoC5/ETH0.c **** #if (1)
 241:.\Generated_Source\PSoC5/ETH0.c **** /* ------------------------------------------------------------------------ */
 242:.\Generated_Source\PSoC5/ETH0.c **** /**
 243:.\Generated_Source\PSoC5/ETH0.c ****  * \brief Write a MAC (hardware) address to a group of registers
 244:.\Generated_Source\PSoC5/ETH0.c ****  * \param addr The starting address of the registers/memory for the MAC address
 245:.\Generated_Source\PSoC5/ETH0.c ****  * \param *mac pointer to the array of bytes holding the MAC address.
 246:.\Generated_Source\PSoC5/ETH0.c ****  */
 247:.\Generated_Source\PSoC5/ETH0.c **** static void ETH0_W51_SetMAC(uint16 addr, uint8 *mac)
 248:.\Generated_Source\PSoC5/ETH0.c **** {
 249:.\Generated_Source\PSoC5/ETH0.c **** 	uint32 index;
 250:.\Generated_Source\PSoC5/ETH0.c **** 	
 251:.\Generated_Source\PSoC5/ETH0.c **** 	for(index = 0;index<6;++index)
 252:.\Generated_Source\PSoC5/ETH0.c **** 	{
 253:.\Generated_Source\PSoC5/ETH0.c **** 		ETH0_W51_Write(addr+index,mac[index]);
 254:.\Generated_Source\PSoC5/ETH0.c **** 	}
 255:.\Generated_Source\PSoC5/ETH0.c **** }
 256:.\Generated_Source\PSoC5/ETH0.c **** /* ------------------------------------------------------------------------ */
 257:.\Generated_Source\PSoC5/ETH0.c **** /**
 258:.\Generated_Source\PSoC5/ETH0.c ****  * \brief Read a MAC (hardware) address from a set of registers.
 259:.\Generated_Source\PSoC5/ETH0.c ****  * \param addr the address from which the data will be read
 260:.\Generated_Source\PSoC5/ETH0.c ****  * \param *mac pointer to the array of bytes to hold the output mac address.
 261:.\Generated_Source\PSoC5/ETH0.c ****  */
 262:.\Generated_Source\PSoC5/ETH0.c **** static void ETH0_W51_GetMAC( uint16 addr, uint8* mac )
 263:.\Generated_Source\PSoC5/ETH0.c **** {
 264:.\Generated_Source\PSoC5/ETH0.c **** 	uint32 index;
ARM GAS  C:\Users\CHUCK~1.ERH\AppData\Local\Temp\ccby6rnL.s 			page 7


 265:.\Generated_Source\PSoC5/ETH0.c **** 	for(index=0;index<6;++index) {
 266:.\Generated_Source\PSoC5/ETH0.c **** 		mac[index] = ETH0_W51_Read(addr+index);
 267:.\Generated_Source\PSoC5/ETH0.c **** 	}
 268:.\Generated_Source\PSoC5/ETH0.c **** }
 269:.\Generated_Source\PSoC5/ETH0.c **** /* ------------------------------------------------------------------------ */
 270:.\Generated_Source\PSoC5/ETH0.c **** /**
 271:.\Generated_Source\PSoC5/ETH0.c ****  * \brief Write an IPv4 address to the device.
 272:.\Generated_Source\PSoC5/ETH0.c ****  * \param addr the address of the memory/registers to write the IPv4 Address
 273:.\Generated_Source\PSoC5/ETH0.c ****  * \param ip the IP address to write
 274:.\Generated_Source\PSoC5/ETH0.c ****  */
 275:.\Generated_Source\PSoC5/ETH0.c **** static void ETH0_W51_SetIP( uint16 addr, uint32 ip )
 276:.\Generated_Source\PSoC5/ETH0.c **** {
 277:.\Generated_Source\PSoC5/ETH0.c **** 	uint32 index;
 278:.\Generated_Source\PSoC5/ETH0.c **** 	uint8* buffer;
 279:.\Generated_Source\PSoC5/ETH0.c **** 
 280:.\Generated_Source\PSoC5/ETH0.c **** 	buffer = (uint8*)&ip;
 281:.\Generated_Source\PSoC5/ETH0.c **** 	for(index = 0;index<4;++index) {
 282:.\Generated_Source\PSoC5/ETH0.c **** 		ETH0_W51_Write(addr+index,buffer[index]);
 283:.\Generated_Source\PSoC5/ETH0.c **** 	}
 284:.\Generated_Source\PSoC5/ETH0.c **** }
 285:.\Generated_Source\PSoC5/ETH0.c **** /* ------------------------------------------------------------------------ */
 286:.\Generated_Source\PSoC5/ETH0.c **** /**
 287:.\Generated_Source\PSoC5/ETH0.c ****  * \brief Read an IPv4 address from a set of registers
 288:.\Generated_Source\PSoC5/ETH0.c ****  * \param addr the address from which the IP address will be retrieved.
 289:.\Generated_Source\PSoC5/ETH0.c ****  * \returns the IP address read from the device.
 290:.\Generated_Source\PSoC5/ETH0.c ****  */
 291:.\Generated_Source\PSoC5/ETH0.c **** static uint32 ETH0_W51_GetIP( uint16 addr )
 292:.\Generated_Source\PSoC5/ETH0.c **** {
 293:.\Generated_Source\PSoC5/ETH0.c **** 	uint8 buffer[4];
 294:.\Generated_Source\PSoC5/ETH0.c **** 	int index;
 295:.\Generated_Source\PSoC5/ETH0.c **** 	uint32* ip;
 296:.\Generated_Source\PSoC5/ETH0.c **** 	
 297:.\Generated_Source\PSoC5/ETH0.c **** 	ip = (uint32*) &buffer[0];
 298:.\Generated_Source\PSoC5/ETH0.c **** 	*ip = 0;
 299:.\Generated_Source\PSoC5/ETH0.c **** 	for(index=0;index<4;++index) {
 300:.\Generated_Source\PSoC5/ETH0.c **** 		buffer[index] = ETH0_W51_Read(addr+index);
 301:.\Generated_Source\PSoC5/ETH0.c **** 	}
 302:.\Generated_Source\PSoC5/ETH0.c **** 	return( *ip );
 303:.\Generated_Source\PSoC5/ETH0.c **** }
 304:.\Generated_Source\PSoC5/ETH0.c **** /* ------------------------------------------------------------------------ */
 305:.\Generated_Source\PSoC5/ETH0.c **** /**
 306:.\Generated_Source\PSoC5/ETH0.c ****  * \brief Write a 16-bit word to the device
 307:.\Generated_Source\PSoC5/ETH0.c ****  * \param addr the starting address to which the data will be written
 308:.\Generated_Source\PSoC5/ETH0.c ****  * \param val the 16-bit value to write
 309:.\Generated_Source\PSoC5/ETH0.c ****  */
 310:.\Generated_Source\PSoC5/ETH0.c **** static void ETH0_W51_Write16( uint16 addr, uint16 val )
 311:.\Generated_Source\PSoC5/ETH0.c **** {
  78              		.loc 1 311 0
  79              		.cfi_startproc
  80              		@ args = 0, pretend = 0, frame = 0
  81              		@ frame_needed = 0, uses_anonymous_args = 0
  82              	.LVL7:
  83 0000 38B5     		push	{r3, r4, r5, lr}
  84              	.LCFI1:
  85              		.cfi_def_cfa_offset 16
  86              		.cfi_offset 3, -16
  87              		.cfi_offset 4, -12
ARM GAS  C:\Users\CHUCK~1.ERH\AppData\Local\Temp\ccby6rnL.s 			page 8


  88              		.cfi_offset 5, -8
  89              		.cfi_offset 14, -4
  90              		.loc 1 311 0
  91 0002 0C46     		mov	r4, r1
 312:.\Generated_Source\PSoC5/ETH0.c **** 	ETH0_W51_Write( addr, val>>8);
  92              		.loc 1 312 0
  93 0004 090A     		lsrs	r1, r1, #8
  94              	.LVL8:
 311:.\Generated_Source\PSoC5/ETH0.c **** {
  95              		.loc 1 311 0
  96 0006 0546     		mov	r5, r0
  97              		.loc 1 312 0
  98 0008 FFF7FEFF 		bl	ETH0_W51_Write
  99              	.LVL9:
 313:.\Generated_Source\PSoC5/ETH0.c **** 	ETH0_W51_Write( addr + 1, val&0x00FF);
 100              		.loc 1 313 0
 101 000c 681C     		adds	r0, r5, #1
 102 000e 80B2     		uxth	r0, r0
 103 0010 E1B2     		uxtb	r1, r4
 314:.\Generated_Source\PSoC5/ETH0.c **** }
 104              		.loc 1 314 0
 105 0012 BDE83840 		pop	{r3, r4, r5, lr}
 313:.\Generated_Source\PSoC5/ETH0.c **** 	ETH0_W51_Write( addr + 1, val&0x00FF);
 106              		.loc 1 313 0
 107 0016 FFF7FEBF 		b	ETH0_W51_Write
 108              	.LVL10:
 109              		.cfi_endproc
 110              	.LFE7:
 111              		.size	ETH0_W51_Write16, .-ETH0_W51_Write16
 112              		.section	.text.ETH0_W51_SetIP,"ax",%progbits
 113              		.align	1
 114              		.thumb
 115              		.thumb_func
 116              		.type	ETH0_W51_SetIP, %function
 117              	ETH0_W51_SetIP:
 118              	.LFB5:
 276:.\Generated_Source\PSoC5/ETH0.c **** {
 119              		.loc 1 276 0
 120              		.cfi_startproc
 121              		@ args = 0, pretend = 0, frame = 8
 122              		@ frame_needed = 0, uses_anonymous_args = 0
 123              	.LVL11:
 124 0000 37B5     		push	{r0, r1, r2, r4, r5, lr}
 125              	.LCFI2:
 126              		.cfi_def_cfa_offset 24
 127              		.cfi_offset 0, -24
 128              		.cfi_offset 1, -20
 129              		.cfi_offset 2, -16
 130              		.cfi_offset 4, -12
 131              		.cfi_offset 5, -8
 132              		.cfi_offset 14, -4
 133              	.LVL12:
 276:.\Generated_Source\PSoC5/ETH0.c **** {
 134              		.loc 1 276 0
 135 0002 0546     		mov	r5, r0
 136              	.LVL13:
 137 0004 0191     		str	r1, [sp, #4]
ARM GAS  C:\Users\CHUCK~1.ERH\AppData\Local\Temp\ccby6rnL.s 			page 9


 281:.\Generated_Source\PSoC5/ETH0.c **** 	for(index = 0;index<4;++index) {
 138              		.loc 1 281 0
 139 0006 0024     		movs	r4, #0
 140              	.LVL14:
 141              	.L4:
 275:.\Generated_Source\PSoC5/ETH0.c **** static void ETH0_W51_SetIP( uint16 addr, uint32 ip )
 142              		.loc 1 275 0 discriminator 2
 143 0008 2819     		adds	r0, r5, r4
 282:.\Generated_Source\PSoC5/ETH0.c **** 		ETH0_W51_Write(addr+index,buffer[index]);
 144              		.loc 1 282 0 discriminator 2
 145 000a 01AB     		add	r3, sp, #4
 146              	.LVL15:
 147 000c 195D     		ldrb	r1, [r3, r4]	@ zero_extendqisi2
 148 000e 80B2     		uxth	r0, r0
 281:.\Generated_Source\PSoC5/ETH0.c **** 	for(index = 0;index<4;++index) {
 149              		.loc 1 281 0 discriminator 2
 150 0010 0134     		adds	r4, r4, #1
 282:.\Generated_Source\PSoC5/ETH0.c **** 		ETH0_W51_Write(addr+index,buffer[index]);
 151              		.loc 1 282 0 discriminator 2
 152 0012 FFF7FEFF 		bl	ETH0_W51_Write
 153              	.LVL16:
 281:.\Generated_Source\PSoC5/ETH0.c **** 	for(index = 0;index<4;++index) {
 154              		.loc 1 281 0 discriminator 2
 155 0016 042C     		cmp	r4, #4
 156 0018 F6D1     		bne	.L4
 284:.\Generated_Source\PSoC5/ETH0.c **** }
 157              		.loc 1 284 0
 158 001a 3EBD     		pop	{r1, r2, r3, r4, r5, pc}
 159              		.cfi_endproc
 160              	.LFE5:
 161              		.size	ETH0_W51_SetIP, .-ETH0_W51_SetIP
 162              		.section	.text.ETH0_W51_WriteBlock,"ax",%progbits
 163              		.align	1
 164              		.thumb
 165              		.thumb_func
 166              		.type	ETH0_W51_WriteBlock, %function
 167              	ETH0_W51_WriteBlock:
 168              	.LFB9:
 315:.\Generated_Source\PSoC5/ETH0.c **** /* ------------------------------------------------------------------------ */
 316:.\Generated_Source\PSoC5/ETH0.c **** /**
 317:.\Generated_Source\PSoC5/ETH0.c ****  * \brief Read a 16-bit value from the device
 318:.\Generated_Source\PSoC5/ETH0.c ****  * \param addr The starting address from which data will be read
 319:.\Generated_Source\PSoC5/ETH0.c ****  * \returns the 16-bit value read from the memory.
 320:.\Generated_Source\PSoC5/ETH0.c ****  */
 321:.\Generated_Source\PSoC5/ETH0.c **** static uint16 ETH0_W51_Read16( uint16 addr )
 322:.\Generated_Source\PSoC5/ETH0.c **** {
 323:.\Generated_Source\PSoC5/ETH0.c **** 	uint16 val;
 324:.\Generated_Source\PSoC5/ETH0.c **** 	
 325:.\Generated_Source\PSoC5/ETH0.c **** 	val = ETH0_W51_Read( addr );
 326:.\Generated_Source\PSoC5/ETH0.c **** 	val <<= 8;
 327:.\Generated_Source\PSoC5/ETH0.c **** 	val += ETH0_W51_Read( addr + 1);
 328:.\Generated_Source\PSoC5/ETH0.c **** 	
 329:.\Generated_Source\PSoC5/ETH0.c **** 	return( val );
 330:.\Generated_Source\PSoC5/ETH0.c **** }
 331:.\Generated_Source\PSoC5/ETH0.c **** /* ------------------------------------------------------------------------ */
 332:.\Generated_Source\PSoC5/ETH0.c **** /**
 333:.\Generated_Source\PSoC5/ETH0.c ****  * \brief Write a block of data to consecutive memory addresses
ARM GAS  C:\Users\CHUCK~1.ERH\AppData\Local\Temp\ccby6rnL.s 			page 10


 334:.\Generated_Source\PSoC5/ETH0.c ****  * \param addr the starting address of the write
 335:.\Generated_Source\PSoC5/ETH0.c ****  * \param *buffer pointer to the data buffer holding the data to write
 336:.\Generated_Source\PSoC5/ETH0.c ****  * \param length the length of data to be written
 337:.\Generated_Source\PSoC5/ETH0.c ****  */
 338:.\Generated_Source\PSoC5/ETH0.c **** static void ETH0_W51_WriteBlock(uint16 addr, uint8* buffer, uint16 length)
 339:.\Generated_Source\PSoC5/ETH0.c **** {
 169              		.loc 1 339 0
 170              		.cfi_startproc
 171              		@ args = 0, pretend = 0, frame = 0
 172              		@ frame_needed = 0, uses_anonymous_args = 0
 173              	.LVL17:
 174 0000 F8B5     		push	{r3, r4, r5, r6, r7, lr}
 175              	.LCFI3:
 176              		.cfi_def_cfa_offset 24
 177              		.cfi_offset 3, -24
 178              		.cfi_offset 4, -20
 179              		.cfi_offset 5, -16
 180              		.cfi_offset 6, -12
 181              		.cfi_offset 7, -8
 182              		.cfi_offset 14, -4
 183              		.loc 1 339 0
 184 0002 0546     		mov	r5, r0
 185 0004 0E46     		mov	r6, r1
 186 0006 1746     		mov	r7, r2
 340:.\Generated_Source\PSoC5/ETH0.c **** 	int index;
 341:.\Generated_Source\PSoC5/ETH0.c **** 	for(index=0;index<length;++index) {
 187              		.loc 1 341 0
 188 0008 0024     		movs	r4, #0
 189              	.LVL18:
 190              	.L8:
 191              		.loc 1 341 0 is_stmt 0 discriminator 1
 192 000a BC42     		cmp	r4, r7
 193 000c 06DA     		bge	.L10
 194              	.L9:
 338:.\Generated_Source\PSoC5/ETH0.c **** static void ETH0_W51_WriteBlock(uint16 addr, uint8* buffer, uint16 length)
 195              		.loc 1 338 0 is_stmt 1 discriminator 2
 196 000e 2819     		adds	r0, r5, r4
 342:.\Generated_Source\PSoC5/ETH0.c **** 		ETH0_W51_Write(addr+index,buffer[index]);
 197              		.loc 1 342 0 discriminator 2
 198 0010 315D     		ldrb	r1, [r6, r4]	@ zero_extendqisi2
 199 0012 80B2     		uxth	r0, r0
 200 0014 FFF7FEFF 		bl	ETH0_W51_Write
 201              	.LVL19:
 341:.\Generated_Source\PSoC5/ETH0.c **** 	for(index=0;index<length;++index) {
 202              		.loc 1 341 0 discriminator 2
 203 0018 0134     		adds	r4, r4, #1
 204              	.LVL20:
 205 001a F6E7     		b	.L8
 206              	.L10:
 343:.\Generated_Source\PSoC5/ETH0.c **** 	}
 344:.\Generated_Source\PSoC5/ETH0.c **** }
 207              		.loc 1 344 0
 208 001c F8BD     		pop	{r3, r4, r5, r6, r7, pc}
 209              		.cfi_endproc
 210              	.LFE9:
 211              		.size	ETH0_W51_WriteBlock, .-ETH0_W51_WriteBlock
 212              		.section	.text.ETH0_W51_Read,"ax",%progbits
ARM GAS  C:\Users\CHUCK~1.ERH\AppData\Local\Temp\ccby6rnL.s 			page 11


 213              		.align	1
 214              		.global	ETH0_W51_Read
 215              		.thumb
 216              		.thumb_func
 217              		.type	ETH0_W51_Read, %function
 218              	ETH0_W51_Read:
 219              	.LFB2:
 113:.\Generated_Source\PSoC5/ETH0.c **** {
 220              		.loc 1 113 0
 221              		.cfi_startproc
 222              		@ args = 0, pretend = 0, frame = 0
 223              		@ frame_needed = 0, uses_anonymous_args = 0
 224              	.LVL21:
 225 0000 38B5     		push	{r3, r4, r5, lr}
 226              	.LCFI4:
 227              		.cfi_def_cfa_offset 16
 228              		.cfi_offset 3, -16
 229              		.cfi_offset 4, -12
 230              		.cfi_offset 5, -8
 231              		.cfi_offset 14, -4
 113:.\Generated_Source\PSoC5/ETH0.c **** {
 232              		.loc 1 113 0
 233 0002 0446     		mov	r4, r0
 125:.\Generated_Source\PSoC5/ETH0.c **** 	SPI0_ClearRxBuffer();
 234              		.loc 1 125 0
 235 0004 FFF7FEFF 		bl	SPI0_ClearRxBuffer
 236              	.LVL22:
 127:.\Generated_Source\PSoC5/ETH0.c **** 	SPI0_WriteTxData(ETH0_READ_OP);
 237              		.loc 1 127 0
 238 0008 0F20     		movs	r0, #15
 239 000a FFF7FEFF 		bl	SPI0_WriteTxData
 240              	.LVL23:
 128:.\Generated_Source\PSoC5/ETH0.c **** 	SPI0_WriteTxData(addr>>8);
 241              		.loc 1 128 0
 242 000e 200A     		lsrs	r0, r4, #8
 243 0010 FFF7FEFF 		bl	SPI0_WriteTxData
 244              	.LVL24:
 129:.\Generated_Source\PSoC5/ETH0.c **** 	SPI0_WriteTxData(addr&0x00FF);
 245              		.loc 1 129 0
 246 0014 E0B2     		uxtb	r0, r4
 247 0016 FFF7FEFF 		bl	SPI0_WriteTxData
 248              	.LVL25:
 130:.\Generated_Source\PSoC5/ETH0.c **** 	SPI0_WriteTxData( 0 );
 249              		.loc 1 130 0
 250 001a 0020     		movs	r0, #0
 251 001c FFF7FEFF 		bl	SPI0_WriteTxData
 252              	.LVL26:
 132:.\Generated_Source\PSoC5/ETH0.c **** 	CyDelayUs( 2 );
 253              		.loc 1 132 0
 254 0020 0220     		movs	r0, #2
 255 0022 FFF7FEFF 		bl	CyDelayUs
 256              	.LVL27:
 257              	.L14:
 137:.\Generated_Source\PSoC5/ETH0.c **** 		count = SPI0_GetRxBufferSize();
 258              		.loc 1 137 0
 259 0026 FFF7FEFF 		bl	SPI0_GetRxBufferSize
 260              	.LVL28:
ARM GAS  C:\Users\CHUCK~1.ERH\AppData\Local\Temp\ccby6rnL.s 			page 12


 134:.\Generated_Source\PSoC5/ETH0.c **** 	while( count > 0 )
 261              		.loc 1 134 0
 262 002a 18B1     		cbz	r0, .L15
 263              	.L13:
 136:.\Generated_Source\PSoC5/ETH0.c **** 		dat = SPI0_ReadRxData(); 
 264              		.loc 1 136 0
 265 002c FFF7FEFF 		bl	SPI0_ReadRxData
 266              	.LVL29:
 267 0030 0546     		mov	r5, r0
 268 0032 F8E7     		b	.L14
 269              	.LVL30:
 270              	.L15:
 141:.\Generated_Source\PSoC5/ETH0.c **** }
 271              		.loc 1 141 0
 272 0034 E8B2     		uxtb	r0, r5
 273              	.LVL31:
 274 0036 38BD     		pop	{r3, r4, r5, pc}
 275              		.cfi_endproc
 276              	.LFE2:
 277              		.size	ETH0_W51_Read, .-ETH0_W51_Read
 278              		.section	.text.ETH0_GetSocketStatus,"ax",%progbits
 279              		.align	1
 280              		.thumb
 281              		.thumb_func
 282              		.type	ETH0_GetSocketStatus, %function
 283              	ETH0_GetSocketStatus:
 284              	.LFB44:
 345:.\Generated_Source\PSoC5/ETH0.c **** /* ------------------------------------------------------------------------ */
 346:.\Generated_Source\PSoC5/ETH0.c **** /**
 347:.\Generated_Source\PSoC5/ETH0.c ****  * \brief read a block of data from consecutive memory addresses
 348:.\Generated_Source\PSoC5/ETH0.c ****  * \param addr the address from which the read will begin
 349:.\Generated_Source\PSoC5/ETH0.c ****  * \param *buffer pointer to the memory buffer which will hold the read data
 350:.\Generated_Source\PSoC5/ETH0.c ****  * \param length the length of data to read from the buffer.
 351:.\Generated_Source\PSoC5/ETH0.c ****  */
 352:.\Generated_Source\PSoC5/ETH0.c **** static void ETH0_W51_ReadBlock(uint16 addr, uint8* buffer, uint16 length)
 353:.\Generated_Source\PSoC5/ETH0.c **** {
 354:.\Generated_Source\PSoC5/ETH0.c **** 	int index;
 355:.\Generated_Source\PSoC5/ETH0.c **** 	
 356:.\Generated_Source\PSoC5/ETH0.c **** 	for(index=0;index<length;++index) {
 357:.\Generated_Source\PSoC5/ETH0.c **** 		buffer[index] = ETH0_W51_Read(addr+index);
 358:.\Generated_Source\PSoC5/ETH0.c **** 	}
 359:.\Generated_Source\PSoC5/ETH0.c **** }
 360:.\Generated_Source\PSoC5/ETH0.c **** /* ======================================================================== */
 361:.\Generated_Source\PSoC5/ETH0.c **** /* END SECTION */
 362:.\Generated_Source\PSoC5/ETH0.c **** #endif
 363:.\Generated_Source\PSoC5/ETH0.c **** /* ======================================================================== */
 364:.\Generated_Source\PSoC5/ETH0.c **** /* Chip Register access */
 365:.\Generated_Source\PSoC5/ETH0.c **** #if (1)
 366:.\Generated_Source\PSoC5/ETH0.c **** // Common Registers
 367:.\Generated_Source\PSoC5/ETH0.c **** /* ------------------------------------------------------------------------ */
 368:.\Generated_Source\PSoC5/ETH0.c **** /**
 369:.\Generated_Source\PSoC5/ETH0.c ****  * \brief Set teh chip mac address to teh specified address
 370:.\Generated_Source\PSoC5/ETH0.c ****  * \param *mac pointer to the array holding the MAC address
 371:.\Generated_Source\PSoC5/ETH0.c ****  */
 372:.\Generated_Source\PSoC5/ETH0.c **** static void ETH0_SetSourceMAC( uint8* mac ) { ETH0_W51_SetMAC(9,mac); }
 373:.\Generated_Source\PSoC5/ETH0.c **** /* ------------------------------------------------------------------------ */
 374:.\Generated_Source\PSoC5/ETH0.c **** /**
ARM GAS  C:\Users\CHUCK~1.ERH\AppData\Local\Temp\ccby6rnL.s 			page 13


 375:.\Generated_Source\PSoC5/ETH0.c ****  * \brief Read the chip source MAC address from the MAC registers
 376:.\Generated_Source\PSoC5/ETH0.c ****  * \param *mac pointer to the address of the buffer to hold the read MAC address
 377:.\Generated_Source\PSoC5/ETH0.c ****  */
 378:.\Generated_Source\PSoC5/ETH0.c **** static void ETH0_GetSourceMAC( uint8* mac ) { ETH0_W51_GetMAC(9,mac); }
 379:.\Generated_Source\PSoC5/ETH0.c **** /* ------------------------------------------------------------------------ */
 380:.\Generated_Source\PSoC5/ETH0.c **** /**
 381:.\Generated_Source\PSoC5/ETH0.c ****  * \brief Set the IPv4 address of the network gateway
 382:.\Generated_Source\PSoC5/ETH0.c ****  * \param ip IP address of the gateway
 383:.\Generated_Source\PSoC5/ETH0.c ****  */
 384:.\Generated_Source\PSoC5/ETH0.c **** static void ETH0_SetGatewayAddress(uint32 ip) { ETH0_W51_SetIP(1,ip); }
 385:.\Generated_Source\PSoC5/ETH0.c **** /* ------------------------------------------------------------------------ */
 386:.\Generated_Source\PSoC5/ETH0.c **** /**
 387:.\Generated_Source\PSoC5/ETH0.c ****  * \brief Read the gateway address from the device
 388:.\Generated_Source\PSoC5/ETH0.c ****  * \returns the IP address of the gateway
 389:.\Generated_Source\PSoC5/ETH0.c ****  */
 390:.\Generated_Source\PSoC5/ETH0.c **** static uint32 ETH0_GetGatewayAddress( void ) { return ETH0_W51_GetIP(1); }
 391:.\Generated_Source\PSoC5/ETH0.c **** /* ------------------------------------------------------------------------ */
 392:.\Generated_Source\PSoC5/ETH0.c **** /**
 393:.\Generated_Source\PSoC5/ETH0.c ****  * \brief set the subnet mask of the ethernet device
 394:.\Generated_Source\PSoC5/ETH0.c ****  * \param the subnet mask (IPv4)
 395:.\Generated_Source\PSoC5/ETH0.c ****  */
 396:.\Generated_Source\PSoC5/ETH0.c **** static void ETH0_SetSubnetMask( uint32 ip ) { ETH0_W51_SetIP(5, ip); }
 397:.\Generated_Source\PSoC5/ETH0.c **** /* ------------------------------------------------------------------------ */
 398:.\Generated_Source\PSoC5/ETH0.c **** /**
 399:.\Generated_Source\PSoC5/ETH0.c ****  * \brief Read the subnet mask from the device
 400:.\Generated_Source\PSoC5/ETH0.c ****  * \returns the subnet mask that was read from the device.
 401:.\Generated_Source\PSoC5/ETH0.c ****  */
 402:.\Generated_Source\PSoC5/ETH0.c **** static uint32 ETH0_GetSubnetMask( void ) { return ETH0_W51_GetIP(5); }
 403:.\Generated_Source\PSoC5/ETH0.c **** /* ------------------------------------------------------------------------ */
 404:.\Generated_Source\PSoC5/ETH0.c **** /**
 405:.\Generated_Source\PSoC5/ETH0.c ****  * \brief Write the device source IPv4 address
 406:.\Generated_Source\PSoC5/ETH0.c ****  * \param ip the ip address to set as the chip IP address
 407:.\Generated_Source\PSoC5/ETH0.c ****  */
 408:.\Generated_Source\PSoC5/ETH0.c **** static void ETH0_SetSourceIP( uint32 ip ) { ETH0_W51_SetIP( 0x0F, ip ); }
 409:.\Generated_Source\PSoC5/ETH0.c **** /* ------------------------------------------------------------------------ */
 410:.\Generated_Source\PSoC5/ETH0.c **** /**
 411:.\Generated_Source\PSoC5/ETH0.c ****  * \brief Read the device's programmed IP address
 412:.\Generated_Source\PSoC5/ETH0.c ****  * \returns The IPv4 address to which the device is set.
 413:.\Generated_Source\PSoC5/ETH0.c ****  */
 414:.\Generated_Source\PSoC5/ETH0.c **** static uint32 ETH0_GetSourceIP( void ) { return ETH0_W51_GetIP( 0x0F ); }
 415:.\Generated_Source\PSoC5/ETH0.c **** /* ------------------------------------------------------------------------ */
 416:.\Generated_Source\PSoC5/ETH0.c **** /**
 417:.\Generated_Source\PSoC5/ETH0.c ****  * \brief Write a value to the device internal MODE register
 418:.\Generated_Source\PSoC5/ETH0.c ****  * \param mode the value to be written to the mode register.
 419:.\Generated_Source\PSoC5/ETH0.c ****  */
 420:.\Generated_Source\PSoC5/ETH0.c **** static void ETH0_SetMode( uint8 mode ) { ETH0_W51_Write(0,mode); }
 421:.\Generated_Source\PSoC5/ETH0.c **** /* ------------------------------------------------------------------------ */
 422:.\Generated_Source\PSoC5/ETH0.c **** /**
 423:.\Generated_Source\PSoC5/ETH0.c ****  * \brief Read the present contents of the device internal mode register
 424:.\Generated_Source\PSoC5/ETH0.c ****  * \returns the value of the mode register
 425:.\Generated_Source\PSoC5/ETH0.c ****  */
 426:.\Generated_Source\PSoC5/ETH0.c **** static uint8 ETH0_GetMode( void ) { return ETH0_W51_Read(0); }
 427:.\Generated_Source\PSoC5/ETH0.c **** /* ------------------------------------------------------------------------ */
 428:.\Generated_Source\PSoC5/ETH0.c **** /**
 429:.\Generated_Source\PSoC5/ETH0.c ****  * \brief Write the value of the interrupt register
 430:.\Generated_Source\PSoC5/ETH0.c ****  * \param ir the value to be written to the interrupt register
 431:.\Generated_Source\PSoC5/ETH0.c ****  */
ARM GAS  C:\Users\CHUCK~1.ERH\AppData\Local\Temp\ccby6rnL.s 			page 14


 432:.\Generated_Source\PSoC5/ETH0.c **** static void ETH0_SetIR( uint8 ir ) { ETH0_W51_Write(0x0015,ir); }
 433:.\Generated_Source\PSoC5/ETH0.c **** /* ------------------------------------------------------------------------ */
 434:.\Generated_Source\PSoC5/ETH0.c **** /**
 435:.\Generated_Source\PSoC5/ETH0.c ****  * \brief Read the contents of the interrupt register
 436:.\Generated_Source\PSoC5/ETH0.c ****  * \returns the contents read from the interrupt register
 437:.\Generated_Source\PSoC5/ETH0.c ****  */
 438:.\Generated_Source\PSoC5/ETH0.c **** static uint8 ETH0_GetIR( void ) { return ETH0_W51_Read(0x0015); }
 439:.\Generated_Source\PSoC5/ETH0.c **** /* ------------------------------------------------------------------------ */
 440:.\Generated_Source\PSoC5/ETH0.c **** /**
 441:.\Generated_Source\PSoC5/ETH0.c ****  * \brief Set the value of the interrupt mask register
 442:.\Generated_Source\PSoC5/ETH0.c ****  * \param imr the value to be written to the interrupt mask register
 443:.\Generated_Source\PSoC5/ETH0.c ****  */
 444:.\Generated_Source\PSoC5/ETH0.c **** static void ETH0_SetIMR( uint8 imr) { ETH0_W51_Write( 0x0016, imr ); }
 445:.\Generated_Source\PSoC5/ETH0.c **** /* ------------------------------------------------------------------------ */
 446:.\Generated_Source\PSoC5/ETH0.c **** /**
 447:.\Generated_Source\PSoC5/ETH0.c ****  * \brief Read the interrupt mask register
 448:.\Generated_Source\PSoC5/ETH0.c ****  * \returns the contents of the interrupt mask register
 449:.\Generated_Source\PSoC5/ETH0.c ****  */
 450:.\Generated_Source\PSoC5/ETH0.c **** static uint8 ETH0_GetIMR( void ) { return ETH0_W51_Read( 0x0016 ); }
 451:.\Generated_Source\PSoC5/ETH0.c **** /* ------------------------------------------------------------------------ */
 452:.\Generated_Source\PSoC5/ETH0.c **** /**
 453:.\Generated_Source\PSoC5/ETH0.c ****  * \brief Write the retry time register
 454:.\Generated_Source\PSoC5/ETH0.c ****  * \param time the value to be written to the regster
 455:.\Generated_Source\PSoC5/ETH0.c ****  */
 456:.\Generated_Source\PSoC5/ETH0.c **** static void ETH0_SetRetryTime( uint16 time) { ETH0_W51_Write16( 0x0017, time ); }
 457:.\Generated_Source\PSoC5/ETH0.c **** /* ------------------------------------------------------------------------ */
 458:.\Generated_Source\PSoC5/ETH0.c **** /**
 459:.\Generated_Source\PSoC5/ETH0.c ****  * \brief Read the retry tie register
 460:.\Generated_Source\PSoC5/ETH0.c ****  * \returns the value read from the register
 461:.\Generated_Source\PSoC5/ETH0.c ****  */
 462:.\Generated_Source\PSoC5/ETH0.c **** static uint16 ETH0_GetRetryTime( void ) { return ETH0_W51_Read16( 0x0017 ); }
 463:.\Generated_Source\PSoC5/ETH0.c **** /* ------------------------------------------------------------------------ */
 464:.\Generated_Source\PSoC5/ETH0.c **** /**
 465:.\Generated_Source\PSoC5/ETH0.c ****  * \breif write a value to the retry count register
 466:.\Generated_Source\PSoC5/ETH0.c ****  * \param count the value to be written to the register
 467:.\Generated_Source\PSoC5/ETH0.c ****  */
 468:.\Generated_Source\PSoC5/ETH0.c **** static void ETH0_SetRetryCount( uint8 count ) { ETH0_W51_Write( 0x0019, count); }
 469:.\Generated_Source\PSoC5/ETH0.c **** /* ------------------------------------------------------------------------ */
 470:.\Generated_Source\PSoC5/ETH0.c **** /**
 471:.\Generated_Source\PSoC5/ETH0.c ****  * \brief Read the contents of the retry count register
 472:.\Generated_Source\PSoC5/ETH0.c ****  * \returns the value read from teh register
 473:.\Generated_Source\PSoC5/ETH0.c ****  */
 474:.\Generated_Source\PSoC5/ETH0.c **** static uint8 ETH0_GetRetryCount( void ) { return ETH0_W51_Read( 0x0019 ); }
 475:.\Generated_Source\PSoC5/ETH0.c **** /* ------------------------------------------------------------------------ */
 476:.\Generated_Source\PSoC5/ETH0.c **** /**
 477:.\Generated_Source\PSoC5/ETH0.c ****  * \brief write a value to the Rx mem size register
 478:.\Generated_Source\PSoC5/ETH0.c ****  * \param size the value to be written to the register
 479:.\Generated_Source\PSoC5/ETH0.c ****  */
 480:.\Generated_Source\PSoC5/ETH0.c **** static void ETH0_SetRxMemSize( uint8 size ) { ETH0_W51_Write( 0x1A, size ); }
 481:.\Generated_Source\PSoC5/ETH0.c **** /* ------------------------------------------------------------------------ */
 482:.\Generated_Source\PSoC5/ETH0.c **** /**
 483:.\Generated_Source\PSoC5/ETH0.c ****  * \brief Read the contents of hte rx mem size register
 484:.\Generated_Source\PSoC5/ETH0.c ****  * \returns the value read from teh register
 485:.\Generated_Source\PSoC5/ETH0.c ****  */
 486:.\Generated_Source\PSoC5/ETH0.c **** static uint8 ETH0_GetRxMemSize( void ) { return ETH0_W51_Read(0x1A); }
 487:.\Generated_Source\PSoC5/ETH0.c **** /* ------------------------------------------------------------------------ */
 488:.\Generated_Source\PSoC5/ETH0.c **** /**
ARM GAS  C:\Users\CHUCK~1.ERH\AppData\Local\Temp\ccby6rnL.s 			page 15


 489:.\Generated_Source\PSoC5/ETH0.c ****  * \brief write a value to the tx mem size register
 490:.\Generated_Source\PSoC5/ETH0.c ****  * \param size The value to be written to the register
 491:.\Generated_Source\PSoC5/ETH0.c ****  */
 492:.\Generated_Source\PSoC5/ETH0.c **** static void ETH0_SetTxMemSize( uint8 size ) { ETH0_W51_Write( 0x1B, size); }
 493:.\Generated_Source\PSoC5/ETH0.c **** /* ------------------------------------------------------------------------ */
 494:.\Generated_Source\PSoC5/ETH0.c **** /**
 495:.\Generated_Source\PSoC5/ETH0.c ****  * \brief read the contents of the tx mem size register
 496:.\Generated_Source\PSoC5/ETH0.c ****  * \returns the value read from the register
 497:.\Generated_Source\PSoC5/ETH0.c ****  */
 498:.\Generated_Source\PSoC5/ETH0.c **** static uint8 ETH0_GetTxMemSize( void ) { return ETH0_W51_Read( 0x1B);}
 499:.\Generated_Source\PSoC5/ETH0.c **** /* ------------------------------------------------------------------------ */
 500:.\Generated_Source\PSoC5/ETH0.c **** /**
 501:.\Generated_Source\PSoC5/ETH0.c ****  * \brief write a value to the unreachable IP register
 502:.\Generated_Source\PSoC5/ETH0.c ****  * \param ip the value to be written to the register
 503:.\Generated_Source\PSoC5/ETH0.c ****  */
 504:.\Generated_Source\PSoC5/ETH0.c **** static void ETH0_SetUnreachableIP( uint32 ip) { ETH0_W51_SetIP( 0x2A, ip); }
 505:.\Generated_Source\PSoC5/ETH0.c **** /* ------------------------------------------------------------------------ */
 506:.\Generated_Source\PSoC5/ETH0.c **** /**
 507:.\Generated_Source\PSoC5/ETH0.c ****  * \brief read the contents of the unreachable IP register
 508:.\Generated_Source\PSoC5/ETH0.c ****  * \returns the value read from teh register
 509:.\Generated_Source\PSoC5/ETH0.c ****  */
 510:.\Generated_Source\PSoC5/ETH0.c **** static uint32 ETH0_GetUnreachableIP( void ) { return ETH0_W51_GetIP( 0x2A ); }
 511:.\Generated_Source\PSoC5/ETH0.c **** /* ------------------------------------------------------------------------ */
 512:.\Generated_Source\PSoC5/ETH0.c **** /**
 513:.\Generated_Source\PSoC5/ETH0.c ****  * \brief write a value to the unreachable port register
 514:.\Generated_Source\PSoC5/ETH0.c ****  * \param port the value to be written to the register
 515:.\Generated_Source\PSoC5/ETH0.c ****  */
 516:.\Generated_Source\PSoC5/ETH0.c **** static void ETH0_SetUnreachablePort( uint16 port) { ETH0_W51_Write16(0x2E, port); }
 517:.\Generated_Source\PSoC5/ETH0.c **** /* ------------------------------------------------------------------------ */
 518:.\Generated_Source\PSoC5/ETH0.c **** /**
 519:.\Generated_Source\PSoC5/ETH0.c ****  * \brief read the contents of the unreachable port register
 520:.\Generated_Source\PSoC5/ETH0.c ****  * \returns the value read from the register
 521:.\Generated_Source\PSoC5/ETH0.c ****  */
 522:.\Generated_Source\PSoC5/ETH0.c **** static uint16 ETH0_GetUnreachablePort( void ) { return ETH0_W51_Read16(0x2E); }
 523:.\Generated_Source\PSoC5/ETH0.c **** /* ======================================================================== */
 524:.\Generated_Source\PSoC5/ETH0.c **** /* End Section */
 525:.\Generated_Source\PSoC5/ETH0.c **** #endif
 526:.\Generated_Source\PSoC5/ETH0.c **** /* ======================================================================== */
 527:.\Generated_Source\PSoC5/ETH0.c **** /* Socket Registers */
 528:.\Generated_Source\PSoC5/ETH0.c **** #if (1)
 529:.\Generated_Source\PSoC5/ETH0.c **** /**
 530:.\Generated_Source\PSoC5/ETH0.c ****  * \def ETH0_SOCKET BASE(s)
 531:.\Generated_Source\PSoC5/ETH0.c ****  * \brief Convert the socket number to a base address within the W5100
 532:.\Generated_Source\PSoC5/ETH0.c ****  */
 533:.\Generated_Source\PSoC5/ETH0.c **** #define ETH0_SOCKET_BASE(s)           ((s<<8)+0x0400)
 534:.\Generated_Source\PSoC5/ETH0.c **** /* ------------------------------------------------------------------------ */
 535:.\Generated_Source\PSoC5/ETH0.c **** /**
 536:.\Generated_Source\PSoC5/ETH0.c ****  * \brief Write a value to the socket mode register
 537:.\Generated_Source\PSoC5/ETH0.c ****  * \param socket the socket number for the addressed register
 538:.\Generated_Source\PSoC5/ETH0.c ****  * \param mode the value to be written to the register
 539:.\Generated_Source\PSoC5/ETH0.c ****  */
 540:.\Generated_Source\PSoC5/ETH0.c **** static void ETH0_SetSocketMode(uint8 socket, uint8 mode)
 541:.\Generated_Source\PSoC5/ETH0.c **** { ETH0_W51_Write(ETH0_SOCKET_BASE(socket), mode); }
 542:.\Generated_Source\PSoC5/ETH0.c **** /* ------------------------------------------------------------------------ */
 543:.\Generated_Source\PSoC5/ETH0.c **** /**
 544:.\Generated_Source\PSoC5/ETH0.c ****  * \brief Read a value from the socket mode register
 545:.\Generated_Source\PSoC5/ETH0.c ****  * \param socket the socket number for the addressed register
ARM GAS  C:\Users\CHUCK~1.ERH\AppData\Local\Temp\ccby6rnL.s 			page 16


 546:.\Generated_Source\PSoC5/ETH0.c ****  * \returns the value read from the register
 547:.\Generated_Source\PSoC5/ETH0.c ****  */
 548:.\Generated_Source\PSoC5/ETH0.c **** static uint8 ETH0_GetSocketMode(uint8 socket)
 549:.\Generated_Source\PSoC5/ETH0.c **** { return ETH0_W51_Read(ETH0_SOCKET_BASE(socket)); }
 550:.\Generated_Source\PSoC5/ETH0.c **** /* ------------------------------------------------------------------------ */
 551:.\Generated_Source\PSoC5/ETH0.c **** /**
 552:.\Generated_Source\PSoC5/ETH0.c ****  * \brief Write a value to the socket command register
 553:.\Generated_Source\PSoC5/ETH0.c ****  * \param socket the socket number for the addressed register
 554:.\Generated_Source\PSoC5/ETH0.c ****  * \param cmd the value to be written to the register
 555:.\Generated_Source\PSoC5/ETH0.c ****  */
 556:.\Generated_Source\PSoC5/ETH0.c **** static void ETH0_SetSocketCommand(uint8 socket, uint8 cmd)
 557:.\Generated_Source\PSoC5/ETH0.c **** { ETH0_W51_Write(ETH0_SOCKET_BASE(socket)+1, cmd); }
 558:.\Generated_Source\PSoC5/ETH0.c **** /* ------------------------------------------------------------------------ */
 559:.\Generated_Source\PSoC5/ETH0.c **** /**
 560:.\Generated_Source\PSoC5/ETH0.c ****  * \brief Read a value from the socket command register
 561:.\Generated_Source\PSoC5/ETH0.c ****  * \param socket the socket number for the addressed register
 562:.\Generated_Source\PSoC5/ETH0.c ****  * \returns the value read from the register
 563:.\Generated_Source\PSoC5/ETH0.c ****  */
 564:.\Generated_Source\PSoC5/ETH0.c **** static uint8 ETH0_GetSocketCommand(uint8 socket)
 565:.\Generated_Source\PSoC5/ETH0.c **** { return ETH0_W51_Read(ETH0_SOCKET_BASE(socket)+1); }
 566:.\Generated_Source\PSoC5/ETH0.c **** /* ------------------------------------------------------------------------ */
 567:.\Generated_Source\PSoC5/ETH0.c **** /**
 568:.\Generated_Source\PSoC5/ETH0.c ****  * \brief Write a value to the socket interrupt register
 569:.\Generated_Source\PSoC5/ETH0.c ****  * \param socket the socket number for the addressed register
 570:.\Generated_Source\PSoC5/ETH0.c ****  * \param ir the value to be written to the register
 571:.\Generated_Source\PSoC5/ETH0.c ****  */
 572:.\Generated_Source\PSoC5/ETH0.c **** static void ETH0_SetSocketIR(uint8 socket, uint8 ir)
 573:.\Generated_Source\PSoC5/ETH0.c **** { ETH0_W51_Write(ETH0_SOCKET_BASE(socket)+2,ir); }
 574:.\Generated_Source\PSoC5/ETH0.c **** /* ------------------------------------------------------------------------ */
 575:.\Generated_Source\PSoC5/ETH0.c **** /**
 576:.\Generated_Source\PSoC5/ETH0.c ****  * \brief Read a value from the socket interrupt register
 577:.\Generated_Source\PSoC5/ETH0.c ****  * \param socket the socket number for the addressed register
 578:.\Generated_Source\PSoC5/ETH0.c ****  * \returns the value read from the register
 579:.\Generated_Source\PSoC5/ETH0.c ****  */
 580:.\Generated_Source\PSoC5/ETH0.c **** static uint8 ETH0_GetSocketIR(uint8 socket)
 581:.\Generated_Source\PSoC5/ETH0.c **** { return ETH0_W51_Read(ETH0_SOCKET_BASE(socket)+2); }
 582:.\Generated_Source\PSoC5/ETH0.c **** /* ------------------------------------------------------------------------ */
 583:.\Generated_Source\PSoC5/ETH0.c **** /**
 584:.\Generated_Source\PSoC5/ETH0.c ****  * \brief Write a value to the socket status register
 585:.\Generated_Source\PSoC5/ETH0.c ****  * \param socket the socket number for the addressed register
 586:.\Generated_Source\PSoC5/ETH0.c ****  * \param status the value to be written to the register
 587:.\Generated_Source\PSoC5/ETH0.c ****  */
 588:.\Generated_Source\PSoC5/ETH0.c **** static void ETH0_SetSocketStatus(uint8 socket, uint8 status)
 589:.\Generated_Source\PSoC5/ETH0.c **** { ETH0_W51_Write(ETH0_SOCKET_BASE(socket)+3,status); }
 590:.\Generated_Source\PSoC5/ETH0.c **** /* ------------------------------------------------------------------------ */
 591:.\Generated_Source\PSoC5/ETH0.c **** /**
 592:.\Generated_Source\PSoC5/ETH0.c ****  * \brief Read a value from the socket status register
 593:.\Generated_Source\PSoC5/ETH0.c ****  * \param socket the socket number for the addressed register
 594:.\Generated_Source\PSoC5/ETH0.c ****  * \returns the value read from the register
 595:.\Generated_Source\PSoC5/ETH0.c ****  */
 596:.\Generated_Source\PSoC5/ETH0.c **** static uint8 ETH0_GetSocketStatus(uint8 socket)
 597:.\Generated_Source\PSoC5/ETH0.c **** { return ETH0_W51_Read(ETH0_SOCKET_BASE(socket)+3); }
 285              		.loc 1 597 0
 286              		.cfi_startproc
 287              		@ args = 0, pretend = 0, frame = 0
 288              		@ frame_needed = 0, uses_anonymous_args = 0
 289              		@ link register save eliminated.
ARM GAS  C:\Users\CHUCK~1.ERH\AppData\Local\Temp\ccby6rnL.s 			page 17


 290              	.LVL32:
 291              		.loc 1 597 0
 292 0000 0002     		lsls	r0, r0, #8
 293              	.LVL33:
 294 0002 00F20341 		addw	r1, r0, #1027
 295 0006 88B2     		uxth	r0, r1
 296 0008 FFF7FEBF 		b	ETH0_W51_Read
 297              	.LVL34:
 298              		.cfi_endproc
 299              	.LFE44:
 300              		.size	ETH0_GetSocketStatus, .-ETH0_GetSocketStatus
 301              		.section	.text.ETH0_W51_Read16,"ax",%progbits
 302              		.align	1
 303              		.thumb
 304              		.thumb_func
 305              		.type	ETH0_W51_Read16, %function
 306              	ETH0_W51_Read16:
 307              	.LFB8:
 322:.\Generated_Source\PSoC5/ETH0.c **** {
 308              		.loc 1 322 0
 309              		.cfi_startproc
 310              		@ args = 0, pretend = 0, frame = 0
 311              		@ frame_needed = 0, uses_anonymous_args = 0
 312              	.LVL35:
 313 0000 38B5     		push	{r3, r4, r5, lr}
 314              	.LCFI5:
 315              		.cfi_def_cfa_offset 16
 316              		.cfi_offset 3, -16
 317              		.cfi_offset 4, -12
 318              		.cfi_offset 5, -8
 319              		.cfi_offset 14, -4
 322:.\Generated_Source\PSoC5/ETH0.c **** {
 320              		.loc 1 322 0
 321 0002 0546     		mov	r5, r0
 325:.\Generated_Source\PSoC5/ETH0.c **** 	val = ETH0_W51_Read( addr );
 322              		.loc 1 325 0
 323 0004 FFF7FEFF 		bl	ETH0_W51_Read
 324              	.LVL36:
 327:.\Generated_Source\PSoC5/ETH0.c **** 	val += ETH0_W51_Read( addr + 1);
 325              		.loc 1 327 0
 326 0008 691C     		adds	r1, r5, #1
 326:.\Generated_Source\PSoC5/ETH0.c **** 	val <<= 8;
 327              		.loc 1 326 0
 328 000a 0002     		lsls	r0, r0, #8
 329              	.LVL37:
 330 000c 84B2     		uxth	r4, r0
 331              	.LVL38:
 327:.\Generated_Source\PSoC5/ETH0.c **** 	val += ETH0_W51_Read( addr + 1);
 332              		.loc 1 327 0
 333 000e 88B2     		uxth	r0, r1
 334              	.LVL39:
 335 0010 FFF7FEFF 		bl	ETH0_W51_Read
 336              	.LVL40:
 337 0014 2218     		adds	r2, r4, r0
 330:.\Generated_Source\PSoC5/ETH0.c **** }
 338              		.loc 1 330 0
 339 0016 90B2     		uxth	r0, r2
ARM GAS  C:\Users\CHUCK~1.ERH\AppData\Local\Temp\ccby6rnL.s 			page 18


 340              	.LVL41:
 341 0018 38BD     		pop	{r3, r4, r5, pc}
 342              		.cfi_endproc
 343              	.LFE8:
 344              		.size	ETH0_W51_Read16, .-ETH0_W51_Read16
 345              		.section	.text.ETH0_ProcessTxData.constprop.2,"ax",%progbits
 346              		.align	1
 347              		.thumb
 348              		.thumb_func
 349              		.type	ETH0_ProcessTxData.constprop.2, %function
 350              	ETH0_ProcessTxData.constprop.2:
 351              	.LFB108:
 598:.\Generated_Source\PSoC5/ETH0.c **** /* ------------------------------------------------------------------------ */
 599:.\Generated_Source\PSoC5/ETH0.c **** /**
 600:.\Generated_Source\PSoC5/ETH0.c ****  * \brief Write a value to the socket source port register
 601:.\Generated_Source\PSoC5/ETH0.c ****  * \param socket the socket number for the addressed register
 602:.\Generated_Source\PSoC5/ETH0.c ****  * \param port the value to be written to the register
 603:.\Generated_Source\PSoC5/ETH0.c ****  */
 604:.\Generated_Source\PSoC5/ETH0.c **** static void ETH0_SetSocketSourcePort(uint8 socket, uint16 port)
 605:.\Generated_Source\PSoC5/ETH0.c **** { ETH0_W51_Write16(ETH0_SOCKET_BASE(socket)+4,port); }
 606:.\Generated_Source\PSoC5/ETH0.c **** /* ------------------------------------------------------------------------ */
 607:.\Generated_Source\PSoC5/ETH0.c **** /**
 608:.\Generated_Source\PSoC5/ETH0.c ****  * \brief Read a value from the socket source port register
 609:.\Generated_Source\PSoC5/ETH0.c ****  * \param socket the socket number for the addressed register
 610:.\Generated_Source\PSoC5/ETH0.c ****  * \returns the value read from the register
 611:.\Generated_Source\PSoC5/ETH0.c ****  */
 612:.\Generated_Source\PSoC5/ETH0.c **** static uint16 ETH0_GetSocketSourcePort(uint8 socket)
 613:.\Generated_Source\PSoC5/ETH0.c **** { return ETH0_W51_Read16(ETH0_SOCKET_BASE(socket)+4); }
 614:.\Generated_Source\PSoC5/ETH0.c **** /* ------------------------------------------------------------------------ */
 615:.\Generated_Source\PSoC5/ETH0.c **** /**
 616:.\Generated_Source\PSoC5/ETH0.c ****  * \brief Write a value to the socket Destination hardware address register
 617:.\Generated_Source\PSoC5/ETH0.c ****  * \param socket the socket number for the addressed register
 618:.\Generated_Source\PSoC5/ETH0.c ****  * \param *mac poitner to the array holding the values to be written to the register
 619:.\Generated_Source\PSoC5/ETH0.c ****  */
 620:.\Generated_Source\PSoC5/ETH0.c **** static void ETH0_SetSocketDestMAC(uint8 socket, uint8* mac)
 621:.\Generated_Source\PSoC5/ETH0.c **** { ETH0_W51_SetMAC( ETH0_SOCKET_BASE(socket)+6, mac); }
 622:.\Generated_Source\PSoC5/ETH0.c **** /* ------------------------------------------------------------------------ */
 623:.\Generated_Source\PSoC5/ETH0.c **** /**
 624:.\Generated_Source\PSoC5/ETH0.c ****  * \brief Read a value from the socket destination hardware address (MAC) register
 625:.\Generated_Source\PSoC5/ETH0.c ****  * \param socket the socket number for the addressed register
 626:.\Generated_Source\PSoC5/ETH0.c ****  * \returns the value read from the register
 627:.\Generated_Source\PSoC5/ETH0.c ****  */
 628:.\Generated_Source\PSoC5/ETH0.c **** static void ETH0_GetSocketDestMAC(uint8 socket, uint8* mac)
 629:.\Generated_Source\PSoC5/ETH0.c **** { ETH0_W51_GetMAC( ETH0_SOCKET_BASE(socket)+6,mac); }
 630:.\Generated_Source\PSoC5/ETH0.c **** /* ------------------------------------------------------------------------ */
 631:.\Generated_Source\PSoC5/ETH0.c **** /**
 632:.\Generated_Source\PSoC5/ETH0.c ****  * \brief Write a value to the socket Destination IP address register
 633:.\Generated_Source\PSoC5/ETH0.c ****  * \param socket the socket number for the addressed register
 634:.\Generated_Source\PSoC5/ETH0.c ****  * \param ip the value to be written to the register
 635:.\Generated_Source\PSoC5/ETH0.c ****  */
 636:.\Generated_Source\PSoC5/ETH0.c **** static void ETH0_SetSocketDestIP(uint8 socket, uint32 ip)
 637:.\Generated_Source\PSoC5/ETH0.c **** { ETH0_W51_SetIP(ETH0_SOCKET_BASE(socket)+12,ip); }
 638:.\Generated_Source\PSoC5/ETH0.c **** /* ------------------------------------------------------------------------ */
 639:.\Generated_Source\PSoC5/ETH0.c **** /**
 640:.\Generated_Source\PSoC5/ETH0.c ****  * \brief Read a value from the socket destination IP register
 641:.\Generated_Source\PSoC5/ETH0.c ****  * \param socket the socket number for the addressed register
 642:.\Generated_Source\PSoC5/ETH0.c ****  * \returns the value read from the register
ARM GAS  C:\Users\CHUCK~1.ERH\AppData\Local\Temp\ccby6rnL.s 			page 19


 643:.\Generated_Source\PSoC5/ETH0.c ****  */
 644:.\Generated_Source\PSoC5/ETH0.c **** static uint32 ETH0_GetSocketDestIP(uint8 socket )
 645:.\Generated_Source\PSoC5/ETH0.c **** { return ETH0_W51_GetIP(ETH0_SOCKET_BASE(socket)+12); }
 646:.\Generated_Source\PSoC5/ETH0.c **** /* ------------------------------------------------------------------------ */
 647:.\Generated_Source\PSoC5/ETH0.c **** /**
 648:.\Generated_Source\PSoC5/ETH0.c ****  * \brief Write a value to the socket destination port register
 649:.\Generated_Source\PSoC5/ETH0.c ****  * \param socket the socket number for the addressed register
 650:.\Generated_Source\PSoC5/ETH0.c ****  * \param port the value to be written to the register
 651:.\Generated_Source\PSoC5/ETH0.c ****  */
 652:.\Generated_Source\PSoC5/ETH0.c **** static void ETH0_SetSocketDestPort(uint8 socket, uint16 port)
 653:.\Generated_Source\PSoC5/ETH0.c **** { ETH0_W51_Write16( ETH0_SOCKET_BASE(socket)+16, port); }
 654:.\Generated_Source\PSoC5/ETH0.c **** /* ------------------------------------------------------------------------ */
 655:.\Generated_Source\PSoC5/ETH0.c **** /**
 656:.\Generated_Source\PSoC5/ETH0.c ****  * \brief Read a value from the socket destination port register
 657:.\Generated_Source\PSoC5/ETH0.c ****  * \param socket the socket number for the addressed register
 658:.\Generated_Source\PSoC5/ETH0.c ****  * \returns the value read from the register
 659:.\Generated_Source\PSoC5/ETH0.c ****  */
 660:.\Generated_Source\PSoC5/ETH0.c **** static uint16 ETH0_GetSocketDestPort(uint8 socket)
 661:.\Generated_Source\PSoC5/ETH0.c **** { return ETH0_W51_Read16( ETH0_SOCKET_BASE(socket)+16 ); }
 662:.\Generated_Source\PSoC5/ETH0.c **** /* ------------------------------------------------------------------------ */
 663:.\Generated_Source\PSoC5/ETH0.c **** /**
 664:.\Generated_Source\PSoC5/ETH0.c ****  * \brief Write a value to the socket max segment size register
 665:.\Generated_Source\PSoC5/ETH0.c ****  * \param socket the socket number for the addressed register
 666:.\Generated_Source\PSoC5/ETH0.c ****  * \param size the value to be written to the register
 667:.\Generated_Source\PSoC5/ETH0.c ****  */
 668:.\Generated_Source\PSoC5/ETH0.c **** static void ETH0_SetSocketMaxSegSize(uint8 socket, uint16 size)
 669:.\Generated_Source\PSoC5/ETH0.c **** { ETH0_W51_Write16(ETH0_SOCKET_BASE(socket)+18,size); }
 670:.\Generated_Source\PSoC5/ETH0.c **** /* ------------------------------------------------------------------------ */
 671:.\Generated_Source\PSoC5/ETH0.c **** /**
 672:.\Generated_Source\PSoC5/ETH0.c ****  * \brief Read a value from the socket maximum segment size register
 673:.\Generated_Source\PSoC5/ETH0.c ****  * \param socket the socket number for the addressed register
 674:.\Generated_Source\PSoC5/ETH0.c ****  * \returns the value read from the register
 675:.\Generated_Source\PSoC5/ETH0.c ****  */
 676:.\Generated_Source\PSoC5/ETH0.c **** static uint16 ETH0_GetSocketMaxSegSize(uint8 socket)
 677:.\Generated_Source\PSoC5/ETH0.c **** { return ETH0_W51_Read16(ETH0_SOCKET_BASE(socket)+18); }
 678:.\Generated_Source\PSoC5/ETH0.c **** /* ------------------------------------------------------------------------ */
 679:.\Generated_Source\PSoC5/ETH0.c **** /**
 680:.\Generated_Source\PSoC5/ETH0.c ****  * \brief Read a value from the socket protocol register (IP RAW/MAC RAW mode)
 681:.\Generated_Source\PSoC5/ETH0.c ****  * \param socket the socket number for the addressed register
 682:.\Generated_Source\PSoC5/ETH0.c ****  * \returns the value read from the register
 683:.\Generated_Source\PSoC5/ETH0.c ****  */
 684:.\Generated_Source\PSoC5/ETH0.c **** static uint16  ETH0_GetSocketProto(uint8 socket)
 685:.\Generated_Source\PSoC5/ETH0.c **** { return ETH0_W51_Read(ETH0_SOCKET_BASE(socket)+20); }
 686:.\Generated_Source\PSoC5/ETH0.c **** /* ------------------------------------------------------------------------ */
 687:.\Generated_Source\PSoC5/ETH0.c **** /**
 688:.\Generated_Source\PSoC5/ETH0.c ****  * \brief Write a value to the socket TOS register
 689:.\Generated_Source\PSoC5/ETH0.c ****  * \param socket the socket number for the addressed register
 690:.\Generated_Source\PSoC5/ETH0.c ****  * \param tos the value to be written to the register
 691:.\Generated_Source\PSoC5/ETH0.c ****  */
 692:.\Generated_Source\PSoC5/ETH0.c **** static void ETH0_SetSocketTOS(uint8 socket, uint8 tos)
 693:.\Generated_Source\PSoC5/ETH0.c **** { ETH0_W51_Write(ETH0_SOCKET_BASE(socket)+21, tos); }
 694:.\Generated_Source\PSoC5/ETH0.c **** /* ------------------------------------------------------------------------ */
 695:.\Generated_Source\PSoC5/ETH0.c **** /**
 696:.\Generated_Source\PSoC5/ETH0.c ****  * \brief Read a value from the socket TOS register
 697:.\Generated_Source\PSoC5/ETH0.c ****  * \param socket the socket number for the addressed register
 698:.\Generated_Source\PSoC5/ETH0.c ****  * \returns the value read from the register
 699:.\Generated_Source\PSoC5/ETH0.c ****  */
ARM GAS  C:\Users\CHUCK~1.ERH\AppData\Local\Temp\ccby6rnL.s 			page 20


 700:.\Generated_Source\PSoC5/ETH0.c **** static uint8 ETH0_GetSocketTOS(uint8 socket)
 701:.\Generated_Source\PSoC5/ETH0.c **** { return ETH0_W51_Read(ETH0_SOCKET_BASE(socket)+21); }
 702:.\Generated_Source\PSoC5/ETH0.c **** /* ------------------------------------------------------------------------ */
 703:.\Generated_Source\PSoC5/ETH0.c **** /**
 704:.\Generated_Source\PSoC5/ETH0.c ****  * \brief Write a value to the socket Time-To_Live (TTL) register
 705:.\Generated_Source\PSoC5/ETH0.c ****  * \param socket the socket number for the addressed register
 706:.\Generated_Source\PSoC5/ETH0.c ****  * \param ttl the value to be written to the register
 707:.\Generated_Source\PSoC5/ETH0.c ****  */
 708:.\Generated_Source\PSoC5/ETH0.c **** static void ETH0_SetSocketTTL(uint8 socket, uint8 ttl)
 709:.\Generated_Source\PSoC5/ETH0.c **** { ETH0_W51_Write(ETH0_SOCKET_BASE(socket)+22,ttl); }
 710:.\Generated_Source\PSoC5/ETH0.c **** /* ------------------------------------------------------------------------ */
 711:.\Generated_Source\PSoC5/ETH0.c **** /**
 712:.\Generated_Source\PSoC5/ETH0.c ****  * \brief Read a value from the socket time-to-live (TTL) register
 713:.\Generated_Source\PSoC5/ETH0.c ****  * \param socket the socket number for the addressed register
 714:.\Generated_Source\PSoC5/ETH0.c ****  * \returns the value read from the register
 715:.\Generated_Source\PSoC5/ETH0.c ****  */
 716:.\Generated_Source\PSoC5/ETH0.c **** static uint8 ETH0_GetSocketTTL(uint8 socket)
 717:.\Generated_Source\PSoC5/ETH0.c **** { return ETH0_W51_Read(ETH0_SOCKET_BASE(socket)+22); }
 718:.\Generated_Source\PSoC5/ETH0.c **** /* ------------------------------------------------------------------------ */
 719:.\Generated_Source\PSoC5/ETH0.c **** /**
 720:.\Generated_Source\PSoC5/ETH0.c ****  * \brief Write a value to the socket tx free size register
 721:.\Generated_Source\PSoC5/ETH0.c ****  * \param socket the socket number for the addressed register
 722:.\Generated_Source\PSoC5/ETH0.c ****  * \param size the value to be written to the register
 723:.\Generated_Source\PSoC5/ETH0.c ****  */
 724:.\Generated_Source\PSoC5/ETH0.c **** static void ETH0_SetSocketTxFree( uint8 socket, uint16 size)
 725:.\Generated_Source\PSoC5/ETH0.c **** { ETH0_W51_Write16(ETH0_SOCKET_BASE(socket)+0x20,size); }
 726:.\Generated_Source\PSoC5/ETH0.c **** /* ------------------------------------------------------------------------ */
 727:.\Generated_Source\PSoC5/ETH0.c **** /**
 728:.\Generated_Source\PSoC5/ETH0.c ****  * \brief Read a value from the socket Tx free size register
 729:.\Generated_Source\PSoC5/ETH0.c ****  * \param socket the socket number for the addressed register
 730:.\Generated_Source\PSoC5/ETH0.c ****  * \returns the value read from the register
 731:.\Generated_Source\PSoC5/ETH0.c ****  */
 732:.\Generated_Source\PSoC5/ETH0.c **** static uint16 ETH0_GetSocketTxFree(uint8 socket)
 733:.\Generated_Source\PSoC5/ETH0.c **** { return ETH0_W51_Read16(ETH0_SOCKET_BASE(socket)+0x20); }
 734:.\Generated_Source\PSoC5/ETH0.c **** /* ------------------------------------------------------------------------ */
 735:.\Generated_Source\PSoC5/ETH0.c **** /**
 736:.\Generated_Source\PSoC5/ETH0.c ****  * \brief Write a value to the socket tx read pointer register
 737:.\Generated_Source\PSoC5/ETH0.c ****  * \param socket the socket number for the addressed register
 738:.\Generated_Source\PSoC5/ETH0.c ****  * \param ptr the value to be written to the register
 739:.\Generated_Source\PSoC5/ETH0.c ****  */
 740:.\Generated_Source\PSoC5/ETH0.c **** static void ETH0_SetSocketTxReadPtr(uint8 socket, uint16 ptr)
 741:.\Generated_Source\PSoC5/ETH0.c **** { ETH0_W51_Write16(ETH0_SOCKET_BASE(socket)+0x22,ptr); }
 742:.\Generated_Source\PSoC5/ETH0.c **** /* ------------------------------------------------------------------------ */
 743:.\Generated_Source\PSoC5/ETH0.c **** /**
 744:.\Generated_Source\PSoC5/ETH0.c ****  * \brief Read a value from the socket Tx buffer read pointer register
 745:.\Generated_Source\PSoC5/ETH0.c ****  * \param socket the socket number for the addressed register
 746:.\Generated_Source\PSoC5/ETH0.c ****  * \returns the value read from the register
 747:.\Generated_Source\PSoC5/ETH0.c ****  */
 748:.\Generated_Source\PSoC5/ETH0.c **** static uint16 ETH0_GetSocketTxReadPtr(uint8 socket)
 749:.\Generated_Source\PSoC5/ETH0.c **** { return ETH0_W51_Read16(ETH0_SOCKET_BASE(socket)+0x22); }
 750:.\Generated_Source\PSoC5/ETH0.c **** /* ------------------------------------------------------------------------ */
 751:.\Generated_Source\PSoC5/ETH0.c **** /**
 752:.\Generated_Source\PSoC5/ETH0.c ****  * \brief Write a value to the socket tx write pointer register
 753:.\Generated_Source\PSoC5/ETH0.c ****  * \param socket the socket number for the addressed register
 754:.\Generated_Source\PSoC5/ETH0.c ****  * \param ptr the value to be written to the register
 755:.\Generated_Source\PSoC5/ETH0.c ****  */
 756:.\Generated_Source\PSoC5/ETH0.c **** static void ETH0_SetSocketTxWritePtr(uint8 socket, uint16 ptr)
ARM GAS  C:\Users\CHUCK~1.ERH\AppData\Local\Temp\ccby6rnL.s 			page 21


 757:.\Generated_Source\PSoC5/ETH0.c **** { ETH0_W51_Write16(ETH0_SOCKET_BASE(socket)+0x24,ptr); }
 758:.\Generated_Source\PSoC5/ETH0.c **** /* ------------------------------------------------------------------------ */
 759:.\Generated_Source\PSoC5/ETH0.c **** /**
 760:.\Generated_Source\PSoC5/ETH0.c ****  * \brief Read a value from the socket tx buffer write pointer register
 761:.\Generated_Source\PSoC5/ETH0.c ****  * \param socket the socket number for the addressed register
 762:.\Generated_Source\PSoC5/ETH0.c ****  * \returns the value read from the register
 763:.\Generated_Source\PSoC5/ETH0.c ****  */
 764:.\Generated_Source\PSoC5/ETH0.c **** static uint16 ETH0_GetSocketTxWritePtr(uint8 socket)
 765:.\Generated_Source\PSoC5/ETH0.c **** { return ETH0_W51_Read16(ETH0_SOCKET_BASE(socket)+0x24); }
 766:.\Generated_Source\PSoC5/ETH0.c **** /* ------------------------------------------------------------------------ */
 767:.\Generated_Source\PSoC5/ETH0.c **** /**
 768:.\Generated_Source\PSoC5/ETH0.c ****  * \brief Read a value from the socket rx received data size register
 769:.\Generated_Source\PSoC5/ETH0.c ****  * \param socket the socket number for the addressed register
 770:.\Generated_Source\PSoC5/ETH0.c ****  * \returns the value read from the register
 771:.\Generated_Source\PSoC5/ETH0.c ****  */
 772:.\Generated_Source\PSoC5/ETH0.c **** static uint16 ETH0_GetSocketRxSize(uint8 socket)
 773:.\Generated_Source\PSoC5/ETH0.c **** { return ETH0_W51_Read16(ETH0_SOCKET_BASE(socket)+0x26); }
 774:.\Generated_Source\PSoC5/ETH0.c **** /* ------------------------------------------------------------------------ */
 775:.\Generated_Source\PSoC5/ETH0.c **** /**
 776:.\Generated_Source\PSoC5/ETH0.c ****  * \brief Write a value to the socket rx read pointer register
 777:.\Generated_Source\PSoC5/ETH0.c ****  * \param socket the socket number for the addressed register
 778:.\Generated_Source\PSoC5/ETH0.c ****  * \param ptr the value to be written to the register
 779:.\Generated_Source\PSoC5/ETH0.c ****  */
 780:.\Generated_Source\PSoC5/ETH0.c **** static void ETH0_SetSocketRxReadPtr(uint8 socket, uint16 ptr)
 781:.\Generated_Source\PSoC5/ETH0.c **** { ETH0_W51_Write16(ETH0_SOCKET_BASE(socket)+0x28,ptr); }
 782:.\Generated_Source\PSoC5/ETH0.c **** /* ------------------------------------------------------------------------ */
 783:.\Generated_Source\PSoC5/ETH0.c **** /**
 784:.\Generated_Source\PSoC5/ETH0.c ****  * \brief Read a value from the socket rx buffer read pointer register
 785:.\Generated_Source\PSoC5/ETH0.c ****  * \param socket the socket number for the addressed register
 786:.\Generated_Source\PSoC5/ETH0.c ****  * \returns the value read from the register
 787:.\Generated_Source\PSoC5/ETH0.c ****  */
 788:.\Generated_Source\PSoC5/ETH0.c **** static uint16 ETH0_GetSocketRxReadPtr(uint8 socket)
 789:.\Generated_Source\PSoC5/ETH0.c **** { return ETH0_W51_Read16(ETH0_SOCKET_BASE(socket)+0x28); }
 790:.\Generated_Source\PSoC5/ETH0.c **** /* ------------------------------------------------------------------------ */
 791:.\Generated_Source\PSoC5/ETH0.c **** /**
 792:.\Generated_Source\PSoC5/ETH0.c ****  * \brief Write a command to the socket command register and wait for completion
 793:.\Generated_Source\PSoC5/ETH0.c ****  * \param socket the addressed socket for the command
 794:.\Generated_Source\PSoC5/ETH0.c ****  * \param cmd the command to execute
 795:.\Generated_Source\PSoC5/ETH0.c ****  */
 796:.\Generated_Source\PSoC5/ETH0.c **** static uint32 ETH0_ExecuteSocketCommand( uint8 socket, int cmd)
 797:.\Generated_Source\PSoC5/ETH0.c **** {
 798:.\Generated_Source\PSoC5/ETH0.c **** 	uint32 timeout;
 799:.\Generated_Source\PSoC5/ETH0.c **** 	timeout = 0;
 800:.\Generated_Source\PSoC5/ETH0.c **** 	
 801:.\Generated_Source\PSoC5/ETH0.c **** 	ETH0_SetSocketCommand(socket,cmd);
 802:.\Generated_Source\PSoC5/ETH0.c **** 	while ( ( ETH0_GetSocketCommand(socket) ) && (timeout < 125))
 803:.\Generated_Source\PSoC5/ETH0.c **** 	{
 804:.\Generated_Source\PSoC5/ETH0.c **** 		++timeout;
 805:.\Generated_Source\PSoC5/ETH0.c **** 		CyDelay(1);
 806:.\Generated_Source\PSoC5/ETH0.c **** 	}
 807:.\Generated_Source\PSoC5/ETH0.c **** 	return( timeout );
 808:.\Generated_Source\PSoC5/ETH0.c **** }
 809:.\Generated_Source\PSoC5/ETH0.c **** /* ------------------------------------------------------------------------ */
 810:.\Generated_Source\PSoC5/ETH0.c **** /**
 811:.\Generated_Source\PSoC5/ETH0.c ****  * \brief Execute a safe read fo the Tx buffer free size register
 812:.\Generated_Source\PSoC5/ETH0.c ****  * \param socket the addressed socket to read the available tx buffer
 813:.\Generated_Source\PSoC5/ETH0.c ****  * \returns the number of bytes available in the transmit buffer for the socket
ARM GAS  C:\Users\CHUCK~1.ERH\AppData\Local\Temp\ccby6rnL.s 			page 22


 814:.\Generated_Source\PSoC5/ETH0.c ****  */
 815:.\Generated_Source\PSoC5/ETH0.c **** static uint16 ETH0_GetTxFreeSize( uint8 socket )
 816:.\Generated_Source\PSoC5/ETH0.c **** {
 817:.\Generated_Source\PSoC5/ETH0.c **** 	uint16 first, second;
 818:.\Generated_Source\PSoC5/ETH0.c **** 	
 819:.\Generated_Source\PSoC5/ETH0.c **** 	first = 0;
 820:.\Generated_Source\PSoC5/ETH0.c **** 	second = 0;
 821:.\Generated_Source\PSoC5/ETH0.c **** 	do {
 822:.\Generated_Source\PSoC5/ETH0.c **** 		first = ETH0_GetSocketTxFree( socket );
 823:.\Generated_Source\PSoC5/ETH0.c **** 		if (first != 0) {
 824:.\Generated_Source\PSoC5/ETH0.c **** 			second = ETH0_GetSocketTxFree( socket );
 825:.\Generated_Source\PSoC5/ETH0.c **** 		}
 826:.\Generated_Source\PSoC5/ETH0.c **** 	}
 827:.\Generated_Source\PSoC5/ETH0.c **** 	while (first != second );
 828:.\Generated_Source\PSoC5/ETH0.c **** 	
 829:.\Generated_Source\PSoC5/ETH0.c **** 	return( second );
 830:.\Generated_Source\PSoC5/ETH0.c **** }
 831:.\Generated_Source\PSoC5/ETH0.c **** /* ------------------------------------------------------------------------ */
 832:.\Generated_Source\PSoC5/ETH0.c **** /**
 833:.\Generated_Source\PSoC5/ETH0.c ****  * \brief Execute a safe read of the received data size
 834:.\Generated_Source\PSoC5/ETH0.c ****  * \param socket the addressed socketfrom which the data will be read
 835:.\Generated_Source\PSoC5/ETH0.c ****  * \returns the number of bytes waiting in the recieve buffer of the socket
 836:.\Generated_Source\PSoC5/ETH0.c ****  */
 837:.\Generated_Source\PSoC5/ETH0.c **** static uint16 ETH0_GetRxSize( uint8 socket )
 838:.\Generated_Source\PSoC5/ETH0.c **** {
 839:.\Generated_Source\PSoC5/ETH0.c **** 	uint16 first, second;
 840:.\Generated_Source\PSoC5/ETH0.c **** 	
 841:.\Generated_Source\PSoC5/ETH0.c **** 	first = 0;
 842:.\Generated_Source\PSoC5/ETH0.c **** 	second = 0;
 843:.\Generated_Source\PSoC5/ETH0.c **** 	do {
 844:.\Generated_Source\PSoC5/ETH0.c **** 		first = ETH0_GetSocketRxSize( socket );
 845:.\Generated_Source\PSoC5/ETH0.c **** 		if (first != 0) {
 846:.\Generated_Source\PSoC5/ETH0.c **** 			second = ETH0_GetSocketRxSize( socket );
 847:.\Generated_Source\PSoC5/ETH0.c **** 		}
 848:.\Generated_Source\PSoC5/ETH0.c **** 	}
 849:.\Generated_Source\PSoC5/ETH0.c **** 	while (first != second );
 850:.\Generated_Source\PSoC5/ETH0.c **** 	
 851:.\Generated_Source\PSoC5/ETH0.c **** 	return second;
 852:.\Generated_Source\PSoC5/ETH0.c **** }
 853:.\Generated_Source\PSoC5/ETH0.c **** /* ------------------------------------------------------------------------ */
 854:.\Generated_Source\PSoC5/ETH0.c **** 
 855:.\Generated_Source\PSoC5/ETH0.c **** // END Socket Register access section
 856:.\Generated_Source\PSoC5/ETH0.c **** #endif
 857:.\Generated_Source\PSoC5/ETH0.c **** /* ======================================================================== */
 858:.\Generated_Source\PSoC5/ETH0.c **** /* W5100 Data Buffer Memory access primitives */
 859:.\Generated_Source\PSoC5/ETH0.c **** #if (1)
 860:.\Generated_Source\PSoC5/ETH0.c **** /* ------------------------------------------------------------------------ */
 861:.\Generated_Source\PSoC5/ETH0.c **** /**
 862:.\Generated_Source\PSoC5/ETH0.c ****  * \brief Transfer data from a local data buffer to the chip Tx fifo
 863:.\Generated_Source\PSoC5/ETH0.c ****  * \param socket the socket buffer to which the data will be written
 864:.\Generated_Source\PSoC5/ETH0.c ****  * \param offset The offest in to the socket buffer
 865:.\Generated_Source\PSoC5/ETH0.c ****  * \param *buffer pointer to the local buffer to copy to the transmit fifo
 866:.\Generated_Source\PSoC5/ETH0.c ****  * \param length the number of bytes to be copied to the transmit fifo
 867:.\Generated_Source\PSoC5/ETH0.c ****  */
 868:.\Generated_Source\PSoC5/ETH0.c **** static void ETH0_ProcessTxData(uint8 socket, uint16 offset, uint8* buffer, uint16 length)
 352              		.loc 1 868 0
 353              		.cfi_startproc
ARM GAS  C:\Users\CHUCK~1.ERH\AppData\Local\Temp\ccby6rnL.s 			page 23


 354              		@ args = 0, pretend = 0, frame = 0
 355              		@ frame_needed = 0, uses_anonymous_args = 0
 356              	.LVL42:
 357 0000 2DE9F843 		push	{r3, r4, r5, r6, r7, r8, r9, lr}
 358              	.LCFI6:
 359              		.cfi_def_cfa_offset 32
 360              		.cfi_offset 3, -32
 361              		.cfi_offset 4, -28
 362              		.cfi_offset 5, -24
 363              		.cfi_offset 6, -20
 364              		.cfi_offset 7, -16
 365              		.cfi_offset 8, -12
 366              		.cfi_offset 9, -8
 367              		.cfi_offset 14, -4
 368              	.LBB10:
 369              	.LBB11:
 765:.\Generated_Source\PSoC5/ETH0.c **** { return ETH0_W51_Read16(ETH0_SOCKET_BASE(socket)+0x24); }
 370              		.loc 1 765 0
 371 0004 4FEA0027 		lsl	r7, r0, #8
 372              	.LBE11:
 373              	.LBE10:
 374              		.loc 1 868 0
 375 0008 8146     		mov	r9, r0
 376              	.LBB15:
 377              	.LBB12:
 765:.\Generated_Source\PSoC5/ETH0.c **** { return ETH0_W51_Read16(ETH0_SOCKET_BASE(socket)+0x24); }
 378              		.loc 1 765 0
 379 000a 07F22440 		addw	r0, r7, #1060
 380              	.LVL43:
 381 000e 87B2     		uxth	r7, r0
 382 0010 3846     		mov	r0, r7
 383              	.LBE12:
 384              	.LBE15:
 385              		.loc 1 868 0
 386 0012 0E46     		mov	r6, r1
 387 0014 1446     		mov	r4, r2
 388              	.LBB16:
 389              	.LBB13:
 765:.\Generated_Source\PSoC5/ETH0.c **** { return ETH0_W51_Read16(ETH0_SOCKET_BASE(socket)+0x24); }
 390              		.loc 1 765 0
 391 0016 FFF7FEFF 		bl	ETH0_W51_Read16
 392              	.LVL44:
 393              	.LBE13:
 394              	.LBE16:
 869:.\Generated_Source\PSoC5/ETH0.c **** {
 870:.\Generated_Source\PSoC5/ETH0.c **** 	uint16 addr;
 871:.\Generated_Source\PSoC5/ETH0.c **** 	uint16 base;
 872:.\Generated_Source\PSoC5/ETH0.c **** 	uint16 PointerOffset;
 873:.\Generated_Source\PSoC5/ETH0.c **** 	uint16 size;
 874:.\Generated_Source\PSoC5/ETH0.c **** 	
 875:.\Generated_Source\PSoC5/ETH0.c **** 	/*
 876:.\Generated_Source\PSoC5/ETH0.c **** 	 * Read the offset pointer, and calculate the base address for the start of write
 877:.\Generated_Source\PSoC5/ETH0.c **** 	 * in to the chip buffers.  Written data will be offset by the offset byte count
 878:.\Generated_Source\PSoC5/ETH0.c **** 	 * specified in the parameters.
 879:.\Generated_Source\PSoC5/ETH0.c **** 	 */
 880:.\Generated_Source\PSoC5/ETH0.c **** 	base = ETH0_GetSocketTxWritePtr(socket) + offset;
 881:.\Generated_Source\PSoC5/ETH0.c **** 	PointerOffset = (base & 0x07FF);
ARM GAS  C:\Users\CHUCK~1.ERH\AppData\Local\Temp\ccby6rnL.s 			page 24


 395              		.loc 1 881 0
 396 001a 4FEA4055 		lsl	r5, r0, #21
 397 001e 690D     		lsrs	r1, r5, #21
 882:.\Generated_Source\PSoC5/ETH0.c **** 	addr = PointerOffset + ETH0_SOCKET_TX_BASE(socket);
 398              		.loc 1 882 0
 399 0020 4FEAC932 		lsl	r2, r9, #15
 883:.\Generated_Source\PSoC5/ETH0.c **** 	/* calculate the number of bytes from the pointer to the end of the buffer */
 884:.\Generated_Source\PSoC5/ETH0.c **** 	size = 0x0800 - PointerOffset;
 400              		.loc 1 884 0
 401 0024 C1F50065 		rsb	r5, r1, #2048
 882:.\Generated_Source\PSoC5/ETH0.c **** 	addr = PointerOffset + ETH0_SOCKET_TX_BASE(socket);
 402              		.loc 1 882 0
 403 0028 02F58043 		add	r3, r2, #16384
 404 002c 1FFA83F9 		uxth	r9, r3
 405              	.LVL45:
 406              		.loc 1 884 0
 407 0030 ADB2     		uxth	r5, r5
 408              	.LBB17:
 409              	.LBB14:
 765:.\Generated_Source\PSoC5/ETH0.c **** { return ETH0_W51_Read16(ETH0_SOCKET_BASE(socket)+0x24); }
 410              		.loc 1 765 0
 411 0032 8046     		mov	r8, r0
 412              	.LVL46:
 413              	.LBE14:
 414              	.LBE17:
 885:.\Generated_Source\PSoC5/ETH0.c **** 	
 886:.\Generated_Source\PSoC5/ETH0.c **** 	/*
 887:.\Generated_Source\PSoC5/ETH0.c **** 	 * is there enough space to write the complete packet
 888:.\Generated_Source\PSoC5/ETH0.c **** 	 * or, shoudl the data be split in to two writes.
 889:.\Generated_Source\PSoC5/ETH0.c **** 	 */
 890:.\Generated_Source\PSoC5/ETH0.c **** 	if ( length > size) {
 415              		.loc 1 890 0
 416 0034 AC42     		cmp	r4, r5
 882:.\Generated_Source\PSoC5/ETH0.c **** 	addr = PointerOffset + ETH0_SOCKET_TX_BASE(socket);
 417              		.loc 1 882 0
 418 0036 01EB0900 		add	r0, r1, r9
 419              	.LVL47:
 420 003a 80B2     		uxth	r0, r0
 421              	.LVL48:
 891:.\Generated_Source\PSoC5/ETH0.c **** 		/*
 892:.\Generated_Source\PSoC5/ETH0.c **** 		 * There is more data to send than will fit from the pointer to the end
 893:.\Generated_Source\PSoC5/ETH0.c **** 		 * of the memory, so we will write the data in two chunks.  First, write the
 894:.\Generated_Source\PSoC5/ETH0.c **** 		 * data from the pointer to the end of the buffer, then write the portion
 895:.\Generated_Source\PSoC5/ETH0.c **** 		 * remaining to the start (base ptr) of the socket buffer
 896:.\Generated_Source\PSoC5/ETH0.c **** 		 */
 897:.\Generated_Source\PSoC5/ETH0.c **** 		ETH0_W51_WriteBlock(addr, buffer, size);
 422              		.loc 1 897 0
 423 003c 3146     		mov	r1, r6
 424              	.LVL49:
 890:.\Generated_Source\PSoC5/ETH0.c **** 	if ( length > size) {
 425              		.loc 1 890 0
 426 003e 07D9     		bls	.L19
 427              		.loc 1 897 0
 428 0040 2A46     		mov	r2, r5
 429 0042 FFF7FEFF 		bl	ETH0_W51_WriteBlock
 430              	.LVL50:
 898:.\Generated_Source\PSoC5/ETH0.c **** 		ETH0_W51_WriteBlock(ETH0_SOCKET_TX_BASE(socket), &buffer[size], length - size);
ARM GAS  C:\Users\CHUCK~1.ERH\AppData\Local\Temp\ccby6rnL.s 			page 25


 431              		.loc 1 898 0
 432 0046 621B     		subs	r2, r4, r5
 433 0048 4846     		mov	r0, r9
 434 004a 7119     		adds	r1, r6, r5
 435 004c 92B2     		uxth	r2, r2
 436 004e 00E0     		b	.L21
 437              	.LVL51:
 438              	.L19:
 899:.\Generated_Source\PSoC5/ETH0.c **** 	}
 900:.\Generated_Source\PSoC5/ETH0.c **** 	else {
 901:.\Generated_Source\PSoC5/ETH0.c **** 		/* 
 902:.\Generated_Source\PSoC5/ETH0.c **** 		 * there is enough available space from the write point to the end of buffer
 903:.\Generated_Source\PSoC5/ETH0.c **** 		 * to hold the whole packe of information, so just write it to the memory
 904:.\Generated_Source\PSoC5/ETH0.c **** 		 */
 905:.\Generated_Source\PSoC5/ETH0.c **** 		ETH0_W51_WriteBlock(addr,buffer,length);
 439              		.loc 1 905 0
 440 0050 2246     		mov	r2, r4
 441              	.LVL52:
 442              	.L21:
 443 0052 FFF7FEFF 		bl	ETH0_W51_WriteBlock
 444              	.LVL53:
 906:.\Generated_Source\PSoC5/ETH0.c **** 	}
 907:.\Generated_Source\PSoC5/ETH0.c **** 	/* move the write pointer */
 908:.\Generated_Source\PSoC5/ETH0.c **** 	base += length;
 445              		.loc 1 908 0
 446 0056 08EB0401 		add	r1, r8, r4
 447              	.LBB18:
 448              	.LBB19:
 757:.\Generated_Source\PSoC5/ETH0.c **** { ETH0_W51_Write16(ETH0_SOCKET_BASE(socket)+0x24,ptr); }
 449              		.loc 1 757 0
 450 005a 3846     		mov	r0, r7
 451 005c 89B2     		uxth	r1, r1
 452              	.LBE19:
 453              	.LBE18:
 909:.\Generated_Source\PSoC5/ETH0.c **** 	/* 
 910:.\Generated_Source\PSoC5/ETH0.c **** 	 * Store the new write pointer so that the device knows that there is data waiting
 911:.\Generated_Source\PSoC5/ETH0.c **** 	 * to be transmitted over the link.
 912:.\Generated_Source\PSoC5/ETH0.c **** 	 */
 913:.\Generated_Source\PSoC5/ETH0.c **** 	ETH0_SetSocketTxWritePtr(socket, base);
 914:.\Generated_Source\PSoC5/ETH0.c **** }
 454              		.loc 1 914 0
 455 005e BDE8F843 		pop	{r3, r4, r5, r6, r7, r8, r9, lr}
 456              	.LBB21:
 457              	.LBB20:
 757:.\Generated_Source\PSoC5/ETH0.c **** { ETH0_W51_Write16(ETH0_SOCKET_BASE(socket)+0x24,ptr); }
 458              		.loc 1 757 0
 459 0062 FFF7FEBF 		b	ETH0_W51_Write16
 460              	.LVL54:
 461              	.LBE20:
 462              	.LBE21:
 463              		.cfi_endproc
 464              	.LFE108:
 465              		.size	ETH0_ProcessTxData.constprop.2, .-ETH0_ProcessTxData.constprop.2
 466              		.section	.text.ETH0_GetRxSize,"ax",%progbits
 467              		.align	1
 468              		.thumb
 469              		.thumb_func
ARM GAS  C:\Users\CHUCK~1.ERH\AppData\Local\Temp\ccby6rnL.s 			page 26


 470              		.type	ETH0_GetRxSize, %function
 471              	ETH0_GetRxSize:
 472              	.LFB71:
 838:.\Generated_Source\PSoC5/ETH0.c **** {
 473              		.loc 1 838 0
 474              		.cfi_startproc
 475              		@ args = 0, pretend = 0, frame = 0
 476              		@ frame_needed = 0, uses_anonymous_args = 0
 477              	.LVL55:
 478              	.LBB26:
 479              	.LBB27:
 773:.\Generated_Source\PSoC5/ETH0.c **** { return ETH0_W51_Read16(ETH0_SOCKET_BASE(socket)+0x26); }
 480              		.loc 1 773 0
 481 0000 0002     		lsls	r0, r0, #8
 482              	.LVL56:
 483              	.LBE27:
 484              	.LBE26:
 838:.\Generated_Source\PSoC5/ETH0.c **** {
 485              		.loc 1 838 0
 486 0002 70B5     		push	{r4, r5, r6, lr}
 487              	.LCFI7:
 488              		.cfi_def_cfa_offset 16
 489              		.cfi_offset 4, -16
 490              		.cfi_offset 5, -12
 491              		.cfi_offset 6, -8
 492              		.cfi_offset 14, -4
 493              	.LBB29:
 494              	.LBB28:
 773:.\Generated_Source\PSoC5/ETH0.c **** { return ETH0_W51_Read16(ETH0_SOCKET_BASE(socket)+0x26); }
 495              		.loc 1 773 0
 496 0004 00F22645 		addw	r5, r0, #1062
 497 0008 ADB2     		uxth	r5, r5
 842:.\Generated_Source\PSoC5/ETH0.c **** 	second = 0;
 498              		.loc 1 842 0
 499 000a 0026     		movs	r6, #0
 500              	.LVL57:
 501              	.L24:
 773:.\Generated_Source\PSoC5/ETH0.c **** { return ETH0_W51_Read16(ETH0_SOCKET_BASE(socket)+0x26); }
 502              		.loc 1 773 0
 503 000c 2846     		mov	r0, r5
 504 000e FFF7FEFF 		bl	ETH0_W51_Read16
 505              	.LVL58:
 506              	.LBE28:
 507              	.LBE29:
 845:.\Generated_Source\PSoC5/ETH0.c **** 		if (first != 0) {
 508              		.loc 1 845 0
 509 0012 0446     		mov	r4, r0
 510 0014 18B1     		cbz	r0, .L23
 511              	.LBB30:
 512              	.LBB31:
 773:.\Generated_Source\PSoC5/ETH0.c **** { return ETH0_W51_Read16(ETH0_SOCKET_BASE(socket)+0x26); }
 513              		.loc 1 773 0
 514 0016 2846     		mov	r0, r5
 515 0018 FFF7FEFF 		bl	ETH0_W51_Read16
 516              	.LVL59:
 517 001c 0646     		mov	r6, r0
 518              	.LVL60:
ARM GAS  C:\Users\CHUCK~1.ERH\AppData\Local\Temp\ccby6rnL.s 			page 27


 519              	.L23:
 520              	.LBE31:
 521              	.LBE30:
 849:.\Generated_Source\PSoC5/ETH0.c **** 	while (first != second );
 522              		.loc 1 849 0
 523 001e B442     		cmp	r4, r6
 524 0020 F4D1     		bne	.L24
 852:.\Generated_Source\PSoC5/ETH0.c **** }
 525              		.loc 1 852 0
 526 0022 2046     		mov	r0, r4
 527 0024 70BD     		pop	{r4, r5, r6, pc}
 528              		.cfi_endproc
 529              	.LFE71:
 530              		.size	ETH0_GetRxSize, .-ETH0_GetRxSize
 531              		.section	.text.ETH0_W51_ReadBlock,"ax",%progbits
 532              		.align	1
 533              		.thumb
 534              		.thumb_func
 535              		.type	ETH0_W51_ReadBlock, %function
 536              	ETH0_W51_ReadBlock:
 537              	.LFB10:
 353:.\Generated_Source\PSoC5/ETH0.c **** {
 538              		.loc 1 353 0
 539              		.cfi_startproc
 540              		@ args = 0, pretend = 0, frame = 0
 541              		@ frame_needed = 0, uses_anonymous_args = 0
 542              	.LVL61:
 543 0000 F8B5     		push	{r3, r4, r5, r6, r7, lr}
 544              	.LCFI8:
 545              		.cfi_def_cfa_offset 24
 546              		.cfi_offset 3, -24
 547              		.cfi_offset 4, -20
 548              		.cfi_offset 5, -16
 549              		.cfi_offset 6, -12
 550              		.cfi_offset 7, -8
 551              		.cfi_offset 14, -4
 353:.\Generated_Source\PSoC5/ETH0.c **** {
 552              		.loc 1 353 0
 553 0002 0546     		mov	r5, r0
 554 0004 0E46     		mov	r6, r1
 555 0006 1746     		mov	r7, r2
 356:.\Generated_Source\PSoC5/ETH0.c **** 	for(index=0;index<length;++index) {
 556              		.loc 1 356 0
 557 0008 0024     		movs	r4, #0
 558              	.LVL62:
 559              	.L30:
 356:.\Generated_Source\PSoC5/ETH0.c **** 	for(index=0;index<length;++index) {
 560              		.loc 1 356 0 is_stmt 0 discriminator 1
 561 000a BC42     		cmp	r4, r7
 562 000c 06DA     		bge	.L32
 563              	.L31:
 352:.\Generated_Source\PSoC5/ETH0.c **** static void ETH0_W51_ReadBlock(uint16 addr, uint8* buffer, uint16 length)
 564              		.loc 1 352 0 is_stmt 1 discriminator 2
 565 000e 2819     		adds	r0, r5, r4
 357:.\Generated_Source\PSoC5/ETH0.c **** 		buffer[index] = ETH0_W51_Read(addr+index);
 566              		.loc 1 357 0 discriminator 2
 567 0010 80B2     		uxth	r0, r0
ARM GAS  C:\Users\CHUCK~1.ERH\AppData\Local\Temp\ccby6rnL.s 			page 28


 568 0012 FFF7FEFF 		bl	ETH0_W51_Read
 569              	.LVL63:
 570 0016 3055     		strb	r0, [r6, r4]
 356:.\Generated_Source\PSoC5/ETH0.c **** 	for(index=0;index<length;++index) {
 571              		.loc 1 356 0 discriminator 2
 572 0018 0134     		adds	r4, r4, #1
 573              	.LVL64:
 574 001a F6E7     		b	.L30
 575              	.L32:
 359:.\Generated_Source\PSoC5/ETH0.c **** }
 576              		.loc 1 359 0
 577 001c F8BD     		pop	{r3, r4, r5, r6, r7, pc}
 578              		.cfi_endproc
 579              	.LFE10:
 580              		.size	ETH0_W51_ReadBlock, .-ETH0_W51_ReadBlock
 581              		.section	.text.ETH0_ProcessRxData.constprop.1,"ax",%progbits
 582              		.align	1
 583              		.thumb
 584              		.thumb_func
 585              		.type	ETH0_ProcessRxData.constprop.1, %function
 586              	ETH0_ProcessRxData.constprop.1:
 587              	.LFB109:
 915:.\Generated_Source\PSoC5/ETH0.c **** /* ------------------------------------------------------------------------ */
 916:.\Generated_Source\PSoC5/ETH0.c **** /**
 917:.\Generated_Source\PSoC5/ETH0.c ****  * \brief Transfer data from the chip receive buffer to a local buffer
 918:.\Generated_Source\PSoC5/ETH0.c ****  * \param socket the socket buffer from which the data will be read
 919:.\Generated_Source\PSoC5/ETH0.c ****  * \param offset The offest in to the socket buffer
 920:.\Generated_Source\PSoC5/ETH0.c ****  * \param *buffer pointer to the local buffer to hold the receive fifo data
 921:.\Generated_Source\PSoC5/ETH0.c ****  * \param length the max number of bytes to be copied to the local buffer
 922:.\Generated_Source\PSoC5/ETH0.c ****  * \param flags Flag settings to control read fifo options (lookahead)
 923:.\Generated_Source\PSoC5/ETH0.c ****  */
 924:.\Generated_Source\PSoC5/ETH0.c **** static void ETH0_ProcessRxData(uint8 socket, uint16 offset, uint8* buffer, uint16 length, uint8 fla
 588              		.loc 1 924 0
 589              		.cfi_startproc
 590              		@ args = 0, pretend = 0, frame = 0
 591              		@ frame_needed = 0, uses_anonymous_args = 0
 592              	.LVL65:
 593 0000 F8B5     		push	{r3, r4, r5, r6, r7, lr}
 594              	.LCFI9:
 595              		.cfi_def_cfa_offset 24
 596              		.cfi_offset 3, -24
 597              		.cfi_offset 4, -20
 598              		.cfi_offset 5, -16
 599              		.cfi_offset 6, -12
 600              		.cfi_offset 7, -8
 601              		.cfi_offset 14, -4
 602              		.loc 1 924 0
 603 0002 0746     		mov	r7, r0
 604              	.LBB36:
 605              	.LBB37:
 789:.\Generated_Source\PSoC5/ETH0.c **** { return ETH0_W51_Read16(ETH0_SOCKET_BASE(socket)+0x28); }
 606              		.loc 1 789 0
 607 0004 0002     		lsls	r0, r0, #8
 608              	.LVL66:
 609              	.LBE37:
 610              	.LBE36:
 611              		.loc 1 924 0
ARM GAS  C:\Users\CHUCK~1.ERH\AppData\Local\Temp\ccby6rnL.s 			page 29


 612 0006 0C46     		mov	r4, r1
 613              	.LBB40:
 614              	.LBB38:
 789:.\Generated_Source\PSoC5/ETH0.c **** { return ETH0_W51_Read16(ETH0_SOCKET_BASE(socket)+0x28); }
 615              		.loc 1 789 0
 616 0008 00F58561 		add	r1, r0, #1064
 617              	.LVL67:
 618 000c 88B2     		uxth	r0, r1
 619              	.LBE38:
 620              	.LBE40:
 621              		.loc 1 924 0
 622 000e 1546     		mov	r5, r2
 623 0010 1E46     		mov	r6, r3
 624              	.LBB41:
 625              	.LBB39:
 789:.\Generated_Source\PSoC5/ETH0.c **** { return ETH0_W51_Read16(ETH0_SOCKET_BASE(socket)+0x28); }
 626              		.loc 1 789 0
 627 0012 FFF7FEFF 		bl	ETH0_W51_Read16
 628              	.LVL68:
 629              	.LBE39:
 630              	.LBE41:
 925:.\Generated_Source\PSoC5/ETH0.c **** {
 926:.\Generated_Source\PSoC5/ETH0.c **** 	uint16 addr;
 927:.\Generated_Source\PSoC5/ETH0.c **** 	uint16 base;
 928:.\Generated_Source\PSoC5/ETH0.c **** 	uint16 PointerOffset;
 929:.\Generated_Source\PSoC5/ETH0.c **** 	uint16 size;
 930:.\Generated_Source\PSoC5/ETH0.c **** 	
 931:.\Generated_Source\PSoC5/ETH0.c **** 	/*
 932:.\Generated_Source\PSoC5/ETH0.c **** 	 * Read the offset pointer, and calculate the base address for the start of read
 933:.\Generated_Source\PSoC5/ETH0.c **** 	 * in to the chip buffers.  The data read will be offset by the offset byte count
 934:.\Generated_Source\PSoC5/ETH0.c **** 	 * specified in the parameters.
 935:.\Generated_Source\PSoC5/ETH0.c **** 	 */
 936:.\Generated_Source\PSoC5/ETH0.c **** 	base = ETH0_GetSocketRxReadPtr(socket) + offset;
 631              		.loc 1 936 0
 632 0016 0219     		adds	r2, r0, r4
 937:.\Generated_Source\PSoC5/ETH0.c **** 	PointerOffset = (base & 0x07FF);
 633              		.loc 1 937 0
 634 0018 5305     		lsls	r3, r2, #21
 938:.\Generated_Source\PSoC5/ETH0.c **** 	addr = PointerOffset + ETH0_SOCKET_RX_BASE(socket);
 635              		.loc 1 938 0
 636 001a FF03     		lsls	r7, r7, #15
 637              	.LVL69:
 937:.\Generated_Source\PSoC5/ETH0.c **** 	PointerOffset = (base & 0x07FF);
 638              		.loc 1 937 0
 639 001c 5C0D     		lsrs	r4, r3, #21
 640              	.LVL70:
 641              		.loc 1 938 0
 642 001e 07F5C040 		add	r0, r7, #24576
 643 0022 87B2     		uxth	r7, r0
 939:.\Generated_Source\PSoC5/ETH0.c **** 	/* calculate the number of bytes from the pointer to the end of the buffer */
 940:.\Generated_Source\PSoC5/ETH0.c **** 	size = 0x0800 - PointerOffset;
 644              		.loc 1 940 0
 645 0024 C4F50062 		rsb	r2, r4, #2048
 938:.\Generated_Source\PSoC5/ETH0.c **** 	addr = PointerOffset + ETH0_SOCKET_RX_BASE(socket);
 646              		.loc 1 938 0
 647 0028 E119     		adds	r1, r4, r7
 648              		.loc 1 940 0
ARM GAS  C:\Users\CHUCK~1.ERH\AppData\Local\Temp\ccby6rnL.s 			page 30


 649 002a 94B2     		uxth	r4, r2
 650              	.LVL71:
 941:.\Generated_Source\PSoC5/ETH0.c **** 	/*
 942:.\Generated_Source\PSoC5/ETH0.c **** 	 * is there enough space to read the complete packet
 943:.\Generated_Source\PSoC5/ETH0.c **** 	 * or, should the data be split in to two reads.
 944:.\Generated_Source\PSoC5/ETH0.c **** 	 */
 945:.\Generated_Source\PSoC5/ETH0.c **** 	if ( length > size) {
 651              		.loc 1 945 0
 652 002c A642     		cmp	r6, r4
 938:.\Generated_Source\PSoC5/ETH0.c **** 	addr = PointerOffset + ETH0_SOCKET_RX_BASE(socket);
 653              		.loc 1 938 0
 654 002e 88B2     		uxth	r0, r1
 655              	.LVL72:
 946:.\Generated_Source\PSoC5/ETH0.c **** 		/*
 947:.\Generated_Source\PSoC5/ETH0.c **** 		 * There is more data to send than will fit from the pointer to the end
 948:.\Generated_Source\PSoC5/ETH0.c **** 		 * of the memory, so we will write the data in two chunks.  First, write the
 949:.\Generated_Source\PSoC5/ETH0.c **** 		 * data from the pointer to the end of the buffer, then write the portion
 950:.\Generated_Source\PSoC5/ETH0.c **** 		 * remaining to the start (base ptr) of the socket buffer
 951:.\Generated_Source\PSoC5/ETH0.c **** 		 */
 952:.\Generated_Source\PSoC5/ETH0.c **** 		ETH0_W51_ReadBlock(addr, buffer, size);
 656              		.loc 1 952 0
 657 0030 2946     		mov	r1, r5
 658              	.LVL73:
 945:.\Generated_Source\PSoC5/ETH0.c **** 	if ( length > size) {
 659              		.loc 1 945 0
 660 0032 07D9     		bls	.L34
 661              		.loc 1 952 0
 662 0034 2246     		mov	r2, r4
 663 0036 FFF7FEFF 		bl	ETH0_W51_ReadBlock
 664              	.LVL74:
 953:.\Generated_Source\PSoC5/ETH0.c **** 		ETH0_W51_ReadBlock(ETH0_SOCKET_RX_BASE(socket), &buffer[size], length - size);
 665              		.loc 1 953 0
 666 003a 331B     		subs	r3, r6, r4
 667 003c 3846     		mov	r0, r7
 668 003e 2919     		adds	r1, r5, r4
 669 0040 9AB2     		uxth	r2, r3
 670 0042 00E0     		b	.L35
 671              	.LVL75:
 672              	.L34:
 954:.\Generated_Source\PSoC5/ETH0.c **** 	}
 955:.\Generated_Source\PSoC5/ETH0.c **** 	else {
 956:.\Generated_Source\PSoC5/ETH0.c **** 		/* 
 957:.\Generated_Source\PSoC5/ETH0.c **** 		 * there is enough available space from the write point to the end of buffer
 958:.\Generated_Source\PSoC5/ETH0.c **** 		 * to hold the whole packe of information, so just write it to the memory
 959:.\Generated_Source\PSoC5/ETH0.c **** 		 */
 960:.\Generated_Source\PSoC5/ETH0.c **** 		ETH0_W51_ReadBlock(addr,buffer,length);
 673              		.loc 1 960 0
 674 0044 3246     		mov	r2, r6
 675              	.LVL76:
 676              	.L35:
 961:.\Generated_Source\PSoC5/ETH0.c **** 	}
 962:.\Generated_Source\PSoC5/ETH0.c **** 	if (flags & 0x01) {
 963:.\Generated_Source\PSoC5/ETH0.c **** 		/* move the write pointer */
 964:.\Generated_Source\PSoC5/ETH0.c **** 		base += length;
 965:.\Generated_Source\PSoC5/ETH0.c **** 		/* 
 966:.\Generated_Source\PSoC5/ETH0.c **** 		 * Store the new write pointer so that the device knows that there is data waiting
 967:.\Generated_Source\PSoC5/ETH0.c **** 		 * to be transmitted over the link.
ARM GAS  C:\Users\CHUCK~1.ERH\AppData\Local\Temp\ccby6rnL.s 			page 31


 968:.\Generated_Source\PSoC5/ETH0.c **** 		 */
 969:.\Generated_Source\PSoC5/ETH0.c **** 		ETH0_SetSocketRxReadPtr(socket, base);
 970:.\Generated_Source\PSoC5/ETH0.c **** 	}
 971:.\Generated_Source\PSoC5/ETH0.c **** }
 677              		.loc 1 971 0
 678 0046 BDE8F840 		pop	{r3, r4, r5, r6, r7, lr}
 960:.\Generated_Source\PSoC5/ETH0.c **** 		ETH0_W51_ReadBlock(addr,buffer,length);
 679              		.loc 1 960 0
 680 004a FFF7FEBF 		b	ETH0_W51_ReadBlock
 681              	.LVL77:
 682              		.cfi_endproc
 683              	.LFE109:
 684              		.size	ETH0_ProcessRxData.constprop.1, .-ETH0_ProcessRxData.constprop.1
 685              		.section	.text.ETH0_ExecuteSocketCommand,"ax",%progbits
 686              		.align	1
 687              		.thumb
 688              		.thumb_func
 689              		.type	ETH0_ExecuteSocketCommand, %function
 690              	ETH0_ExecuteSocketCommand:
 691              	.LFB69:
 797:.\Generated_Source\PSoC5/ETH0.c **** {
 692              		.loc 1 797 0
 693              		.cfi_startproc
 694              		@ args = 0, pretend = 0, frame = 0
 695              		@ frame_needed = 0, uses_anonymous_args = 0
 696              	.LVL78:
 697              	.LBB46:
 698              	.LBB47:
 557:.\Generated_Source\PSoC5/ETH0.c **** { ETH0_W51_Write(ETH0_SOCKET_BASE(socket)+1, cmd); }
 699              		.loc 1 557 0
 700 0000 0002     		lsls	r0, r0, #8
 701              	.LVL79:
 702              	.LBE47:
 703              	.LBE46:
 797:.\Generated_Source\PSoC5/ETH0.c **** {
 704              		.loc 1 797 0
 705 0002 38B5     		push	{r3, r4, r5, lr}
 706              	.LCFI10:
 707              		.cfi_def_cfa_offset 16
 708              		.cfi_offset 3, -16
 709              		.cfi_offset 4, -12
 710              		.cfi_offset 5, -8
 711              		.cfi_offset 14, -4
 712              	.LBB49:
 713              	.LBB48:
 557:.\Generated_Source\PSoC5/ETH0.c **** { ETH0_W51_Write(ETH0_SOCKET_BASE(socket)+1, cmd); }
 714              		.loc 1 557 0
 715 0004 00F20145 		addw	r5, r0, #1025
 716 0008 ADB2     		uxth	r5, r5
 717 000a 2846     		mov	r0, r5
 718 000c C9B2     		uxtb	r1, r1
 719              	.LVL80:
 720 000e FFF7FEFF 		bl	ETH0_W51_Write
 721              	.LVL81:
 799:.\Generated_Source\PSoC5/ETH0.c **** 	timeout = 0;
 722              		.loc 1 799 0
 723 0012 0024     		movs	r4, #0
ARM GAS  C:\Users\CHUCK~1.ERH\AppData\Local\Temp\ccby6rnL.s 			page 32


 724              	.LVL82:
 725              	.L37:
 726              	.LBE48:
 727              	.LBE49:
 728              	.LBB50:
 729              	.LBB51:
 565:.\Generated_Source\PSoC5/ETH0.c **** { return ETH0_W51_Read(ETH0_SOCKET_BASE(socket)+1); }
 730              		.loc 1 565 0 discriminator 1
 731 0014 2846     		mov	r0, r5
 732 0016 FFF7FEFF 		bl	ETH0_W51_Read
 733              	.LVL83:
 734              	.LBE51:
 735              	.LBE50:
 802:.\Generated_Source\PSoC5/ETH0.c **** 	while ( ( ETH0_GetSocketCommand(socket) ) && (timeout < 125))
 736              		.loc 1 802 0 discriminator 1
 737 001a 30B1     		cbz	r0, .L38
 802:.\Generated_Source\PSoC5/ETH0.c **** 	while ( ( ETH0_GetSocketCommand(socket) ) && (timeout < 125))
 738              		.loc 1 802 0 is_stmt 0 discriminator 2
 739 001c 7D2C     		cmp	r4, #125
 740 001e 04D0     		beq	.L38
 741              	.L39:
 805:.\Generated_Source\PSoC5/ETH0.c **** 		CyDelay(1);
 742              		.loc 1 805 0 is_stmt 1
 743 0020 0120     		movs	r0, #1
 804:.\Generated_Source\PSoC5/ETH0.c **** 		++timeout;
 744              		.loc 1 804 0
 745 0022 0134     		adds	r4, r4, #1
 746              	.LVL84:
 805:.\Generated_Source\PSoC5/ETH0.c **** 		CyDelay(1);
 747              		.loc 1 805 0
 748 0024 FFF7FEFF 		bl	CyDelay
 749              	.LVL85:
 750 0028 F4E7     		b	.L37
 751              	.L38:
 808:.\Generated_Source\PSoC5/ETH0.c **** }
 752              		.loc 1 808 0
 753 002a 2046     		mov	r0, r4
 754 002c 38BD     		pop	{r3, r4, r5, pc}
 755              		.cfi_endproc
 756              	.LFE69:
 757              		.size	ETH0_ExecuteSocketCommand, .-ETH0_ExecuteSocketCommand
 758              		.section	.text.ETH0_SocketSend,"ax",%progbits
 759              		.align	1
 760              		.thumb
 761              		.thumb_func
 762              		.type	ETH0_SocketSend, %function
 763              	ETH0_SocketSend:
 764              	.LFB85:
 972:.\Generated_Source\PSoC5/ETH0.c **** #endif
 973:.\Generated_Source\PSoC5/ETH0.c **** /* ======================================================================== */
 974:.\Generated_Source\PSoC5/ETH0.c **** /* Driver Initialization */
 975:.\Generated_Source\PSoC5/ETH0.c **** #if (1)
 976:.\Generated_Source\PSoC5/ETH0.c **** /* ------------------------------------------------------------------------ */
 977:.\Generated_Source\PSoC5/ETH0.c **** void
 978:.\Generated_Source\PSoC5/ETH0.c **** ETH0_Init(uint8* mac, uint32 ip, uint32 subnet, uint32 gateway)
 979:.\Generated_Source\PSoC5/ETH0.c **** {
 980:.\Generated_Source\PSoC5/ETH0.c **** 	/*
ARM GAS  C:\Users\CHUCK~1.ERH\AppData\Local\Temp\ccby6rnL.s 			page 33


 981:.\Generated_Source\PSoC5/ETH0.c **** 	 * Initialize the device and the address configuration, then
 982:.\Generated_Source\PSoC5/ETH0.c **** 	 * execute socket memory initialization for the local allocation
 983:.\Generated_Source\PSoC5/ETH0.c **** 	 * table.
 984:.\Generated_Source\PSoC5/ETH0.c **** 	 */
 985:.\Generated_Source\PSoC5/ETH0.c **** 	int index;
 986:.\Generated_Source\PSoC5/ETH0.c **** 	
 987:.\Generated_Source\PSoC5/ETH0.c **** 	CyDelay( 250 ); /* Fixed Boot Delay or chip inintialization will fail */
 988:.\Generated_Source\PSoC5/ETH0.c **** 	
 989:.\Generated_Source\PSoC5/ETH0.c **** 	/* Reset the device */
 990:.\Generated_Source\PSoC5/ETH0.c **** 	ETH0_SetMode(0x80); /* Send Reset Command */
 991:.\Generated_Source\PSoC5/ETH0.c **** 	/* Wait for the chip initialization delay */
 992:.\Generated_Source\PSoC5/ETH0.c **** 	CyDelay( 10 );
 993:.\Generated_Source\PSoC5/ETH0.c **** 	
 994:.\Generated_Source\PSoC5/ETH0.c **** 	/* Close all of the socket, and clear the memory to make them available. */
 995:.\Generated_Source\PSoC5/ETH0.c **** 	for(index=0;index<4;++index) {
 996:.\Generated_Source\PSoC5/ETH0.c **** 		ETH0_SocketClose( index );
 997:.\Generated_Source\PSoC5/ETH0.c **** 	}
 998:.\Generated_Source\PSoC5/ETH0.c **** 	/* Write the default configruation for memory size to the device */
 999:.\Generated_Source\PSoC5/ETH0.c **** 	ETH0_SetTxMemSize(0x55); /* 2K each */
1000:.\Generated_Source\PSoC5/ETH0.c **** 	ETH0_SetRxMemSize(0x55); /* 2K Each */
1001:.\Generated_Source\PSoC5/ETH0.c **** 	/* Set device gateway address */
1002:.\Generated_Source\PSoC5/ETH0.c **** 	ETH0_SetGatewayAddress(gateway);
1003:.\Generated_Source\PSoC5/ETH0.c **** 	ETH0_SetSubnetMask( subnet );
1004:.\Generated_Source\PSoC5/ETH0.c **** 	/* Store the subnet mask for later use, for ERRATA fix */
1005:.\Generated_Source\PSoC5/ETH0.c **** 	ETH0_SubnetMask = subnet;
1006:.\Generated_Source\PSoC5/ETH0.c **** 	/* store the device mac */
1007:.\Generated_Source\PSoC5/ETH0.c **** 	ETH0_SetSourceMAC( mac );
1008:.\Generated_Source\PSoC5/ETH0.c **** 	/* store the IP address */
1009:.\Generated_Source\PSoC5/ETH0.c **** 	ETH0_SetSourceIP( ip );
1010:.\Generated_Source\PSoC5/ETH0.c **** 	/* clear pending interrupts */
1011:.\Generated_Source\PSoC5/ETH0.c **** 	ETH0_SetIR(0xFF);
1012:.\Generated_Source\PSoC5/ETH0.c **** 	/* clear the subnet mask register (W5100 Errata Fix) */
1013:.\Generated_Source\PSoC5/ETH0.c **** 	ETH0_SetSubnetMask( 0 );
1014:.\Generated_Source\PSoC5/ETH0.c **** }
1015:.\Generated_Source\PSoC5/ETH0.c **** /* ------------------------------------------------------------------------ */
1016:.\Generated_Source\PSoC5/ETH0.c **** void
1017:.\Generated_Source\PSoC5/ETH0.c **** ETH0_Start( void )
1018:.\Generated_Source\PSoC5/ETH0.c **** {
1019:.\Generated_Source\PSoC5/ETH0.c **** 	uint32 ip;
1020:.\Generated_Source\PSoC5/ETH0.c **** 	uint32 gateway;
1021:.\Generated_Source\PSoC5/ETH0.c **** 	uint32 sub;
1022:.\Generated_Source\PSoC5/ETH0.c **** 	
1023:.\Generated_Source\PSoC5/ETH0.c **** 	/* Check for SPI initialization */
1024:.\Generated_Source\PSoC5/ETH0.c **** 	if (SPI0_initVar == 0) {
1025:.\Generated_Source\PSoC5/ETH0.c **** 		/*
1026:.\Generated_Source\PSoC5/ETH0.c **** 		 * the hardware has not yet been initialized.  Before anything can be
1027:.\Generated_Source\PSoC5/ETH0.c **** 		 * initialized within the driver, the external hardware must be started
1028:.\Generated_Source\PSoC5/ETH0.c **** 		 */
1029:.\Generated_Source\PSoC5/ETH0.c **** 		SPI0_Start();
1030:.\Generated_Source\PSoC5/ETH0.c **** 	}
1031:.\Generated_Source\PSoC5/ETH0.c **** 		
1032:.\Generated_Source\PSoC5/ETH0.c **** 	/* wait for power on PLL Lock */
1033:.\Generated_Source\PSoC5/ETH0.c **** 	CyDelay( 10 );
1034:.\Generated_Source\PSoC5/ETH0.c **** 	ip = ETH0_ParseIP("192.168.1.101");
1035:.\Generated_Source\PSoC5/ETH0.c **** 	sub = ETH0_ParseIP("255.255.255.0");
1036:.\Generated_Source\PSoC5/ETH0.c **** 	gateway = ETH0_ParseIP("192.168.1.1");
1037:.\Generated_Source\PSoC5/ETH0.c **** 	/* Initialize the device with the default data */
ARM GAS  C:\Users\CHUCK~1.ERH\AppData\Local\Temp\ccby6rnL.s 			page 34


1038:.\Generated_Source\PSoC5/ETH0.c **** 	ETH0_Init( &ETH0_MAC[0], ip, sub, gateway  );
1039:.\Generated_Source\PSoC5/ETH0.c **** }
1040:.\Generated_Source\PSoC5/ETH0.c **** /* ------------------------------------------------------------------------ */
1041:.\Generated_Source\PSoC5/ETH0.c **** uint32
1042:.\Generated_Source\PSoC5/ETH0.c **** ETH0_ParseIP( const char* ipString )
1043:.\Generated_Source\PSoC5/ETH0.c **** {
1044:.\Generated_Source\PSoC5/ETH0.c **** 	/*
1045:.\Generated_Source\PSoC5/ETH0.c **** 	 * Parse a human readable string in to a IP address usable by the hardare
1046:.\Generated_Source\PSoC5/ETH0.c **** 	 */
1047:.\Generated_Source\PSoC5/ETH0.c **** 	int index;
1048:.\Generated_Source\PSoC5/ETH0.c **** 	char digit[5];
1049:.\Generated_Source\PSoC5/ETH0.c **** 	uint8 ip[4];
1050:.\Generated_Source\PSoC5/ETH0.c **** 	int counter;
1051:.\Generated_Source\PSoC5/ETH0.c **** 	int dindex;
1052:.\Generated_Source\PSoC5/ETH0.c **** 	
1053:.\Generated_Source\PSoC5/ETH0.c **** 	index = 0;
1054:.\Generated_Source\PSoC5/ETH0.c **** 	dindex = 0;
1055:.\Generated_Source\PSoC5/ETH0.c **** 	counter = 0;
1056:.\Generated_Source\PSoC5/ETH0.c **** 	
1057:.\Generated_Source\PSoC5/ETH0.c **** 	while ( (counter < 4) && ((unsigned int)index < strlen(ipString) ) ) {
1058:.\Generated_Source\PSoC5/ETH0.c **** 		if ( (ipString[index] >= '0' ) && (ipString[index] <= '9') ) {
1059:.\Generated_Source\PSoC5/ETH0.c **** 			if (dindex > 3) return( 0xFFFFFFFF );
1060:.\Generated_Source\PSoC5/ETH0.c **** 			digit[dindex++] = ipString[index];
1061:.\Generated_Source\PSoC5/ETH0.c **** 			
1062:.\Generated_Source\PSoC5/ETH0.c **** 		}
1063:.\Generated_Source\PSoC5/ETH0.c **** 		
1064:.\Generated_Source\PSoC5/ETH0.c **** 		if ( (ipString[index] == '.') || (ipString[index+1] == 0) ) {
1065:.\Generated_Source\PSoC5/ETH0.c **** 			digit[dindex] = 0;
1066:.\Generated_Source\PSoC5/ETH0.c **** 			dindex = 0;
1067:.\Generated_Source\PSoC5/ETH0.c **** 			/* convert the value and store in the buffer */
1068:.\Generated_Source\PSoC5/ETH0.c **** 			ip[counter] = 0;
1069:.\Generated_Source\PSoC5/ETH0.c **** 			while (digit[dindex] != 0) {
1070:.\Generated_Source\PSoC5/ETH0.c **** 				ip[counter] = (ip[counter]*10) + (digit[dindex]-'0');
1071:.\Generated_Source\PSoC5/ETH0.c **** 				++dindex;
1072:.\Generated_Source\PSoC5/ETH0.c **** 				// ip[counter] = ...
1073:.\Generated_Source\PSoC5/ETH0.c **** 			}
1074:.\Generated_Source\PSoC5/ETH0.c **** 			/* reset the digit index to start accumulating digits again*/
1075:.\Generated_Source\PSoC5/ETH0.c **** 			dindex = 0;
1076:.\Generated_Source\PSoC5/ETH0.c **** 			/* move to the next address byte */
1077:.\Generated_Source\PSoC5/ETH0.c **** 			++counter;
1078:.\Generated_Source\PSoC5/ETH0.c **** 		}
1079:.\Generated_Source\PSoC5/ETH0.c **** 		++index;
1080:.\Generated_Source\PSoC5/ETH0.c **** 	}
1081:.\Generated_Source\PSoC5/ETH0.c **** 	
1082:.\Generated_Source\PSoC5/ETH0.c **** 	if (counter != 4) {
1083:.\Generated_Source\PSoC5/ETH0.c **** 		return( 0xFFFFFFFF );
1084:.\Generated_Source\PSoC5/ETH0.c **** 	}
1085:.\Generated_Source\PSoC5/ETH0.c **** 	else {
1086:.\Generated_Source\PSoC5/ETH0.c **** 		return( ETH0_IPADDRESS(ip[0], ip[1], ip[2], ip[3]) );
1087:.\Generated_Source\PSoC5/ETH0.c **** 	}
1088:.\Generated_Source\PSoC5/ETH0.c **** }
1089:.\Generated_Source\PSoC5/ETH0.c **** /* ------------------------------------------------------------------------ */
1090:.\Generated_Source\PSoC5/ETH0.c **** uint8
1091:.\Generated_Source\PSoC5/ETH0.c **** ETH0_SetIP( uint32 ip )
1092:.\Generated_Source\PSoC5/ETH0.c **** {
1093:.\Generated_Source\PSoC5/ETH0.c **** 	uint8 ok = 0;
1094:.\Generated_Source\PSoC5/ETH0.c **** 	
ARM GAS  C:\Users\CHUCK~1.ERH\AppData\Local\Temp\ccby6rnL.s 			page 35


1095:.\Generated_Source\PSoC5/ETH0.c **** 	if ( ( ip != 0) && (ip != 0xFFFFFFFF) ) {
1096:.\Generated_Source\PSoC5/ETH0.c **** 		ETH0_SetSourceIP( ip );
1097:.\Generated_Source\PSoC5/ETH0.c **** 		ok = 0xFF;
1098:.\Generated_Source\PSoC5/ETH0.c **** 	}
1099:.\Generated_Source\PSoC5/ETH0.c **** 	
1100:.\Generated_Source\PSoC5/ETH0.c **** 	return ok;
1101:.\Generated_Source\PSoC5/ETH0.c **** }
1102:.\Generated_Source\PSoC5/ETH0.c **** /* ------------------------------------------------------------------------ */
1103:.\Generated_Source\PSoC5/ETH0.c **** uint32
1104:.\Generated_Source\PSoC5/ETH0.c **** ETH0_GetIP( void )
1105:.\Generated_Source\PSoC5/ETH0.c **** {
1106:.\Generated_Source\PSoC5/ETH0.c **** 	return ETH0_GetSourceIP();
1107:.\Generated_Source\PSoC5/ETH0.c **** }
1108:.\Generated_Source\PSoC5/ETH0.c **** /* ------------------------------------------------------------------------ */
1109:.\Generated_Source\PSoC5/ETH0.c **** void
1110:.\Generated_Source\PSoC5/ETH0.c **** ETH0_SetMAC( uint8* mac )
1111:.\Generated_Source\PSoC5/ETH0.c **** {
1112:.\Generated_Source\PSoC5/ETH0.c **** 	ETH0_SetSourceMAC( mac );
1113:.\Generated_Source\PSoC5/ETH0.c **** }
1114:.\Generated_Source\PSoC5/ETH0.c **** /* ------------------------------------------------------------------------ */
1115:.\Generated_Source\PSoC5/ETH0.c **** void
1116:.\Generated_Source\PSoC5/ETH0.c **** ETH0_GetMAC( uint8* mac )
1117:.\Generated_Source\PSoC5/ETH0.c **** {
1118:.\Generated_Source\PSoC5/ETH0.c **** 	ETH0_GetSourceMAC( mac );
1119:.\Generated_Source\PSoC5/ETH0.c **** }
1120:.\Generated_Source\PSoC5/ETH0.c **** #endif
1121:.\Generated_Source\PSoC5/ETH0.c **** /* ======================================================================== */
1122:.\Generated_Source\PSoC5/ETH0.c **** /* Socket Controls */
1123:.\Generated_Source\PSoC5/ETH0.c **** #if (1)
1124:.\Generated_Source\PSoC5/ETH0.c **** /* ------------------------------------------------------------------------ */
1125:.\Generated_Source\PSoC5/ETH0.c **** uint8
1126:.\Generated_Source\PSoC5/ETH0.c **** ETH0_SocketOpen( uint8 Protocol, uint16 port, uint8 flags )
1127:.\Generated_Source\PSoC5/ETH0.c **** {
1128:.\Generated_Source\PSoC5/ETH0.c **** 	uint8 socket;
1129:.\Generated_Source\PSoC5/ETH0.c **** 	int index;
1130:.\Generated_Source\PSoC5/ETH0.c **** 	
1131:.\Generated_Source\PSoC5/ETH0.c **** 	/*
1132:.\Generated_Source\PSoC5/ETH0.c **** 	 * This function will look for the first available socket for allocation
1133:.\Generated_Source\PSoC5/ETH0.c **** 	 * using the defined protocol.  The socket configuration will then be
1134:.\Generated_Source\PSoC5/ETH0.c **** 	 * initialized and saved in the allocation table. If the requested socket
1135:.\Generated_Source\PSoC5/ETH0.c **** 	 * can not be initialized, 0xFF is returned
1136:.\Generated_Source\PSoC5/ETH0.c **** 	 */
1137:.\Generated_Source\PSoC5/ETH0.c **** 	socket = 0xFF;
1138:.\Generated_Source\PSoC5/ETH0.c **** 	/* find the first available socket to open, and how much memory is available */
1139:.\Generated_Source\PSoC5/ETH0.c **** 	for( index = 0;index<4;++index) {
1140:.\Generated_Source\PSoC5/ETH0.c **** 		if ( (socket == 0xFF) && (ETH0_SocketConfig[index].Protocol == 0) ) {
1141:.\Generated_Source\PSoC5/ETH0.c **** 			/*
1142:.\Generated_Source\PSoC5/ETH0.c **** 			 * Since the W5100 does not support MAC mode commucications, check to see
1143:.\Generated_Source\PSoC5/ETH0.c **** 			 * if the socket that is free was socket 0.  If the mac protocol was
1144:.\Generated_Source\PSoC5/ETH0.c **** 			 * selected, ignore socket 0
1145:.\Generated_Source\PSoC5/ETH0.c **** 			 */
1146:.\Generated_Source\PSoC5/ETH0.c **** 			if ( (Protocol != ETH0_PROTO_MAC) || (index != 0) ) {
1147:.\Generated_Source\PSoC5/ETH0.c **** 				/* store this socket number for allocation */
1148:.\Generated_Source\PSoC5/ETH0.c **** 				socket = index;
1149:.\Generated_Source\PSoC5/ETH0.c **** 			}
1150:.\Generated_Source\PSoC5/ETH0.c **** 		}
1151:.\Generated_Source\PSoC5/ETH0.c **** 	}
ARM GAS  C:\Users\CHUCK~1.ERH\AppData\Local\Temp\ccby6rnL.s 			page 36


1152:.\Generated_Source\PSoC5/ETH0.c **** 	if (socket != 0xFF ) {
1153:.\Generated_Source\PSoC5/ETH0.c **** 		/* Store the socket information in the allocation table */
1154:.\Generated_Source\PSoC5/ETH0.c **** 		ETH0_SocketConfig[socket].Protocol = Protocol;
1155:.\Generated_Source\PSoC5/ETH0.c **** 		ETH0_SocketConfig[socket].SocketFlags = flags;
1156:.\Generated_Source\PSoC5/ETH0.c **** 		ETH0_SocketConfig[socket].SourcePort = port;
1157:.\Generated_Source\PSoC5/ETH0.c **** 		ETH0_SocketConfig[socket].ServerFlag = 0;
1158:.\Generated_Source\PSoC5/ETH0.c **** 		/* Send the socket open with the correct protocol information */
1159:.\Generated_Source\PSoC5/ETH0.c **** 		ETH0_SetSocketSourcePort( socket, port );
1160:.\Generated_Source\PSoC5/ETH0.c **** 		ETH0_SetSocketMode( socket, Protocol | flags );
1161:.\Generated_Source\PSoC5/ETH0.c **** 		ETH0_ExecuteSocketCommand( socket, 1 );
1162:.\Generated_Source\PSoC5/ETH0.c **** 	}
1163:.\Generated_Source\PSoC5/ETH0.c **** 	return socket;
1164:.\Generated_Source\PSoC5/ETH0.c **** }
1165:.\Generated_Source\PSoC5/ETH0.c **** /* ------------------------------------------------------------------------ */
1166:.\Generated_Source\PSoC5/ETH0.c **** void
1167:.\Generated_Source\PSoC5/ETH0.c **** ETH0_SocketClose( uint8 socket )
1168:.\Generated_Source\PSoC5/ETH0.c **** {
1169:.\Generated_Source\PSoC5/ETH0.c **** 	/*
1170:.\Generated_Source\PSoC5/ETH0.c **** 	 * Set the socket allocation to empty, and issue the close command
1171:.\Generated_Source\PSoC5/ETH0.c **** 	 * to the socket
1172:.\Generated_Source\PSoC5/ETH0.c **** 	 */
1173:.\Generated_Source\PSoC5/ETH0.c **** 	if (socket < 4) {
1174:.\Generated_Source\PSoC5/ETH0.c **** 		/* clear the socket memory allocations */
1175:.\Generated_Source\PSoC5/ETH0.c **** 		ETH0_SocketConfig[socket].Protocol = 0;
1176:.\Generated_Source\PSoC5/ETH0.c **** 		ETH0_SocketConfig[socket].SocketFlags = 0;
1177:.\Generated_Source\PSoC5/ETH0.c **** 		/* close the socket */
1178:.\Generated_Source\PSoC5/ETH0.c **** 		ETH0_ExecuteSocketCommand( socket, 0x10 );
1179:.\Generated_Source\PSoC5/ETH0.c **** 		/* Clear pending Interrupts */
1180:.\Generated_Source\PSoC5/ETH0.c **** 		ETH0_SetSocketIR( socket, 0xFF);
1181:.\Generated_Source\PSoC5/ETH0.c **** 	}
1182:.\Generated_Source\PSoC5/ETH0.c **** }
1183:.\Generated_Source\PSoC5/ETH0.c **** /* ------------------------------------------------------------------------ */
1184:.\Generated_Source\PSoC5/ETH0.c **** uint8
1185:.\Generated_Source\PSoC5/ETH0.c **** ETH0_SocketProcessConnections( uint8 socket )
1186:.\Generated_Source\PSoC5/ETH0.c **** {
1187:.\Generated_Source\PSoC5/ETH0.c **** 	uint8 status;
1188:.\Generated_Source\PSoC5/ETH0.c **** 	
1189:.\Generated_Source\PSoC5/ETH0.c **** 	status = ETH0_GetSocketStatus(socket);
1190:.\Generated_Source\PSoC5/ETH0.c **** 	/* has a connection termination been requested by remote system */
1191:.\Generated_Source\PSoC5/ETH0.c **** 	if (status == 0x1C) {
1192:.\Generated_Source\PSoC5/ETH0.c **** 		/* Close the socket on this end */
1193:.\Generated_Source\PSoC5/ETH0.c **** 		ETH0_SocketClose(socket);
1194:.\Generated_Source\PSoC5/ETH0.c **** 	}
1195:.\Generated_Source\PSoC5/ETH0.c **** 	return (ETH0_GetSocketStatus(socket) == 0x00);
1196:.\Generated_Source\PSoC5/ETH0.c **** }
1197:.\Generated_Source\PSoC5/ETH0.c **** /* ------------------------------------------------------------------------ */
1198:.\Generated_Source\PSoC5/ETH0.c **** uint8
1199:.\Generated_Source\PSoC5/ETH0.c **** ETH0_SocketEstablished( uint8 socket )
1200:.\Generated_Source\PSoC5/ETH0.c **** {
1201:.\Generated_Source\PSoC5/ETH0.c **** 	return (ETH0_GetSocketStatus( socket ) == 0x17);
1202:.\Generated_Source\PSoC5/ETH0.c **** }
1203:.\Generated_Source\PSoC5/ETH0.c **** /* ------------------------------------------------------------------------ */
1204:.\Generated_Source\PSoC5/ETH0.c **** /**
1205:.\Generated_Source\PSoC5/ETH0.c ****  * \brief Transmit a SEND operation over a socket
1206:.\Generated_Source\PSoC5/ETH0.c ****  * \param socket the socket to which the send command will be sent
1207:.\Generated_Source\PSoC5/ETH0.c ****  */
1208:.\Generated_Source\PSoC5/ETH0.c **** static void
ARM GAS  C:\Users\CHUCK~1.ERH\AppData\Local\Temp\ccby6rnL.s 			page 37


1209:.\Generated_Source\PSoC5/ETH0.c **** ETH0_SocketSend(uint8 socket )
1210:.\Generated_Source\PSoC5/ETH0.c **** {
 765              		.loc 1 1210 0
 766              		.cfi_startproc
 767              		@ args = 0, pretend = 0, frame = 0
 768              		@ frame_needed = 0, uses_anonymous_args = 0
 769              	.LVL86:
 770              	.LBB62:
 771              	.LBB63:
 396:.\Generated_Source\PSoC5/ETH0.c **** static void ETH0_SetSubnetMask( uint32 ip ) { ETH0_W51_SetIP(5, ip); }
 772              		.loc 1 396 0
 773 0000 114B     		ldr	r3, .L48
 774              	.LBE63:
 775              	.LBE62:
 776              		.loc 1 1210 0
 777 0002 10B5     		push	{r4, lr}
 778              	.LCFI11:
 779              		.cfi_def_cfa_offset 8
 780              		.cfi_offset 4, -8
 781              		.cfi_offset 14, -4
 782              	.LBB66:
 783              	.LBB64:
 396:.\Generated_Source\PSoC5/ETH0.c **** static void ETH0_SetSubnetMask( uint32 ip ) { ETH0_W51_SetIP(5, ip); }
 784              		.loc 1 396 0
 785 0004 1968     		ldr	r1, [r3, #0]
 786              	.LBE64:
 787              	.LBE66:
 788              		.loc 1 1210 0
 789 0006 0446     		mov	r4, r0
 790              	.LBB67:
 791              	.LBB65:
 396:.\Generated_Source\PSoC5/ETH0.c **** static void ETH0_SetSubnetMask( uint32 ip ) { ETH0_W51_SetIP(5, ip); }
 792              		.loc 1 396 0
 793 0008 0520     		movs	r0, #5
 794              	.LVL87:
 795 000a FFF7FEFF 		bl	ETH0_W51_SetIP
 796              	.LVL88:
 797              	.LBE65:
 798              	.LBE67:
1211:.\Generated_Source\PSoC5/ETH0.c **** 	uint8 ir;
1212:.\Generated_Source\PSoC5/ETH0.c **** 	
1213:.\Generated_Source\PSoC5/ETH0.c **** 	/* initialize the subnet mask register : ERRATA FIX */
1214:.\Generated_Source\PSoC5/ETH0.c **** 	ETH0_SetSubnetMask( ETH0_SubnetMask );
1215:.\Generated_Source\PSoC5/ETH0.c **** 	/* Issue the SEND command */
1216:.\Generated_Source\PSoC5/ETH0.c **** 	ETH0_ExecuteSocketCommand( socket, 0x20 );
 799              		.loc 1 1216 0
 800 000e 2046     		mov	r0, r4
 801 0010 2021     		movs	r1, #32
 802 0012 FFF7FEFF 		bl	ETH0_ExecuteSocketCommand
 803              	.LVL89:
 804              	.LBB68:
 805              	.LBB69:
 581:.\Generated_Source\PSoC5/ETH0.c **** { return ETH0_W51_Read(ETH0_SOCKET_BASE(socket)+2); }
 806              		.loc 1 581 0
 807 0016 2002     		lsls	r0, r4, #8
 808 0018 00F20241 		addw	r1, r0, #1026
 809 001c 8CB2     		uxth	r4, r1
ARM GAS  C:\Users\CHUCK~1.ERH\AppData\Local\Temp\ccby6rnL.s 			page 38


 810              	.LVL90:
 811              	.L46:
 812              	.LBE69:
 813              	.LBE68:
 814              	.LBB70:
 815              	.LBB71:
 816 001e 2046     		mov	r0, r4
 817 0020 FFF7FEFF 		bl	ETH0_W51_Read
 818              	.LVL91:
 819              	.LBE71:
 820              	.LBE70:
1217:.\Generated_Source\PSoC5/ETH0.c **** 	/* wait for the SEND to complete, or for a timeout */
1218:.\Generated_Source\PSoC5/ETH0.c **** 	ir = ETH0_GetSocketIR( socket );
1219:.\Generated_Source\PSoC5/ETH0.c **** 	/* while SEND is not done, and the socket hasnot timed out or been dsconnected */
1220:.\Generated_Source\PSoC5/ETH0.c **** 	while ( ((ir & 0x10) == 0) && (!(ir&0x0A)) ) {
 821              		.loc 1 1220 0
 822 0024 10F01A0F 		tst	r0, #26
 823 0028 03D1     		bne	.L47
 824              	.L45:
1221:.\Generated_Source\PSoC5/ETH0.c **** 		CyDelay(1);
 825              		.loc 1 1221 0
 826 002a 0120     		movs	r0, #1
 827              	.LVL92:
 828 002c FFF7FEFF 		bl	CyDelay
 829              	.LVL93:
 830 0030 F5E7     		b	.L46
 831              	.LVL94:
 832              	.L47:
 833              	.LBB72:
 834              	.LBB73:
 573:.\Generated_Source\PSoC5/ETH0.c **** { ETH0_W51_Write(ETH0_SOCKET_BASE(socket)+2,ir); }
 835              		.loc 1 573 0
 836 0032 2046     		mov	r0, r4
 837              	.LVL95:
 838 0034 1021     		movs	r1, #16
 839 0036 FFF7FEFF 		bl	ETH0_W51_Write
 840              	.LVL96:
 841              	.LBE73:
 842              	.LBE72:
 843              	.LBB74:
 844              	.LBB75:
 396:.\Generated_Source\PSoC5/ETH0.c **** static void ETH0_SetSubnetMask( uint32 ip ) { ETH0_W51_SetIP(5, ip); }
 845              		.loc 1 396 0
 846 003a 0520     		movs	r0, #5
 847 003c 0021     		movs	r1, #0
 848              	.LBE75:
 849              	.LBE74:
1222:.\Generated_Source\PSoC5/ETH0.c **** 		ir = ETH0_GetSocketIR( socket );
1223:.\Generated_Source\PSoC5/ETH0.c **** 		
1224:.\Generated_Source\PSoC5/ETH0.c **** 	}
1225:.\Generated_Source\PSoC5/ETH0.c **** 	/* clear the SEND_OK flag from the register */
1226:.\Generated_Source\PSoC5/ETH0.c **** 	ETH0_SetSocketIR( socket, 0x10 );
1227:.\Generated_Source\PSoC5/ETH0.c **** 	/* reset the subnet mask : ERRATA FIX */
1228:.\Generated_Source\PSoC5/ETH0.c **** 	ETH0_SetSubnetMask( 0 );
1229:.\Generated_Source\PSoC5/ETH0.c **** }
 850              		.loc 1 1229 0
 851 003e BDE81040 		pop	{r4, lr}
ARM GAS  C:\Users\CHUCK~1.ERH\AppData\Local\Temp\ccby6rnL.s 			page 39


 852              	.LBB77:
 853              	.LBB76:
 396:.\Generated_Source\PSoC5/ETH0.c **** static void ETH0_SetSubnetMask( uint32 ip ) { ETH0_W51_SetIP(5, ip); }
 854              		.loc 1 396 0
 855 0042 FFF7FEBF 		b	ETH0_W51_SetIP
 856              	.LVL97:
 857              	.L49:
 858 0046 00BF     		.align	2
 859              	.L48:
 860 0048 00000000 		.word	.LANCHOR0
 861              	.LBE76:
 862              	.LBE77:
 863              		.cfi_endproc
 864              	.LFE85:
 865              		.size	ETH0_SocketSend, .-ETH0_SocketSend
 866              		.section	.text.ETH0_ParseIP,"ax",%progbits
 867              		.align	1
 868              		.global	ETH0_ParseIP
 869              		.thumb
 870              		.thumb_func
 871              		.type	ETH0_ParseIP, %function
 872              	ETH0_ParseIP:
 873              	.LFB76:
1043:.\Generated_Source\PSoC5/ETH0.c **** {
 874              		.loc 1 1043 0
 875              		.cfi_startproc
 876              		@ args = 0, pretend = 0, frame = 16
 877              		@ frame_needed = 0, uses_anonymous_args = 0
 878              	.LVL98:
 879 0000 F0B5     		push	{r4, r5, r6, r7, lr}
 880              	.LCFI12:
 881              		.cfi_def_cfa_offset 20
 882              		.cfi_offset 4, -20
 883              		.cfi_offset 5, -16
 884              		.cfi_offset 6, -12
 885              		.cfi_offset 7, -8
 886              		.cfi_offset 14, -4
1054:.\Generated_Source\PSoC5/ETH0.c **** 	dindex = 0;
 887              		.loc 1 1054 0
 888 0002 0024     		movs	r4, #0
1043:.\Generated_Source\PSoC5/ETH0.c **** {
 889              		.loc 1 1043 0
 890 0004 85B0     		sub	sp, sp, #20
 891              	.LCFI13:
 892              		.cfi_def_cfa_offset 40
1043:.\Generated_Source\PSoC5/ETH0.c **** {
 893              		.loc 1 1043 0
 894 0006 0746     		mov	r7, r0
1055:.\Generated_Source\PSoC5/ETH0.c **** 	counter = 0;
 895              		.loc 1 1055 0
 896 0008 2546     		mov	r5, r4
1053:.\Generated_Source\PSoC5/ETH0.c **** 	index = 0;
 897              		.loc 1 1053 0
 898 000a 2646     		mov	r6, r4
 899              	.LVL99:
 900              	.L51:
1057:.\Generated_Source\PSoC5/ETH0.c **** 	while ( (counter < 4) && ((unsigned int)index < strlen(ipString) ) ) {
ARM GAS  C:\Users\CHUCK~1.ERH\AppData\Local\Temp\ccby6rnL.s 			page 40


 901              		.loc 1 1057 0 discriminator 2
 902 000c 3846     		mov	r0, r7
 903 000e FFF7FEFF 		bl	strlen
 904              	.LVL100:
 905 0012 8642     		cmp	r6, r0
 906 0014 06D2     		bcs	.L62
 907              	.L61:
1058:.\Generated_Source\PSoC5/ETH0.c **** 		if ( (ipString[index] >= '0' ) && (ipString[index] <= '9') ) {
 908              		.loc 1 1058 0
 909 0016 BB5D     		ldrb	r3, [r7, r6]	@ zero_extendqisi2
 910 0018 A3F13002 		sub	r2, r3, #48
 911 001c 092A     		cmp	r2, #9
 912 001e 0AD8     		bhi	.L52
1059:.\Generated_Source\PSoC5/ETH0.c **** 			if (dindex > 3) return( 0xFFFFFFFF );
 913              		.loc 1 1059 0
 914 0020 032C     		cmp	r4, #3
 915 0022 02DD     		ble	.L53
 916              	.L62:
 917 0024 4FF0FF30 		mov	r0, #-1
 918 0028 37E0     		b	.L54
 919              	.L53:
1060:.\Generated_Source\PSoC5/ETH0.c **** 			digit[dindex++] = ipString[index];
 920              		.loc 1 1060 0
 921 002a 04A9     		add	r1, sp, #16
 922 002c 0819     		adds	r0, r1, r4
 923 002e 00F8083C 		strb	r3, [r0, #-8]
 924 0032 0134     		adds	r4, r4, #1
 925              	.LVL101:
 926 0034 01E0     		b	.L55
 927              	.LVL102:
 928              	.L52:
1064:.\Generated_Source\PSoC5/ETH0.c **** 		if ( (ipString[index] == '.') || (ipString[index+1] == 0) ) {
 929              		.loc 1 1064 0
 930 0036 2E2B     		cmp	r3, #46
 931 0038 02D0     		beq	.L56
 932              	.L55:
1042:.\Generated_Source\PSoC5/ETH0.c **** ETH0_ParseIP( const char* ipString )
 933              		.loc 1 1042 0 discriminator 1
 934 003a BB19     		adds	r3, r7, r6
1064:.\Generated_Source\PSoC5/ETH0.c **** 		if ( (ipString[index] == '.') || (ipString[index+1] == 0) ) {
 935              		.loc 1 1064 0 discriminator 1
 936 003c 5A78     		ldrb	r2, [r3, #1]	@ zero_extendqisi2
 937 003e CAB9     		cbnz	r2, .L57
 938              	.L56:
1068:.\Generated_Source\PSoC5/ETH0.c **** 			ip[counter] = 0;
 939              		.loc 1 1068 0
 940 0040 04AB     		add	r3, sp, #16
1065:.\Generated_Source\PSoC5/ETH0.c **** 			digit[dindex] = 0;
 941              		.loc 1 1065 0
 942 0042 04A9     		add	r1, sp, #16
 943 0044 0020     		movs	r0, #0
1068:.\Generated_Source\PSoC5/ETH0.c **** 			ip[counter] = 0;
 944              		.loc 1 1068 0
 945 0046 5A19     		adds	r2, r3, r5
1065:.\Generated_Source\PSoC5/ETH0.c **** 			digit[dindex] = 0;
 946              		.loc 1 1065 0
 947 0048 0C19     		adds	r4, r1, r4
ARM GAS  C:\Users\CHUCK~1.ERH\AppData\Local\Temp\ccby6rnL.s 			page 41


 948              	.LVL103:
 949 004a 04F8080C 		strb	r0, [r4, #-8]
 950              	.LVL104:
1068:.\Generated_Source\PSoC5/ETH0.c **** 			ip[counter] = 0;
 951              		.loc 1 1068 0
 952 004e 02F80C0C 		strb	r0, [r2, #-12]
1042:.\Generated_Source\PSoC5/ETH0.c **** ETH0_ParseIP( const char* ipString )
 953              		.loc 1 1042 0
 954 0052 0DF10703 		add	r3, sp, #7
 955              	.LVL105:
 956              	.L58:
1069:.\Generated_Source\PSoC5/ETH0.c **** 			while (digit[dindex] != 0) {
 957              		.loc 1 1069 0 discriminator 1
 958 0056 13F8014F 		ldrb	r4, [r3, #1]!	@ zero_extendqisi2
 959 005a 54B1     		cbz	r4, .L66
 960              	.L59:
1070:.\Generated_Source\PSoC5/ETH0.c **** 				ip[counter] = (ip[counter]*10) + (digit[dindex]-'0');
 961              		.loc 1 1070 0
 962 005c 04AA     		add	r2, sp, #16
 963 005e 5219     		adds	r2, r2, r5
 964 0060 12F80C1C 		ldrb	r1, [r2, #-12]	@ zero_extendqisi2
 965 0064 303C     		subs	r4, r4, #48
 966 0066 0A20     		movs	r0, #10
 967 0068 00FB0144 		mla	r4, r0, r1, r4
 968 006c 02F80C4C 		strb	r4, [r2, #-12]
 969 0070 F1E7     		b	.L58
 970              	.L66:
 971              	.LVL106:
1077:.\Generated_Source\PSoC5/ETH0.c **** 			++counter;
 972              		.loc 1 1077 0
 973 0072 0135     		adds	r5, r5, #1
 974              	.LVL107:
 975              	.L57:
1079:.\Generated_Source\PSoC5/ETH0.c **** 		++index;
 976              		.loc 1 1079 0
 977 0074 0136     		adds	r6, r6, #1
 978              	.LVL108:
1057:.\Generated_Source\PSoC5/ETH0.c **** 	while ( (counter < 4) && ((unsigned int)index < strlen(ipString) ) ) {
 979              		.loc 1 1057 0
 980 0076 032D     		cmp	r5, #3
 981 0078 C8DD     		ble	.L51
 982              	.L60:
1082:.\Generated_Source\PSoC5/ETH0.c **** 	if (counter != 4) {
 983              		.loc 1 1082 0
 984 007a 042D     		cmp	r5, #4
 985 007c D2D1     		bne	.L62
1086:.\Generated_Source\PSoC5/ETH0.c **** 		return( ETH0_IPADDRESS(ip[0], ip[1], ip[2], ip[3]) );
 986              		.loc 1 1086 0
 987 007e 9DF80710 		ldrb	r1, [sp, #7]	@ zero_extendqisi2
 988 0082 9DF80400 		ldrb	r0, [sp, #4]	@ zero_extendqisi2
 989 0086 9DF80530 		ldrb	r3, [sp, #5]	@ zero_extendqisi2
 990 008a 00EB0162 		add	r2, r0, r1, lsl #24
 991 008e 9DF80600 		ldrb	r0, [sp, #6]	@ zero_extendqisi2
 992 0092 02EB0321 		add	r1, r2, r3, lsl #8
 993 0096 01EB0040 		add	r0, r1, r0, lsl #16
 994              	.LVL109:
 995              	.L54:
ARM GAS  C:\Users\CHUCK~1.ERH\AppData\Local\Temp\ccby6rnL.s 			page 42


1088:.\Generated_Source\PSoC5/ETH0.c **** }
 996              		.loc 1 1088 0
 997 009a 05B0     		add	sp, sp, #20
 998 009c F0BD     		pop	{r4, r5, r6, r7, pc}
 999              		.cfi_endproc
 1000              	.LFE76:
 1001              		.size	ETH0_ParseIP, .-ETH0_ParseIP
 1002              		.section	.text.ETH0_SetIP,"ax",%progbits
 1003              		.align	1
 1004              		.global	ETH0_SetIP
 1005              		.thumb
 1006              		.thumb_func
 1007              		.type	ETH0_SetIP, %function
 1008              	ETH0_SetIP:
 1009              	.LFB77:
1092:.\Generated_Source\PSoC5/ETH0.c **** {
 1010              		.loc 1 1092 0
 1011              		.cfi_startproc
 1012              		@ args = 0, pretend = 0, frame = 0
 1013              		@ frame_needed = 0, uses_anonymous_args = 0
 1014              	.LVL110:
 1015 0000 08B5     		push	{r3, lr}
 1016              	.LCFI14:
 1017              		.cfi_def_cfa_offset 8
 1018              		.cfi_offset 3, -8
 1019              		.cfi_offset 14, -4
1095:.\Generated_Source\PSoC5/ETH0.c **** 	if ( ( ip != 0) && (ip != 0xFFFFFFFF) ) {
 1020              		.loc 1 1095 0
 1021 0002 431E     		subs	r3, r0, #1
 1022 0004 0333     		adds	r3, r3, #3
1092:.\Generated_Source\PSoC5/ETH0.c **** {
 1023              		.loc 1 1092 0
 1024 0006 0146     		mov	r1, r0
1095:.\Generated_Source\PSoC5/ETH0.c **** 	if ( ( ip != 0) && (ip != 0xFFFFFFFF) ) {
 1025              		.loc 1 1095 0
 1026 0008 04D8     		bhi	.L69
 1027              	.LVL111:
 1028              	.LBB80:
 1029              	.LBB81:
 408:.\Generated_Source\PSoC5/ETH0.c **** static void ETH0_SetSourceIP( uint32 ip ) { ETH0_W51_SetIP( 0x0F, ip ); }
 1030              		.loc 1 408 0
 1031 000a 0F20     		movs	r0, #15
 1032              	.LVL112:
 1033 000c FFF7FEFF 		bl	ETH0_W51_SetIP
 1034              	.LVL113:
1097:.\Generated_Source\PSoC5/ETH0.c **** 		ok = 0xFF;
 1035              		.loc 1 1097 0
 1036 0010 FF20     		movs	r0, #255
 1037 0012 08BD     		pop	{r3, pc}
 1038              	.LVL114:
 1039              	.L69:
 1040              	.LBE81:
 1041              	.LBE80:
1093:.\Generated_Source\PSoC5/ETH0.c **** 	uint8 ok = 0;
 1042              		.loc 1 1093 0
 1043 0014 0020     		movs	r0, #0
 1044              	.LVL115:
ARM GAS  C:\Users\CHUCK~1.ERH\AppData\Local\Temp\ccby6rnL.s 			page 43


1101:.\Generated_Source\PSoC5/ETH0.c **** }
 1045              		.loc 1 1101 0
 1046 0016 08BD     		pop	{r3, pc}
 1047              		.cfi_endproc
 1048              	.LFE77:
 1049              		.size	ETH0_SetIP, .-ETH0_SetIP
 1050              		.section	.text.ETH0_GetIP,"ax",%progbits
 1051              		.align	1
 1052              		.global	ETH0_GetIP
 1053              		.thumb
 1054              		.thumb_func
 1055              		.type	ETH0_GetIP, %function
 1056              	ETH0_GetIP:
 1057              	.LFB78:
1105:.\Generated_Source\PSoC5/ETH0.c **** {
 1058              		.loc 1 1105 0
 1059              		.cfi_startproc
 1060              		@ args = 0, pretend = 0, frame = 8
 1061              		@ frame_needed = 0, uses_anonymous_args = 0
 1062              	.LVL116:
 1063 0000 13B5     		push	{r0, r1, r4, lr}
 1064              	.LCFI15:
 1065              		.cfi_def_cfa_offset 16
 1066              		.cfi_offset 0, -16
 1067              		.cfi_offset 1, -12
 1068              		.cfi_offset 4, -8
 1069              		.cfi_offset 14, -4
 1070              	.LVL117:
 1071              	.LBB86:
 1072              	.LBB87:
 1073              	.LBB88:
 298:.\Generated_Source\PSoC5/ETH0.c **** 	*ip = 0;
 1074              		.loc 1 298 0
 1075 0002 0024     		movs	r4, #0
 1076 0004 0194     		str	r4, [sp, #4]
 1077              	.LVL118:
 1078              	.L71:
1104:.\Generated_Source\PSoC5/ETH0.c **** ETH0_GetIP( void )
 1079              		.loc 1 1104 0
 1080 0006 04F10F00 		add	r0, r4, #15
 300:.\Generated_Source\PSoC5/ETH0.c **** 		buffer[index] = ETH0_W51_Read(addr+index);
 1081              		.loc 1 300 0
 1082 000a 80B2     		uxth	r0, r0
 1083 000c FFF7FEFF 		bl	ETH0_W51_Read
 1084              	.LVL119:
 1085 0010 01AB     		add	r3, sp, #4
 1086              	.LVL120:
 1087 0012 1855     		strb	r0, [r3, r4]
 299:.\Generated_Source\PSoC5/ETH0.c **** 	for(index=0;index<4;++index) {
 1088              		.loc 1 299 0
 1089 0014 0134     		adds	r4, r4, #1
 1090              	.LVL121:
 1091 0016 042C     		cmp	r4, #4
 1092 0018 F5D1     		bne	.L71
 1093              	.LBE88:
 1094              	.LBE87:
 1095              	.LBE86:
ARM GAS  C:\Users\CHUCK~1.ERH\AppData\Local\Temp\ccby6rnL.s 			page 44


1107:.\Generated_Source\PSoC5/ETH0.c **** }
 1096              		.loc 1 1107 0
 1097 001a 0198     		ldr	r0, [sp, #4]
 1098 001c 1CBD     		pop	{r2, r3, r4, pc}
 1099              		.cfi_endproc
 1100              	.LFE78:
 1101              		.size	ETH0_GetIP, .-ETH0_GetIP
 1102              		.section	.text.ETH0_SetMAC,"ax",%progbits
 1103              		.align	1
 1104              		.global	ETH0_SetMAC
 1105              		.thumb
 1106              		.thumb_func
 1107              		.type	ETH0_SetMAC, %function
 1108              	ETH0_SetMAC:
 1109              	.LFB79:
1111:.\Generated_Source\PSoC5/ETH0.c **** {
 1110              		.loc 1 1111 0
 1111              		.cfi_startproc
 1112              		@ args = 0, pretend = 0, frame = 0
 1113              		@ frame_needed = 0, uses_anonymous_args = 0
 1114              	.LVL122:
 1115 0000 38B5     		push	{r3, r4, r5, lr}
 1116              	.LCFI16:
 1117              		.cfi_def_cfa_offset 16
 1118              		.cfi_offset 3, -16
 1119              		.cfi_offset 4, -12
 1120              		.cfi_offset 5, -8
 1121              		.cfi_offset 14, -4
1111:.\Generated_Source\PSoC5/ETH0.c **** {
 1122              		.loc 1 1111 0
 1123 0002 0546     		mov	r5, r0
 1124              	.LVL123:
 251:.\Generated_Source\PSoC5/ETH0.c **** 	for(index = 0;index<6;++index)
 1125              		.loc 1 251 0
 1126 0004 0024     		movs	r4, #0
 1127              	.LVL124:
 1128              	.L74:
 1129              	.LBB93:
 1130              	.LBB94:
 1131              	.LBB95:
1110:.\Generated_Source\PSoC5/ETH0.c **** ETH0_SetMAC( uint8* mac )
 1132              		.loc 1 1110 0
 1133 0006 04F10900 		add	r0, r4, #9
 253:.\Generated_Source\PSoC5/ETH0.c **** 		ETH0_W51_Write(addr+index,mac[index]);
 1134              		.loc 1 253 0
 1135 000a 295D     		ldrb	r1, [r5, r4]	@ zero_extendqisi2
 1136 000c 80B2     		uxth	r0, r0
 251:.\Generated_Source\PSoC5/ETH0.c **** 	for(index = 0;index<6;++index)
 1137              		.loc 1 251 0
 1138 000e 0134     		adds	r4, r4, #1
 253:.\Generated_Source\PSoC5/ETH0.c **** 		ETH0_W51_Write(addr+index,mac[index]);
 1139              		.loc 1 253 0
 1140 0010 FFF7FEFF 		bl	ETH0_W51_Write
 1141              	.LVL125:
 251:.\Generated_Source\PSoC5/ETH0.c **** 	for(index = 0;index<6;++index)
 1142              		.loc 1 251 0
 1143 0014 062C     		cmp	r4, #6
ARM GAS  C:\Users\CHUCK~1.ERH\AppData\Local\Temp\ccby6rnL.s 			page 45


 1144 0016 F6D1     		bne	.L74
 1145              	.LBE95:
 1146              	.LBE94:
 1147              	.LBE93:
1113:.\Generated_Source\PSoC5/ETH0.c **** }
 1148              		.loc 1 1113 0
 1149 0018 38BD     		pop	{r3, r4, r5, pc}
 1150              		.cfi_endproc
 1151              	.LFE79:
 1152              		.size	ETH0_SetMAC, .-ETH0_SetMAC
 1153              		.section	.text.ETH0_GetMAC,"ax",%progbits
 1154              		.align	1
 1155              		.global	ETH0_GetMAC
 1156              		.thumb
 1157              		.thumb_func
 1158              		.type	ETH0_GetMAC, %function
 1159              	ETH0_GetMAC:
 1160              	.LFB80:
1117:.\Generated_Source\PSoC5/ETH0.c **** {
 1161              		.loc 1 1117 0
 1162              		.cfi_startproc
 1163              		@ args = 0, pretend = 0, frame = 0
 1164              		@ frame_needed = 0, uses_anonymous_args = 0
 1165              	.LVL126:
 1166 0000 38B5     		push	{r3, r4, r5, lr}
 1167              	.LCFI17:
 1168              		.cfi_def_cfa_offset 16
 1169              		.cfi_offset 3, -16
 1170              		.cfi_offset 4, -12
 1171              		.cfi_offset 5, -8
 1172              		.cfi_offset 14, -4
1117:.\Generated_Source\PSoC5/ETH0.c **** {
 1173              		.loc 1 1117 0
 1174 0002 0546     		mov	r5, r0
 1175              	.LVL127:
 265:.\Generated_Source\PSoC5/ETH0.c **** 	for(index=0;index<6;++index) {
 1176              		.loc 1 265 0
 1177 0004 0024     		movs	r4, #0
 1178              	.LVL128:
 1179              	.L77:
 1180              	.LBB100:
 1181              	.LBB101:
 1182              	.LBB102:
1116:.\Generated_Source\PSoC5/ETH0.c **** ETH0_GetMAC( uint8* mac )
 1183              		.loc 1 1116 0
 1184 0006 04F10900 		add	r0, r4, #9
 266:.\Generated_Source\PSoC5/ETH0.c **** 		mac[index] = ETH0_W51_Read(addr+index);
 1185              		.loc 1 266 0
 1186 000a 80B2     		uxth	r0, r0
 1187 000c FFF7FEFF 		bl	ETH0_W51_Read
 1188              	.LVL129:
 1189 0010 2855     		strb	r0, [r5, r4]
 265:.\Generated_Source\PSoC5/ETH0.c **** 	for(index=0;index<6;++index) {
 1190              		.loc 1 265 0
 1191 0012 0134     		adds	r4, r4, #1
 1192              	.LVL130:
 1193 0014 062C     		cmp	r4, #6
ARM GAS  C:\Users\CHUCK~1.ERH\AppData\Local\Temp\ccby6rnL.s 			page 46


 1194 0016 F6D1     		bne	.L77
 1195              	.LBE102:
 1196              	.LBE101:
 1197              	.LBE100:
1119:.\Generated_Source\PSoC5/ETH0.c **** }
 1198              		.loc 1 1119 0
 1199 0018 38BD     		pop	{r3, r4, r5, pc}
 1200              		.cfi_endproc
 1201              	.LFE80:
 1202              		.size	ETH0_GetMAC, .-ETH0_GetMAC
 1203              		.section	.text.ETH0_SocketOpen,"ax",%progbits
 1204              		.align	1
 1205              		.global	ETH0_SocketOpen
 1206              		.thumb
 1207              		.thumb_func
 1208              		.type	ETH0_SocketOpen, %function
 1209              	ETH0_SocketOpen:
 1210              	.LFB81:
1127:.\Generated_Source\PSoC5/ETH0.c **** {
 1211              		.loc 1 1127 0
 1212              		.cfi_startproc
 1213              		@ args = 0, pretend = 0, frame = 0
 1214              		@ frame_needed = 0, uses_anonymous_args = 0
 1215              	.LVL131:
 1216 0000 F8B5     		push	{r3, r4, r5, r6, r7, lr}
 1217              	.LCFI18:
 1218              		.cfi_def_cfa_offset 24
 1219              		.cfi_offset 3, -24
 1220              		.cfi_offset 4, -20
 1221              		.cfi_offset 5, -16
 1222              		.cfi_offset 6, -12
 1223              		.cfi_offset 7, -8
 1224              		.cfi_offset 14, -4
1127:.\Generated_Source\PSoC5/ETH0.c **** {
 1225              		.loc 1 1127 0
 1226 0002 0546     		mov	r5, r0
 1227 0004 1646     		mov	r6, r2
1139:.\Generated_Source\PSoC5/ETH0.c **** 	for( index = 0;index<4;++index) {
 1228              		.loc 1 1139 0
 1229 0006 0023     		movs	r3, #0
1137:.\Generated_Source\PSoC5/ETH0.c **** 	socket = 0xFF;
 1230              		.loc 1 1137 0
 1231 0008 FF24     		movs	r4, #255
 1232              	.LVL132:
 1233              	.L82:
1140:.\Generated_Source\PSoC5/ETH0.c **** 		if ( (socket == 0xFF) && (ETH0_SocketConfig[index].Protocol == 0) ) {
 1234              		.loc 1 1140 0
 1235 000a FF2C     		cmp	r4, #255
 1236 000c 08D1     		bne	.L80
1126:.\Generated_Source\PSoC5/ETH0.c **** ETH0_SocketOpen( uint8 Protocol, uint16 port, uint8 flags )
 1237              		.loc 1 1126 0 discriminator 1
 1238 000e 0620     		movs	r0, #6
 1239 0010 5843     		muls	r0, r3, r0
1140:.\Generated_Source\PSoC5/ETH0.c **** 		if ( (socket == 0xFF) && (ETH0_SocketConfig[index].Protocol == 0) ) {
 1240              		.loc 1 1140 0 discriminator 1
 1241 0012 154A     		ldr	r2, .L91
 1242 0014 805C     		ldrb	r0, [r0, r2]	@ zero_extendqisi2
ARM GAS  C:\Users\CHUCK~1.ERH\AppData\Local\Temp\ccby6rnL.s 			page 47


 1243 0016 18B9     		cbnz	r0, .L80
1146:.\Generated_Source\PSoC5/ETH0.c **** 			if ( (Protocol != ETH0_PROTO_MAC) || (index != 0) ) {
 1244              		.loc 1 1146 0
 1245 0018 042D     		cmp	r5, #4
 1246 001a 00D1     		bne	.L81
1146:.\Generated_Source\PSoC5/ETH0.c **** 			if ( (Protocol != ETH0_PROTO_MAC) || (index != 0) ) {
 1247              		.loc 1 1146 0 is_stmt 0 discriminator 1
 1248 001c 03B1     		cbz	r3, .L80
 1249              	.L81:
1148:.\Generated_Source\PSoC5/ETH0.c **** 				socket = index;
 1250              		.loc 1 1148 0 is_stmt 1
 1251 001e DCB2     		uxtb	r4, r3
 1252              	.LVL133:
 1253              	.L80:
1139:.\Generated_Source\PSoC5/ETH0.c **** 	for( index = 0;index<4;++index) {
 1254              		.loc 1 1139 0
 1255 0020 0133     		adds	r3, r3, #1
 1256              	.LVL134:
 1257 0022 042B     		cmp	r3, #4
 1258 0024 F1D1     		bne	.L82
1152:.\Generated_Source\PSoC5/ETH0.c **** 	if (socket != 0xFF ) {
 1259              		.loc 1 1152 0
 1260 0026 FF2C     		cmp	r4, #255
 1261 0028 1BD0     		beq	.L83
1154:.\Generated_Source\PSoC5/ETH0.c **** 		ETH0_SocketConfig[socket].Protocol = Protocol;
 1262              		.loc 1 1154 0
 1263 002a 104A     		ldr	r2, .L91+4
 1264 002c 0627     		movs	r7, #6
 1265 002e 07FB0420 		mla	r0, r7, r4, r2
1157:.\Generated_Source\PSoC5/ETH0.c **** 		ETH0_SocketConfig[socket].ServerFlag = 0;
 1266              		.loc 1 1157 0
 1267 0032 0023     		movs	r3, #0
 1268              	.LVL135:
1154:.\Generated_Source\PSoC5/ETH0.c **** 		ETH0_SocketConfig[socket].Protocol = Protocol;
 1269              		.loc 1 1154 0
 1270 0034 071D     		adds	r7, r0, #4
1157:.\Generated_Source\PSoC5/ETH0.c **** 		ETH0_SocketConfig[socket].ServerFlag = 0;
 1271              		.loc 1 1157 0
 1272 0036 3B71     		strb	r3, [r7, #4]
 1273              	.LVL136:
 1274              	.LBB107:
 1275              	.LBB108:
 605:.\Generated_Source\PSoC5/ETH0.c **** { ETH0_W51_Write16(ETH0_SOCKET_BASE(socket)+4,port); }
 1276              		.loc 1 605 0
 1277 0038 2702     		lsls	r7, r4, #8
 1278 003a 07F20442 		addw	r2, r7, #1028
 1279              	.LBE108:
 1280              	.LBE107:
1156:.\Generated_Source\PSoC5/ETH0.c **** 		ETH0_SocketConfig[socket].SourcePort = port;
 1281              		.loc 1 1156 0
 1282 003e C180     		strh	r1, [r0, #6]	@ movhi
1154:.\Generated_Source\PSoC5/ETH0.c **** 		ETH0_SocketConfig[socket].Protocol = Protocol;
 1283              		.loc 1 1154 0
 1284 0040 0571     		strb	r5, [r0, #4]
1155:.\Generated_Source\PSoC5/ETH0.c **** 		ETH0_SocketConfig[socket].SocketFlags = flags;
 1285              		.loc 1 1155 0
 1286 0042 4671     		strb	r6, [r0, #5]
ARM GAS  C:\Users\CHUCK~1.ERH\AppData\Local\Temp\ccby6rnL.s 			page 48


 1287              	.LBB110:
 1288              	.LBB109:
 605:.\Generated_Source\PSoC5/ETH0.c **** { ETH0_W51_Write16(ETH0_SOCKET_BASE(socket)+4,port); }
 1289              		.loc 1 605 0
 1290 0044 90B2     		uxth	r0, r2
 1291 0046 FFF7FEFF 		bl	ETH0_W51_Write16
 1292              	.LVL137:
 1293              	.LBE109:
 1294              	.LBE110:
 1295              	.LBB111:
 1296              	.LBB112:
 541:.\Generated_Source\PSoC5/ETH0.c **** { ETH0_W51_Write(ETH0_SOCKET_BASE(socket), mode); }
 1297              		.loc 1 541 0
 1298 004a 07F58061 		add	r1, r7, #1024
 1299 004e 01F47F40 		and	r0, r1, #65280
 1300 0052 46EA0501 		orr	r1, r6, r5
 1301 0056 FFF7FEFF 		bl	ETH0_W51_Write
 1302              	.LVL138:
 1303              	.LBE112:
 1304              	.LBE111:
1161:.\Generated_Source\PSoC5/ETH0.c **** 		ETH0_ExecuteSocketCommand( socket, 1 );
 1305              		.loc 1 1161 0
 1306 005a 2046     		mov	r0, r4
 1307 005c 0121     		movs	r1, #1
 1308 005e FFF7FEFF 		bl	ETH0_ExecuteSocketCommand
 1309              	.LVL139:
 1310              	.L83:
1164:.\Generated_Source\PSoC5/ETH0.c **** }
 1311              		.loc 1 1164 0
 1312 0062 2046     		mov	r0, r4
 1313 0064 F8BD     		pop	{r3, r4, r5, r6, r7, pc}
 1314              	.L92:
 1315 0066 00BF     		.align	2
 1316              	.L91:
 1317 0068 04000000 		.word	.LANCHOR0+4
 1318 006c 00000000 		.word	.LANCHOR0
 1319              		.cfi_endproc
 1320              	.LFE81:
 1321              		.size	ETH0_SocketOpen, .-ETH0_SocketOpen
 1322              		.section	.text.ETH0_SocketClose,"ax",%progbits
 1323              		.align	1
 1324              		.global	ETH0_SocketClose
 1325              		.thumb
 1326              		.thumb_func
 1327              		.type	ETH0_SocketClose, %function
 1328              	ETH0_SocketClose:
 1329              	.LFB82:
1168:.\Generated_Source\PSoC5/ETH0.c **** {
 1330              		.loc 1 1168 0
 1331              		.cfi_startproc
 1332              		@ args = 0, pretend = 0, frame = 0
 1333              		@ frame_needed = 0, uses_anonymous_args = 0
 1334              	.LVL140:
1173:.\Generated_Source\PSoC5/ETH0.c **** 	if (socket < 4) {
 1335              		.loc 1 1173 0
 1336 0000 0328     		cmp	r0, #3
1168:.\Generated_Source\PSoC5/ETH0.c **** {
ARM GAS  C:\Users\CHUCK~1.ERH\AppData\Local\Temp\ccby6rnL.s 			page 49


 1337              		.loc 1 1168 0
 1338 0002 10B5     		push	{r4, lr}
 1339              	.LCFI19:
 1340              		.cfi_def_cfa_offset 8
 1341              		.cfi_offset 4, -8
 1342              		.cfi_offset 14, -4
1168:.\Generated_Source\PSoC5/ETH0.c **** {
 1343              		.loc 1 1168 0
 1344 0004 0446     		mov	r4, r0
1173:.\Generated_Source\PSoC5/ETH0.c **** 	if (socket < 4) {
 1345              		.loc 1 1173 0
 1346 0006 12D8     		bhi	.L93
 1347              	.LVL141:
 1348              	.LBB117:
 1349              	.LBB118:
1175:.\Generated_Source\PSoC5/ETH0.c **** 		ETH0_SocketConfig[socket].Protocol = 0;
 1350              		.loc 1 1175 0
 1351 0008 094B     		ldr	r3, .L95
 1352 000a 0622     		movs	r2, #6
 1353 000c 02FB0031 		mla	r1, r2, r0, r3
 1354 0010 0022     		movs	r2, #0
 1355 0012 0A71     		strb	r2, [r1, #4]
1176:.\Generated_Source\PSoC5/ETH0.c **** 		ETH0_SocketConfig[socket].SocketFlags = 0;
 1356              		.loc 1 1176 0
 1357 0014 4A71     		strb	r2, [r1, #5]
1178:.\Generated_Source\PSoC5/ETH0.c **** 		ETH0_ExecuteSocketCommand( socket, 0x10 );
 1358              		.loc 1 1178 0
 1359 0016 1021     		movs	r1, #16
 1360 0018 FFF7FEFF 		bl	ETH0_ExecuteSocketCommand
 1361              	.LVL142:
 1362              	.LBB119:
 1363              	.LBB120:
 573:.\Generated_Source\PSoC5/ETH0.c **** { ETH0_W51_Write(ETH0_SOCKET_BASE(socket)+2,ir); }
 1364              		.loc 1 573 0
 1365 001c 2002     		lsls	r0, r4, #8
 1366 001e 00F20243 		addw	r3, r0, #1026
 1367 0022 98B2     		uxth	r0, r3
 1368 0024 FF21     		movs	r1, #255
 1369              	.LBE120:
 1370              	.LBE119:
 1371              	.LBE118:
 1372              	.LBE117:
1182:.\Generated_Source\PSoC5/ETH0.c **** }
 1373              		.loc 1 1182 0
 1374 0026 BDE81040 		pop	{r4, lr}
 1375              	.LBB124:
 1376              	.LBB123:
 1377              	.LBB122:
 1378              	.LBB121:
 573:.\Generated_Source\PSoC5/ETH0.c **** { ETH0_W51_Write(ETH0_SOCKET_BASE(socket)+2,ir); }
 1379              		.loc 1 573 0
 1380 002a FFF7FEBF 		b	ETH0_W51_Write
 1381              	.LVL143:
 1382              	.L93:
 1383 002e 10BD     		pop	{r4, pc}
 1384              	.L96:
 1385              		.align	2
ARM GAS  C:\Users\CHUCK~1.ERH\AppData\Local\Temp\ccby6rnL.s 			page 50


 1386              	.L95:
 1387 0030 00000000 		.word	.LANCHOR0
 1388              	.LBE121:
 1389              	.LBE122:
 1390              	.LBE123:
 1391              	.LBE124:
 1392              		.cfi_endproc
 1393              	.LFE82:
 1394              		.size	ETH0_SocketClose, .-ETH0_SocketClose
 1395              		.section	.text.ETH0_Init,"ax",%progbits
 1396              		.align	1
 1397              		.global	ETH0_Init
 1398              		.thumb
 1399              		.thumb_func
 1400              		.type	ETH0_Init, %function
 1401              	ETH0_Init:
 1402              	.LFB74:
 979:.\Generated_Source\PSoC5/ETH0.c **** {
 1403              		.loc 1 979 0
 1404              		.cfi_startproc
 1405              		@ args = 0, pretend = 0, frame = 0
 1406              		@ frame_needed = 0, uses_anonymous_args = 0
 1407              	.LVL144:
 1408 0000 F8B5     		push	{r3, r4, r5, r6, r7, lr}
 1409              	.LCFI20:
 1410              		.cfi_def_cfa_offset 24
 1411              		.cfi_offset 3, -24
 1412              		.cfi_offset 4, -20
 1413              		.cfi_offset 5, -16
 1414              		.cfi_offset 6, -12
 1415              		.cfi_offset 7, -8
 1416              		.cfi_offset 14, -4
 979:.\Generated_Source\PSoC5/ETH0.c **** {
 1417              		.loc 1 979 0
 1418 0002 0646     		mov	r6, r0
 987:.\Generated_Source\PSoC5/ETH0.c **** 	CyDelay( 250 ); /* Fixed Boot Delay or chip inintialization will fail */
 1419              		.loc 1 987 0
 1420 0004 FA20     		movs	r0, #250
 1421              	.LVL145:
 979:.\Generated_Source\PSoC5/ETH0.c **** {
 1422              		.loc 1 979 0
 1423 0006 1446     		mov	r4, r2
 1424 0008 1F46     		mov	r7, r3
 1425 000a 0D46     		mov	r5, r1
 987:.\Generated_Source\PSoC5/ETH0.c **** 	CyDelay( 250 ); /* Fixed Boot Delay or chip inintialization will fail */
 1426              		.loc 1 987 0
 1427 000c FFF7FEFF 		bl	CyDelay
 1428              	.LVL146:
 1429              	.LBB145:
 1430              	.LBB146:
 420:.\Generated_Source\PSoC5/ETH0.c **** static void ETH0_SetMode( uint8 mode ) { ETH0_W51_Write(0,mode); }
 1431              		.loc 1 420 0
 1432 0010 8021     		movs	r1, #128
 1433 0012 0020     		movs	r0, #0
 1434 0014 FFF7FEFF 		bl	ETH0_W51_Write
 1435              	.LVL147:
 1436              	.LBE146:
ARM GAS  C:\Users\CHUCK~1.ERH\AppData\Local\Temp\ccby6rnL.s 			page 51


 1437              	.LBE145:
 992:.\Generated_Source\PSoC5/ETH0.c **** 	CyDelay( 10 );
 1438              		.loc 1 992 0
 1439 0018 0A20     		movs	r0, #10
 1440 001a FFF7FEFF 		bl	CyDelay
 1441              	.LVL148:
 996:.\Generated_Source\PSoC5/ETH0.c **** 		ETH0_SocketClose( index );
 1442              		.loc 1 996 0
 1443 001e 0020     		movs	r0, #0
 1444 0020 FFF7FEFF 		bl	ETH0_SocketClose
 1445              	.LVL149:
 1446 0024 0120     		movs	r0, #1
 1447 0026 FFF7FEFF 		bl	ETH0_SocketClose
 1448              	.LVL150:
 1449 002a 0220     		movs	r0, #2
 1450 002c FFF7FEFF 		bl	ETH0_SocketClose
 1451              	.LVL151:
 1452 0030 0320     		movs	r0, #3
 1453 0032 FFF7FEFF 		bl	ETH0_SocketClose
 1454              	.LVL152:
 1455              	.LBB147:
 1456              	.LBB148:
 492:.\Generated_Source\PSoC5/ETH0.c **** static void ETH0_SetTxMemSize( uint8 size ) { ETH0_W51_Write( 0x1B, size); }
 1457              		.loc 1 492 0
 1458 0036 1B20     		movs	r0, #27
 1459 0038 5521     		movs	r1, #85
 1460 003a FFF7FEFF 		bl	ETH0_W51_Write
 1461              	.LVL153:
 1462              	.LBE148:
 1463              	.LBE147:
 1464              	.LBB149:
 1465              	.LBB150:
 480:.\Generated_Source\PSoC5/ETH0.c **** static void ETH0_SetRxMemSize( uint8 size ) { ETH0_W51_Write( 0x1A, size ); }
 1466              		.loc 1 480 0
 1467 003e 1A20     		movs	r0, #26
 1468 0040 5521     		movs	r1, #85
 1469 0042 FFF7FEFF 		bl	ETH0_W51_Write
 1470              	.LVL154:
 1471              	.LBE150:
 1472              	.LBE149:
 1473              	.LBB151:
 1474              	.LBB152:
 384:.\Generated_Source\PSoC5/ETH0.c **** static void ETH0_SetGatewayAddress(uint32 ip) { ETH0_W51_SetIP(1,ip); }
 1475              		.loc 1 384 0
 1476 0046 0120     		movs	r0, #1
 1477 0048 3946     		mov	r1, r7
 1478 004a FFF7FEFF 		bl	ETH0_W51_SetIP
 1479              	.LVL155:
 1480              	.LBE152:
 1481              	.LBE151:
 1482              	.LBB153:
 1483              	.LBB154:
 396:.\Generated_Source\PSoC5/ETH0.c **** static void ETH0_SetSubnetMask( uint32 ip ) { ETH0_W51_SetIP(5, ip); }
 1484              		.loc 1 396 0
 1485 004e 2146     		mov	r1, r4
 1486 0050 0520     		movs	r0, #5
 1487 0052 FFF7FEFF 		bl	ETH0_W51_SetIP
ARM GAS  C:\Users\CHUCK~1.ERH\AppData\Local\Temp\ccby6rnL.s 			page 52


 1488              	.LVL156:
 1489              	.LBE154:
 1490              	.LBE153:
1005:.\Generated_Source\PSoC5/ETH0.c **** 	ETH0_SubnetMask = subnet;
 1491              		.loc 1 1005 0
 1492 0056 0D4B     		ldr	r3, .L100
 1493 0058 1C60     		str	r4, [r3, #0]
 1494              	.LVL157:
 251:.\Generated_Source\PSoC5/ETH0.c **** 	for(index = 0;index<6;++index)
 1495              		.loc 1 251 0
 1496 005a 0024     		movs	r4, #0
 1497              	.LVL158:
 1498              	.L98:
 1499              	.LBB155:
 1500              	.LBB156:
 1501              	.LBB157:
 978:.\Generated_Source\PSoC5/ETH0.c **** ETH0_Init(uint8* mac, uint32 ip, uint32 subnet, uint32 gateway)
 1502              		.loc 1 978 0
 1503 005c 04F10900 		add	r0, r4, #9
 253:.\Generated_Source\PSoC5/ETH0.c **** 		ETH0_W51_Write(addr+index,mac[index]);
 1504              		.loc 1 253 0
 1505 0060 315D     		ldrb	r1, [r6, r4]	@ zero_extendqisi2
 1506 0062 80B2     		uxth	r0, r0
 251:.\Generated_Source\PSoC5/ETH0.c **** 	for(index = 0;index<6;++index)
 1507              		.loc 1 251 0
 1508 0064 0134     		adds	r4, r4, #1
 253:.\Generated_Source\PSoC5/ETH0.c **** 		ETH0_W51_Write(addr+index,mac[index]);
 1509              		.loc 1 253 0
 1510 0066 FFF7FEFF 		bl	ETH0_W51_Write
 1511              	.LVL159:
 251:.\Generated_Source\PSoC5/ETH0.c **** 	for(index = 0;index<6;++index)
 1512              		.loc 1 251 0
 1513 006a 062C     		cmp	r4, #6
 1514 006c F6D1     		bne	.L98
 1515              	.LVL160:
 1516              	.LBE157:
 1517              	.LBE156:
 1518              	.LBE155:
 1519              	.LBB158:
 1520              	.LBB159:
 408:.\Generated_Source\PSoC5/ETH0.c **** static void ETH0_SetSourceIP( uint32 ip ) { ETH0_W51_SetIP( 0x0F, ip ); }
 1521              		.loc 1 408 0
 1522 006e 0F20     		movs	r0, #15
 1523 0070 2946     		mov	r1, r5
 1524 0072 FFF7FEFF 		bl	ETH0_W51_SetIP
 1525              	.LVL161:
 1526              	.LBE159:
 1527              	.LBE158:
 1528              	.LBB160:
 1529              	.LBB161:
 432:.\Generated_Source\PSoC5/ETH0.c **** static void ETH0_SetIR( uint8 ir ) { ETH0_W51_Write(0x0015,ir); }
 1530              		.loc 1 432 0
 1531 0076 1520     		movs	r0, #21
 1532 0078 FF21     		movs	r1, #255
 1533 007a FFF7FEFF 		bl	ETH0_W51_Write
 1534              	.LVL162:
 1535              	.LBE161:
ARM GAS  C:\Users\CHUCK~1.ERH\AppData\Local\Temp\ccby6rnL.s 			page 53


 1536              	.LBE160:
 1537              	.LBB162:
 1538              	.LBB163:
 396:.\Generated_Source\PSoC5/ETH0.c **** static void ETH0_SetSubnetMask( uint32 ip ) { ETH0_W51_SetIP(5, ip); }
 1539              		.loc 1 396 0
 1540 007e 0520     		movs	r0, #5
 1541 0080 0021     		movs	r1, #0
 1542              	.LBE163:
 1543              	.LBE162:
1014:.\Generated_Source\PSoC5/ETH0.c **** }
 1544              		.loc 1 1014 0
 1545 0082 BDE8F840 		pop	{r3, r4, r5, r6, r7, lr}
 1546              	.LBB165:
 1547              	.LBB164:
 396:.\Generated_Source\PSoC5/ETH0.c **** static void ETH0_SetSubnetMask( uint32 ip ) { ETH0_W51_SetIP(5, ip); }
 1548              		.loc 1 396 0
 1549 0086 FFF7FEBF 		b	ETH0_W51_SetIP
 1550              	.LVL163:
 1551              	.L101:
 1552 008a 00BF     		.align	2
 1553              	.L100:
 1554 008c 00000000 		.word	.LANCHOR0
 1555              	.LBE164:
 1556              	.LBE165:
 1557              		.cfi_endproc
 1558              	.LFE74:
 1559              		.size	ETH0_Init, .-ETH0_Init
 1560              		.section	.text.ETH0_Start,"ax",%progbits
 1561              		.align	1
 1562              		.global	ETH0_Start
 1563              		.thumb
 1564              		.thumb_func
 1565              		.type	ETH0_Start, %function
 1566              	ETH0_Start:
 1567              	.LFB75:
1018:.\Generated_Source\PSoC5/ETH0.c **** {
 1568              		.loc 1 1018 0
 1569              		.cfi_startproc
 1570              		@ args = 0, pretend = 0, frame = 0
 1571              		@ frame_needed = 0, uses_anonymous_args = 0
 1572 0000 70B5     		push	{r4, r5, r6, lr}
 1573              	.LCFI21:
 1574              		.cfi_def_cfa_offset 16
 1575              		.cfi_offset 4, -16
 1576              		.cfi_offset 5, -12
 1577              		.cfi_offset 6, -8
 1578              		.cfi_offset 14, -4
1024:.\Generated_Source\PSoC5/ETH0.c **** 	if (SPI0_initVar == 0) {
 1579              		.loc 1 1024 0
 1580 0002 0D4B     		ldr	r3, .L104
 1581 0004 1878     		ldrb	r0, [r3, #0]	@ zero_extendqisi2
 1582 0006 08B9     		cbnz	r0, .L103
1029:.\Generated_Source\PSoC5/ETH0.c **** 		SPI0_Start();
 1583              		.loc 1 1029 0
 1584 0008 FFF7FEFF 		bl	SPI0_Start
 1585              	.LVL164:
 1586              	.L103:
ARM GAS  C:\Users\CHUCK~1.ERH\AppData\Local\Temp\ccby6rnL.s 			page 54


1033:.\Generated_Source\PSoC5/ETH0.c **** 	CyDelay( 10 );
 1587              		.loc 1 1033 0
 1588 000c 0A20     		movs	r0, #10
 1589 000e FFF7FEFF 		bl	CyDelay
 1590              	.LVL165:
1034:.\Generated_Source\PSoC5/ETH0.c **** 	ip = ETH0_ParseIP("192.168.1.101");
 1591              		.loc 1 1034 0
 1592 0012 0A48     		ldr	r0, .L104+4
 1593 0014 FFF7FEFF 		bl	ETH0_ParseIP
 1594              	.LVL166:
 1595 0018 0546     		mov	r5, r0
 1596              	.LVL167:
1035:.\Generated_Source\PSoC5/ETH0.c **** 	sub = ETH0_ParseIP("255.255.255.0");
 1597              		.loc 1 1035 0
 1598 001a 0948     		ldr	r0, .L104+8
 1599              	.LVL168:
 1600 001c FFF7FEFF 		bl	ETH0_ParseIP
 1601              	.LVL169:
 1602 0020 0446     		mov	r4, r0
 1603              	.LVL170:
1036:.\Generated_Source\PSoC5/ETH0.c **** 	gateway = ETH0_ParseIP("192.168.1.1");
 1604              		.loc 1 1036 0
 1605 0022 0848     		ldr	r0, .L104+12
 1606              	.LVL171:
 1607 0024 FFF7FEFF 		bl	ETH0_ParseIP
 1608              	.LVL172:
 1609 0028 0346     		mov	r3, r0
 1610              	.LVL173:
1038:.\Generated_Source\PSoC5/ETH0.c **** 	ETH0_Init( &ETH0_MAC[0], ip, sub, gateway  );
 1611              		.loc 1 1038 0
 1612 002a 0748     		ldr	r0, .L104+16
 1613              	.LVL174:
 1614 002c 2946     		mov	r1, r5
 1615 002e 2246     		mov	r2, r4
1039:.\Generated_Source\PSoC5/ETH0.c **** }
 1616              		.loc 1 1039 0
 1617 0030 BDE87040 		pop	{r4, r5, r6, lr}
1038:.\Generated_Source\PSoC5/ETH0.c **** 	ETH0_Init( &ETH0_MAC[0], ip, sub, gateway  );
 1618              		.loc 1 1038 0
 1619 0034 FFF7FEBF 		b	ETH0_Init
 1620              	.LVL175:
 1621              	.L105:
 1622              		.align	2
 1623              	.L104:
 1624 0038 00000000 		.word	SPI0_initVar
 1625 003c 00000000 		.word	.LC0
 1626 0040 0E000000 		.word	.LC1
 1627 0044 1C000000 		.word	.LC2
 1628 0048 00000000 		.word	.LANCHOR1
 1629              		.cfi_endproc
 1630              	.LFE75:
 1631              		.size	ETH0_Start, .-ETH0_Start
 1632              		.section	.text.ETH0_SocketProcessConnections,"ax",%progbits
 1633              		.align	1
 1634              		.global	ETH0_SocketProcessConnections
 1635              		.thumb
 1636              		.thumb_func
ARM GAS  C:\Users\CHUCK~1.ERH\AppData\Local\Temp\ccby6rnL.s 			page 55


 1637              		.type	ETH0_SocketProcessConnections, %function
 1638              	ETH0_SocketProcessConnections:
 1639              	.LFB83:
1186:.\Generated_Source\PSoC5/ETH0.c **** {
 1640              		.loc 1 1186 0
 1641              		.cfi_startproc
 1642              		@ args = 0, pretend = 0, frame = 0
 1643              		@ frame_needed = 0, uses_anonymous_args = 0
 1644              	.LVL176:
 1645 0000 10B5     		push	{r4, lr}
 1646              	.LCFI22:
 1647              		.cfi_def_cfa_offset 8
 1648              		.cfi_offset 4, -8
 1649              		.cfi_offset 14, -4
1186:.\Generated_Source\PSoC5/ETH0.c **** {
 1650              		.loc 1 1186 0
 1651 0002 0446     		mov	r4, r0
1189:.\Generated_Source\PSoC5/ETH0.c **** 	status = ETH0_GetSocketStatus(socket);
 1652              		.loc 1 1189 0
 1653 0004 FFF7FEFF 		bl	ETH0_GetSocketStatus
 1654              	.LVL177:
1191:.\Generated_Source\PSoC5/ETH0.c **** 	if (status == 0x1C) {
 1655              		.loc 1 1191 0
 1656 0008 1C28     		cmp	r0, #28
 1657 000a 02D1     		bne	.L107
1193:.\Generated_Source\PSoC5/ETH0.c **** 		ETH0_SocketClose(socket);
 1658              		.loc 1 1193 0
 1659 000c 2046     		mov	r0, r4
 1660              	.LVL178:
 1661 000e FFF7FEFF 		bl	ETH0_SocketClose
 1662              	.LVL179:
 1663              	.L107:
1195:.\Generated_Source\PSoC5/ETH0.c **** 	return (ETH0_GetSocketStatus(socket) == 0x00);
 1664              		.loc 1 1195 0
 1665 0012 2046     		mov	r0, r4
 1666 0014 FFF7FEFF 		bl	ETH0_GetSocketStatus
 1667              	.LVL180:
1196:.\Generated_Source\PSoC5/ETH0.c **** }
 1668              		.loc 1 1196 0
 1669 0018 D0F10100 		rsbs	r0, r0, #1
 1670 001c 38BF     		it	cc
 1671 001e 0020     		movcc	r0, #0
 1672 0020 10BD     		pop	{r4, pc}
 1673              		.cfi_endproc
 1674              	.LFE83:
 1675              		.size	ETH0_SocketProcessConnections, .-ETH0_SocketProcessConnections
 1676              		.section	.text.ETH0_SocketEstablished,"ax",%progbits
 1677              		.align	1
 1678              		.global	ETH0_SocketEstablished
 1679              		.thumb
 1680              		.thumb_func
 1681              		.type	ETH0_SocketEstablished, %function
 1682              	ETH0_SocketEstablished:
 1683              	.LFB84:
1200:.\Generated_Source\PSoC5/ETH0.c **** {
 1684              		.loc 1 1200 0
 1685              		.cfi_startproc
ARM GAS  C:\Users\CHUCK~1.ERH\AppData\Local\Temp\ccby6rnL.s 			page 56


 1686              		@ args = 0, pretend = 0, frame = 0
 1687              		@ frame_needed = 0, uses_anonymous_args = 0
 1688              	.LVL181:
 1689 0000 08B5     		push	{r3, lr}
 1690              	.LCFI23:
 1691              		.cfi_def_cfa_offset 8
 1692              		.cfi_offset 3, -8
 1693              		.cfi_offset 14, -4
1201:.\Generated_Source\PSoC5/ETH0.c **** 	return (ETH0_GetSocketStatus( socket ) == 0x17);
 1694              		.loc 1 1201 0
 1695 0002 FFF7FEFF 		bl	ETH0_GetSocketStatus
 1696              	.LVL182:
1202:.\Generated_Source\PSoC5/ETH0.c **** }
 1697              		.loc 1 1202 0
 1698 0006 B0F11703 		subs	r3, r0, #23
 1699 000a 5842     		rsbs	r0, r3, #0
 1700 000c 5841     		adcs	r0, r0, r3
 1701 000e 08BD     		pop	{r3, pc}
 1702              		.cfi_endproc
 1703              	.LFE84:
 1704              		.size	ETH0_SocketEstablished, .-ETH0_SocketEstablished
 1705              		.section	.text.ETH0_SocketRxDataWaiting,"ax",%progbits
 1706              		.align	1
 1707              		.global	ETH0_SocketRxDataWaiting
 1708              		.thumb
 1709              		.thumb_func
 1710              		.type	ETH0_SocketRxDataWaiting, %function
 1711              	ETH0_SocketRxDataWaiting:
 1712              	.LFB87:
1230:.\Generated_Source\PSoC5/ETH0.c **** /* ------------------------------------------------------------------------ */
1231:.\Generated_Source\PSoC5/ETH0.c **** /**
1232:.\Generated_Source\PSoC5/ETH0.c ****  * \brief Execute a SEND without an ARP.
1233:.\Generated_Source\PSoC5/ETH0.c ****  * \param socket the socket to which the SEND will be executed.
1234:.\Generated_Source\PSoC5/ETH0.c ****  */
1235:.\Generated_Source\PSoC5/ETH0.c **** static void
1236:.\Generated_Source\PSoC5/ETH0.c **** ETH0_SocketSendMac(uint8 socket )
1237:.\Generated_Source\PSoC5/ETH0.c **** {
1238:.\Generated_Source\PSoC5/ETH0.c **** 	uint8 ir;
1239:.\Generated_Source\PSoC5/ETH0.c **** 	
1240:.\Generated_Source\PSoC5/ETH0.c **** 	/* initialize the subnet mask register : ERRATA FIX */
1241:.\Generated_Source\PSoC5/ETH0.c **** 	ETH0_SetSubnetMask( ETH0_SubnetMask );
1242:.\Generated_Source\PSoC5/ETH0.c **** 	/* Issue the SEND command */
1243:.\Generated_Source\PSoC5/ETH0.c **** 	ETH0_ExecuteSocketCommand( socket, 0x21 );
1244:.\Generated_Source\PSoC5/ETH0.c **** 	/* wait for the SEND to complete, or for a timeout */
1245:.\Generated_Source\PSoC5/ETH0.c **** 	ir = ETH0_GetSocketIR( socket );
1246:.\Generated_Source\PSoC5/ETH0.c **** 	/* while SEND is not done, and the socket hasnot timed out or been dsconnected */
1247:.\Generated_Source\PSoC5/ETH0.c **** 	while ( ((ir & 0x10) == 0) && (!(ir&0x0A)) ) {
1248:.\Generated_Source\PSoC5/ETH0.c **** 		CyDelay(1);
1249:.\Generated_Source\PSoC5/ETH0.c **** 		ir = ETH0_GetSocketIR( socket );
1250:.\Generated_Source\PSoC5/ETH0.c **** 		
1251:.\Generated_Source\PSoC5/ETH0.c **** 	}
1252:.\Generated_Source\PSoC5/ETH0.c **** 	/* clear the SEND_OK flag from the register */
1253:.\Generated_Source\PSoC5/ETH0.c **** 	ETH0_SetSocketIR( socket, 0x10 );
1254:.\Generated_Source\PSoC5/ETH0.c **** 	/* reset the subnet mask : ERRATA FIX */
1255:.\Generated_Source\PSoC5/ETH0.c **** 	ETH0_SetSubnetMask( 0 );
1256:.\Generated_Source\PSoC5/ETH0.c **** }
1257:.\Generated_Source\PSoC5/ETH0.c **** /* ------------------------------------------------------------------------ */
ARM GAS  C:\Users\CHUCK~1.ERH\AppData\Local\Temp\ccby6rnL.s 			page 57


1258:.\Generated_Source\PSoC5/ETH0.c **** uint16
1259:.\Generated_Source\PSoC5/ETH0.c **** ETH0_SocketRxDataWaiting( uint8 socket )
1260:.\Generated_Source\PSoC5/ETH0.c **** {
 1713              		.loc 1 1260 0
 1714              		.cfi_startproc
 1715              		@ args = 0, pretend = 0, frame = 0
 1716              		@ frame_needed = 0, uses_anonymous_args = 0
 1717              		@ link register save eliminated.
 1718              	.LVL183:
1261:.\Generated_Source\PSoC5/ETH0.c **** 	return ETH0_GetRxSize( socket );
1262:.\Generated_Source\PSoC5/ETH0.c **** }
 1719              		.loc 1 1262 0
1261:.\Generated_Source\PSoC5/ETH0.c **** 	return ETH0_GetRxSize( socket );
 1720              		.loc 1 1261 0
 1721 0000 FFF7FEBF 		b	ETH0_GetRxSize
 1722              	.LVL184:
 1723              		.cfi_endproc
 1724              	.LFE87:
 1725              		.size	ETH0_SocketRxDataWaiting, .-ETH0_SocketRxDataWaiting
 1726              		.section	.text.ETH0_TcpOpen,"ax",%progbits
 1727              		.align	1
 1728              		.global	ETH0_TcpOpen
 1729              		.thumb
 1730              		.thumb_func
 1731              		.type	ETH0_TcpOpen, %function
 1732              	ETH0_TcpOpen:
 1733              	.LFB88:
1263:.\Generated_Source\PSoC5/ETH0.c **** #endif
1264:.\Generated_Source\PSoC5/ETH0.c **** /* ======================================================================== */
1265:.\Generated_Source\PSoC5/ETH0.c **** /* TCP/IP */
1266:.\Generated_Source\PSoC5/ETH0.c **** #if (1)
1267:.\Generated_Source\PSoC5/ETH0.c **** /* ------------------------------------------------------------------------ */
1268:.\Generated_Source\PSoC5/ETH0.c **** uint8
1269:.\Generated_Source\PSoC5/ETH0.c **** ETH0_TcpOpen(uint16 port)
1270:.\Generated_Source\PSoC5/ETH0.c **** {
 1734              		.loc 1 1270 0
 1735              		.cfi_startproc
 1736              		@ args = 0, pretend = 0, frame = 0
 1737              		@ frame_needed = 0, uses_anonymous_args = 0
 1738              		@ link register save eliminated.
 1739              	.LVL185:
 1740              		.loc 1 1270 0
 1741 0000 0146     		mov	r1, r0
1271:.\Generated_Source\PSoC5/ETH0.c **** 	return ETH0_SocketOpen(ETH0_PROTO_TCP, port, 0);
 1742              		.loc 1 1271 0
 1743 0002 0022     		movs	r2, #0
 1744 0004 0120     		movs	r0, #1
 1745              	.LVL186:
1272:.\Generated_Source\PSoC5/ETH0.c **** }
 1746              		.loc 1 1272 0
1271:.\Generated_Source\PSoC5/ETH0.c **** 	return ETH0_SocketOpen(ETH0_PROTO_TCP, port, 0);
 1747              		.loc 1 1271 0
 1748 0006 FFF7FEBF 		b	ETH0_SocketOpen
 1749              	.LVL187:
 1750              		.cfi_endproc
 1751              	.LFE88:
 1752              		.size	ETH0_TcpOpen, .-ETH0_TcpOpen
ARM GAS  C:\Users\CHUCK~1.ERH\AppData\Local\Temp\ccby6rnL.s 			page 58


 1753              		.section	.text.ETH0_TcpStartServer,"ax",%progbits
 1754              		.align	1
 1755              		.global	ETH0_TcpStartServer
 1756              		.thumb
 1757              		.thumb_func
 1758              		.type	ETH0_TcpStartServer, %function
 1759              	ETH0_TcpStartServer:
 1760              	.LFB89:
1273:.\Generated_Source\PSoC5/ETH0.c **** /* ------------------------------------------------------------------------ */
1274:.\Generated_Source\PSoC5/ETH0.c **** void
1275:.\Generated_Source\PSoC5/ETH0.c **** ETH0_TcpStartServer( uint8 socket )
1276:.\Generated_Source\PSoC5/ETH0.c **** {
 1761              		.loc 1 1276 0
 1762              		.cfi_startproc
 1763              		@ args = 0, pretend = 0, frame = 0
 1764              		@ frame_needed = 0, uses_anonymous_args = 0
 1765              		@ link register save eliminated.
 1766              	.LVL188:
1277:.\Generated_Source\PSoC5/ETH0.c **** 	/*
1278:.\Generated_Source\PSoC5/ETH0.c **** 	 * Start a open socket listening for a connection
1279:.\Generated_Source\PSoC5/ETH0.c **** 	 */
1280:.\Generated_Source\PSoC5/ETH0.c **** 	/* was this a valid socket? */
1281:.\Generated_Source\PSoC5/ETH0.c **** 	if (socket < 4) {
 1767              		.loc 1 1281 0
 1768 0000 0328     		cmp	r0, #3
 1769 0002 02D8     		bhi	.L111
1282:.\Generated_Source\PSoC5/ETH0.c **** 		/* Execute the listen command */
1283:.\Generated_Source\PSoC5/ETH0.c **** 		ETH0_ExecuteSocketCommand( socket, 0x02 );
 1770              		.loc 1 1283 0
 1771 0004 0221     		movs	r1, #2
1284:.\Generated_Source\PSoC5/ETH0.c **** 	}
1285:.\Generated_Source\PSoC5/ETH0.c **** }
 1772              		.loc 1 1285 0
1283:.\Generated_Source\PSoC5/ETH0.c **** 		ETH0_ExecuteSocketCommand( socket, 0x02 );
 1773              		.loc 1 1283 0
 1774 0006 FFF7FEBF 		b	ETH0_ExecuteSocketCommand
 1775              	.LVL189:
 1776              	.L111:
 1777 000a 7047     		bx	lr
 1778              		.cfi_endproc
 1779              	.LFE89:
 1780              		.size	ETH0_TcpStartServer, .-ETH0_TcpStartServer
 1781              		.section	.text.ETH0_TcpStartServerWait,"ax",%progbits
 1782              		.align	1
 1783              		.global	ETH0_TcpStartServerWait
 1784              		.thumb
 1785              		.thumb_func
 1786              		.type	ETH0_TcpStartServerWait, %function
 1787              	ETH0_TcpStartServerWait:
 1788              	.LFB90:
1286:.\Generated_Source\PSoC5/ETH0.c **** /* ------------------------------------------------------------------------ */
1287:.\Generated_Source\PSoC5/ETH0.c **** void
1288:.\Generated_Source\PSoC5/ETH0.c **** ETH0_TcpStartServerWait( uint8 socket )
1289:.\Generated_Source\PSoC5/ETH0.c **** {
 1789              		.loc 1 1289 0
 1790              		.cfi_startproc
 1791              		@ args = 0, pretend = 0, frame = 0
ARM GAS  C:\Users\CHUCK~1.ERH\AppData\Local\Temp\ccby6rnL.s 			page 59


 1792              		@ frame_needed = 0, uses_anonymous_args = 0
 1793              	.LVL190:
 1794 0000 10B5     		push	{r4, lr}
 1795              	.LCFI24:
 1796              		.cfi_def_cfa_offset 8
 1797              		.cfi_offset 4, -8
 1798              		.cfi_offset 14, -4
 1799              		.loc 1 1289 0
 1800 0002 0446     		mov	r4, r0
1290:.\Generated_Source\PSoC5/ETH0.c **** 	ETH0_TcpStartServer(socket);
 1801              		.loc 1 1290 0
 1802 0004 FFF7FEFF 		bl	ETH0_TcpStartServer
 1803              	.LVL191:
 1804              	.L114:
1291:.\Generated_Source\PSoC5/ETH0.c **** 	/* wait for socket establishment */
1292:.\Generated_Source\PSoC5/ETH0.c **** 	while ( !ETH0_SocketEstablished(socket) ) {
 1805              		.loc 1 1292 0 discriminator 1
 1806 0008 2046     		mov	r0, r4
 1807 000a FFF7FEFF 		bl	ETH0_SocketEstablished
 1808              	.LVL192:
 1809 000e 18B9     		cbnz	r0, .L116
 1810              	.L115:
1293:.\Generated_Source\PSoC5/ETH0.c **** 		CyDelay(1);
 1811              		.loc 1 1293 0
 1812 0010 0120     		movs	r0, #1
 1813 0012 FFF7FEFF 		bl	CyDelay
 1814              	.LVL193:
 1815 0016 F7E7     		b	.L114
 1816              	.L116:
1294:.\Generated_Source\PSoC5/ETH0.c **** 	}
1295:.\Generated_Source\PSoC5/ETH0.c **** }
 1817              		.loc 1 1295 0
 1818 0018 10BD     		pop	{r4, pc}
 1819              		.cfi_endproc
 1820              	.LFE90:
 1821              		.size	ETH0_TcpStartServerWait, .-ETH0_TcpStartServerWait
 1822              		.section	.text.ETH0_TcpConnect,"ax",%progbits
 1823              		.align	1
 1824              		.global	ETH0_TcpConnect
 1825              		.thumb
 1826              		.thumb_func
 1827              		.type	ETH0_TcpConnect, %function
 1828              	ETH0_TcpConnect:
 1829              	.LFB91:
1296:.\Generated_Source\PSoC5/ETH0.c **** /* ------------------------------------------------------------------------ */
1297:.\Generated_Source\PSoC5/ETH0.c **** void
1298:.\Generated_Source\PSoC5/ETH0.c **** ETH0_TcpConnect( uint8 socket, uint32 ip, uint16 port )
1299:.\Generated_Source\PSoC5/ETH0.c **** {
 1830              		.loc 1 1299 0
 1831              		.cfi_startproc
 1832              		@ args = 0, pretend = 0, frame = 0
 1833              		@ frame_needed = 0, uses_anonymous_args = 0
 1834              	.LVL194:
 1835 0000 F8B5     		push	{r3, r4, r5, r6, r7, lr}
 1836              	.LCFI25:
 1837              		.cfi_def_cfa_offset 24
 1838              		.cfi_offset 3, -24
ARM GAS  C:\Users\CHUCK~1.ERH\AppData\Local\Temp\ccby6rnL.s 			page 60


 1839              		.cfi_offset 4, -20
 1840              		.cfi_offset 5, -16
 1841              		.cfi_offset 6, -12
 1842              		.cfi_offset 7, -8
 1843              		.cfi_offset 14, -4
1300:.\Generated_Source\PSoC5/ETH0.c **** 	uint32 timeout;
1301:.\Generated_Source\PSoC5/ETH0.c **** 	uint8 ir;
1302:.\Generated_Source\PSoC5/ETH0.c **** 	
1303:.\Generated_Source\PSoC5/ETH0.c **** 	if ( (ip != 0xFFFFFFFF) && (ip != 0) ) {
 1844              		.loc 1 1303 0
 1845 0002 4B1E     		subs	r3, r1, #1
 1846 0004 0333     		adds	r3, r3, #3
1299:.\Generated_Source\PSoC5/ETH0.c **** {
 1847              		.loc 1 1299 0
 1848 0006 0646     		mov	r6, r0
 1849 0008 1746     		mov	r7, r2
 1850              		.loc 1 1303 0
 1851 000a 32D8     		bhi	.L117
 1852              	.LVL195:
 1853              	.LBB176:
 1854              	.LBB177:
 637:.\Generated_Source\PSoC5/ETH0.c **** { ETH0_W51_SetIP(ETH0_SOCKET_BASE(socket)+12,ip); }
 1855              		.loc 1 637 0
 1856 000c 0502     		lsls	r5, r0, #8
 1857 000e 05F20C40 		addw	r0, r5, #1036
 1858              	.LVL196:
 1859 0012 80B2     		uxth	r0, r0
 1860 0014 FFF7FEFF 		bl	ETH0_W51_SetIP
 1861              	.LVL197:
 1862              	.LBE177:
 1863              	.LBE176:
 1864              	.LBB178:
 1865              	.LBB179:
 653:.\Generated_Source\PSoC5/ETH0.c **** { ETH0_W51_Write16( ETH0_SOCKET_BASE(socket)+16, port); }
 1866              		.loc 1 653 0
 1867 0018 05F58261 		add	r1, r5, #1040
 1868 001c 88B2     		uxth	r0, r1
 1869 001e 3946     		mov	r1, r7
 1870 0020 FFF7FEFF 		bl	ETH0_W51_Write16
 1871              	.LVL198:
 1872              	.LBE179:
 1873              	.LBE178:
 1874              	.LBB180:
 1875              	.LBB181:
 396:.\Generated_Source\PSoC5/ETH0.c **** static void ETH0_SetSubnetMask( uint32 ip ) { ETH0_W51_SetIP(5, ip); }
 1876              		.loc 1 396 0
 1877 0024 134A     		ldr	r2, .L125
 1878 0026 0520     		movs	r0, #5
 1879 0028 1168     		ldr	r1, [r2, #0]
 1880 002a FFF7FEFF 		bl	ETH0_W51_SetIP
 1881              	.LVL199:
 1882              	.LBE181:
 1883              	.LBE180:
1304:.\Generated_Source\PSoC5/ETH0.c **** 		ETH0_SetSocketDestIP( socket, ip );
1305:.\Generated_Source\PSoC5/ETH0.c **** 		ETH0_SetSocketDestPort( socket, port );
1306:.\Generated_Source\PSoC5/ETH0.c **** 		/* set socket subnet mask */
1307:.\Generated_Source\PSoC5/ETH0.c **** 		ETH0_SetSubnetMask( ETH0_SubnetMask );
ARM GAS  C:\Users\CHUCK~1.ERH\AppData\Local\Temp\ccby6rnL.s 			page 61


1308:.\Generated_Source\PSoC5/ETH0.c **** 		ETH0_ExecuteSocketCommand( socket, 0x04);
 1884              		.loc 1 1308 0
 1885 002e 3046     		mov	r0, r6
 1886 0030 0421     		movs	r1, #4
 1887 0032 FFF7FEFF 		bl	ETH0_ExecuteSocketCommand
 1888              	.LVL200:
 1889              	.L124:
1309:.\Generated_Source\PSoC5/ETH0.c **** 		/* wait for the socket connection to the remote host is established */
1310:.\Generated_Source\PSoC5/ETH0.c **** 		while ( (!ETH0_SocketEstablished(socket))  && (timeout < 3000) ) {
 1890              		.loc 1 1310 0 discriminator 1
 1891 0036 3046     		mov	r0, r6
 1892 0038 FFF7FEFF 		bl	ETH0_SocketEstablished
 1893              	.LVL201:
 1894 003c 98B9     		cbnz	r0, .L121
 1895              		.loc 1 1310 0 is_stmt 0 discriminator 2
 1896 003e 40F6B837 		movw	r7, #3000
 1897 0042 BC42     		cmp	r4, r7
 1898 0044 0FD0     		beq	.L121
 1899              	.L122:
1311:.\Generated_Source\PSoC5/ETH0.c **** 			CyDelay(1);
 1900              		.loc 1 1311 0 is_stmt 1
 1901 0046 0120     		movs	r0, #1
 1902 0048 FFF7FEFF 		bl	CyDelay
 1903              	.LVL202:
 1904              	.LBB182:
 1905              	.LBB183:
 581:.\Generated_Source\PSoC5/ETH0.c **** { return ETH0_W51_Read(ETH0_SOCKET_BASE(socket)+2); }
 1906              		.loc 1 581 0
 1907 004c 05F20243 		addw	r3, r5, #1026
 1908 0050 98B2     		uxth	r0, r3
 1909 0052 FFF7FEFF 		bl	ETH0_W51_Read
 1910              	.LVL203:
 1911              	.LBE183:
 1912              	.LBE182:
1312:.\Generated_Source\PSoC5/ETH0.c **** 			++timeout;
1313:.\Generated_Source\PSoC5/ETH0.c **** 			ir = ETH0_GetSocketIR( socket );
1314:.\Generated_Source\PSoC5/ETH0.c **** 			if ( (ir & 0x08) != 0 ) {
 1913              		.loc 1 1314 0
 1914 0056 00F00800 		and	r0, r0, #8
 1915 005a C1B2     		uxtb	r1, r0
 1916 005c 09B9     		cbnz	r1, .L123
1312:.\Generated_Source\PSoC5/ETH0.c **** 			++timeout;
 1917              		.loc 1 1312 0
 1918 005e 0134     		adds	r4, r4, #1
 1919              	.LVL204:
 1920 0060 E9E7     		b	.L124
 1921              	.LVL205:
 1922              	.L123:
1315:.\Generated_Source\PSoC5/ETH0.c **** 				/* internal chip timeout occured */
1316:.\Generated_Source\PSoC5/ETH0.c **** 				timeout = 3000;
 1923              		.loc 1 1316 0
 1924 0062 3C46     		mov	r4, r7
 1925              	.LVL206:
 1926 0064 E7E7     		b	.L124
 1927              	.LVL207:
 1928              	.L121:
 1929              	.LBB184:
ARM GAS  C:\Users\CHUCK~1.ERH\AppData\Local\Temp\ccby6rnL.s 			page 62


 1930              	.LBB185:
 396:.\Generated_Source\PSoC5/ETH0.c **** static void ETH0_SetSubnetMask( uint32 ip ) { ETH0_W51_SetIP(5, ip); }
 1931              		.loc 1 396 0
 1932 0066 0520     		movs	r0, #5
 1933 0068 0021     		movs	r1, #0
 1934              	.LBE185:
 1935              	.LBE184:
1317:.\Generated_Source\PSoC5/ETH0.c **** 			}
1318:.\Generated_Source\PSoC5/ETH0.c **** 		}
1319:.\Generated_Source\PSoC5/ETH0.c **** 		/* clear the Subnet mask register */
1320:.\Generated_Source\PSoC5/ETH0.c **** 		ETH0_SetSubnetMask(0);
1321:.\Generated_Source\PSoC5/ETH0.c **** 	}
1322:.\Generated_Source\PSoC5/ETH0.c **** }
 1936              		.loc 1 1322 0
 1937 006a BDE8F840 		pop	{r3, r4, r5, r6, r7, lr}
 1938              	.LBB187:
 1939              	.LBB186:
 396:.\Generated_Source\PSoC5/ETH0.c **** static void ETH0_SetSubnetMask( uint32 ip ) { ETH0_W51_SetIP(5, ip); }
 1940              		.loc 1 396 0
 1941 006e FFF7FEBF 		b	ETH0_W51_SetIP
 1942              	.LVL208:
 1943              	.L117:
 1944 0072 F8BD     		pop	{r3, r4, r5, r6, r7, pc}
 1945              	.L126:
 1946              		.align	2
 1947              	.L125:
 1948 0074 00000000 		.word	.LANCHOR0
 1949              	.LBE186:
 1950              	.LBE187:
 1951              		.cfi_endproc
 1952              	.LFE91:
 1953              		.size	ETH0_TcpConnect, .-ETH0_TcpConnect
 1954              		.section	.text.ETH0_TcpConnected,"ax",%progbits
 1955              		.align	1
 1956              		.global	ETH0_TcpConnected
 1957              		.thumb
 1958              		.thumb_func
 1959              		.type	ETH0_TcpConnected, %function
 1960              	ETH0_TcpConnected:
 1961              	.LFB92:
1323:.\Generated_Source\PSoC5/ETH0.c **** /* ------------------------------------------------------------------------ */
1324:.\Generated_Source\PSoC5/ETH0.c **** uint8
1325:.\Generated_Source\PSoC5/ETH0.c **** ETH0_TcpConnected( uint8 socket )
1326:.\Generated_Source\PSoC5/ETH0.c **** { return ETH0_SocketEstablished(socket); }
 1962              		.loc 1 1326 0
 1963              		.cfi_startproc
 1964              		@ args = 0, pretend = 0, frame = 0
 1965              		@ frame_needed = 0, uses_anonymous_args = 0
 1966              		@ link register save eliminated.
 1967              	.LVL209:
 1968              		.loc 1 1326 0
 1969 0000 FFF7FEBF 		b	ETH0_SocketEstablished
 1970              	.LVL210:
 1971              		.cfi_endproc
 1972              	.LFE92:
 1973              		.size	ETH0_TcpConnected, .-ETH0_TcpConnected
 1974              		.section	.text.ETH0_TcpDisconnect,"ax",%progbits
ARM GAS  C:\Users\CHUCK~1.ERH\AppData\Local\Temp\ccby6rnL.s 			page 63


 1975              		.align	1
 1976              		.global	ETH0_TcpDisconnect
 1977              		.thumb
 1978              		.thumb_func
 1979              		.type	ETH0_TcpDisconnect, %function
 1980              	ETH0_TcpDisconnect:
 1981              	.LFB93:
1327:.\Generated_Source\PSoC5/ETH0.c **** /* ------------------------------------------------------------------------ */
1328:.\Generated_Source\PSoC5/ETH0.c **** void
1329:.\Generated_Source\PSoC5/ETH0.c **** ETH0_TcpDisconnect( uint8 socket )
1330:.\Generated_Source\PSoC5/ETH0.c **** {
 1982              		.loc 1 1330 0
 1983              		.cfi_startproc
 1984              		@ args = 0, pretend = 0, frame = 0
 1985              		@ frame_needed = 0, uses_anonymous_args = 0
 1986              		@ link register save eliminated.
 1987              	.LVL211:
1331:.\Generated_Source\PSoC5/ETH0.c **** 	ETH0_ExecuteSocketCommand(socket, 0x08);
 1988              		.loc 1 1331 0
 1989 0000 0821     		movs	r1, #8
1332:.\Generated_Source\PSoC5/ETH0.c **** }
 1990              		.loc 1 1332 0
1331:.\Generated_Source\PSoC5/ETH0.c **** 	ETH0_ExecuteSocketCommand(socket, 0x08);
 1991              		.loc 1 1331 0
 1992 0002 FFF7FEBF 		b	ETH0_ExecuteSocketCommand
 1993              	.LVL212:
 1994              		.cfi_endproc
 1995              	.LFE93:
 1996              		.size	ETH0_TcpDisconnect, .-ETH0_TcpDisconnect
 1997              		.section	.text.ETH0_TcpSend,"ax",%progbits
 1998              		.align	1
 1999              		.global	ETH0_TcpSend
 2000              		.thumb
 2001              		.thumb_func
 2002              		.type	ETH0_TcpSend, %function
 2003              	ETH0_TcpSend:
 2004              	.LFB94:
1333:.\Generated_Source\PSoC5/ETH0.c **** /* ------------------------------------------------------------------------ */
1334:.\Generated_Source\PSoC5/ETH0.c **** uint16
1335:.\Generated_Source\PSoC5/ETH0.c **** ETH0_TcpSend(uint8 socket, uint8* buffer, uint16 len)
1336:.\Generated_Source\PSoC5/ETH0.c **** {
 2005              		.loc 1 1336 0
 2006              		.cfi_startproc
 2007              		@ args = 0, pretend = 0, frame = 0
 2008              		@ frame_needed = 0, uses_anonymous_args = 0
 2009              	.LVL213:
 2010 0000 2DE9F843 		push	{r3, r4, r5, r6, r7, r8, r9, lr}
 2011              	.LCFI26:
 2012              		.cfi_def_cfa_offset 32
 2013              		.cfi_offset 3, -32
 2014              		.cfi_offset 4, -28
 2015              		.cfi_offset 5, -24
 2016              		.cfi_offset 6, -20
 2017              		.cfi_offset 7, -16
 2018              		.cfi_offset 8, -12
 2019              		.cfi_offset 9, -8
 2020              		.cfi_offset 14, -4
ARM GAS  C:\Users\CHUCK~1.ERH\AppData\Local\Temp\ccby6rnL.s 			page 64


 2021              		.loc 1 1336 0
 2022 0004 0546     		mov	r5, r0
 2023 0006 8946     		mov	r9, r1
 2024 0008 1446     		mov	r4, r2
 2025              	.LVL214:
1337:.\Generated_Source\PSoC5/ETH0.c **** 	uint16 TxSize;
1338:.\Generated_Source\PSoC5/ETH0.c **** 	uint16 FreeSpace;
1339:.\Generated_Source\PSoC5/ETH0.c **** 	uint8 status;
1340:.\Generated_Source\PSoC5/ETH0.c **** 	
1341:.\Generated_Source\PSoC5/ETH0.c **** 	TxSize =  (len > 0x0800) ? 0x0800 : len;
1342:.\Generated_Source\PSoC5/ETH0.c **** 	/* check the connection status, and protocol of the socket */
1343:.\Generated_Source\PSoC5/ETH0.c **** 	status = ETH0_GetSocketStatus(socket);
 2026              		.loc 1 1343 0
 2027 000a FFF7FEFF 		bl	ETH0_GetSocketStatus
 2028              	.LVL215:
1344:.\Generated_Source\PSoC5/ETH0.c **** 	if ( ( status == 0x17) && (ETH0_SocketConfig[socket].Protocol == ETH0_PROTO_TCP) ) {
 2029              		.loc 1 1344 0
 2030 000e 1728     		cmp	r0, #23
 2031 0010 2DD1     		bne	.L136
 2032              		.loc 1 1344 0 is_stmt 0 discriminator 1
 2033 0012 194B     		ldr	r3, .L142
 2034 0014 0622     		movs	r2, #6
 2035 0016 02FB0531 		mla	r1, r2, r5, r3
 2036 001a 0A79     		ldrb	r2, [r1, #4]	@ zero_extendqisi2
 2037 001c 012A     		cmp	r2, #1
 2038 001e 26D1     		bne	.L136
 2039              	.LBB194:
 2040              	.LBB195:
 2041              	.LBB196:
 2042              	.LBB197:
 733:.\Generated_Source\PSoC5/ETH0.c **** { return ETH0_W51_Read16(ETH0_SOCKET_BASE(socket)+0x20); }
 2043              		.loc 1 733 0 is_stmt 1
 2044 0020 2F02     		lsls	r7, r5, #8
 2045 0022 07F58466 		add	r6, r7, #1056
 2046 0026 B7B2     		uxth	r7, r6
 2047              	.LBE197:
 2048              	.LBE196:
 2049              	.LBE195:
 2050              	.LBE194:
1341:.\Generated_Source\PSoC5/ETH0.c **** 	TxSize =  (len > 0x0800) ? 0x0800 : len;
 2051              		.loc 1 1341 0
 2052 0028 B4F5006F 		cmp	r4, #2048
 2053 002c 28BF     		it	cs
 2054 002e 4FF40064 		movcs	r4, #2048
 2055              	.LVL216:
 2056              	.LBB206:
 2057              	.LBB204:
 2058              	.LBB200:
 2059              	.LBB198:
 733:.\Generated_Source\PSoC5/ETH0.c **** { return ETH0_W51_Read16(ETH0_SOCKET_BASE(socket)+0x20); }
 2060              		.loc 1 733 0
 2061 0032 0026     		movs	r6, #0
 2062              	.LVL217:
 2063              	.L131:
 2064              	.LBE198:
 2065              	.LBE200:
 2066              	.LBE204:
ARM GAS  C:\Users\CHUCK~1.ERH\AppData\Local\Temp\ccby6rnL.s 			page 65


 2067              	.LBE206:
1345:.\Generated_Source\PSoC5/ETH0.c **** 		/* 
1346:.\Generated_Source\PSoC5/ETH0.c **** 		 * The socket was open with the correct protocol and is connected to
1347:.\Generated_Source\PSoC5/ETH0.c **** 		 * a valid remote system. In order to send the requested packet data,
1348:.\Generated_Source\PSoC5/ETH0.c **** 		 * first, we must wait for the available buffer memory to be free
1349:.\Generated_Source\PSoC5/ETH0.c **** 		 * in the transmit buffer fifo.
1350:.\Generated_Source\PSoC5/ETH0.c **** 		 */
1351:.\Generated_Source\PSoC5/ETH0.c **** 		FreeSpace = 0;
1352:.\Generated_Source\PSoC5/ETH0.c **** 		status = 0x17;
1353:.\Generated_Source\PSoC5/ETH0.c **** 		while ( (FreeSpace < TxSize) && ( (status == 0x17) && (status != 0x1C) ) ) {
 2068              		.loc 1 1353 0 discriminator 1
 2069 0034 A642     		cmp	r6, r4
 2070 0036 11D2     		bcs	.L134
 2071              		.loc 1 1353 0 is_stmt 0 discriminator 2
 2072 0038 1728     		cmp	r0, #23
 2073 003a 0FD1     		bne	.L134
 2074              	.L137:
 2075              		.loc 1 1353 0
 2076 003c 0026     		movs	r6, #0
 2077              	.LVL218:
 2078              	.L133:
 2079              	.LBB207:
 2080              	.LBB205:
 2081              	.LBB201:
 2082              	.LBB199:
 733:.\Generated_Source\PSoC5/ETH0.c **** { return ETH0_W51_Read16(ETH0_SOCKET_BASE(socket)+0x20); }
 2083              		.loc 1 733 0 is_stmt 1
 2084 003e 3846     		mov	r0, r7
 2085 0040 FFF7FEFF 		bl	ETH0_W51_Read16
 2086              	.LVL219:
 2087              	.LBE199:
 2088              	.LBE201:
 823:.\Generated_Source\PSoC5/ETH0.c **** 		if (first != 0) {
 2089              		.loc 1 823 0
 2090 0044 8046     		mov	r8, r0
 2091 0046 18B1     		cbz	r0, .L132
 2092              	.LBB202:
 2093              	.LBB203:
 733:.\Generated_Source\PSoC5/ETH0.c **** { return ETH0_W51_Read16(ETH0_SOCKET_BASE(socket)+0x20); }
 2094              		.loc 1 733 0
 2095 0048 3846     		mov	r0, r7
 2096 004a FFF7FEFF 		bl	ETH0_W51_Read16
 2097              	.LVL220:
 2098 004e 0646     		mov	r6, r0
 2099              	.LVL221:
 2100              	.L132:
 2101              	.LBE203:
 2102              	.LBE202:
 827:.\Generated_Source\PSoC5/ETH0.c **** 	while (first != second );
 2103              		.loc 1 827 0
 2104 0050 B045     		cmp	r8, r6
 2105 0052 F4D1     		bne	.L133
 2106              	.LBE205:
 2107              	.LBE207:
1354:.\Generated_Source\PSoC5/ETH0.c **** 			FreeSpace = ETH0_GetTxFreeSize( socket );
1355:.\Generated_Source\PSoC5/ETH0.c **** 			status = ETH0_GetSocketStatus( socket );
 2108              		.loc 1 1355 0
ARM GAS  C:\Users\CHUCK~1.ERH\AppData\Local\Temp\ccby6rnL.s 			page 66


 2109 0054 2846     		mov	r0, r5
 2110 0056 FFF7FEFF 		bl	ETH0_GetSocketStatus
 2111              	.LVL222:
 2112 005a EBE7     		b	.L131
 2113              	.LVL223:
 2114              	.L134:
1356:.\Generated_Source\PSoC5/ETH0.c **** 		}
1357:.\Generated_Source\PSoC5/ETH0.c **** 		/*
1358:.\Generated_Source\PSoC5/ETH0.c **** 		 * Write the data buffer to the chip Tx Buffer, then issue
1359:.\Generated_Source\PSoC5/ETH0.c **** 		 * the chip SEND command
1360:.\Generated_Source\PSoC5/ETH0.c **** 		 */
1361:.\Generated_Source\PSoC5/ETH0.c **** 		ETH0_ProcessTxData(socket, 0, buffer, TxSize);
 2115              		.loc 1 1361 0
 2116 005c 2846     		mov	r0, r5
 2117              	.LVL224:
 2118 005e 4946     		mov	r1, r9
 2119 0060 2246     		mov	r2, r4
 2120 0062 FFF7FEFF 		bl	ETH0_ProcessTxData.constprop.2
 2121              	.LVL225:
1362:.\Generated_Source\PSoC5/ETH0.c **** 		ETH0_SocketSend( socket );
 2122              		.loc 1 1362 0
 2123 0066 2846     		mov	r0, r5
 2124 0068 FFF7FEFF 		bl	ETH0_SocketSend
 2125              	.LVL226:
 2126 006c 00E0     		b	.L130
 2127              	.LVL227:
 2128              	.L136:
1363:.\Generated_Source\PSoC5/ETH0.c **** 	}
1364:.\Generated_Source\PSoC5/ETH0.c **** 	else {
1365:.\Generated_Source\PSoC5/ETH0.c **** 		/*
1366:.\Generated_Source\PSoC5/ETH0.c **** 		 * the socket was not establised, or there was an error, so clear
1367:.\Generated_Source\PSoC5/ETH0.c **** 		 * the TxSize to signal that no data has bee sent
1368:.\Generated_Source\PSoC5/ETH0.c **** 		 */
1369:.\Generated_Source\PSoC5/ETH0.c **** 		TxSize = 0;
 2129              		.loc 1 1369 0
 2130 006e 0024     		movs	r4, #0
 2131              	.LVL228:
 2132              	.L130:
1370:.\Generated_Source\PSoC5/ETH0.c **** 	}
1371:.\Generated_Source\PSoC5/ETH0.c **** 	return TxSize;
1372:.\Generated_Source\PSoC5/ETH0.c **** }
 2133              		.loc 1 1372 0
 2134 0070 2046     		mov	r0, r4
 2135 0072 BDE8F883 		pop	{r3, r4, r5, r6, r7, r8, r9, pc}
 2136              	.L143:
 2137 0076 00BF     		.align	2
 2138              	.L142:
 2139 0078 00000000 		.word	.LANCHOR0
 2140              		.cfi_endproc
 2141              	.LFE94:
 2142              		.size	ETH0_TcpSend, .-ETH0_TcpSend
 2143              		.section	.text.ETH0_TcpReceive,"ax",%progbits
 2144              		.align	1
 2145              		.global	ETH0_TcpReceive
 2146              		.thumb
 2147              		.thumb_func
 2148              		.type	ETH0_TcpReceive, %function
ARM GAS  C:\Users\CHUCK~1.ERH\AppData\Local\Temp\ccby6rnL.s 			page 67


 2149              	ETH0_TcpReceive:
 2150              	.LFB95:
1373:.\Generated_Source\PSoC5/ETH0.c **** /* ------------------------------------------------------------------------ */
1374:.\Generated_Source\PSoC5/ETH0.c **** uint16
1375:.\Generated_Source\PSoC5/ETH0.c **** ETH0_TcpReceive( uint8 socket, uint8* buffer, uint16 length )
1376:.\Generated_Source\PSoC5/ETH0.c **** {
 2151              		.loc 1 1376 0
 2152              		.cfi_startproc
 2153              		@ args = 0, pretend = 0, frame = 0
 2154              		@ frame_needed = 0, uses_anonymous_args = 0
 2155              	.LVL229:
 2156 0000 70B5     		push	{r4, r5, r6, lr}
 2157              	.LCFI27:
 2158              		.cfi_def_cfa_offset 16
 2159              		.cfi_offset 4, -16
 2160              		.cfi_offset 5, -12
 2161              		.cfi_offset 6, -8
 2162              		.cfi_offset 14, -4
 2163              		.loc 1 1376 0
 2164 0002 0546     		mov	r5, r0
 2165 0004 0E46     		mov	r6, r1
 2166 0006 1446     		mov	r4, r2
1377:.\Generated_Source\PSoC5/ETH0.c **** 	uint16 RxSize;
1378:.\Generated_Source\PSoC5/ETH0.c **** 	
1379:.\Generated_Source\PSoC5/ETH0.c **** 	/*
1380:.\Generated_Source\PSoC5/ETH0.c **** 	 * First thing to do is to check to see if the socket is connected
1381:.\Generated_Source\PSoC5/ETH0.c **** 	 * and that there is data waiting
1382:.\Generated_Source\PSoC5/ETH0.c **** 	 */
1383:.\Generated_Source\PSoC5/ETH0.c **** 	RxSize = 0;
1384:.\Generated_Source\PSoC5/ETH0.c **** 	if (ETH0_GetSocketStatus( socket ) == 0x17) {
 2167              		.loc 1 1384 0
 2168 0008 FFF7FEFF 		bl	ETH0_GetSocketStatus
 2169              	.LVL230:
 2170 000c 1728     		cmp	r0, #23
 2171 000e 01D0     		beq	.L145
 2172              	.LVL231:
 2173              	.L147:
1383:.\Generated_Source\PSoC5/ETH0.c **** 	RxSize = 0;
 2174              		.loc 1 1383 0
 2175 0010 0024     		movs	r4, #0
 2176 0012 12E0     		b	.L146
 2177              	.LVL232:
 2178              	.L145:
1385:.\Generated_Source\PSoC5/ETH0.c **** 		/*
1386:.\Generated_Source\PSoC5/ETH0.c **** 		 * read the number of waiting bytes in the buffer memory
1387:.\Generated_Source\PSoC5/ETH0.c **** 		 * but, clip the length of data read to the requested
1388:.\Generated_Source\PSoC5/ETH0.c **** 		 * length of data.
1389:.\Generated_Source\PSoC5/ETH0.c **** 		 */
1390:.\Generated_Source\PSoC5/ETH0.c **** 		RxSize = ETH0_GetRxSize( socket );
 2179              		.loc 1 1390 0
 2180 0014 2846     		mov	r0, r5
 2181 0016 FFF7FEFF 		bl	ETH0_GetRxSize
 2182              	.LVL233:
1391:.\Generated_Source\PSoC5/ETH0.c **** 		RxSize = (RxSize > length) ? length : RxSize;
 2183              		.loc 1 1391 0
 2184 001a A042     		cmp	r0, r4
 2185 001c 28BF     		it	cs
ARM GAS  C:\Users\CHUCK~1.ERH\AppData\Local\Temp\ccby6rnL.s 			page 68


 2186 001e 2046     		movcs	r0, r4
 2187              	.LVL234:
 2188 0020 84B2     		uxth	r4, r0
 2189              	.LVL235:
1392:.\Generated_Source\PSoC5/ETH0.c **** 		/* If there was waiting data, read it from the buffer */
1393:.\Generated_Source\PSoC5/ETH0.c **** 		if (RxSize > 0) {
 2190              		.loc 1 1393 0
 2191 0022 002C     		cmp	r4, #0
 2192 0024 F4D0     		beq	.L147
1394:.\Generated_Source\PSoC5/ETH0.c **** 			ETH0_ProcessRxData( socket, 0, buffer, RxSize, 0);
 2193              		.loc 1 1394 0
 2194 0026 2846     		mov	r0, r5
 2195              	.LVL236:
 2196 0028 0021     		movs	r1, #0
 2197 002a 3246     		mov	r2, r6
 2198 002c 2346     		mov	r3, r4
 2199 002e FFF7FEFF 		bl	ETH0_ProcessRxData.constprop.1
 2200              	.LVL237:
1395:.\Generated_Source\PSoC5/ETH0.c **** 			/* 
1396:.\Generated_Source\PSoC5/ETH0.c **** 			 * after reading the buffer data, send the receive command
1397:.\Generated_Source\PSoC5/ETH0.c **** 			 * to the socket so that the W5100 completes the read
1398:.\Generated_Source\PSoC5/ETH0.c **** 			 */
1399:.\Generated_Source\PSoC5/ETH0.c **** 			ETH0_ExecuteSocketCommand(socket, 0x40);
 2201              		.loc 1 1399 0
 2202 0032 2846     		mov	r0, r5
 2203 0034 4021     		movs	r1, #64
 2204 0036 FFF7FEFF 		bl	ETH0_ExecuteSocketCommand
 2205              	.LVL238:
 2206              	.L146:
1400:.\Generated_Source\PSoC5/ETH0.c **** 		}
1401:.\Generated_Source\PSoC5/ETH0.c **** 	}
1402:.\Generated_Source\PSoC5/ETH0.c **** 	
1403:.\Generated_Source\PSoC5/ETH0.c **** 	/* return the number of read bytes from the buffer memory */
1404:.\Generated_Source\PSoC5/ETH0.c **** 	return RxSize;
1405:.\Generated_Source\PSoC5/ETH0.c **** }
 2207              		.loc 1 1405 0
 2208 003a 2046     		mov	r0, r4
 2209 003c 70BD     		pop	{r4, r5, r6, pc}
 2210              		.cfi_endproc
 2211              	.LFE95:
 2212              		.size	ETH0_TcpReceive, .-ETH0_TcpReceive
 2213              		.section	.text.ETH0_TcpPrint,"ax",%progbits
 2214              		.align	1
 2215              		.global	ETH0_TcpPrint
 2216              		.thumb
 2217              		.thumb_func
 2218              		.type	ETH0_TcpPrint, %function
 2219              	ETH0_TcpPrint:
 2220              	.LFB96:
1406:.\Generated_Source\PSoC5/ETH0.c **** /* ------------------------------------------------------------------------ */
1407:.\Generated_Source\PSoC5/ETH0.c **** void
1408:.\Generated_Source\PSoC5/ETH0.c **** ETH0_TcpPrint( uint8 socket, const char* str )
1409:.\Generated_Source\PSoC5/ETH0.c **** {
 2221              		.loc 1 1409 0
 2222              		.cfi_startproc
 2223              		@ args = 0, pretend = 0, frame = 0
 2224              		@ frame_needed = 0, uses_anonymous_args = 0
ARM GAS  C:\Users\CHUCK~1.ERH\AppData\Local\Temp\ccby6rnL.s 			page 69


 2225              	.LVL239:
 2226 0000 38B5     		push	{r3, r4, r5, lr}
 2227              	.LCFI28:
 2228              		.cfi_def_cfa_offset 16
 2229              		.cfi_offset 3, -16
 2230              		.cfi_offset 4, -12
 2231              		.cfi_offset 5, -8
 2232              		.cfi_offset 14, -4
 2233              		.loc 1 1409 0
 2234 0002 0546     		mov	r5, r0
1410:.\Generated_Source\PSoC5/ETH0.c **** 	ETH0_TcpSend(socket, (uint8*)str, strlen(str));
 2235              		.loc 1 1410 0
 2236 0004 0846     		mov	r0, r1
 2237              	.LVL240:
1409:.\Generated_Source\PSoC5/ETH0.c **** {
 2238              		.loc 1 1409 0
 2239 0006 0C46     		mov	r4, r1
 2240              		.loc 1 1410 0
 2241 0008 FFF7FEFF 		bl	strlen
 2242              	.LVL241:
 2243 000c 2146     		mov	r1, r4
 2244 000e 82B2     		uxth	r2, r0
 2245 0010 2846     		mov	r0, r5
1411:.\Generated_Source\PSoC5/ETH0.c **** }
 2246              		.loc 1 1411 0
 2247 0012 BDE83840 		pop	{r3, r4, r5, lr}
1410:.\Generated_Source\PSoC5/ETH0.c **** 	ETH0_TcpSend(socket, (uint8*)str, strlen(str));
 2248              		.loc 1 1410 0
 2249 0016 FFF7FEBF 		b	ETH0_TcpSend
 2250              	.LVL242:
 2251              		.cfi_endproc
 2252              	.LFE96:
 2253              		.size	ETH0_TcpPrint, .-ETH0_TcpPrint
 2254              		.section	.text.ETH0_UdpOpen,"ax",%progbits
 2255              		.align	1
 2256              		.global	ETH0_UdpOpen
 2257              		.thumb
 2258              		.thumb_func
 2259              		.type	ETH0_UdpOpen, %function
 2260              	ETH0_UdpOpen:
 2261              	.LFB97:
1412:.\Generated_Source\PSoC5/ETH0.c **** #endif
1413:.\Generated_Source\PSoC5/ETH0.c **** /* ======================================================================== */
1414:.\Generated_Source\PSoC5/ETH0.c **** /* UDP */
1415:.\Generated_Source\PSoC5/ETH0.c **** #if (1)
1416:.\Generated_Source\PSoC5/ETH0.c **** /* ------------------------------------------------------------------------ */
1417:.\Generated_Source\PSoC5/ETH0.c **** uint8
1418:.\Generated_Source\PSoC5/ETH0.c **** ETH0_UdpOpen(uint16 port)
1419:.\Generated_Source\PSoC5/ETH0.c **** {
 2262              		.loc 1 1419 0
 2263              		.cfi_startproc
 2264              		@ args = 0, pretend = 0, frame = 0
 2265              		@ frame_needed = 0, uses_anonymous_args = 0
 2266              		@ link register save eliminated.
 2267              	.LVL243:
 2268              		.loc 1 1419 0
 2269 0000 0146     		mov	r1, r0
ARM GAS  C:\Users\CHUCK~1.ERH\AppData\Local\Temp\ccby6rnL.s 			page 70


1420:.\Generated_Source\PSoC5/ETH0.c **** 	return ETH0_SocketOpen(ETH0_PROTO_UDP, port, 0);
 2270              		.loc 1 1420 0
 2271 0002 0022     		movs	r2, #0
 2272 0004 0220     		movs	r0, #2
 2273              	.LVL244:
1421:.\Generated_Source\PSoC5/ETH0.c **** }
 2274              		.loc 1 1421 0
1420:.\Generated_Source\PSoC5/ETH0.c **** 	return ETH0_SocketOpen(ETH0_PROTO_UDP, port, 0);
 2275              		.loc 1 1420 0
 2276 0006 FFF7FEBF 		b	ETH0_SocketOpen
 2277              	.LVL245:
 2278              		.cfi_endproc
 2279              	.LFE97:
 2280              		.size	ETH0_UdpOpen, .-ETH0_UdpOpen
 2281              		.section	.text.ETH0_UdpSend,"ax",%progbits
 2282              		.align	1
 2283              		.global	ETH0_UdpSend
 2284              		.thumb
 2285              		.thumb_func
 2286              		.type	ETH0_UdpSend, %function
 2287              	ETH0_UdpSend:
 2288              	.LFB98:
1422:.\Generated_Source\PSoC5/ETH0.c **** /* ------------------------------------------------------------------------ */	
1423:.\Generated_Source\PSoC5/ETH0.c **** uint16
1424:.\Generated_Source\PSoC5/ETH0.c **** ETH0_UdpSend(uint8 socket, uint32 ip, uint16 port, uint8* buffer, uint16 length)
1425:.\Generated_Source\PSoC5/ETH0.c **** {
 2289              		.loc 1 1425 0
 2290              		.cfi_startproc
 2291              		@ args = 4, pretend = 0, frame = 0
 2292              		@ frame_needed = 0, uses_anonymous_args = 0
 2293              	.LVL246:
 2294 0000 2DE9F843 		push	{r3, r4, r5, r6, r7, r8, r9, lr}
 2295              	.LCFI29:
 2296              		.cfi_def_cfa_offset 32
 2297              		.cfi_offset 3, -32
 2298              		.cfi_offset 4, -28
 2299              		.cfi_offset 5, -24
 2300              		.cfi_offset 6, -20
 2301              		.cfi_offset 7, -16
 2302              		.cfi_offset 8, -12
 2303              		.cfi_offset 9, -8
 2304              		.cfi_offset 14, -4
 2305              		.loc 1 1425 0
 2306 0004 0546     		mov	r5, r0
 2307 0006 0E46     		mov	r6, r1
 2308 0008 9146     		mov	r9, r2
 2309 000a 9846     		mov	r8, r3
1426:.\Generated_Source\PSoC5/ETH0.c **** 	uint16 TxSize;
1427:.\Generated_Source\PSoC5/ETH0.c **** 	
1428:.\Generated_Source\PSoC5/ETH0.c **** 	/*
1429:.\Generated_Source\PSoC5/ETH0.c **** 	 * Transmit a buffer of data to a specified remote system using UDP.
1430:.\Generated_Source\PSoC5/ETH0.c **** 	 */
1431:.\Generated_Source\PSoC5/ETH0.c **** 	if (ETH0_GetSocketStatus(socket) == 0x17) {
 2310              		.loc 1 1431 0
 2311 000c FFF7FEFF 		bl	ETH0_GetSocketStatus
 2312              	.LVL247:
 2313 0010 1728     		cmp	r0, #23
ARM GAS  C:\Users\CHUCK~1.ERH\AppData\Local\Temp\ccby6rnL.s 			page 71


 2314 0012 20D1     		bne	.L154
 2315              	.LVL248:
1432:.\Generated_Source\PSoC5/ETH0.c **** 		/*
1433:.\Generated_Source\PSoC5/ETH0.c **** 		 * The socket has been established, so wait for available
1434:.\Generated_Source\PSoC5/ETH0.c **** 		 * room in the transmit buffer of the socket, but, trim the
1435:.\Generated_Source\PSoC5/ETH0.c **** 		 * transmitted data length to no more than the available
1436:.\Generated_Source\PSoC5/ETH0.c **** 		 * buffer size in the device. (2K)
1437:.\Generated_Source\PSoC5/ETH0.c **** 		 */
1438:.\Generated_Source\PSoC5/ETH0.c **** 		TxSize = (length > 0x0800) ? 0x0800 : length;
1439:.\Generated_Source\PSoC5/ETH0.c **** 		if ( (ip != 0) && (ip != 0xFFFFFFFF) ) {
 2316              		.loc 1 1439 0
 2317 0014 731E     		subs	r3, r6, #1
 2318 0016 0333     		adds	r3, r3, #3
 2319 0018 1CD8     		bhi	.L155
 2320              	.LBB212:
 2321              	.LBB213:
 637:.\Generated_Source\PSoC5/ETH0.c **** { ETH0_W51_SetIP(ETH0_SOCKET_BASE(socket)+12,ip); }
 2322              		.loc 1 637 0
 2323 001a 2F02     		lsls	r7, r5, #8
 2324              	.LBE213:
 2325              	.LBE212:
1438:.\Generated_Source\PSoC5/ETH0.c **** 		TxSize = (length > 0x0800) ? 0x0800 : length;
 2326              		.loc 1 1438 0
 2327 001c BDF82040 		ldrh	r4, [sp, #32]
 2328              	.LBB216:
 2329              	.LBB214:
 637:.\Generated_Source\PSoC5/ETH0.c **** { ETH0_W51_SetIP(ETH0_SOCKET_BASE(socket)+12,ip); }
 2330              		.loc 1 637 0
 2331 0020 07F20C40 		addw	r0, r7, #1036
 2332 0024 3146     		mov	r1, r6
 2333 0026 80B2     		uxth	r0, r0
 2334              	.LBE214:
 2335              	.LBE216:
 2336              	.LBB217:
 2337              	.LBB218:
 653:.\Generated_Source\PSoC5/ETH0.c **** { ETH0_W51_Write16( ETH0_SOCKET_BASE(socket)+16, port); }
 2338              		.loc 1 653 0
 2339 0028 07F58267 		add	r7, r7, #1040
 2340              	.LBE218:
 2341              	.LBE217:
 2342              	.LBB220:
 2343              	.LBB215:
 637:.\Generated_Source\PSoC5/ETH0.c **** { ETH0_W51_SetIP(ETH0_SOCKET_BASE(socket)+12,ip); }
 2344              		.loc 1 637 0
 2345 002c FFF7FEFF 		bl	ETH0_W51_SetIP
 2346              	.LVL249:
 2347              	.LBE215:
 2348              	.LBE220:
1438:.\Generated_Source\PSoC5/ETH0.c **** 		TxSize = (length > 0x0800) ? 0x0800 : length;
 2349              		.loc 1 1438 0
 2350 0030 B4F5006F 		cmp	r4, #2048
 2351 0034 28BF     		it	cs
 2352 0036 4FF40064 		movcs	r4, #2048
 2353              	.LVL250:
 2354              	.LBB221:
 2355              	.LBB219:
 653:.\Generated_Source\PSoC5/ETH0.c **** { ETH0_W51_Write16( ETH0_SOCKET_BASE(socket)+16, port); }
ARM GAS  C:\Users\CHUCK~1.ERH\AppData\Local\Temp\ccby6rnL.s 			page 72


 2356              		.loc 1 653 0
 2357 003a B8B2     		uxth	r0, r7
 2358 003c 4946     		mov	r1, r9
 2359 003e FFF7FEFF 		bl	ETH0_W51_Write16
 2360              	.LVL251:
 2361              	.LBE219:
 2362              	.LBE221:
1440:.\Generated_Source\PSoC5/ETH0.c **** 			/*
1441:.\Generated_Source\PSoC5/ETH0.c **** 			 * Store the destination IP and port in the chip
1442:.\Generated_Source\PSoC5/ETH0.c **** 			 * socket registers.
1443:.\Generated_Source\PSoC5/ETH0.c **** 			 */
1444:.\Generated_Source\PSoC5/ETH0.c **** 			ETH0_SetSocketDestIP( socket, ip );
1445:.\Generated_Source\PSoC5/ETH0.c **** 			ETH0_SetSocketDestPort( socket, port );
1446:.\Generated_Source\PSoC5/ETH0.c **** 			/*
1447:.\Generated_Source\PSoC5/ETH0.c **** 			 * process the transmission buffer, and write it in to
1448:.\Generated_Source\PSoC5/ETH0.c **** 			 * the chip buffer memory.
1449:.\Generated_Source\PSoC5/ETH0.c **** 			 */
1450:.\Generated_Source\PSoC5/ETH0.c **** 			ETH0_ProcessTxData(socket,0,buffer,TxSize);
 2363              		.loc 1 1450 0
 2364 0042 2846     		mov	r0, r5
 2365 0044 4146     		mov	r1, r8
 2366 0046 2246     		mov	r2, r4
 2367 0048 FFF7FEFF 		bl	ETH0_ProcessTxData.constprop.2
 2368              	.LVL252:
1451:.\Generated_Source\PSoC5/ETH0.c **** 			/*
1452:.\Generated_Source\PSoC5/ETH0.c **** 			 * Issue the send command to transmit the buffer.
1453:.\Generated_Source\PSoC5/ETH0.c **** 			 */
1454:.\Generated_Source\PSoC5/ETH0.c **** 			ETH0_SocketSend( socket ); 
 2369              		.loc 1 1454 0
 2370 004c 2846     		mov	r0, r5
 2371 004e FFF7FEFF 		bl	ETH0_SocketSend
 2372              	.LVL253:
 2373 0052 00E0     		b	.L154
 2374              	.LVL254:
 2375              	.L155:
1455:.\Generated_Source\PSoC5/ETH0.c **** 		}
1456:.\Generated_Source\PSoC5/ETH0.c **** 		else {
1457:.\Generated_Source\PSoC5/ETH0.c **** 			/* an invalid IP address was issued, so return that no data was sent. */
1458:.\Generated_Source\PSoC5/ETH0.c **** 			TxSize = 0;
 2376              		.loc 1 1458 0
 2377 0054 0024     		movs	r4, #0
 2378              	.LVL255:
 2379              	.L154:
1459:.\Generated_Source\PSoC5/ETH0.c **** 		}
1460:.\Generated_Source\PSoC5/ETH0.c **** 	}
1461:.\Generated_Source\PSoC5/ETH0.c **** 	return TxSize;
1462:.\Generated_Source\PSoC5/ETH0.c **** }
 2380              		.loc 1 1462 0
 2381 0056 2046     		mov	r0, r4
 2382 0058 BDE8F883 		pop	{r3, r4, r5, r6, r7, r8, r9, pc}
 2383              		.cfi_endproc
 2384              	.LFE98:
 2385              		.size	ETH0_UdpSend, .-ETH0_UdpSend
 2386              		.section	.text.ETH0_UdpReceive,"ax",%progbits
 2387              		.align	1
 2388              		.global	ETH0_UdpReceive
 2389              		.thumb
ARM GAS  C:\Users\CHUCK~1.ERH\AppData\Local\Temp\ccby6rnL.s 			page 73


 2390              		.thumb_func
 2391              		.type	ETH0_UdpReceive, %function
 2392              	ETH0_UdpReceive:
 2393              	.LFB99:
1463:.\Generated_Source\PSoC5/ETH0.c **** /* ------------------------------------------------------------------------ */
1464:.\Generated_Source\PSoC5/ETH0.c **** uint16
1465:.\Generated_Source\PSoC5/ETH0.c **** ETH0_UdpReceive(uint8 socket, uint32 *ip, uint16 *port, uint8* buffer, uint16 length)
1466:.\Generated_Source\PSoC5/ETH0.c **** {
 2394              		.loc 1 1466 0
 2395              		.cfi_startproc
 2396              		@ args = 4, pretend = 0, frame = 8
 2397              		@ frame_needed = 0, uses_anonymous_args = 0
 2398              	.LVL256:
 2399 0000 2DE9F743 		push	{r0, r1, r2, r4, r5, r6, r7, r8, r9, lr}
 2400              	.LCFI30:
 2401              		.cfi_def_cfa_offset 40
 2402              		.cfi_offset 0, -40
 2403              		.cfi_offset 1, -36
 2404              		.cfi_offset 2, -32
 2405              		.cfi_offset 4, -28
 2406              		.cfi_offset 5, -24
 2407              		.cfi_offset 6, -20
 2408              		.cfi_offset 7, -16
 2409              		.cfi_offset 8, -12
 2410              		.cfi_offset 9, -8
 2411              		.cfi_offset 14, -4
 2412              		.loc 1 1466 0
 2413 0004 0446     		mov	r4, r0
 2414 0006 8946     		mov	r9, r1
 2415 0008 9046     		mov	r8, r2
 2416 000a 1F46     		mov	r7, r3
 2417 000c BDF82850 		ldrh	r5, [sp, #40]
1467:.\Generated_Source\PSoC5/ETH0.c **** 	uint16 RxSize;
1468:.\Generated_Source\PSoC5/ETH0.c **** 	uint16 PacketSize;
1469:.\Generated_Source\PSoC5/ETH0.c **** 	uint8  PacketHeader[8];
1470:.\Generated_Source\PSoC5/ETH0.c **** 	
1471:.\Generated_Source\PSoC5/ETH0.c **** 	/*
1472:.\Generated_Source\PSoC5/ETH0.c **** 	 * First thing to do is to check to see if the socket is connected
1473:.\Generated_Source\PSoC5/ETH0.c **** 	 * and that there is data waiting
1474:.\Generated_Source\PSoC5/ETH0.c **** 	 */
1475:.\Generated_Source\PSoC5/ETH0.c **** 	RxSize = 0;
1476:.\Generated_Source\PSoC5/ETH0.c **** 	if (ETH0_GetSocketStatus( socket ) == 0x17) {
 2418              		.loc 1 1476 0
 2419 0010 FFF7FEFF 		bl	ETH0_GetSocketStatus
 2420              	.LVL257:
 2421 0014 1728     		cmp	r0, #23
 2422 0016 01D0     		beq	.L157
 2423              	.LVL258:
 2424              	.L160:
1475:.\Generated_Source\PSoC5/ETH0.c **** 	RxSize = 0;
 2425              		.loc 1 1475 0
 2426 0018 0020     		movs	r0, #0
 2427 001a 3EE0     		b	.L158
 2428              	.LVL259:
 2429              	.L157:
1477:.\Generated_Source\PSoC5/ETH0.c **** 		/*
1478:.\Generated_Source\PSoC5/ETH0.c **** 		 * read the number of waiting bytes in the buffer memory
ARM GAS  C:\Users\CHUCK~1.ERH\AppData\Local\Temp\ccby6rnL.s 			page 74


1479:.\Generated_Source\PSoC5/ETH0.c **** 		 * but, clip the length of data read to the requested
1480:.\Generated_Source\PSoC5/ETH0.c **** 		 * length of data.
1481:.\Generated_Source\PSoC5/ETH0.c **** 		 */
1482:.\Generated_Source\PSoC5/ETH0.c **** 		RxSize = ETH0_GetRxSize( socket );
 2430              		.loc 1 1482 0
 2431 001c 2046     		mov	r0, r4
 2432 001e FFF7FEFF 		bl	ETH0_GetRxSize
 2433              	.LVL260:
1483:.\Generated_Source\PSoC5/ETH0.c **** 		RxSize = (RxSize > length+8) ? length : RxSize;
 2434              		.loc 1 1483 0
 2435 0022 05F10806 		add	r6, r5, #8
 2436 0026 B042     		cmp	r0, r6
 2437 0028 D4BF     		ite	le
 2438 002a 0646     		movle	r6, r0
 2439 002c 2E46     		movgt	r6, r5
1484:.\Generated_Source\PSoC5/ETH0.c **** 		/* If there was waiting data, read it from the buffer */
1485:.\Generated_Source\PSoC5/ETH0.c **** 		if (RxSize > 0) {
 2440              		.loc 1 1485 0
 2441 002e 002E     		cmp	r6, #0
 2442 0030 F2D0     		beq	.L160
1486:.\Generated_Source\PSoC5/ETH0.c **** 			/*
1487:.\Generated_Source\PSoC5/ETH0.c **** 			 * the UDP packet is stored in the buffer memory as an 8-byte
1488:.\Generated_Source\PSoC5/ETH0.c **** 			 * packet header followed by the packet data.
1489:.\Generated_Source\PSoC5/ETH0.c **** 			*/
1490:.\Generated_Source\PSoC5/ETH0.c **** 			ETH0_ProcessRxData( socket, 0, &PacketHeader[0], 8, 0);
 2443              		.loc 1 1490 0
 2444 0032 0021     		movs	r1, #0
 2445 0034 0823     		movs	r3, #8
 2446 0036 2046     		mov	r0, r4
 2447              	.LVL261:
 2448 0038 6A46     		mov	r2, sp
 2449 003a FFF7FEFF 		bl	ETH0_ProcessRxData.constprop.1
 2450              	.LVL262:
1491:.\Generated_Source\PSoC5/ETH0.c **** 			/*
1492:.\Generated_Source\PSoC5/ETH0.c **** 			 * The packet header contains the 4-byte IP address followed by the
1493:.\Generated_Source\PSoC5/ETH0.c **** 			 * 2-byte port number and the 2-byte packet data length
1494:.\Generated_Source\PSoC5/ETH0.c **** 			 */
1495:.\Generated_Source\PSoC5/ETH0.c **** 			*ip = ETH0_IPADDRESS(PacketHeader[0], PacketHeader[1], PacketHeader[2], PacketHeader[3]);
 2451              		.loc 1 1495 0
 2452 003e 9DF80320 		ldrb	r2, [sp, #3]	@ zero_extendqisi2
 2453 0042 9DF80030 		ldrb	r3, [sp, #0]	@ zero_extendqisi2
 2454 0046 9DF80110 		ldrb	r1, [sp, #1]	@ zero_extendqisi2
 2455 004a 03EB0260 		add	r0, r3, r2, lsl #24
 2456 004e 9DF80220 		ldrb	r2, [sp, #2]	@ zero_extendqisi2
 2457 0052 00EB0125 		add	r5, r0, r1, lsl #8
 2458 0056 05EB0243 		add	r3, r5, r2, lsl #16
1496:.\Generated_Source\PSoC5/ETH0.c **** 			*port = (uint16)((PacketHeader[4]<<8)&0xFF00) | (PacketHeader[5]&0x00FF);
 2459              		.loc 1 1496 0
 2460 005a 9DF80400 		ldrb	r0, [sp, #4]	@ zero_extendqisi2
 2461 005e 9DF80510 		ldrb	r1, [sp, #5]	@ zero_extendqisi2
1495:.\Generated_Source\PSoC5/ETH0.c **** 			*ip = ETH0_IPADDRESS(PacketHeader[0], PacketHeader[1], PacketHeader[2], PacketHeader[3]);
 2462              		.loc 1 1495 0
 2463 0062 C9F80030 		str	r3, [r9, #0]
1497:.\Generated_Source\PSoC5/ETH0.c **** 			PacketSize = (uint16)((PacketHeader[6]<<8)&0xFF00) | (PacketHeader[7]&0x00FF);
 2464              		.loc 1 1497 0
 2465 0066 9DF80620 		ldrb	r2, [sp, #6]	@ zero_extendqisi2
 2466 006a 9DF80730 		ldrb	r3, [sp, #7]	@ zero_extendqisi2
ARM GAS  C:\Users\CHUCK~1.ERH\AppData\Local\Temp\ccby6rnL.s 			page 75


1496:.\Generated_Source\PSoC5/ETH0.c **** 			*port = (uint16)((PacketHeader[4]<<8)&0xFF00) | (PacketHeader[5]&0x00FF);
 2467              		.loc 1 1496 0
 2468 006e 41EA0025 		orr	r5, r1, r0, lsl #8
 2469 0072 A8F80050 		strh	r5, [r8, #0]	@ movhi
 2470              		.loc 1 1497 0
 2471 0076 43EA0225 		orr	r5, r3, r2, lsl #8
 2472              	.LVL263:
1498:.\Generated_Source\PSoC5/ETH0.c **** 			/*
1499:.\Generated_Source\PSoC5/ETH0.c **** 			 * Check to make sure that the packet data has been received completely
1500:.\Generated_Source\PSoC5/ETH0.c **** 			 */
1501:.\Generated_Source\PSoC5/ETH0.c **** 			if (RxSize >= (PacketSize+8) ) {
 2473              		.loc 1 1501 0
 2474 007a E81D     		adds	r0, r5, #7
 2475 007c B042     		cmp	r0, r6
 2476 007e 0BDA     		bge	.L161
1502:.\Generated_Source\PSoC5/ETH0.c **** 			
1503:.\Generated_Source\PSoC5/ETH0.c **** 				ETH0_ProcessRxData( socket, 8, buffer, PacketSize, 0);
 2477              		.loc 1 1503 0
 2478 0080 2046     		mov	r0, r4
 2479 0082 0821     		movs	r1, #8
 2480 0084 3A46     		mov	r2, r7
 2481 0086 2B46     		mov	r3, r5
 2482 0088 FFF7FEFF 		bl	ETH0_ProcessRxData.constprop.1
 2483              	.LVL264:
1504:.\Generated_Source\PSoC5/ETH0.c **** 				/* 
1505:.\Generated_Source\PSoC5/ETH0.c **** 				 * after reading the buffer data, send the receive command
1506:.\Generated_Source\PSoC5/ETH0.c **** 				 * to the socket so that the W5100 completes the read
1507:.\Generated_Source\PSoC5/ETH0.c **** 				 */
1508:.\Generated_Source\PSoC5/ETH0.c **** 				ETH0_ExecuteSocketCommand(socket, 0x40);
 2484              		.loc 1 1508 0
 2485 008c 2046     		mov	r0, r4
 2486 008e 4021     		movs	r1, #64
 2487 0090 FFF7FEFF 		bl	ETH0_ExecuteSocketCommand
 2488              	.LVL265:
1509:.\Generated_Source\PSoC5/ETH0.c **** 				RxSize = PacketSize;
 2489              		.loc 1 1509 0
 2490 0094 2846     		mov	r0, r5
 2491 0096 00E0     		b	.L158
 2492              	.LVL266:
 2493              	.L161:
1510:.\Generated_Source\PSoC5/ETH0.c **** 			}
1511:.\Generated_Source\PSoC5/ETH0.c **** 			else {
1512:.\Generated_Source\PSoC5/ETH0.c **** 				RxSize = 8;
 2494              		.loc 1 1512 0
 2495 0098 0820     		movs	r0, #8
 2496              	.LVL267:
 2497              	.L158:
1513:.\Generated_Source\PSoC5/ETH0.c **** 			}
1514:.\Generated_Source\PSoC5/ETH0.c **** 		}
1515:.\Generated_Source\PSoC5/ETH0.c **** 	}
1516:.\Generated_Source\PSoC5/ETH0.c **** 	
1517:.\Generated_Source\PSoC5/ETH0.c **** 	/* return the number of read bytes from the buffer memory */
1518:.\Generated_Source\PSoC5/ETH0.c **** 	return RxSize;
1519:.\Generated_Source\PSoC5/ETH0.c **** }
 2498              		.loc 1 1519 0
 2499 009a BDE8FE83 		pop	{r1, r2, r3, r4, r5, r6, r7, r8, r9, pc}
 2500              		.cfi_endproc
ARM GAS  C:\Users\CHUCK~1.ERH\AppData\Local\Temp\ccby6rnL.s 			page 76


 2501              	.LFE99:
 2502              		.size	ETH0_UdpReceive, .-ETH0_UdpReceive
 2503              		.section	.rodata.str1.1,"aMS",%progbits,1
 2504              	.LC0:
 2505 0000 3139322E 		.ascii	"192.168.1.101\000"
 2505      3136382E 
 2505      312E3130 
 2505      3100
 2506              	.LC1:
 2507 000e 3235352E 		.ascii	"255.255.255.0\000"
 2507      3235352E 
 2507      3235352E 
 2507      3000
 2508              	.LC2:
 2509 001c 3139322E 		.ascii	"192.168.1.1\000"
 2509      3136382E 
 2509      312E3100 
 2510              		.data
 2511              		.set	.LANCHOR1,. + 0
 2512              		.type	ETH0_MAC, %object
 2513              		.size	ETH0_MAC, 6
 2514              	ETH0_MAC:
 2515 0000 00       		.byte	0
 2516 0001 DE       		.byte	-34
 2517 0002 AD       		.byte	-83
 2518 0003 BE       		.byte	-66
 2519 0004 EF       		.byte	-17
 2520 0005 00       		.byte	0
 2521              		.bss
 2522              		.align	2
 2523              		.set	.LANCHOR0,. + 0
 2524              		.type	ETH0_SubnetMask, %object
 2525              		.size	ETH0_SubnetMask, 4
 2526              	ETH0_SubnetMask:
 2527 0000 00000000 		.space	4
 2528              		.type	ETH0_SocketConfig, %object
 2529              		.size	ETH0_SocketConfig, 24
 2530              	ETH0_SocketConfig:
 2531 0004 00000000 		.space	24
 2531      00000000 
 2531      00000000 
 2531      00000000 
 2531      00000000 
 2532              		.text
 2533              	.Letext0:
 2534              		.file 2 "./Generated_Source/PSoC5/cytypes.h"
 2535              		.file 3 "c:\\program files (x86)\\cypress\\psoc creator\\3.0\\psoc creator\\import\\gnu_cs\\arm\\4
 2536              		.file 4 "./Generated_Source/PSoC5/SPI0.h"
 2537              		.file 5 "./Generated_Source/PSoC5/cylib.h"
 2538              		.file 6 "c:\\program files (x86)\\cypress\\psoc creator\\3.0\\psoc creator\\import\\gnu_cs\\arm\\4