ARM GAS  C:\Users\CHUCK~1.ERH\AppData\Local\Temp\ccby6rnL.s 			page 1


   1              		.syntax unified
   2              		.cpu cortex-m3
   3              		.fpu softvfp
   4              		.eabi_attribute 20, 1
   5              		.eabi_attribute 21, 1
   6              		.eabi_attribute 23, 3
   7              		.eabi_attribute 24, 1
   8              		.eabi_attribute 25, 1
   9              		.eabi_attribute 26, 1
  10              		.eabi_attribute 30, 4
  11              		.eabi_attribute 34, 1
  12              		.eabi_attribute 18, 4
  13              		.thumb
  14              		.file	"ETH0.c"
  15              		.text
  16              	.Ltext0:
  17              		.cfi_sections	.debug_frame
  18              		.section	.text.ETH0_W51_Write,"ax",%progbits
  19              		.align	1
  20              		.global	ETH0_W51_Write
  21              		.thumb
  22              		.thumb_func
  23              		.type	ETH0_W51_Write, %function
  24              	ETH0_W51_Write:
  25              	.LFB1:
  26              		.file 1 ".\\Generated_Source\\PSoC5\\ETH0.c"
   1:.\Generated_Source\PSoC5/ETH0.c **** /**
   2:.\Generated_Source\PSoC5/ETH0.c ****  * \addtogroup w5100
   3:.\Generated_Source\PSoC5/ETH0.c ****  * @{
   4:.\Generated_Source\PSoC5/ETH0.c ****  */
   5:.\Generated_Source\PSoC5/ETH0.c **** 
   6:.\Generated_Source\PSoC5/ETH0.c **** /**
   7:.\Generated_Source\PSoC5/ETH0.c ****  * \file Driver implementation for interfacing with the W5100 device
   8:.\Generated_Source\PSoC5/ETH0.c ****  * \author Chuck Erhardt (chuck@e2forlife.com)
   9:.\Generated_Source\PSoC5/ETH0.c ****  *
  10:.\Generated_Source\PSoC5/ETH0.c ****  * This file contains the main driver implementation for control
  11:.\Generated_Source\PSoC5/ETH0.c ****  * of the W5100 device.
  12:.\Generated_Source\PSoC5/ETH0.c **** */
  13:.\Generated_Source\PSoC5/ETH0.c **** 
  14:.\Generated_Source\PSoC5/ETH0.c **** /* Cypress library includes */
  15:.\Generated_Source\PSoC5/ETH0.c **** #include <cytypes.h>
  16:.\Generated_Source\PSoC5/ETH0.c **** #include <cylib.h>
  17:.\Generated_Source\PSoC5/ETH0.c **** 
  18:.\Generated_Source\PSoC5/ETH0.c **** /*  include functions and types for the driver */
  19:.\Generated_Source\PSoC5/ETH0.c **** #include "ETH0.h"
  20:.\Generated_Source\PSoC5/ETH0.c **** /* include the serial interface functions */
  21:.\Generated_Source\PSoC5/ETH0.c **** #include <SPI0.h>
  22:.\Generated_Source\PSoC5/ETH0.c **** 
  23:.\Generated_Source\PSoC5/ETH0.c **** extern uint8 SPI0_initVar;
  24:.\Generated_Source\PSoC5/ETH0.c **** 
  25:.\Generated_Source\PSoC5/ETH0.c **** typedef struct
  26:.\Generated_Source\PSoC5/ETH0.c **** {
  27:.\Generated_Source\PSoC5/ETH0.c **** 	uint8  Protocol;
  28:.\Generated_Source\PSoC5/ETH0.c **** 	uint8  SocketFlags;
  29:.\Generated_Source\PSoC5/ETH0.c **** 	uint16 SourcePort;
  30:.\Generated_Source\PSoC5/ETH0.c **** 	uint8  ServerFlag;
  31:.\Generated_Source\PSoC5/ETH0.c **** } ETH0_SOCKET;
ARM GAS  C:\Users\CHUCK~1.ERH\AppData\Local\Temp\ccby6rnL.s 			page 2


  32:.\Generated_Source\PSoC5/ETH0.c **** 
  33:.\Generated_Source\PSoC5/ETH0.c **** #define ETH0_SOCKET_TX_BASE(s)    ( 0x4000 + (s<<15) )
  34:.\Generated_Source\PSoC5/ETH0.c **** #define ETH0_SOCKET_RX_BASE(s)    ( 0x6000 + (s<<15) )
  35:.\Generated_Source\PSoC5/ETH0.c **** 
  36:.\Generated_Source\PSoC5/ETH0.c **** static ETH0_SOCKET ETH0_SocketConfig[4];
  37:.\Generated_Source\PSoC5/ETH0.c **** static uint32 ETH0_SubnetMask;
  38:.\Generated_Source\PSoC5/ETH0.c **** 
  39:.\Generated_Source\PSoC5/ETH0.c **** static uint8 ETH0_MAC[6] = { 0x00, 0xDE, 0xAD, 0xBE, 0xEF, 0x00 };
  40:.\Generated_Source\PSoC5/ETH0.c **** 
  41:.\Generated_Source\PSoC5/ETH0.c **** 
  42:.\Generated_Source\PSoC5/ETH0.c **** /* ======================================================================== */
  43:.\Generated_Source\PSoC5/ETH0.c **** /* Generic SPI Functions */
  44:.\Generated_Source\PSoC5/ETH0.c **** /*
  45:.\Generated_Source\PSoC5/ETH0.c ****  * NOTE: when using the SPIM, there must be a buffer length of at least 4
  46:.\Generated_Source\PSoC5/ETH0.c ****  * bytes to allow the transfer/receive cycle for each read/write operation
  47:.\Generated_Source\PSoC5/ETH0.c ****  * to be contained within the FIFO buffer.
  48:.\Generated_Source\PSoC5/ETH0.c ****  */
  49:.\Generated_Source\PSoC5/ETH0.c **** #if !defined(CY_SCB_SPI0_H)
  50:.\Generated_Source\PSoC5/ETH0.c **** /* ------------------------------------------------------------------------ */
  51:.\Generated_Source\PSoC5/ETH0.c **** /**
  52:.\Generated_Source\PSoC5/ETH0.c ****  * \brief Select the active SCB chip select connected to the W51
  53:.\Generated_Source\PSoC5/ETH0.c ****  *
  54:.\Generated_Source\PSoC5/ETH0.c ****  * this fucntion will set the active SS line within the SCB to select and
  55:.\Generated_Source\PSoC5/ETH0.c ****  * communicate with the W5100 device.
  56:.\Generated_Source\PSoC5/ETH0.c ****  * \note this functions requires that the device chip select is originating
  57:.\Generated_Source\PSoC5/ETH0.c ****  *  from the SPI device.
  58:.\Generated_Source\PSoC5/ETH0.c ****  */
  59:.\Generated_Source\PSoC5/ETH0.c **** static void ETH0_W51_Select( void )
  60:.\Generated_Source\PSoC5/ETH0.c **** {
  61:.\Generated_Source\PSoC5/ETH0.c **** 	/*
  62:.\Generated_Source\PSoC5/ETH0.c **** 	 * User code for setting the chip select enable.  This is called once
  63:.\Generated_Source\PSoC5/ETH0.c **** 	 * at the beginning of each tranfer to/from the W5100, so we recommend
  64:.\Generated_Source\PSoC5/ETH0.c **** 	 * either doing nothing (SPIM SS straight out), or to switch the demux
  65:.\Generated_Source\PSoC5/ETH0.c **** 	 * component to select the correct output for the SS routing.  This
  66:.\Generated_Source\PSoC5/ETH0.c **** 	 * should probably not drive a pin directly since there is no return
  67:.\Generated_Source\PSoC5/ETH0.c **** 	 * call from the driver that would allow an enable/disable type of
  68:.\Generated_Source\PSoC5/ETH0.c **** 	 * implementation for CSN control.
  69:.\Generated_Source\PSoC5/ETH0.c **** 	 */
  70:.\Generated_Source\PSoC5/ETH0.c **** 	/* `#START CHIP_SELECT_GENERATION` */
  71:.\Generated_Source\PSoC5/ETH0.c **** 
  72:.\Generated_Source\PSoC5/ETH0.c **** 	/* `#END` */
  73:.\Generated_Source\PSoC5/ETH0.c **** }
  74:.\Generated_Source\PSoC5/ETH0.c **** /* ------------------------------------------------------------------------ */
  75:.\Generated_Source\PSoC5/ETH0.c **** /**
  76:.\Generated_Source\PSoC5/ETH0.c ****  * \brief write Data to the W5100 at the specified address
  77:.\Generated_Source\PSoC5/ETH0.c ****  * \param addr Address of register or memory buffer
  78:.\Generated_Source\PSoC5/ETH0.c ****  * \param dat Data to write to the device
  79:.\Generated_Source\PSoC5/ETH0.c ****  *
  80:.\Generated_Source\PSoC5/ETH0.c ****  * This function will send the WRITE opcode, address and data to the W5100
  81:.\Generated_Source\PSoC5/ETH0.c ****  * in order to write the data to the specified register.
  82:.\Generated_Source\PSoC5/ETH0.c ****  */
  83:.\Generated_Source\PSoC5/ETH0.c **** void ETH0_W51_Write(uint16 addr, uint8 dat)
  84:.\Generated_Source\PSoC5/ETH0.c **** {
  27              		.loc 1 84 0
  28              		.cfi_startproc
  29              		@ args = 0, pretend = 0, frame = 0
  30              		@ frame_needed = 0, uses_anonymous_args = 0
ARM GAS  C:\Users\CHUCK~1.ERH\AppData\Local\Temp\ccby6rnL.s 			page 3


  31              	.LVL0:
  32 0000 38B5     		push	{r3, r4, r5, lr}
  33              	.LCFI0:
  34              		.cfi_def_cfa_offset 16
  35              		.cfi_offset 3, -16
  36              		.cfi_offset 4, -12
  37              		.cfi_offset 5, -8
  38              		.cfi_offset 14, -4
  39              		.loc 1 84 0
  40 0002 0D46     		mov	r5, r1
  41 0004 0446     		mov	r4, r0
  85:.\Generated_Source\PSoC5/ETH0.c **** 	/* Using internal device SS generation */
  86:.\Generated_Source\PSoC5/ETH0.c **** 	ETH0_W51_Select();
  87:.\Generated_Source\PSoC5/ETH0.c **** 	/*
  88:.\Generated_Source\PSoC5/ETH0.c **** 	 * The first thing to do is to clear the Rx Buffer of any lingering
  89:.\Generated_Source\PSoC5/ETH0.c **** 	 * data left from other transfers.  Then send the data per the W5100
  90:.\Generated_Source\PSoC5/ETH0.c **** 	 * datasheet p.62
  91:.\Generated_Source\PSoC5/ETH0.c **** 	 */
  92:.\Generated_Source\PSoC5/ETH0.c **** 	SPI0_ClearRxBuffer();
  42              		.loc 1 92 0
  43 0006 FFF7FEFF 		bl	SPI0_ClearRxBuffer
  44              	.LVL1:
  93:.\Generated_Source\PSoC5/ETH0.c **** 	/* Begin transfer of data to device */
  94:.\Generated_Source\PSoC5/ETH0.c **** 	SPI0_WriteTxData(ETH0_WRITE_OP);
  45              		.loc 1 94 0
  46 000a F020     		movs	r0, #240
  47 000c FFF7FEFF 		bl	SPI0_WriteTxData
  48              	.LVL2:
  95:.\Generated_Source\PSoC5/ETH0.c **** 	SPI0_WriteTxData((addr>>8)&0x00FF);
  49              		.loc 1 95 0
  50 0010 200A     		lsrs	r0, r4, #8
  51 0012 FFF7FEFF 		bl	SPI0_WriteTxData
  52              	.LVL3:
  96:.\Generated_Source\PSoC5/ETH0.c **** 	SPI0_WriteTxData(addr&0x00FF);
  53              		.loc 1 96 0
  54 0016 E0B2     		uxtb	r0, r4
  55 0018 FFF7FEFF 		bl	SPI0_WriteTxData
  56              	.LVL4:
  97:.\Generated_Source\PSoC5/ETH0.c **** 	SPI0_WriteTxData(dat);
  57              		.loc 1 97 0
  58 001c 2846     		mov	r0, r5
  59 001e FFF7FEFF 		bl	SPI0_WriteTxData
  60              	.LVL5:
  98:.\Generated_Source\PSoC5/ETH0.c **** 	/* Wait for operation to end */
  99:.\Generated_Source\PSoC5/ETH0.c **** 	CyDelayUs(2); /* At 6 MBPS it will take approx 6 uS to send the data */
  61              		.loc 1 99 0
  62 0022 0220     		movs	r0, #2
 100:.\Generated_Source\PSoC5/ETH0.c **** 
 101:.\Generated_Source\PSoC5/ETH0.c **** }
  63              		.loc 1 101 0
  64 0024 BDE83840 		pop	{r3, r4, r5, lr}
  99:.\Generated_Source\PSoC5/ETH0.c **** 	CyDelayUs(2); /* At 6 MBPS it will take approx 6 uS to send the data */
  65              		.loc 1 99 0
  66 0028 FFF7FEBF 		b	CyDelayUs
  67              	.LVL6:
  68              		.cfi_endproc
  69              	.LFE1:
ARM GAS  C:\Users\CHUCK~1.ERH\AppData\Local\Temp\ccby6rnL.s 			page 4


  70              		.size	ETH0_W51_Write, .-ETH0_W51_Write
  71              		.section	.text.ETH0_W51_Write16,"ax",%progbits
  72              		.align	1
  73              		.thumb
  74              		.thumb_func
  75              		.type	ETH0_W51_Write16, %function
  76              	ETH0_W51_Write16:
  77              	.LFB7:
 102:.\Generated_Source\PSoC5/ETH0.c **** 
 103:.\Generated_Source\PSoC5/ETH0.c **** /* ------------------------------------------------------------------------ */
 104:.\Generated_Source\PSoC5/ETH0.c **** /**
 105:.\Generated_Source\PSoC5/ETH0.c ****  * \brief Read data from the W5100 at the spsecified address
 106:.\Generated_Source\PSoC5/ETH0.c ****  * \param addr Address from which to read
 107:.\Generated_Source\PSoC5/ETH0.c ****  * \returns the data read from the address
 108:.\Generated_Source\PSoC5/ETH0.c ****  *
 109:.\Generated_Source\PSoC5/ETH0.c ****  * this fucntion will access a W5100 memory location and read the contents
 110:.\Generated_Source\PSoC5/ETH0.c ****  * using the serial protocol specified on P.61 of the datasheet.
 111:.\Generated_Source\PSoC5/ETH0.c ****  */
 112:.\Generated_Source\PSoC5/ETH0.c **** uint8 ETH0_W51_Read(uint16 addr)
 113:.\Generated_Source\PSoC5/ETH0.c **** {
 114:.\Generated_Source\PSoC5/ETH0.c **** 	uint32 dat;
 115:.\Generated_Source\PSoC5/ETH0.c **** 	uint32 count;
 116:.\Generated_Source\PSoC5/ETH0.c **** 	
 117:.\Generated_Source\PSoC5/ETH0.c **** 	/* Using internal device SS generation */
 118:.\Generated_Source\PSoC5/ETH0.c **** 	ETH0_W51_Select();
 119:.\Generated_Source\PSoC5/ETH0.c **** 	/*
 120:.\Generated_Source\PSoC5/ETH0.c **** 	 * First, clear the Rx Buffer of any waiting data.  Then begin the
 121:.\Generated_Source\PSoC5/ETH0.c **** 	 * read operation by sending the op code, followed byte the address
 122:.\Generated_Source\PSoC5/ETH0.c **** 	 * from which the read will be executed, then send a dummy byte
 123:.\Generated_Source\PSoC5/ETH0.c **** 	 * of zeros to read the data from the device.
 124:.\Generated_Source\PSoC5/ETH0.c **** 	 */
 125:.\Generated_Source\PSoC5/ETH0.c **** 	SPI0_ClearRxBuffer();
 126:.\Generated_Source\PSoC5/ETH0.c **** 	/* Begin data read */
 127:.\Generated_Source\PSoC5/ETH0.c **** 	SPI0_WriteTxData(ETH0_READ_OP);
 128:.\Generated_Source\PSoC5/ETH0.c **** 	SPI0_WriteTxData(addr>>8);
 129:.\Generated_Source\PSoC5/ETH0.c **** 	SPI0_WriteTxData(addr&0x00FF);
 130:.\Generated_Source\PSoC5/ETH0.c **** 	SPI0_WriteTxData( 0 );
 131:.\Generated_Source\PSoC5/ETH0.c **** 	/* Wait for operations to complete. */
 132:.\Generated_Source\PSoC5/ETH0.c **** 	CyDelayUs( 2 );
 133:.\Generated_Source\PSoC5/ETH0.c **** 	count = SPI0_GetRxBufferSize();
 134:.\Generated_Source\PSoC5/ETH0.c **** 	while( count > 0 )
 135:.\Generated_Source\PSoC5/ETH0.c **** 	{
 136:.\Generated_Source\PSoC5/ETH0.c **** 		dat = SPI0_ReadRxData(); 
 137:.\Generated_Source\PSoC5/ETH0.c **** 		count = SPI0_GetRxBufferSize();
 138:.\Generated_Source\PSoC5/ETH0.c **** 	}
 139:.\Generated_Source\PSoC5/ETH0.c **** 	
 140:.\Generated_Source\PSoC5/ETH0.c **** 	return( dat&0xFF );
 141:.\Generated_Source\PSoC5/ETH0.c **** }
 142:.\Generated_Source\PSoC5/ETH0.c **** /* ======================================================================== */
 143:.\Generated_Source\PSoC5/ETH0.c **** /* SCB Specific Functions */
 144:.\Generated_Source\PSoC5/ETH0.c **** #else
 145:.\Generated_Source\PSoC5/ETH0.c **** /* include SPI function header for the SCB */
 146:.\Generated_Source\PSoC5/ETH0.c **** #include <SPI0_SPI_UART.h>
 147:.\Generated_Source\PSoC5/ETH0.c **** 	
 148:.\Generated_Source\PSoC5/ETH0.c **** /* ------------------------------------------------------------------------ */
 149:.\Generated_Source\PSoC5/ETH0.c **** /**
 150:.\Generated_Source\PSoC5/ETH0.c ****  * \brief Select the active SCB chip select connected to the W51
ARM GAS  C:\Users\CHUCK~1.ERH\AppData\Local\Temp\ccby6rnL.s 			page 5


 151:.\Generated_Source\PSoC5/ETH0.c ****  *
 152:.\Generated_Source\PSoC5/ETH0.c ****  * this fucntion will set the active SS line within the SCB to select and
 153:.\Generated_Source\PSoC5/ETH0.c ****  * communicate with the W5100 device.
 154:.\Generated_Source\PSoC5/ETH0.c ****  */
 155:.\Generated_Source\PSoC5/ETH0.c **** static void ETH0_W51_Select( void )
 156:.\Generated_Source\PSoC5/ETH0.c **** {
 157:.\Generated_Source\PSoC5/ETH0.c **** #if (0 == 0)
 158:.\Generated_Source\PSoC5/ETH0.c **** 	SPI0_SpiSetActiveSlaveSelect( SPI0_SPIM_ACTIVE_SS0 );
 159:.\Generated_Source\PSoC5/ETH0.c **** #elif (0 == 1)
 160:.\Generated_Source\PSoC5/ETH0.c **** 	SPI0_SpiSetActiveSlaveSelect( SPI0_SPIM_ACTIVE_SS1 );
 161:.\Generated_Source\PSoC5/ETH0.c **** #elif (0 == 2)
 162:.\Generated_Source\PSoC5/ETH0.c **** 	SPI0_SpiSetActiveSlaveSelect( SPI0_SPIM_ACTIVE_SS2 );
 163:.\Generated_Source\PSoC5/ETH0.c **** #elif (0 == 3)
 164:.\Generated_Source\PSoC5/ETH0.c **** 	SPI0_SpiSetActiveSlaveSelect( SPI0_SPIM_ACTIVE_SS3 );
 165:.\Generated_Source\PSoC5/ETH0.c **** #else
 166:.\Generated_Source\PSoC5/ETH0.c **** 		SPI0_SpiSetActiveSlaveSelect(0);
 167:.\Generated_Source\PSoC5/ETH0.c **** #endif
 168:.\Generated_Source\PSoC5/ETH0.c **** }
 169:.\Generated_Source\PSoC5/ETH0.c **** /* ------------------------------------------------------------------------ */
 170:.\Generated_Source\PSoC5/ETH0.c **** /**
 171:.\Generated_Source\PSoC5/ETH0.c ****  * \brief write Data to the W5100 at the specified address
 172:.\Generated_Source\PSoC5/ETH0.c ****  * \param addr Address of register or memory buffer
 173:.\Generated_Source\PSoC5/ETH0.c ****  * \param dat Data to write to the device
 174:.\Generated_Source\PSoC5/ETH0.c ****  *
 175:.\Generated_Source\PSoC5/ETH0.c ****  * This function will send the WRITE opcode, address and data to the W5100
 176:.\Generated_Source\PSoC5/ETH0.c ****  * in order to write the data to the specified register.
 177:.\Generated_Source\PSoC5/ETH0.c ****  */
 178:.\Generated_Source\PSoC5/ETH0.c **** void ETH0_W51_Write(uint16 addr, uint8 dat)
 179:.\Generated_Source\PSoC5/ETH0.c **** {
 180:.\Generated_Source\PSoC5/ETH0.c **** 	/* Using internal device SS generation */
 181:.\Generated_Source\PSoC5/ETH0.c **** 	ETH0_W51_Select();
 182:.\Generated_Source\PSoC5/ETH0.c **** 	/*
 183:.\Generated_Source\PSoC5/ETH0.c **** 	 * The first thing to do is to clear the Rx Buffer of any lingering
 184:.\Generated_Source\PSoC5/ETH0.c **** 	 * data left from other transfers.  Then send the data per the W5100
 185:.\Generated_Source\PSoC5/ETH0.c **** 	 * datasheet p.62
 186:.\Generated_Source\PSoC5/ETH0.c **** 	 */
 187:.\Generated_Source\PSoC5/ETH0.c **** 	SPI0_SpiUartClearRxBuffer();
 188:.\Generated_Source\PSoC5/ETH0.c **** 	/* Begin transfer of data to device */
 189:.\Generated_Source\PSoC5/ETH0.c **** 	SPI0_SpiUartWriteTxData(ETH0_WRITE_OP);
 190:.\Generated_Source\PSoC5/ETH0.c **** 	SPI0_SpiUartWriteTxData((addr>>8)&0x00FF);
 191:.\Generated_Source\PSoC5/ETH0.c **** 	SPI0_SpiUartWriteTxData(addr&0x00FF);
 192:.\Generated_Source\PSoC5/ETH0.c **** 	SPI0_SpiUartWriteTxData(dat);
 193:.\Generated_Source\PSoC5/ETH0.c **** 	/* Wait for operation to end */
 194:.\Generated_Source\PSoC5/ETH0.c **** 	CyDelayUs(2); /* At 6 MBPS it will take approx 6 uS to send the data */
 195:.\Generated_Source\PSoC5/ETH0.c **** }
 196:.\Generated_Source\PSoC5/ETH0.c **** /* ------------------------------------------------------------------------ */
 197:.\Generated_Source\PSoC5/ETH0.c **** /**
 198:.\Generated_Source\PSoC5/ETH0.c ****  * \brief Read data from the W5100 at the spsecified address
 199:.\Generated_Source\PSoC5/ETH0.c ****  * \param addr Address from which to read
 200:.\Generated_Source\PSoC5/ETH0.c ****  * \returns the data read from the address
 201:.\Generated_Source\PSoC5/ETH0.c ****  *
 202:.\Generated_Source\PSoC5/ETH0.c ****  * this fucntion will access a W5100 memory location and read the contents
 203:.\Generated_Source\PSoC5/ETH0.c ****  * using the serial protocol specified on P.61 of the datasheet.
 204:.\Generated_Source\PSoC5/ETH0.c ****  */
 205:.\Generated_Source\PSoC5/ETH0.c **** uint8 ETH0_W51_Read(uint16 addr)
 206:.\Generated_Source\PSoC5/ETH0.c **** {
 207:.\Generated_Source\PSoC5/ETH0.c **** 	uint32 dat;
ARM GAS  C:\Users\CHUCK~1.ERH\AppData\Local\Temp\ccby6rnL.s 			page 6


 208:.\Generated_Source\PSoC5/ETH0.c **** 	uint32 count;
 209:.\Generated_Source\PSoC5/ETH0.c **** 	
 210:.\Generated_Source\PSoC5/ETH0.c **** 	/* Using internal device SS generation */
 211:.\Generated_Source\PSoC5/ETH0.c **** 	ETH0_W51_Select();
 212:.\Generated_Source\PSoC5/ETH0.c **** 	/*
 213:.\Generated_Source\PSoC5/ETH0.c **** 	 * First, clear the Rx Buffer of any waiting data.  Then begin the
 214:.\Generated_Source\PSoC5/ETH0.c **** 	 * read operation by sending the op code, followed byte the address
 215:.\Generated_Source\PSoC5/ETH0.c **** 	 * from which the read will be executed, then send a dummy byte
 216:.\Generated_Source\PSoC5/ETH0.c **** 	 * of zeros to read the data from the device.
 217:.\Generated_Source\PSoC5/ETH0.c **** 	 */
 218:.\Generated_Source\PSoC5/ETH0.c **** 	SPI0_SpiUartClearRxBuffer();
 219:.\Generated_Source\PSoC5/ETH0.c **** 	/* Begin data read */
 220:.\Generated_Source\PSoC5/ETH0.c **** 	SPI0_SpiUartWriteTxData(ETH0_READ_OP);
 221:.\Generated_Source\PSoC5/ETH0.c **** 	SPI0_SpiUartWriteTxData(addr>>8);
 222:.\Generated_Source\PSoC5/ETH0.c **** 	SPI0_SpiUartWriteTxData(addr&0x00FF);
 223:.\Generated_Source\PSoC5/ETH0.c **** 	SPI0_SpiUartWriteTxData( 0 );
 224:.\Generated_Source\PSoC5/ETH0.c **** 	/* Wait for operations to complete. */
 225:.\Generated_Source\PSoC5/ETH0.c **** 	CyDelayUs( 2 );
 226:.\Generated_Source\PSoC5/ETH0.c **** 	count = SPI0_SpiUartGetRxBufferSize();
 227:.\Generated_Source\PSoC5/ETH0.c **** 	while( count > 0 )
 228:.\Generated_Source\PSoC5/ETH0.c **** 	{
 229:.\Generated_Source\PSoC5/ETH0.c **** 		dat = SPI0_SpiUartReadRxData(); 
 230:.\Generated_Source\PSoC5/ETH0.c **** 		count = SPI0_SpiUartGetRxBufferSize();
 231:.\Generated_Source\PSoC5/ETH0.c **** 	}
 232:.\Generated_Source\PSoC5/ETH0.c **** 	
 233:.\Generated_Source\PSoC5/ETH0.c **** 	return( dat&0xFF );
 234:.\Generated_Source\PSoC5/ETH0.c **** }
 235:.\Generated_Source\PSoC5/ETH0.c **** 
 236:.\Generated_Source\PSoC5/ETH0.c **** #endif
 237:.\Generated_Source\PSoC5/ETH0.c **** 
 238:.\Generated_Source\PSoC5/ETH0.c **** /* ======================================================================== */
 239:.\Generated_Source\PSoC5/ETH0.c **** /* W5100 Register Access Primitaves */
 240:.\Generated_Source\PSoC5/ETH0.c **** #if (1)
 241:.\Generated_Source\PSoC5/ETH0.c **** /* ------------------------------------------------------------------------ */
 242:.\Generated_Source\PSoC5/ETH0.c **** /**
 243:.\Generated_Source\PSoC5/ETH0.c ****  * \brief Write a MAC (hardware) address to a group of registers
 244:.\Generated_Source\PSoC5/ETH0.c ****  * \param addr The starting address of the registers/memory for the MAC address
 245:.\Generated_Source\PSoC5/ETH0.c ****  * \param *mac pointer to the array of bytes holding the MAC address.
 246:.\Generated_Source\PSoC5/ETH0.c ****  */
 247:.\Generated_Source\PSoC5/ETH0.c **** static void ETH0_W51_SetMAC(uint16 addr, uint8 *mac)
 248:.\Generated_Source\PSoC5/ETH0.c **** {
 249:.\Generated_Source\PSoC5/ETH0.c **** 	uint32 index;
 250:.\Generated_Source\PSoC5/ETH0.c **** 	
 251:.\Generated_Source\PSoC5/ETH0.c **** 	for(index = 0;index<6;++index)
 252:.\Generated_Source\PSoC5/ETH0.c **** 	{
 253:.\Generated_Source\PSoC5/ETH0.c **** 		ETH0_W51_Write(addr+index,mac[index]);
 254:.\Generated_Source\PSoC5/ETH0.c **** 	}
 255:.\Generated_Source\PSoC5/ETH0.c **** }
 256:.\Generated_Source\PSoC5/ETH0.c **** /* ------------------------------------------------------------------------ */
 257:.\Generated_Source\PSoC5/ETH0.c **** /**
 258:.\Generated_Source\PSoC5/ETH0.c ****  * \brief Read a MAC (hardware) address from a set of registers.
 259:.\Generated_Source\PSoC5/ETH0.c ****  * \param addr the address from which the data will be read
 260:.\Generated_Source\PSoC5/ETH0.c ****  * \param *mac pointer to the array of bytes to hold the output mac address.
 261:.\Generated_Source\PSoC5/ETH0.c ****  */
 262:.\Generated_Source\PSoC5/ETH0.c **** static void ETH0_W51_GetMAC( uint16 addr, uint8* mac )
 263:.\Generated_Source\PSoC5/ETH0.c **** {
 264:.\Generated_Source\PSoC5/ETH0.c **** 	uint32 index;
ARM GAS  C:\Users\CHUCK~1.ERH\AppData\Local\Temp\ccby6rnL.s 			page 7


 265:.\Generated_Source\PSoC5/ETH0.c **** 	for(index=0;index<6;++index) {
 266:.\Generated_Source\PSoC5/ETH0.c **** 		mac[index] = ETH0_W51_Read(addr+index);
 267:.\Generated_Source\PSoC5/ETH0.c **** 	}
 268:.\Generated_Source\PSoC5/ETH0.c **** }
 269:.\Generated_Source\PSoC5/ETH0.c **** /* ------------------------------------------------------------------------ */
 270:.\Generated_Source\PSoC5/ETH0.c **** /**
 271:.\Generated_Source\PSoC5/ETH0.c ****  * \brief Write an IPv4 address to the device.
 272:.\Generated_Source\PSoC5/ETH0.c ****  * \param addr the address of the memory/registers to write the IPv4 Address
 273:.\Generated_Source\PSoC5/ETH0.c ****  * \param ip the IP address to write
 274:.\Generated_Source\PSoC5/ETH0.c ****  */
 275:.\Generated_Source\PSoC5/ETH0.c **** static void ETH0_W51_SetIP( uint16 addr, uint32 ip )
 276:.\Generated_Source\PSoC5/ETH0.c **** {
 277:.\Generated_Source\PSoC5/ETH0.c **** 	uint32 index;
 278:.\Generated_Source\PSoC5/ETH0.c **** 	uint8* buffer;
 279:.\Generated_Source\PSoC5/ETH0.c **** 
 280:.\Generated_Source\PSoC5/ETH0.c **** 	buffer = (uint8*)&ip;
 281:.\Generated_Source\PSoC5/ETH0.c **** 	for(index = 0;index<4;++index) {
 282:.\Generated_Source\PSoC5/ETH0.c **** 		ETH0_W51_Write(addr+index,buffer[index]);
 283:.\Generated_Source\PSoC5/ETH0.c **** 	}
 284:.\Generated_Source\PSoC5/ETH0.c **** }
 285:.\Generated_Source\PSoC5/ETH0.c **** /* ------------------------------------------------------------------------ */
 286:.\Generated_Source\PSoC5/ETH0.c **** /**
 287:.\Generated_Source\PSoC5/ETH0.c ****  * \brief Read an IPv4 address from a set of registers
 288:.\Generated_Source\PSoC5/ETH0.c ****  * \param addr the address from which the IP address will be retrieved.
 289:.\Generated_Source\PSoC5/ETH0.c ****  * \returns the IP address read from the device.
 290:.\Generated_Source\PSoC5/ETH0.c ****  */
 291:.\Generated_Source\PSoC5/ETH0.c **** static uint32 ETH0_W51_GetIP( uint16 addr )
 292:.\Generated_Source\PSoC5/ETH0.c **** {
 293:.\Generated_Source\PSoC5/ETH0.c **** 	uint8 buffer[4];
 294:.\Generated_Source\PSoC5/ETH0.c **** 	int index;
 295:.\Generated_Source\PSoC5/ETH0.c **** 	uint32* ip;
 296:.\Generated_Source\PSoC5/ETH0.c **** 	
 297:.\Generated_Source\PSoC5/ETH0.c **** 	ip = (uint32*) &buffer[0];
 298:.\Generated_Source\PSoC5/ETH0.c **** 	*ip = 0;
 299:.\Generated_Source\PSoC5/ETH0.c **** 	for(index=0;index<4;++index) {
 300:.\Generated_Source\PSoC5/ETH0.c **** 		buffer[index] = ETH0_W51_Read(addr+index);
 301:.\Generated_Source\PSoC5/ETH0.c **** 	}
 302:.\Generated_Source\PSoC5/ETH0.c **** 	return( *ip );
 303:.\Generated_Source\PSoC5/ETH0.c **** }
 304:.\Generated_Source\PSoC5/ETH0.c **** /* ------------------------------------------------------------------------ */
 305:.\Generated_Source\PSoC5/ETH0.c **** /**
 306:.\Generated_Source\PSoC5/ETH0.c ****  * \brief Write a 16-bit word to the device
 307:.\Generated_Source\PSoC5/ETH0.c ****  * \param addr the starting address to which the data will be written
 308:.\Generated_Source\PSoC5/ETH0.c ****  * \param val the 16-bit value to write
 309:.\Generated_Source\PSoC5/ETH0.c ****  */
 310:.\Generated_Source\PSoC5/ETH0.c **** static void ETH0_W51_Write16( uint16 addr, uint16 val )
 311:.\Generated_Source\PSoC5/ETH0.c **** {
  78              		.loc 1 311 0
  79              		.cfi_startproc
  80              		@ args = 0, pretend = 0, frame = 0
  81              		@ frame_needed = 0, uses_anonymous_args = 0
  82              	.LVL7:
  83 0000 38B5     		push	{r3, r4, r5, lr}
  84              	.LCFI1:
  85              		.cfi_def_cfa_offset 16
  86              		.cfi_offset 3, -16
  87              		.cfi_offset 4, -12
ARM GAS  C:\Users\CHUCK~1.ERH\AppData\Local\Temp\ccby6rnL.s 			page 8


  88              		.cfi_offset 5, -8
  89              		.cfi_offset 14, -4
  90              		.loc 1 311 0
  91 0002 0C46     		mov	r4, r1
 312:.\Generated_Source\PSoC5/ETH0.c **** 	ETH0_W51_Write( addr, val>>8);
  92              		.loc 1 312 0
  93 0004 090A     		lsrs	r1, r1, #8
  94              	.LVL8:
 311:.\Generated_Source\PSoC5/ETH0.c **** {
  95              		.loc 1 311 0
  96 0006 0546     		mov	r5, r0
  97              		.loc 1 312 0
  98 0008 FFF7FEFF 		bl	ETH0_W51_Write
  99              	.LVL9:
 313:.\Generated_Source\PSoC5/ETH0.c **** 	ETH0_W51_Write( addr + 1, val&0x00FF);
 100              		.loc 1 313 0
 101 000c 681C     		adds	r0, r5, #1
 102 000e 80B2     		uxth	r0, r0
 103 0010 E1B2     		uxtb	r1, r4
 314:.\Generated_Source\PSoC5/ETH0.c **** }
 104              		.loc 1 314 0
 105 0012 BDE83840 		pop	{r3, r4, r5, lr}
 313:.\Generated_Source\PSoC5/ETH0.c **** 	ETH0_W51_Write( addr + 1, val&0x00FF);
 106              		.loc 1 313 0
 107 0016 FFF7FEBF 		b	ETH0_W51_Write
 108              	.LVL10:
 109              		.cfi_endproc
 110              	.LFE7:
 111              		.size	ETH0_W51_Write16, .-ETH0_W51_Write16
 112              		.section	.text.ETH0_W51_SetIP,"ax",%progbits
 113              		.align	1
 114              		.thumb
 115              		.thumb_func
 116              		.type	ETH0_W51_SetIP, %function
 117              	ETH0_W51_SetIP:
 118              	.LFB5:
 276:.\Generated_Source\PSoC5/ETH0.c **** {
 119              		.loc 1 276 0
 120              		.cfi_startproc
 121              		@ args = 0, pretend = 0, frame = 8
 122              		@ frame_needed = 0, uses_anonymous_args = 0
 123              	.LVL11:
 124 0000 37B5     		push	{r0, r1, r2, r4, r5, lr}
 125              	.LCFI2:
 126              		.cfi_def_cfa_offset 24
 127              		.cfi_offset 0, -24
 128              		.cfi_offset 1, -20
 129              		.cfi_offset 2, -16
 130              		.cfi_offset 4, -12
 131              		.cfi_offset 5, -8
 132              		.cfi_offset 14, -4
 133              	.LVL12:
 276:.\Generated_Source\PSoC5/ETH0.c **** {
 134              		.loc 1 276 0
 135 0002 0546     		mov	r5, r0
 136              	.LVL13:
 137 0004 0191     		str	r1, [sp, #4]
ARM GAS  C:\Users\CHUCK~1.ERH\AppData\Local\Temp\ccby6rnL.s 			page 9


 281:.\Generated_Source\PSoC5/ETH0.c **** 	for(index = 0;index<4;++index) {
 138              		.loc 1 281 0
 139 0006 0024     		movs	r4, #0
 140              	.LVL14:
 141              	.L4:
 275:.\Generated_Source\PSoC5/ETH0.c **** static void ETH0_W51_SetIP( uint16 addr, uint32 ip )
 142              		.loc 1 275 0 discriminator 2
 143 0008 2819     		adds	r0, r5, r4
 282:.\Generated_Source\PSoC5/ETH0.c **** 		ETH0_W51_Write(addr+index,buffer[index]);
 144              		.loc 1 282 0 discriminator 2
 145 000a 01AB     		add	r3, sp, #4
 146              	.LVL15:
 147 000c 195D     		ldrb	r1, [r3, r4]	@ zero_extendqisi2
 148 000e 80B2     		uxth	r0, r0
 281:.\Generated_Source\PSoC5/ETH0.c **** 	for(index = 0;index<4;++index) {
 149              		.loc 1 281 0 discriminator 2
 150 0010 0134     		adds	r4, r4, #1
 282:.\Generated_Source\PSoC5/ETH0.c **** 		ETH0_W51_Write(addr+index,buffer[index]);
 151              		.loc 1 282 0 discriminator 2
 152 0012 FFF7FEFF 		bl	ETH0_W51_Write
 153              	.LVL16:
 281:.\Generated_Source\PSoC5/ETH0.c **** 	for(index = 0;index<4;++index) {
 154              		.loc 1 281 0 discriminator 2
 155 0016 042C     		cmp	r4, #4
 156 0018 F6D1     		bne	.L4
 284:.\Generated_Source\PSoC5/ETH0.c **** }
 157              		.loc 1 284 0
 158 001a 3EBD     		pop	{r1, r2, r3, r4, r5, pc}
 159              		.cfi_endproc
 160              	.LFE5:
 161              		.size	ETH0_W51_SetIP, .-ETH0_W51_SetIP
 162              		.section	.text.ETH0_W51_WriteBlock,"ax",%progbits
 163              		.align	1
 164              		.thumb
 165              		.thumb_func
 166              		.type	ETH0_W51_WriteBlock, %function
 167              	ETH0_W51_WriteBlock:
 168              	.LFB9:
 315:.\Generated_Source\PSoC5/ETH0.c **** /* ------------------------------------------------------------------------ */
 316:.\Generated_Source\PSoC5/ETH0.c **** /**
 317:.\Generated_Source\PSoC5/ETH0.c ****  * \brief Read a 16-bit value from the device
 318:.\Generated_Source\PSoC5/ETH0.c ****  * \param addr The starting address from which data will be read
 319:.\Generated_Source\PSoC5/ETH0.c ****  * \returns the 16-bit value read from the memory.
 320:.\Generated_Source\PSoC5/ETH0.c ****  */
 321:.\Generated_Source\PSoC5/ETH0.c **** static uint16 ETH0_W51_Read16( uint16 addr )
 322:.\Generated_Source\PSoC5/ETH0.c **** {
 323:.\Generated_Source\PSoC5/ETH0.c **** 	uint16 val;
 324:.\Generated_Source\PSoC5/ETH0.c **** 	
 325:.\Generated_Source\PSoC5/ETH0.c **** 	val = ETH0_W51_Read( addr );
 326:.\Generated_Source\PSoC5/ETH0.c **** 	val <<= 8;
 327:.\Generated_Source\PSoC5/ETH0.c **** 	val += ETH0_W51_Read( addr + 1);
 328:.\Generated_Source\PSoC5/ETH0.c **** 	
 329:.\Generated_Source\PSoC5/ETH0.c **** 	return( val );
 330:.\Generated_Source\PSoC5/ETH0.c **** }
 331:.\Generated_Source\PSoC5/ETH0.c **** /* ------------------------------------------------------------------------ */
 332:.\Generated_Source\PSoC5/ETH0.c **** /**
 333:.\Generated_Source\PSoC5/ETH0.c ****  * \brief Write a block of data to consecutive memory addresses
ARM GAS  C:\Users\CHUCK~1.ERH\AppData\Local\Temp\ccby6rnL.s 			page 10


 334:.\Generated_Source\PSoC5/ETH0.c ****  * \param addr the starting address of the write
 335:.\Generated_Source\PSoC5/ETH0.c ****  * \param *buffer pointer to the data buffer holding the data to write
 336:.\Generated_Source\PSoC5/ETH0.c ****  * \param length the length of data to be written
 337:.\Generated_Source\PSoC5/ETH0.c ****  */
 338:.\Generated_Source\PSoC5/ETH0.c **** static void ETH0_W51_WriteBlock(uint16 addr, uint8* buffer, uint16 length)
 339:.\Generated_Source\PSoC5/ETH0.c **** {
 169              		.loc 1 339 0
 170              		.cfi_startproc
 171              		@ args = 0, pretend = 0, frame = 0
 172              		@ frame_needed = 0, uses_anonymous_args = 0
 173              	.LVL17:
 174 0000 F8B5     		push	{r3, r4, r5, r6, r7, lr}
 175              	.LCFI3:
 176              		.cfi_def_cfa_offset 24
 177              		.cfi_offset 3, -24
 178              		.cfi_offset 4, -20
 179              		.cfi_offset 5, -16
 180              		.cfi_offset 6, -12
 181              		.cfi_offset 7, -8
 182              		.cfi_offset 14, -4
 183              		.loc 1 339 0
 184 0002 0546     		mov	r5, r0
 185 0004 0E46     		mov	r6, r1
 186 0006 1746     		mov	r7, r2
 340:.\Generated_Source\PSoC5/ETH0.c **** 	int index;
 341:.\Generated_Source\PSoC5/ETH0.c **** 	for(index=0;index<length;++index) {
 187              		.loc 1 341 0
 188 0008 0024     		movs	r4, #0
 189              	.LVL18:
 190              	.L8:
 191              		.loc 1 341 0 is_stmt 0 discriminator 1
 192 000a BC42     		cmp	r4, r7
 193 000c 06DA     		bge	.L10
 194              	.L9:
 338:.\Generated_Source\PSoC5/ETH0.c **** static void ETH0_W51_WriteBlock(uint16 addr, uint8* buffer, uint16 length)
 195              		.loc 1 338 0 is_stmt 1 discriminator 2
 196 000e 2819     		adds	r0, r5, r4
 342:.\Generated_Source\PSoC5/ETH0.c **** 		ETH0_W51_Write(addr+index,buffer[index]);
 197              		.loc 1 342 0 discriminator 2
 198 0010 315D     		ldrb	r1, [r6, r4]	@ zero_extendqisi2
 199 0012 80B2     		uxth	r0, r0
 200 0014 FFF7FEFF 		bl	ETH0_W51_Write
 201              	.LVL19:
 341:.\Generated_Source\PSoC5/ETH0.c **** 	for(index=0;index<length;++index) {
 202              		.loc 1 341 0 discriminator 2
 203 0018 0134     		adds	r4, r4, #1
 204              	.LVL20:
 205 001a F6E7     		b	.L8
 206              	.L10:
 343:.\Generated_Source\PSoC5/ETH0.c **** 	}
 344:.\Generated_Source\PSoC5/ETH0.c **** }
 207              		.loc 1 344 0
 208 001c F8BD     		pop	{r3, r4, r5, r6, r7, pc}
 209              		.cfi_endproc
 210              	.LFE9:
 211              		.size	ETH0_W51_WriteBlock, .-ETH0_W51_WriteBlock
 212              		.section	.text.ETH0_W51_Read,"ax",%progbits
ARM GAS  C:\Users\CHUCK~1.ERH\AppData\Local\Temp\ccby6rnL.s 			page 11


 213              		.align	1
 214              		.global	ETH0_W51_Read
 215              		.thumb
 216              		.thumb_func
 217              		.type	ETH0_W51_Read, %function
 218              	ETH0_W51_Read:
 219              	.LFB2:
 113:.\Generated_Source\PSoC5/ETH0.c **** {
 220              		.loc 1 113 0
 221              		.cfi_startproc
 222              		@ args = 0, pretend = 0, frame = 0
 223              		@ frame_needed = 0, uses_anonymous_args = 0
 224              	.LVL21:
 225 0000 38B5     		push	{r3, r4, r5, lr}
 226              	.LCFI4:
 227              		.cfi_def_cfa_offset 16
 228              		.cfi_offset 3, -16
 229              		.cfi_offset 4, -12
 230              		.cfi_offset 5, -8
 231              		.cfi_offset 14, -4
 113:.\Generated_Source\PSoC5/ETH0.c **** {
 232              		.loc 1 113 0
 233 0002 0446     		mov	r4, r0
 125:.\Generated_Source\PSoC5/ETH0.c **** 	SPI0_ClearRxBuffer();
 234              		.loc 1 125 0
 235 0004 FFF7FEFF 		bl	SPI0_ClearRxBuffer
 236              	.LVL22:
 127:.\Generated_Source\PSoC5/ETH0.c **** 	SPI0_WriteTxData(ETH0_READ_OP);
 237              		.loc 1 127 0
 238 0008 0F20     		movs	r0, #15
 239 000a FFF7FEFF 		bl	SPI0_WriteTxData
 240              	.LVL23:
 128:.\Generated_Source\PSoC5/ETH0.c **** 	SPI0_WriteTxData(addr>>8);
 241              		.loc 1 128 0
 242 000e 200A     		lsrs	r0, r4, #8
 243 0010 FFF7FEFF 		bl	SPI0_WriteTxData
 244              	.LVL24:
 129:.\Generated_Source\PSoC5/ETH0.c **** 	SPI0_WriteTxData(addr&0x00FF);
 245              		.loc 1 129 0
 246 0014 E0B2     		uxtb	r0, r4
 247 0016 FFF7FEFF 		bl	SPI0_WriteTxData
 248              	.LVL25:
 130:.\Generated_Source\PSoC5/ETH0.c **** 	SPI0_WriteTxData( 0 );
 249              		.loc 1 130 0
 250 001a 0020     		movs	r0, #0
 251 001c FFF7FEFF 		bl	SPI0_WriteTxData
 252              	.LVL26:
 132:.\Generated_Source\PSoC5/ETH0.c **** 	CyDelayUs( 2 );
 253              		.loc 1 132 0
 254 0020 0220     		movs	r0, #2
 255 0022 FFF7FEFF 		bl	CyDelayUs
 256              	.LVL27:
 257              	.L14:
 137:.\Generated_Source\PSoC5/ETH0.c **** 		count = SPI0_GetRxBufferSize();
 258              		.loc 1 137 0
 259 0026 FFF7FEFF 		bl	SPI0_GetRxBufferSize
 260              	.LVL28:
ARM GAS  C:\Users\CHUCK~1.ERH\AppData\Local\Temp\ccby6rnL.s 			page 12


 134:.\Generated_Source\PSoC5/ETH0.c **** 	while( count > 0 )
 261              		.loc 1 134 0
 262 002a 18B1     		cbz	r0, .L15
 263              	.L13:
 136:.\Generated_Source\PSoC5/ETH0.c **** 		dat = SPI0_ReadRxData(); 
 264              		.loc 1 136 0
 265 002c FFF7FEFF 		bl	SPI0_ReadRxData
 266              	.LVL29:
 267 0030 0546     		mov	r5, r0
 268 0032 F8E7     		b	.L14
 269              	.LVL30:
 270              	.L15:
 141:.\Generated_Source\PSoC5/ETH0.c **** }
 271              		.loc 1 141 0
 272 0034 E8B2     		uxtb	r0, r5
 273              	.LVL31:
 274 0036 38BD     		pop	{r3, r4, r5, pc}
 275              		.cfi_endproc
 276              	.LFE2:
 277              		.size	ETH0_W51_Read, .-ETH0_W51_Read
 278              		.section	.text.ETH0_GetSocketStatus,"ax",%progbits
 279              		.align	1
 280              		.thumb
 281              		.thumb_func
 282              		.type	ETH0_GetSocketStatus, %function
 283              	ETH0_GetSocketStatus:
 284              	.LFB44:
 345:.\Generated_Source\PSoC5/ETH0.c **** /* ------------------------------------------------------------------------ */
 346:.\Generated_Source\PSoC5/ETH0.c **** /**
 347:.\Generated_Source\PSoC5/ETH0.c ****  * \brief read a block of data from consecutive memory addresses
 348:.\Generated_Source\PSoC5/ETH0.c ****  * \param addr the address from which the read will begin
 349:.\Generated_Source\PSoC5/ETH0.c ****  * \param *buffer pointer to the memory buffer which will hold the read data
 350:.\Generated_Source\PSoC5/ETH0.c ****  * \param length the length of data to read from the buffer.
 351:.\Generated_Source\PSoC5/ETH0.c ****  */
 352:.\Generated_Source\PSoC5/ETH0.c **** static void ETH0_W51_ReadBlock(uint16 addr, uint8* buffer, uint16 length)
 353:.\Generated_Source\PSoC5/ETH0.c **** {
 354:.\Generated_Source\PSoC5/ETH0.c **** 	int index;
 355:.\Generated_Source\PSoC5/ETH0.c **** 	
 356:.\Generated_Source\PSoC5/ETH0.c **** 	for(index=0;index<length;++index) {
 357:.\Generated_Source\PSoC5/ETH0.c **** 		buffer[index] = ETH0_W51_Read(addr+index);
 358:.\Generated_Source\PSoC5/ETH0.c **** 	}
 359:.\Generated_Source\PSoC5/ETH0.c **** }
 360:.\Generated_Source\PSoC5/ETH0.c **** /* ======================================================================== */
 361:.\Generated_Source\PSoC5/ETH0.c **** /* END SECTION */
 362:.\Generated_Source\PSoC5/ETH0.c **** #endif
 363:.\Generated_Source\PSoC5/ETH0.c **** /* ======================================================================== */
 364:.\Generated_Source\PSoC5/ETH0.c **** /* Chip Register access */
 365:.\Generated_Source\PSoC5/ETH0.c **** #if (1)
 366:.\Generated_Source\PSoC5/ETH0.c **** // Common Registers
 367:.\Generated_Source\PSoC5/ETH0.c **** /* ------------------------------------------------------------------------ */
 368:.\Generated_Source\PSoC5/ETH0.c **** /**
 369:.\Generated_Source\PSoC5/ETH0.c ****  * \brief Set teh chip mac address to teh specified address
 370:.\Generated_Source\PSoC5/ETH0.c ****  * \param *mac pointer to the array holding the MAC address
 371:.\Generated_Source\PSoC5/ETH0.c ****  */
 372:.\Generated_Source\PSoC5/ETH0.c **** static void ETH0_SetSourceMAC( uint8* mac ) { ETH0_W51_SetMAC(9,mac); }
 373:.\Generated_Source\PSoC5/ETH0.c **** /* ------------------------------------------------------------------------ */
 374:.\Generated_Source\PSoC5/ETH0.c **** /**
ARM GAS  C:\Users\CHUCK~1.ERH\AppData\Local\Temp\ccby6rnL.s 			page 13


 375:.\Generated_Source\PSoC5/ETH0.c ****  * \brief Read the chip source MAC address from the MAC registers
 376:.\Generated_Source\PSoC5/ETH0.c ****  * \param *mac pointer to the address of the buffer to hold the read MAC address
 377:.\Generated_Source\PSoC5/ETH0.c ****  */
 378:.\Generated_Source\PSoC5/ETH0.c **** static void ETH0_GetSourceMAC( uint8* mac ) { ETH0_W51_GetMAC(9,mac); }
 379:.\Generated_Source\PSoC5/ETH0.c **** /* ------------------------------------------------------------------------ */
 380:.\Generated_Source\PSoC5/ETH0.c **** /**
 381:.\Generated_Source\PSoC5/ETH0.c ****  * \brief Set the IPv4 address of the network gateway
 382:.\Generated_Source\PSoC5/ETH0.c ****  * \param ip IP address of the gateway
 383:.\Generated_Source\PSoC5/ETH0.c ****  */
 384:.\Generated_Source\PSoC5/ETH0.c **** static void ETH0_SetGatewayAddress(uint32 ip) { ETH0_W51_SetIP(1,ip); }
 385:.\Generated_Source\PSoC5/ETH0.c **** /* ------------------------------------------------------------------------ */
 386:.\Generated_Source\PSoC5/ETH0.c **** /**
 387:.\Generated_Source\PSoC5/ETH0.c ****  * \brief Read the gateway address from the device
 388:.\Generated_Source\PSoC5/ETH0.c ****  * \returns the IP address of the gateway
 389:.\Generated_Source\PSoC5/ETH0.c ****  */
 390:.\Generated_Source\PSoC5/ETH0.c **** static uint32 ETH0_GetGatewayAddress( void ) { return ETH0_W51_GetIP(1); }
 391:.\Generated_Source\PSoC5/ETH0.c **** /* ------------------------------------------------------------------------ */
 392:.\Generated_Source\PSoC5/ETH0.c **** /**
 393:.\Generated_Source\PSoC5/ETH0.c ****  * \brief set the subnet mask of the ethernet device
 394:.\Generated_Source\PSoC5/ETH0.c ****  * \param the subnet mask (IPv4)
 395:.\Generated_Source\PSoC5/ETH0.c ****  */
 396:.\Generated_Source\PSoC5/ETH0.c **** static void ETH0_SetSubnetMask( uint32 ip ) { ETH0_W51_SetIP(5, ip); }
 397:.\Generated_Source\PSoC5/ETH0.c **** /* ------------------------------------------------------------------------ */
 398:.\Generated_Source\PSoC5/ETH0.c **** /**
 399:.\Generated_Source\PSoC5/ETH0.c ****  * \brief Read the subnet mask from the device
 400:.\Generated_Source\PSoC5/ETH0.c ****  * \returns the subnet mask that was read from the device.
 401:.\Generated_Source\PSoC5/ETH0.c ****  */
 402:.\Generated_Source\PSoC5/ETH0.c **** static uint32 ETH0_GetSubnetMask( void ) { return ETH0_W51_GetIP(5); }
 403:.\Generated_Source\PSoC5/ETH0.c **** /* ------------------------------------------------------------------------ */
 404:.\Generated_Source\PSoC5/ETH0.c **** /**
 405:.\Generated_Source\PSoC5/ETH0.c ****  * \brief Write the device source IPv4 address
 406:.\Generated_Source\PSoC5/ETH0.c ****  * \param ip the ip address to set as the chip IP address
 407:.\Generated_Source\PSoC5/ETH0.c ****  */
 408:.\Generated_Source\PSoC5/ETH0.c **** static void ETH0_SetSourceIP( uint32 ip ) { ETH0_W51_SetIP( 0x0F, ip ); }
 409:.\Generated_Source\PSoC5/ETH0.c **** /* ------------------------------------------------------------------------ */
 410:.\Generated_Source\PSoC5/ETH0.c **** /**
 411:.\Generated_Source\PSoC5/ETH0.c ****  * \brief Read the device's programmed IP address
 412:.\Generated_Source\PSoC5/ETH0.c ****  * \returns The IPv4 address to which the device is set.
 413:.\Generated_Source\PSoC5/ETH0.c ****  */
 414:.\Generated_Source\PSoC5/ETH0.c **** static uint32 ETH0_GetSourceIP( void ) { return ETH0_W51_GetIP( 0x0F ); }
 415:.\Generated_Source\PSoC5/ETH0.c **** /* ------------------------------------------------------------------------ */
 416:.\Generated_Source\PSoC5/ETH0.c **** /**
 417:.\Generated_Source\PSoC5/ETH0.c ****  * \brief Write a value to the device internal MODE register
 418:.\Generated_Source\PSoC5/ETH0.c ****  * \param mode the value to be written to the mode register.
 419:.\Generated_Source\PSoC5/ETH0.c ****  */
 420:.\Generated_Source\PSoC5/ETH0.c **** static void ETH0_SetMode( uint8 mode ) { ETH0_W51_Write(0,mode); }
 421:.\Generated_Source\PSoC5/ETH0.c **** /* ------------------------------------------------------------------------ */
 422:.\Generated_Source\PSoC5/ETH0.c **** /**
 423:.\Generated_Source\PSoC5/ETH0.c ****  * \brief Read the present contents of the device internal mode register
 424:.\Generated_Source\PSoC5/ETH0.c ****  * \returns the value of the mode register
 425:.\Generated_Source\PSoC5/ETH0.c ****  */
 426:.\Generated_Source\PSoC5/ETH0.c **** static uint8 ETH0_GetMode( void ) { return ETH0_W51_Read(0); }
 427:.\Generated_Source\PSoC5/ETH0.c **** /* ------------------------------------------------------------------------ */
 428:.\Generated_Source\PSoC5/ETH0.c **** /**
 429:.\Generated_Source\PSoC5/ETH0.c ****  * \brief Write the value of the interrupt register
 430:.\Generated_Source\PSoC5/ETH0.c ****  * \param ir the value to be written to the interrupt register
 431:.\Generated_Source\PSoC5/ETH0.c ****  */
ARM GAS  C:\Users\CHUCK~1.ERH\AppData\Local\Temp\ccby6rnL.s 			page 14


 432:.\Generated_Source\PSoC5/ETH0.c **** static void ETH0_SetIR( uint8 ir ) { ETH0_W51_Write(0x0015,ir); }
 433:.\Generated_Source\PSoC5/ETH0.c **** /* ------------------------------------------------------------------------ */
 434:.\Generated_Source\PSoC5/ETH0.c **** /**
 435:.\Generated_Source\PSoC5/ETH0.c ****  * \brief Read the contents of the interrupt register
 436:.\Generated_Source\PSoC5/ETH0.c ****  * \returns the contents read from the interrupt register
 437:.\Generated_Source\PSoC5/ETH0.c ****  */
 438:.\Generated_Source\PSoC5/ETH0.c **** static uint8 ETH0_GetIR( void ) { return ETH0_W51_Read(0x0015); }
 439:.\Generated_Source\PSoC5/ETH0.c **** /* ------------------------------------------------------------------------ */
 440:.\Generated_Source\PSoC5/ETH0.c **** /**
 441:.\Generated_Source\PSoC5/ETH0.c ****  * \brief Set the value of the interrupt mask register
 442:.\Generated_Source\PSoC5/ETH0.c ****  * \param imr the value to be written to the interrupt mask register
 443:.\Generated_Source\PSoC5/ETH0.c ****  */
 444:.\Generated_Source\PSoC5/ETH0.c **** static void ETH0_SetIMR( uint8 imr) { ETH0_W51_Write( 0x0016, imr ); }
 445:.\Generated_Source\PSoC5/ETH0.c **** /* ------------------------------------------------------------------------ */
 446:.\Generated_Source\PSoC5/ETH0.c **** /**
 447:.\Generated_Source\PSoC5/ETH0.c ****  * \brief Read the interrupt mask register
 448:.\Generated_Source\PSoC5/ETH0.c ****  * \returns the contents of the interrupt mask register
 449:.\Generated_Source\PSoC5/ETH0.c ****  */
 450:.\Generated_Source\PSoC5/ETH0.c **** static uint8 ETH0_GetIMR( void ) { return ETH0_W51_Read( 0x0016 ); }
 451:.\Generated_Source\PSoC5/ETH0.c **** /* ------------------------------------------------------------------------ */
 452:.\Generated_Source\PSoC5/ETH0.c **** /**
 453:.\Generated_Source\PSoC5/ETH0.c ****  * \brief Write the retry time register
 454:.\Generated_Source\PSoC5/ETH0.c ****  * \param time the value to be written to the regster
 455:.\Generated_Source\PSoC5/ETH0.c ****  */
 456:.\Generated_Source\PSoC5/ETH0.c **** static void ETH0_SetRetryTime( uint16 time) { ETH0_W51_Write16( 0x0017, time ); }
 457:.\Generated_Source\PSoC5/ETH0.c **** /* ------------------------------------------------------------------------ */
 458:.\Generated_Source\PSoC5/ETH0.c **** /**
 459:.\Generated_Source\PSoC5/ETH0.c ****  * \brief Read the retry tie register
 460:.\Generated_Source\PSoC5/ETH0.c ****  * \returns the value read from the register
 461:.\Generated_Source\PSoC5/ETH0.c ****  */
 462:.\Generated_Source\PSoC5/ETH0.c **** static uint16 ETH0_GetRetryTime( void ) { return ETH0_W51_Read16( 0x0017 ); }
 463:.\Generated_Source\PSoC5/ETH0.c **** /* ------------------------------------------------------------------------ */
 464:.\Generated_Source\PSoC5/ETH0.c **** /**
 465:.\Generated_Source\PSoC5/ETH0.c ****  * \breif write a value to the retry count register
 466:.\Generated_Source\PSoC5/ETH0.c ****  * \param count the value to be written to the register
 467:.\Generated_Source\PSoC5/ETH0.c ****  */
 468:.\Generated_Source\PSoC5/ETH0.c **** static void ETH0_SetRetryCount( uint8 count ) { ETH0_W51_Write( 0x0019, count); }
 469:.\Generated_Source\PSoC5/ETH0.c **** /* ------------------------------------------------------------------------ */
 470:.\Generated_Source\PSoC5/ETH0.c **** /**
 471:.\Generated_Source\PSoC5/ETH0.c ****  * \brief Read the contents of the retry count register
 472:.\Generated_Source\PSoC5/ETH0.c ****  * \returns the value read from teh register
 473:.\Generated_Source\PSoC5/ETH0.c ****  */
 474:.\Generated_Source\PSoC5/ETH0.c **** static uint8 ETH0_GetRetryCount( void ) { return ETH0_W51_Read( 0x0019 ); }
 475:.\Generated_Source\PSoC5/ETH0.c **** /* ------------------------------------------------------------------------ */
 476:.\Generated_Source\PSoC5/ETH0.c **** /**
 477:.\Generated_Source\PSoC5/ETH0.c ****  * \brief write a value to the Rx mem size register
 478:.\Generated_Source\PSoC5/ETH0.c ****  * \param size the value to be written to the register
 479:.\Generated_Source\PSoC5/ETH0.c ****  */
 480:.\Generated_Source\PSoC5/ETH0.c **** static void ETH0_SetRxMemSize( uint8 size ) { ETH0_W51_Write( 0x1A, size ); }
 481:.\Generated_Source\PSoC5/ETH0.c **** /* ------------------------------------------------------------------------ */
 482:.\Generated_Source\PSoC5/ETH0.c **** /**
 483:.\Generated_Source\PSoC5/ETH0.c ****  * \brief Read the contents of hte rx mem size register
 484:.\Generated_Source\PSoC5/ETH0.c ****  * \returns the value read from teh register
 485:.\Generated_Source\PSoC5/ETH0.c ****  */
 486:.\Generated_Source\PSoC5/ETH0.c **** static uint8 ETH0_GetRxMemSize( void ) { return ETH0_W51_Read(0x1A); }
 487:.\Generated_Source\PSoC5/ETH0.c **** /* ------------------------------------------------------------------------ */
 488:.\Generated_Source\PSoC5/ETH0.c **** /**
ARM GAS  C:\Users\CHUCK~1.ERH\AppData\Local\Temp\ccby6rnL.s 			page 15


 489:.\Generated_Source\PSoC5/ETH0.c ****  * \brief write a value to the tx mem size register
 490:.\Generated_Source\PSoC5/ETH0.c ****  * \param size The value to be written to the register
 491:.\Generated_Source\PSoC5/ETH0.c ****  */
 492:.\Generated_Source\PSoC5/ETH0.c **** static void ETH0_SetTxMemSize( uint8 size ) { ETH0_W51_Write( 0x1B, size); }
 493:.\Generated_Source\PSoC5/ETH0.c **** /* ------------------------------------------------------------------------ */
 494:.\Generated_Source\PSoC5/ETH0.c **** /**
 495:.\Generated_Source\PSoC5/ETH0.c ****  * \brief read the contents of the tx mem size register
 496:.\Generated_Source\PSoC5/ETH0.c ****  * \returns the value read from the register
 497:.\Generated_Source\PSoC5/ETH0.c ****  */
 498:.\Generated_Source\PSoC5/ETH0.c **** static uint8 ETH0_GetTxMemSize( void ) { return ETH0_W51_Read( 0x1B);}
 499:.\Generated_Source\PSoC5/ETH0.c **** /* ------------------------------------------------------------------------ */
 500:.\Generated_Source\PSoC5/ETH0.c **** /**
 501:.\Generated_Source\PSoC5/ETH0.c ****  * \brief write a value to the unreachable IP register
 502:.\Generated_Source\PSoC5/ETH0.c ****  * \param ip the value to be written to the register
 503:.\Generated_Source\PSoC5/ETH0.c ****  */
 504:.\Generated_Source\PSoC5/ETH0.c **** static void ETH0_SetUnreachableIP( uint32 ip) { ETH0_W51_SetIP( 0x2A, ip); }
 505:.\Generated_Source\PSoC5/ETH0.c **** /* ------------------------------------------------------------------------ */
 506:.\Generated_Source\PSoC5/ETH0.c **** /**
 507:.\Generated_Source\PSoC5/ETH0.c ****  * \brief read the contents of the unreachable IP register
 508:.\Generated_Source\PSoC5/ETH0.c ****  * \returns the value read from teh register
 509:.\Generated_Source\PSoC5/ETH0.c ****  */
 510:.\Generated_Source\PSoC5/ETH0.c **** static uint32 ETH0_GetUnreachableIP( void ) { return ETH0_W51_GetIP( 0x2A ); }
 511:.\Generated_Source\PSoC5/ETH0.c **** /* ------------------------------------------------------------------------ */
 512:.\Generated_Source\PSoC5/ETH0.c **** /**
 513:.\Generated_Source\PSoC5/ETH0.c ****  * \brief write a value to the unreachable port register
 514:.\Generated_Source\PSoC5/ETH0.c ****  * \param port the value to be written to the register
 515:.\Generated_Source\PSoC5/ETH0.c ****  */
 516:.\Generated_Source\PSoC5/ETH0.c **** static void ETH0_SetUnreachablePort( uint16 port) { ETH0_W51_Write16(0x2E, port); }
 517:.\Generated_Source\PSoC5/ETH0.c **** /* ------------------------------------------------------------------------ */
 518:.\Generated_Source\PSoC5/ETH0.c **** /**
 519:.\Generated_Source\PSoC5/ETH0.c ****  * \brief read the contents of the unreachable port register
 520:.\Generated_Source\PSoC5/ETH0.c ****  * \returns the value read from the register
 521:.\Generated_Source\PSoC5/ETH0.c ****  */
 522:.\Generated_Source\PSoC5/ETH0.c **** static uint16 ETH0_GetUnreachablePort( void ) { return ETH0_W51_Read16(0x2E); }
 523:.\Generated_Source\PSoC5/ETH0.c **** /* ======================================================================== */
 524:.\Generated_Source\PSoC5/ETH0.c **** /* End Section */
 525:.\Generated_Source\PSoC5/ETH0.c **** #endif
 526:.\Generated_Source\PSoC5/ETH0.c **** /* ======================================================================== */
 527:.\Generated_Source\PSoC5/ETH0.c **** /* Socket Registers */
 528:.\Generated_Source\PSoC5/ETH0.c **** #if (1)
 529:.\Generated_Source\PSoC5/ETH0.c **** /**
 530:.\Generated_Source\PSoC5/ETH0.c ****  * \def ETH0_SOCKET BASE(s)
 531:.\Generated_Source\PSoC5/ETH0.c ****  * \brief Convert the socket number to a base address within the W5100
 532:.\Generated_Source\PSoC5/ETH0.c ****  */
 533:.\Generated_Source\PSoC5/ETH0.c **** #define ETH0_SOCKET_BASE(s)           ((s<<8)+0x0400)
 534:.\Generated_Source\PSoC5/ETH0.c **** /* ------------------------------------------------------------------------ */
 535:.\Generated_Source\PSoC5/ETH0.c **** /**
 536:.\Generated_Source\PSoC5/ETH0.c ****  * \brief Write a value to the socket mode register
 537:.\Generated_Source\PSoC5/ETH0.c ****  * \param socket the socket number for the addressed register
 538:.\Generated_Source\PSoC5/ETH0.c ****  * \param mode the value to be written to the register
 539:.\Generated_Source\PSoC5/ETH0.c ****  */
 540:.\Generated_Source\PSoC5/ETH0.c **** static void ETH0_SetSocketMode(uint8 socket, uint8 mode)
 541:.\Generated_Source\PSoC5/ETH0.c **** { ETH0_W51_Write(ETH0_SOCKET_BASE(socket), mode); }
 542:.\Generated_Source\PSoC5/ETH0.c **** /* ------------------------------------------------------------------------ */
 543:.\Generated_Source\PSoC5/ETH0.c **** /**
 544:.\Generated_Source\PSoC5/ETH0.c ****  * \brief Read a value from the socket mode register
 545:.\Generated_Source\PSoC5/ETH0.c ****  * \param socket the socket number for the addressed register
ARM GAS  C:\Users\CHUCK~1.ERH\AppData\Local\Temp\ccby6rnL.s 			page 16


 546:.\Generated_Source\PSoC5/ETH0.c ****  * \returns the value read from the register
 547:.\Generated_Source\PSoC5/ETH0.c ****  */
 548:.\Generated_Source\PSoC5/ETH0.c **** static uint8 ETH0_GetSocketMode(uint8 socket)
 549:.\Generated_Source\PSoC5/ETH0.c **** { return ETH0_W51_Read(ETH0_SOCKET_BASE(socket)); }
 550:.\Generated_Source\PSoC5/ETH0.c **** /* ------------------------------------------------------------------------ */
 551:.\Generated_Source\PSoC5/ETH0.c **** /**
 552:.\Generated_Source\PSoC5/ETH0.c ****  * \brief Write a value to the socket command register
 553:.\Generated_Source\PSoC5/ETH0.c ****  * \param socket the socket number for the addressed register
 554:.\Generated_Source\PSoC5/ETH0.c ****  * \param cmd the value to be written to the register
 555:.\Generated_Source\PSoC5/ETH0.c ****  */
 556:.\Generated_Source\PSoC5/ETH0.c **** static void ETH0_SetSocketCommand(uint8 socket, uint8 cmd)
 557:.\Generated_Source\PSoC5/ETH0.c **** { ETH0_W51_Write(ETH0_SOCKET_BASE(socket)+1, cmd); }
 558:.\Generated_Source\PSoC5/ETH0.c **** /* ------------------------------------------------------------------------ */
 559:.\Generated_Source\PSoC5/ETH0.c **** /**
 560:.\Generated_Source\PSoC5/ETH0.c ****  * \brief Read a value from the socket command register
 561:.\Generated_Source\PSoC5/ETH0.c ****  * \param socket the socket number for the addressed register
 562:.\Generated_Source\PSoC5/ETH0.c ****  * \returns the value read from the register
 563:.\Generated_Source\PSoC5/ETH0.c ****  */
 564:.\Generated_Source\PSoC5/ETH0.c **** static uint8 ETH0_GetSocketCommand(uint8 socket)
 565:.\Generated_Source\PSoC5/ETH0.c **** { return ETH0_W51_Read(ETH0_SOCKET_BASE(socket)+1); }
 566:.\Generated_Source\PSoC5/ETH0.c **** /* ------------------------------------------------------------------------ */
 567:.\Generated_Source\PSoC5/ETH0.c **** /**
 568:.\Generated_Source\PSoC5/ETH0.c ****  * \brief Write a value to the socket interrupt register
 569:.\Generated_Source\PSoC5/ETH0.c ****  * \param socket the socket number for the addressed register
 570:.\Generated_Source\PSoC5/ETH0.c ****  * \param ir the value to be written to the register
 571:.\Generated_Source\PSoC5/ETH0.c ****  */
 572:.\Generated_Source\PSoC5/ETH0.c **** static void ETH0_SetSocketIR(uint8 socket, uint8 ir)
 573:.\Generated_Source\PSoC5/ETH0.c **** { ETH0_W51_Write(ETH0_SOCKET_BASE(socket)+2,ir); }
 574:.\Generated_Source\PSoC5/ETH0.c **** /* ------------------------------------------------------------------------ */
 575:.\Generated_Source\PSoC5/ETH0.c **** /**
 576:.\Generated_Source\PSoC5/ETH0.c ****  * \brief Read a value from the socket interrupt register
 577:.\Generated_Source\PSoC5/ETH0.c ****  * \param socket the socket number for the addressed register
 578:.\Generated_Source\PSoC5/ETH0.c ****  * \returns the value read from the register
 579:.\Generated_Source\PSoC5/ETH0.c ****  */
 580:.\Generated_Source\PSoC5/ETH0.c **** static uint8 ETH0_GetSocketIR(uint8 socket)
 581:.\Generated_Source\PSoC5/ETH0.c **** { return ETH0_W51_Read(ETH0_SOCKET_BASE(socket)+2); }
 582:.\Generated_Source\PSoC5/ETH0.c **** /* ------------------------------------------------------------------------ */
 583:.\Generated_Source\PSoC5/ETH0.c **** /**
 584:.\Generated_Source\PSoC5/ETH0.c ****  * \brief Write a value to the socket status register
 585:.\Generated_Source\PSoC5/ETH0.c ****  * \param socket the socket number for the addressed register
 586:.\Generated_Source\PSoC5/ETH0.c ****  * \param status the value to be written to the register
 587:.\Generated_Source\PSoC5/ETH0.c ****  */
 588:.\Generated_Source\PSoC5/ETH0.c **** static void ETH0_SetSocketStatus(uint8 socket, uint8 status)
 589:.\Generated_Source\PSoC5/ETH0.c **** { ETH0_W51_Write(ETH0_SOCKET_BASE(socket)+3,status); }
 590:.\Generated_Source\PSoC5/ETH0.c **** /* ------------------------------------------------------------------------ */
 591:.\Generated_Source\PSoC5/ETH0.c **** /**
 592:.\Generated_Source\PSoC5/ETH0.c ****  * \brief Read a value from the socket status register
 593:.\Generated_Source\PSoC5/ETH0.c ****  * \param socket the socket number for the addressed register
 594:.\Generated_Source\PSoC5/ETH0.c ****  * \returns the value read from the register
 595:.\Generated_Source\PSoC5/ETH0.c ****  */
 596:.\Generated_Source\PSoC5/ETH0.c **** static uint8 ETH0_GetSocketStatus(uint8 socket)
 597:.\Generated_Source\PSoC5/ETH0.c **** { return ETH0_W51_Read(ETH0_SOCKET_BASE(socket)+3); }
 285              		.loc 1 597 0
 286              		.cfi_startproc
 287              		@ args = 0, pretend = 0, frame = 0
 288              		@ frame_needed = 0, uses_anonymous_args = 0
 289              		@ link register save eliminated.
ARM GAS  C:\Users\CHUCK~1.ERH\AppData\Local\Temp\ccby6rnL.s 			page 17


 290              	.LVL32:
 291              		.loc 1 597 0
 292 0000 0002     		lsls	r0, r0, #8
 293              	.LVL33:
 294 0002 00F20341 		addw	r1, r0, #1027
 295 0006 88B2     		uxth	r0, r1
 296 0008 FFF7FEBF 		b	ETH0_W51_Read
 297              	.LVL34:
 298              		.cfi_endproc
 299              	.LFE44:
 300              		.size	ETH0_GetSocketStatus, .-ETH0_GetSocketStatus
 301              		.section	.text.ETH0_W51_Read16,"ax",%progbits
 302              		.align	1
 303              		.thumb
 304              		.thumb_func
 305              		.type	ETH0_W51_Read16, %function
 306              	ETH0_W51_Read16:
 307              	.LFB8:
 322:.\Generated_Source\PSoC5/ETH0.c **** {
 308              		.loc 1 322 0
 309              		.cfi_startproc
 310              		@ args = 0, pretend = 0, frame = 0
 311              		@ frame_needed = 0, uses_anonymous_args = 0
 312              	.LVL35:
 313 0000 38B5     		push	{r3, r4, r5, lr}
 314              	.LCFI5:
 315              		.cfi_def_cfa_offset 16
 316              		.cfi_offset 3, -16
 317              		.cfi_offset 4, -12
 318              		.cfi_offset 5, -8
 319              		.cfi_offset 14, -4
 322:.\Generated_Source\PSoC5/ETH0.c **** {
 320              		.loc 1 322 0
 321 0002 0546     		mov	r5, r0
 325:.\Generated_Source\PSoC5/ETH0.c **** 	val = ETH0_W51_Read( addr );
 322              		.loc 1 325 0
 323 0004 FFF7FEFF 		bl	ETH0_W51_Read
 324              	.LVL36:
 327:.\Generated_Source\PSoC5/ETH0.c **** 	val += ETH0_W51_Read( addr + 1);
 325              		.loc 1 327 0
 326 0008 691C     		adds	r1, r5, #1
 326:.\Generated_Source\PSoC5/ETH0.c **** 	val <<= 8;
 327              		.loc 1 326 0
 328 000a 0002     		lsls	r0, r0, #8
 329              	.LVL37:
 330 000c 84B2     		uxth	r4, r0
 331              	.LVL38:
 327:.\Generated_Source\PSoC5/ETH0.c **** 	val += ETH0_W51_Read( addr + 1);
 332              		.loc 1 327 0
 333 000e 88B2     		uxth	r0, r1
 334              	.LVL39:
 335 0010 FFF7FEFF 		bl	ETH0_W51_Read
 336              	.LVL40:
 337 0014 2218     		adds	r2, r4, r0
 330:.\Generated_Source\PSoC5/ETH0.c **** }
 338              		.loc 1 330 0
 339 0016 90B2     		uxth	r0, r2
ARM GAS  C:\Users\CHUCK~1.ERH\AppData\Local\Temp\ccby6rnL.s 			page 18


 340              	.LVL41:
 341 0018 38BD     		pop	{r3, r4, r5, pc}
 342              		.cfi_endproc
 343              	.LFE8:
 344              		.size	ETH0_W51_Read16, .-ETH0_W51_Read16
 345              		.section	.text.ETH0_ProcessTxData.constprop.2,"ax",%progbits
 346              		.align	1
 347              		.thumb
 348              		.thumb_func
 349              		.type	ETH0_ProcessTxData.constprop.2, %function
 350              	ETH0_ProcessTxData.constprop.2:
 351              	.LFB108:
 598:.\Generated_Source\PSoC5/ETH0.c **** /* ------------------------------------------------------------------------ */
 599:.\Generated_Source\PSoC5/ETH0.c **** /**
 600:.\Generated_Source\PSoC5/ETH0.c ****  * \brief Write a value to the socket source port register
 601:.\Generated_Source\PSoC5/ETH0.c ****  * \param socket the socket number for the addressed register
 602:.\Generated_Source\PSoC5/ETH0.c ****  * \param port the value to be written to the register
 603:.\Generated_Source\PSoC5/ETH0.c ****  */
 604:.\Generated_Source\PSoC5/ETH0.c **** static void ETH0_SetSocketSourcePort(uint8 socket, uint16 port)
 605:.\Generated_Source\PSoC5/ETH0.c **** { ETH0_W51_Write16(ETH0_SOCKET_BASE(socket)+4,port); }
 606:.\Generated_Source\PSoC5/ETH0.c **** /* ------------------------------------------------------------------------ */
 607:.\Generated_Source\PSoC5/ETH0.c **** /**
 608:.\Generated_Source\PSoC5/ETH0.c ****  * \brief Read a value from the socket source port register
 609:.\Generated_Source\PSoC5/ETH0.c ****  * \param socket the socket number for the addressed register
 610:.\Generated_Source\PSoC5/ETH0.c ****  * \returns the value read from the register
 611:.\Generated_Source\PSoC5/ETH0.c ****  */
 612:.\Generated_Source\PSoC5/ETH0.c **** static uint16 ETH0_GetSocketSourcePort(uint8 socket)
 613:.\Generated_Source\PSoC5/ETH0.c **** { return ETH0_W51_Read16(ETH0_SOCKET_BASE(socket)+4); }
 614:.\Generated_Source\PSoC5/ETH0.c **** /* ------------------------------------------------------------------------ */
 615:.\Generated_Source\PSoC5/ETH0.c **** /**
 616:.\Generated_Source\PSoC5/ETH0.c ****  * \brief Write a value to the socket Destination hardware address register
 617:.\Generated_Source\PSoC5/ETH0.c ****  * \param socket the socket number for the addressed register
 618:.\Generated_Source\PSoC5/ETH0.c ****  * \param *mac poitner to the array holding the values to be written to the register
 619:.\Generated_Source\PSoC5/ETH0.c ****  */
 620:.\Generated_Source\PSoC5/ETH0.c **** static void ETH0_SetSocketDestMAC(uint8 socket, uint8* mac)
 621:.\Generated_Source\PSoC5/ETH0.c **** { ETH0_W51_SetMAC( ETH0_SOCKET_BASE(socket)+6, mac); }
 622:.\Generated_Source\PSoC5/ETH0.c **** /* ------------------------------------------------------------------------ */
 623:.\Generated_Source\PSoC5/ETH0.c **** /**
 624:.\Generated_Source\PSoC5/ETH0.c ****  * \brief Read a value from the socket destination hardware address (MAC) register
 625:.\Generated_Source\PSoC5/ETH0.c ****  * \param socket the socket number for the addressed register
 626:.\Generated_Source\PSoC5/ETH0.c ****  * \returns the value read from the register
 627:.\Generated_Source\PSoC5/ETH0.c ****  */
 628:.\Generated_Source\PSoC5/ETH0.c **** static void ETH0_GetSocketDestMAC(uint8 socket, uint8* mac)
 629:.\Generated_Source\PSoC5/ETH0.c **** { ETH0_W51_GetMAC( ETH0_SOCKET_BASE(socket)+6,mac); }
 630:.\Generated_Source\PSoC5/ETH0.c **** /* ------------------------------------------------------------------------ */
 631:.\Generated_Source\PSoC5/ETH0.c **** /**
 632:.\Generated_Source\PSoC5/ETH0.c ****  * \brief Write a value to the socket Destination IP address register
 633:.\Generated_Source\PSoC5/ETH0.c ****  * \param socket the socket number for the addressed register
 634:.\Generated_Source\PSoC5/ETH0.c ****  * \param ip the value to be written to the register
 635:.\Generated_Source\PSoC5/ETH0.c ****  */
 636:.\Generated_Source\PSoC5/ETH0.c **** static void ETH0_SetSocketDestIP(uint8 socket, uint32 ip)
 637:.\Generated_Source\PSoC5/ETH0.c **** { ETH0_W51_SetIP(ETH0_SOCKET_BASE(socket)+12,ip); }
 638:.\Generated_Source\PSoC5/ETH0.c **** /* ------------------------------------------------------------------------ */
 639:.\Generated_Source\PSoC5/ETH0.c **** /**
 640:.\Generated_Source\PSoC5/ETH0.c ****  * \brief Read a value from the socket destination IP register
 641:.\Generated_Source\PSoC5/ETH0.c ****  * \param socket the socket number for the addressed register
 642:.\Generated_Source\PSoC5/ETH0.c ****  * \returns the value read from the register
ARM GAS  C:\Users\CHUCK~1.ERH\AppData\Local\Temp\ccby6rnL.s 			page 19


 643:.\Generated_Source\PSoC5/ETH0.c ****  */
 644:.\Generated_Source\PSoC5/ETH0.c **** static uint32 ETH0_GetSocketDestIP(uint8 socket )
 645:.\Generated_Source\PSoC5/ETH0.c **** { return ETH0_W51_GetIP(ETH0_SOCKET_BASE(socket)+12); }
 646:.\Generated_Source\PSoC5/ETH0.c **** /* ------------------------------------------------------------------------ */
 647:.\Generated_Source\PSoC5/ETH0.c **** /**
 648:.\Generated_Source\PSoC5/ETH0.c ****  * \brief Write a value to the socket destination port register
 649:.\Generated_Source\PSoC5/ETH0.c ****  * \param socket the socket number for the addressed register
 650:.\Generated_Source\PSoC5/ETH0.c ****  * \param port the value to be written to the register
 651:.\Generated_Source\PSoC5/ETH0.c ****  */
 652:.\Generated_Source\PSoC5/ETH0.c **** static void ETH0_SetSocketDestPort(uint8 socket, uint16 port)
 653:.\Generated_Source\PSoC5/ETH0.c **** { ETH0_W51_Write16( ETH0_SOCKET_BASE(socket)+16, port); }
 654:.\Generated_Source\PSoC5/ETH0.c **** /* ------------------------------------------------------------------------ */
 655:.\Generated_Source\PSoC5/ETH0.c **** /**
 656:.\Generated_Source\PSoC5/ETH0.c ****  * \brief Read a value from the socket destination port register
 657:.\Generated_Source\PSoC5/ETH0.c ****  * \param socket the socket number for the addressed register
 658:.\Generated_Source\PSoC5/ETH0.c ****  * \returns the value read from the register
 659:.\Generated_Source\PSoC5/ETH0.c ****  */
 660:.\Generated_Source\PSoC5/ETH0.c **** static uint16 ETH0_GetSocketDestPort(uint8 socket)
 661:.\Generated_Source\PSoC5/ETH0.c **** { return ETH0_W51_Read16( ETH0_SOCKET_BASE(socket)+16 ); }
 662:.\Generated_Source\PSoC5/ETH0.c **** /* ------------------------------------------------------------------------ */
 663:.\Generated_Source\PSoC5/ETH0.c **** /**
 664:.\Generated_Source\PSoC5/ETH0.c ****  * \brief Write a value to the socket max segment size register
 665:.\Generated_Source\PSoC5/ETH0.c ****  * \param socket the socket number for the addressed register
 666:.\Generated_Source\PSoC5/ETH0.c ****  * \param size the value to be written to the register
 667:.\Generated_Source\PSoC5/ETH0.c ****  */
 668:.\Generated_Source\PSoC5/ETH0.c **** static void ETH0_SetSocketMaxSegSize(uint8 socket, uint16 size)
 669:.\Generated_Source\PSoC5/ETH0.c **** { ETH0_W51_Write16(ETH0_SOCKET_BASE(socket)+18,size); }
 670:.\Generated_Source\PSoC5/ETH0.c **** /* ------------------------------------------------------------------------ */
 671:.\Generated_Source\PSoC5/ETH0.c **** /**
 672:.\Generated_Source\PSoC5/ETH0.c ****  * \brief Read a value from the socket maximum segment size register
 673:.\Generated_Source\PSoC5/ETH0.c ****  * \param socket the socket number for the addressed register
 674:.\Generated_Source\PSoC5/ETH0.c ****  * \returns the value read from the register
 675:.\Generated_Source\PSoC5/ETH0.c ****  */
 676:.\Generated_Source\PSoC5/ETH0.c **** static uint16 ETH0_GetSocketMaxSegSize(uint8 socket)
 677:.\Generated_Source\PSoC5/ETH0.c **** { return ETH0_W51_Read16(ETH0_SOCKET_BASE(socket)+18); }
 678:.\Generated_Source\PSoC5/ETH0.c **** /* ------------------------------------------------------------------------ */
 679:.\Generated_Source\PSoC5/ETH0.c **** /**
 680:.\Generated_Source\PSoC5/ETH0.c ****  * \brief Read a value from the socket protocol register (IP RAW/MAC RAW mode)
 681:.\Generated_Source\PSoC5/ETH0.c ****  * \param socket the socket number for the addressed register
 682:.\Generated_Source\PSoC5/ETH0.c ****  * \returns the value read from the register
 683:.\Generated_Source\PSoC5/ETH0.c ****  */
 684:.\Generated_Source\PSoC5/ETH0.c **** static uint16  ETH0_GetSocketProto(uint8 socket)
 685:.\Generated_Source\PSoC5/ETH0.c **** { return ETH0_W51_Read(ETH0_SOCKET_BASE(socket)+20); }
 686:.\Generated_Source\PSoC5/ETH0.c **** /* ------------------------------------------------------------------------ */
 687:.\Generated_Source\PSoC5/ETH0.c **** /**
 688:.\Generated_Source\PSoC5/ETH0.c ****  * \brief Write a value to the socket TOS register
 689:.\Generated_Source\PSoC5/ETH0.c ****  * \param socket the socket number for the addressed register
 690:.\Generated_Source\PSoC5/ETH0.c ****  * \param tos the value to be written to the register
 691:.\Generated_Source\PSoC5/ETH0.c ****  */
 692:.\Generated_Source\PSoC5/ETH0.c **** static void ETH0_SetSocketTOS(uint8 socket, uint8 tos)
 693:.\Generated_Source\PSoC5/ETH0.c **** { ETH0_W51_Write(ETH0_SOCKET_BASE(socket)+21, tos); }
 694:.\Generated_Source\PSoC5/ETH0.c **** /* ------------------------------------------------------------------------ */
 695:.\Generated_Source\PSoC5/ETH0.c **** /**
 696:.\Generated_Source\PSoC5/ETH0.c ****  * \brief Read a value from the socket TOS register
 697:.\Generated_Source\PSoC5/ETH0.c ****  * \param socket the socket number for the addressed register
 698:.\Generated_Source\PSoC5/ETH0.c ****  * \returns the value read from the register
 699:.\Generated_Source\PSoC5/ETH0.c ****  */
ARM GAS  C:\Users\CHUCK~1.ERH\AppData\Local\Temp\ccby6rnL.s 			page 20


 700:.\Generated_Source\PSoC5/ETH0.c **** static uint8 ETH0_GetSocketTOS(uint8 socket)
 701:.\Generated_Source\PSoC5/ETH0.c **** { return ETH0_W51_Read(ETH0_SOCKET_BASE(socket)+21); }
 702:.\Generated_Source\PSoC5/ETH0.c **** /* ------------------------------------------------------------------------ */
 703:.\Generated_Source\PSoC5/ETH0.c **** /**
 704:.\Generated_Source\PSoC5/ETH0.c ****  * \brief Write a value to the socket Time-To_Live (TTL) register
 705:.\Generated_Source\PSoC5/ETH0.c ****  * \param socket the socket number for the addressed register
 706:.\Generated_Source\PSoC5/ETH0.c ****  * \param ttl the value to be written to the register
 707:.\Generated_Source\PSoC5/ETH0.c ****  */
 708:.\Generated_Source\PSoC5/ETH0.c **** static void ETH0_SetSocketTTL(uint8 socket, uint8 ttl)
 709:.\Generated_Source\PSoC5/ETH0.c **** { ETH0_W51_Write(ETH0_SOCKET_BASE(socket)+22,ttl); }
 710:.\Generated_Source\PSoC5/ETH0.c **** /* ------------------------------------------------------------------------ */
 711:.\Generated_Source\PSoC5/ETH0.c **** /**
 712:.\Generated_Source\PSoC5/ETH0.c ****  * \brief Read a value from the socket time-to-live (TTL) register
 713:.\Generated_Source\PSoC5/ETH0.c ****  * \param socket the socket number for the addressed register
 714:.\Generated_Source\PSoC5/ETH0.c ****  * \returns the value read from the register
 715:.\Generated_Source\PSoC5/ETH0.c ****  */
 716:.\Generated_Source\PSoC5/ETH0.c **** static uint8 ETH0_GetSocketTTL(uint8 socket)
 717:.\Generated_Source\PSoC5/ETH0.c **** { return ETH0_W51_Read(ETH0_SOCKET_BASE(socket)+22); }
 718:.\Generated_Source\PSoC5/ETH0.c **** /* ------------------------------------------------------------------------ */
 719:.\Generated_Source\PSoC5/ETH0.c **** /**
 720:.\Generated_Source\PSoC5/ETH0.c ****  * \brief Write a value to the socket tx free size register
 721:.\Generated_Source\PSoC5/ETH0.c ****  * \param socket the socket number for the addressed register
 722:.\Generated_Source\PSoC5/ETH0.c ****  * \param size the value to be written to the register
 723:.\Generated_Source\PSoC5/ETH0.c ****  */
 724:.\Generated_Source\PSoC5/ETH0.c **** static void ETH0_SetSocketTxFree( uint8 socket, uint16 size)
 725:.\Generated_Source\PSoC5/ETH0.c **** { ETH0_W51_Write16(ETH0_SOCKET_BASE(socket)+0x20,size); }
 726:.\Generated_Source\PSoC5/ETH0.c **** /* ------------------------------------------------------------------------ */
 727:.\Generated_Source\PSoC5/ETH0.c **** /**
 728:.\Generated_Source\PSoC5/ETH0.c ****  * \brief Read a value from the socket Tx free size register
 729:.\Generated_Source\PSoC5/ETH0.c ****  * \param socket the socket number for the addressed register
 730:.\Generated_Source\PSoC5/ETH0.c ****  * \returns the value read from the register
 731:.\Generated_Source\PSoC5/ETH0.c ****  */
 732:.\Generated_Source\PSoC5/ETH0.c **** static uint16 ETH0_GetSocketTxFree(uint8 socket)
 733:.\Generated_Source\PSoC5/ETH0.c **** { return ETH0_W51_Read16(ETH0_SOCKET_BASE(socket)+0x20); }
 734:.\Generated_Source\PSoC5/ETH0.c **** /* ------------------------------------------------------------------------ */
 735:.\Generated_Source\PSoC5/ETH0.c **** /**
 736:.\Generated_Source\PSoC5/ETH0.c ****  * \brief Write a value to the socket tx read pointer register
 737:.\Generated_Source\PSoC5/ETH0.c ****  * \param socket the socket number for the addressed register
 738:.\Generated_Source\PSoC5/ETH0.c ****  * \param ptr the value to be written to the register
 739:.\Generated_Source\PSoC5/ETH0.c ****  */
 740:.\Generated_Source\PSoC5/ETH0.c **** static void ETH0_SetSocketTxReadPtr(uint8 socket, uint16 ptr)
 741:.\Generated_Source\PSoC5/ETH0.c **** { ETH0_W51_Write16(ETH0_SOCKET_BASE(socket)+0x22,ptr); }
 742:.\Generated_Source\PSoC5/ETH0.c **** /* ------------------------------------------------------------------------ */
 743:.\Generated_Source\PSoC5/ETH0.c **** /**
 744:.\Generated_Source\PSoC5/ETH0.c ****  * \brief Read a value from the socket Tx buffer read pointer register
 745:.\Generated_Source\PSoC5/ETH0.c ****  * \param socket the socket number for the addressed register
 746:.\Generated_Source\PSoC5/ETH0.c ****  * \returns the value read from the register
 747:.\Generated_Source\PSoC5/ETH0.c ****  */
 748:.\Generated_Source\PSoC5/ETH0.c **** static uint16 ETH0_GetSocketTxReadPtr(uint8 socket)
 749:.\Generated_Source\PSoC5/ETH0.c **** { return ETH0_W51_Read16(ETH0_SOCKET_BASE(socket)+0x22); }
 750:.\Generated_Source\PSoC5/ETH0.c **** /* ------------------------------------------------------------------------ */
 751:.\Generated_Source\PSoC5/ETH0.c **** /**
 752:.\Generated_Source\PSoC5/ETH0.c ****  * \brief Write a value to the socket tx write pointer register
 753:.\Generated_Source\PSoC5/ETH0.c ****  * \param socket the socket number for the addressed register
 754:.\Generated_Source\PSoC5/ETH0.c ****  * \param ptr the value to be written to the register
 755:.\Generated_Source\PSoC5/ETH0.c ****  */
 756:.\Generated_Source\PSoC5/ETH0.c **** static void ETH0_SetSocketTxWritePtr(uint8 socket, uint16 ptr)
ARM GAS  C:\Users\CHUCK~1.ERH\AppData\Local\Temp\ccby6rnL.s 			page 21


 757:.\Generated_Source\PSoC5/ETH0.c **** { ETH0_W51_Write16(ETH0_SOCKET_BASE(socket)+0x24,ptr); }
 758:.\Generated_Source\PSoC5/ETH0.c **** /* ------------------------------------------------------------------------ */
 759:.\Generated_Source\PSoC5/ETH0.c **** /**
 760:.\Generated_Source\PSoC5/ETH0.c ****  * \brief Read a value from the socket tx buffer write pointer register
 761:.\Generated_Source\PSoC5/ETH0.c ****  * \param socket the socket number for the addressed register
 762:.\Generated_Source\PSoC5/ETH0.c ****  * \returns the value read from the register
 763:.\Generated_Source\PSoC5/ETH0.c ****  */
 764:.\Generated_Source\PSoC5/ETH0.c **** static uint16 ETH0_GetSocketTxWritePtr(uint8 socket)
 765:.\Generated_Source\PSoC5/ETH0.c **** { return ETH0_W51_Read16(ETH0_SOCKET_BASE(socket)+0x24); }
 766:.\Generated_Source\PSoC5/ETH0.c **** /* ------------------------------------------------------------------------ */
 767:.\Generated_Source\PSoC5/ETH0.c **** /**
 768:.\Generated_Source\PSoC5/ETH0.c ****  * \brief Read a value from the socket rx received data size register
 769:.\Generated_Source\PSoC5/ETH0.c ****  * \param socket the socket number for the addressed register
 770:.\Generated_Source\PSoC5/ETH0.c ****  * \returns the value read from the register
 771:.\Generated_Source\PSoC5/ETH0.c ****  */
 772:.\Generated_Source\PSoC5/ETH0.c **** static uint16 ETH0_GetSocketRxSize(uint8 socket)
 773:.\Generated_Source\PSoC5/ETH0.c **** { return ETH0_W51_Read16(ETH0_SOCKET_BASE(socket)+0x26); }
 774:.\Generated_Source\PSoC5/ETH0.c **** /* ------------------------------------------------------------------------ */
 775:.\Generated_Source\PSoC5/ETH0.c **** /**
 776:.\Generated_Source\PSoC5/ETH0.c ****  * \brief Write a value to the socket rx read pointer register
 777:.\Generated_Source\PSoC5/ETH0.c ****  * \param socket the socket number for the addressed register
 778:.\Generated_Source\PSoC5/ETH0.c ****  * \param ptr the value to be written to the register
 779:.\Generated_Source\PSoC5/ETH0.c ****  */
 780:.\Generated_Source\PSoC5/ETH0.c **** static void ETH0_SetSocketRxReadPtr(uint8 socket, uint16 ptr)
 781:.\Generated_Source\PSoC5/ETH0.c **** { ETH0_W51_Write16(ETH0_SOCKET_BASE(socket)+0x28,ptr); }
 782:.\Generated_Source\PSoC5/ETH0.c **** /* ------------------------------------------------------------------------ */
 783:.\Generated_Source\PSoC5/ETH0.c **** /**
 784:.\Generated_Source\PSoC5/ETH0.c ****  * \brief Read a value from the socket rx buffer read pointer register
 785:.\Generated_Source\PSoC5/ETH0.c ****  * \param socket the socket number for the addressed register
 786:.\Generated_Source\PSoC5/ETH0.c ****  * \returns the value read from the register
 787:.\Generated_Source\PSoC5/ETH0.c ****  */
 788:.\Generated_Source\PSoC5/ETH0.c **** static uint16 ETH0_GetSocketRxReadPtr(uint8 socket)
 789:.\Generated_Source\PSoC5/ETH0.c **** { return ETH0_W51_Read16(ETH0_SOCKET_BASE(socket)+0x28); }
 790:.\Generated_Source\PSoC5/ETH0.c **** /* ------------------------------------------------------------------------ */
 791:.\Generated_Source\PSoC5/ETH0.c **** /**
 792:.\Generated_Source\PSoC5/ETH0.c ****  * \brief Write a command to the socket command register and wait for completion
 793:.\Generated_Source\PSoC5/ETH0.c ****  * \param socket the addressed socket for the command
 794:.\Generated_Source\PSoC5/ETH0.c ****  * \param cmd the command to execute
 795:.\Generated_Source\PSoC5/ETH0.c ****  */
 796:.\Generated_Source\PSoC5/ETH0.c **** static uint32 ETH0_ExecuteSocketCommand( uint8 socket, int cmd)
 797:.\Generated_Source\PSoC5/ETH0.c **** {
 798:.\Generated_Source\PSoC5/ETH0.c **** 	uint32 timeout;
 799:.\Generated_Source\PSoC5/ETH0.c **** 	timeout = 0;
 800:.\Generated_Source\PSoC5/ETH0.c **** 	
 801:.\Generated_Source\PSoC5/ETH0.c **** 	ETH0_SetSocketCommand(socket,cmd);
 802:.\Generated_Source\PSoC5/ETH0.c **** 	while ( ( ETH0_GetSocketCommand(socket) ) && (timeout < 125))
 803:.\Generated_Source\PSoC5/ETH0.c **** 	{
 804:.\Generated_Source\PSoC5/ETH0.c **** 		++timeout;
 805:.\Generated_Source\PSoC5/ETH0.c **** 		CyDelay(1);
 806:.\Generated_Source\PSoC5/ETH0.c **** 	}
 807:.\Generated_Source\PSoC5/ETH0.c **** 	return( timeout );
 808:.\Generated_Source\PSoC5/ETH0.c **** }
 809:.\Generated_Source\PSoC5/ETH0.c **** /* ------------------------------------------------------------------------ */
 810:.\Generated_Source\PSoC5/ETH0.c **** /**
 811:.\Generated_Source\PSoC5/ETH0.c ****  * \brief Execute a safe read fo the Tx buffer free size register
 812:.\Generated_Source\PSoC5/ETH0.c ****  * \param socket the addressed socket to read the available tx buffer
 813:.\Generated_Source\PSoC5/ETH0.c ****  * \returns the number of bytes available in the transmit buffer for the socket
ARM GAS  C:\Users\CHUCK~1.ERH\AppData\Local\Temp\ccby6rnL.s 			page 22


 814:.\Generated_Source\PSoC5/ETH0.c ****  */
 815:.\Generated_Source\PSoC5/ETH0.c **** static uint16 ETH0_GetTxFreeSize( uint8 socket )
 816:.\Generated_Source\PSoC5/ETH0.c **** {
 817:.\Generated_Source\PSoC5/ETH0.c **** 	uint16 first, second;
 818:.\Generated_Source\PSoC5/ETH0.c **** 	
 819:.\Generated_Source\PSoC5/ETH0.c **** 	first = 0;
 820:.\Generated_Source\PSoC5/ETH0.c **** 	second = 0;
 821:.\Generated_Source\PSoC5/ETH0.c **** 	do {
 822:.\Generated_Source\PSoC5/ETH0.c **** 		first = ETH0_GetSocketTxFree( socket );
 823:.\Generated_Source\PSoC5/ETH0.c **** 		if (first != 0) {
 824:.\Generated_Source\PSoC5/ETH0.c **** 			second = ETH0_GetSocketTxFree( socket );
 825:.\Generated_Source\PSoC5/ETH0.c **** 		}
 826:.\Generated_Source\PSoC5/ETH0.c **** 	}
 827:.\Generated_Source\PSoC5/ETH0.c **** 	while (first != second );
 828:.\Generated_Source\PSoC5/ETH0.c **** 	
 829:.\Generated_Source\PSoC5/ETH0.c **** 	return( second );
 830:.\Generated_Source\PSoC5/ETH0.c **** }
 831:.\Generated_Source\PSoC5/ETH0.c **** /* ------------------------------------------------------------------------ */
 832:.\Generated_Source\PSoC5/ETH0.c **** /**
 833:.\Generated_Source\PSoC5/ETH0.c ****  * \brief Execute a safe read of the received data size
 834:.\Generated_Source\PSoC5/ETH0.c ****  * \param socket the addressed socketfrom which the data will be read
 835:.\Generated_Source\PSoC5/ETH0.c ****  * \returns the number of bytes waiting in the recieve buffer of the socket
 836:.\Generated_Source\PSoC5/ETH0.c ****  */
 837:.\Generated_Source\PSoC5/ETH0.c **** static uint16 ETH0_GetRxSize( uint8 socket )
 838:.\Generated_Source\PSoC5/ETH0.c **** {
 839:.\Generated_Source\PSoC5/ETH0.c **** 	uint16 first, second;
 840:.\Generated_Source\PSoC5/ETH0.c **** 	
 841:.\Generated_Source\PSoC5/ETH0.c **** 	first = 0;
 842:.\Generated_Source\PSoC5/ETH0.c **** 	second = 0;
 843:.\Generated_Source\PSoC5/ETH0.c **** 	do {
 844:.\Generated_Source\PSoC5/ETH0.c **** 		first = ETH0_GetSocketRxSize( socket );
 845:.\Generated_Source\PSoC5/ETH0.c **** 		if (first != 0) {
 846:.\Generated_Source\PSoC5/ETH0.c **** 			second = ETH0_GetSocketRxSize( socket );
 847:.\Generated_Source\PSoC5/ETH0.c **** 		}
 848:.\Generated_Source\PSoC5/ETH0.c **** 	}
 849:.\Generated_Source\PSoC5/ETH0.c **** 	while (first != second );
 850:.\Generated_Source\PSoC5/ETH0.c **** 	
 851:.\Generated_Source\PSoC5/ETH0.c **** 	return second;
 852:.\Generated_Source\PSoC5/ETH0.c **** }
 853:.\Generated_Source\PSoC5/ETH0.c **** /* ------------------------------------------------------------------------ */
 854:.\Generated_Source\PSoC5/ETH0.c **** 
 855:.\Generated_Source\PSoC5/ETH0.c **** // END Socket Register access section
 856:.\Generated_Source\PSoC5/ETH0.c **** #endif
 857:.\Generated_Source\PSoC5/ETH0.c **** /* ======================================================================== */
 858:.\Generated_Source\PSoC5/ETH0.c **** /* W5100 Data Buffer Memory access primitives */
 859:.\Generated_Source\PSoC5/ETH0.c **** #if (1)
 860:.\Generated_Source\PSoC5/ETH0.c **** /* ------------------------------------------------------------------------ */
 861:.\Generated_Source\PSoC5/ETH0.c **** /**
 862:.\Generated_Source\PSoC5/ETH0.c ****  * \brief Transfer data from a local data buffer to the chip Tx fifo
 863:.\Generated_Source\PSoC5/ETH0.c ****  * \param socket the socket buffer to which the data will be written
 864:.\Generated_Source\PSoC5/ETH0.c ****  * \param offset The offest in to the socket buffer
 865:.\Generated_Source\PSoC5/ETH0.c ****  * \param *buffer pointer to the local buffer to copy to the transmit fifo
 866:.\Generated_Source\PSoC5/ETH0.c ****  * \param length the number of bytes to be copied to the transmit fifo
 867:.\Generated_Source\PSoC5/ETH0.c ****  */
 868:.\Generated_Source\PSoC5/ETH0.c **** static void ETH0_ProcessTxData(uint8 socket, uint16 offset, uint8* buffer, uint16 length)
 352              		.loc 1 868 0
 353              		.cfi_startproc
ARM GAS  C:\Users\CHUCK~1.ERH\AppData\Local\Temp\ccby6rnL.s 			page 23


 354              		@ args = 0, pretend = 0, frame = 0
 355              		@ frame_needed = 0, uses_anonymous_args = 0
 356              	.LVL42:
 357 0000 2DE9F843 		push	{r3, r4, r5, r6, r7, r8, r9, lr}
 358              	.LCFI6:
 359              		.cfi_def_cfa_offset 32
 360              		.cfi_offset 3, -32
 361              		.cfi_offset 4, -28
 362              		.cfi_offset 5, -24
 363              		.cfi_offset 6, -20
 364              		.cfi_offset 7, -16
 365              		.cfi_offset 8, -12
 366              		.cfi_offset 9, -8
 367              		.cfi_offset 14, -4
 368              	.LBB10:
 369              	.LBB11:
 765:.\Generated_Source\PSoC5/ETH0.c **** { return ETH0_W51_Read16(ETH0_SOCKET_BASE(socket)+0x24); }
 370              		.loc 1 765 0
 371 0004 4FEA0027 		lsl	r7, r0, #8
 372              	.LBE11:
 373              	.LBE10:
 374              		.loc 1 868 0
 375 0008 8146     		mov	r9, r0
 376              	.LBB15:
 377              	.LBB12:
 765:.\Generated_Source\PSoC5/ETH0.c **** { return ETH0_W51_Read16(ETH0_SOCKET_BASE(socket)+0x24); }
 378              		.loc 1 765 0
 379 000a 07F22440 		addw	r0, r7, #1060
 380              	.LVL43:
 381 000e 87B2     		uxth	r7, r0
 382 0010 3846     		mov	r0, r7
 383              	.LBE12:
 384              	.LBE15:
 385              		.loc 1 868 0
 386 0012 0E46     		mov	r6, r1
 387 0014 1446     		mov	r4, r2
 388              	.LBB16:
 389              	.LBB13:
 765:.\Generated_Source\PSoC5/ETH0.c **** { return ETH0_W51_Read16(ETH0_SOCKET_BASE(socket)+0x24); }
 390              		.loc 1 765 0
 391 0016 FFF7FEFF 		bl	ETH0_W51_Read16
 392              	.LVL44:
 393              	.LBE13:
 394              	.LBE16:
 869:.\Generated_Source\PSoC5/ETH0.c **** {
 870:.\Generated_Source\PSoC5/ETH0.c **** 	uint16 addr;
 871:.\Generated_Source\PSoC5/ETH0.c **** 	uint16 base;
 872:.\Generated_Source\PSoC5/ETH0.c **** 	uint16 PointerOffset;
 873:.\Generated_Source\PSoC5/ETH0.c **** 	uint16 size;
 874:.\Generated_Source\PSoC5/ETH0.c **** 	
 875:.\Generated_Source\PSoC5/ETH0.c **** 	/*
 876:.\Generated_Source\PSoC5/ETH0.c **** 	 * Read the offset pointer, and calculate the base address for the start of write
 877:.\Generated_Source\PSoC5/ETH0.c **** 	 * in to the chip buffers.  Written data will be offset by the offset byte count
 878:.\Generated_Source\PSoC5/ETH0.c **** 	 * specified in the parameters.
 879:.\Generated_Source\PSoC5/ETH0.c **** 	 */
 880:.\Generated_Source\PSoC5/ETH0.c **** 	base = ETH0_GetSocketTxWritePtr(socket) + offset;
 881:.\Generated_Source\PSoC5/ETH0.c **** 	PointerOffset = (base & 0x07FF);
ARM GAS  C:\Users\CHUCK~1.ERH\AppData\Local\Temp\ccby6rnL.s 			page 24


 395              		.loc 1 881 0
 396 001a 4FEA4055 		lsl	r5, r0, #21
 397 001e 690D     		lsrs	r1, r5, #21
 882:.\Generated_Source\PSoC5/ETH0.c **** 	addr = PointerOffset + ETH0_SOCKET_TX_BASE(socket);
 398              		.loc 1 882 0
 399 0020 4FEAC932 		lsl	r2, r9, #15
 883:.\Generated_Source\PSoC5/ETH0.c **** 	/* calculate the number of bytes from the pointer to the end of the buffer */
 884:.\Generated_Source\PSoC5/ETH0.c **** 	size = 0x0800 - PointerOffset;
 400              		.loc 1 884 0
 401 0024 C1F50065 		rsb	r5, r1, #2048
 882:.\Generated_Source\PSoC5/ETH0.c **** 	addr = PointerOffset + ETH0_SOCKET_TX_BASE(socket);
 402              		.loc 1 882 0
 403 0028 02F58043 		add	r3, r2, #16384
 404 002c 1FFA83F9 		uxth	r9, r3
 405              	.LVL45:
 406              		.loc 1 884 0
 407 0030 ADB2     		uxth	r5, r5
 408              	.LBB17:
 409              	.LBB14:
 765:.\Generated_Source\PSoC5/ETH0.c **** { return ETH0_W51_Read16(ETH0_SOCKET_BASE(socket)+0x24); }
 410              		.loc 1 765 0
 411 0032 8046     		mov	r8, r0
 412              	.LVL46:
 413              	.LBE14:
 414              	.LBE17:
 885:.\Generated_Source\PSoC5/ETH0.c **** 	
 886:.\Generated_Source\PSoC5/ETH0.c **** 	/*
 887:.\Generated_Source\PSoC5/ETH0.c **** 	 * is there enough space to write the complete packet
 888:.\Generated_Source\PSoC5/ETH0.c **** 	 * or, shoudl the data be split in to two writes.
 889:.\Generated_Source\PSoC5/ETH0.c **** 	 */
 890:.\Generated_Source\PSoC5/ETH0.c **** 	if ( length > size) {
 415              		.loc 1 890 0
 416 0034 AC42     		cmp	r4, r5
 882:.\Generated_Source\PSoC5/ETH0.c **** 	addr = PointerOffset + ETH0_SOCKET_TX_BASE(socket);
 417              		.loc 1 882 0
 418 0036 01EB0900 		add	r0, r1, r9
 419              	.LVL47:
 420 003a 80B2     		uxth	r0, r0
 421              	.LVL48:
 891:.\Generated_Source\PSoC5/ETH0.c **** 		/*
 892:.\Generated_Source\PSoC5/ETH0.c **** 		 * There is more data to send than will fit from the pointer to the end
 893:.\Generated_Source\PSoC5/ETH0.c **** 		 * of the memory, so we will write the data in two chunks.  First, write the
 894:.\Generated_Source\PSoC5/ETH0.c **** 		 * data from the pointer to the end of the buffer, then write the portion
 895:.\Generated_Source\PSoC5/ETH0.c **** 		 * remaining to the start (base ptr) of the socket buffer
 896:.\Generated_Source\PSoC5/ETH0.c **** 		 */
 897:.\Generated_Source\PSoC5/ETH0.c **** 		ETH0_W51_WriteBlock(addr, buffer, size);
 422              		.loc 1 897 0
 423 003c 3146     		mov	r1, r6
 424              	.LVL49:
 890:.\Generated_Source\PSoC5/ETH0.c **** 	if ( length > size) {
 425              		.loc 1 890 0
 426 003e 07D9     		bls	.L19
 427              		.loc 1 897 0
 428 0040 2A46     		mov	r2, r5
 429 0042 FFF7FEFF 		bl	ETH0_W51_WriteBlock
 430              	.LVL50:
 898:.\Generated_Source\PSoC5/ETH0.c **** 		ETH0_W51_WriteBlock(ETH0_SOCKET_TX_BASE(socket), &buffer[size], length - size);
ARM GAS  C:\Users\CHUCK~1.ERH\AppData\Local\Temp\ccby6rnL.s 			page 25


 431              		.loc 1 898 0
 432 0046 621B     		subs	r2, r4, r5
 433 0048 4846     		mov	r0, r9
 434 004a 7119     		adds	r1, r6, r5
 435 004c 92B2     		uxth	r2, r2
 436 004e 00E0     		b	.L21
 437              	.LVL51:
 438              	.L19:
 899:.\Generated_Source\PSoC5/ETH0.c **** 	}
 900:.\Generated_Source\PSoC5/ETH0.c **** 	else {
 901:.\Generated_Source\PSoC5/ETH0.c **** 		/* 
 902:.\Generated_Source\PSoC5/ETH0.c **** 		 * there is enough available space from the write point to the end of buffer
 903:.\Generated_Source\PSoC5/ETH0.c **** 		 * to hold the whole packe of information, so just write it to the memory
 904:.\Generated_Source\PSoC5/ETH0.c **** 		 */
 905:.\Generated_Source\PSoC5/ETH0.c **** 		ETH0_W51_WriteBlock(addr,buffer,length);
 439              		.loc 1 905 0
 440 0050 2246     		mov	r2, r4
 441              	.LVL52:
 442              	.L21:
 443 0052 FFF7FEFF 		bl	ETH0_W51_WriteBlock
 444              	.LVL53:
 906:.\Generated_Source\PSoC5/ETH0.c **** 	}
 907:.\Generated_Source\PSoC5/ETH0.c **** 	/* move the write pointer */
 908:.\Generated_Source\PSoC5/ETH0.c **** 	base += length;
 445              		.loc 1 908 0
 446 0056 08EB0401 		add	r1, r8, r4
 447              	.LBB18:
 448              	.LBB19:
 757:.\Generated_Source\PSoC5/ETH0.c **** { ETH0_W51_Write16(ETH0_SOCKET_BASE(socket)+0x24,ptr); }
 449              		.loc 1 757 0
 450 005a 3846     		mov	r0, r7
 451 005c 89B2     		uxth	r1, r1
 452              	.LBE19:
 453              	.LBE18:
 909:.\Generated_Source\PSoC5/ETH0.c **** 	/* 
 910:.\Generated_Source\PSoC5/ETH0.c **** 	 * Store the new write pointer so that the device knows that there is data waiting
 911:.\Generated_Source\PSoC5/ETH0.c **** 	 * to be transmitted over the link.
 912:.\Generated_Source\PSoC5/ETH0.c **** 	 */
 913:.\Generated_Source\PSoC5/ETH0.c **** 	ETH0_SetSocketTxWritePtr(socket, base);
 914:.\Generated_Source\PSoC5/ETH0.c **** }
 454              		.loc 1 914 0
 455 005e BDE8F843 		pop	{r3, r4, r5, r6, r7, r8, r9, lr}
 456              	.LBB21:
 457              	.LBB20:
 757:.\Generated_Source\PSoC5/ETH0.c **** { ETH0_W51_Write16(ETH0_SOCKET_BASE(socket)+0x24,ptr); }
 458              		.loc 1 757 0
 459 0062 FFF7FEBF 		b	ETH0_W51_Write16
 460              	.LVL54:
 461              	.LBE20:
 462              	.LBE21:
 463              		.cfi_endproc
 464              	.LFE108:
 465              		.size	ETH0_ProcessTxData.constprop.2, .-ETH0_ProcessTxData.constprop.2
 466              		.section	.text.ETH0_GetRxSize,"ax",%progbits
 467              		.align	1
 468              		.thumb
 469              		.thumb_func
ARM GAS  C:\Users\CHUCK~1.ERH\AppData\Local\Temp\ccby6rnL.s 			page 26


 470              		.type	ETH0_GetRxSize, %function
 471              	ETH0_GetRxSize:
 472              	.LFB71:
 838:.\Generated_Source\PSoC5/ETH0.c **** {
 473              		.loc 1 838 0
 474              		.cfi_startproc
 475              		@ args = 0, pretend = 0, frame = 0
 476              		@ frame_needed = 0, uses_anonymous_args = 0
 477              	.LVL55:
 478              	.LBB26:
 479              	.LBB27:
 773:.\Generated_Source\PSoC5/ETH0.c **** { return ETH0_W51_Read16(ETH0_SOCKET_BASE(socket)+0x26); }
 480              		.loc 1 773 0
 481 0000 0002     		lsls	r0, r0, #8
 482              	.LVL56:
 483              	.LBE27:
 484              	.LBE26:
 838:.\Generated_Source\PSoC5/ETH0.c **** {
 485              		.loc 1 838 0
 486 0002 70B5     		push	{r4, r5, r6, lr}
 487              	.LCFI7:
 488              		.cfi_def_cfa_offset 16
 489              		.cfi_offset 4, -16
 490              		.cfi_offset 5, -12
 491              		.cfi_offset 6, -8
 492              		.cfi_offset 14, -4
 493              	.LBB29:
 494              	.LBB28:
 773:.\Generated_Source\PSoC5/ETH0.c **** { return ETH0_W51_Read16(ETH0_SOCKET_BASE(socket)+0x26); }
 495              		.loc 1 773 0
 496 0004 00F22645 		addw	r5, r0, #1062
 497 0008 ADB2     		uxth	r5, r5
 842:.\Generated_Source\PSoC5/ETH0.c **** 	second = 0;
 498              		.loc 1 842 0
 499 000a 0026     		movs	r6, #0
 500              	.LVL57:
 501              	.L24:
 773:.\Generated_Source\PSoC5/ETH0.c **** { return ETH0_W51_Read16(ETH0_SOCKET_BASE(socket)+0x26); }
 502              		.loc 1 773 0
 503 000c 2846     		mov	r0, r5
 504 000e FFF7FEFF 		bl	ETH0_W51_Read16
 505              	.LVL58:
 506              	.LBE28:
 507              	.LBE29:
 845:.\Generated_Source\PSoC5/ETH0.c **** 		if (first != 0) {
 508              		.loc 1 845 0
 509 0012 0446     		mov	r4, r0
 510 0014 18B1     		cbz	r0, .L23
 511              	.LBB30:
 512              	.LBB31:
 773:.\Generated_Source\PSoC5/ETH0.c **** { return ETH0_W51_Read16(ETH0_SOCKET_BASE(socket)+0x26); }
 513              		.loc 1 773 0
 514 0016 2846     		mov	r0, r5
 515 0018 FFF7FEFF 		bl	ETH0_W51_Read16
 516              	.LVL59:
 517 001c 0646     		mov	r6, r0
 518              	.LVL60:
ARM GAS  C:\Users\CHUCK~1.ERH\AppData\Local\Temp\ccby6rnL.s 			page 27


 519              	.L23:
 520              	.LBE31:
 521              	.LBE30:
 849:.\Generated_Source\PSoC5/ETH0.c **** 	while (first != second );
 522              		.loc 1 849 0
 523 001e B442     		cmp	r4, r6
 524 0020 F4D1     		bne	.L24
 852:.\Generated_Source\PSoC5/ETH0.c **** }
 525              		.loc 1 852 0
 526 0022 2046     		mov	r0, r4
 527 0024 70BD     		pop	{r4, r5, r6, pc}
 528              		.cfi_endproc
 529              	.LFE71:
 530              		.size	ETH0_GetRxSize, .-ETH0_GetRxSize
 531              		.section	.text.ETH0_W51_ReadBlock,"ax",%progbits
 532              		.align	1
 533              		.thumb
 534              		.thumb_func
 535              		.type	ETH0_W51_ReadBlock, %function
 536              	ETH0_W51_ReadBlock:
 537              	.LFB10:
 353:.\Generated_Source\PSoC5/ETH0.c **** {
 538              		.loc 1 353 0
 539              		.cfi_startproc
 540              		@ args = 0, pretend = 0, frame = 0
 541              		@ frame_needed = 0, uses_anonymous_args = 0
 542              	.LVL61:
 543 0000 F8B5     		push	{r3, r4, r5, r6, r7, lr}
 544              	.LCFI8:
 545              		.cfi_def_cfa_offset 24
 546              		.cfi_offset 3, -24
 547              		.cfi_offset 4, -20
 548              		.cfi_offset 5, -16
 549              		.cfi_offset 6, -12
 550              		.cfi_offset 7, -8
 551              		.cfi_offset 14, -4
 353:.\Generated_Source\PSoC5/ETH0.c **** {
 552              		.loc 1 353 0
 553 0002 0546     		mov	r5, r0
 554 0004 0E46     		mov	r6, r1
 555 0006 1746     		mov	r7, r2
 356:.\Generated_Source\PSoC5/ETH0.c **** 	for(index=0;index<length;++index) {
 556              		.loc 1 356 0
 557 0008 0024     		movs	r4, #0
 558              	.LVL62:
 559              	.L30:
 356:.\Generated_Source\PSoC5/ETH0.c **** 	for(index=0;index<length;++index) {
 560              		.loc 1 356 0 is_stmt 0 discriminator 1
 561 000a BC42     		cmp	r4, r7
 562 000c 06DA     		bge	.L32
 563              	.L31:
 352:.\Generated_Source\PSoC5/ETH0.c **** static void ETH0_W51_ReadBlock(uint16 addr, uint8* buffer, uint16 length)
 564              		.loc 1 352 0 is_stmt 1 discriminator 2
 565 000e 2819     		adds	r0, r5, r4
 357:.\Generated_Source\PSoC5/ETH0.c **** 		buffer[index] = ETH0_W51_Read(addr+index);
 566              		.loc 1 357 0 discriminator 2
 567 0010 80B2     		uxth	r0, r0
ARM GAS  C:\Users\CHUCK~1.ERH\AppData\Local\Temp\ccby6rnL.s 			page 28


 568 0012 FFF7FEFF 		bl	ETH0_W51_Read
 569              	.LVL63:
 570 0016 3055     		strb	r0, [r6, r4]
 356:.\Generated_Source\PSoC5/ETH0.c **** 	for(index=0;index<length;++index) {
 571              		.loc 1 356 0 discriminator 2
 572 0018 0134     		adds	r4, r4, #1
 573              	.LVL64:
 574 001a F6E7     		b	.L30
 575              	.L32:
 359:.\Generated_Source\PSoC5/ETH0.c **** }
 576              		.loc 1 359 0
 577 001c F8BD     		pop	{r3, r4, r5, r6, r7, pc}
 578              		.cfi_endproc
 579              	.LFE10:
 580              		.size	ETH0_W51_ReadBlock, .-ETH0_W51_ReadBlock
 581              		.section	.text.ETH0_ProcessRxData.constprop.1,"ax",%progbits
 582              		.align	1
 583              		.thumb
 584              		.thumb_func
 585              		.type	ETH0_ProcessRxData.constprop.1, %function
 586              	ETH0_ProcessRxData.constprop.1:
 587              	.LFB109:
 915:.\Generated_Source\PSoC5/ETH0.c **** /* ------------------------------------------------------------------------ */
 916:.\Generated_Source\PSoC5/ETH0.c **** /**
 917:.\Generated_Source\PSoC5/ETH0.c ****  * \brief Transfer data from the chip receive buffer to a local buffer
 918:.\Generated_Source\PSoC5/ETH0.c ****  * \param socket the socket buffer from which the data will be read
 919:.\Generated_Source\PSoC5/ETH0.c ****  * \param offset The offest in to the socket buffer
 920:.\Generated_Source\PSoC5/ETH0.c ****  * \param *buffer pointer to the local buffer to hold the receive fifo data
 921:.\Generated_Source\PSoC5/ETH0.c ****  * \param length the max number of bytes to be copied to the local buffer
 922:.\Generated_Source\PSoC5/ETH0.c ****  * \param flags Flag settings to control read fifo options (lookahead)
 923:.\Generated_Source\PSoC5/ETH0.c ****  */
 924:.\Generated_Source\PSoC5/ETH0.c **** static void ETH0_ProcessRxData(uint8 socket, uint16 offset, uint8* buffer, uint16 length, uint8 fla
 588              		.loc 1 924 0
 589              		.cfi_startproc
 590              		@ args = 0, pretend = 0, frame = 0
 591              		@ frame_needed = 0, uses_anonymous_args = 0
 592              	.LVL65:
 593 0000 F8B5     		push	{r3, r4, r5, r6, r7, lr}
 594              	.LCFI9:
 595              		.cfi_def_cfa_offset 24
 596              		.cfi_offset 3, -24
 597              		.cfi_offset 4, -20
 598              		.cfi_offset 5, -16
 599              		.cfi_offset 6, -12
 600              		.cfi_offset 7, -8
 601              		.cfi_offset 14, -4
 602              		.loc 1 924 0
 603 0002 0746     		mov	r7, r0
 604              	.LBB36:
 605              	.LBB37:
 789:.\Generated_Source\PSoC5/ETH0.c **** { return ETH0_W51_Read16(ETH0_SOCKET_BASE(socket)+0x28); }
 606              		.loc 1 789 0
 607 0004 0002     		lsls	r0, r0, #8
 608              	.LVL66:
 609              	.LBE37:
 610              	.LBE36:
 611              		.loc 1 924 0
ARM GAS  C:\Users\CHUCK~1.ERH\AppData\Local\Temp\ccby6rnL.s 			page 29


 612 0006 0C46     		mov	r4, r1
 613              	.LBB40:
 614              	.LBB38:
 789:.\Generated_Source\PSoC5/ETH0.c **** { return ETH0_W51_Read16(ETH0_SOCKET_BASE(socket)+0x28); }
 615              		.loc 1 789 0
 616 0008 00F58561 		add	r1, r0, #1064
 617              	.LVL67:
 618 000c 88B2     		uxth	r0, r1
 619              	.LBE38:
 620              	.LBE40:
 621              		.loc 1 924 0
 622 000e 1546     		mov	r5, r2
 623 0010 1E46     		mov	r6, r3
 624              	.LBB41:
 625              	.LBB39:
 789:.\Generated_Source\PSoC5/ETH0.c **** { return ETH0_W51_Read16(ETH0_SOCKET_BASE(socket)+0x28); }
 626              		.loc 1 789 0
 627 0012 FFF7FEFF 		bl	ETH0_W51_Read16
 628              	.LVL68:
 629              	.LBE39:
 630              	.LBE41:
 925:.\Generated_Source\PSoC5/ETH0.c **** {
 926:.\Generated_Source\PSoC5/ETH0.c **** 	uint16 addr;
 927:.\Generated_Source\PSoC5/ETH0.c **** 	uint16 base;
 928:.\Generated_Source\PSoC5/ETH0.c **** 	uint16 PointerOffset;
 929:.\Generated_Source\PSoC5/ETH0.c **** 	uint16 size;
 930:.\Generated_Source\PSoC5/ETH0.c **** 	
 931:.\Generated_Source\PSoC5/ETH0.c **** 	/*
 932:.\Generated_Source\PSoC5/ETH0.c **** 	 * Read the offset pointer, and calculate the base address for the start of read
 933:.\Generated_Source\PSoC5/ETH0.c **** 	 * in to the chip buffers.  The data read will be offset by the offset byte count
 934:.\Generated_Source\PSoC5/ETH0.c **** 	 * specified in the parameters.
 935:.\Generated_Source\PSoC5/ETH0.c **** 	 */
 936:.\Generated_Source\PSoC5/ETH0.c **** 	base = ETH0_GetSocketRxReadPtr(socket) + offset;
 631              		.loc 1 936 0
 632 0016 0219     		adds	r2, r0, r4
 937:.\Generated_Source\PSoC5/ETH0.c **** 	PointerOffset = (base & 0x07FF);
 633              		.loc 1 937 0
 634 0018 5305     		lsls	r3, r2, #21
 938:.\Generated_Source\PSoC5/ETH0.c **** 	addr = PointerOffset + ETH0_SOCKET_RX_BASE(socket);
 635              		.loc 1 938 0
 636 001a FF03     		lsls	r7, r7, #15
 637              	.LVL69:
 937:.\Generated_Source\PSoC5/ETH0.c **** 	PointerOffset = (base & 0x07FF);
 638              		.loc 1 937 0
 639 001c 5C0D     		lsrs	r4, r3, #21
 640              	.LVL70:
 641              		.loc 1 938 0
 642 001e 07F5C040 		add	r0, r7, #24576
 643 0022 87B2     		uxth	r7, r0
 939:.\Generated_Source\PSoC5/ETH0.c **** 	/* calculate the number of bytes from the pointer to the end of the buffer */
 940:.\Generated_Source\PSoC5/ETH0.c **** 	size = 0x0800 - PointerOffset;
 644              		.loc 1 940 0
 645 0024 C4F50062 		rsb	r2, r4, #2048
 938:.\Generated_Source\PSoC5/ETH0.c **** 	addr = PointerOffset + ETH0_SOCKET_RX_BASE(socket);
 646              		.loc 1 938 0
 647 0028 E119     		adds	r1, r4, r7
 648              		.loc 1 940 0
ARM GAS  C:\Users\CHUCK~1.ERH\AppData\Local\Temp\ccby6rnL.s 			page 30


 649 002a 94B2     		uxth	r4, r2
 650              	.LVL71:
 941:.\Generated_Source\PSoC5/ETH0.c **** 	/*
 942:.\Generated_Source\PSoC5/ETH0.c **** 	 * is there enough space to read the complete packet
 943:.\Generated_Source\PSoC5/ETH0.c **** 	 * or, should the data be split in to two reads.
 944:.\Generated_Source\PSoC5/ETH0.c **** 	 */
 945:.\Generated_Source\PSoC5/ETH0.c **** 	if ( length > size) {
 651              		.loc 1 945 0
 652 002c A642     		cmp	r6, r4
 938:.\Generated_Source\PSoC5/ETH0.c **** 	addr = PointerOffset + ETH0_SOCKET_RX_BASE(socket);
 653              		.loc 1 938 0
 654 002e 88B2     		uxth	r0, r1
 655              	.LVL72:
 946:.\Generated_Source\PSoC5/ETH0.c **** 		/*
 947:.\Generated_Source\PSoC5/ETH0.c **** 		 * There is more data to send than will fit from the pointer to the end
 948:.\Generated_Source\PSoC5/ETH0.c **** 		 * of the memory, so we will write the data in two chunks.  First, write the
 949:.\Generated_Source\PSoC5/ETH0.c **** 		 * data from the pointer to the end of the buffer, then write the portion
 950:.\Generated_Source\PSoC5/ETH0.c **** 		 * remaining to the start (base ptr) of the socket buffer
 951:.\Generated_Source\PSoC5/ETH0.c **** 		 */
 952:.\Generated_Source\PSoC5/ETH0.c **** 		ETH0_W51_ReadBlock(addr, buffer, size);
 656              		.loc 1 952 0
 657 0030 2946     		mov	r1, r5
 658              	.LVL73:
 945:.\Generated_Source\PSoC5/ETH0.c **** 	if ( length > size) {
 659              		.loc 1 945 0
 660 0032 07D9     		bls	.L34
 661              		.loc 1 952 0
 662 0034 2246     		mov	r2, r4
 663 0036 FFF7FEFF 		bl	ETH0_W51_ReadBlock
 664              	.LVL74:
 953:.\Generated_Source\PSoC5/ETH0.c **** 		ETH0_W51_ReadBlock(ETH0_SOCKET_RX_BASE(socket), &buffer[size], length - size);
 665              		.loc 1 953 0
 666 003a 331B     		subs	r3, r6, r4
 667 003c 3846     		mov	r0, r7
 668 003e 2919     		adds	r1, r5, r4
 669 0040 9AB2     		uxth	r2, r3
 670 0042 00E0     		b	.L35
 671              	.LVL75:
 672              	.L34:
 954:.\Generated_Source\PSoC5/ETH0.c **** 	}
 955:.\Generated_Source\PSoC5/ETH0.c **** 	else {
 956:.\Generated_Source\PSoC5/ETH0.c **** 		/* 
 957:.\Generated_Source\PSoC5/ETH0.c **** 		 * there is enough available space from the write point to the end of buffer
 958:.\Generated_Source\PSoC5/ETH0.c **** 		 * to hold the whole packe of information, so just write it to the memory
 959:.\Generated_Source\PSoC5/ETH0.c **** 		 */
 960:.\Generated_Source\PSoC5/ETH0.c **** 		ETH0_W51_ReadBlock(addr,buffer,length);
 673              		.loc 1 960 0
 674 0044 3246     		mov	r2, r6
 675              	.LVL76:
 676              	.L35:
 961:.\Generated_Source\PSoC5/ETH0.c **** 	}
 962:.\Generated_Source\PSoC5/ETH0.c **** 	if (flags & 0x01) {
 963:.\Generated_Source\PSoC5/ETH0.c **** 		/* move the write pointer */
 964:.\Generated_Source\PSoC5/ETH0.c **** 		base += length;
 965:.\Generated_Source\PSoC5/ETH0.c **** 		/* 
 966:.\Generated_Source\PSoC5/ETH0.c **** 		 * Store the new write pointer so that the device knows that there is data waiting
 967:.\Generated_Source\PSoC5/ETH0.c **** 		 * to be transmitted over the link.
ARM GAS  C:\Users\CHUCK~1.ERH\AppData\Local\Temp\ccby6rnL.s 			page 31


 968:.\Generated_Source\PSoC5/ETH0.c **** 		 */
 969:.\Generated_Source\PSoC5/ETH0.c **** 		ETH0_SetSocketRxReadPtr(socket, base);
 970:.\Generated_Source\PSoC5/ETH0.c **** 	}
 971:.\Generated_Source\PSoC5/ETH0.c **** }
 677              		.loc 1 971 0
 678 0046 BDE8F840 		pop	{r3, r4, r5, r6, r7, lr}
 960:.\Generated_Source\PSoC5/ETH0.c **** 		ETH0_W51_ReadBlock(addr,buffer,length);
 679              		.loc 1 960 0
 680 004a FFF7FEBF 		b	ETH0_W51_ReadBlock
 681              	.LVL77:
 682              		.cfi_endproc
 683              	.LFE109:
 684              		.size	ETH0_ProcessRxData.constprop.1, .-ETH0_ProcessRxData.constprop.1
 685              		.section	.text.ETH0_ExecuteSocketCommand,"ax",%progbits
 686              		.align	1
 687              		.thumb
 688              		.thumb_func
 689              		.type	ETH0_ExecuteSocketCommand, %function
 690              	ETH0_ExecuteSocketCommand:
 691              	.LFB69:
 797:.\Generated_Source\PSoC5/ETH0.c **** {
 692              		.loc 1 797 0
 693              		.cfi_startproc
 694              		@ args = 0, pretend = 0, frame = 0
 695              		@ frame_needed = 0, uses_anonymous_args = 0
 696              	.LVL78:
 697              	.LBB46:
 698              	.LBB47:
 557:.\Generated_Source\PSoC5/ETH0.c **** { ETH0_W51_Write(ETH0_SOCKET_BASE(socket)+1, cmd); }
 699              		.loc 1 557 0
 700 0000 0002     		lsls	r0, r0, #8
 701              	.LVL79:
 702              	.LBE47:
 703              	.LBE46:
 797:.\Generated_Source\PSoC5/ETH0.c **** {
 704              		.loc 1 797 0
 705 0002 38B5     		push	{r3, r4, r5, lr}
 706              	.LCFI10:
 707              		.cfi_def_cfa_offset 16
 708              		.cfi_offset 3, -16
 709              		.cfi_offset 4, -12
 710              		.cfi_offset 5, -8
 711              		.cfi_offset 14, -4
 712              	.LBB49:
 713              	.LBB48:
 557:.\Generated_Source\PSoC5/ETH0.c **** { ETH0_W51_Write(ETH0_SOCKET_BASE(socket)+1, cmd); }
 714              		.loc 1 557 0
 715 0004 00F20145 		addw	r5, r0, #1025
 716 0008 ADB2     		uxth	r5, r5
 717 000a 2846     		mov	r0, r5
 718 000c C9B2     		uxtb	r1, r1
 719              	.LVL80:
 720 000e FFF7FEFF 		bl	ETH0_W51_Write
 721              	.LVL81:
 799:.\Generated_Source\PSoC5/ETH0.c **** 	timeout = 0;
 722              		.loc 1 799 0
 723 0012 0024     		movs	r4, #0
ARM GAS  C:\Users\CHUCK~1.ERH\AppData\Local\Temp\ccby6rnL.s 			page 32


 724              	.LVL82:
 725              	.L37:
 726              	.LBE48:
 727              	.LBE49:
 728              	.LBB50:
 729              	.LBB51:
 565:.\Generated_Source\PSoC5/ETH0.c **** { return ETH0_W51_Read(ETH0_SOCKET_BASE(socket)+1); }
 730              		.loc 1 565 0 discriminator 1
 731 0014 2846     		mov	r0, r5
 732 0016 FFF7FEFF 		bl	ETH0_W51_Read
 733              	.LVL83:
 734              	.LBE51:
 735              	.LBE50:
 802:.\Generated_Source\PSoC5/ETH0.c **** 	while ( ( ETH0_GetSocketCommand(socket) ) && (timeout < 125))
 736              		.loc 1 802 0 discriminator 1
 737 001a 30B1     		cbz	r0, .L38
 802:.\Generated_Source\PSoC5/ETH0.c **** 	while ( ( ETH0_GetSocketCommand(socket) ) && (timeout < 125))
 738              		.loc 1 802 0 is_stmt 0 discriminator 2
 739 001c 7D2C     		cmp	r4, #125
 740 001e 04D0     		beq	.L38
 741              	.L39:
 805:.\Generated_Source\PSoC5/ETH0.c **** 		CyDelay(1);
 742              		.loc 1 805 0 is_stmt 1
 743 0020 0120     		movs	r0, #1
 804:.\Generated_Source\PSoC5/ETH0.c **** 		++timeout;
 744              		.loc 1 804 0
 745 0022 0134     		adds	r4, r4, #1
 746              	.LVL84:
 805:.\Generated_Source\PSoC5/ETH0.c **** 		CyDelay(1);
 747              		.loc 1 805 0
 748 0024 FFF7FEFF 		bl	CyDelay
 749              	.LVL85:
 750 0028 F4E7     		b	.L37
 751              	.L38:
 808:.\Generated_Source\PSoC5/ETH0.c **** }
 752              		.loc 1 808 0
 753 002a 2046     		mov	r0, r4
 754 002c 38BD     		pop	{r3, r4, r5, pc}
 755              		.cfi_endproc
 756              	.LFE69:
 757              		.size	ETH0_ExecuteSocketCommand, .-ETH0_ExecuteSocketCommand
 758              		.section	.text.ETH0_SocketSend,"ax",%progbits
 759              		.align	1
 760              		.thumb
 761              		.thumb_func
 762              		.type	ETH0_SocketSend, %function
 763              	ETH0_SocketSend:
 764              	.LFB85:
 972:.\Generated_Source\PSoC5/ETH0.c **** #endif
 973:.\Generated_Source\PSoC5/ETH0.c **** /* ======================================================================== */
 974:.\Generated_Source\PSoC5/ETH0.c **** /* Driver Initialization */
 975:.\Generated_Source\PSoC5/ETH0.c **** #if (1)
 976:.\Generated_Source\PSoC5/ETH0.c **** /* ------------------------------------------------------------------------ */
 977:.\Generated_Source\PSoC5/ETH0.c **** void
 978:.\Generated_Source\PSoC5/ETH0.c **** ETH0_Init(uint8* mac, uint32 ip, uint32 subnet, uint32 gateway)
 979:.\Generated_Source\PSoC5/ETH0.c **** {
 980:.\Generated_Source\PSoC5/ETH0.c **** 	/*
ARM GAS  C:\Users\CHUCK~1.ERH\AppData\Local\Temp\ccby6rnL.s 			page 33


 981:.\Generated_Source\PSoC5/ETH0.c **** 	 * Initialize the device and the address configuration, then
 982:.\Generated_Source\PSoC5/ETH0.c **** 	 * execute socket memory initialization for the local allocation
 983:.\Generated_Source\PSoC5/ETH0.c **** 	 * table.
 984:.\Generated_Source\PSoC5/ETH0.c **** 	 */
 985:.\Generated_Source\PSoC5/ETH0.c **** 	int index;
 986:.\Generated_Source\PSoC5/ETH0.c **** 	
 987:.\Generated_Source\PSoC5/ETH0.c **** 	CyDelay( 250 ); /* Fixed Boot Delay or chip inintialization will fail */
 988:.\Generated_Source\PSoC5/ETH0.c **** 	
 989:.\Generated_Source\PSoC5/ETH0.c **** 	/* Reset the device */
 990:.\Generated_Source\PSoC5/ETH0.c **** 	ETH0_SetMode(0x80); /* Send Reset Command */
 991:.\Generated_Source\PSoC5/ETH0.c **** 	/* Wait for the chip initialization delay */
 992:.\Generated_Source\PSoC5/ETH0.c **** 	CyDelay( 10 );
 993:.\Generated_Source\PSoC5/ETH0.c **** 	
 994:.\Generated_Source\PSoC5/ETH0.c **** 	/* Close all of the socket, and clear the memory to make them available. */
 995:.\Generated_Source\PSoC5/ETH0.c **** 	for(index=0;index<4;++index) {
 996:.\Generated_Source\PSoC5/ETH0.c **** 		ETH0_SocketClose( index );
 997:.\Generated_Source\PSoC5/ETH0.c **** 	}
 998:.\Generated_Source\PSoC5/ETH0.c **** 	/* Write the default configruation for memory size to the device */
 999:.\Generated_Source\PSoC5/ETH0.c **** 	ETH0_SetTxMemSize(0x55); /* 2K each */
1000:.\Generated_Source\PSoC5/ETH0.c **** 	ETH0_SetRxMemSize(0x55); /* 2K Each */
1001:.\Generated_Source\PSoC5/ETH0.c **** 	/* Set device gateway address */
1002:.\Generated_Source\PSoC5/ETH0.c **** 	ETH0_SetGatewayAddress(gateway);
1003:.\Generated_Source\PSoC5/ETH0.c **** 	ETH0_SetSubnetMask( subnet );
1004:.\Generated_Source\PSoC5/ETH0.c **** 	/* Store the subnet mask for later use, for ERRATA fix */
1005:.\Generated_Source\PSoC5/ETH0.c **** 	ETH0_SubnetMask = subnet;
1006:.\Generated_Source\PSoC5/ETH0.c **** 	/* store the device mac */
1007:.\Generated_Source\PSoC5/ETH0.c **** 	ETH0_SetSourceMAC( mac );
1008:.\Generated_Source\PSoC5/ETH0.c **** 	/* store the IP address */
1009:.\Generated_Source\PSoC5/ETH0.c **** 	ETH0_SetSourceIP( ip );
1010:.\Generated_Source\PSoC5/ETH0.c **** 	/* clear pending interrupts */
1011:.\Generated_Source\PSoC5/ETH0.c **** 	ETH0_SetIR(0xFF);
1012:.\Generated_Source\PSoC5/ETH0.c **** 	/* clear the subnet mask register (W5100 Errata Fix) */
1013:.\Generated_Source\PSoC5/ETH0.c **** 	ETH0_SetSubnetMask( 0 );
1014:.\Generated_Source\PSoC5/ETH0.c **** }
1015:.\Generated_Source\PSoC5/ETH0.c **** /* ------------------------------------------------------------------------ */
1016:.\Generated_Source\PSoC5/ETH0.c **** void
1017:.\Generated_Source\PSoC5/ETH0.c **** ETH0_Start( void )
1018:.\Generated_Source\PSoC5/ETH0.c **** {
1019:.\Generated_Source\PSoC5/ETH0.c **** 	uint32 ip;
1020:.\Generated_Source\PSoC5/ETH0.c **** 	uint32 gateway;
1021:.\Generated_Source\PSoC5/ETH0.c **** 	uint32 sub;
1022:.\Generated_Source\PSoC5/ETH0.c **** 	
1023:.\Generated_Source\PSoC5/ETH0.c **** 	/* Check for SPI initialization */
1024:.\Generated_Source\PSoC5/ETH0.c **** 	if (SPI0_initVar == 0) {
1025:.\Generated_Source\PSoC5/ETH0.c **** 		/*
1026:.\Generated_Source\PSoC5/ETH0.c **** 		 * the hardware has not yet been initialized.  Before anything can be
1027:.\Generated_Source\PSoC5/ETH0.c **** 		 * initialized within the driver, the external hardware must be started
1028:.\Generated_Source\PSoC5/ETH0.c **** 		 */
1029:.\Generated_Source\PSoC5/ETH0.c **** 		SPI0_Start();
1030:.\Generated_Source\PSoC5/ETH0.c **** 	}
1031:.\Generated_Source\PSoC5/ETH0.c **** 		
1032:.\Generated_Source\PSoC5/ETH0.c **** 	/* wait for power on PLL Lock */
1033:.\Generated_Source\PSoC5/ETH0.c **** 	CyDelay( 10 );
1034:.\Generated_Source\PSoC5/ETH0.c **** 	ip = ETH0_ParseIP("192.168.1.101");
1035:.\Generated_Source\PSoC5/ETH0.c **** 	sub = ETH0_ParseIP("255.255.255.0");
1036:.\Generated_Source\PSoC5/ETH0.c **** 	gateway = ETH0_ParseIP("192.168.1.1");
1037:.\Generated_Source\PSoC5/ETH0.c **** 	/* Initialize the device with the default data */
ARM GAS  C:\Users\CHUCK~1.ERH\AppData\Local\Temp\ccby6rnL.s 			page 34


1038:.\Generated_Source\PSoC5/ETH0.c **** 	ETH0_Init( &ETH0_MAC[0], ip, sub, gateway  );
1039:.\Generated_Source\PSoC5/ETH0.c **** }
1040:.\Generated_Source\PSoC5/ETH0.c **** /* ------------------------------------------------------------------------ */
1041:.\Generated_Source\PSoC5/ETH0.c **** uint32
1042:.\Generated_Source\PSoC5/ETH0.c **** ETH0_ParseIP( const char* ipString )
1043:.\Generated_Source\PSoC5/ETH0.c **** {
1044:.\Generated_Source\PSoC5/ETH0.c **** 	/*
1045:.\Generated_Source\PSoC5/ETH0.c **** 	 * Parse a human readable string in to a IP address usable by the hardare
1046:.\Generated_Source\PSoC5/ETH0.c **** 	 */
1047:.\Generated_Source\PSoC5/ETH0.c **** 	int index;
1048:.\Generated_Source\PSoC5/ETH0.c **** 	char digit[5];
1049:.\Generated_Source\PSoC5/ETH0.c **** 	uint8 ip[4];
1050:.\Generated_Source\PSoC5/ETH0.c **** 	int counter;
1051:.\Generated_Source\PSoC5/ETH0.c **** 	int dindex;
1052:.\Generated_Source\PSoC5/ETH0.c **** 	
1053:.\Generated_Source\PSoC5/ETH0.c **** 	index = 0;
1054:.\Generated_Source\PSoC5/ETH0.c **** 	dindex = 0;
1055:.\Generated_Source\PSoC5/ETH0.c **** 	counter = 0;
1056:.\Generated_Source\PSoC5/ETH0.c **** 	
1057:.\Generated_Source\PSoC5/ETH0.c **** 	while ( (counter < 4) && ((unsigned int)index < strlen(ipString) ) ) {
1058:.\Generated_Source\PSoC5/ETH0.c **** 		if ( (ipString[index] >= '0' ) && (ipString[index] <= '9') ) {
1059:.\Generated_Source\PSoC5/ETH0.c **** 			if (dindex > 3) return( 0xFFFFFFFF );
1060:.\Generated_Source\PSoC5/ETH0.c **** 			digit[dindex++] = ipString[index];
1061:.\Generated_Source\PSoC5/ETH0.c **** 			
1062:.\Generated_Source\PSoC5/ETH0.c **** 		}
1063:.\Generated_Source\PSoC5/ETH0.c **** 		
1064:.\Generated_Source\PSoC5/ETH0.c **** 		if ( (ipString[index] == '.') || (ipString[index+1] == 0) ) {
1065:.\Generated_Source\PSoC5/ETH0.c **** 			digit[dindex] = 0;
1066:.\Generated_Source\PSoC5/ETH0.c **** 			dindex = 0;
1067:.\Generated_Source\PSoC5/ETH0.c **** 			/* convert the value and store in the buffer */
1068:.\Generated_Source\PSoC5/ETH0.c **** 			ip[counter] = 0;
1069:.\Generated_Source\PSoC5/ETH0.c **** 			while (digit[dindex] != 0) {
1070:.\Generated_Source\PSoC5/ETH0.c **** 				ip[counter] = (ip[counter]*10) + (digit[dindex]-'0');
1071:.\Generated_Source\PSoC5/ETH0.c **** 				++dindex;
1072:.\Generated_Source\PSoC5/ETH0.c **** 				// ip[counter] = ...
1073:.\Generated_Source\PSoC5/ETH0.c **** 			}
1074:.\Generated_Source\PSoC5/ETH0.c **** 			/* reset the digit index to start accumulating digits again*/
1075:.\Generated_Source\PSoC5/ETH0.c **** 			dindex = 0;
1076:.\Generated_Source\PSoC5/ETH0.c **** 			/* move to the next address byte */
1077:.\Generated_Source\PSoC5/ETH0.c **** 			++counter;
1078:.\Generated_Source\PSoC5/ETH0.c **** 		}
1079:.\Generated_Source\PSoC5/ETH0.c **** 		++index;
1080:.\Generated_Source\PSoC5/ETH0.c **** 	}
1081:.\Generated_Source\PSoC5/ETH0.c **** 	
1082:.\Generated_Source\PSoC5/ETH0.c **** 	if (counter != 4) {
1083:.\Generated_Source\PSoC5/ETH0.c **** 		return( 0xFFFFFFFF );
1084:.\Generated_Source\PSoC5/ETH0.c **** 	}
1085:.\Generated_Source\PSoC5/ETH0.c **** 	else {
1086:.\Generated_Source\PSoC5/ETH0.c **** 		return( ETH0_IPADDRESS(ip[0], ip[1], ip[2], ip[3]) );
1087:.\Generated_Source\PSoC5/ETH0.c **** 	}
1088:.\Generated_Source\PSoC5/ETH0.c **** }
1089:.\Generated_Source\PSoC5/ETH0.c **** /* ------------------------------------------------------------------------ */
1090:.\Generated_Source\PSoC5/ETH0.c **** uint8
1091:.\Generated_Source\PSoC5/ETH0.c **** ETH0_SetIP( uint32 ip )
1092:.\Generated_Source\PSoC5/ETH0.c **** {
1093:.\Generated_Source\PSoC5/ETH0.c **** 	uint8 ok = 0;
1094:.\Generated_Source\PSoC5/ETH0.c **** 	
ARM GAS  C:\Users\CHUCK~1.ERH\AppData\Local\Temp\ccby6rnL.s 			page 35


1095:.\Generated_Source\PSoC5/ETH0.c **** 	if ( ( ip != 0) && (ip != 0xFFFFFFFF) ) {
1096:.\Generated_Source\PSoC5/ETH0.c **** 		ETH0_SetSourceIP( ip );
1097:.\Generated_Source\PSoC5/ETH0.c **** 		ok = 0xFF;
1098:.\Generated_Source\PSoC5/ETH0.c **** 	}
1099:.\Generated_Source\PSoC5/ETH0.c **** 	
1100:.\Generated_Source\PSoC5/ETH0.c **** 	return ok;
1101:.\Generated_Source\PSoC5/ETH0.c **** }
1102:.\Generated_Source\PSoC5/ETH0.c **** /* ------------------------------------------------------------------------ */
1103:.\Generated_Source\PSoC5/ETH0.c **** uint32
1104:.\Generated_Source\PSoC5/ETH0.c **** ETH0_GetIP( void )
1105:.\Generated_Source\PSoC5/ETH0.c **** {
1106:.\Generated_Source\PSoC5/ETH0.c **** 	return ETH0_GetSourceIP();
1107:.\Generated_Source\PSoC5/ETH0.c **** }
1108:.\Generated_Source\PSoC5/ETH0.c **** /* ------------------------------------------------------------------------ */
1109:.\Generated_Source\PSoC5/ETH0.c **** void
1110:.\Generated_Source\PSoC5/ETH0.c **** ETH0_SetMAC( uint8* mac )
1111:.\Generated_Source\PSoC5/ETH0.c **** {
1112:.\Generated_Source\PSoC5/ETH0.c **** 	ETH0_SetSourceMAC( mac );
1113:.\Generated_Source\PSoC5/ETH0.c **** }
1114:.\Generated_Source\PSoC5/ETH0.c **** /* ------------------------------------------------------------------------ */
1115:.\Generated_Source\PSoC5/ETH0.c **** void
1116:.\Generated_Source\PSoC5/ETH0.c **** ETH0_GetMAC( uint8* mac )
1117:.\Generated_Source\PSoC5/ETH0.c **** {
1118:.\Generated_Source\PSoC5/ETH0.c **** 	ETH0_GetSourceMAC( mac );
1119:.\Generated_Source\PSoC5/ETH0.c **** }
1120:.\Generated_Source\PSoC5/ETH0.c **** #endif
1121:.\Generated_Source\PSoC5/ETH0.c **** /* ======================================================================== */
1122:.\Generated_Source\PSoC5/ETH0.c **** /* Socket Controls */
1123:.\Generated_Source\PSoC5/ETH0.c **** #if (1)
1124:.\Generated_Source\PSoC5/ETH0.c **** /* ------------------------------------------------------------------------ */
1125:.\Generated_Source\PSoC5/ETH0.c **** uint8
1126:.\Generated_Source\PSoC5/ETH0.c **** ETH0_SocketOpen( uint8 Protocol, uint16 port, uint8 flags )
1127:.\Generated_Source\PSoC5/ETH0.c **** {
1128:.\Generated_Source\PSoC5/ETH0.c **** 	uint8 socket;
1129:.\Generated_Source\PSoC5/ETH0.c **** 	int index;
1130:.\Generated_Source\PSoC5/ETH0.c **** 	
1131:.\Generated_Source\PSoC5/ETH0.c **** 	/*
1132:.\Generated_Source\PSoC5/ETH0.c **** 	 * This function will look for the first available socket for allocation
1133:.\Generated_Source\PSoC5/ETH0.c **** 	 * using the defined protocol.  The socket configuration will then be
1134:.\Generated_Source\PSoC5/ETH0.c **** 	 * initialized and saved in the allocation table. If the requested socket
1135:.\Generated_Source\PSoC5/ETH0.c **** 	 * can not be initialized, 0xFF is returned
1136:.\Generated_Source\PSoC5/ETH0.c **** 	 */
1137:.\Generated_Source\PSoC5/ETH0.c **** 	socket = 0xFF;
1138:.\Generated_Source\PSoC5/ETH0.c **** 	/* find the first available socket to open, and how much memory is available */
1139:.\Generated_Source\PSoC5/ETH0.c **** 	for( index = 0;index<4;++index) {
1140:.\Generated_Source\PSoC5/ETH0.c **** 		if ( (socket == 0xFF) && (ETH0_SocketConfig[index].Protocol == 0) ) {
1141:.\Generated_Source\PSoC5/ETH0.c **** 			/*
1142:.\Generated_Source\PSoC5/ETH0.c **** 			 * Since the W5100 does not support MAC mode commucications, check to see
1143:.\Generated_Source\PSoC5/ETH0.c **** 			 * if the socket that is free was socket 0.  If the mac protocol was
1144:.\Generated_Source\PSoC5/ETH0.c **** 			 * selected, ignore socket 0
1145:.\Generated_Source\PSoC5/ETH0.c **** 			 */
1146:.\Generated_Source\PSoC5/ETH0.c **** 			if ( (Protocol != ETH0_PROTO_MAC) || (index != 0) ) {
1147:.\Generated_Source\PSoC5/ETH0.c **** 				/* store this socket number for allocation */
1148:.\Generated_Source\PSoC5/ETH0.c **** 				socket = index;
1149:.\Generated_Source\PSoC5/ETH0.c **** 			}
1150:.\Generated_Source\PSoC5/ETH0.c **** 		}
1151:.\Generated_Source\PSoC5/ETH0.c **** 	}
ARM GAS  C:\Users\CHUCK~1.ERH\AppData\Local\Temp\ccby6rnL.s 			page 36


1152:.\Generated_Source\PSoC5/ETH0.c **** 	if (socket != 0xFF ) {
1153:.\Generated_Source\PSoC5/ETH0.c **** 		/* Store the socket information in the allocation table */
1154:.\Generated_Source\PSoC5/ETH0.c **** 		ETH0_SocketConfig[socket].Protocol = Protocol;
1155:.\Generated_Source\PSoC5/ETH0.c **** 		ETH0_SocketConfig[socket].SocketFlags = flags;
1156:.\Generated_Source\PSoC5/ETH0.c **** 		ETH0_SocketConfig[socket].SourcePort = port;
1157:.\Generated_Source\PSoC5/ETH0.c **** 		ETH0_SocketConfig[socket].ServerFlag = 0;
1158:.\Generated_Source\PSoC5/ETH0.c **** 		/* Send the socket open with the correct protocol information */
1159:.\Generated_Source\PSoC5/ETH0.c **** 		ETH0_SetSocketSourcePort( socket, port );
1160:.\Generated_Source\PSoC5/ETH0.c **** 		ETH0_SetSocketMode( socket, Protocol | flags );
1161:.\Generated_Source\PSoC5/ETH0.c **** 		ETH0_ExecuteSocketCommand( socket, 1 );
1162:.\Generated_Source\PSoC5/ETH0.c **** 	}
1163:.\Generated_Source\PSoC5/ETH0.c **** 	return socket;
1164:.\Generated_Source\PSoC5/ETH0.c **** }
1165:.\Generated_Source\PSoC5/ETH0.c **** /* ------------------------------------------------------------------------ */
1166:.\Generated_Source\PSoC5/ETH0.c **** void
1167:.\Generated_Source\PSoC5/ETH0.c **** ETH0_SocketClose( uint8 socket )
1168:.\Generated_Source\PSoC5/ETH0.c **** {
1169:.\Generated_Source\PSoC5/ETH0.c **** 	/*
1170:.\Generated_Source\PSoC5/ETH0.c **** 	 * Set the socket allocation to empty, and issue the close command
1171:.\Generated_Source\PSoC5/ETH0.c **** 	 * to the socket
1172:.\Generated_Source\PSoC5/ETH0.c **** 	 */
1173:.\Generated_Source\PSoC5/ETH0.c **** 	if (socket < 4) {
1174:.\Generated_Source\PSoC5/ETH0.c **** 		/* clear the socket memory allocations */
1175:.\Generated_Source\PSoC5/ETH0.c **** 		ETH0_SocketConfig[socket].Protocol = 0;
1176:.\Generated_Source\PSoC5/ETH0.c **** 		ETH0_SocketConfig[socket].SocketFlags = 0;
1177:.\Generated_Source\PSoC5/ETH0.c **** 		/* close the socket */
1178:.\Generated_Source\PSoC5/ETH0.c **** 		ETH0_ExecuteSocketCommand( socket, 0x10 );
1179:.\Generated_Source\PSoC5/ETH0.c **** 		/* Clear pending Interrupts */
1180:.\Generated_Source\PSoC5/ETH0.c **** 		ETH0_SetSocketIR( socket, 0xFF);
1181:.\Generated_Source\PSoC5/ETH0.c **** 	}
1182:.\Generated_Source\PSoC5/ETH0.c **** }
1183:.\Generated_Source\PSoC5/ETH0.c **** /* ------------------------------------------------------------------------ */
1184:.\Generated_Source\PSoC5/ETH0.c **** uint8
1185:.\Generated_Source\PSoC5/ETH0.c **** ETH0_SocketProcessConnections( uint8 socket )
1186:.\Generated_Source\PSoC5/ETH0.c **** {
1187:.\Generated_Source\PSoC5/ETH0.c **** 	uint8 status;
1188:.\Generated_Source\PSoC5/ETH0.c **** 	
1189:.\Generated_Source\PSoC5/ETH0.c **** 	status = ETH0_GetSocketStatus(socket);
1190:.\Generated_Source\PSoC5/ETH0.c **** 	/* has a connection termination been requested by remote system */
1191:.\Generated_Source\PSoC5/ETH0.c **** 	if (status == 0x1C) {
1192:.\Generated_Source\PSoC5/ETH0.c **** 		/* Close the socket on this end */
1193:.\Generated_Source\PSoC5/ETH0.c **** 		ETH0_SocketClose(socket);
1194:.\Generated_Source\PSoC5/ETH0.c **** 	}
1195:.\Generated_Source\PSoC5/ETH0.c **** 	return (ETH0_GetSocketStatus(socket) == 0x00);
1196:.\Generated_Source\PSoC5/ETH0.c **** }
1197:.\Generated_Source\PSoC5/ETH0.c **** /* ------------------------------------------------------------------------ */
1198:.\Generated_Source\PSoC5/ETH0.c **** uint8
1199:.\Generated_Source\PSoC5/ETH0.c **** ETH0_SocketEstablished( uint8 socket )
1200:.\Generated_Source\PSoC5/ETH0.c **** {
1201:.\Generated_Source\PSoC5/ETH0.c **** 	return (ETH0_GetSocketStatus( socket ) == 0x17);
1202:.\Generated_Source\PSoC5/ETH0.c **** }
1203:.\Generated_Source\PSoC5/ETH0.c **** /* ------------------------------------------------------------------------ */
1204:.\Generated_Source\PSoC5/ETH0.c **** /**
1205:.\Generated_Source\PSoC5/ETH0.c ****  * \brief Transmit a SEND operation over a socket
1206:.\Generated_Source\PSoC5/ETH0.c ****  * \param socket the socket to which the send command will be sent
1207:.\Generated_Source\PSoC5/ETH0.c ****  */
1208:.\Generated_Source\PSoC5/ETH0.c **** static void
ARM GAS  C:\Users\CHUCK~1.ERH\AppData\Local\Temp\ccby6rnL.s 			page 37


1209:.\Generated_Source\PSoC5/ETH0.c **** ETH0_SocketSend(uint8 socket )
1210:.\Generated_Source\PSoC5/ETH0.c **** {
 765              		.loc 1 1210 0
 766              		.cfi_startproc
 767              		@ args = 0, pretend = 0, frame = 0
 768              		@ frame_needed = 0, uses_anonymous_args = 0
 769              	.LVL86:
 770              	.LBB62:
 771              	.LBB63:
 396:.\Generated_Source\PSoC5/ETH0.c **** static void ETH0_SetSubnetMask( uint32 ip ) { ETH0_W51_SetIP(5, ip); }
 772              		.loc 1 396 0
 773 0000 114B     		ldr	r3, .L48
 774              	.LBE63:
 775              	.LBE62:
 776              		.loc 1 1210 0
 777 0002 10B5     		push	{r4, lr}
 778              	.LCFI11:
 779              		.cfi_def_cfa_offset 8
 780              		.cfi_offset 4, -8
 781              		.cfi_offset 14, -4
 782              	.LBB66:
 783              	.LBB64:
 396:.\Generated_Source\PSoC5/ETH0.c **** static void ETH0_SetSubnetMask( uint32 ip ) { ETH0_W51_SetIP(5, ip); }
 784              		.loc 1 396 0
 785 0004 1968     		ldr	r1, [r3, #0]
 786              	.LBE64:
 787              	.LBE66:
 788              		.loc 1 1210 0
 789 0006 0446     		mov	r4, r0
 790              	.LBB67:
 791              	.LBB65:
 396:.\Generated_Source\PSoC5/ETH0.c **** static void ETH0_SetSubnetMask( uint32 ip ) { ETH0_W51_SetIP(5, ip); }
 792              		.loc 1 396 0
 793 0008 0520     		movs	r0, #5
 794              	.LVL87:
 795 000a FFF7FEFF 		bl	ETH0_W51_SetIP
 796              	.LVL88:
 797              	.LBE65:
 798              	.LBE67:
1211:.\Generated_Source\PSoC5/ETH0.c **** 	uint8 ir;
1212:.\Generated_Source\PSoC5/ETH0.c **** 	
1213:.\Generated_Source\PSoC5/ETH0.c **** 	/* initialize the subnet mask register : ERRATA FIX */
1214:.\Generated_Source\PSoC5/ETH0.c **** 	ETH0_SetSubnetMask( ETH0_SubnetMask );
1215:.\Generated_Source\PSoC5/ETH0.c **** 	/* Issue the SEND command */
1216:.\Generated_Source\PSoC5/ETH0.c **** 	ETH0_ExecuteSocketCommand( socket, 0x20 );
 799              		.loc 1 1216 0
 800 000e 2046     		mov	r0, r4
 801 0010 2021     		movs	r1, #32
 802 0012 FFF7FEFF 		bl	ETH0_ExecuteSocketCommand
 803              	.LVL89:
 804              	.LBB68:
 805              	.LBB69:
 581:.\Generated_Source\PSoC5/ETH0.c **** { return ETH0_W51_Read(ETH0_SOCKET_BASE(socket)+2); }
 806              		.loc 1 581 0
 807 0016 2002     		lsls	r0, r4, #8
 808 0018 00F20241 		addw	r1, r0, #1026
 809 001c 8CB2     		uxth	r4, r1
ARM GAS  C:\Users\CHUCK~1.ERH\AppData\Local\Temp\ccby6rnL.s 			page 38


 810              	.LVL90:
 811              	.L46:
 812              	.LBE69:
 813              	.LBE68:
 814              	.LBB70:
 815              	.LBB71:
 816 001e 2046     		mov	r0, r4
 817 0020 FFF7FEFF 		bl	ETH0_W51_Read
 818              	.LVL91:
 819              	.LBE71:
 820              	.LBE70:
1217:.\Generated_Source\PSoC5/ETH0.c **** 	/* wait for the SEND to complete, or for a timeout */
1218:.\Generated_Source\PSoC5/ETH0.c **** 	ir = ETH0_GetSocketIR( socket );
1219:.\Generated_Source\PSoC5/ETH0.c **** 	/* while SEND is not done, and the socket hasnot timed out or been dsconnected */
1220:.\Generated_Source\PSoC5/ETH0.c **** 	while ( ((ir & 0x10) == 0) && (!(ir&0x0A)) ) {
 821              		.loc 1 1220 0
 822 0024 10F01A0F 		tst	r0, #26
 823 0028 03D1     		bne	.L47
 824              	.L45:
1221:.\Generated_Source\PSoC5/ETH0.c **** 		CyDelay(1);
 825              		.loc 1 1221 0
 826 002a 0120     		movs	r0, #1
 827              	.LVL92:
 828 002c FFF7FEFF 		bl	CyDelay
 829              	.LVL93:
 830 0030 F5E7     		b	.L46
 831              	.LVL94:
 832              	.L47:
 833              	.LBB72:
 834              	.LBB73:
 573:.\Generated_Source\PSoC5/ETH0.c **** { ETH0_W51_Write(ETH0_SOCKET_BASE(socket)+2,ir); }
 835              		.loc 1 573 0
 836 0032 2046     		mov	r0, r4
 837              	.LVL95:
 838 0034 1021     		movs	r1, #16
 839 0036 FFF7FEFF 		bl	ETH0_W51_Write
 840              	.LVL96:
 841              	.LBE73:
 842              	.LBE72:
 843              	.LBB74:
 844              	.LBB75:
 396:.\Generated_Source\PSoC5/ETH0.c **** static void ETH0_SetSubnetMask( uint32 ip ) { ETH0_W51_SetIP(5, ip); }
 845              		.loc 1 396 0
 846 003a 0520     		movs	r0, #5
 847 003c 0021     		movs	r1, #0
 848              	.LBE75:
 849              	.LBE74:
1222:.\Generated_Source\PSoC5/ETH0.c **** 		ir = ETH0_GetSocketIR( socket );
1223:.\Generated_Source\PSoC5/ETH0.c **** 		
1224:.\Generated_Source\PSoC5/ETH0.c **** 	}
1225:.\Generated_Source\PSoC5/ETH0.c **** 	/* clear the SEND_OK flag from the register */
1226:.\Generated_Source\PSoC5/ETH0.c **** 	ETH0_SetSocketIR( socket, 0x10 );
1227:.\Generated_Source\PSoC5/ETH0.c **** 	/* reset the subnet mask : ERRATA FIX */
1228:.\Generated_Source\PSoC5/ETH0.c **** 	ETH0_SetSubnetMask( 0 );
1229:.\Generated_Source\PSoC5/ETH0.c **** }
 850              		.loc 1 1229 0
 851 003e BDE81040 		pop	{r4, lr}
ARM GAS  C:\Users\CHUCK~1.ERH\AppData\Local\Temp\ccby6rnL.s 			page 39


 852              	.LBB77:
 853              	.LBB76:
 396:.\Generated_Source\PSoC5/ETH0.c **** static void ETH0_SetSubnetMask( uint32 ip ) { ETH0_W51_SetIP(5, ip); }
 854              		.loc 1 396 0
 855 0042 FFF7FEBF 		b	ETH0_W51_SetIP
 856              	.LVL97:
 857              	.L49:
 858 0046 00BF     		.align	2
 859              	.L48:
 860 0048 00000000 		.word	.LANCHOR0
 861              	.LBE76:
 862              	.LBE77:
 863              		.cfi_endproc
 864              	.LFE85:
 865              		.size	ETH0_SocketSend, .-ETH0_SocketSend
 866              		.section	.text.ETH0_ParseIP,"ax",%progbits
 867              		.align	1
 868              		.global	ETH0_ParseIP
 869              		.thumb
 870              		.thumb_func
 871              		.type	ETH0_ParseIP, %function
 872              	ETH0_ParseIP:
 873              	.LFB76:
1043:.\Generated_Source\PSoC5/ETH0.c **** {
 874              		.loc 1 1043 0
 875              		.cfi_startproc
 876              		@ args = 0, pretend = 0, frame = 16
 877              		@ frame_needed = 0, uses_anonymous_args = 0
 878              	.LVL98:
 879 0000 F0B5     		push	{r4, r5, r6, r7, lr}
 880              	.LCFI12:
 881              		.cfi_def_cfa_offset 20
 882              		.cfi_offset 4, -20
 883              		.cfi_offset 5, -16
 884              		.cfi_offset 6, -12
 885              		.cfi_offset 7, -8
 886              		.cfi_offset 14, -4
1054:.\Generated_Source\PSoC5/ETH0.c **** 	dindex = 0;
 887              		.loc 1 1054 0
 888 0002 0024     		movs	r4, #0
1043:.\Generated_Source\PSoC5/ETH0.c **** {
 889              		.loc 1 1043 0
 890 0004 85B0     		sub	sp, sp, #20
 891              	.LCFI13:
 892              		.cfi_def_cfa_offset 40
1043:.\Generated_Source\PSoC5/ETH0.c **** {
 893              		.loc 1 1043 0
 894 0006 0746     		mov	r7, r0
1055:.\Generated_Source\PSoC5/ETH0.c **** 	counter = 0;
 895              		.loc 1 1055 0
 896 0008 2546     		mov	r5, r4
1053:.\Generated_Source\PSoC5/ETH0.c **** 	index = 0;
 897              		.loc 1 1053 0
 898 000a 2646     		mov	r6, r4
 899              	.LVL99:
 900              	.L51:
1057:.\Generated_Source\PSoC5/ETH0.c **** 	while ( (counter < 4) && ((unsigned int)index < strlen(ipString) ) ) {
ARM GAS  C:\Users\CHUCK~1.ERH\AppData\Local\Temp\ccby6rnL.s 			page 40


 901              		.loc 1 1057 0 discriminator 2
 902 000c 3846     		mov	r0, r7
 903 000e FFF7FEFF 		bl	strlen
 904              	.LVL100:
 905 0012 8642     		cmp	r6, r0
 906 0014 06D2     		bcs	.L62
 907              	.L61:
1058:.\Generated_Source\PSoC5/ETH0.c **** 		if ( (ipString[index] >= '0' ) && (ipString[index] <= '9') ) {
 908              		.loc 1 1058 0
 909 0016 BB5D     		ldrb	r3, [r7, r6]	@ zero_extendqisi2
 910 0018 A3F13002 		sub	r2, r3, #48
 911 001c 092A     		cmp	r2, #9
 912 001e 0AD8     		bhi	.L52
1059:.\Generated_Source\PSoC5/ETH0.c **** 			if (dindex > 3) return( 0xFFFFFFFF );
 913              		.loc 1 1059 0
 914 0020 032C     		cmp	r4, #3
 915 0022 02DD     		ble	.L53
 916              	.L62:
 917 0024 4FF0FF30 		mov	r0, #-1
 918 0028 37E0     		b	.L54
 919              	.L53:
1060:.\Generated_Source\PSoC5/ETH0.c **** 			digit[dindex++] = ipString[index];
 920              		.loc 1 1060 0
 921 002a 04A9     		add	r1, sp, #16
 922 002c 0819     		adds	r0, r1, r4
 923 002e 00F8083C 		strb	r3, [r0, #-8]
 924 0032 0134     		adds	r4, r4, #1
 925              	.LVL101:
 926 0034 01E0     		b	.L55
 927              	.LVL102:
 928              	.L52:
1064:.\Generated_Source\PSoC5/ETH0.c **** 		if ( (ipString[index] == '.') || (ipString[index+1] == 0) ) {
 929              		.loc 1 1064 0
 930 0036 2E2B     		cmp	r3, #46
 931 0038 02D0     		beq	.L56
 932              	.L55:
1042:.\Generated_Source\PSoC5/ETH0.c **** ETH0_ParseIP( const char* ipString )
 933              		.loc 1 1042 0 discriminator 1
 934 003a BB19     		adds	r3, r7, r6
1064:.\Generated_Source\PSoC5/ETH0.c **** 		if ( (ipString[index] == '.') || (ipString[index+1] == 0) ) {
 935              		.loc 1 1064 0 discriminator 1
 936 003c 5A78     		ldrb	r2, [r3, #1]	@ zero_extendqisi2
 937 003e CAB9     		cbnz	r2, .L57
 938              	.L56:
1068:.\Generated_Source\PSoC5/ETH0.c **** 			ip[counter] = 0;
 939              		.loc 1 1068 0
 940 0040 04AB     		add	r3, sp, #16
1065:.\Generated_Source\PSoC5/ETH0.c **** 			digit[dindex] = 0;
 941              		.loc 1 1065 0
 942 0042 04A9     		add	r1, sp, #16
 943 0044 0020     		movs	r0, #0
1068:.\Generated_Source\PSoC5/ETH0.c **** 			ip[counter] = 0;
 944              		.loc 1 1068 0
 945 0046 5A19     		adds	r2, r3, r5
1065:.\Generated_Source\PSoC5/ETH0.c **** 			digit[dindex] = 0;
 946              		.loc 1 1065 0
 947 0048 0C19     		adds	r4, r1, r4
ARM GAS  C:\Users\CHUCK~1.ERH\AppData\Local\Temp\ccby6rnL.s 			page 41


 948              	.LVL103:
 949 004a 04F8080C 		strb	r0, [r4, #-8]
 950              	.LVL104:
1068:.\Generated_Source\PSoC5/ETH0.c **** 			ip[counter] = 0;
 951              		.loc 1 1068 0
 952 004e 02F80C0C 		strb	r0, [r2, #-12]
1042:.\Generated_Source\PSoC5/ETH0.c **** ETH0_ParseIP( const char* ipString )
 953              		.loc 1 1042 0
 954 0052 0DF10703 		add	r3, sp, #7
 955              	.LVL105:
 956              	.L58:
1069:.\Generated_Source\PSoC5/ETH0.c **** 			while (digit[dindex] != 0) {
 957              		.loc 1 1069 0 discriminator 1
 958 0056 13F8014F 		ldrb	r4, [r3, #1]!	@ zero_extendqisi2
 959 005a 54B1     		cbz	r4, .L66
 960              	.L59:
1070:.\Generated_Source\PSoC5/ETH0.c **** 				ip[counter] = (ip[counter]*10) + (digit[dindex]-'0');
 961              		.loc 1 1070 0
 962 005c 04AA     		add	r2, sp, #16
 963 005e 5219     		adds	r2, r2, r5
 964 0060 12F80C1C 		ldrb	r1, [r2, #-12]	@ zero_extendqisi2
 965 0064 303C     		subs	r4, r4, #48
 966 0066 0A20     		movs	r0, #10
 967 0068 00FB0144 		mla	r4, r0, r1, r4
 968 006c 02F80C4C 		strb	r4, [r2, #-12]
 969 0070 F1E7     		b	.L58
 970              	.L66:
 971              	.LVL106:
1077:.\Generated_Source\PSoC5/ETH0.c **** 			++counter;
 972              		.loc 1 1077 0
 973 0072 0135     		adds	r5, r5, #1
 974              	.LVL107:
 975              	.L57:
1079:.\Generated_Source\PSoC5/ETH0.c **** 		++index;
 976              		.loc 1 1079 0
 977 0074 0136     		adds	r6, r6, #1
 978              	.LVL108:
1057:.\Generated_Source\PSoC5/ETH0.c **** 	while ( (counter < 4) && ((unsigned int)index < strlen(ipString) ) ) {
 979              		.loc 1 1057 0
 980 0076 032D     		cmp	r5, #3
 981 0078 C8DD     		ble	.L51
 982              	.L60:
1082:.\Generated_Source\PSoC5/ETH0.c **** 	if (counter != 4) {
 983              		.loc 1 1082 0
 984 007a 042D     		cmp	r5, #4
 985 007c D2D1     		bne	.L62
1086:.\Generated_Source\PSoC5/ETH0.c **** 		return( ETH0_IPADDRESS(ip[0], ip[1], ip[2], ip[3]) );
 986              		.loc 1 1086 0
 987 007e 9DF80710 		ldrb	r1, [sp, #7]	@ zero_extendqisi2
 988 0082 9DF80400 		ldrb	r0, [sp, #4]	@ zero_extendqisi2
 989 0086 9DF80530 		ldrb	r3, [sp, #5]	@ zero_extendqisi2
 990 008a 00EB0162 		add	r2, r0, r1, lsl #24
 991 008e 9DF80600 		ldrb	r0, [sp, #6]	@ zero_extendqisi2
 992 0092 02EB0321 		add	r1, r2, r3, lsl #8
 993 0096 01EB0040 		add	r0, r1, r0, lsl #16
 994              	.LVL109:
 995              	.L54:
ARM GAS  C:\Users\CHUCK~1.ERH\AppData\Local\Temp\ccby6rnL.s 			page 42


1088:.\Generated_Source\PSoC5/ETH0.c **** }
 996              		.loc 1 1088 0
 997 009a 05B0     		add	sp, sp, #20
 998 009c F0BD     		pop	{r4, r5, r6, r7, pc}
 999              		.cfi_endproc
 1000              	.LFE76:
 1001              		.size	ETH0_ParseIP, .-ETH0_ParseIP
 1002              		.section	.text.ETH0_SetIP,"ax",%progbits
 1003              		.align	1
 1004              		.global	ETH0_SetIP
 1005              		.thumb
 1006              		.thumb_func
 1007              		.type	ETH0_SetIP, %function
 1008              	ETH0_SetIP:
 1009              	.LFB77:
1092:.\Generated_Source\PSoC5/ETH0.c **** {
 1010              		.loc 1 1092 0
 1011              		.cfi_startproc
 1012              		@ args = 0, pretend = 0, frame = 0
 1013              		@ frame_needed = 0, uses_anonymous_args = 0
 1014              	.LVL110:
 1015 0000 08B5     		push	{r3, lr}
 1016              	.LCFI14:
 1017              		.cfi_def_cfa_offset 8
 1018              		.cfi_offset 3, -8
 1019              		.cfi_offset 14, -4
1095:.\Generated_Source\PSoC5/ETH0.c **** 	if ( ( ip != 0) && (ip != 0xFFFFFFFF) ) {
 1020              		.loc 1 1095 0
 1021 0002 431E     		subs	r3, r0, #1
 1022 0004 0333     		adds	r3, r3, #3
1092:.\Generated_Source\PSoC5/ETH0.c **** {
 1023              		.loc 1 1092 0
 1024 0006 0146     		mov	r1, r0
1095:.\Generated_Source\PSoC5/ETH0.c **** 	if ( ( ip != 0) && (ip != 0xFFFFFFFF) ) {
 1025              		.loc 1 1095 0
 1026 0008 04D8     		bhi	.L69
 1027              	.LVL111:
 1028              	.LBB80:
 1029              	.LBB81:
 408:.\Generated_Source\PSoC5/ETH0.c **** static void ETH0_SetSourceIP( uint32 ip ) { ETH0_W51_SetIP( 0x0F, ip ); }
 1030              		.loc 1 408 0
 1031 000a 0F20     		movs	r0, #15
 1032              	.LVL112:
 1033 000c FFF7FEFF 		bl	ETH0_W51_SetIP
 1034              	.LVL113:
1097:.\Generated_Source\PSoC5/ETH0.c **** 		ok = 0xFF;
 1035              		.loc 1 1097 0
 1036 0010 FF20     		movs	r0, #255
 1037 0012 08BD     		pop	{r3, pc}
 1038              	.LVL114:
 1039              	.L69:
 1040              	.LBE81:
 1041              	.LBE80:
1093:.\Generated_Source\PSoC5/ETH0.c **** 	uint8 ok = 0;
 1042              		.loc 1 1093 0
 1043 0014 0020     		movs	r0, #0
 1044              	.LVL115:
ARM GAS  C:\Users\CHUCK~1.ERH\AppData\Local\Temp\ccby6rnL.s 			page 43


1101:.\Generated_Source\PSoC5/ETH0.c **** }
 1045              		.loc 1 1101 0
 1046 0016 08BD     		pop	{r3, pc}
 1047              		.cfi_endproc
 1048              	.LFE77:
 1049              		.size	ETH0_SetIP, .-ETH0_SetIP
 1050              		.section	.text.ETH0_GetIP,"ax",%progbits
 1051              		.align	1
 1052              		.global	ETH0_GetIP
 1053              		.thumb
 1054              		.thumb_func
 1055              		.type	ETH0_GetIP, %function
 1056              	ETH0_GetIP:
 1057              	.LFB78:
1105:.\Generated_Source\PSoC5/ETH0.c **** {
 1058              		.loc 1 1105 0
 1059              		.cfi_startproc
 1060              		@ args = 0, pretend = 0, frame = 8
 1061              		@ frame_needed = 0, uses_anonymous_args = 0
 1062              	.LVL116:
 1063 0000 13B5     		push	{r0, r1, r4, lr}
 1064              	.LCFI15:
 1065              		.cfi_def_cfa_offset 16
 1066              		.cfi_offset 0, -16
 1067              		.cfi_offset 1, -12
 1068              		.cfi_offset 4, -8
 1069              		.cfi_offset 14, -4
 1070              	.LVL117:
 1071              	.LBB86:
 1072              	.LBB87:
 1073              	.LBB88:
 298:.\Generated_Source\PSoC5/ETH0.c **** 	*ip = 0;
 1074              		.loc 1 298 0
 1075 0002 0024     		movs	r4, #0
 1076 0004 0194     		str	r4, [sp, #4]
 1077              	.LVL118:
 1078              	.L71:
1104:.\Generated_Source\PSoC5/ETH0.c **** ETH0_GetIP( void )
 1079              		.loc 1 1104 0
 1080 0006 04F10F00 		add	r0, r4, #15
 300:.\Generated_Source\PSoC5/ETH0.c **** 		buffer[index] = ETH0_W51_Read(addr+index);
 1081              		.loc 1 300 0
 1082 000a 80B2     		uxth	r0, r0
 1083 000c FFF7FEFF 		bl	ETH0_W51_Read
 1084              	.LVL119:
 1085 0010 01AB     		add	r3, sp, #4
 1086              	.LVL120:
 1087 0012 1855     		strb	r0, [r3, r4]
 299:.\Generated_Source\PSoC5/ETH0.c **** 	for(index=0;index<4;++index) {
 1088              		.loc 1 299 0
 1089 0014 0134     		adds	r4, r4, #1
 1090              	.LVL121:
 1091 0016 042C     		cmp	r4, #4
 1092 0018 F5D1     		bne	.L71
 1093              	.LBE88:
 1094              	.LBE87:
 1095              	.LBE86:
ARM GAS  C:\Users\CHUCK~1.ERH\AppData\Local\Temp\ccby6rnL.s 			page 44


1107:.\Generated_Source\PSoC5/ETH0.c **** }
 1096              		.loc 1 1107 0
 1097 001a 0198     		ldr	r0, [sp, #4]
 1098 001c 1CBD     		pop	{r2, r3, r4, pc}
 1099              		.cfi_endproc
 1100              	.LFE78:
 1101              		.size	ETH0_GetIP, .-ETH0_GetIP
 1102              		.section	.text.ETH0_SetMAC,"ax",%progbits
 1103              		.align	1
 1104              		.global	ETH0_SetMAC
 1105              		.thumb
 1106              		.thumb_func
 1107              		.type	ETH0_SetMAC, %function
 1108              	ETH0_SetMAC:
 1109              	.LFB79:
1111:.\Generated_Source\PSoC5/ETH0.c **** {
 1110              		.loc 1 1111 0
 1111              		.cfi_startproc
 1112              		@ args = 0, pretend = 0, frame = 0
 1113              		@ frame_needed = 0, uses_anonymous_args = 0
 1114              	.LVL122:
 1115 0000 38B5     		push	{r3, r4, r5, lr}
 1116              	.LCFI16:
 1117              		.cfi_def_cfa_offset 16
 1118              		.cfi_offset 3, -16
 1119              		.cfi_offset 4, -12
 1120              		.cfi_offset 5, -8
 1121              		.cfi_offset 14, -4
1111:.\Generated_Source\PSoC5/ETH0.c **** {
 1122              		.loc 1 1111 0
 1123 0002 0546     		mov	r5, r0
 1124              	.LVL123:
 251:.\Generated_Source\PSoC5/ETH0.c **** 	for(index = 0;index<6;++index)
 1125              		.loc 1 251 0
 1126 0004 0024     		movs	r4, #0
 1127              	.LVL124:
 1128              	.L74:
 1129              	.LBB93:
 1130              	.LBB94:
 1131              	.LBB95:
1110:.\Generated_Source\PSoC5/ETH0.c **** ETH0_SetMAC( uint8* mac )
 1132              		.loc 1 1110 0
 1133 0006 04F10900 		add	r0, r4, #9
 253:.\Generated_Source\PSoC5/ETH0.c **** 		ETH0_W51_Write(addr+index,mac[index]);
 1134              		.loc 1 253 0
 1135 000a 295D     		ldrb	r1, [r5, r4]	@ zero_extendqisi2
 1136 000c 80B2     		uxth	r0, r0
 251:.\Generated_Source\PSoC5/ETH0.c **** 	for(index = 0;index<6;++index)
 1137              		.loc 1 251 0
 1138 000e 0134     		adds	r4, r4, #1
 253:.\Generated_Source\PSoC5/ETH0.c **** 		ETH0_W51_Write(addr+index,mac[index]);
 1139              		.loc 1 253 0
 1140 0010 FFF7FEFF 		bl	ETH0_W51_Write
 1141              	.LVL125:
 251:.\Generated_Source\PSoC5/ETH0.c **** 	for(index = 0;index<6;++index)
 1142              		.loc 1 251 0
 1143 0014 062C     		cmp	r4, #6
ARM GAS  C:\Users\CHUCK~1.ERH\AppData\Local\Temp\ccby6rnL.s 			page 45


 1144 0016 F6D1     		bne	.L74
 1145              	.LBE95:
 1146              	.LBE94:
 1147              	.LBE93:
1113:.\Generated_Source\PSoC5/ETH0.c **** }
 1148              		.loc 1 1113 0
 1149 0018 38BD     		pop	{r3, r4, r5, pc}
 1150              		.cfi_endproc
 1151              	.LFE79:
 1152              		.size	ETH0_SetMAC, .-ETH0_SetMAC
 1153              		.section	.text.ETH0_GetMAC,"ax",%progbits
 1154              		.align	1
 1155              		.global	ETH0_GetMAC
 1156              		.thumb
 1157              		.thumb_func
 1158              		.type	ETH0_GetMAC, %function
 1159              	ETH0_GetMAC:
 1160              	.LFB80:
1117:.\Generated_Source\PSoC5/ETH0.c **** {
 1161              		.loc 1 1117 0
 1162              		.cfi_startproc
 1163              		@ args = 0, pretend = 0, frame = 0
 1164              		@ frame_needed = 0, uses_anonymous_args = 0
 1165              	.LVL126:
 1166 0000 38B5     		push	{r3, r4, r5, lr}
 1167              	.LCFI17:
 1168              		.cfi_def_cfa_offset 16
 1169              		.cfi_offset 3, -16
 1170              		.cfi_offset 4, -12
 1171              		.cfi_offset 5, -8
 1172              		.cfi_offset 14, -4
1117:.\Generated_Source\PSoC5/ETH0.c **** {
 1173              		.loc 1 1117 0
 1174 0002 0546     		mov	r5, r0
 1175              	.LVL127:
 265:.\Generated_Source\PSoC5/ETH0.c **** 	for(index=0;index<6;++index) {
 1176              		.loc 1 265 0
 1177 0004 0024     		movs	r4, #0
 1178              	.LVL128:
 1179              	.L77:
 1180              	.LBB100:
 1181              	.LBB101:
 1182              	.LBB102:
1116:.\Generated_Source\PSoC5/ETH0.c **** ETH0_GetMAC( uint8* mac )
 1183              		.loc 1 1116 0
 1184 0006 04F10900 		add	r0, r4, #9
 266:.\Generated_Source\PSoC5/ETH0.c **** 		mac[index] = ETH0_W51_Read(addr+index);
 1185              		.loc 1 266 0
 1186 000a 80B2     		uxth	r0, r0
 1187 000c FFF7FEFF 		bl	ETH0_W51_Read
 1188              	.LVL129:
 1189 0010 2855     		strb	r0, [r5, r4]
 265:.\Generated_Source\PSoC5/ETH0.c **** 	for(index=0;index<6;++index) {
 1190              		.loc 1 265 0
 1191 0012 0134     		adds	r4, r4, #1
 1192              	.LVL130:
 1193 0014 062C     		cmp	r4, #6
ARM GAS  C:\Users\CHUCK~1.ERH\AppData\Local\Temp\ccby6rnL.s 			page 46


 1194 0016 F6D1     		bne	.L77
 1195              	.LBE102:
 1196              	.LBE101:
 1197              	.LBE100:
1119:.\Generated_Source\PSoC5/ETH0.c **** }
 1198              		.loc 1 1119 0
 1199 0018 38BD     		pop	{r3, r4, r5, pc}
 1200              		.cfi_endproc
 1201              	.LFE80:
 1202              		.size	ETH0_GetMAC, .-ETH0_GetMAC
 1203              		.section	.text.ETH0_SocketOpen,"ax",%progbits
 1204              		.align	1
 1205              		.global	ETH0_SocketOpen
 1206              		.thumb
 1207              		.thumb_func
 1208              		.type	ETH0_SocketOpen, %function
 1209              	ETH0_SocketOpen:
 1210              	.LFB81:
1127:.\Generated_Source\PSoC5/ETH0.c **** {
 1211              		.loc 1 1127 0
 1212              		.cfi_startproc
 1213              		@ args = 0, pretend = 0, frame = 0
 1214              		@ frame_needed = 0, uses_anonymous_args = 0
 1215              	.LVL131:
 1216 0000 F8B5     		push	{r3, r4, r5, r6, r7, lr}
 1217              	.LCFI18:
 1218              		.cfi_def_cfa_offset 24
 1219              		.cfi_offset 3, -24
 1220              		.cfi_offset 4, -20
 1221              		.cfi_offset 5, -16
 1222              		.cfi_offset 6, -12
 1223              		.cfi_offset 7, -8
 1224              		.cfi_offset 14, -4
1127:.\Generated_Source\PSoC5/ETH0.c **** {
 1225              		.loc 1 1127 0
 1226 0002 0546     		mov	r5, r0
 1227 0004 1646     		mov	r6, r2
1139:.\Generated_Source\PSoC5/ETH0.c **** 	for( index = 0;index<4;++index) {
 1228              		.loc 1 1139 0
 1229 0006 0023     		movs	r3, #0
1137:.\Generated_Source\PSoC5/ETH0.c **** 	socket = 0xFF;
 1230              		.loc 1 1137 0
 1231 0008 FF24     		movs	r4, #255
 1232              	.LVL132:
 1233              	.L82:
1140:.\Generated_Source\PSoC5/ETH0.c **** 		if ( (socket == 0xFF) && (ETH0_SocketConfig[index].Protocol == 0) ) {
 1234              		.loc 1 1140 0
 1235 000a FF2C     		cmp	r4, #255
 1236 000c 08D1     		bne	.L80
1126:.\Generated_Source\PSoC5/ETH0.c **** ETH0_SocketOpen( uint8 Protocol, uint16 port, uint8 flags )
 1237              		.loc 1 1126 0 discriminator 1
 1238 000e 0620     		movs	r0, #6
 1239 0010 5843     		muls	r0, r3, r0
1140:.\Generated_Source\PSoC5/ETH0.c **** 		if ( (socket == 0xFF) && (ETH0_SocketConfig[index].Protocol == 0) ) {
 1240              		.loc 1 1140 0 discriminator 1
 1241 0012 154A     		ldr	r2, .L91
 1242 0014 805C     		ldrb	r0, [r0, r2]	@ zero_extendqisi2
ARM GAS  C:\Users\CHUCK~1.ERH\AppData\Local\Temp\ccby6rnL.s 			page 47


 1243 0016 18B9     		cbnz	r0, .L80
1146:.\Generated_Source\PSoC5/ETH0.c **** 			if ( (Protocol != ETH0_PROTO_MAC) || (index != 0) ) {
 1244              		.loc 1 1146 0
 1245 0018 042D     		cmp	r5, #4
 1246 001a 00D1     		bne	.L81
1146:.\Generated_Source\PSoC5/ETH0.c **** 			if ( (Protocol != ETH0_PROTO_MAC) || (index != 0) ) {
 1247              		.loc 1 1146 0 is_stmt 0 discriminator 1
 1248 001c 03B1     		cbz	r3, .L80
 1249              	.L81:
1148:.\Generated_Source\PSoC5/ETH0.c **** 				socket = index;
 1250              		.loc 1 1148 0 is_stmt 1
 1251 001e DCB2     		uxtb	r4, r3
 1252              	.LVL133:
 1253              	.L80:
1139:.\Generated_Source\PSoC5/ETH0.c **** 	for( index = 0;index<4;++index) {
 1254              		.loc 1 1139 0
 1255 0020 0133     		adds	r3, r3, #1
 1256              	.LVL134:
 1257 0022 042B     		cmp	r3, #4
 1258 0024 F1D1     		bne	.L82
1152:.\Generated_Source\PSoC5/ETH0.c **** 	if (socket != 0xFF ) {
 1259              		.loc 1 1152 0
 1260 0026 FF2C     		cmp	r4, #255
 1261 0028 1BD0     		beq	.L83
1154:.\Generated_Source\PSoC5/ETH0.c **** 		ETH0_SocketConfig[socket].Protocol = Protocol;
 1262              		.loc 1 1154 0
 1263 002a 104A     		ldr	r2, .L91+4
 1264 002c 0627     		movs	r7, #6
 1265 002e 07FB0420 		mla	r0, r7, r4, r2
1157:.\Generated_Source\PSoC5/ETH0.c **** 		ETH0_SocketConfig[socket].ServerFlag = 0;
 1266              		.loc 1 1157 0
 1267 0032 0023     		movs	r3, #0
 1268              	.LVL135:
1154:.\Generated_Source\PSoC5/ETH0.c **** 		ETH0_SocketConfig[socket].Protocol = Protocol;
 1269              		.loc 1 1154 0
 1270 0034 071D     		adds	r7, r0, #4
1157:.\Generated_Source\PSoC5/ETH0.c **** 		ETH0_SocketConfig[socket].ServerFlag = 0;
 1271              		.loc 1 1157 0
 1272 0036 3B71     		strb	r3, [r7, #4]
 1273              	.LVL136:
 1274              	.LBB107:
 1275              	.LBB108:
 605:.\Generated_Source\PSoC5/ETH0.c **** { ETH0_W51_Write16(ETH0_SOCKET_BASE(socket)+4,port); }
 1276              		.loc 1 605 0
 1277 0038 2702     		lsls	r7, r4, #8
 1278 003a 07F20442 		addw	r2, r7, #1028
 1279              	.LBE108:
 1280              	.LBE107:
1156:.\Generated_Source\PSoC5/ETH0.c **** 		ETH0_SocketConfig[socket].SourcePort = port;
 1281              		.loc 1 1156 0
 1282 003e C180     		strh	r1, [r0, #6]	@ movhi
1154:.\Generated_Source\PSoC5/ETH0.c **** 		ETH0_SocketConfig[socket].Protocol = Protocol;
 1283              		.loc 1 1154 0
 1284 0040 0571     		strb	r5, [r0, #4]
1155:.\Generated_Source\PSoC5/ETH0.c **** 		ETH0_SocketConfig[socket].SocketFlags = flags;
 1285              		.loc 1 1155 0
 1286 0042 4671     		strb	r6, [r0, #5]
ARM GAS  C:\Users\CHUCK~1.ERH\AppData\Local\Temp\ccby6rnL.s 			page 48


 1287              	.LBB110:
 1288              	.LBB109:
 605:.\Generated_Source\PSoC5/ETH0.c **** { ETH0_W51_Write16(ETH0_SOCKET_BASE(socket)+4,port); }
 1289              		.loc 1 605 0
 1290 0044 90B2     		uxth	r0, r2
 1291 0046 FFF7FEFF 		bl	ETH0_W51_Write16
 1292              	.LVL137:
 1293              	.LBE109:
 1294              	.LBE110:
 1295              	.LBB111:
 1296              	.LBB112:
 541:.\Generated_Source\PSoC5/ETH0.c **** { ETH0_W51_Write(ETH0_SOCKET_BASE(socket), mode); }
 1297              		.loc 1 541 0
 1298 004a 07F58061 		add	r1, r7, #1024
 1299 004e 01F47F40 		and	r0, r1, #65280
 1300 0052 46EA0501 		orr	r1, r6, r5
 1301 0056 FFF7FEFF 		bl	ETH0_W51_Write
 1302              	.LVL138:
 1303              	.LBE112:
 1304              	.LBE111:
1161:.\Generated_Source\PSoC5/ETH0.c **** 		ETH0_ExecuteSocketCommand( socket, 1 );
 1305              		.loc 1 1161 0
 1306 005a 2046     		mov	r0, r4
 1307 005c 0121     		movs	r1, #1
 1308 005e FFF7FEFF 		bl	ETH0_ExecuteSocketCommand
 1309              	.LVL139:
 1310              	.L83:
1164:.\Generated_Source\PSoC5/ETH0.c **** }
 1311              		.loc 1 1164 0
 1312 0062 2046     		mov	r0, r4
 1313 0064 F8BD     		pop	{r3, r4, r5, r6, r7, pc}
 1314              	.L92:
 1315 0066 00BF     		.align	2
 1316              	.L91:
 1317 0068 04000000 		.word	.LANCHOR0+4
 1318 006c 00000000 		.word	.LANCHOR0
 1319              		.cfi_endproc
 1320              	.LFE81:
 1321              		.size	ETH0_SocketOpen, .-ETH0_SocketOpen
 1322              		.section	.text.ETH0_SocketClose,"ax",%progbits
 1323              		.align	1
 1324              		.global	ETH0_SocketClose
 1325              		.thumb
 1326              		.thumb_func
 1327              		.type	ETH0_SocketClose, %function
 1328              	ETH0_SocketClose:
 1329              	.LFB82:
1168:.\Generated_Source\PSoC5/ETH0.c **** {
 1330              		.loc 1 1168 0
 1331              		.cfi_startproc
 1332              		@ args = 0, pretend = 0, frame = 0
 1333              		@ frame_needed = 0, uses_anonymous_args = 0
 1334              	.LVL140:
1173:.\Generated_Source\PSoC5/ETH0.c **** 	if (socket < 4) {
 1335              		.loc 1 1173 0
 1336 0000 0328     		cmp	r0, #3
1168:.\Generated_Source\PSoC5/ETH0.c **** {
ARM GAS  C:\Users\CHUCK~1.ERH\AppData\Local\Temp\ccby6rnL.s 			page 49


 1337              		.loc 1 1168 0
 1338 0002 10B5     		push	{r4, lr}
 1339              	.LCFI19:
 1340              		.cfi_def_cfa_offset 8
 1341              		.cfi_offset 4, -8
 1342              		.cfi_offset 14, -4
1168:.\Generated_Source\PSoC5/ETH0.c **** {
 1343              		.loc 1 1168 0
 1344 0004 0446     		mov	r4, r0
1173:.\Generated_Source\PSoC5/ETH0.c **** 	if (socket < 4) {
 1345              		.loc 1 1173 0
 1346 0006 12D8     		bhi	.L93
 1347              	.LVL141:
 1348              	.LBB117:
 1349              	.LBB118:
1175:.\Generated_Source\PSoC5/ETH0.c **** 		ETH0_SocketConfig[socket].Protocol = 0;
 1350              		.loc 1 1175 0
 1351 0008 094B     		ldr	r3, .L95
 1352 000a 0622     		movs	r2, #6
 1353 000c 02FB0031 		mla	r1, r2, r0, r3
 1354 0010 0022     		movs	r2, #0
 1355 0012 0A71     		strb	r2, [r1, #4]
1176:.\Generated_Source\PSoC5/ETH0.c **** 		ETH0_SocketConfig[socket].SocketFlags = 0;
 1356              		.loc 1 1176 0
 1357 0014 4A71     		strb	r2, [r1, #5]
1178:.\Generated_Source\PSoC5/ETH0.c **** 		ETH0_ExecuteSocketCommand( socket, 0x10 );
 1358              		.loc 1 1178 0
 1359 0016 1021     		movs	r1, #16
 1360 0018 FFF7FEFF 		bl	ETH0_ExecuteSocketCommand
 1361              	.LVL142:
 1362              	.LBB119:
 1363              	.LBB120:
 573:.\Generated_Source\PSoC5/ETH0.c **** { ETH0_W51_Write(ETH0_SOCKET_BASE(socket)+2,ir); }
 1364              		.loc 1 573 0
 1365 001c 2002     		lsls	r0, r4, #8
 1366 001e 00F20243 		addw	r3, r0, #1026
 1367 0022 98B2     		uxth	r0, r3
 1368 0024 FF21     		movs	r1, #255
 1369              	.LBE120:
 1370              	.LBE119:
 1371              	.LBE118:
 1372              	.LBE117:
1182:.\Generated_Source\PSoC5/ETH0.c **** }
 1373              		.loc 1 1182 0
 1374 0026 BDE81040 		pop	{r4, lr}
 1375              	.LBB124:
 1376              	.LBB123:
 1377              	.LBB122:
 1378              	.LBB121:
 573:.\Generated_Source\PSoC5/ETH0.c **** { ETH0_W51_Write(ETH0_SOCKET_BASE(socket)+2,ir); }
 1379              		.loc 1 573 0
 1380 002a FFF7FEBF 		b	ETH0_W51_Write
 1381              	.LVL143:
 1382              	.L93:
 1383 002e 10BD     		pop	{r4, pc}
 1384              	.L96:
 1385              		.align	2
ARM GAS  C:\Users\CHUCK~1.ERH\AppData\Local\Temp\ccby6rnL.s 			page 50


 1386              	.L95:
 1387 0030 00000000 		.word	.LANCHOR0
 1388              	.LBE121:
 1389              	.LBE122:
 1390              	.LBE123:
 1391              	.LBE124:
 1392              		.cfi_endproc
 1393              	.LFE82:
 1394              		.size	ETH0_SocketClose, .-ETH0_SocketClose
 1395              		.section	.text.ETH0_Init,"ax",%progbits
 1396              		.align	1
 1397              		.global	ETH0_Init
 1398              		.thumb
 1399              		.thumb_func
 1400              		.type	ETH0_Init, %function
 1401              	ETH0_Init:
 1402              	.LFB74:
 979:.\Generated_Source\PSoC5/ETH0.c **** {
 1403              		.loc 1 979 0
 1404              		.cfi_startproc
 1405              		@ args = 0, pretend = 0, frame = 0
 1406              		@ frame_needed = 0, uses_anonymous_args = 0
 1407              	.LVL144:
 1408 0000 F8B5     		push	{r3, r4, r5, r6, r7, lr}
 1409              	.LCFI20:
 1410              		.cfi_def_cfa_offset 24
 1411              		.cfi_offset 3, -24
 1412              		.cfi_offset 4, -20
 1413              		.cfi_offset 5, -16
 1414              		.cfi_offset 6, -12
 1415              		.cfi_offset 7, -8
 1416              		.cfi_offset 14, -4
 979:.\Generated_Source\PSoC5/ETH0.c **** {
 1417              		.loc 1 979 0
 1418 0002 0646     		mov	r6, r0
 987:.\Generated_Source\PSoC5/ETH0.c **** 	CyDelay( 250 ); /* Fixed Boot Delay or chip inintialization will fail */
 1419              		.loc 1 987 0
 1420 0004 FA20     		movs	r0, #250
 1421              	.LVL145:
 979:.\Generated_Source\PSoC5/ETH0.c **** {
 1422              		.loc 1 979 0
 1423 0006 1446     		mov	r4, r2
 1424 0008 1F46     		mov	r7, r3
 1425 000a 0D46     		mov	r5, r1
 987:.\Generated_Source\PSoC5/ETH0.c **** 	CyDelay( 250 ); /* Fixed Boot Delay or chip inintialization will fail */
 1426              		.loc 1 987 0
 1427 000c FFF7FEFF 		bl	CyDelay
 1428              	.LVL146:
 1429              	.LBB145:
 1430              	.LBB146:
 420:.\Generated_Source\PSoC5/ETH0.c **** static void ETH0_SetMode( uint8 mode ) { ETH0_W51_Write(0,mode); }
 1431              		.loc 1 420 0
 1432 0010 8021     		movs	r1, #128
 1433 0012 0020     		movs	r0, #0
 1434 0014 FFF7FEFF 		bl	ETH0_W51_Write
 1435              	.LVL147:
 1436              	.LBE146:
ARM GAS  C:\Users\CHUCK~1.ERH\AppData\Local\Temp\ccby6rnL.s 			page 51


 1437              	.LBE145:
 992:.\Generated_Source\PSoC5/ETH0.c **** 	CyDelay( 10 );
 1438              		.loc 1 992 0
 1439 0018 0A20     		movs	r0, #10
 1440 001a FFF7FEFF 		bl	CyDelay
 1441              	.LVL148:
 996:.\Generated_Source\PSoC5/ETH0.c **** 		ETH0_SocketClose( index );
 1442              		.loc 1 996 0
 1443 001e 0020     		movs	r0, #0
 1444 0020 FFF7FEFF 		bl	ETH0_SocketClose
 1445              	.LVL149:
 1446 0024 0120     		movs	r0, #1
 1447 0026 FFF7FEFF 		bl	ETH0_SocketClose
 1448              	.LVL150:
 1449 002a 0220     		movs	r0, #2
 1450 002c FFF7FEFF 		bl	ETH0_SocketClose
 1451              	.LVL151:
 1452 0030 0320     		movs	r0, #3
 1453 0032 FFF7FEFF 		bl	ETH0_SocketClose
 1454              	.LVL152:
 1455              	.LBB147:
 1456              	.LBB148:
 492:.\Generated_Source\PSoC5/ETH0.c **** static void ETH0_SetTxMemSize( uint8 size ) { ETH0_W51_Write( 0x1B, size); }
 1457              		.loc 1 492 0
 1458 0036 1B20     		movs	r0, #27
 1459 0038 5521     		movs	r1, #85
 1460 003a FFF7FEFF 		bl	ETH0_W51_Write
 1461              	.LVL153:
 1462              	.LBE148:
 1463              	.LBE147:
 1464              	.LBB149:
 1465              	.LBB150:
 480:.\Generated_Source\PSoC5/ETH0.c **** static void ETH0_SetRxMemSize( uint8 size ) { ETH0_W51_Write( 0x1A, size ); }
 1466              		.loc 1 480 0
 1467 003e 1A20     		movs	r0, #26
 1468 0040 5521     		movs	r1, #85
 1469 0042 FFF7FEFF 		bl	ETH0_W51_Write
 1470              	.LVL154:
 1471              	.LBE150:
 1472              	.LBE149:
 1473              	.LBB151:
 1474              	.LBB152:
 384:.\Generated_Source\PSoC5/ETH0.c **** static void ETH0_SetGatewayAddress(uint32 ip) { ETH0_W51_SetIP(1,ip); }
 1475              		.loc 1 384 0
 1476 0046 0120     		movs	r0, #1
 1477 0048 3946     		mov	r1, r7
 1478 004a FFF7FEFF 		bl	ETH0_W51_SetIP
 1479              	.LVL155:
 1480              	.LBE152:
 1481              	.LBE151:
 1482              	.LBB153:
 1483              	.LBB154:
 396:.\Generated_Source\PSoC5/ETH0.c **** static void ETH0_SetSubnetMask( uint32 ip ) { ETH0_W51_SetIP(5, ip); }
 1484              		.loc 1 396 0
 1485 004e 2146     		mov	r1, r4
 1486 0050 0520     		movs	r0, #5
 1487 0052 FFF7FEFF 		bl	ETH0_W51_SetIP
ARM GAS  C:\Users\CHUCK~1.ERH\AppData\Local\Temp\ccby6rnL.s 			page 52


 1488              	.LVL156:
 1489              	.LBE154:
 1490              	.LBE153:
1005:.\Generated_Source\PSoC5/ETH0.c **** 	ETH0_SubnetMask = subnet;
 1491              		.loc 1 1005 0
 1492 0056 0D4B     		ldr	r3, .L100
 1493 0058 1C60     		str	r4, [r3, #0]
 1494              	.LVL157:
 251:.\Generated_Source\PSoC5/ETH0.c **** 	for(index = 0;index<6;++index)
 1495              		.loc 1 251 0
 1496 005a 0024     		movs	r4, #0
 1497              	.LVL158:
 1498              	.L98:
 1499              	.LBB155:
 1500              	.LBB156:
 1501              	.LBB157:
 978:.\Generated_Source\PSoC5/ETH0.c **** ETH0_Init(uint8* mac, uint32 ip, uint32 subnet, uint32 gateway)
 1502              		.loc 1 978 0
 1503 005c 04F10900 		add	r0, r4, #9
 253:.\Generated_Source\PSoC5/ETH0.c **** 		ETH0_W51_Write(addr+index,mac[index]);
 1504              		.loc 1 253 0
 1505 0060 315D     		ldrb	r1, [r6, r4]	@ zero_extendqisi2
 1506 0062 80B2     		uxth	r0, r0
 251:.\Generated_Source\PSoC5/ETH0.c **** 	for(index = 0;index<6;++index)
 1507              		.loc 1 251 0
 1508 0064 0134     		adds	r4, r4, #1
 253:.\Generated_Source\PSoC5/ETH0.c **** 		ETH0_W51_Write(addr+index,mac[index]);
 1509              		.loc 1 253 0
 1510 0066 FFF7FEFF 		bl	ETH0_W51_Write
 1511              	.LVL159:
 251:.\Generated_Source\PSoC5/ETH0.c **** 	for(index = 0;index<6;++index)
 1512              		.loc 1 251 0
 1513 006a 062C     		cmp	r4, #6
 1514 006c F6D1     		bne	.L98
 1515              	.LVL160:
 1516              	.LBE157:
 1517              	.LBE156:
 1518              	.LBE155:
 1519              	.LBB158:
 1520              	.LBB159:
 408:.\Generated_Source\PSoC5/ETH0.c **** static void ETH0_SetSourceIP( uint32 ip ) { ETH0_W51_SetIP( 0x0F, ip ); }
 1521              		.loc 1 408 0
 1522 006e 0F20     		movs	r0, #15
 1523 0070 2946     		mov	r1, r5
 1524 0072 FFF7FEFF 		bl	ETH0_W51_SetIP
 1525              	.LVL161:
 1526              	.LBE159:
 1527              	.LBE158:
 1528              	.LBB160:
 1529              	.LBB161:
 432:.\Generated_Source\PSoC5/ETH0.c **** static void ETH0_SetIR( uint8 ir ) { ETH0_W51_Write(0x0015,ir); }
 1530              		.loc 1 432 0
 1531 0076 1520     		movs	r0, #21
 1532 0078 FF21     		movs	r1, #255
 1533 007a FFF7FEFF 		bl	ETH0_W51_Write
 1534              	.LVL162:
 1535              	.LBE161:
ARM GAS  C:\Users\CHUCK~1.ERH\AppData\Local\Temp\ccby6rnL.s 			page 53


 1536              	.LBE160:
 1537              	.LBB162:
 1538              	.LBB163:
 396:.\Generated_Source\PSoC5/ETH0.c **** static void ETH0_SetSubnetMask( uint32 ip ) { ETH0_W51_SetIP(5, ip); }
 1539              		.loc 1 396 0
 1540 007e 0520     		movs	r0, #5
 1541 0080 0021     		movs	r1, #0
 1542              	.LBE163:
 1543              	.LBE162:
1014:.\Generated_Source\PSoC5/ETH0.c **** }
 1544              		.loc 1 1014 0
 1545 0082 BDE8F840 		pop	{r3, r4, r5, r6, r7, lr}
 1546              	.LBB165:
 1547              	.LBB164:
 396:.\Generated_Source\PSoC5/ETH0.c **** static void ETH0_SetSubnetMask( uint32 ip ) { ETH0_W51_SetIP(5, ip); }
 1548              		.loc 1 396 0
 1549 0086 FFF7FEBF 		b	ETH0_W51_SetIP
 1550              	.LVL163:
 1551              	.L101:
 1552 008a 00BF     		.align	2
 1553              	.L100:
 1554 008c 00000000 		.word	.LANCHOR0
 1555              	.LBE164:
 1556              	.LBE165:
 1557              		.cfi_endproc
 1558              	.LFE74:
 1559              		.size	ETH0_Init, .-ETH0_Init
 1560              		.section	.text.ETH0_Start,"ax",%progbits
 1561              		.align	1
 1562              		.global	ETH0_Start
 1563              		.thumb
 1564              		.thumb_func
 1565              		.type	ETH0_Start, %function
 1566              	ETH0_Start:
 1567              	.LFB75:
1018:.\Generated_Source\PSoC5/ETH0.c **** {
 1568              		.loc 1 1018 0
 1569              		.cfi_startproc
 1570              		@ args = 0, pretend = 0, frame = 0
 1571              		@ frame_needed = 0, uses_anonymous_args = 0
 1572 0000 70B5     		push	{r4, r5, r6, lr}
 1573              	.LCFI21:
 1574              		.cfi_def_cfa_offset 16
 1575              		.cfi_offset 4, -16
 1576              		.cfi_offset 5, -12
 1577              		.cfi_offset 6, -8
 1578              		.cfi_offset 14, -4
1024:.\Generated_Source\PSoC5/ETH0.c **** 	if (SPI0_initVar == 0) {
 1579              		.loc 1 1024 0
 1580 0002 0D4B     		ldr	r3, .L104
 1581 0004 1878     		ldrb	r0, [r3, #0]	@ zero_extendqisi2
 1582 0006 08B9     		cbnz	r0, .L103
1029:.\Generated_Source\PSoC5/ETH0.c **** 		SPI0_Start();
 1583              		.loc 1 1029 0
 1584 0008 FFF7FEFF 		bl	SPI0_Start
 1585              	.LVL164:
 1586              	.L103:
ARM GAS  C:\Users\CHUCK~1.ERH\AppData\Local\Temp\ccby6rnL.s 			page 54


1033:.\Generated_Source\PSoC5/ETH0.c **** 	CyDelay( 10 );
 1587              		.loc 1 1033 0
 1588 000c 0A20     		movs	r0, #10
 1589 000e FFF7FEFF 		bl	CyDelay
 1590              	.LVL165:
1034:.\Generated_Source\PSoC5/ETH0.c **** 	ip = ETH0_ParseIP("192.168.1.101");
 1591              		.loc 1 1034 0
 1592 0012 0A48     		ldr	r0, .L104+4
 1593 0014 FFF7FEFF 		bl	ETH0_ParseIP
 1594              	.LVL166:
 1595 0018 0546     		mov	r5, r0
 1596              	.LVL167:
1035:.\Generated_Source\PSoC5/ETH0.c **** 	sub = ETH0_ParseIP("255.255.255.0");
 1597              		.loc 1 1035 0
 1598 001a 0948     		ldr	r0, .L104+8
 1599              	.LVL168:
 1600 001c FFF7FEFF 		bl	ETH0_ParseIP
 1601              	.LVL169:
 1602 0020 0446     		mov	r4, r0
 1603              	.LVL170:
1036:.\Generated_Source\PSoC5/ETH0.c **** 	gateway = ETH0_ParseIP("192.168.1.1");
 1604              		.loc 1 1036 0
 1605 0022 0848     		ldr	r0, .L104+12
 1606              	.LVL171:
 1607 0024 FFF7FEFF 		bl	ETH0_ParseIP
 1608              	.LVL172:
 1609 0028 0346     		mov	r3, r0
 1610              	.LVL173:
1038:.\Generated_Source\PSoC5/ETH0.c **** 	ETH0_Init( &ETH0_MAC[0], ip, sub, gateway  );
 1611              		.loc 1 1038 0
 1612 002a 0748     		ldr	r0, .L104+16
 1613              	.LVL174:
 1614 002c 2946     		mov	r1, r5
 1615 002e 2246     		mov	r2, r4
1039:.\Generated_Source\PSoC5/ETH0.c **** }
 1616              		.loc 1 1039 0
 1617 0030 BDE87040 		pop	{r4, r5, r6, lr}
1038:.\Generated_Source\PSoC5/ETH0.c **** 	ETH0_Init( &ETH0_MAC[0], ip, sub, gateway  );
 1618              		.loc 1 1038 0
 1619 0034 FFF7FEBF 		b	ETH0_Init
 1620              	.LVL175:
 1621              	.L105:
 1622              		.align	2
 1623              	.L104:
 1624 0038 00000000 		.word	SPI0_initVar
 1625 003c 00000000 		.word	.LC0
 1626 0040 0E000000 		.word	.LC1
 1627 0044 1C000000 		.word	.LC2
 1628 0048 00000000 		.word	.LANCHOR1
 1629              		.cfi_endproc
 1630              	.LFE75:
 1631              		.size	ETH0_Start, .-ETH0_Start
 1632              		.section	.text.ETH0_SocketProcessConnections,"ax",%progbits
 1633              		.align	1
 1634              		.global	ETH0_SocketProcessConnections
 1635              		.thumb
 1636              		.thumb_func
ARM GAS  C:\Users\CHUCK~1.ERH\AppData\Local\Temp\ccby6rnL.s 			page 55


 1637              		.type	ETH0_SocketProcessConnections, %function
 1638              	ETH0_SocketProcessConnections:
 1639              	.LFB83:
1186:.\Generated_Source\PSoC5/ETH0.c **** {
 1640              		.loc 1 1186 0
 1641              		.cfi_startproc
 1642              		@ args = 0, pretend = 0, frame = 0
 1643              		@ frame_needed = 0, uses_anonymous_args = 0
 1644              	.LVL176:
 1645 0000 10B5     		push	{r4, lr}
 1646              	.LCFI22:
 1647              		.cfi_def_cfa_offset 8
 1648              		.cfi_offset 4, -8
 1649              		.cfi_offset 14, -4
1186:.\Generated_Source\PSoC5/ETH0.c **** {
 1650              		.loc 1 1186 0
 1651 0002 0446     		mov	r4, r0
1189:.\Generated_Source\PSoC5/ETH0.c **** 	status = ETH0_GetSocketStatus(socket);
 1652              		.loc 1 1189 0
 1653 0004 FFF7FEFF 		bl	ETH0_GetSocketStatus
 1654              	.LVL177:
1191:.\Generated_Source\PSoC5/ETH0.c **** 	if (status == 0x1C) {
 1655              		.loc 1 1191 0
 1656 0008 1C28     		cmp	r0, #28
 1657 000a 02D1     		bne	.L107
1193:.\Generated_Source\PSoC5/ETH0.c **** 		ETH0_SocketClose(socket);
 1658              		.loc 1 1193 0
 1659 000c 2046     		mov	r0, r4
 1660              	.LVL178:
 1661 000e FFF7FEFF 		bl	ETH0_SocketClose
 1662              	.LVL179:
 1663              	.L107:
1195:.\Generated_Source\PSoC5/ETH0.c **** 	return (ETH0_GetSocketStatus(socket) == 0x00);
 1664              		.loc 1 1195 0
 1665 0012 2046     		mov	r0, r4
 1666 0014 FFF7FEFF 		bl	ETH0_GetSocketStatus
 1667              	.LVL180:
1196:.\Generated_Source\PSoC5/ETH0.c **** }
 1668              		.loc 1 1196 0
 1669 0018 D0F10100 		rsbs	r0, r0, #1
 1670 001c 38BF     		it	cc
 1671 001e 0020     		movcc	r0, #0
 1672 0020 10BD     		pop	{r4, pc}
 1673              		.cfi_endproc
 1674              	.LFE83:
 1675              		.size	ETH0_SocketProcessConnections, .-ETH0_SocketProcessConnections
 1676              		.section	.text.ETH0_SocketEstablished,"ax",%progbits
 1677              		.align	1
 1678              		.global	ETH0_SocketEstablished
 1679              		.thumb
 1680              		.thumb_func
 1681              		.type	ETH0_SocketEstablished, %function
 1682              	ETH0_SocketEstablished:
 1683              	.LFB84:
1200:.\Generated_Source\PSoC5/ETH0.c **** {
 1684              		.loc 1 1200 0
 1685              		.cfi_startproc
ARM GAS  C:\Users\CHUCK~1.ERH\AppData\Local\Temp\ccby6rnL.s 			page 56


 1686              		@ args = 0, pretend = 0, frame = 0
 1687              		@ frame_needed = 0, uses_anonymous_args = 0
 1688              	.LVL181:
 1689 0000 08B5     		push	{r3, lr}
 1690              	.LCFI23:
 1691              		.cfi_def_cfa_offset 8
 1692              		.cfi_offset 3, -8
 1693              		.cfi_offset 14, -4
1201:.\Generated_Source\PSoC5/ETH0.c **** 	return (ETH0_GetSocketStatus( socket ) == 0x17);
 1694              		.loc 1 1201 0
 1695 0002 FFF7FEFF 		bl	ETH0_GetSocketStatus
 1696              	.LVL182:
1202:.\Generated_Source\PSoC5/ETH0.c **** }
 1697              		.loc 1 1202 0
 1698 0006 B0F11703 		subs	r3, r0, #23
 1699 000a 5842     		rsbs	r0, r3, #0
 1700 000c 5841     		adcs	r0, r0, r3
 1701 000e 08BD     		pop	{r3, pc}
 1702              		.cfi_endproc
 1703              	.LFE84:
 1704              		.size	ETH0_SocketEstablished, .-ETH0_SocketEstablished
 1705              		.section	.text.ETH0_SocketRxDataWaiting,"ax",%progbits
 1706              		.align	1
 1707              		.global	ETH0_SocketRxDataWaiting
 1708              		.thumb
 1709              		.thumb_func
 1710              		.type	ETH0_SocketRxDataWaiting, %function
 1711              	ETH0_SocketRxDataWaiting:
 1712              	.LFB87:
1230:.\Generated_Source\PSoC5/ETH0.c **** /* ------------------------------------------------------------------------ */
1231:.\Generated_Source\PSoC5/ETH0.c **** /**
1232:.\Generated_Source\PSoC5/ETH0.c ****  * \brief Execute a SEND without an ARP.
1233:.\Generated_Source\PSoC5/ETH0.c ****  * \param socket the socket to which the SEND will be executed.
1234:.\Generated_Source\PSoC5/ETH0.c ****  */
1235:.\Generated_Source\PSoC5/ETH0.c **** static void
1236:.\Generated_Source\PSoC5/ETH0.c **** ETH0_SocketSendMac(uint8 socket )
1237:.\Generated_Source\PSoC5/ETH0.c **** {
1238:.\Generated_Source\PSoC5/ETH0.c **** 	uint8 ir;
1239:.\Generated_Source\PSoC5/ETH0.c **** 	
1240:.\Generated_Source\PSoC5/ETH0.c **** 	/* initialize the subnet mask register : ERRATA FIX */
1241:.\Generated_Source\PSoC5/ETH0.c **** 	ETH0_SetSubnetMask( ETH0_SubnetMask );
1242:.\Generated_Source\PSoC5/ETH0.c **** 	/* Issue the SEND command */
1243:.\Generated_Source\PSoC5/ETH0.c **** 	ETH0_ExecuteSocketCommand( socket, 0x21 );
1244:.\Generated_Source\PSoC5/ETH0.c **** 	/* wait for the SEND to complete, or for a timeout */
1245:.\Generated_Source\PSoC5/ETH0.c **** 	ir = ETH0_GetSocketIR( socket );
1246:.\Generated_Source\PSoC5/ETH0.c **** 	/* while SEND is not done, and the socket hasnot timed out or been dsconnected */
1247:.\Generated_Source\PSoC5/ETH0.c **** 	while ( ((ir & 0x10) == 0) && (!(ir&0x0A)) ) {
1248:.\Generated_Source\PSoC5/ETH0.c **** 		CyDelay(1);
1249:.\Generated_Source\PSoC5/ETH0.c **** 		ir = ETH0_GetSocketIR( socket );
1250:.\Generated_Source\PSoC5/ETH0.c **** 		
1251:.\Generated_Source\PSoC5/ETH0.c **** 	}
1252:.\Generated_Source\PSoC5/ETH0.c **** 	/* clear the SEND_OK flag from the register */
1253:.\Generated_Source\PSoC5/ETH0.c **** 	ETH0_SetSocketIR( socket, 0x10 );
1254:.\Generated_Source\PSoC5/ETH0.c **** 	/* reset the subnet mask : ERRATA FIX */
1255:.\Generated_Source\PSoC5/ETH0.c **** 	ETH0_SetSubnetMask( 0 );
1256:.\Generated_Source\PSoC5/ETH0.c **** }
1257:.\Generated_Source\PSoC5/ETH0.c **** /* ------------------------------------------------------------------------ */
ARM GAS  C:\Users\CHUCK~1.ERH\AppData\Local\Temp\ccby6rnL.s 			page 57


1258:.\Generated_Source\PSoC5/ETH0.c **** uint16
1259:.\Generated_Source\PSoC5/ETH0.c **** ETH0_SocketRxDataWaiting( uint8 socket )
1260:.\Generated_Source\PSoC5/ETH0.c **** {
 1713              		.loc 1 1260 0
 1714              		.cfi_startproc
 1715              		@ args = 0, pretend = 0, frame = 0
 1716              		@ frame_needed = 0, uses_anonymous_args = 0
 1717              		@ link register save eliminated.
 1718              	.LVL183:
1261:.\Generated_Source\PSoC5/ETH0.c **** 	return ETH0_GetRxSize( socket );
1262:.\Generated_Source\PSoC5/ETH0.c **** }
 1719              		.loc 1 1262 0
1261:.\Generated_Source\PSoC5/ETH0.c **** 	return ETH0_GetRxSize( socket );
 1720              		.loc 1 1261 0
 1721 0000 FFF7FEBF 		b	ETH0_GetRxSize
 1722              	.LVL184:
 1723              		.cfi_endproc
 1724              	.LFE87:
 1725              		.size	ETH0_SocketRxDataWaiting, .-ETH0_SocketRxDataWaiting
 1726              		.section	.text.ETH0_TcpOpen,"ax",%progbits
 1727              		.align	1
 1728              		.global	ETH0_TcpOpen
 1729              		.thumb
 1730              		.thumb_func
 1731              		.type	ETH0_TcpOpen, %function
 1732              	ETH0_TcpOpen:
 1733              	.LFB88:
1263:.\Generated_Source\PSoC5/ETH0.c **** #endif
1264:.\Generated_Source\PSoC5/ETH0.c **** /* ======================================================================== */
1265:.\Generated_Source\PSoC5/ETH0.c **** /* TCP/IP */
1266:.\Generated_Source\PSoC5/ETH0.c **** #if (1)
1267:.\Generated_Source\PSoC5/ETH0.c **** /* ------------------------------------------------------------------------ */
1268:.\Generated_Source\PSoC5/ETH0.c **** uint8
1269:.\Generated_Source\PSoC5/ETH0.c **** ETH0_TcpOpen(uint16 port)
1270:.\Generated_Source\PSoC5/ETH0.c **** {
 1734              		.loc 1 1270 0
 1735              		.cfi_startproc
 1736              		@ args = 0, pretend = 0, frame = 0
 1737              		@ frame_needed = 0, uses_anonymous_args = 0
 1738              		@ link register save eliminated.
 1739              	.LVL185:
 1740              		.loc 1 1270 0
 1741 0000 0146     		mov	r1, r0
1271:.\Generated_Source\PSoC5/ETH0.c **** 	return ETH0_SocketOpen(ETH0_PROTO_TCP, port, 0);
 1742              		.loc 1 1271 0
 1743 0002 0022     		movs	r2, #0
 1744 0004 0120     		movs	r0, #1
 1745              	.LVL186:
1272:.\Generated_Source\PSoC5/ETH0.c **** }
 1746              		.loc 1 1272 0
1271:.\Generated_Source\PSoC5/ETH0.c **** 	return ETH0_SocketOpen(ETH0_PROTO_TCP, port, 0);
 1747              		.loc 1 1271 0
 1748 0006 FFF7FEBF 		b	ETH0_SocketOpen
 1749              	.LVL187:
 1750              		.cfi_endproc
 1751              	.LFE88:
 1752              		.size	ETH0_TcpOpen, .-ETH0_TcpOpen
ARM GAS  C:\Users\CHUCK~1.ERH\AppData\Local\Temp\ccby6rnL.s 			page 58


 1753              		.section	.text.ETH0_TcpStartServer,"ax",%progbits
 1754              		.align	1
 1755              		.global	ETH0_TcpStartServer
 1756              		.thumb
 1757              		.thumb_func
 1758              		.type	ETH0_TcpStartServer, %function
 1759              	ETH0_TcpStartServer:
 1760              	.LFB89:
1273:.\Generated_Source\PSoC5/ETH0.c **** /* ------------------------------------------------------------------------ */
1274:.\Generated_Source\PSoC5/ETH0.c **** void
1275:.\Generated_Source\PSoC5/ETH0.c **** ETH0_TcpStartServer( uint8 socket )
1276:.\Generated_Source\PSoC5/ETH0.c **** {
 1761              		.loc 1 1276 0
 1762              		.cfi_startproc
 1763              		@ args = 0, pretend = 0, frame = 0
 1764              		@ frame_needed = 0, uses_anonymous_args = 0
 1765              		@ link register save eliminated.
 1766              	.LVL188:
1277:.\Generated_Source\PSoC5/ETH0.c **** 	/*
1278:.\Generated_Source\PSoC5/ETH0.c **** 	 * Start a open socket listening for a connection
1279:.\Generated_Source\PSoC5/ETH0.c **** 	 */
1280:.\Generated_Source\PSoC5/ETH0.c **** 	/* was this a valid socket? */
1281:.\Generated_Source\PSoC5/ETH0.c **** 	if (socket < 4) {
 1767              		.loc 1 1281 0
 1768 0000 0328     		cmp	r0, #3
 1769 0002 02D8     		bhi	.L111
1282:.\Generated_Source\PSoC5/ETH0.c **** 		/* Execute the listen command */
1283:.\Generated_Source\PSoC5/ETH0.c **** 		ETH0_ExecuteSocketCommand( socket, 0x02 );
 1770              		.loc 1 1283 0
 1771 0004 0221     		movs	r1, #2
1284:.\Generated_Source\PSoC5/ETH0.c **** 	}
1285:.\Generated_Source\PSoC5/ETH0.c **** }
 1772              		.loc 1 1285 0
1283:.\Generated_Source\PSoC5/ETH0.c **** 		ETH0_ExecuteSocketCommand( socket, 0x02 );
 1773              		.loc 1 1283 0
 1774 0006 FFF7FEBF 		b	ETH0_ExecuteSocketCommand
 1775              	.LVL189:
 1776              	.L111:
 1777 000a 7047     		bx	lr
 1778              		.cfi_endproc
 1779              	.LFE89:
 1780              		.size	ETH0_TcpStartServer, .-ETH0_TcpStartServer
 1781              		.section	.text.ETH0_TcpStartServerWait,"ax",%progbits
 1782              		.align	1
 1783              		.global	ETH0_TcpStartServerWait
 1784              		.thumb
 1785              		.thumb_func
 1786              		.type	ETH0_TcpStartServerWait, %function
 1787              	ETH0_TcpStartServerWait:
 1788              	.LFB90:
1286:.\Generated_Source\PSoC5/ETH0.c **** /* ------------------------------------------------------------------------ */
1287:.\Generated_Source\PSoC5/ETH0.c **** void
1288:.\Generated_Source\PSoC5/ETH0.c **** ETH0_TcpStartServerWait( uint8 socket )
1289:.\Generated_Source\PSoC5/ETH0.c **** {
 1789              		.loc 1 1289 0
 1790              		.cfi_startproc
 1791              		@ args = 0, pretend = 0, frame = 0
ARM GAS  C:\Users\CHUCK~1.ERH\AppData\Local\Temp\ccby6rnL.s 			page 59


 1792              		@ frame_needed = 0, uses_anonymous_args = 0
 1793              	.LVL190:
 1794 0000 10B5     		push	{r4, lr}
 1795              	.LCFI24:
 1796              		.cfi_def_cfa_offset 8
 1797              		.cfi_offset 4, -8
 1798              		.cfi_offset 14, -4
 1799              		.loc 1 1289 0
 1800 0002 0446     		mov	r4, r0
1290:.\Generated_Source\PSoC5/ETH0.c **** 	ETH0_TcpStartServer(socket);
 1801              		.loc 1 1290 0
 1802 0004 FFF7FEFF 		bl	ETH0_TcpStartServer
 1803              	.LVL191:
 1804              	.L114:
1291:.\Generated_Source\PSoC5/ETH0.c **** 	/* wait for socket establishment */
1292:.\Generated_Source\PSoC5/ETH0.c **** 	while ( !ETH0_SocketEstablished(socket) ) {
 1805              		.loc 1 1292 0 discriminator 1
 1806 0008 2046     		mov	r0, r4
 1807 000a FFF7FEFF 		bl	ETH0_SocketEstablished
 1808              	.LVL192:
 1809 000e 18B9     		cbnz	r0, .L116
 1810              	.L115:
1293:.\Generated_Source\PSoC5/ETH0.c **** 		CyDelay(1);
 1811              		.loc 1 1293 0
 1812 0010 0120     		movs	r0, #1
 1813 0012 FFF7FEFF 		bl	CyDelay
 1814              	.LVL193:
 1815 0016 F7E7     		b	.L114
 1816              	.L116:
1294:.\Generated_Source\PSoC5/ETH0.c **** 	}
1295:.\Generated_Source\PSoC5/ETH0.c **** }
 1817              		.loc 1 1295 0
 1818 0018 10BD     		pop	{r4, pc}
 1819              		.cfi_endproc
 1820              	.LFE90:
 1821              		.size	ETH0_TcpStartServerWait, .-ETH0_TcpStartServerWait
 1822              		.section	.text.ETH0_TcpConnect,"ax",%progbits
 1823              		.align	1
 1824              		.global	ETH0_TcpConnect
 1825              		.thumb
 1826              		.thumb_func
 1827              		.type	ETH0_TcpConnect, %function
 1828              	ETH0_TcpConnect:
 1829              	.LFB91:
1296:.\Generated_Source\PSoC5/ETH0.c **** /* ------------------------------------------------------------------------ */
1297:.\Generated_Source\PSoC5/ETH0.c **** void
1298:.\Generated_Source\PSoC5/ETH0.c **** ETH0_TcpConnect( uint8 socket, uint32 ip, uint16 port )
1299:.\Generated_Source\PSoC5/ETH0.c **** {
 1830              		.loc 1 1299 0
 1831              		.cfi_startproc
 1832              		@ args = 0, pretend = 0, frame = 0
 1833              		@ frame_needed = 0, uses_anonymous_args = 0
 1834              	.LVL194:
 1835 0000 F8B5     		push	{r3, r4, r5, r6, r7, lr}
 1836              	.LCFI25:
 1837              		.cfi_def_cfa_offset 24
 1838              		.cfi_offset 3, -24
ARM GAS  C:\Users\CHUCK~1.ERH\AppData\Local\Temp\ccby6rnL.s 			page 60


 1839              		.cfi_offset 4, -20
 1840              		.cfi_offset 5, -16
 1841              		.cfi_offset 6, -12
 1842              		.cfi_offset 7, -8
 1843              		.cfi_offset 14, -4
1300:.\Generated_Source\PSoC5/ETH0.c **** 	uint32 timeout;
1301:.\Generated_Source\PSoC5/ETH0.c **** 	uint8 ir;
1302:.\Generated_Source\PSoC5/ETH0.c **** 	
1303:.\Generated_Source\PSoC5/ETH0.c **** 	if ( (ip != 0xFFFFFFFF) && (ip != 0) ) {
 1844              		.loc 1 1303 0
 1845 0002 4B1E     		subs	r3, r1, #1
 1846 0004 0333     		adds	r3, r3, #3
1299:.\Generated_Source\PSoC5/ETH0.c **** {
 1847              		.loc 1 1299 0
 1848 0006 0646     		mov	r6, r0
 1849 0008 1746     		mov	r7, r2
 1850              		.loc 1 1303 0
 1851 000a 32D8     		bhi	.L117
 1852              	.LVL195:
 1853              	.LBB176:
 1854              	.LBB177:
 637:.\Generated_Source\PSoC5/ETH0.c **** { ETH0_W51_SetIP(ETH0_SOCKET_BASE(socket)+12,ip); }
 1855              		.loc 1 637 0
 1856 000c 0502     		lsls	r5, r0, #8
 1857 000e 05F20C40 		addw	r0, r5, #1036
 1858              	.LVL196:
 1859 0012 80B2     		uxth	r0, r0
 1860 0014 FFF7FEFF 		bl	ETH0_W51_SetIP
 1861              	.LVL197:
 1862              	.LBE177:
 1863              	.LBE176:
 1864              	.LBB178:
 1865              	.LBB179:
 653:.\Generated_Source\PSoC5/ETH0.c **** { ETH0_W51_Write16( ETH0_SOCKET_BASE(socket)+16, port); }
 1866              		.loc 1 653 0
 1867 0018 05F58261 		add	r1, r5, #1040
 1868 001c 88B2     		uxth	r0, r1
 1869 001e 3946     		mov	r1, r7
 1870 0020 FFF7FEFF 		bl	ETH0_W51_Write16
 1871              	.LVL198:
 1872              	.LBE179:
 1873              	.LBE178:
 1874              	.LBB180:
 1875              	.LBB181:
 396:.\Generated_Source\PSoC5/ETH0.c **** static void ETH0_SetSubnetMask( uint32 ip ) { ETH0_W51_SetIP(5, ip); }
 1876              		.loc 1 396 0
 1877 0024 134A     		ldr	r2, .L125
 1878 0026 0520     		movs	r0, #5
 1879 0028 1168     		ldr	r1, [r2, #0]
 1880 002a FFF7FEFF 		bl	ETH0_W51_SetIP
 1881              	.LVL199:
 1882              	.LBE181:
 1883              	.LBE180:
1304:.\Generated_Source\PSoC5/ETH0.c **** 		ETH0_SetSocketDestIP( socket, ip );
1305:.\Generated_Source\PSoC5/ETH0.c **** 		ETH0_SetSocketDestPort( socket, port );
1306:.\Generated_Source\PSoC5/ETH0.c **** 		/* set socket subnet mask */
1307:.\Generated_Source\PSoC5/ETH0.c **** 		ETH0_SetSubnetMask( ETH0_SubnetMask );
ARM GAS  C:\Users\CHUCK~1.ERH\AppData\Local\Temp\ccby6rnL.s 			page 61


1308:.\Generated_Source\PSoC5/ETH0.c **** 		ETH0_ExecuteSocketCommand( socket, 0x04);
 1884              		.loc 1 1308 0
 1885 002e 3046     		mov	r0, r6
 1886 0030 0421     		movs	r1, #4
 1887 0032 FFF7FEFF 		bl	ETH0_ExecuteSocketCommand
 1888              	.LVL200:
 1889              	.L124:
1309:.\Generated_Source\PSoC5/ETH0.c **** 		/* wait for the socket connection to the remote host is established */
1310:.\Generated_Source\PSoC5/ETH0.c **** 		while ( (!ETH0_SocketEstablished(socket))  && (timeout < 3000) ) {
 1890              		.loc 1 1310 0 discriminator 1
 1891 0036 3046     		mov	r0, r6
 1892 0038 FFF7FEFF 		bl	ETH0_SocketEstablished
 1893              	.LVL201:
 1894 003c 98B9     		cbnz	r0, .L121
 1895              		.loc 1 1310 0 is_stmt 0 discriminator 2
 1896 003e 40F6B837 		movw	r7, #3000
 1897 0042 BC42     		cmp	r4, r7
 1898 0044 0FD0     		beq	.L121
 1899              	.L122:
1311:.\Generated_Source\PSoC5/ETH0.c **** 			CyDelay(1);
 1900              		.loc 1 1311 0 is_stmt 1
 1901 0046 0120     		movs	r0, #1
 1902 0048 FFF7FEFF 		bl	CyDelay
 1903              	.LVL202:
 1904              	.LBB182:
 1905              	.LBB183:
 581:.\Generated_Source\PSoC5/ETH0.c **** { return ETH0_W51_Read(ETH0_SOCKET_BASE(socket)+2); }
 1906              		.loc 1 581 0
 1907 004c 05F20243 		addw	r3, r5, #1026
 1908 0050 98B2     		uxth	r0, r3
 1909 0052 FFF7FEFF 		bl	ETH0_W51_Read
 1910              	.LVL203:
 1911              	.LBE183:
 1912              	.LBE182:
1312:.\Generated_Source\PSoC5/ETH0.c **** 			++timeout;
1313:.\Generated_Source\PSoC5/ETH0.c **** 			ir = ETH0_GetSocketIR( socket );
1314:.\Generated_Source\PSoC5/ETH0.c **** 			if ( (ir & 0x08) != 0 ) {
 1913              		.loc 1 1314 0
 1914 0056 00F00800 		and	r0, r0, #8
 1915 005a C1B2     		uxtb	r1, r0
 1916 005c 09B9     		cbnz	r1, .L123
1312:.\Generated_Source\PSoC5/ETH0.c **** 			++timeout;
 1917              		.loc 1 1312 0
 1918 005e 0134     		adds	r4, r4, #1
 1919              	.LVL204:
 1920 0060 E9E7     		b	.L124
 1921              	.LVL205:
 1922              	.L123:
1315:.\Generated_Source\PSoC5/ETH0.c **** 				/* internal chip timeout occured */
1316:.\Generated_Source\PSoC5/ETH0.c **** 				timeout = 3000;
 1923              		.loc 1 1316 0
 1924 0062 3C46     		mov	r4, r7
 1925              	.LVL206:
 1926 0064 E7E7     		b	.L124
 1927              	.LVL207:
 1928              	.L121:
 1929              	.LBB184:
ARM GAS  C:\Users\CHUCK~1.ERH\AppData\Local\Temp\ccby6rnL.s 			page 62


 1930              	.LBB185:
 396:.\Generated_Source\PSoC5/ETH0.c **** static void ETH0_SetSubnetMask( uint32 ip ) { ETH0_W51_SetIP(5, ip); }
 1931              		.loc 1 396 0
 1932 0066 0520     		movs	r0, #5
 1933 0068 0021     		movs	r1, #0
 1934              	.LBE185:
 1935              	.LBE184:
1317:.\Generated_Source\PSoC5/ETH0.c **** 			}
1318:.\Generated_Source\PSoC5/ETH0.c **** 		}
1319:.\Generated_Source\PSoC5/ETH0.c **** 		/* clear the Subnet mask register */
1320:.\Generated_Source\PSoC5/ETH0.c **** 		ETH0_SetSubnetMask(0);
1321:.\Generated_Source\PSoC5/ETH0.c **** 	}
1322:.\Generated_Source\PSoC5/ETH0.c **** }
 1936              		.loc 1 1322 0
 1937 006a BDE8F840 		pop	{r3, r4, r5, r6, r7, lr}
 1938              	.LBB187:
 1939              	.LBB186:
 396:.\Generated_Source\PSoC5/ETH0.c **** static void ETH0_SetSubnetMask( uint32 ip ) { ETH0_W51_SetIP(5, ip); }
 1940              		.loc 1 396 0
 1941 006e FFF7FEBF 		b	ETH0_W51_SetIP
 1942              	.LVL208:
 1943              	.L117:
 1944 0072 F8BD     		pop	{r3, r4, r5, r6, r7, pc}
 1945              	.L126:
 1946              		.align	2
 1947              	.L125:
 1948 0074 00000000 		.word	.LANCHOR0
 1949              	.LBE186:
 1950              	.LBE187:
 1951              		.cfi_endproc
 1952              	.LFE91:
 1953              		.size	ETH0_TcpConnect, .-ETH0_TcpConnect
 1954              		.section	.text.ETH0_TcpConnected,"ax",%progbits
 1955              		.align	1
 1956              		.global	ETH0_TcpConnected
 1957              		.thumb
 1958              		.thumb_func
 1959              		.type	ETH0_TcpConnected, %function
 1960              	ETH0_TcpConnected:
 1961              	.LFB92:
1323:.\Generated_Source\PSoC5/ETH0.c **** /* ------------------------------------------------------------------------ */
1324:.\Generated_Source\PSoC5/ETH0.c **** uint8
1325:.\Generated_Source\PSoC5/ETH0.c **** ETH0_TcpConnected( uint8 socket )
1326:.\Generated_Source\PSoC5/ETH0.c **** { return ETH0_SocketEstablished(socket); }
 1962              		.loc 1 1326 0
 1963              		.cfi_startproc
 1964              		@ args = 0, pretend = 0, frame = 0
 1965              		@ frame_needed = 0, uses_anonymous_args = 0
 1966              		@ link register save eliminated.
 1967              	.LVL209:
 1968              		.loc 1 1326 0
 1969 0000 FFF7FEBF 		b	ETH0_SocketEstablished
 1970              	.LVL210:
 1971              		.cfi_endproc
 1972              	.LFE92:
 1973              		.size	ETH0_TcpConnected, .-ETH0_TcpConnected
 1974              		.section	.text.ETH0_TcpDisconnect,"ax",%progbits
ARM GAS  C:\Users\CHUCK~1.ERH\AppData\Local\Temp\ccby6rnL.s 			page 63


 1975              		.align	1
 1976              		.global	ETH0_TcpDisconnect
 1977              		.thumb
 1978              		.thumb_func
 1979              		.type	ETH0_TcpDisconnect, %function
 1980              	ETH0_TcpDisconnect:
 1981              	.LFB93:
1327:.\Generated_Source\PSoC5/ETH0.c **** /* ------------------------------------------------------------------------ */
1328:.\Generated_Source\PSoC5/ETH0.c **** void
1329:.\Generated_Source\PSoC5/ETH0.c **** ETH0_TcpDisconnect( uint8 socket )
1330:.\Generated_Source\PSoC5/ETH0.c **** {
 1982              		.loc 1 1330 0
 1983              		.cfi_startproc
 1984              		@ args = 0, pretend = 0, frame = 0
 1985              		@ frame_needed = 0, uses_anonymous_args = 0
 1986              		@ link register save eliminated.
 1987              	.LVL211:
1331:.\Generated_Source\PSoC5/ETH0.c **** 	ETH0_ExecuteSocketCommand(socket, 0x08);
 1988              		.loc 1 1331 0
 1989 0000 0821     		movs	r1, #8
1332:.\Generated_Source\PSoC5/ETH0.c **** }
 1990              		.loc 1 1332 0
1331:.\Generated_Source\PSoC5/ETH0.c **** 	ETH0_ExecuteSocketCommand(socket, 0x08);
 1991              		.loc 1 1331 0
 1992 0002 FFF7FEBF 		b	ETH0_ExecuteSocketCommand
 1993              	.LVL212:
 1994              		.cfi_endproc
 1995              	.LFE93:
 1996              		.size	ETH0_TcpDisconnect, .-ETH0_TcpDisconnect
 1997              		.section	.text.ETH0_TcpSend,"ax",%progbits
 1998              		.align	1
 1999              		.global	ETH0_TcpSend
 2000              		.thumb
 2001              		.thumb_func
 2002              		.type	ETH0_TcpSend, %function
 2003              	ETH0_TcpSend:
 2004              	.LFB94:
1333:.\Generated_Source\PSoC5/ETH0.c **** /* ------------------------------------------------------------------------ */
1334:.\Generated_Source\PSoC5/ETH0.c **** uint16
1335:.\Generated_Source\PSoC5/ETH0.c **** ETH0_TcpSend(uint8 socket, uint8* buffer, uint16 len)
1336:.\Generated_Source\PSoC5/ETH0.c **** {
 2005              		.loc 1 1336 0
 2006              		.cfi_startproc
 2007              		@ args = 0, pretend = 0, frame = 0
 2008              		@ frame_needed = 0, uses_anonymous_args = 0
 2009              	.LVL213:
 2010 0000 2DE9F843 		push	{r3, r4, r5, r6, r7, r8, r9, lr}
 2011              	.LCFI26:
 2012              		.cfi_def_cfa_offset 32
 2013              		.cfi_offset 3, -32
 2014              		.cfi_offset 4, -28
 2015              		.cfi_offset 5, -24
 2016              		.cfi_offset 6, -20
 2017              		.cfi_offset 7, -16
 2018              		.cfi_offset 8, -12
 2019              		.cfi_offset 9, -8
 2020              		.cfi_offset 14, -4
ARM GAS  C:\Users\CHUCK~1.ERH\AppData\Local\Temp\ccby6rnL.s 			page 64


 2021              		.loc 1 1336 0
 2022 0004 0546     		mov	r5, r0
 2023 0006 8946     		mov	r9, r1
 2024 0008 1446     		mov	r4, r2
 2025              	.LVL214:
1337:.\Generated_Source\PSoC5/ETH0.c **** 	uint16 TxSize;
1338:.\Generated_Source\PSoC5/ETH0.c **** 	uint16 FreeSpace;
1339:.\Generated_Source\PSoC5/ETH0.c **** 	uint8 status;
1340:.\Generated_Source\PSoC5/ETH0.c **** 	
1341:.\Generated_Source\PSoC5/ETH0.c **** 	TxSize =  (len > 0x0800) ? 0x0800 : len;
1342:.\Generated_Source\PSoC5/ETH0.c **** 	/* check the connection status, and protocol of the socket */
1343:.\Generated_Source\PSoC5/ETH0.c **** 	status = ETH0_GetSocketStatus(socket);
 2026              		.loc 1 1343 0
 2027 000a FFF7FEFF 		bl	ETH0_GetSocketStatus
 2028              	.LVL215:
1344:.\Generated_Source\PSoC5/ETH0.c **** 	if ( ( status == 0x17) && (ETH0_SocketConfig[socket].Protocol == ETH0_PROTO_TCP) ) {
 2029              		.loc 1 1344 0
 2030 000e 1728     		cmp	r0, #23
 2031 0010 2DD1     		bne	.L136
 2032              		.loc 1 1344 0 is_stmt 0 discriminator 1
 2033 0012 194B     		ldr	r3, .L142
 2034 0014 0622     		movs	r2, #6
 2035 0016 02FB0531 		mla	r1, r2, r5, r3
 2036 001a 0A79     		ldrb	r2, [r1, #4]	@ zero_extendqisi2
 2037 001c 012A     		cmp	r2, #1
 2038 001e 26D1     		bne	.L136
 2039              	.LBB194:
 2040              	.LBB195:
 2041              	.LBB196:
 2042              	.LBB197:
 733:.\Generated_Source\PSoC5/ETH0.c **** { return ETH0_W51_Read16(ETH0_SOCKET_BASE(socket)+0x20); }
 2043              		.loc 1 733 0 is_stmt 1
 2044 0020 2F02     		lsls	r7, r5, #8
 2045 0022 07F58466 		add	r6, r7, #1056
 2046 0026 B7B2     		uxth	r7, r6
 2047              	.LBE197:
 2048              	.LBE196:
 2049              	.LBE195:
 2050              	.LBE194:
1341:.\Generated_Source\PSoC5/ETH0.c **** 	TxSize =  (len > 0x0800) ? 0x0800 : len;
 2051              		.loc 1 1341 0
 2052 0028 B4F5006F 		cmp	r4, #2048
 2053 002c 28BF     		it	cs
 2054 002e 4FF40064 		movcs	r4, #2048
 2055              	.LVL216:
 2056              	.LBB206:
 2057              	.LBB204:
 2058              	.LBB200:
 2059              	.LBB198:
 733:.\Generated_Source\PSoC5/ETH0.c **** { return ETH0_W51_Read16(ETH0_SOCKET_BASE(socket)+0x20); }
 2060              		.loc 1 733 0
 2061 0032 0026     		movs	r6, #0
 2062              	.LVL217:
 2063              	.L131:
 2064              	.LBE198:
 2065              	.LBE200:
 2066              	.LBE204:
ARM GAS  C:\Users\CHUCK~1.ERH\AppData\Local\Temp\ccby6rnL.s 			page 65


 2067              	.LBE206:
1345:.\Generated_Source\PSoC5/ETH0.c **** 		/* 
1346:.\Generated_Source\PSoC5/ETH0.c **** 		 * The socket was open with the correct protocol and is connected to
1347:.\Generated_Source\PSoC5/ETH0.c **** 		 * a valid remote system. In order to send the requested packet data,
1348:.\Generated_Source\PSoC5/ETH0.c **** 		 * first, we must wait for the available buffer memory to be free
1349:.\Generated_Source\PSoC5/ETH0.c **** 		 * in the transmit buffer fifo.
1350:.\Generated_Source\PSoC5/ETH0.c **** 		 */
1351:.\Generated_Source\PSoC5/ETH0.c **** 		FreeSpace = 0;
1352:.\Generated_Source\PSoC5/ETH0.c **** 		status = 0x17;
1353:.\Generated_Source\PSoC5/ETH0.c **** 		while ( (FreeSpace < TxSize) && ( (status == 0x17) && (status != 0x1C) ) ) {
 2068              		.loc 1 1353 0 discriminator 1
 2069 0034 A642     		cmp	r6, r4
 2070 0036 11D2     		bcs	.L134
 2071              		.loc 1 1353 0 is_stmt 0 discriminator 2
 2072 0038 1728     		cmp	r0, #23
 2073 003a 0FD1     		bne	.L134
 2074              	.L137:
 2075              		.loc 1 1353 0
 2076 003c 0026     		movs	r6, #0
 2077              	.LVL218:
 2078              	.L133:
 2079              	.LBB207:
 2080              	.LBB205:
 2081              	.LBB201:
 2082              	.LBB199:
 733:.\Generated_Source\PSoC5/ETH0.c **** { return ETH0_W51_Read16(ETH0_SOCKET_BASE(socket)+0x20); }
 2083              		.loc 1 733 0 is_stmt 1
 2084 003e 3846     		mov	r0, r7
 2085 0040 FFF7FEFF 		bl	ETH0_W51_Read16
 2086              	.LVL219:
 2087              	.LBE199:
 2088              	.LBE201:
 823:.\Generated_Source\PSoC5/ETH0.c **** 		if (first != 0) {
 2089              		.loc 1 823 0
 2090 0044 8046     		mov	r8, r0
 2091 0046 18B1     		cbz	r0, .L132
 2092              	.LBB202:
 2093              	.LBB203:
 733:.\Generated_Source\PSoC5/ETH0.c **** { return ETH0_W51_Read16(ETH0_SOCKET_BASE(socket)+0x20); }
 2094              		.loc 1 733 0
 2095 0048 3846     		mov	r0, r7
 2096 004a FFF7FEFF 		bl	ETH0_W51_Read16
 2097              	.LVL220:
 2098 004e 0646     		mov	r6, r0
 2099              	.LVL221:
 2100              	.L132:
 2101              	.LBE203:
 2102              	.LBE202:
 827:.\Generated_Source\PSoC5/ETH0.c **** 	while (first != second );
 2103              		.loc 1 827 0
 2104 0050 B045     		cmp	r8, r6
 2105 0052 F4D1     		bne	.L133
 2106              	.LBE205:
 2107              	.LBE207:
1354:.\Generated_Source\PSoC5/ETH0.c **** 			FreeSpace = ETH0_GetTxFreeSize( socket );
1355:.\Generated_Source\PSoC5/ETH0.c **** 			status = ETH0_GetSocketStatus( socket );
 2108              		.loc 1 1355 0
ARM GAS  C:\Users\CHUCK~1.ERH\AppData\Local\Temp\ccby6rnL.s 			page 66


 2109 0054 2846     		mov	r0, r5
 2110 0056 FFF7FEFF 		bl	ETH0_GetSocketStatus
 2111              	.LVL222:
 2112 005a EBE7     		b	.L131
 2113              	.LVL223:
 2114              	.L134:
1356:.\Generated_Source\PSoC5/ETH0.c **** 		}
1357:.\Generated_Source\PSoC5/ETH0.c **** 		/*
1358:.\Generated_Source\PSoC5/ETH0.c **** 		 * Write the data buffer to the chip Tx Buffer, then issue
1359:.\Generated_Source\PSoC5/ETH0.c **** 		 * the chip SEND command
1360:.\Generated_Source\PSoC5/ETH0.c **** 		 */
1361:.\Generated_Source\PSoC5/ETH0.c **** 		ETH0_ProcessTxData(socket, 0, buffer, TxSize);
 2115              		.loc 1 1361 0
 2116 005c 2846     		mov	r0, r5
 2117              	.LVL224:
 2118 005e 4946     		mov	r1, r9
 2119 0060 2246     		mov	r2, r4
 2120 0062 FFF7FEFF 		bl	ETH0_ProcessTxData.constprop.2
 2121              	.LVL225:
1362:.\Generated_Source\PSoC5/ETH0.c **** 		ETH0_SocketSend( socket );
 2122              		.loc 1 1362 0
 2123 0066 2846     		mov	r0, r5
 2124 0068 FFF7FEFF 		bl	ETH0_SocketSend
 2125              	.LVL226:
 2126 006c 00E0     		b	.L130
 2127              	.LVL227:
 2128              	.L136:
1363:.\Generated_Source\PSoC5/ETH0.c **** 	}
1364:.\Generated_Source\PSoC5/ETH0.c **** 	else {
1365:.\Generated_Source\PSoC5/ETH0.c **** 		/*
1366:.\Generated_Source\PSoC5/ETH0.c **** 		 * the socket was not establised, or there was an error, so clear
1367:.\Generated_Source\PSoC5/ETH0.c **** 		 * the TxSize to signal that no data has bee sent
1368:.\Generated_Source\PSoC5/ETH0.c **** 		 */
1369:.\Generated_Source\PSoC5/ETH0.c **** 		TxSize = 0;
 2129              		.loc 1 1369 0
 2130 006e 0024     		movs	r4, #0
 2131              	.LVL228:
 2132              	.L130:
1370:.\Generated_Source\PSoC5/ETH0.c **** 	}
1371:.\Generated_Source\PSoC5/ETH0.c **** 	return TxSize;
1372:.\Generated_Source\PSoC5/ETH0.c **** }
 2133              		.loc 1 1372 0
 2134 0070 2046     		mov	r0, r4
 2135 0072 BDE8F883 		pop	{r3, r4, r5, r6, r7, r8, r9, pc}
 2136              	.L143:
 2137 0076 00BF     		.align	2
 2138              	.L142:
 2139 0078 00000000 		.word	.LANCHOR0
 2140              		.cfi_endproc
 2141              	.LFE94:
 2142              		.size	ETH0_TcpSend, .-ETH0_TcpSend
 2143              		.section	.text.ETH0_TcpReceive,"ax",%progbits
 2144              		.align	1
 2145              		.global	ETH0_TcpReceive
 2146              		.thumb
 2147              		.thumb_func
 2148              		.type	ETH0_TcpReceive, %function
ARM GAS  C:\Users\CHUCK~1.ERH\AppData\Local\Temp\ccby6rnL.s 			page 67


 2149              	ETH0_TcpReceive:
 2150              	.LFB95:
1373:.\Generated_Source\PSoC5/ETH0.c **** /* ------------------------------------------------------------------------ */
1374:.\Generated_Source\PSoC5/ETH0.c **** uint16
1375:.\Generated_Source\PSoC5/ETH0.c **** ETH0_TcpReceive( uint8 socket, uint8* buffer, uint16 length )
1376:.\Generated_Source\PSoC5/ETH0.c **** {
 2151              		.loc 1 1376 0
 2152              		.cfi_startproc
 2153              		@ args = 0, pretend = 0, frame = 0
 2154              		@ frame_needed = 0, uses_anonymous_args = 0
 2155              	.LVL229:
 2156 0000 70B5     		push	{r4, r5, r6, lr}
 2157              	.LCFI27:
 2158              		.cfi_def_cfa_offset 16
 2159              		.cfi_offset 4, -16
 2160              		.cfi_offset 5, -12
 2161              		.cfi_offset 6, -8
 2162              		.cfi_offset 14, -4
 2163              		.loc 1 1376 0
 2164 0002 0546     		mov	r5, r0
 2165 0004 0E46     		mov	r6, r1
 2166 0006 1446     		mov	r4, r2
1377:.\Generated_Source\PSoC5/ETH0.c **** 	uint16 RxSize;
1378:.\Generated_Source\PSoC5/ETH0.c **** 	
1379:.\Generated_Source\PSoC5/ETH0.c **** 	/*
1380:.\Generated_Source\PSoC5/ETH0.c **** 	 * First thing to do is to check to see if the socket is connected
1381:.\Generated_Source\PSoC5/ETH0.c **** 	 * and that there is data waiting
1382:.\Generated_Source\PSoC5/ETH0.c **** 	 */
1383:.\Generated_Source\PSoC5/ETH0.c **** 	RxSize = 0;
1384:.\Generated_Source\PSoC5/ETH0.c **** 	if (ETH0_GetSocketStatus( socket ) == 0x17) {
 2167              		.loc 1 1384 0
 2168 0008 FFF7FEFF 		bl	ETH0_GetSocketStatus
 2169              	.LVL230:
 2170 000c 1728     		cmp	r0, #23
 2171 000e 01D0     		beq	.L145
 2172              	.LVL231:
 2173              	.L147:
1383:.\Generated_Source\PSoC5/ETH0.c **** 	RxSize = 0;
 2174              		.loc 1 1383 0
 2175 0010 0024     		movs	r4, #0
 2176 0012 12E0     		b	.L146
 2177              	.LVL232:
 2178              	.L145:
1385:.\Generated_Source\PSoC5/ETH0.c **** 		/*
1386:.\Generated_Source\PSoC5/ETH0.c **** 		 * read the number of waiting bytes in the buffer memory
1387:.\Generated_Source\PSoC5/ETH0.c **** 		 * but, clip the length of data read to the requested
1388:.\Generated_Source\PSoC5/ETH0.c **** 		 * length of data.
1389:.\Generated_Source\PSoC5/ETH0.c **** 		 */
1390:.\Generated_Source\PSoC5/ETH0.c **** 		RxSize = ETH0_GetRxSize( socket );
 2179              		.loc 1 1390 0
 2180 0014 2846     		mov	r0, r5
 2181 0016 FFF7FEFF 		bl	ETH0_GetRxSize
 2182              	.LVL233:
1391:.\Generated_Source\PSoC5/ETH0.c **** 		RxSize = (RxSize > length) ? length : RxSize;
 2183              		.loc 1 1391 0
 2184 001a A042     		cmp	r0, r4
 2185 001c 28BF     		it	cs
ARM GAS  C:\Users\CHUCK~1.ERH\AppData\Local\Temp\ccby6rnL.s 			page 68


 2186 001e 2046     		movcs	r0, r4
 2187              	.LVL234:
 2188 0020 84B2     		uxth	r4, r0
 2189              	.LVL235:
1392:.\Generated_Source\PSoC5/ETH0.c **** 		/* If there was waiting data, read it from the buffer */
1393:.\Generated_Source\PSoC5/ETH0.c **** 		if (RxSize > 0) {
 2190              		.loc 1 1393 0
 2191 0022 002C     		cmp	r4, #0
 2192 0024 F4D0     		beq	.L147
1394:.\Generated_Source\PSoC5/ETH0.c **** 			ETH0_ProcessRxData( socket, 0, buffer, RxSize, 0);
 2193              		.loc 1 1394 0
 2194 0026 2846     		mov	r0, r5
 2195              	.LVL236:
 2196 0028 0021     		movs	r1, #0
 2197 002a 3246     		mov	r2, r6
 2198 002c 2346     		mov	r3, r4
 2199 002e FFF7FEFF 		bl	ETH0_ProcessRxData.constprop.1
 2200              	.LVL237:
1395:.\Generated_Source\PSoC5/ETH0.c **** 			/* 
1396:.\Generated_Source\PSoC5/ETH0.c **** 			 * after reading the buffer data, send the receive command
1397:.\Generated_Source\PSoC5/ETH0.c **** 			 * to the socket so that the W5100 completes the read
1398:.\Generated_Source\PSoC5/ETH0.c **** 			 */
1399:.\Generated_Source\PSoC5/ETH0.c **** 			ETH0_ExecuteSocketCommand(socket, 0x40);
 2201              		.loc 1 1399 0
 2202 0032 2846     		mov	r0, r5
 2203 0034 4021     		movs	r1, #64
 2204 0036 FFF7FEFF 		bl	ETH0_ExecuteSocketCommand
 2205              	.LVL238:
 2206              	.L146:
1400:.\Generated_Source\PSoC5/ETH0.c **** 		}
1401:.\Generated_Source\PSoC5/ETH0.c **** 	}
1402:.\Generated_Source\PSoC5/ETH0.c **** 	
1403:.\Generated_Source\PSoC5/ETH0.c **** 	/* return the number of read bytes from the buffer memory */
1404:.\Generated_Source\PSoC5/ETH0.c **** 	return RxSize;
1405:.\Generated_Source\PSoC5/ETH0.c **** }
 2207              		.loc 1 1405 0
 2208 003a 2046     		mov	r0, r4
 2209 003c 70BD     		pop	{r4, r5, r6, pc}
 2210              		.cfi_endproc
 2211              	.LFE95:
 2212              		.size	ETH0_TcpReceive, .-ETH0_TcpReceive
 2213              		.section	.text.ETH0_TcpPrint,"ax",%progbits
 2214              		.align	1
 2215              		.global	ETH0_TcpPrint
 2216              		.thumb
 2217              		.thumb_func
 2218              		.type	ETH0_TcpPrint, %function
 2219              	ETH0_TcpPrint:
 2220              	.LFB96:
1406:.\Generated_Source\PSoC5/ETH0.c **** /* ------------------------------------------------------------------------ */
1407:.\Generated_Source\PSoC5/ETH0.c **** void
1408:.\Generated_Source\PSoC5/ETH0.c **** ETH0_TcpPrint( uint8 socket, const char* str )
1409:.\Generated_Source\PSoC5/ETH0.c **** {
 2221              		.loc 1 1409 0
 2222              		.cfi_startproc
 2223              		@ args = 0, pretend = 0, frame = 0
 2224              		@ frame_needed = 0, uses_anonymous_args = 0
ARM GAS  C:\Users\CHUCK~1.ERH\AppData\Local\Temp\ccby6rnL.s 			page 69


 2225              	.LVL239:
 2226 0000 38B5     		push	{r3, r4, r5, lr}
 2227              	.LCFI28:
 2228              		.cfi_def_cfa_offset 16
 2229              		.cfi_offset 3, -16
 2230              		.cfi_offset 4, -12
 2231              		.cfi_offset 5, -8
 2232              		.cfi_offset 14, -4
 2233              		.loc 1 1409 0
 2234 0002 0546     		mov	r5, r0
1410:.\Generated_Source\PSoC5/ETH0.c **** 	ETH0_TcpSend(socket, (uint8*)str, strlen(str));
 2235              		.loc 1 1410 0
 2236 0004 0846     		mov	r0, r1
 2237              	.LVL240:
1409:.\Generated_Source\PSoC5/ETH0.c **** {
 2238              		.loc 1 1409 0
 2239 0006 0C46     		mov	r4, r1
 2240              		.loc 1 1410 0
 2241 0008 FFF7FEFF 		bl	strlen
 2242              	.LVL241:
 2243 000c 2146     		mov	r1, r4
 2244 000e 82B2     		uxth	r2, r0
 2245 0010 2846     		mov	r0, r5
1411:.\Generated_Source\PSoC5/ETH0.c **** }
 2246              		.loc 1 1411 0
 2247 0012 BDE83840 		pop	{r3, r4, r5, lr}
1410:.\Generated_Source\PSoC5/ETH0.c **** 	ETH0_TcpSend(socket, (uint8*)str, strlen(str));
 2248              		.loc 1 1410 0
 2249 0016 FFF7FEBF 		b	ETH0_TcpSend
 2250              	.LVL242:
 2251              		.cfi_endproc
 2252              	.LFE96:
 2253              		.size	ETH0_TcpPrint, .-ETH0_TcpPrint
 2254              		.section	.text.ETH0_UdpOpen,"ax",%progbits
 2255              		.align	1
 2256              		.global	ETH0_UdpOpen
 2257              		.thumb
 2258              		.thumb_func
 2259              		.type	ETH0_UdpOpen, %function
 2260              	ETH0_UdpOpen:
 2261              	.LFB97:
1412:.\Generated_Source\PSoC5/ETH0.c **** #endif
1413:.\Generated_Source\PSoC5/ETH0.c **** /* ======================================================================== */
1414:.\Generated_Source\PSoC5/ETH0.c **** /* UDP */
1415:.\Generated_Source\PSoC5/ETH0.c **** #if (1)
1416:.\Generated_Source\PSoC5/ETH0.c **** /* ------------------------------------------------------------------------ */
1417:.\Generated_Source\PSoC5/ETH0.c **** uint8
1418:.\Generated_Source\PSoC5/ETH0.c **** ETH0_UdpOpen(uint16 port)
1419:.\Generated_Source\PSoC5/ETH0.c **** {
 2262              		.loc 1 1419 0
 2263              		.cfi_startproc
 2264              		@ args = 0, pretend = 0, frame = 0
 2265              		@ frame_needed = 0, uses_anonymous_args = 0
 2266              		@ link register save eliminated.
 2267              	.LVL243:
 2268              		.loc 1 1419 0
 2269 0000 0146     		mov	r1, r0
ARM GAS  C:\Users\CHUCK~1.ERH\AppData\Local\Temp\ccby6rnL.s 			page 70


1420:.\Generated_Source\PSoC5/ETH0.c **** 	return ETH0_SocketOpen(ETH0_PROTO_UDP, port, 0);
 2270              		.loc 1 1420 0
 2271 0002 0022     		movs	r2, #0
 2272 0004 0220     		movs	r0, #2
 2273              	.LVL244:
1421:.\Generated_Source\PSoC5/ETH0.c **** }
 2274              		.loc 1 1421 0
1420:.\Generated_Source\PSoC5/ETH0.c **** 	return ETH0_SocketOpen(ETH0_PROTO_UDP, port, 0);
 2275              		.loc 1 1420 0
 2276 0006 FFF7FEBF 		b	ETH0_SocketOpen
 2277              	.LVL245:
 2278              		.cfi_endproc
 2279              	.LFE97:
 2280              		.size	ETH0_UdpOpen, .-ETH0_UdpOpen
 2281              		.section	.text.ETH0_UdpSend,"ax",%progbits
 2282              		.align	1
 2283              		.global	ETH0_UdpSend
 2284              		.thumb
 2285              		.thumb_func
 2286              		.type	ETH0_UdpSend, %function
 2287              	ETH0_UdpSend:
 2288              	.LFB98:
1422:.\Generated_Source\PSoC5/ETH0.c **** /* ------------------------------------------------------------------------ */	
1423:.\Generated_Source\PSoC5/ETH0.c **** uint16
1424:.\Generated_Source\PSoC5/ETH0.c **** ETH0_UdpSend(uint8 socket, uint32 ip, uint16 port, uint8* buffer, uint16 length)
1425:.\Generated_Source\PSoC5/ETH0.c **** {
 2289              		.loc 1 1425 0
 2290              		.cfi_startproc
 2291              		@ args = 4, pretend = 0, frame = 0
 2292              		@ frame_needed = 0, uses_anonymous_args = 0
 2293              	.LVL246:
 2294 0000 2DE9F843 		push	{r3, r4, r5, r6, r7, r8, r9, lr}
 2295              	.LCFI29:
 2296              		.cfi_def_cfa_offset 32
 2297              		.cfi_offset 3, -32
 2298              		.cfi_offset 4, -28
 2299              		.cfi_offset 5, -24
 2300              		.cfi_offset 6, -20
 2301              		.cfi_offset 7, -16
 2302              		.cfi_offset 8, -12
 2303              		.cfi_offset 9, -8
 2304              		.cfi_offset 14, -4
 2305              		.loc 1 1425 0
 2306 0004 0546     		mov	r5, r0
 2307 0006 0E46     		mov	r6, r1
 2308 0008 9146     		mov	r9, r2
 2309 000a 9846     		mov	r8, r3
1426:.\Generated_Source\PSoC5/ETH0.c **** 	uint16 TxSize;
1427:.\Generated_Source\PSoC5/ETH0.c **** 	
1428:.\Generated_Source\PSoC5/ETH0.c **** 	/*
1429:.\Generated_Source\PSoC5/ETH0.c **** 	 * Transmit a buffer of data to a specified remote system using UDP.
1430:.\Generated_Source\PSoC5/ETH0.c **** 	 */
1431:.\Generated_Source\PSoC5/ETH0.c **** 	if (ETH0_GetSocketStatus(socket) == 0x17) {
 2310              		.loc 1 1431 0
 2311 000c FFF7FEFF 		bl	ETH0_GetSocketStatus
 2312              	.LVL247:
 2313 0010 1728     		cmp	r0, #23
ARM GAS  C:\Users\CHUCK~1.ERH\AppData\Local\Temp\ccby6rnL.s 			page 71


 2314 0012 20D1     		bne	.L154
 2315              	.LVL248:
1432:.\Generated_Source\PSoC5/ETH0.c **** 		/*
1433:.\Generated_Source\PSoC5/ETH0.c **** 		 * The socket has been established, so wait for available
1434:.\Generated_Source\PSoC5/ETH0.c **** 		 * room in the transmit buffer of the socket, but, trim the
1435:.\Generated_Source\PSoC5/ETH0.c **** 		 * transmitted data length to no more than the available
1436:.\Generated_Source\PSoC5/ETH0.c **** 		 * buffer size in the device. (2K)
1437:.\Generated_Source\PSoC5/ETH0.c **** 		 */
1438:.\Generated_Source\PSoC5/ETH0.c **** 		TxSize = (length > 0x0800) ? 0x0800 : length;
1439:.\Generated_Source\PSoC5/ETH0.c **** 		if ( (ip != 0) && (ip != 0xFFFFFFFF) ) {
 2316              		.loc 1 1439 0
 2317 0014 731E     		subs	r3, r6, #1
 2318 0016 0333     		adds	r3, r3, #3
 2319 0018 1CD8     		bhi	.L155
 2320              	.LBB212:
 2321              	.LBB213:
 637:.\Generated_Source\PSoC5/ETH0.c **** { ETH0_W51_SetIP(ETH0_SOCKET_BASE(socket)+12,ip); }
 2322              		.loc 1 637 0
 2323 001a 2F02     		lsls	r7, r5, #8
 2324              	.LBE213:
 2325              	.LBE212:
1438:.\Generated_Source\PSoC5/ETH0.c **** 		TxSize = (length > 0x0800) ? 0x0800 : length;
 2326              		.loc 1 1438 0
 2327 001c BDF82040 		ldrh	r4, [sp, #32]
 2328              	.LBB216:
 2329              	.LBB214:
 637:.\Generated_Source\PSoC5/ETH0.c **** { ETH0_W51_SetIP(ETH0_SOCKET_BASE(socket)+12,ip); }
 2330              		.loc 1 637 0
 2331 0020 07F20C40 		addw	r0, r7, #1036
 2332 0024 3146     		mov	r1, r6
 2333 0026 80B2     		uxth	r0, r0
 2334              	.LBE214:
 2335              	.LBE216:
 2336              	.LBB217:
 2337              	.LBB218:
 653:.\Generated_Source\PSoC5/ETH0.c **** { ETH0_W51_Write16( ETH0_SOCKET_BASE(socket)+16, port); }
 2338              		.loc 1 653 0
 2339 0028 07F58267 		add	r7, r7, #1040
 2340              	.LBE218:
 2341              	.LBE217:
 2342              	.LBB220:
 2343              	.LBB215:
 637:.\Generated_Source\PSoC5/ETH0.c **** { ETH0_W51_SetIP(ETH0_SOCKET_BASE(socket)+12,ip); }
 2344              		.loc 1 637 0
 2345 002c FFF7FEFF 		bl	ETH0_W51_SetIP
 2346              	.LVL249:
 2347              	.LBE215:
 2348              	.LBE220:
1438:.\Generated_Source\PSoC5/ETH0.c **** 		TxSize = (length > 0x0800) ? 0x0800 : length;
 2349              		.loc 1 1438 0
 2350 0030 B4F5006F 		cmp	r4, #2048
 2351 0034 28BF     		it	cs
 2352 0036 4FF40064 		movcs	r4, #2048
 2353              	.LVL250:
 2354              	.LBB221:
 2355              	.LBB219:
 653:.\Generated_Source\PSoC5/ETH0.c **** { ETH0_W51_Write16( ETH0_SOCKET_BASE(socket)+16, port); }
ARM GAS  C:\Users\CHUCK~1.ERH\AppData\Local\Temp\ccby6rnL.s 			page 72


 2356              		.loc 1 653 0
 2357 003a B8B2     		uxth	r0, r7
 2358 003c 4946     		mov	r1, r9
 2359 003e FFF7FEFF 		bl	ETH0_W51_Write16
 2360              	.LVL251:
 2361              	.LBE219:
 2362              	.LBE221:
1440:.\Generated_Source\PSoC5/ETH0.c **** 			/*
1441:.\Generated_Source\PSoC5/ETH0.c **** 			 * Store the destination IP and port in the chip
1442:.\Generated_Source\PSoC5/ETH0.c **** 			 * socket registers.
1443:.\Generated_Source\PSoC5/ETH0.c **** 			 */
1444:.\Generated_Source\PSoC5/ETH0.c **** 			ETH0_SetSocketDestIP( socket, ip );
1445:.\Generated_Source\PSoC5/ETH0.c **** 			ETH0_SetSocketDestPort( socket, port );
1446:.\Generated_Source\PSoC5/ETH0.c **** 			/*
1447:.\Generated_Source\PSoC5/ETH0.c **** 			 * process the transmission buffer, and write it in to
1448:.\Generated_Source\PSoC5/ETH0.c **** 			 * the chip buffer memory.
1449:.\Generated_Source\PSoC5/ETH0.c **** 			 */
1450:.\Generated_Source\PSoC5/ETH0.c **** 			ETH0_ProcessTxData(socket,0,buffer,TxSize);
 2363              		.loc 1 1450 0
 2364 0042 2846     		mov	r0, r5
 2365 0044 4146     		mov	r1, r8
 2366 0046 2246     		mov	r2, r4
 2367 0048 FFF7FEFF 		bl	ETH0_ProcessTxData.constprop.2
 2368              	.LVL252:
1451:.\Generated_Source\PSoC5/ETH0.c **** 			/*
1452:.\Generated_Source\PSoC5/ETH0.c **** 			 * Issue the send command to transmit the buffer.
1453:.\Generated_Source\PSoC5/ETH0.c **** 			 */
1454:.\Generated_Source\PSoC5/ETH0.c **** 			ETH0_SocketSend( socket ); 
 2369              		.loc 1 1454 0
 2370 004c 2846     		mov	r0, r5
 2371 004e FFF7FEFF 		bl	ETH0_SocketSend
 2372              	.LVL253:
 2373 0052 00E0     		b	.L154
 2374              	.LVL254:
 2375              	.L155:
1455:.\Generated_Source\PSoC5/ETH0.c **** 		}
1456:.\Generated_Source\PSoC5/ETH0.c **** 		else {
1457:.\Generated_Source\PSoC5/ETH0.c **** 			/* an invalid IP address was issued, so return that no data was sent. */
1458:.\Generated_Source\PSoC5/ETH0.c **** 			TxSize = 0;
 2376              		.loc 1 1458 0
 2377 0054 0024     		movs	r4, #0
 2378              	.LVL255:
 2379              	.L154:
1459:.\Generated_Source\PSoC5/ETH0.c **** 		}
1460:.\Generated_Source\PSoC5/ETH0.c **** 	}
1461:.\Generated_Source\PSoC5/ETH0.c **** 	return TxSize;
1462:.\Generated_Source\PSoC5/ETH0.c **** }
 2380              		.loc 1 1462 0
 2381 0056 2046     		mov	r0, r4
 2382 0058 BDE8F883 		pop	{r3, r4, r5, r6, r7, r8, r9, pc}
 2383              		.cfi_endproc
 2384              	.LFE98:
 2385              		.size	ETH0_UdpSend, .-ETH0_UdpSend
 2386              		.section	.text.ETH0_UdpReceive,"ax",%progbits
 2387              		.align	1
 2388              		.global	ETH0_UdpReceive
 2389              		.thumb
ARM GAS  C:\Users\CHUCK~1.ERH\AppData\Local\Temp\ccby6rnL.s 			page 73


 2390              		.thumb_func
 2391              		.type	ETH0_UdpReceive, %function
 2392              	ETH0_UdpReceive:
 2393              	.LFB99:
1463:.\Generated_Source\PSoC5/ETH0.c **** /* ------------------------------------------------------------------------ */
1464:.\Generated_Source\PSoC5/ETH0.c **** uint16
1465:.\Generated_Source\PSoC5/ETH0.c **** ETH0_UdpReceive(uint8 socket, uint32 *ip, uint16 *port, uint8* buffer, uint16 length)
1466:.\Generated_Source\PSoC5/ETH0.c **** {
 2394              		.loc 1 1466 0
 2395              		.cfi_startproc
 2396              		@ args = 4, pretend = 0, frame = 8
 2397              		@ frame_needed = 0, uses_anonymous_args = 0
 2398              	.LVL256:
 2399 0000 2DE9F743 		push	{r0, r1, r2, r4, r5, r6, r7, r8, r9, lr}
 2400              	.LCFI30:
 2401              		.cfi_def_cfa_offset 40
 2402              		.cfi_offset 0, -40
 2403              		.cfi_offset 1, -36
 2404              		.cfi_offset 2, -32
 2405              		.cfi_offset 4, -28
 2406              		.cfi_offset 5, -24
 2407              		.cfi_offset 6, -20
 2408              		.cfi_offset 7, -16
 2409              		.cfi_offset 8, -12
 2410              		.cfi_offset 9, -8
 2411              		.cfi_offset 14, -4
 2412              		.loc 1 1466 0
 2413 0004 0446     		mov	r4, r0
 2414 0006 8946     		mov	r9, r1
 2415 0008 9046     		mov	r8, r2
 2416 000a 1F46     		mov	r7, r3
 2417 000c BDF82850 		ldrh	r5, [sp, #40]
1467:.\Generated_Source\PSoC5/ETH0.c **** 	uint16 RxSize;
1468:.\Generated_Source\PSoC5/ETH0.c **** 	uint16 PacketSize;
1469:.\Generated_Source\PSoC5/ETH0.c **** 	uint8  PacketHeader[8];
1470:.\Generated_Source\PSoC5/ETH0.c **** 	
1471:.\Generated_Source\PSoC5/ETH0.c **** 	/*
1472:.\Generated_Source\PSoC5/ETH0.c **** 	 * First thing to do is to check to see if the socket is connected
1473:.\Generated_Source\PSoC5/ETH0.c **** 	 * and that there is data waiting
1474:.\Generated_Source\PSoC5/ETH0.c **** 	 */
1475:.\Generated_Source\PSoC5/ETH0.c **** 	RxSize = 0;
1476:.\Generated_Source\PSoC5/ETH0.c **** 	if (ETH0_GetSocketStatus( socket ) == 0x17) {
 2418              		.loc 1 1476 0
 2419 0010 FFF7FEFF 		bl	ETH0_GetSocketStatus
 2420              	.LVL257:
 2421 0014 1728     		cmp	r0, #23
 2422 0016 01D0     		beq	.L157
 2423              	.LVL258:
 2424              	.L160:
1475:.\Generated_Source\PSoC5/ETH0.c **** 	RxSize = 0;
 2425              		.loc 1 1475 0
 2426 0018 0020     		movs	r0, #0
 2427 001a 3EE0     		b	.L158
 2428              	.LVL259:
 2429              	.L157:
1477:.\Generated_Source\PSoC5/ETH0.c **** 		/*
1478:.\Generated_Source\PSoC5/ETH0.c **** 		 * read the number of waiting bytes in the buffer memory
ARM GAS  C:\Users\CHUCK~1.ERH\AppData\Local\Temp\ccby6rnL.s 			page 74


1479:.\Generated_Source\PSoC5/ETH0.c **** 		 * but, clip the length of data read to the requested
1480:.\Generated_Source\PSoC5/ETH0.c **** 		 * length of data.
1481:.\Generated_Source\PSoC5/ETH0.c **** 		 */
1482:.\Generated_Source\PSoC5/ETH0.c **** 		RxSize = ETH0_GetRxSize( socket );
 2430              		.loc 1 1482 0
 2431 001c 2046     		mov	r0, r4
 2432 001e FFF7FEFF 		bl	ETH0_GetRxSize
 2433              	.LVL260:
1483:.\Generated_Source\PSoC5/ETH0.c **** 		RxSize = (RxSize > length+8) ? length : RxSize;
 2434              		.loc 1 1483 0
 2435 0022 05F10806 		add	r6, r5, #8
 2436 0026 B042     		cmp	r0, r6
 2437 0028 D4BF     		ite	le
 2438 002a 0646     		movle	r6, r0
 2439 002c 2E46     		movgt	r6, r5
1484:.\Generated_Source\PSoC5/ETH0.c **** 		/* If there was waiting data, read it from the buffer */
1485:.\Generated_Source\PSoC5/ETH0.c **** 		if (RxSize > 0) {
 2440              		.loc 1 1485 0
 2441 002e 002E     		cmp	r6, #0
 2442 0030 F2D0     		beq	.L160
1486:.\Generated_Source\PSoC5/ETH0.c **** 			/*
1487:.\Generated_Source\PSoC5/ETH0.c **** 			 * the UDP packet is stored in the buffer memory as an 8-byte
1488:.\Generated_Source\PSoC5/ETH0.c **** 			 * packet header followed by the packet data.
1489:.\Generated_Source\PSoC5/ETH0.c **** 			*/
1490:.\Generated_Source\PSoC5/ETH0.c **** 			ETH0_ProcessRxData( socket, 0, &PacketHeader[0], 8, 0);
 2443              		.loc 1 1490 0
 2444 0032 0021     		movs	r1, #0
 2445 0034 0823     		movs	r3, #8
 2446 0036 2046     		mov	r0, r4
 2447              	.LVL261:
 2448 0038 6A46     		mov	r2, sp
 2449 003a FFF7FEFF 		bl	ETH0_ProcessRxData.constprop.1
 2450              	.LVL262:
1491:.\Generated_Source\PSoC5/ETH0.c **** 			/*
1492:.\Generated_Source\PSoC5/ETH0.c **** 			 * The packet header contains the 4-byte IP address followed by the
1493:.\Generated_Source\PSoC5/ETH0.c **** 			 * 2-byte port number and the 2-byte packet data length
1494:.\Generated_Source\PSoC5/ETH0.c **** 			 */
1495:.\Generated_Source\PSoC5/ETH0.c **** 			*ip = ETH0_IPADDRESS(PacketHeader[0], PacketHeader[1], PacketHeader[2], PacketHeader[3]);
 2451              		.loc 1 1495 0
 2452 003e 9DF80320 		ldrb	r2, [sp, #3]	@ zero_extendqisi2
 2453 0042 9DF80030 		ldrb	r3, [sp, #0]	@ zero_extendqisi2
 2454 0046 9DF80110 		ldrb	r1, [sp, #1]	@ zero_extendqisi2
 2455 004a 03EB0260 		add	r0, r3, r2, lsl #24
 2456 004e 9DF80220 		ldrb	r2, [sp, #2]	@ zero_extendqisi2
 2457 0052 00EB0125 		add	r5, r0, r1, lsl #8
 2458 0056 05EB0243 		add	r3, r5, r2, lsl #16
1496:.\Generated_Source\PSoC5/ETH0.c **** 			*port = (uint16)((PacketHeader[4]<<8)&0xFF00) | (PacketHeader[5]&0x00FF);
 2459              		.loc 1 1496 0
 2460 005a 9DF80400 		ldrb	r0, [sp, #4]	@ zero_extendqisi2
 2461 005e 9DF80510 		ldrb	r1, [sp, #5]	@ zero_extendqisi2
1495:.\Generated_Source\PSoC5/ETH0.c **** 			*ip = ETH0_IPADDRESS(PacketHeader[0], PacketHeader[1], PacketHeader[2], PacketHeader[3]);
 2462              		.loc 1 1495 0
 2463 0062 C9F80030 		str	r3, [r9, #0]
1497:.\Generated_Source\PSoC5/ETH0.c **** 			PacketSize = (uint16)((PacketHeader[6]<<8)&0xFF00) | (PacketHeader[7]&0x00FF);
 2464              		.loc 1 1497 0
 2465 0066 9DF80620 		ldrb	r2, [sp, #6]	@ zero_extendqisi2
 2466 006a 9DF80730 		ldrb	r3, [sp, #7]	@ zero_extendqisi2
ARM GAS  C:\Users\CHUCK~1.ERH\AppData\Local\Temp\ccby6rnL.s 			page 75


1496:.\Generated_Source\PSoC5/ETH0.c **** 			*port = (uint16)((PacketHeader[4]<<8)&0xFF00) | (PacketHeader[5]&0x00FF);
 2467              		.loc 1 1496 0
 2468 006e 41EA0025 		orr	r5, r1, r0, lsl #8
 2469 0072 A8F80050 		strh	r5, [r8, #0]	@ movhi
 2470              		.loc 1 1497 0
 2471 0076 43EA0225 		orr	r5, r3, r2, lsl #8
 2472              	.LVL263:
1498:.\Generated_Source\PSoC5/ETH0.c **** 			/*
1499:.\Generated_Source\PSoC5/ETH0.c **** 			 * Check to make sure that the packet data has been received completely
1500:.\Generated_Source\PSoC5/ETH0.c **** 			 */
1501:.\Generated_Source\PSoC5/ETH0.c **** 			if (RxSize >= (PacketSize+8) ) {
 2473              		.loc 1 1501 0
 2474 007a E81D     		adds	r0, r5, #7
 2475 007c B042     		cmp	r0, r6
 2476 007e 0BDA     		bge	.L161
1502:.\Generated_Source\PSoC5/ETH0.c **** 			
1503:.\Generated_Source\PSoC5/ETH0.c **** 				ETH0_ProcessRxData( socket, 8, buffer, PacketSize, 0);
 2477              		.loc 1 1503 0
 2478 0080 2046     		mov	r0, r4
 2479 0082 0821     		movs	r1, #8
 2480 0084 3A46     		mov	r2, r7
 2481 0086 2B46     		mov	r3, r5
 2482 0088 FFF7FEFF 		bl	ETH0_ProcessRxData.constprop.1
 2483              	.LVL264:
1504:.\Generated_Source\PSoC5/ETH0.c **** 				/* 
1505:.\Generated_Source\PSoC5/ETH0.c **** 				 * after reading the buffer data, send the receive command
1506:.\Generated_Source\PSoC5/ETH0.c **** 				 * to the socket so that the W5100 completes the read
1507:.\Generated_Source\PSoC5/ETH0.c **** 				 */
1508:.\Generated_Source\PSoC5/ETH0.c **** 				ETH0_ExecuteSocketCommand(socket, 0x40);
 2484              		.loc 1 1508 0
 2485 008c 2046     		mov	r0, r4
 2486 008e 4021     		movs	r1, #64
 2487 0090 FFF7FEFF 		bl	ETH0_ExecuteSocketCommand
 2488              	.LVL265:
1509:.\Generated_Source\PSoC5/ETH0.c **** 				RxSize = PacketSize;
 2489              		.loc 1 1509 0
 2490 0094 2846     		mov	r0, r5
 2491 0096 00E0     		b	.L158
 2492              	.LVL266:
 2493              	.L161:
1510:.\Generated_Source\PSoC5/ETH0.c **** 			}
1511:.\Generated_Source\PSoC5/ETH0.c **** 			else {
1512:.\Generated_Source\PSoC5/ETH0.c **** 				RxSize = 8;
 2494              		.loc 1 1512 0
 2495 0098 0820     		movs	r0, #8
 2496              	.LVL267:
 2497              	.L158:
1513:.\Generated_Source\PSoC5/ETH0.c **** 			}
1514:.\Generated_Source\PSoC5/ETH0.c **** 		}
1515:.\Generated_Source\PSoC5/ETH0.c **** 	}
1516:.\Generated_Source\PSoC5/ETH0.c **** 	
1517:.\Generated_Source\PSoC5/ETH0.c **** 	/* return the number of read bytes from the buffer memory */
1518:.\Generated_Source\PSoC5/ETH0.c **** 	return RxSize;
1519:.\Generated_Source\PSoC5/ETH0.c **** }
 2498              		.loc 1 1519 0
 2499 009a BDE8FE83 		pop	{r1, r2, r3, r4, r5, r6, r7, r8, r9, pc}
 2500              		.cfi_endproc
ARM GAS  C:\Users\CHUCK~1.ERH\AppData\Local\Temp\ccby6rnL.s 			page 76


 2501              	.LFE99:
 2502              		.size	ETH0_UdpReceive, .-ETH0_UdpReceive
 2503              		.section	.rodata.str1.1,"aMS",%progbits,1
 2504              	.LC0:
 2505 0000 3139322E 		.ascii	"192.168.1.101\000"
 2505      3136382E 
 2505      312E3130 
 2505      3100
 2506              	.LC1:
 2507 000e 3235352E 		.ascii	"255.255.255.0\000"
 2507      3235352E 
 2507      3235352E 
 2507      3000
 2508              	.LC2:
 2509 001c 3139322E 		.ascii	"192.168.1.1\000"
 2509      3136382E 
 2509      312E3100 
 2510              		.data
 2511              		.set	.LANCHOR1,. + 0
 2512              		.type	ETH0_MAC, %object
 2513              		.size	ETH0_MAC, 6
 2514              	ETH0_MAC:
 2515 0000 00       		.byte	0
 2516 0001 DE       		.byte	-34
 2517 0002 AD       		.byte	-83
 2518 0003 BE       		.byte	-66
 2519 0004 EF       		.byte	-17
 2520 0005 00       		.byte	0
 2521              		.bss
 2522              		.align	2
 2523              		.set	.LANCHOR0,. + 0
 2524              		.type	ETH0_SubnetMask, %object
 2525              		.size	ETH0_SubnetMask, 4
 2526              	ETH0_SubnetMask:
 2527 0000 00000000 		.space	4
 2528              		.type	ETH0_SocketConfig, %object
 2529              		.size	ETH0_SocketConfig, 24
 2530              	ETH0_SocketConfig:
 2531 0004 00000000 		.space	24
 2531      00000000 
 2531      00000000 
 2531      00000000 
 2531      00000000 
 2532              		.text
 2533              	.Letext0:
 2534              		.file 2 "./Generated_Source/PSoC5/cytypes.h"
 2535              		.file 3 "c:\\program files (x86)\\cypress\\psoc creator\\3.0\\psoc creator\\import\\gnu_cs\\arm\\4
 2536              		.file 4 "./Generated_Source/PSoC5/SPI0.h"
 2537              		.file 5 "./Generated_Source/PSoC5/cylib.h"
 2538              		.file 6 "c:\\program files (x86)\\cypress\\psoc creator\\3.0\\psoc creator\\import\\gnu_cs\\arm\\4
 2539              		.section	.debug_info,"",%progbits
 2540              	.Ldebug_info0:
 2541 0000 F71F0000 		.4byte	0x1ff7
 2542 0004 0200     		.2byte	0x2
 2543 0006 00000000 		.4byte	.Ldebug_abbrev0
 2544 000a 04       		.byte	0x4
 2545 000b 01       		.uleb128 0x1
ARM GAS  C:\Users\CHUCK~1.ERH\AppData\Local\Temp\ccby6rnL.s 			page 77


 2546 000c BB040000 		.4byte	.LASF124
 2547 0010 01       		.byte	0x1
 2548 0011 07020000 		.4byte	.LASF125
 2549 0015 16070000 		.4byte	.LASF126
 2550 0019 D8010000 		.4byte	.Ldebug_ranges0+0x1d8
 2551 001d 00000000 		.4byte	0
 2552 0021 00000000 		.4byte	0
 2553 0025 00000000 		.4byte	.Ldebug_line0
 2554 0029 02       		.uleb128 0x2
 2555 002a 01       		.byte	0x1
 2556 002b 06       		.byte	0x6
 2557 002c 85010000 		.4byte	.LASF0
 2558 0030 02       		.uleb128 0x2
 2559 0031 01       		.byte	0x1
 2560 0032 08       		.byte	0x8
 2561 0033 35050000 		.4byte	.LASF1
 2562 0037 02       		.uleb128 0x2
 2563 0038 02       		.byte	0x2
 2564 0039 05       		.byte	0x5
 2565 003a 65050000 		.4byte	.LASF2
 2566 003e 02       		.uleb128 0x2
 2567 003f 02       		.byte	0x2
 2568 0040 07       		.byte	0x7
 2569 0041 09030000 		.4byte	.LASF3
 2570 0045 02       		.uleb128 0x2
 2571 0046 04       		.byte	0x4
 2572 0047 05       		.byte	0x5
 2573 0048 E3010000 		.4byte	.LASF4
 2574 004c 02       		.uleb128 0x2
 2575 004d 04       		.byte	0x4
 2576 004e 07       		.byte	0x7
 2577 004f C4020000 		.4byte	.LASF5
 2578 0053 02       		.uleb128 0x2
 2579 0054 08       		.byte	0x8
 2580 0055 05       		.byte	0x5
 2581 0056 77010000 		.4byte	.LASF6
 2582 005a 02       		.uleb128 0x2
 2583 005b 08       		.byte	0x8
 2584 005c 07       		.byte	0x7
 2585 005d F7000000 		.4byte	.LASF7
 2586 0061 03       		.uleb128 0x3
 2587 0062 04       		.byte	0x4
 2588 0063 05       		.byte	0x5
 2589 0064 696E7400 		.ascii	"int\000"
 2590 0068 02       		.uleb128 0x2
 2591 0069 04       		.byte	0x4
 2592 006a 07       		.byte	0x7
 2593 006b 7E020000 		.4byte	.LASF8
 2594 006f 04       		.uleb128 0x4
 2595 0070 01020000 		.4byte	.LASF9
 2596 0074 02       		.byte	0x2
 2597 0075 5B       		.byte	0x5b
 2598 0076 30000000 		.4byte	0x30
 2599 007a 04       		.uleb128 0x4
 2600 007b 06000000 		.4byte	.LASF10
 2601 007f 02       		.byte	0x2
 2602 0080 5C       		.byte	0x5c
ARM GAS  C:\Users\CHUCK~1.ERH\AppData\Local\Temp\ccby6rnL.s 			page 78


 2603 0081 3E000000 		.4byte	0x3e
 2604 0085 04       		.uleb128 0x4
 2605 0086 45020000 		.4byte	.LASF11
 2606 008a 02       		.byte	0x2
 2607 008b 5D       		.byte	0x5d
 2608 008c 4C000000 		.4byte	0x4c
 2609 0090 02       		.uleb128 0x2
 2610 0091 04       		.byte	0x4
 2611 0092 04       		.byte	0x4
 2612 0093 83040000 		.4byte	.LASF12
 2613 0097 02       		.uleb128 0x2
 2614 0098 08       		.byte	0x8
 2615 0099 04       		.byte	0x4
 2616 009a 31020000 		.4byte	.LASF13
 2617 009e 02       		.uleb128 0x2
 2618 009f 01       		.byte	0x1
 2619 00a0 08       		.byte	0x8
 2620 00a1 DD050000 		.4byte	.LASF14
 2621 00a5 02       		.uleb128 0x2
 2622 00a6 04       		.byte	0x4
 2623 00a7 07       		.byte	0x7
 2624 00a8 D2030000 		.4byte	.LASF15
 2625 00ac 05       		.uleb128 0x5
 2626 00ad 04       		.byte	0x4
 2627 00ae B2000000 		.4byte	0xb2
 2628 00b2 06       		.uleb128 0x6
 2629 00b3 9E000000 		.4byte	0x9e
 2630 00b7 04       		.uleb128 0x4
 2631 00b8 71000000 		.4byte	.LASF16
 2632 00bc 03       		.byte	0x3
 2633 00bd D5       		.byte	0xd5
 2634 00be 68000000 		.4byte	0x68
 2635 00c2 07       		.uleb128 0x7
 2636 00c3 06       		.byte	0x6
 2637 00c4 01       		.byte	0x1
 2638 00c5 19       		.byte	0x19
 2639 00c6 03010000 		.4byte	0x103
 2640 00ca 08       		.uleb128 0x8
 2641 00cb 2D010000 		.4byte	.LASF17
 2642 00cf 01       		.byte	0x1
 2643 00d0 1B       		.byte	0x1b
 2644 00d1 6F000000 		.4byte	0x6f
 2645 00d5 02       		.byte	0x2
 2646 00d6 23       		.byte	0x23
 2647 00d7 00       		.uleb128 0
 2648 00d8 08       		.uleb128 0x8
 2649 00d9 0B040000 		.4byte	.LASF18
 2650 00dd 01       		.byte	0x1
 2651 00de 1C       		.byte	0x1c
 2652 00df 6F000000 		.4byte	0x6f
 2653 00e3 02       		.byte	0x2
 2654 00e4 23       		.byte	0x23
 2655 00e5 01       		.uleb128 0x1
 2656 00e6 08       		.uleb128 0x8
 2657 00e7 91010000 		.4byte	.LASF19
 2658 00eb 01       		.byte	0x1
 2659 00ec 1D       		.byte	0x1d
ARM GAS  C:\Users\CHUCK~1.ERH\AppData\Local\Temp\ccby6rnL.s 			page 79


 2660 00ed 7A000000 		.4byte	0x7a
 2661 00f1 02       		.byte	0x2
 2662 00f2 23       		.byte	0x23
 2663 00f3 02       		.uleb128 0x2
 2664 00f4 08       		.uleb128 0x8
 2665 00f5 B1050000 		.4byte	.LASF20
 2666 00f9 01       		.byte	0x1
 2667 00fa 1E       		.byte	0x1e
 2668 00fb 6F000000 		.4byte	0x6f
 2669 00ff 02       		.byte	0x2
 2670 0100 23       		.byte	0x23
 2671 0101 04       		.uleb128 0x4
 2672 0102 00       		.byte	0
 2673 0103 04       		.uleb128 0x4
 2674 0104 5A030000 		.4byte	.LASF21
 2675 0108 01       		.byte	0x1
 2676 0109 1F       		.byte	0x1f
 2677 010a C2000000 		.4byte	0xc2
 2678 010e 09       		.uleb128 0x9
 2679 010f 78030000 		.4byte	.LASF127
 2680 0113 01       		.byte	0x1
 2681 0114 3B       		.byte	0x3b
 2682 0115 01       		.byte	0x1
 2683 0116 01       		.byte	0x1
 2684 0117 0A       		.uleb128 0xa
 2685 0118 01       		.byte	0x1
 2686 0119 36010000 		.4byte	.LASF116
 2687 011d 01       		.byte	0x1
 2688 011e 8F04     		.2byte	0x48f
 2689 0120 01       		.byte	0x1
 2690 0121 01       		.byte	0x1
 2691 0122 33010000 		.4byte	0x133
 2692 0126 0B       		.uleb128 0xb
 2693 0127 89000000 		.4byte	.LASF22
 2694 012b 01       		.byte	0x1
 2695 012c 8F04     		.2byte	0x48f
 2696 012e 6F000000 		.4byte	0x6f
 2697 0132 00       		.byte	0
 2698 0133 0C       		.uleb128 0xc
 2699 0134 6E020000 		.4byte	.LASF24
 2700 0138 01       		.byte	0x1
 2701 0139 F7       		.byte	0xf7
 2702 013a 01       		.byte	0x1
 2703 013b 01       		.byte	0x1
 2704 013c 62010000 		.4byte	0x162
 2705 0140 0D       		.uleb128 0xd
 2706 0141 0E010000 		.4byte	.LASF23
 2707 0145 01       		.byte	0x1
 2708 0146 F7       		.byte	0xf7
 2709 0147 7A000000 		.4byte	0x7a
 2710 014b 0E       		.uleb128 0xe
 2711 014c 6D616300 		.ascii	"mac\000"
 2712 0150 01       		.byte	0x1
 2713 0151 F7       		.byte	0xf7
 2714 0152 62010000 		.4byte	0x162
 2715 0156 0F       		.uleb128 0xf
 2716 0157 02060000 		.4byte	.LASF26
ARM GAS  C:\Users\CHUCK~1.ERH\AppData\Local\Temp\ccby6rnL.s 			page 80


 2717 015b 01       		.byte	0x1
 2718 015c F9       		.byte	0xf9
 2719 015d 85000000 		.4byte	0x85
 2720 0161 00       		.byte	0
 2721 0162 05       		.uleb128 0x5
 2722 0163 04       		.byte	0x4
 2723 0164 6F000000 		.4byte	0x6f
 2724 0168 10       		.uleb128 0x10
 2725 0169 9E070000 		.4byte	.LASF25
 2726 016d 01       		.byte	0x1
 2727 016e 0601     		.2byte	0x106
 2728 0170 01       		.byte	0x1
 2729 0171 01       		.byte	0x1
 2730 0172 9B010000 		.4byte	0x19b
 2731 0176 0B       		.uleb128 0xb
 2732 0177 0E010000 		.4byte	.LASF23
 2733 017b 01       		.byte	0x1
 2734 017c 0601     		.2byte	0x106
 2735 017e 7A000000 		.4byte	0x7a
 2736 0182 11       		.uleb128 0x11
 2737 0183 6D616300 		.ascii	"mac\000"
 2738 0187 01       		.byte	0x1
 2739 0188 0601     		.2byte	0x106
 2740 018a 62010000 		.4byte	0x162
 2741 018e 12       		.uleb128 0x12
 2742 018f 02060000 		.4byte	.LASF26
 2743 0193 01       		.byte	0x1
 2744 0194 0801     		.2byte	0x108
 2745 0196 85000000 		.4byte	0x85
 2746 019a 00       		.byte	0
 2747 019b 13       		.uleb128 0x13
 2748 019c 47060000 		.4byte	.LASF47
 2749 01a0 01       		.byte	0x1
 2750 01a1 2301     		.2byte	0x123
 2751 01a3 01       		.byte	0x1
 2752 01a4 85000000 		.4byte	0x85
 2753 01a8 01       		.byte	0x1
 2754 01a9 DD010000 		.4byte	0x1dd
 2755 01ad 0B       		.uleb128 0xb
 2756 01ae 0E010000 		.4byte	.LASF23
 2757 01b2 01       		.byte	0x1
 2758 01b3 2301     		.2byte	0x123
 2759 01b5 7A000000 		.4byte	0x7a
 2760 01b9 12       		.uleb128 0x12
 2761 01ba 40060000 		.4byte	.LASF27
 2762 01be 01       		.byte	0x1
 2763 01bf 2501     		.2byte	0x125
 2764 01c1 DD010000 		.4byte	0x1dd
 2765 01c5 12       		.uleb128 0x12
 2766 01c6 02060000 		.4byte	.LASF26
 2767 01ca 01       		.byte	0x1
 2768 01cb 2601     		.2byte	0x126
 2769 01cd 61000000 		.4byte	0x61
 2770 01d1 14       		.uleb128 0x14
 2771 01d2 697000   		.ascii	"ip\000"
 2772 01d5 01       		.byte	0x1
 2773 01d6 2701     		.2byte	0x127
ARM GAS  C:\Users\CHUCK~1.ERH\AppData\Local\Temp\ccby6rnL.s 			page 81


 2774 01d8 ED010000 		.4byte	0x1ed
 2775 01dc 00       		.byte	0
 2776 01dd 15       		.uleb128 0x15
 2777 01de 6F000000 		.4byte	0x6f
 2778 01e2 ED010000 		.4byte	0x1ed
 2779 01e6 16       		.uleb128 0x16
 2780 01e7 A5000000 		.4byte	0xa5
 2781 01eb 03       		.byte	0x3
 2782 01ec 00       		.byte	0
 2783 01ed 05       		.uleb128 0x5
 2784 01ee 04       		.byte	0x4
 2785 01ef 85000000 		.4byte	0x85
 2786 01f3 10       		.uleb128 0x10
 2787 01f4 3E040000 		.4byte	.LASF28
 2788 01f8 01       		.byte	0x1
 2789 01f9 A401     		.2byte	0x1a4
 2790 01fb 01       		.byte	0x1
 2791 01fc 01       		.byte	0x1
 2792 01fd 0E020000 		.4byte	0x20e
 2793 0201 0B       		.uleb128 0xb
 2794 0202 ED050000 		.4byte	.LASF29
 2795 0206 01       		.byte	0x1
 2796 0207 A401     		.2byte	0x1a4
 2797 0209 6F000000 		.4byte	0x6f
 2798 020d 00       		.byte	0
 2799 020e 10       		.uleb128 0x10
 2800 020f ED030000 		.4byte	.LASF30
 2801 0213 01       		.byte	0x1
 2802 0214 B001     		.2byte	0x1b0
 2803 0216 01       		.byte	0x1
 2804 0217 01       		.byte	0x1
 2805 0218 28020000 		.4byte	0x228
 2806 021c 11       		.uleb128 0x11
 2807 021d 697200   		.ascii	"ir\000"
 2808 0220 01       		.byte	0x1
 2809 0221 B001     		.2byte	0x1b0
 2810 0223 6F000000 		.4byte	0x6f
 2811 0227 00       		.byte	0
 2812 0228 10       		.uleb128 0x10
 2813 0229 90000000 		.4byte	.LASF31
 2814 022d 01       		.byte	0x1
 2815 022e E001     		.2byte	0x1e0
 2816 0230 01       		.byte	0x1
 2817 0231 01       		.byte	0x1
 2818 0232 43020000 		.4byte	0x243
 2819 0236 0B       		.uleb128 0xb
 2820 0237 04030000 		.4byte	.LASF32
 2821 023b 01       		.byte	0x1
 2822 023c E001     		.2byte	0x1e0
 2823 023e 6F000000 		.4byte	0x6f
 2824 0242 00       		.byte	0
 2825 0243 10       		.uleb128 0x10
 2826 0244 B2020000 		.4byte	.LASF33
 2827 0248 01       		.byte	0x1
 2828 0249 EC01     		.2byte	0x1ec
 2829 024b 01       		.byte	0x1
 2830 024c 01       		.byte	0x1
ARM GAS  C:\Users\CHUCK~1.ERH\AppData\Local\Temp\ccby6rnL.s 			page 82


 2831 024d 5E020000 		.4byte	0x25e
 2832 0251 0B       		.uleb128 0xb
 2833 0252 04030000 		.4byte	.LASF32
 2834 0256 01       		.byte	0x1
 2835 0257 EC01     		.2byte	0x1ec
 2836 0259 6F000000 		.4byte	0x6f
 2837 025d 00       		.byte	0
 2838 025e 10       		.uleb128 0x10
 2839 025f F8030000 		.4byte	.LASF34
 2840 0263 01       		.byte	0x1
 2841 0264 6403     		.2byte	0x364
 2842 0266 01       		.byte	0x1
 2843 0267 01       		.byte	0x1
 2844 0268 CD020000 		.4byte	0x2cd
 2845 026c 0B       		.uleb128 0xb
 2846 026d 89000000 		.4byte	.LASF22
 2847 0271 01       		.byte	0x1
 2848 0272 6403     		.2byte	0x364
 2849 0274 6F000000 		.4byte	0x6f
 2850 0278 0B       		.uleb128 0xb
 2851 0279 56060000 		.4byte	.LASF35
 2852 027d 01       		.byte	0x1
 2853 027e 6403     		.2byte	0x364
 2854 0280 7A000000 		.4byte	0x7a
 2855 0284 0B       		.uleb128 0xb
 2856 0285 40060000 		.4byte	.LASF27
 2857 0289 01       		.byte	0x1
 2858 028a 6403     		.2byte	0x364
 2859 028c 62010000 		.4byte	0x162
 2860 0290 0B       		.uleb128 0xb
 2861 0291 D6050000 		.4byte	.LASF36
 2862 0295 01       		.byte	0x1
 2863 0296 6403     		.2byte	0x364
 2864 0298 7A000000 		.4byte	0x7a
 2865 029c 12       		.uleb128 0x12
 2866 029d 0E010000 		.4byte	.LASF23
 2867 02a1 01       		.byte	0x1
 2868 02a2 6603     		.2byte	0x366
 2869 02a4 7A000000 		.4byte	0x7a
 2870 02a8 12       		.uleb128 0x12
 2871 02a9 C4030000 		.4byte	.LASF37
 2872 02ad 01       		.byte	0x1
 2873 02ae 6703     		.2byte	0x367
 2874 02b0 7A000000 		.4byte	0x7a
 2875 02b4 12       		.uleb128 0x12
 2876 02b5 88030000 		.4byte	.LASF38
 2877 02b9 01       		.byte	0x1
 2878 02ba 6803     		.2byte	0x368
 2879 02bc 7A000000 		.4byte	0x7a
 2880 02c0 12       		.uleb128 0x12
 2881 02c1 04030000 		.4byte	.LASF32
 2882 02c5 01       		.byte	0x1
 2883 02c6 6903     		.2byte	0x369
 2884 02c8 7A000000 		.4byte	0x7a
 2885 02cc 00       		.byte	0
 2886 02cd 10       		.uleb128 0x10
 2887 02ce B9070000 		.4byte	.LASF39
ARM GAS  C:\Users\CHUCK~1.ERH\AppData\Local\Temp\ccby6rnL.s 			page 83


 2888 02d2 01       		.byte	0x1
 2889 02d3 9C03     		.2byte	0x39c
 2890 02d5 01       		.byte	0x1
 2891 02d6 01       		.byte	0x1
 2892 02d7 48030000 		.4byte	0x348
 2893 02db 0B       		.uleb128 0xb
 2894 02dc 89000000 		.4byte	.LASF22
 2895 02e0 01       		.byte	0x1
 2896 02e1 9C03     		.2byte	0x39c
 2897 02e3 6F000000 		.4byte	0x6f
 2898 02e7 0B       		.uleb128 0xb
 2899 02e8 56060000 		.4byte	.LASF35
 2900 02ec 01       		.byte	0x1
 2901 02ed 9C03     		.2byte	0x39c
 2902 02ef 7A000000 		.4byte	0x7a
 2903 02f3 0B       		.uleb128 0xb
 2904 02f4 40060000 		.4byte	.LASF27
 2905 02f8 01       		.byte	0x1
 2906 02f9 9C03     		.2byte	0x39c
 2907 02fb 62010000 		.4byte	0x162
 2908 02ff 0B       		.uleb128 0xb
 2909 0300 D6050000 		.4byte	.LASF36
 2910 0304 01       		.byte	0x1
 2911 0305 9C03     		.2byte	0x39c
 2912 0307 7A000000 		.4byte	0x7a
 2913 030b 0B       		.uleb128 0xb
 2914 030c E1060000 		.4byte	.LASF40
 2915 0310 01       		.byte	0x1
 2916 0311 9C03     		.2byte	0x39c
 2917 0313 6F000000 		.4byte	0x6f
 2918 0317 12       		.uleb128 0x12
 2919 0318 0E010000 		.4byte	.LASF23
 2920 031c 01       		.byte	0x1
 2921 031d 9E03     		.2byte	0x39e
 2922 031f 7A000000 		.4byte	0x7a
 2923 0323 12       		.uleb128 0x12
 2924 0324 C4030000 		.4byte	.LASF37
 2925 0328 01       		.byte	0x1
 2926 0329 9F03     		.2byte	0x39f
 2927 032b 7A000000 		.4byte	0x7a
 2928 032f 12       		.uleb128 0x12
 2929 0330 88030000 		.4byte	.LASF38
 2930 0334 01       		.byte	0x1
 2931 0335 A003     		.2byte	0x3a0
 2932 0337 7A000000 		.4byte	0x7a
 2933 033b 12       		.uleb128 0x12
 2934 033c 04030000 		.4byte	.LASF32
 2935 0340 01       		.byte	0x1
 2936 0341 A103     		.2byte	0x3a1
 2937 0343 7A000000 		.4byte	0x7a
 2938 0347 00       		.byte	0
 2939 0348 17       		.uleb128 0x17
 2940 0349 01       		.byte	0x1
 2941 034a 3E030000 		.4byte	.LASF75
 2942 034e 01       		.byte	0x1
 2943 034f 53       		.byte	0x53
 2944 0350 01       		.byte	0x1
ARM GAS  C:\Users\CHUCK~1.ERH\AppData\Local\Temp\ccby6rnL.s 			page 84


 2945 0351 00000000 		.4byte	.LFB1
 2946 0355 2C000000 		.4byte	.LFE1
 2947 0359 00000000 		.4byte	.LLST0
 2948 035d 01       		.byte	0x1
 2949 035e EC030000 		.4byte	0x3ec
 2950 0362 18       		.uleb128 0x18
 2951 0363 0E010000 		.4byte	.LASF23
 2952 0367 01       		.byte	0x1
 2953 0368 53       		.byte	0x53
 2954 0369 7A000000 		.4byte	0x7a
 2955 036d 20000000 		.4byte	.LLST1
 2956 0371 19       		.uleb128 0x19
 2957 0372 64617400 		.ascii	"dat\000"
 2958 0376 01       		.byte	0x1
 2959 0377 53       		.byte	0x53
 2960 0378 6F000000 		.4byte	0x6f
 2961 037c 41000000 		.4byte	.LLST2
 2962 0380 1A       		.uleb128 0x1a
 2963 0381 0A000000 		.4byte	.LVL1
 2964 0385 761F0000 		.4byte	0x1f76
 2965 0389 1B       		.uleb128 0x1b
 2966 038a 10000000 		.4byte	.LVL2
 2967 038e 801F0000 		.4byte	0x1f80
 2968 0392 9D030000 		.4byte	0x39d
 2969 0396 1C       		.uleb128 0x1c
 2970 0397 01       		.byte	0x1
 2971 0398 50       		.byte	0x50
 2972 0399 02       		.byte	0x2
 2973 039a 09       		.byte	0x9
 2974 039b F0       		.byte	0xf0
 2975 039c 00       		.byte	0
 2976 039d 1B       		.uleb128 0x1b
 2977 039e 16000000 		.4byte	.LVL3
 2978 03a2 801F0000 		.4byte	0x1f80
 2979 03a6 B3030000 		.4byte	0x3b3
 2980 03aa 1C       		.uleb128 0x1c
 2981 03ab 01       		.byte	0x1
 2982 03ac 50       		.byte	0x50
 2983 03ad 04       		.byte	0x4
 2984 03ae 74       		.byte	0x74
 2985 03af 00       		.sleb128 0
 2986 03b0 38       		.byte	0x38
 2987 03b1 25       		.byte	0x25
 2988 03b2 00       		.byte	0
 2989 03b3 1B       		.uleb128 0x1b
 2990 03b4 1C000000 		.4byte	.LVL4
 2991 03b8 801F0000 		.4byte	0x1f80
 2992 03bc C7030000 		.4byte	0x3c7
 2993 03c0 1C       		.uleb128 0x1c
 2994 03c1 01       		.byte	0x1
 2995 03c2 50       		.byte	0x50
 2996 03c3 02       		.byte	0x2
 2997 03c4 74       		.byte	0x74
 2998 03c5 00       		.sleb128 0
 2999 03c6 00       		.byte	0
 3000 03c7 1B       		.uleb128 0x1b
 3001 03c8 22000000 		.4byte	.LVL5
ARM GAS  C:\Users\CHUCK~1.ERH\AppData\Local\Temp\ccby6rnL.s 			page 85


 3002 03cc 801F0000 		.4byte	0x1f80
 3003 03d0 DB030000 		.4byte	0x3db
 3004 03d4 1C       		.uleb128 0x1c
 3005 03d5 01       		.byte	0x1
 3006 03d6 50       		.byte	0x50
 3007 03d7 02       		.byte	0x2
 3008 03d8 75       		.byte	0x75
 3009 03d9 00       		.sleb128 0
 3010 03da 00       		.byte	0
 3011 03db 1D       		.uleb128 0x1d
 3012 03dc 2C000000 		.4byte	.LVL6
 3013 03e0 01       		.byte	0x1
 3014 03e1 941F0000 		.4byte	0x1f94
 3015 03e5 1C       		.uleb128 0x1c
 3016 03e6 01       		.byte	0x1
 3017 03e7 50       		.byte	0x50
 3018 03e8 01       		.byte	0x1
 3019 03e9 32       		.byte	0x32
 3020 03ea 00       		.byte	0
 3021 03eb 00       		.byte	0
 3022 03ec 1E       		.uleb128 0x1e
 3023 03ed 92020000 		.4byte	.LASF41
 3024 03f1 01       		.byte	0x1
 3025 03f2 3601     		.2byte	0x136
 3026 03f4 01       		.byte	0x1
 3027 03f5 00000000 		.4byte	.LFB7
 3028 03f9 1A000000 		.4byte	.LFE7
 3029 03fd 62000000 		.4byte	.LLST3
 3030 0401 01       		.byte	0x1
 3031 0402 5A040000 		.4byte	0x45a
 3032 0406 1F       		.uleb128 0x1f
 3033 0407 0E010000 		.4byte	.LASF23
 3034 040b 01       		.byte	0x1
 3035 040c 3601     		.2byte	0x136
 3036 040e 7A000000 		.4byte	0x7a
 3037 0412 82000000 		.4byte	.LLST4
 3038 0416 20       		.uleb128 0x20
 3039 0417 76616C00 		.ascii	"val\000"
 3040 041b 01       		.byte	0x1
 3041 041c 3601     		.2byte	0x136
 3042 041e 7A000000 		.4byte	0x7a
 3043 0422 A3000000 		.4byte	.LLST5
 3044 0426 1B       		.uleb128 0x1b
 3045 0427 0C000000 		.4byte	.LVL9
 3046 042b 48030000 		.4byte	0x348
 3047 042f 42040000 		.4byte	0x442
 3048 0433 1C       		.uleb128 0x1c
 3049 0434 01       		.byte	0x1
 3050 0435 51       		.byte	0x51
 3051 0436 04       		.byte	0x4
 3052 0437 74       		.byte	0x74
 3053 0438 00       		.sleb128 0
 3054 0439 38       		.byte	0x38
 3055 043a 25       		.byte	0x25
 3056 043b 1C       		.uleb128 0x1c
 3057 043c 01       		.byte	0x1
 3058 043d 50       		.byte	0x50
ARM GAS  C:\Users\CHUCK~1.ERH\AppData\Local\Temp\ccby6rnL.s 			page 86


 3059 043e 02       		.byte	0x2
 3060 043f 75       		.byte	0x75
 3061 0440 00       		.sleb128 0
 3062 0441 00       		.byte	0
 3063 0442 1D       		.uleb128 0x1d
 3064 0443 1A000000 		.4byte	.LVL10
 3065 0447 01       		.byte	0x1
 3066 0448 48030000 		.4byte	0x348
 3067 044c 1C       		.uleb128 0x1c
 3068 044d 01       		.byte	0x1
 3069 044e 51       		.byte	0x51
 3070 044f 02       		.byte	0x2
 3071 0450 74       		.byte	0x74
 3072 0451 00       		.sleb128 0
 3073 0452 1C       		.uleb128 0x1c
 3074 0453 01       		.byte	0x1
 3075 0454 50       		.byte	0x50
 3076 0455 02       		.byte	0x2
 3077 0456 75       		.byte	0x75
 3078 0457 01       		.sleb128 1
 3079 0458 00       		.byte	0
 3080 0459 00       		.byte	0
 3081 045a 1E       		.uleb128 0x1e
 3082 045b A3020000 		.4byte	.LASF42
 3083 045f 01       		.byte	0x1
 3084 0460 1301     		.2byte	0x113
 3085 0462 01       		.byte	0x1
 3086 0463 00000000 		.4byte	.LFB5
 3087 0467 1C000000 		.4byte	.LFE5
 3088 046b C4000000 		.4byte	.LLST6
 3089 046f 01       		.byte	0x1
 3090 0470 C9040000 		.4byte	0x4c9
 3091 0474 1F       		.uleb128 0x1f
 3092 0475 0E010000 		.4byte	.LASF23
 3093 0479 01       		.byte	0x1
 3094 047a 1301     		.2byte	0x113
 3095 047c 7A000000 		.4byte	0x7a
 3096 0480 E4000000 		.4byte	.LLST7
 3097 0484 20       		.uleb128 0x20
 3098 0485 697000   		.ascii	"ip\000"
 3099 0488 01       		.byte	0x1
 3100 0489 1301     		.2byte	0x113
 3101 048b 85000000 		.4byte	0x85
 3102 048f 05010000 		.4byte	.LLST8
 3103 0493 21       		.uleb128 0x21
 3104 0494 02060000 		.4byte	.LASF26
 3105 0498 01       		.byte	0x1
 3106 0499 1501     		.2byte	0x115
 3107 049b 85000000 		.4byte	0x85
 3108 049f 23010000 		.4byte	.LLST9
 3109 04a3 21       		.uleb128 0x21
 3110 04a4 40060000 		.4byte	.LASF27
 3111 04a8 01       		.byte	0x1
 3112 04a9 1601     		.2byte	0x116
 3113 04ab 62010000 		.4byte	0x162
 3114 04af 42010000 		.4byte	.LLST10
 3115 04b3 22       		.uleb128 0x22
ARM GAS  C:\Users\CHUCK~1.ERH\AppData\Local\Temp\ccby6rnL.s 			page 87


 3116 04b4 16000000 		.4byte	.LVL16
 3117 04b8 48030000 		.4byte	0x348
 3118 04bc 1C       		.uleb128 0x1c
 3119 04bd 01       		.byte	0x1
 3120 04be 50       		.byte	0x50
 3121 04bf 07       		.byte	0x7
 3122 04c0 74       		.byte	0x74
 3123 04c1 00       		.sleb128 0
 3124 04c2 75       		.byte	0x75
 3125 04c3 00       		.sleb128 0
 3126 04c4 22       		.byte	0x22
 3127 04c5 31       		.byte	0x31
 3128 04c6 1C       		.byte	0x1c
 3129 04c7 00       		.byte	0
 3130 04c8 00       		.byte	0
 3131 04c9 1E       		.uleb128 0x1e
 3132 04ca AD000000 		.4byte	.LASF43
 3133 04ce 01       		.byte	0x1
 3134 04cf 5201     		.2byte	0x152
 3135 04d1 01       		.byte	0x1
 3136 04d2 00000000 		.4byte	.LFB9
 3137 04d6 1E000000 		.4byte	.LFE9
 3138 04da 6F010000 		.4byte	.LLST11
 3139 04de 01       		.byte	0x1
 3140 04df 37050000 		.4byte	0x537
 3141 04e3 1F       		.uleb128 0x1f
 3142 04e4 0E010000 		.4byte	.LASF23
 3143 04e8 01       		.byte	0x1
 3144 04e9 5201     		.2byte	0x152
 3145 04eb 7A000000 		.4byte	0x7a
 3146 04ef 8F010000 		.4byte	.LLST12
 3147 04f3 1F       		.uleb128 0x1f
 3148 04f4 40060000 		.4byte	.LASF27
 3149 04f8 01       		.byte	0x1
 3150 04f9 5201     		.2byte	0x152
 3151 04fb 62010000 		.4byte	0x162
 3152 04ff B0010000 		.4byte	.LLST13
 3153 0503 1F       		.uleb128 0x1f
 3154 0504 D6050000 		.4byte	.LASF36
 3155 0508 01       		.byte	0x1
 3156 0509 5201     		.2byte	0x152
 3157 050b 7A000000 		.4byte	0x7a
 3158 050f CE010000 		.4byte	.LLST14
 3159 0513 21       		.uleb128 0x21
 3160 0514 02060000 		.4byte	.LASF26
 3161 0518 01       		.byte	0x1
 3162 0519 5401     		.2byte	0x154
 3163 051b 61000000 		.4byte	0x61
 3164 051f EF010000 		.4byte	.LLST15
 3165 0523 22       		.uleb128 0x22
 3166 0524 18000000 		.4byte	.LVL19
 3167 0528 48030000 		.4byte	0x348
 3168 052c 1C       		.uleb128 0x1c
 3169 052d 01       		.byte	0x1
 3170 052e 50       		.byte	0x50
 3171 052f 05       		.byte	0x5
 3172 0530 75       		.byte	0x75
ARM GAS  C:\Users\CHUCK~1.ERH\AppData\Local\Temp\ccby6rnL.s 			page 88


 3173 0531 00       		.sleb128 0
 3174 0532 74       		.byte	0x74
 3175 0533 00       		.sleb128 0
 3176 0534 22       		.byte	0x22
 3177 0535 00       		.byte	0
 3178 0536 00       		.byte	0
 3179 0537 23       		.uleb128 0x23
 3180 0538 01       		.byte	0x1
 3181 0539 F3010000 		.4byte	.LASF65
 3182 053d 01       		.byte	0x1
 3183 053e 70       		.byte	0x70
 3184 053f 01       		.byte	0x1
 3185 0540 6F000000 		.4byte	0x6f
 3186 0544 00000000 		.4byte	.LFB2
 3187 0548 38000000 		.4byte	.LFE2
 3188 054c 0E020000 		.4byte	.LLST16
 3189 0550 01       		.byte	0x1
 3190 0551 01060000 		.4byte	0x601
 3191 0555 18       		.uleb128 0x18
 3192 0556 0E010000 		.4byte	.LASF23
 3193 055a 01       		.byte	0x1
 3194 055b 70       		.byte	0x70
 3195 055c 7A000000 		.4byte	0x7a
 3196 0560 2E020000 		.4byte	.LLST17
 3197 0564 24       		.uleb128 0x24
 3198 0565 64617400 		.ascii	"dat\000"
 3199 0569 01       		.byte	0x1
 3200 056a 72       		.byte	0x72
 3201 056b 85000000 		.4byte	0x85
 3202 056f 4F020000 		.4byte	.LLST18
 3203 0573 25       		.uleb128 0x25
 3204 0574 00000000 		.4byte	.LASF44
 3205 0578 01       		.byte	0x1
 3206 0579 73       		.byte	0x73
 3207 057a 85000000 		.4byte	0x85
 3208 057e 62020000 		.4byte	.LLST19
 3209 0582 1A       		.uleb128 0x1a
 3210 0583 08000000 		.4byte	.LVL22
 3211 0587 761F0000 		.4byte	0x1f76
 3212 058b 1B       		.uleb128 0x1b
 3213 058c 0E000000 		.4byte	.LVL23
 3214 0590 801F0000 		.4byte	0x1f80
 3215 0594 9E050000 		.4byte	0x59e
 3216 0598 1C       		.uleb128 0x1c
 3217 0599 01       		.byte	0x1
 3218 059a 50       		.byte	0x50
 3219 059b 01       		.byte	0x1
 3220 059c 3F       		.byte	0x3f
 3221 059d 00       		.byte	0
 3222 059e 1B       		.uleb128 0x1b
 3223 059f 14000000 		.4byte	.LVL24
 3224 05a3 801F0000 		.4byte	0x1f80
 3225 05a7 B4050000 		.4byte	0x5b4
 3226 05ab 1C       		.uleb128 0x1c
 3227 05ac 01       		.byte	0x1
 3228 05ad 50       		.byte	0x50
 3229 05ae 04       		.byte	0x4
ARM GAS  C:\Users\CHUCK~1.ERH\AppData\Local\Temp\ccby6rnL.s 			page 89


 3230 05af 74       		.byte	0x74
 3231 05b0 00       		.sleb128 0
 3232 05b1 38       		.byte	0x38
 3233 05b2 25       		.byte	0x25
 3234 05b3 00       		.byte	0
 3235 05b4 1B       		.uleb128 0x1b
 3236 05b5 1A000000 		.4byte	.LVL25
 3237 05b9 801F0000 		.4byte	0x1f80
 3238 05bd C8050000 		.4byte	0x5c8
 3239 05c1 1C       		.uleb128 0x1c
 3240 05c2 01       		.byte	0x1
 3241 05c3 50       		.byte	0x50
 3242 05c4 02       		.byte	0x2
 3243 05c5 74       		.byte	0x74
 3244 05c6 00       		.sleb128 0
 3245 05c7 00       		.byte	0
 3246 05c8 1B       		.uleb128 0x1b
 3247 05c9 20000000 		.4byte	.LVL26
 3248 05cd 801F0000 		.4byte	0x1f80
 3249 05d1 DB050000 		.4byte	0x5db
 3250 05d5 1C       		.uleb128 0x1c
 3251 05d6 01       		.byte	0x1
 3252 05d7 50       		.byte	0x50
 3253 05d8 01       		.byte	0x1
 3254 05d9 30       		.byte	0x30
 3255 05da 00       		.byte	0
 3256 05db 1B       		.uleb128 0x1b
 3257 05dc 26000000 		.4byte	.LVL27
 3258 05e0 941F0000 		.4byte	0x1f94
 3259 05e4 EE050000 		.4byte	0x5ee
 3260 05e8 1C       		.uleb128 0x1c
 3261 05e9 01       		.byte	0x1
 3262 05ea 50       		.byte	0x50
 3263 05eb 01       		.byte	0x1
 3264 05ec 32       		.byte	0x32
 3265 05ed 00       		.byte	0
 3266 05ee 1A       		.uleb128 0x1a
 3267 05ef 2A000000 		.4byte	.LVL28
 3268 05f3 A81F0000 		.4byte	0x1fa8
 3269 05f7 1A       		.uleb128 0x1a
 3270 05f8 30000000 		.4byte	.LVL29
 3271 05fc B61F0000 		.4byte	0x1fb6
 3272 0600 00       		.byte	0
 3273 0601 26       		.uleb128 0x26
 3274 0602 E7060000 		.4byte	.LASF45
 3275 0606 01       		.byte	0x1
 3276 0607 5402     		.2byte	0x254
 3277 0609 01       		.byte	0x1
 3278 060a 6F000000 		.4byte	0x6f
 3279 060e 00000000 		.4byte	.LFB44
 3280 0612 0C000000 		.4byte	.LFE44
 3281 0616 02       		.byte	0x2
 3282 0617 7D       		.byte	0x7d
 3283 0618 00       		.sleb128 0
 3284 0619 01       		.byte	0x1
 3285 061a 39060000 		.4byte	0x639
 3286 061e 1F       		.uleb128 0x1f
ARM GAS  C:\Users\CHUCK~1.ERH\AppData\Local\Temp\ccby6rnL.s 			page 90


 3287 061f 89000000 		.4byte	.LASF22
 3288 0623 01       		.byte	0x1
 3289 0624 5402     		.2byte	0x254
 3290 0626 6F000000 		.4byte	0x6f
 3291 062a 80020000 		.4byte	.LLST20
 3292 062e 27       		.uleb128 0x27
 3293 062f 0C000000 		.4byte	.LVL34
 3294 0633 01       		.byte	0x1
 3295 0634 37050000 		.4byte	0x537
 3296 0638 00       		.byte	0
 3297 0639 28       		.uleb128 0x28
 3298 063a F2050000 		.4byte	.LASF46
 3299 063e 01       		.byte	0x1
 3300 063f 4101     		.2byte	0x141
 3301 0641 01       		.byte	0x1
 3302 0642 7A000000 		.4byte	0x7a
 3303 0646 00000000 		.4byte	.LFB8
 3304 064a 1A000000 		.4byte	.LFE8
 3305 064e A1020000 		.4byte	.LLST21
 3306 0652 01       		.byte	0x1
 3307 0653 9C060000 		.4byte	0x69c
 3308 0657 1F       		.uleb128 0x1f
 3309 0658 0E010000 		.4byte	.LASF23
 3310 065c 01       		.byte	0x1
 3311 065d 4101     		.2byte	0x141
 3312 065f 7A000000 		.4byte	0x7a
 3313 0663 C1020000 		.4byte	.LLST22
 3314 0667 29       		.uleb128 0x29
 3315 0668 76616C00 		.ascii	"val\000"
 3316 066c 01       		.byte	0x1
 3317 066d 4301     		.2byte	0x143
 3318 066f 7A000000 		.4byte	0x7a
 3319 0673 E2020000 		.4byte	.LLST23
 3320 0677 1B       		.uleb128 0x1b
 3321 0678 08000000 		.4byte	.LVL36
 3322 067c 37050000 		.4byte	0x537
 3323 0680 8B060000 		.4byte	0x68b
 3324 0684 1C       		.uleb128 0x1c
 3325 0685 01       		.byte	0x1
 3326 0686 50       		.byte	0x50
 3327 0687 02       		.byte	0x2
 3328 0688 75       		.byte	0x75
 3329 0689 00       		.sleb128 0
 3330 068a 00       		.byte	0
 3331 068b 22       		.uleb128 0x22
 3332 068c 14000000 		.4byte	.LVL40
 3333 0690 37050000 		.4byte	0x537
 3334 0694 1C       		.uleb128 0x1c
 3335 0695 01       		.byte	0x1
 3336 0696 50       		.byte	0x50
 3337 0697 02       		.byte	0x2
 3338 0698 75       		.byte	0x75
 3339 0699 01       		.sleb128 1
 3340 069a 00       		.byte	0
 3341 069b 00       		.byte	0
 3342 069c 13       		.uleb128 0x13
 3343 069d 96030000 		.4byte	.LASF48
ARM GAS  C:\Users\CHUCK~1.ERH\AppData\Local\Temp\ccby6rnL.s 			page 91


 3344 06a1 01       		.byte	0x1
 3345 06a2 FC02     		.2byte	0x2fc
 3346 06a4 01       		.byte	0x1
 3347 06a5 7A000000 		.4byte	0x7a
 3348 06a9 01       		.byte	0x1
 3349 06aa BB060000 		.4byte	0x6bb
 3350 06ae 0B       		.uleb128 0xb
 3351 06af 89000000 		.4byte	.LASF22
 3352 06b3 01       		.byte	0x1
 3353 06b4 FC02     		.2byte	0x2fc
 3354 06b6 6F000000 		.4byte	0x6f
 3355 06ba 00       		.byte	0
 3356 06bb 10       		.uleb128 0x10
 3357 06bc A2010000 		.4byte	.LASF49
 3358 06c0 01       		.byte	0x1
 3359 06c1 F402     		.2byte	0x2f4
 3360 06c3 01       		.byte	0x1
 3361 06c4 01       		.byte	0x1
 3362 06c5 E2060000 		.4byte	0x6e2
 3363 06c9 0B       		.uleb128 0xb
 3364 06ca 89000000 		.4byte	.LASF22
 3365 06ce 01       		.byte	0x1
 3366 06cf F402     		.2byte	0x2f4
 3367 06d1 6F000000 		.4byte	0x6f
 3368 06d5 11       		.uleb128 0x11
 3369 06d6 70747200 		.ascii	"ptr\000"
 3370 06da 01       		.byte	0x1
 3371 06db F402     		.2byte	0x2f4
 3372 06dd 7A000000 		.4byte	0x7a
 3373 06e1 00       		.byte	0
 3374 06e2 2A       		.uleb128 0x2a
 3375 06e3 5E020000 		.4byte	0x25e
 3376 06e7 00000000 		.4byte	.LFB108
 3377 06eb 66000000 		.4byte	.LFE108
 3378 06ef 1E030000 		.4byte	.LLST24
 3379 06f3 01       		.byte	0x1
 3380 06f4 DA070000 		.4byte	0x7da
 3381 06f8 2B       		.uleb128 0x2b
 3382 06f9 6C020000 		.4byte	0x26c
 3383 06fd 3E030000 		.4byte	.LLST25
 3384 0701 2B       		.uleb128 0x2b
 3385 0702 84020000 		.4byte	0x284
 3386 0706 5F030000 		.4byte	.LLST26
 3387 070a 2B       		.uleb128 0x2b
 3388 070b 90020000 		.4byte	0x290
 3389 070f 93030000 		.4byte	.LLST27
 3390 0713 2C       		.uleb128 0x2c
 3391 0714 9C020000 		.4byte	0x29c
 3392 0718 B4030000 		.4byte	.LLST28
 3393 071c 2C       		.uleb128 0x2c
 3394 071d A8020000 		.4byte	0x2a8
 3395 0721 FA030000 		.4byte	.LLST29
 3396 0725 2C       		.uleb128 0x2c
 3397 0726 B4020000 		.4byte	0x2b4
 3398 072a 28040000 		.4byte	.LLST30
 3399 072e 2D       		.uleb128 0x2d
 3400 072f C0020000 		.4byte	0x2c0
ARM GAS  C:\Users\CHUCK~1.ERH\AppData\Local\Temp\ccby6rnL.s 			page 92


 3401 0733 01       		.byte	0x1
 3402 0734 55       		.byte	0x55
 3403 0735 2E       		.uleb128 0x2e
 3404 0736 78020000 		.4byte	0x278
 3405 073a 00       		.byte	0
 3406 073b 2F       		.uleb128 0x2f
 3407 073c 9C060000 		.4byte	0x69c
 3408 0740 04000000 		.4byte	.LBB10
 3409 0744 00000000 		.4byte	.Ldebug_ranges0+0
 3410 0748 01       		.byte	0x1
 3411 0749 7003     		.2byte	0x370
 3412 074b 69070000 		.4byte	0x769
 3413 074f 2B       		.uleb128 0x2b
 3414 0750 AE060000 		.4byte	0x6ae
 3415 0754 4C040000 		.4byte	.LLST31
 3416 0758 22       		.uleb128 0x22
 3417 0759 1A000000 		.4byte	.LVL44
 3418 075d 39060000 		.4byte	0x639
 3419 0761 1C       		.uleb128 0x1c
 3420 0762 01       		.byte	0x1
 3421 0763 50       		.byte	0x50
 3422 0764 02       		.byte	0x2
 3423 0765 77       		.byte	0x77
 3424 0766 00       		.sleb128 0
 3425 0767 00       		.byte	0
 3426 0768 00       		.byte	0
 3427 0769 2F       		.uleb128 0x2f
 3428 076a BB060000 		.4byte	0x6bb
 3429 076e 5A000000 		.4byte	.LBB18
 3430 0772 28000000 		.4byte	.Ldebug_ranges0+0x28
 3431 0776 01       		.byte	0x1
 3432 0777 9103     		.2byte	0x391
 3433 0779 A9070000 		.4byte	0x7a9
 3434 077d 30       		.uleb128 0x30
 3435 077e D5060000 		.4byte	0x6d5
 3436 0782 06       		.byte	0x6
 3437 0783 78       		.byte	0x78
 3438 0784 00       		.sleb128 0
 3439 0785 74       		.byte	0x74
 3440 0786 00       		.sleb128 0
 3441 0787 22       		.byte	0x22
 3442 0788 9F       		.byte	0x9f
 3443 0789 31       		.uleb128 0x31
 3444 078a C9060000 		.4byte	0x6c9
 3445 078e 1D       		.uleb128 0x1d
 3446 078f 66000000 		.4byte	.LVL54
 3447 0793 01       		.byte	0x1
 3448 0794 EC030000 		.4byte	0x3ec
 3449 0798 1C       		.uleb128 0x1c
 3450 0799 01       		.byte	0x1
 3451 079a 51       		.byte	0x51
 3452 079b 05       		.byte	0x5
 3453 079c 78       		.byte	0x78
 3454 079d 00       		.sleb128 0
 3455 079e 74       		.byte	0x74
 3456 079f 00       		.sleb128 0
 3457 07a0 22       		.byte	0x22
ARM GAS  C:\Users\CHUCK~1.ERH\AppData\Local\Temp\ccby6rnL.s 			page 93


 3458 07a1 1C       		.uleb128 0x1c
 3459 07a2 01       		.byte	0x1
 3460 07a3 50       		.byte	0x50
 3461 07a4 02       		.byte	0x2
 3462 07a5 77       		.byte	0x77
 3463 07a6 00       		.sleb128 0
 3464 07a7 00       		.byte	0
 3465 07a8 00       		.byte	0
 3466 07a9 1B       		.uleb128 0x1b
 3467 07aa 46000000 		.4byte	.LVL50
 3468 07ae C9040000 		.4byte	0x4c9
 3469 07b2 D0070000 		.4byte	0x7d0
 3470 07b6 1C       		.uleb128 0x1c
 3471 07b7 01       		.byte	0x1
 3472 07b8 52       		.byte	0x52
 3473 07b9 02       		.byte	0x2
 3474 07ba 75       		.byte	0x75
 3475 07bb 00       		.sleb128 0
 3476 07bc 1C       		.uleb128 0x1c
 3477 07bd 01       		.byte	0x1
 3478 07be 51       		.byte	0x51
 3479 07bf 02       		.byte	0x2
 3480 07c0 76       		.byte	0x76
 3481 07c1 00       		.sleb128 0
 3482 07c2 1C       		.uleb128 0x1c
 3483 07c3 01       		.byte	0x1
 3484 07c4 50       		.byte	0x50
 3485 07c5 09       		.byte	0x9
 3486 07c6 78       		.byte	0x78
 3487 07c7 00       		.sleb128 0
 3488 07c8 45       		.byte	0x45
 3489 07c9 24       		.byte	0x24
 3490 07ca 45       		.byte	0x45
 3491 07cb 25       		.byte	0x25
 3492 07cc 79       		.byte	0x79
 3493 07cd 00       		.sleb128 0
 3494 07ce 22       		.byte	0x22
 3495 07cf 00       		.byte	0
 3496 07d0 1A       		.uleb128 0x1a
 3497 07d1 56000000 		.4byte	.LVL53
 3498 07d5 C9040000 		.4byte	0x4c9
 3499 07d9 00       		.byte	0
 3500 07da 13       		.uleb128 0x13
 3501 07db AF030000 		.4byte	.LASF50
 3502 07df 01       		.byte	0x1
 3503 07e0 0403     		.2byte	0x304
 3504 07e2 01       		.byte	0x1
 3505 07e3 7A000000 		.4byte	0x7a
 3506 07e7 01       		.byte	0x1
 3507 07e8 F9070000 		.4byte	0x7f9
 3508 07ec 0B       		.uleb128 0xb
 3509 07ed 89000000 		.4byte	.LASF22
 3510 07f1 01       		.byte	0x1
 3511 07f2 0403     		.2byte	0x304
 3512 07f4 6F000000 		.4byte	0x6f
 3513 07f8 00       		.byte	0
 3514 07f9 28       		.uleb128 0x28
ARM GAS  C:\Users\CHUCK~1.ERH\AppData\Local\Temp\ccby6rnL.s 			page 94


 3515 07fa B8060000 		.4byte	.LASF51
 3516 07fe 01       		.byte	0x1
 3517 07ff 4503     		.2byte	0x345
 3518 0801 01       		.byte	0x1
 3519 0802 7A000000 		.4byte	0x7a
 3520 0806 00000000 		.4byte	.LFB71
 3521 080a 26000000 		.4byte	.LFE71
 3522 080e 6A040000 		.4byte	.LLST32
 3523 0812 01       		.byte	0x1
 3524 0813 98080000 		.4byte	0x898
 3525 0817 1F       		.uleb128 0x1f
 3526 0818 89000000 		.4byte	.LASF22
 3527 081c 01       		.byte	0x1
 3528 081d 4503     		.2byte	0x345
 3529 081f 6F000000 		.4byte	0x6f
 3530 0823 8A040000 		.4byte	.LLST33
 3531 0827 21       		.uleb128 0x21
 3532 0828 BC050000 		.4byte	.LASF52
 3533 082c 01       		.byte	0x1
 3534 082d 4703     		.2byte	0x347
 3535 082f 7A000000 		.4byte	0x7a
 3536 0833 AB040000 		.4byte	.LLST34
 3537 0837 21       		.uleb128 0x21
 3538 0838 CE010000 		.4byte	.LASF53
 3539 083c 01       		.byte	0x1
 3540 083d 4703     		.2byte	0x347
 3541 083f 7A000000 		.4byte	0x7a
 3542 0843 BF040000 		.4byte	.LLST35
 3543 0847 2F       		.uleb128 0x2f
 3544 0848 DA070000 		.4byte	0x7da
 3545 084c 00000000 		.4byte	.LBB26
 3546 0850 40000000 		.4byte	.Ldebug_ranges0+0x40
 3547 0854 01       		.byte	0x1
 3548 0855 4C03     		.2byte	0x34c
 3549 0857 71080000 		.4byte	0x871
 3550 085b 31       		.uleb128 0x31
 3551 085c EC070000 		.4byte	0x7ec
 3552 0860 22       		.uleb128 0x22
 3553 0861 12000000 		.4byte	.LVL58
 3554 0865 39060000 		.4byte	0x639
 3555 0869 1C       		.uleb128 0x1c
 3556 086a 01       		.byte	0x1
 3557 086b 50       		.byte	0x50
 3558 086c 02       		.byte	0x2
 3559 086d 75       		.byte	0x75
 3560 086e 00       		.sleb128 0
 3561 086f 00       		.byte	0
 3562 0870 00       		.byte	0
 3563 0871 32       		.uleb128 0x32
 3564 0872 DA070000 		.4byte	0x7da
 3565 0876 16000000 		.4byte	.LBB30
 3566 087a 1E000000 		.4byte	.LBE30
 3567 087e 01       		.byte	0x1
 3568 087f 4E03     		.2byte	0x34e
 3569 0881 31       		.uleb128 0x31
 3570 0882 EC070000 		.4byte	0x7ec
 3571 0886 22       		.uleb128 0x22
ARM GAS  C:\Users\CHUCK~1.ERH\AppData\Local\Temp\ccby6rnL.s 			page 95


 3572 0887 1C000000 		.4byte	.LVL59
 3573 088b 39060000 		.4byte	0x639
 3574 088f 1C       		.uleb128 0x1c
 3575 0890 01       		.byte	0x1
 3576 0891 50       		.byte	0x50
 3577 0892 02       		.byte	0x2
 3578 0893 75       		.byte	0x75
 3579 0894 00       		.sleb128 0
 3580 0895 00       		.byte	0
 3581 0896 00       		.byte	0
 3582 0897 00       		.byte	0
 3583 0898 1E       		.uleb128 0x1e
 3584 0899 0D000000 		.4byte	.LASF54
 3585 089d 01       		.byte	0x1
 3586 089e 6001     		.2byte	0x160
 3587 08a0 01       		.byte	0x1
 3588 08a1 00000000 		.4byte	.LFB10
 3589 08a5 1E000000 		.4byte	.LFE10
 3590 08a9 DE040000 		.4byte	.LLST36
 3591 08ad 01       		.byte	0x1
 3592 08ae 06090000 		.4byte	0x906
 3593 08b2 1F       		.uleb128 0x1f
 3594 08b3 0E010000 		.4byte	.LASF23
 3595 08b7 01       		.byte	0x1
 3596 08b8 6001     		.2byte	0x160
 3597 08ba 7A000000 		.4byte	0x7a
 3598 08be FE040000 		.4byte	.LLST37
 3599 08c2 1F       		.uleb128 0x1f
 3600 08c3 40060000 		.4byte	.LASF27
 3601 08c7 01       		.byte	0x1
 3602 08c8 6001     		.2byte	0x160
 3603 08ca 62010000 		.4byte	0x162
 3604 08ce 1F050000 		.4byte	.LLST38
 3605 08d2 1F       		.uleb128 0x1f
 3606 08d3 D6050000 		.4byte	.LASF36
 3607 08d7 01       		.byte	0x1
 3608 08d8 6001     		.2byte	0x160
 3609 08da 7A000000 		.4byte	0x7a
 3610 08de 3D050000 		.4byte	.LLST39
 3611 08e2 21       		.uleb128 0x21
 3612 08e3 02060000 		.4byte	.LASF26
 3613 08e7 01       		.byte	0x1
 3614 08e8 6201     		.2byte	0x162
 3615 08ea 61000000 		.4byte	0x61
 3616 08ee 5E050000 		.4byte	.LLST40
 3617 08f2 22       		.uleb128 0x22
 3618 08f3 16000000 		.4byte	.LVL63
 3619 08f7 37050000 		.4byte	0x537
 3620 08fb 1C       		.uleb128 0x1c
 3621 08fc 01       		.byte	0x1
 3622 08fd 50       		.byte	0x50
 3623 08fe 05       		.byte	0x5
 3624 08ff 75       		.byte	0x75
 3625 0900 00       		.sleb128 0
 3626 0901 74       		.byte	0x74
 3627 0902 00       		.sleb128 0
 3628 0903 22       		.byte	0x22
ARM GAS  C:\Users\CHUCK~1.ERH\AppData\Local\Temp\ccby6rnL.s 			page 96


 3629 0904 00       		.byte	0
 3630 0905 00       		.byte	0
 3631 0906 13       		.uleb128 0x13
 3632 0907 1C030000 		.4byte	.LASF55
 3633 090b 01       		.byte	0x1
 3634 090c 1403     		.2byte	0x314
 3635 090e 01       		.byte	0x1
 3636 090f 7A000000 		.4byte	0x7a
 3637 0913 01       		.byte	0x1
 3638 0914 25090000 		.4byte	0x925
 3639 0918 0B       		.uleb128 0xb
 3640 0919 89000000 		.4byte	.LASF22
 3641 091d 01       		.byte	0x1
 3642 091e 1403     		.2byte	0x314
 3643 0920 6F000000 		.4byte	0x6f
 3644 0924 00       		.byte	0
 3645 0925 10       		.uleb128 0x10
 3646 0926 4F010000 		.4byte	.LASF56
 3647 092a 01       		.byte	0x1
 3648 092b 0C03     		.2byte	0x30c
 3649 092d 01       		.byte	0x1
 3650 092e 01       		.byte	0x1
 3651 092f 4C090000 		.4byte	0x94c
 3652 0933 0B       		.uleb128 0xb
 3653 0934 89000000 		.4byte	.LASF22
 3654 0938 01       		.byte	0x1
 3655 0939 0C03     		.2byte	0x30c
 3656 093b 6F000000 		.4byte	0x6f
 3657 093f 11       		.uleb128 0x11
 3658 0940 70747200 		.ascii	"ptr\000"
 3659 0944 01       		.byte	0x1
 3660 0945 0C03     		.2byte	0x30c
 3661 0947 7A000000 		.4byte	0x7a
 3662 094b 00       		.byte	0
 3663 094c 2A       		.uleb128 0x2a
 3664 094d CD020000 		.4byte	0x2cd
 3665 0951 00000000 		.4byte	.LFB109
 3666 0955 4E000000 		.4byte	.LFE109
 3667 0959 7D050000 		.4byte	.LLST41
 3668 095d 01       		.byte	0x1
 3669 095e 080A0000 		.4byte	0xa08
 3670 0962 2B       		.uleb128 0x2b
 3671 0963 DB020000 		.4byte	0x2db
 3672 0967 9D050000 		.4byte	.LLST42
 3673 096b 2B       		.uleb128 0x2b
 3674 096c E7020000 		.4byte	0x2e7
 3675 0970 BE050000 		.4byte	.LLST43
 3676 0974 2B       		.uleb128 0x2b
 3677 0975 F3020000 		.4byte	0x2f3
 3678 0979 DF050000 		.4byte	.LLST44
 3679 097d 2B       		.uleb128 0x2b
 3680 097e FF020000 		.4byte	0x2ff
 3681 0982 13060000 		.4byte	.LLST45
 3682 0986 2C       		.uleb128 0x2c
 3683 0987 17030000 		.4byte	0x317
 3684 098b 34060000 		.4byte	.LLST46
 3685 098f 2C       		.uleb128 0x2c
ARM GAS  C:\Users\CHUCK~1.ERH\AppData\Local\Temp\ccby6rnL.s 			page 97


 3686 0990 23030000 		.4byte	0x323
 3687 0994 5D060000 		.4byte	.LLST47
 3688 0998 2C       		.uleb128 0x2c
 3689 0999 2F030000 		.4byte	0x32f
 3690 099d 75060000 		.4byte	.LLST48
 3691 09a1 2C       		.uleb128 0x2c
 3692 09a2 3B030000 		.4byte	0x33b
 3693 09a6 A6060000 		.4byte	.LLST49
 3694 09aa 2E       		.uleb128 0x2e
 3695 09ab 0B030000 		.4byte	0x30b
 3696 09af 00       		.byte	0
 3697 09b0 2F       		.uleb128 0x2f
 3698 09b1 06090000 		.4byte	0x906
 3699 09b5 04000000 		.4byte	.LBB36
 3700 09b9 58000000 		.4byte	.Ldebug_ranges0+0x58
 3701 09bd 01       		.byte	0x1
 3702 09be A803     		.2byte	0x3a8
 3703 09c0 E3090000 		.4byte	0x9e3
 3704 09c4 2B       		.uleb128 0x2b
 3705 09c5 18090000 		.4byte	0x918
 3706 09c9 DA060000 		.4byte	.LLST50
 3707 09cd 22       		.uleb128 0x22
 3708 09ce 16000000 		.4byte	.LVL68
 3709 09d2 39060000 		.4byte	0x639
 3710 09d6 1C       		.uleb128 0x1c
 3711 09d7 01       		.byte	0x1
 3712 09d8 50       		.byte	0x50
 3713 09d9 07       		.byte	0x7
 3714 09da 77       		.byte	0x77
 3715 09db 00       		.sleb128 0
 3716 09dc 38       		.byte	0x38
 3717 09dd 24       		.byte	0x24
 3718 09de 23       		.byte	0x23
 3719 09df A808     		.uleb128 0x428
 3720 09e1 00       		.byte	0
 3721 09e2 00       		.byte	0
 3722 09e3 1B       		.uleb128 0x1b
 3723 09e4 3A000000 		.4byte	.LVL74
 3724 09e8 98080000 		.4byte	0x898
 3725 09ec FD090000 		.4byte	0x9fd
 3726 09f0 1C       		.uleb128 0x1c
 3727 09f1 01       		.byte	0x1
 3728 09f2 52       		.byte	0x52
 3729 09f3 02       		.byte	0x2
 3730 09f4 74       		.byte	0x74
 3731 09f5 00       		.sleb128 0
 3732 09f6 1C       		.uleb128 0x1c
 3733 09f7 01       		.byte	0x1
 3734 09f8 51       		.byte	0x51
 3735 09f9 02       		.byte	0x2
 3736 09fa 75       		.byte	0x75
 3737 09fb 00       		.sleb128 0
 3738 09fc 00       		.byte	0
 3739 09fd 27       		.uleb128 0x27
 3740 09fe 4E000000 		.4byte	.LVL77
 3741 0a02 01       		.byte	0x1
 3742 0a03 98080000 		.4byte	0x898
ARM GAS  C:\Users\CHUCK~1.ERH\AppData\Local\Temp\ccby6rnL.s 			page 98


 3743 0a07 00       		.byte	0
 3744 0a08 10       		.uleb128 0x10
 3745 0a09 94040000 		.4byte	.LASF57
 3746 0a0d 01       		.byte	0x1
 3747 0a0e 2C02     		.2byte	0x22c
 3748 0a10 01       		.byte	0x1
 3749 0a11 01       		.byte	0x1
 3750 0a12 2F0A0000 		.4byte	0xa2f
 3751 0a16 0B       		.uleb128 0xb
 3752 0a17 89000000 		.4byte	.LASF22
 3753 0a1b 01       		.byte	0x1
 3754 0a1c 2C02     		.2byte	0x22c
 3755 0a1e 6F000000 		.4byte	0x6f
 3756 0a22 11       		.uleb128 0x11
 3757 0a23 636D6400 		.ascii	"cmd\000"
 3758 0a27 01       		.byte	0x1
 3759 0a28 2C02     		.2byte	0x22c
 3760 0a2a 6F000000 		.4byte	0x6f
 3761 0a2e 00       		.byte	0
 3762 0a2f 13       		.uleb128 0x13
 3763 0a30 2A060000 		.4byte	.LASF58
 3764 0a34 01       		.byte	0x1
 3765 0a35 3402     		.2byte	0x234
 3766 0a37 01       		.byte	0x1
 3767 0a38 6F000000 		.4byte	0x6f
 3768 0a3c 01       		.byte	0x1
 3769 0a3d 4E0A0000 		.4byte	0xa4e
 3770 0a41 0B       		.uleb128 0xb
 3771 0a42 89000000 		.4byte	.LASF22
 3772 0a46 01       		.byte	0x1
 3773 0a47 3402     		.2byte	0x234
 3774 0a49 6F000000 		.4byte	0x6f
 3775 0a4d 00       		.byte	0
 3776 0a4e 28       		.uleb128 0x28
 3777 0a4f 13010000 		.4byte	.LASF59
 3778 0a53 01       		.byte	0x1
 3779 0a54 1C03     		.2byte	0x31c
 3780 0a56 01       		.byte	0x1
 3781 0a57 85000000 		.4byte	0x85
 3782 0a5b 00000000 		.4byte	.LFB69
 3783 0a5f 2E000000 		.4byte	.LFE69
 3784 0a63 F8060000 		.4byte	.LLST51
 3785 0a67 01       		.byte	0x1
 3786 0a68 140B0000 		.4byte	0xb14
 3787 0a6c 1F       		.uleb128 0x1f
 3788 0a6d 89000000 		.4byte	.LASF22
 3789 0a71 01       		.byte	0x1
 3790 0a72 1C03     		.2byte	0x31c
 3791 0a74 6F000000 		.4byte	0x6f
 3792 0a78 18070000 		.4byte	.LLST52
 3793 0a7c 20       		.uleb128 0x20
 3794 0a7d 636D6400 		.ascii	"cmd\000"
 3795 0a81 01       		.byte	0x1
 3796 0a82 1C03     		.2byte	0x31c
 3797 0a84 61000000 		.4byte	0x61
 3798 0a88 39070000 		.4byte	.LLST53
 3799 0a8c 21       		.uleb128 0x21
ARM GAS  C:\Users\CHUCK~1.ERH\AppData\Local\Temp\ccby6rnL.s 			page 99


 3800 0a8d E8020000 		.4byte	.LASF60
 3801 0a91 01       		.byte	0x1
 3802 0a92 1E03     		.2byte	0x31e
 3803 0a94 85000000 		.4byte	0x85
 3804 0a98 5A070000 		.4byte	.LLST54
 3805 0a9c 2F       		.uleb128 0x2f
 3806 0a9d 080A0000 		.4byte	0xa08
 3807 0aa1 00000000 		.4byte	.LBB46
 3808 0aa5 78000000 		.4byte	.Ldebug_ranges0+0x78
 3809 0aa9 01       		.byte	0x1
 3810 0aaa 2103     		.2byte	0x321
 3811 0aac DA0A0000 		.4byte	0xada
 3812 0ab0 2B       		.uleb128 0x2b
 3813 0ab1 220A0000 		.4byte	0xa22
 3814 0ab5 79070000 		.4byte	.LLST55
 3815 0ab9 2B       		.uleb128 0x2b
 3816 0aba 160A0000 		.4byte	0xa16
 3817 0abe 18070000 		.4byte	.LLST52
 3818 0ac2 22       		.uleb128 0x22
 3819 0ac3 12000000 		.4byte	.LVL81
 3820 0ac7 48030000 		.4byte	0x348
 3821 0acb 1C       		.uleb128 0x1c
 3822 0acc 01       		.byte	0x1
 3823 0acd 51       		.byte	0x51
 3824 0ace 03       		.byte	0x3
 3825 0acf F3       		.byte	0xf3
 3826 0ad0 01       		.uleb128 0x1
 3827 0ad1 51       		.byte	0x51
 3828 0ad2 1C       		.uleb128 0x1c
 3829 0ad3 01       		.byte	0x1
 3830 0ad4 50       		.byte	0x50
 3831 0ad5 02       		.byte	0x2
 3832 0ad6 75       		.byte	0x75
 3833 0ad7 00       		.sleb128 0
 3834 0ad8 00       		.byte	0
 3835 0ad9 00       		.byte	0
 3836 0ada 33       		.uleb128 0x33
 3837 0adb 2F0A0000 		.4byte	0xa2f
 3838 0adf 14000000 		.4byte	.LBB50
 3839 0ae3 1A000000 		.4byte	.LBE50
 3840 0ae7 01       		.byte	0x1
 3841 0ae8 2203     		.2byte	0x322
 3842 0aea 040B0000 		.4byte	0xb04
 3843 0aee 31       		.uleb128 0x31
 3844 0aef 410A0000 		.4byte	0xa41
 3845 0af3 22       		.uleb128 0x22
 3846 0af4 1A000000 		.4byte	.LVL83
 3847 0af8 37050000 		.4byte	0x537
 3848 0afc 1C       		.uleb128 0x1c
 3849 0afd 01       		.byte	0x1
 3850 0afe 50       		.byte	0x50
 3851 0aff 02       		.byte	0x2
 3852 0b00 75       		.byte	0x75
 3853 0b01 00       		.sleb128 0
 3854 0b02 00       		.byte	0
 3855 0b03 00       		.byte	0
 3856 0b04 22       		.uleb128 0x22
ARM GAS  C:\Users\CHUCK~1.ERH\AppData\Local\Temp\ccby6rnL.s 			page 100


 3857 0b05 28000000 		.4byte	.LVL85
 3858 0b09 C41F0000 		.4byte	0x1fc4
 3859 0b0d 1C       		.uleb128 0x1c
 3860 0b0e 01       		.byte	0x1
 3861 0b0f 50       		.byte	0x50
 3862 0b10 01       		.byte	0x1
 3863 0b11 31       		.byte	0x31
 3864 0b12 00       		.byte	0
 3865 0b13 00       		.byte	0
 3866 0b14 10       		.uleb128 0x10
 3867 0b15 95060000 		.4byte	.LASF61
 3868 0b19 01       		.byte	0x1
 3869 0b1a 8C01     		.2byte	0x18c
 3870 0b1c 01       		.byte	0x1
 3871 0b1d 01       		.byte	0x1
 3872 0b1e 2E0B0000 		.4byte	0xb2e
 3873 0b22 11       		.uleb128 0x11
 3874 0b23 697000   		.ascii	"ip\000"
 3875 0b26 01       		.byte	0x1
 3876 0b27 8C01     		.2byte	0x18c
 3877 0b29 85000000 		.4byte	0x85
 3878 0b2d 00       		.byte	0
 3879 0b2e 13       		.uleb128 0x13
 3880 0b2f 77050000 		.4byte	.LASF62
 3881 0b33 01       		.byte	0x1
 3882 0b34 4402     		.2byte	0x244
 3883 0b36 01       		.byte	0x1
 3884 0b37 6F000000 		.4byte	0x6f
 3885 0b3b 01       		.byte	0x1
 3886 0b3c 4D0B0000 		.4byte	0xb4d
 3887 0b40 0B       		.uleb128 0xb
 3888 0b41 89000000 		.4byte	.LASF22
 3889 0b45 01       		.byte	0x1
 3890 0b46 4402     		.2byte	0x244
 3891 0b48 6F000000 		.4byte	0x6f
 3892 0b4c 00       		.byte	0
 3893 0b4d 10       		.uleb128 0x10
 3894 0b4e 58020000 		.4byte	.LASF63
 3895 0b52 01       		.byte	0x1
 3896 0b53 3C02     		.2byte	0x23c
 3897 0b55 01       		.byte	0x1
 3898 0b56 01       		.byte	0x1
 3899 0b57 730B0000 		.4byte	0xb73
 3900 0b5b 0B       		.uleb128 0xb
 3901 0b5c 89000000 		.4byte	.LASF22
 3902 0b60 01       		.byte	0x1
 3903 0b61 3C02     		.2byte	0x23c
 3904 0b63 6F000000 		.4byte	0x6f
 3905 0b67 11       		.uleb128 0x11
 3906 0b68 697200   		.ascii	"ir\000"
 3907 0b6b 01       		.byte	0x1
 3908 0b6c 3C02     		.2byte	0x23c
 3909 0b6e 6F000000 		.4byte	0x6f
 3910 0b72 00       		.byte	0
 3911 0b73 1E       		.uleb128 0x1e
 3912 0b74 A8060000 		.4byte	.LASF64
 3913 0b78 01       		.byte	0x1
ARM GAS  C:\Users\CHUCK~1.ERH\AppData\Local\Temp\ccby6rnL.s 			page 101


 3914 0b79 B904     		.2byte	0x4b9
 3915 0b7b 01       		.byte	0x1
 3916 0b7c 00000000 		.4byte	.LFB85
 3917 0b80 4C000000 		.4byte	.LFE85
 3918 0b84 9A070000 		.4byte	.LLST57
 3919 0b88 01       		.byte	0x1
 3920 0b89 B00C0000 		.4byte	0xcb0
 3921 0b8d 1F       		.uleb128 0x1f
 3922 0b8e 89000000 		.4byte	.LASF22
 3923 0b92 01       		.byte	0x1
 3924 0b93 B904     		.2byte	0x4b9
 3925 0b95 6F000000 		.4byte	0x6f
 3926 0b99 BA070000 		.4byte	.LLST58
 3927 0b9d 29       		.uleb128 0x29
 3928 0b9e 697200   		.ascii	"ir\000"
 3929 0ba1 01       		.byte	0x1
 3930 0ba2 BB04     		.2byte	0x4bb
 3931 0ba4 6F000000 		.4byte	0x6f
 3932 0ba8 DB070000 		.4byte	.LLST59
 3933 0bac 2F       		.uleb128 0x2f
 3934 0bad 140B0000 		.4byte	0xb14
 3935 0bb1 00000000 		.4byte	.LBB62
 3936 0bb5 90000000 		.4byte	.Ldebug_ranges0+0x90
 3937 0bb9 01       		.byte	0x1
 3938 0bba BE04     		.2byte	0x4be
 3939 0bbc D90B0000 		.4byte	0xbd9
 3940 0bc0 2B       		.uleb128 0x2b
 3941 0bc1 220B0000 		.4byte	0xb22
 3942 0bc5 F9070000 		.4byte	.LLST60
 3943 0bc9 22       		.uleb128 0x22
 3944 0bca 0E000000 		.4byte	.LVL88
 3945 0bce 5A040000 		.4byte	0x45a
 3946 0bd2 1C       		.uleb128 0x1c
 3947 0bd3 01       		.byte	0x1
 3948 0bd4 50       		.byte	0x50
 3949 0bd5 01       		.byte	0x1
 3950 0bd6 35       		.byte	0x35
 3951 0bd7 00       		.byte	0
 3952 0bd8 00       		.byte	0
 3953 0bd9 33       		.uleb128 0x33
 3954 0bda 2E0B0000 		.4byte	0xb2e
 3955 0bde 16000000 		.4byte	.LBB68
 3956 0be2 1E000000 		.4byte	.LBE68
 3957 0be6 01       		.byte	0x1
 3958 0be7 C204     		.2byte	0x4c2
 3959 0be9 F70B0000 		.4byte	0xbf7
 3960 0bed 2B       		.uleb128 0x2b
 3961 0bee 400B0000 		.4byte	0xb40
 3962 0bf2 10080000 		.4byte	.LLST61
 3963 0bf6 00       		.byte	0
 3964 0bf7 33       		.uleb128 0x33
 3965 0bf8 2E0B0000 		.4byte	0xb2e
 3966 0bfc 1E000000 		.4byte	.LBB70
 3967 0c00 24000000 		.4byte	.LBE70
 3968 0c04 01       		.byte	0x1
 3969 0c05 C604     		.2byte	0x4c6
 3970 0c07 210C0000 		.4byte	0xc21
ARM GAS  C:\Users\CHUCK~1.ERH\AppData\Local\Temp\ccby6rnL.s 			page 102


 3971 0c0b 31       		.uleb128 0x31
 3972 0c0c 400B0000 		.4byte	0xb40
 3973 0c10 22       		.uleb128 0x22
 3974 0c11 24000000 		.4byte	.LVL91
 3975 0c15 37050000 		.4byte	0x537
 3976 0c19 1C       		.uleb128 0x1c
 3977 0c1a 01       		.byte	0x1
 3978 0c1b 50       		.byte	0x50
 3979 0c1c 02       		.byte	0x2
 3980 0c1d 74       		.byte	0x74
 3981 0c1e 00       		.sleb128 0
 3982 0c1f 00       		.byte	0
 3983 0c20 00       		.byte	0
 3984 0c21 33       		.uleb128 0x33
 3985 0c22 4D0B0000 		.4byte	0xb4d
 3986 0c26 32000000 		.4byte	.LBB72
 3987 0c2a 3A000000 		.4byte	.LBE72
 3988 0c2e 01       		.byte	0x1
 3989 0c2f CA04     		.2byte	0x4ca
 3990 0c31 560C0000 		.4byte	0xc56
 3991 0c35 2E       		.uleb128 0x2e
 3992 0c36 670B0000 		.4byte	0xb67
 3993 0c3a 10       		.byte	0x10
 3994 0c3b 31       		.uleb128 0x31
 3995 0c3c 5B0B0000 		.4byte	0xb5b
 3996 0c40 22       		.uleb128 0x22
 3997 0c41 3A000000 		.4byte	.LVL96
 3998 0c45 48030000 		.4byte	0x348
 3999 0c49 1C       		.uleb128 0x1c
 4000 0c4a 01       		.byte	0x1
 4001 0c4b 51       		.byte	0x51
 4002 0c4c 01       		.byte	0x1
 4003 0c4d 40       		.byte	0x40
 4004 0c4e 1C       		.uleb128 0x1c
 4005 0c4f 01       		.byte	0x1
 4006 0c50 50       		.byte	0x50
 4007 0c51 02       		.byte	0x2
 4008 0c52 74       		.byte	0x74
 4009 0c53 00       		.sleb128 0
 4010 0c54 00       		.byte	0
 4011 0c55 00       		.byte	0
 4012 0c56 2F       		.uleb128 0x2f
 4013 0c57 140B0000 		.4byte	0xb14
 4014 0c5b 3A000000 		.4byte	.LBB74
 4015 0c5f B0000000 		.4byte	.Ldebug_ranges0+0xb0
 4016 0c63 01       		.byte	0x1
 4017 0c64 CC04     		.2byte	0x4cc
 4018 0c66 860C0000 		.4byte	0xc86
 4019 0c6a 2E       		.uleb128 0x2e
 4020 0c6b 220B0000 		.4byte	0xb22
 4021 0c6f 00       		.byte	0
 4022 0c70 1D       		.uleb128 0x1d
 4023 0c71 46000000 		.4byte	.LVL97
 4024 0c75 01       		.byte	0x1
 4025 0c76 5A040000 		.4byte	0x45a
 4026 0c7a 1C       		.uleb128 0x1c
 4027 0c7b 01       		.byte	0x1
ARM GAS  C:\Users\CHUCK~1.ERH\AppData\Local\Temp\ccby6rnL.s 			page 103


 4028 0c7c 51       		.byte	0x51
 4029 0c7d 01       		.byte	0x1
 4030 0c7e 30       		.byte	0x30
 4031 0c7f 1C       		.uleb128 0x1c
 4032 0c80 01       		.byte	0x1
 4033 0c81 50       		.byte	0x50
 4034 0c82 01       		.byte	0x1
 4035 0c83 35       		.byte	0x35
 4036 0c84 00       		.byte	0
 4037 0c85 00       		.byte	0
 4038 0c86 1B       		.uleb128 0x1b
 4039 0c87 16000000 		.4byte	.LVL89
 4040 0c8b 4E0A0000 		.4byte	0xa4e
 4041 0c8f A00C0000 		.4byte	0xca0
 4042 0c93 1C       		.uleb128 0x1c
 4043 0c94 01       		.byte	0x1
 4044 0c95 51       		.byte	0x51
 4045 0c96 02       		.byte	0x2
 4046 0c97 08       		.byte	0x8
 4047 0c98 20       		.byte	0x20
 4048 0c99 1C       		.uleb128 0x1c
 4049 0c9a 01       		.byte	0x1
 4050 0c9b 50       		.byte	0x50
 4051 0c9c 02       		.byte	0x2
 4052 0c9d 74       		.byte	0x74
 4053 0c9e 00       		.sleb128 0
 4054 0c9f 00       		.byte	0
 4055 0ca0 22       		.uleb128 0x22
 4056 0ca1 30000000 		.4byte	.LVL93
 4057 0ca5 C41F0000 		.4byte	0x1fc4
 4058 0ca9 1C       		.uleb128 0x1c
 4059 0caa 01       		.byte	0x1
 4060 0cab 50       		.byte	0x50
 4061 0cac 01       		.byte	0x1
 4062 0cad 31       		.byte	0x31
 4063 0cae 00       		.byte	0
 4064 0caf 00       		.byte	0
 4065 0cb0 34       		.uleb128 0x34
 4066 0cb1 01       		.byte	0x1
 4067 0cb2 F0020000 		.4byte	.LASF66
 4068 0cb6 01       		.byte	0x1
 4069 0cb7 1204     		.2byte	0x412
 4070 0cb9 01       		.byte	0x1
 4071 0cba 85000000 		.4byte	0x85
 4072 0cbe 00000000 		.4byte	.LFB76
 4073 0cc2 9E000000 		.4byte	.LFE76
 4074 0cc6 23080000 		.4byte	.LLST62
 4075 0cca 01       		.byte	0x1
 4076 0ccb 3D0D0000 		.4byte	0xd3d
 4077 0ccf 1F       		.uleb128 0x1f
 4078 0cd0 A8050000 		.4byte	.LASF67
 4079 0cd4 01       		.byte	0x1
 4080 0cd5 1204     		.2byte	0x412
 4081 0cd7 AC000000 		.4byte	0xac
 4082 0cdb 4F080000 		.4byte	.LLST63
 4083 0cdf 21       		.uleb128 0x21
 4084 0ce0 02060000 		.4byte	.LASF26
ARM GAS  C:\Users\CHUCK~1.ERH\AppData\Local\Temp\ccby6rnL.s 			page 104


 4085 0ce4 01       		.byte	0x1
 4086 0ce5 1704     		.2byte	0x417
 4087 0ce7 61000000 		.4byte	0x61
 4088 0ceb 6D080000 		.4byte	.LLST64
 4089 0cef 35       		.uleb128 0x35
 4090 0cf0 9C010000 		.4byte	.LASF68
 4091 0cf4 01       		.byte	0x1
 4092 0cf5 1804     		.2byte	0x418
 4093 0cf7 3D0D0000 		.4byte	0xd3d
 4094 0cfb 02       		.byte	0x2
 4095 0cfc 91       		.byte	0x91
 4096 0cfd 60       		.sleb128 -32
 4097 0cfe 36       		.uleb128 0x36
 4098 0cff 697000   		.ascii	"ip\000"
 4099 0d02 01       		.byte	0x1
 4100 0d03 1904     		.2byte	0x419
 4101 0d05 DD010000 		.4byte	0x1dd
 4102 0d09 02       		.byte	0x2
 4103 0d0a 91       		.byte	0x91
 4104 0d0b 5C       		.sleb128 -36
 4105 0d0c 21       		.uleb128 0x21
 4106 0d0d 6F050000 		.4byte	.LASF69
 4107 0d11 01       		.byte	0x1
 4108 0d12 1A04     		.2byte	0x41a
 4109 0d14 61000000 		.4byte	0x61
 4110 0d18 8C080000 		.4byte	.LLST65
 4111 0d1c 21       		.uleb128 0x21
 4112 0d1d EC010000 		.4byte	.LASF70
 4113 0d21 01       		.byte	0x1
 4114 0d22 1B04     		.2byte	0x41b
 4115 0d24 61000000 		.4byte	0x61
 4116 0d28 AB080000 		.4byte	.LLST66
 4117 0d2c 22       		.uleb128 0x22
 4118 0d2d 12000000 		.4byte	.LVL100
 4119 0d31 D81F0000 		.4byte	0x1fd8
 4120 0d35 1C       		.uleb128 0x1c
 4121 0d36 01       		.byte	0x1
 4122 0d37 50       		.byte	0x50
 4123 0d38 02       		.byte	0x2
 4124 0d39 77       		.byte	0x77
 4125 0d3a 00       		.sleb128 0
 4126 0d3b 00       		.byte	0
 4127 0d3c 00       		.byte	0
 4128 0d3d 15       		.uleb128 0x15
 4129 0d3e 9E000000 		.4byte	0x9e
 4130 0d42 4D0D0000 		.4byte	0xd4d
 4131 0d46 16       		.uleb128 0x16
 4132 0d47 A5000000 		.4byte	0xa5
 4133 0d4b 04       		.byte	0x4
 4134 0d4c 00       		.byte	0
 4135 0d4d 10       		.uleb128 0x10
 4136 0d4e AA040000 		.4byte	.LASF71
 4137 0d52 01       		.byte	0x1
 4138 0d53 9801     		.2byte	0x198
 4139 0d55 01       		.byte	0x1
 4140 0d56 01       		.byte	0x1
 4141 0d57 670D0000 		.4byte	0xd67
ARM GAS  C:\Users\CHUCK~1.ERH\AppData\Local\Temp\ccby6rnL.s 			page 105


 4142 0d5b 11       		.uleb128 0x11
 4143 0d5c 697000   		.ascii	"ip\000"
 4144 0d5f 01       		.byte	0x1
 4145 0d60 9801     		.2byte	0x198
 4146 0d62 85000000 		.4byte	0x85
 4147 0d66 00       		.byte	0
 4148 0d67 34       		.uleb128 0x34
 4149 0d68 01       		.byte	0x1
 4150 0d69 E2030000 		.4byte	.LASF72
 4151 0d6d 01       		.byte	0x1
 4152 0d6e 4304     		.2byte	0x443
 4153 0d70 01       		.byte	0x1
 4154 0d71 6F000000 		.4byte	0x6f
 4155 0d75 00000000 		.4byte	.LFB77
 4156 0d79 18000000 		.4byte	.LFE77
 4157 0d7d ED080000 		.4byte	.LLST67
 4158 0d81 01       		.byte	0x1
 4159 0d82 D50D0000 		.4byte	0xdd5
 4160 0d86 20       		.uleb128 0x20
 4161 0d87 697000   		.ascii	"ip\000"
 4162 0d8a 01       		.byte	0x1
 4163 0d8b 4304     		.2byte	0x443
 4164 0d8d 85000000 		.4byte	0x85
 4165 0d91 0D090000 		.4byte	.LLST68
 4166 0d95 29       		.uleb128 0x29
 4167 0d96 6F6B00   		.ascii	"ok\000"
 4168 0d99 01       		.byte	0x1
 4169 0d9a 4504     		.2byte	0x445
 4170 0d9c 6F000000 		.4byte	0x6f
 4171 0da0 4F090000 		.4byte	.LLST69
 4172 0da4 32       		.uleb128 0x32
 4173 0da5 4D0D0000 		.4byte	0xd4d
 4174 0da9 0A000000 		.4byte	.LBB80
 4175 0dad 14000000 		.4byte	.LBE80
 4176 0db1 01       		.byte	0x1
 4177 0db2 4804     		.2byte	0x448
 4178 0db4 2B       		.uleb128 0x2b
 4179 0db5 5B0D0000 		.4byte	0xd5b
 4180 0db9 6E090000 		.4byte	.LLST70
 4181 0dbd 22       		.uleb128 0x22
 4182 0dbe 10000000 		.4byte	.LVL113
 4183 0dc2 5A040000 		.4byte	0x45a
 4184 0dc6 1C       		.uleb128 0x1c
 4185 0dc7 01       		.byte	0x1
 4186 0dc8 51       		.byte	0x51
 4187 0dc9 03       		.byte	0x3
 4188 0dca F3       		.byte	0xf3
 4189 0dcb 01       		.uleb128 0x1
 4190 0dcc 50       		.byte	0x50
 4191 0dcd 1C       		.uleb128 0x1c
 4192 0dce 01       		.byte	0x1
 4193 0dcf 50       		.byte	0x50
 4194 0dd0 01       		.byte	0x1
 4195 0dd1 3F       		.byte	0x3f
 4196 0dd2 00       		.byte	0
 4197 0dd3 00       		.byte	0
 4198 0dd4 00       		.byte	0
ARM GAS  C:\Users\CHUCK~1.ERH\AppData\Local\Temp\ccby6rnL.s 			page 106


 4199 0dd5 37       		.uleb128 0x37
 4200 0dd6 78000000 		.4byte	.LASF128
 4201 0dda 01       		.byte	0x1
 4202 0ddb 9E01     		.2byte	0x19e
 4203 0ddd 01       		.byte	0x1
 4204 0dde 85000000 		.4byte	0x85
 4205 0de2 01       		.byte	0x1
 4206 0de3 34       		.uleb128 0x34
 4207 0de4 01       		.byte	0x1
 4208 0de5 AE070000 		.4byte	.LASF73
 4209 0de9 01       		.byte	0x1
 4210 0dea 5004     		.2byte	0x450
 4211 0dec 01       		.byte	0x1
 4212 0ded 85000000 		.4byte	0x85
 4213 0df1 00000000 		.4byte	.LFB78
 4214 0df5 1E000000 		.4byte	.LFE78
 4215 0df9 9A090000 		.4byte	.LLST71
 4216 0dfd 01       		.byte	0x1
 4217 0dfe 5F0E0000 		.4byte	0xe5f
 4218 0e02 32       		.uleb128 0x32
 4219 0e03 D50D0000 		.4byte	0xdd5
 4220 0e07 02000000 		.4byte	.LBB86
 4221 0e0b 1A000000 		.4byte	.LBE86
 4222 0e0f 01       		.byte	0x1
 4223 0e10 5204     		.2byte	0x452
 4224 0e12 32       		.uleb128 0x32
 4225 0e13 9B010000 		.4byte	0x19b
 4226 0e17 02000000 		.4byte	.LBB87
 4227 0e1b 1A000000 		.4byte	.LBE87
 4228 0e1f 01       		.byte	0x1
 4229 0e20 9E01     		.2byte	0x19e
 4230 0e22 38       		.uleb128 0x38
 4231 0e23 02000000 		.4byte	.LBB88
 4232 0e27 1A000000 		.4byte	.LBE88
 4233 0e2b 2D       		.uleb128 0x2d
 4234 0e2c B9010000 		.4byte	0x1b9
 4235 0e30 02       		.byte	0x2
 4236 0e31 91       		.byte	0x91
 4237 0e32 74       		.sleb128 -12
 4238 0e33 2C       		.uleb128 0x2c
 4239 0e34 C5010000 		.4byte	0x1c5
 4240 0e38 BA090000 		.4byte	.LLST72
 4241 0e3c 2C       		.uleb128 0x2c
 4242 0e3d D1010000 		.4byte	0x1d1
 4243 0e41 CD090000 		.4byte	.LLST73
 4244 0e45 2E       		.uleb128 0x2e
 4245 0e46 AD010000 		.4byte	0x1ad
 4246 0e4a 0F       		.byte	0xf
 4247 0e4b 22       		.uleb128 0x22
 4248 0e4c 10000000 		.4byte	.LVL119
 4249 0e50 37050000 		.4byte	0x537
 4250 0e54 1C       		.uleb128 0x1c
 4251 0e55 01       		.byte	0x1
 4252 0e56 50       		.byte	0x50
 4253 0e57 02       		.byte	0x2
 4254 0e58 74       		.byte	0x74
 4255 0e59 0F       		.sleb128 15
ARM GAS  C:\Users\CHUCK~1.ERH\AppData\Local\Temp\ccby6rnL.s 			page 107


 4256 0e5a 00       		.byte	0
 4257 0e5b 00       		.byte	0
 4258 0e5c 00       		.byte	0
 4259 0e5d 00       		.byte	0
 4260 0e5e 00       		.byte	0
 4261 0e5f 10       		.uleb128 0x10
 4262 0e60 7B060000 		.4byte	.LASF74
 4263 0e64 01       		.byte	0x1
 4264 0e65 7401     		.2byte	0x174
 4265 0e67 01       		.byte	0x1
 4266 0e68 01       		.byte	0x1
 4267 0e69 7A0E0000 		.4byte	0xe7a
 4268 0e6d 11       		.uleb128 0x11
 4269 0e6e 6D616300 		.ascii	"mac\000"
 4270 0e72 01       		.byte	0x1
 4271 0e73 7401     		.2byte	0x174
 4272 0e75 62010000 		.4byte	0x162
 4273 0e79 00       		.byte	0
 4274 0e7a 39       		.uleb128 0x39
 4275 0e7b 01       		.byte	0x1
 4276 0e7c 92070000 		.4byte	.LASF76
 4277 0e80 01       		.byte	0x1
 4278 0e81 5604     		.2byte	0x456
 4279 0e83 01       		.byte	0x1
 4280 0e84 00000000 		.4byte	.LFB79
 4281 0e88 1A000000 		.4byte	.LFE79
 4282 0e8c ED090000 		.4byte	.LLST74
 4283 0e90 01       		.byte	0x1
 4284 0e91 020F0000 		.4byte	0xf02
 4285 0e95 20       		.uleb128 0x20
 4286 0e96 6D616300 		.ascii	"mac\000"
 4287 0e9a 01       		.byte	0x1
 4288 0e9b 5604     		.2byte	0x456
 4289 0e9d 62010000 		.4byte	0x162
 4290 0ea1 0D0A0000 		.4byte	.LLST75
 4291 0ea5 32       		.uleb128 0x32
 4292 0ea6 5F0E0000 		.4byte	0xe5f
 4293 0eaa 06000000 		.4byte	.LBB93
 4294 0eae 18000000 		.4byte	.LBE93
 4295 0eb2 01       		.byte	0x1
 4296 0eb3 5804     		.2byte	0x458
 4297 0eb5 2B       		.uleb128 0x2b
 4298 0eb6 6D0E0000 		.4byte	0xe6d
 4299 0eba 2B0A0000 		.4byte	.LLST76
 4300 0ebe 32       		.uleb128 0x32
 4301 0ebf 33010000 		.4byte	0x133
 4302 0ec3 06000000 		.4byte	.LBB94
 4303 0ec7 18000000 		.4byte	.LBE94
 4304 0ecb 01       		.byte	0x1
 4305 0ecc 7401     		.2byte	0x174
 4306 0ece 2B       		.uleb128 0x2b
 4307 0ecf 4B010000 		.4byte	0x14b
 4308 0ed3 2B0A0000 		.4byte	.LLST76
 4309 0ed7 38       		.uleb128 0x38
 4310 0ed8 06000000 		.4byte	.LBB95
 4311 0edc 18000000 		.4byte	.LBE95
 4312 0ee0 2C       		.uleb128 0x2c
ARM GAS  C:\Users\CHUCK~1.ERH\AppData\Local\Temp\ccby6rnL.s 			page 108


 4313 0ee1 56010000 		.4byte	0x156
 4314 0ee5 490A0000 		.4byte	.LLST78
 4315 0ee9 31       		.uleb128 0x31
 4316 0eea 40010000 		.4byte	0x140
 4317 0eee 22       		.uleb128 0x22
 4318 0eef 14000000 		.4byte	.LVL125
 4319 0ef3 48030000 		.4byte	0x348
 4320 0ef7 1C       		.uleb128 0x1c
 4321 0ef8 01       		.byte	0x1
 4322 0ef9 50       		.byte	0x50
 4323 0efa 02       		.byte	0x2
 4324 0efb 74       		.byte	0x74
 4325 0efc 08       		.sleb128 8
 4326 0efd 00       		.byte	0
 4327 0efe 00       		.byte	0
 4328 0eff 00       		.byte	0
 4329 0f00 00       		.byte	0
 4330 0f01 00       		.byte	0
 4331 0f02 10       		.uleb128 0x10
 4332 0f03 D6020000 		.4byte	.LASF77
 4333 0f07 01       		.byte	0x1
 4334 0f08 7A01     		.2byte	0x17a
 4335 0f0a 01       		.byte	0x1
 4336 0f0b 01       		.byte	0x1
 4337 0f0c 1D0F0000 		.4byte	0xf1d
 4338 0f10 11       		.uleb128 0x11
 4339 0f11 6D616300 		.ascii	"mac\000"
 4340 0f15 01       		.byte	0x1
 4341 0f16 7A01     		.2byte	0x17a
 4342 0f18 62010000 		.4byte	0x162
 4343 0f1c 00       		.byte	0
 4344 0f1d 39       		.uleb128 0x39
 4345 0f1e 01       		.byte	0x1
 4346 0f1f 4C020000 		.4byte	.LASF78
 4347 0f23 01       		.byte	0x1
 4348 0f24 5C04     		.2byte	0x45c
 4349 0f26 01       		.byte	0x1
 4350 0f27 00000000 		.4byte	.LFB80
 4351 0f2b 1A000000 		.4byte	.LFE80
 4352 0f2f 680A0000 		.4byte	.LLST79
 4353 0f33 01       		.byte	0x1
 4354 0f34 A50F0000 		.4byte	0xfa5
 4355 0f38 20       		.uleb128 0x20
 4356 0f39 6D616300 		.ascii	"mac\000"
 4357 0f3d 01       		.byte	0x1
 4358 0f3e 5C04     		.2byte	0x45c
 4359 0f40 62010000 		.4byte	0x162
 4360 0f44 880A0000 		.4byte	.LLST80
 4361 0f48 32       		.uleb128 0x32
 4362 0f49 020F0000 		.4byte	0xf02
 4363 0f4d 06000000 		.4byte	.LBB100
 4364 0f51 18000000 		.4byte	.LBE100
 4365 0f55 01       		.byte	0x1
 4366 0f56 5E04     		.2byte	0x45e
 4367 0f58 2B       		.uleb128 0x2b
 4368 0f59 100F0000 		.4byte	0xf10
 4369 0f5d A60A0000 		.4byte	.LLST81
ARM GAS  C:\Users\CHUCK~1.ERH\AppData\Local\Temp\ccby6rnL.s 			page 109


 4370 0f61 32       		.uleb128 0x32
 4371 0f62 68010000 		.4byte	0x168
 4372 0f66 06000000 		.4byte	.LBB101
 4373 0f6a 18000000 		.4byte	.LBE101
 4374 0f6e 01       		.byte	0x1
 4375 0f6f 7A01     		.2byte	0x17a
 4376 0f71 2B       		.uleb128 0x2b
 4377 0f72 82010000 		.4byte	0x182
 4378 0f76 A60A0000 		.4byte	.LLST81
 4379 0f7a 38       		.uleb128 0x38
 4380 0f7b 06000000 		.4byte	.LBB102
 4381 0f7f 18000000 		.4byte	.LBE102
 4382 0f83 2C       		.uleb128 0x2c
 4383 0f84 8E010000 		.4byte	0x18e
 4384 0f88 C40A0000 		.4byte	.LLST83
 4385 0f8c 31       		.uleb128 0x31
 4386 0f8d 76010000 		.4byte	0x176
 4387 0f91 22       		.uleb128 0x22
 4388 0f92 10000000 		.4byte	.LVL129
 4389 0f96 37050000 		.4byte	0x537
 4390 0f9a 1C       		.uleb128 0x1c
 4391 0f9b 01       		.byte	0x1
 4392 0f9c 50       		.byte	0x50
 4393 0f9d 02       		.byte	0x2
 4394 0f9e 74       		.byte	0x74
 4395 0f9f 09       		.sleb128 9
 4396 0fa0 00       		.byte	0
 4397 0fa1 00       		.byte	0
 4398 0fa2 00       		.byte	0
 4399 0fa3 00       		.byte	0
 4400 0fa4 00       		.byte	0
 4401 0fa5 10       		.uleb128 0x10
 4402 0fa6 04050000 		.4byte	.LASF79
 4403 0faa 01       		.byte	0x1
 4404 0fab 5C02     		.2byte	0x25c
 4405 0fad 01       		.byte	0x1
 4406 0fae 01       		.byte	0x1
 4407 0faf CC0F0000 		.4byte	0xfcc
 4408 0fb3 0B       		.uleb128 0xb
 4409 0fb4 89000000 		.4byte	.LASF22
 4410 0fb8 01       		.byte	0x1
 4411 0fb9 5C02     		.2byte	0x25c
 4412 0fbb 6F000000 		.4byte	0x6f
 4413 0fbf 0B       		.uleb128 0xb
 4414 0fc0 69020000 		.4byte	.LASF80
 4415 0fc4 01       		.byte	0x1
 4416 0fc5 5C02     		.2byte	0x25c
 4417 0fc7 7A000000 		.4byte	0x7a
 4418 0fcb 00       		.byte	0
 4419 0fcc 10       		.uleb128 0x10
 4420 0fcd 4B040000 		.4byte	.LASF81
 4421 0fd1 01       		.byte	0x1
 4422 0fd2 1C02     		.2byte	0x21c
 4423 0fd4 01       		.byte	0x1
 4424 0fd5 01       		.byte	0x1
 4425 0fd6 F30F0000 		.4byte	0xff3
 4426 0fda 0B       		.uleb128 0xb
ARM GAS  C:\Users\CHUCK~1.ERH\AppData\Local\Temp\ccby6rnL.s 			page 110


 4427 0fdb 89000000 		.4byte	.LASF22
 4428 0fdf 01       		.byte	0x1
 4429 0fe0 1C02     		.2byte	0x21c
 4430 0fe2 6F000000 		.4byte	0x6f
 4431 0fe6 0B       		.uleb128 0xb
 4432 0fe7 ED050000 		.4byte	.LASF29
 4433 0feb 01       		.byte	0x1
 4434 0fec 1C02     		.2byte	0x21c
 4435 0fee 6F000000 		.4byte	0x6f
 4436 0ff2 00       		.byte	0
 4437 0ff3 34       		.uleb128 0x34
 4438 0ff4 01       		.byte	0x1
 4439 0ff5 67010000 		.4byte	.LASF82
 4440 0ff9 01       		.byte	0x1
 4441 0ffa 6604     		.2byte	0x466
 4442 0ffc 01       		.byte	0x1
 4443 0ffd 6F000000 		.4byte	0x6f
 4444 1001 00000000 		.4byte	.LFB81
 4445 1005 70000000 		.4byte	.LFE81
 4446 1009 E30A0000 		.4byte	.LLST84
 4447 100d 01       		.byte	0x1
 4448 100e F5100000 		.4byte	0x10f5
 4449 1012 1F       		.uleb128 0x1f
 4450 1013 2D010000 		.4byte	.LASF17
 4451 1017 01       		.byte	0x1
 4452 1018 6604     		.2byte	0x466
 4453 101a 6F000000 		.4byte	0x6f
 4454 101e 030B0000 		.4byte	.LLST85
 4455 1022 1F       		.uleb128 0x1f
 4456 1023 69020000 		.4byte	.LASF80
 4457 1027 01       		.byte	0x1
 4458 1028 6604     		.2byte	0x466
 4459 102a 7A000000 		.4byte	0x7a
 4460 102e 240B0000 		.4byte	.LLST86
 4461 1032 1F       		.uleb128 0x1f
 4462 1033 E1060000 		.4byte	.LASF40
 4463 1037 01       		.byte	0x1
 4464 1038 6604     		.2byte	0x466
 4465 103a 6F000000 		.4byte	0x6f
 4466 103e 450B0000 		.4byte	.LLST87
 4467 1042 21       		.uleb128 0x21
 4468 1043 89000000 		.4byte	.LASF22
 4469 1047 01       		.byte	0x1
 4470 1048 6804     		.2byte	0x468
 4471 104a 6F000000 		.4byte	0x6f
 4472 104e 660B0000 		.4byte	.LLST88
 4473 1052 21       		.uleb128 0x21
 4474 1053 02060000 		.4byte	.LASF26
 4475 1057 01       		.byte	0x1
 4476 1058 6904     		.2byte	0x469
 4477 105a 61000000 		.4byte	0x61
 4478 105e 860B0000 		.4byte	.LLST89
 4479 1062 2F       		.uleb128 0x2f
 4480 1063 A50F0000 		.4byte	0xfa5
 4481 1067 38000000 		.4byte	.LBB107
 4482 106b C8000000 		.4byte	.Ldebug_ranges0+0xc8
 4483 106f 01       		.byte	0x1
ARM GAS  C:\Users\CHUCK~1.ERH\AppData\Local\Temp\ccby6rnL.s 			page 111


 4484 1070 8704     		.2byte	0x487
 4485 1072 9A100000 		.4byte	0x109a
 4486 1076 2B       		.uleb128 0x2b
 4487 1077 BF0F0000 		.4byte	0xfbf
 4488 107b A50B0000 		.4byte	.LLST90
 4489 107f 2B       		.uleb128 0x2b
 4490 1080 B30F0000 		.4byte	0xfb3
 4491 1084 B80B0000 		.4byte	.LLST91
 4492 1088 22       		.uleb128 0x22
 4493 1089 4A000000 		.4byte	.LVL137
 4494 108d EC030000 		.4byte	0x3ec
 4495 1091 1C       		.uleb128 0x1c
 4496 1092 01       		.byte	0x1
 4497 1093 50       		.byte	0x50
 4498 1094 03       		.byte	0x3
 4499 1095 77       		.byte	0x77
 4500 1096 8408     		.sleb128 1028
 4501 1098 00       		.byte	0
 4502 1099 00       		.byte	0
 4503 109a 33       		.uleb128 0x33
 4504 109b CC0F0000 		.4byte	0xfcc
 4505 109f 4A000000 		.4byte	.LBB111
 4506 10a3 5A000000 		.4byte	.LBE111
 4507 10a7 01       		.byte	0x1
 4508 10a8 8804     		.2byte	0x488
 4509 10aa DF100000 		.4byte	0x10df
 4510 10ae 2B       		.uleb128 0x2b
 4511 10af E60F0000 		.4byte	0xfe6
 4512 10b3 CB0B0000 		.4byte	.LLST92
 4513 10b7 2B       		.uleb128 0x2b
 4514 10b8 DA0F0000 		.4byte	0xfda
 4515 10bc E30B0000 		.4byte	.LLST93
 4516 10c0 22       		.uleb128 0x22
 4517 10c1 5A000000 		.4byte	.LVL138
 4518 10c5 48030000 		.4byte	0x348
 4519 10c9 1C       		.uleb128 0x1c
 4520 10ca 01       		.byte	0x1
 4521 10cb 51       		.byte	0x51
 4522 10cc 05       		.byte	0x5
 4523 10cd 76       		.byte	0x76
 4524 10ce 00       		.sleb128 0
 4525 10cf 75       		.byte	0x75
 4526 10d0 00       		.sleb128 0
 4527 10d1 21       		.byte	0x21
 4528 10d2 1C       		.uleb128 0x1c
 4529 10d3 01       		.byte	0x1
 4530 10d4 50       		.byte	0x50
 4531 10d5 07       		.byte	0x7
 4532 10d6 77       		.byte	0x77
 4533 10d7 8008     		.sleb128 1024
 4534 10d9 0A       		.byte	0xa
 4535 10da 00FF     		.2byte	0xff00
 4536 10dc 1A       		.byte	0x1a
 4537 10dd 00       		.byte	0
 4538 10de 00       		.byte	0
 4539 10df 22       		.uleb128 0x22
 4540 10e0 62000000 		.4byte	.LVL139
ARM GAS  C:\Users\CHUCK~1.ERH\AppData\Local\Temp\ccby6rnL.s 			page 112


 4541 10e4 4E0A0000 		.4byte	0xa4e
 4542 10e8 1C       		.uleb128 0x1c
 4543 10e9 01       		.byte	0x1
 4544 10ea 51       		.byte	0x51
 4545 10eb 01       		.byte	0x1
 4546 10ec 31       		.byte	0x31
 4547 10ed 1C       		.uleb128 0x1c
 4548 10ee 01       		.byte	0x1
 4549 10ef 50       		.byte	0x50
 4550 10f0 02       		.byte	0x2
 4551 10f1 74       		.byte	0x74
 4552 10f2 00       		.sleb128 0
 4553 10f3 00       		.byte	0
 4554 10f4 00       		.byte	0
 4555 10f5 2A       		.uleb128 0x2a
 4556 10f6 17010000 		.4byte	0x117
 4557 10fa 00000000 		.4byte	.LFB82
 4558 10fe 34000000 		.4byte	.LFE82
 4559 1102 F60B0000 		.4byte	.LLST94
 4560 1106 01       		.byte	0x1
 4561 1107 87110000 		.4byte	0x1187
 4562 110b 2B       		.uleb128 0x2b
 4563 110c 26010000 		.4byte	0x126
 4564 1110 160C0000 		.4byte	.LLST95
 4565 1114 3A       		.uleb128 0x3a
 4566 1115 17010000 		.4byte	0x117
 4567 1119 08000000 		.4byte	.LBB117
 4568 111d E0000000 		.4byte	.Ldebug_ranges0+0xe0
 4569 1121 01       		.byte	0x1
 4570 1122 8F04     		.2byte	0x48f
 4571 1124 2B       		.uleb128 0x2b
 4572 1125 26010000 		.4byte	0x126
 4573 1129 420C0000 		.4byte	.LLST96
 4574 112d 2F       		.uleb128 0x2f
 4575 112e 4D0B0000 		.4byte	0xb4d
 4576 1132 1C000000 		.4byte	.LBB119
 4577 1136 F8000000 		.4byte	.Ldebug_ranges0+0xf8
 4578 113a 01       		.byte	0x1
 4579 113b 9C04     		.2byte	0x49c
 4580 113d 70110000 		.4byte	0x1170
 4581 1141 2B       		.uleb128 0x2b
 4582 1142 670B0000 		.4byte	0xb67
 4583 1146 600C0000 		.4byte	.LLST97
 4584 114a 2B       		.uleb128 0x2b
 4585 114b 5B0B0000 		.4byte	0xb5b
 4586 114f 750C0000 		.4byte	.LLST98
 4587 1153 1D       		.uleb128 0x1d
 4588 1154 2E000000 		.4byte	.LVL143
 4589 1158 01       		.byte	0x1
 4590 1159 48030000 		.4byte	0x348
 4591 115d 1C       		.uleb128 0x1c
 4592 115e 01       		.byte	0x1
 4593 115f 51       		.byte	0x51
 4594 1160 02       		.byte	0x2
 4595 1161 09       		.byte	0x9
 4596 1162 FF       		.byte	0xff
 4597 1163 1C       		.uleb128 0x1c
ARM GAS  C:\Users\CHUCK~1.ERH\AppData\Local\Temp\ccby6rnL.s 			page 113


 4598 1164 01       		.byte	0x1
 4599 1165 50       		.byte	0x50
 4600 1166 07       		.byte	0x7
 4601 1167 74       		.byte	0x74
 4602 1168 00       		.sleb128 0
 4603 1169 38       		.byte	0x38
 4604 116a 24       		.byte	0x24
 4605 116b 23       		.byte	0x23
 4606 116c 8208     		.uleb128 0x402
 4607 116e 00       		.byte	0
 4608 116f 00       		.byte	0
 4609 1170 22       		.uleb128 0x22
 4610 1171 1C000000 		.4byte	.LVL142
 4611 1175 4E0A0000 		.4byte	0xa4e
 4612 1179 1C       		.uleb128 0x1c
 4613 117a 01       		.byte	0x1
 4614 117b 51       		.byte	0x51
 4615 117c 01       		.byte	0x1
 4616 117d 40       		.byte	0x40
 4617 117e 1C       		.uleb128 0x1c
 4618 117f 01       		.byte	0x1
 4619 1180 50       		.byte	0x50
 4620 1181 02       		.byte	0x2
 4621 1182 74       		.byte	0x74
 4622 1183 00       		.sleb128 0
 4623 1184 00       		.byte	0
 4624 1185 00       		.byte	0
 4625 1186 00       		.byte	0
 4626 1187 10       		.uleb128 0x10
 4627 1188 17040000 		.4byte	.LASF83
 4628 118c 01       		.byte	0x1
 4629 118d 8001     		.2byte	0x180
 4630 118f 01       		.byte	0x1
 4631 1190 01       		.byte	0x1
 4632 1191 A1110000 		.4byte	0x11a1
 4633 1195 11       		.uleb128 0x11
 4634 1196 697000   		.ascii	"ip\000"
 4635 1199 01       		.byte	0x1
 4636 119a 8001     		.2byte	0x180
 4637 119c 85000000 		.4byte	0x85
 4638 11a0 00       		.byte	0
 4639 11a1 39       		.uleb128 0x39
 4640 11a2 01       		.byte	0x1
 4641 11a3 FC060000 		.4byte	.LASF84
 4642 11a7 01       		.byte	0x1
 4643 11a8 D203     		.2byte	0x3d2
 4644 11aa 01       		.byte	0x1
 4645 11ab 00000000 		.4byte	.LFB74
 4646 11af 90000000 		.4byte	.LFE74
 4647 11b3 880C0000 		.4byte	.LLST99
 4648 11b7 01       		.byte	0x1
 4649 11b8 85140000 		.4byte	0x1485
 4650 11bc 20       		.uleb128 0x20
 4651 11bd 6D616300 		.ascii	"mac\000"
 4652 11c1 01       		.byte	0x1
 4653 11c2 D203     		.2byte	0x3d2
 4654 11c4 62010000 		.4byte	0x162
ARM GAS  C:\Users\CHUCK~1.ERH\AppData\Local\Temp\ccby6rnL.s 			page 114


 4655 11c8 A80C0000 		.4byte	.LLST100
 4656 11cc 20       		.uleb128 0x20
 4657 11cd 697000   		.ascii	"ip\000"
 4658 11d0 01       		.byte	0x1
 4659 11d1 D203     		.2byte	0x3d2
 4660 11d3 85000000 		.4byte	0x85
 4661 11d7 C60C0000 		.4byte	.LLST101
 4662 11db 1F       		.uleb128 0x1f
 4663 11dc FD020000 		.4byte	.LASF85
 4664 11e0 01       		.byte	0x1
 4665 11e1 D203     		.2byte	0x3d2
 4666 11e3 85000000 		.4byte	0x85
 4667 11e7 E40C0000 		.4byte	.LLST102
 4668 11eb 1F       		.uleb128 0x1f
 4669 11ec 47010000 		.4byte	.LASF86
 4670 11f0 01       		.byte	0x1
 4671 11f1 D203     		.2byte	0x3d2
 4672 11f3 85000000 		.4byte	0x85
 4673 11f7 100D0000 		.4byte	.LLST103
 4674 11fb 21       		.uleb128 0x21
 4675 11fc 02060000 		.4byte	.LASF26
 4676 1200 01       		.byte	0x1
 4677 1201 D903     		.2byte	0x3d9
 4678 1203 61000000 		.4byte	0x61
 4679 1207 2E0D0000 		.4byte	.LLST104
 4680 120b 33       		.uleb128 0x33
 4681 120c F3010000 		.4byte	0x1f3
 4682 1210 10000000 		.4byte	.LBB145
 4683 1214 18000000 		.4byte	.LBE145
 4684 1218 01       		.byte	0x1
 4685 1219 DE03     		.2byte	0x3de
 4686 121b 46120000 		.4byte	0x1246
 4687 121f 38       		.uleb128 0x38
 4688 1220 10000000 		.4byte	.LBB146
 4689 1224 18000000 		.4byte	.LBE146
 4690 1228 3B       		.uleb128 0x3b
 4691 1229 01020000 		.4byte	0x201
 4692 122d 807F     		.sleb128 -128
 4693 122f 22       		.uleb128 0x22
 4694 1230 18000000 		.4byte	.LVL147
 4695 1234 48030000 		.4byte	0x348
 4696 1238 1C       		.uleb128 0x1c
 4697 1239 01       		.byte	0x1
 4698 123a 51       		.byte	0x51
 4699 123b 02       		.byte	0x2
 4700 123c 09       		.byte	0x9
 4701 123d 80       		.byte	0x80
 4702 123e 1C       		.uleb128 0x1c
 4703 123f 01       		.byte	0x1
 4704 1240 50       		.byte	0x50
 4705 1241 01       		.byte	0x1
 4706 1242 30       		.byte	0x30
 4707 1243 00       		.byte	0
 4708 1244 00       		.byte	0
 4709 1245 00       		.byte	0
 4710 1246 33       		.uleb128 0x33
 4711 1247 43020000 		.4byte	0x243
ARM GAS  C:\Users\CHUCK~1.ERH\AppData\Local\Temp\ccby6rnL.s 			page 115


 4712 124b 36000000 		.4byte	.LBB147
 4713 124f 3E000000 		.4byte	.LBE147
 4714 1253 01       		.byte	0x1
 4715 1254 E703     		.2byte	0x3e7
 4716 1256 80120000 		.4byte	0x1280
 4717 125a 38       		.uleb128 0x38
 4718 125b 36000000 		.4byte	.LBB148
 4719 125f 3E000000 		.4byte	.LBE148
 4720 1263 2E       		.uleb128 0x2e
 4721 1264 51020000 		.4byte	0x251
 4722 1268 55       		.byte	0x55
 4723 1269 22       		.uleb128 0x22
 4724 126a 3E000000 		.4byte	.LVL153
 4725 126e 48030000 		.4byte	0x348
 4726 1272 1C       		.uleb128 0x1c
 4727 1273 01       		.byte	0x1
 4728 1274 51       		.byte	0x51
 4729 1275 02       		.byte	0x2
 4730 1276 08       		.byte	0x8
 4731 1277 55       		.byte	0x55
 4732 1278 1C       		.uleb128 0x1c
 4733 1279 01       		.byte	0x1
 4734 127a 50       		.byte	0x50
 4735 127b 01       		.byte	0x1
 4736 127c 4B       		.byte	0x4b
 4737 127d 00       		.byte	0
 4738 127e 00       		.byte	0
 4739 127f 00       		.byte	0
 4740 1280 33       		.uleb128 0x33
 4741 1281 28020000 		.4byte	0x228
 4742 1285 3E000000 		.4byte	.LBB149
 4743 1289 46000000 		.4byte	.LBE149
 4744 128d 01       		.byte	0x1
 4745 128e E803     		.2byte	0x3e8
 4746 1290 BA120000 		.4byte	0x12ba
 4747 1294 38       		.uleb128 0x38
 4748 1295 3E000000 		.4byte	.LBB150
 4749 1299 46000000 		.4byte	.LBE150
 4750 129d 2E       		.uleb128 0x2e
 4751 129e 36020000 		.4byte	0x236
 4752 12a2 55       		.byte	0x55
 4753 12a3 22       		.uleb128 0x22
 4754 12a4 46000000 		.4byte	.LVL154
 4755 12a8 48030000 		.4byte	0x348
 4756 12ac 1C       		.uleb128 0x1c
 4757 12ad 01       		.byte	0x1
 4758 12ae 51       		.byte	0x51
 4759 12af 02       		.byte	0x2
 4760 12b0 08       		.byte	0x8
 4761 12b1 55       		.byte	0x55
 4762 12b2 1C       		.uleb128 0x1c
 4763 12b3 01       		.byte	0x1
 4764 12b4 50       		.byte	0x50
 4765 12b5 01       		.byte	0x1
 4766 12b6 4A       		.byte	0x4a
 4767 12b7 00       		.byte	0
 4768 12b8 00       		.byte	0
ARM GAS  C:\Users\CHUCK~1.ERH\AppData\Local\Temp\ccby6rnL.s 			page 116


 4769 12b9 00       		.byte	0
 4770 12ba 33       		.uleb128 0x33
 4771 12bb 87110000 		.4byte	0x1187
 4772 12bf 46000000 		.4byte	.LBB151
 4773 12c3 4E000000 		.4byte	.LBE151
 4774 12c7 01       		.byte	0x1
 4775 12c8 EA03     		.2byte	0x3ea
 4776 12ca EB120000 		.4byte	0x12eb
 4777 12ce 30       		.uleb128 0x30
 4778 12cf 95110000 		.4byte	0x1195
 4779 12d3 01       		.byte	0x1
 4780 12d4 57       		.byte	0x57
 4781 12d5 22       		.uleb128 0x22
 4782 12d6 4E000000 		.4byte	.LVL155
 4783 12da 5A040000 		.4byte	0x45a
 4784 12de 1C       		.uleb128 0x1c
 4785 12df 01       		.byte	0x1
 4786 12e0 51       		.byte	0x51
 4787 12e1 02       		.byte	0x2
 4788 12e2 77       		.byte	0x77
 4789 12e3 00       		.sleb128 0
 4790 12e4 1C       		.uleb128 0x1c
 4791 12e5 01       		.byte	0x1
 4792 12e6 50       		.byte	0x50
 4793 12e7 01       		.byte	0x1
 4794 12e8 31       		.byte	0x31
 4795 12e9 00       		.byte	0
 4796 12ea 00       		.byte	0
 4797 12eb 33       		.uleb128 0x33
 4798 12ec 140B0000 		.4byte	0xb14
 4799 12f0 4E000000 		.4byte	.LBB153
 4800 12f4 56000000 		.4byte	.LBE153
 4801 12f8 01       		.byte	0x1
 4802 12f9 EB03     		.2byte	0x3eb
 4803 12fb 1E130000 		.4byte	0x131e
 4804 12ff 2B       		.uleb128 0x2b
 4805 1300 220B0000 		.4byte	0xb22
 4806 1304 720D0000 		.4byte	.LLST105
 4807 1308 22       		.uleb128 0x22
 4808 1309 56000000 		.4byte	.LVL156
 4809 130d 5A040000 		.4byte	0x45a
 4810 1311 1C       		.uleb128 0x1c
 4811 1312 01       		.byte	0x1
 4812 1313 51       		.byte	0x51
 4813 1314 02       		.byte	0x2
 4814 1315 74       		.byte	0x74
 4815 1316 00       		.sleb128 0
 4816 1317 1C       		.uleb128 0x1c
 4817 1318 01       		.byte	0x1
 4818 1319 50       		.byte	0x50
 4819 131a 01       		.byte	0x1
 4820 131b 35       		.byte	0x35
 4821 131c 00       		.byte	0
 4822 131d 00       		.byte	0
 4823 131e 33       		.uleb128 0x33
 4824 131f 5F0E0000 		.4byte	0xe5f
 4825 1323 5C000000 		.4byte	.LBB155
ARM GAS  C:\Users\CHUCK~1.ERH\AppData\Local\Temp\ccby6rnL.s 			page 117


 4826 1327 6E000000 		.4byte	.LBE155
 4827 132b 01       		.byte	0x1
 4828 132c EF03     		.2byte	0x3ef
 4829 132e 7A130000 		.4byte	0x137a
 4830 1332 30       		.uleb128 0x30
 4831 1333 6D0E0000 		.4byte	0xe6d
 4832 1337 01       		.byte	0x1
 4833 1338 56       		.byte	0x56
 4834 1339 32       		.uleb128 0x32
 4835 133a 33010000 		.4byte	0x133
 4836 133e 5C000000 		.4byte	.LBB156
 4837 1342 6E000000 		.4byte	.LBE156
 4838 1346 01       		.byte	0x1
 4839 1347 7401     		.2byte	0x174
 4840 1349 30       		.uleb128 0x30
 4841 134a 4B010000 		.4byte	0x14b
 4842 134e 01       		.byte	0x1
 4843 134f 56       		.byte	0x56
 4844 1350 38       		.uleb128 0x38
 4845 1351 5C000000 		.4byte	.LBB157
 4846 1355 6E000000 		.4byte	.LBE157
 4847 1359 2C       		.uleb128 0x2c
 4848 135a 56010000 		.4byte	0x156
 4849 135e 930D0000 		.4byte	.LLST106
 4850 1362 31       		.uleb128 0x31
 4851 1363 40010000 		.4byte	0x140
 4852 1367 22       		.uleb128 0x22
 4853 1368 6A000000 		.4byte	.LVL159
 4854 136c 48030000 		.4byte	0x348
 4855 1370 1C       		.uleb128 0x1c
 4856 1371 01       		.byte	0x1
 4857 1372 50       		.byte	0x50
 4858 1373 02       		.byte	0x2
 4859 1374 74       		.byte	0x74
 4860 1375 08       		.sleb128 8
 4861 1376 00       		.byte	0
 4862 1377 00       		.byte	0
 4863 1378 00       		.byte	0
 4864 1379 00       		.byte	0
 4865 137a 33       		.uleb128 0x33
 4866 137b 4D0D0000 		.4byte	0xd4d
 4867 137f 6E000000 		.4byte	.LBB158
 4868 1383 76000000 		.4byte	.LBE158
 4869 1387 01       		.byte	0x1
 4870 1388 F103     		.2byte	0x3f1
 4871 138a AB130000 		.4byte	0x13ab
 4872 138e 30       		.uleb128 0x30
 4873 138f 5B0D0000 		.4byte	0xd5b
 4874 1393 01       		.byte	0x1
 4875 1394 55       		.byte	0x55
 4876 1395 22       		.uleb128 0x22
 4877 1396 76000000 		.4byte	.LVL161
 4878 139a 5A040000 		.4byte	0x45a
 4879 139e 1C       		.uleb128 0x1c
 4880 139f 01       		.byte	0x1
 4881 13a0 51       		.byte	0x51
 4882 13a1 02       		.byte	0x2
ARM GAS  C:\Users\CHUCK~1.ERH\AppData\Local\Temp\ccby6rnL.s 			page 118


 4883 13a2 75       		.byte	0x75
 4884 13a3 00       		.sleb128 0
 4885 13a4 1C       		.uleb128 0x1c
 4886 13a5 01       		.byte	0x1
 4887 13a6 50       		.byte	0x50
 4888 13a7 01       		.byte	0x1
 4889 13a8 3F       		.byte	0x3f
 4890 13a9 00       		.byte	0
 4891 13aa 00       		.byte	0
 4892 13ab 33       		.uleb128 0x33
 4893 13ac 0E020000 		.4byte	0x20e
 4894 13b0 76000000 		.4byte	.LBB160
 4895 13b4 7E000000 		.4byte	.LBE160
 4896 13b8 01       		.byte	0x1
 4897 13b9 F303     		.2byte	0x3f3
 4898 13bb E5130000 		.4byte	0x13e5
 4899 13bf 38       		.uleb128 0x38
 4900 13c0 76000000 		.4byte	.LBB161
 4901 13c4 7E000000 		.4byte	.LBE161
 4902 13c8 3B       		.uleb128 0x3b
 4903 13c9 1C020000 		.4byte	0x21c
 4904 13cd 7F       		.sleb128 -1
 4905 13ce 22       		.uleb128 0x22
 4906 13cf 7E000000 		.4byte	.LVL162
 4907 13d3 48030000 		.4byte	0x348
 4908 13d7 1C       		.uleb128 0x1c
 4909 13d8 01       		.byte	0x1
 4910 13d9 51       		.byte	0x51
 4911 13da 02       		.byte	0x2
 4912 13db 09       		.byte	0x9
 4913 13dc FF       		.byte	0xff
 4914 13dd 1C       		.uleb128 0x1c
 4915 13de 01       		.byte	0x1
 4916 13df 50       		.byte	0x50
 4917 13e0 01       		.byte	0x1
 4918 13e1 45       		.byte	0x45
 4919 13e2 00       		.byte	0
 4920 13e3 00       		.byte	0
 4921 13e4 00       		.byte	0
 4922 13e5 2F       		.uleb128 0x2f
 4923 13e6 140B0000 		.4byte	0xb14
 4924 13ea 7E000000 		.4byte	.LBB162
 4925 13ee 10010000 		.4byte	.Ldebug_ranges0+0x110
 4926 13f2 01       		.byte	0x1
 4927 13f3 F503     		.2byte	0x3f5
 4928 13f5 15140000 		.4byte	0x1415
 4929 13f9 2E       		.uleb128 0x2e
 4930 13fa 220B0000 		.4byte	0xb22
 4931 13fe 00       		.byte	0
 4932 13ff 1D       		.uleb128 0x1d
 4933 1400 8A000000 		.4byte	.LVL163
 4934 1404 01       		.byte	0x1
 4935 1405 5A040000 		.4byte	0x45a
 4936 1409 1C       		.uleb128 0x1c
 4937 140a 01       		.byte	0x1
 4938 140b 51       		.byte	0x51
 4939 140c 01       		.byte	0x1
ARM GAS  C:\Users\CHUCK~1.ERH\AppData\Local\Temp\ccby6rnL.s 			page 119


 4940 140d 30       		.byte	0x30
 4941 140e 1C       		.uleb128 0x1c
 4942 140f 01       		.byte	0x1
 4943 1410 50       		.byte	0x50
 4944 1411 01       		.byte	0x1
 4945 1412 35       		.byte	0x35
 4946 1413 00       		.byte	0
 4947 1414 00       		.byte	0
 4948 1415 1B       		.uleb128 0x1b
 4949 1416 10000000 		.4byte	.LVL146
 4950 141a C41F0000 		.4byte	0x1fc4
 4951 141e 29140000 		.4byte	0x1429
 4952 1422 1C       		.uleb128 0x1c
 4953 1423 01       		.byte	0x1
 4954 1424 50       		.byte	0x50
 4955 1425 02       		.byte	0x2
 4956 1426 08       		.byte	0x8
 4957 1427 FA       		.byte	0xfa
 4958 1428 00       		.byte	0
 4959 1429 1B       		.uleb128 0x1b
 4960 142a 1E000000 		.4byte	.LVL148
 4961 142e C41F0000 		.4byte	0x1fc4
 4962 1432 3C140000 		.4byte	0x143c
 4963 1436 1C       		.uleb128 0x1c
 4964 1437 01       		.byte	0x1
 4965 1438 50       		.byte	0x50
 4966 1439 01       		.byte	0x1
 4967 143a 3A       		.byte	0x3a
 4968 143b 00       		.byte	0
 4969 143c 1B       		.uleb128 0x1b
 4970 143d 24000000 		.4byte	.LVL149
 4971 1441 17010000 		.4byte	0x117
 4972 1445 4F140000 		.4byte	0x144f
 4973 1449 1C       		.uleb128 0x1c
 4974 144a 01       		.byte	0x1
 4975 144b 50       		.byte	0x50
 4976 144c 01       		.byte	0x1
 4977 144d 30       		.byte	0x30
 4978 144e 00       		.byte	0
 4979 144f 1B       		.uleb128 0x1b
 4980 1450 2A000000 		.4byte	.LVL150
 4981 1454 17010000 		.4byte	0x117
 4982 1458 62140000 		.4byte	0x1462
 4983 145c 1C       		.uleb128 0x1c
 4984 145d 01       		.byte	0x1
 4985 145e 50       		.byte	0x50
 4986 145f 01       		.byte	0x1
 4987 1460 31       		.byte	0x31
 4988 1461 00       		.byte	0
 4989 1462 1B       		.uleb128 0x1b
 4990 1463 30000000 		.4byte	.LVL151
 4991 1467 17010000 		.4byte	0x117
 4992 146b 75140000 		.4byte	0x1475
 4993 146f 1C       		.uleb128 0x1c
 4994 1470 01       		.byte	0x1
 4995 1471 50       		.byte	0x50
 4996 1472 01       		.byte	0x1
ARM GAS  C:\Users\CHUCK~1.ERH\AppData\Local\Temp\ccby6rnL.s 			page 120


 4997 1473 32       		.byte	0x32
 4998 1474 00       		.byte	0
 4999 1475 22       		.uleb128 0x22
 5000 1476 36000000 		.4byte	.LVL152
 5001 147a 17010000 		.4byte	0x117
 5002 147e 1C       		.uleb128 0x1c
 5003 147f 01       		.byte	0x1
 5004 1480 50       		.byte	0x50
 5005 1481 01       		.byte	0x1
 5006 1482 33       		.byte	0x33
 5007 1483 00       		.byte	0
 5008 1484 00       		.byte	0
 5009 1485 39       		.uleb128 0x39
 5010 1486 01       		.byte	0x1
 5011 1487 E2050000 		.4byte	.LASF87
 5012 148b 01       		.byte	0x1
 5013 148c F903     		.2byte	0x3f9
 5014 148e 01       		.byte	0x1
 5015 148f 00000000 		.4byte	.LFB75
 5016 1493 4C000000 		.4byte	.LFE75
 5017 1497 B20D0000 		.4byte	.LLST107
 5018 149b 01       		.byte	0x1
 5019 149c 51150000 		.4byte	0x1551
 5020 14a0 29       		.uleb128 0x29
 5021 14a1 697000   		.ascii	"ip\000"
 5022 14a4 01       		.byte	0x1
 5023 14a5 FB03     		.2byte	0x3fb
 5024 14a7 85000000 		.4byte	0x85
 5025 14ab D20D0000 		.4byte	.LLST108
 5026 14af 21       		.uleb128 0x21
 5027 14b0 47010000 		.4byte	.LASF86
 5028 14b4 01       		.byte	0x1
 5029 14b5 FC03     		.2byte	0x3fc
 5030 14b7 85000000 		.4byte	0x85
 5031 14bb F00D0000 		.4byte	.LLST109
 5032 14bf 29       		.uleb128 0x29
 5033 14c0 73756200 		.ascii	"sub\000"
 5034 14c4 01       		.byte	0x1
 5035 14c5 FD03     		.2byte	0x3fd
 5036 14c7 85000000 		.4byte	0x85
 5037 14cb 0E0E0000 		.4byte	.LLST110
 5038 14cf 1A       		.uleb128 0x1a
 5039 14d0 0C000000 		.4byte	.LVL164
 5040 14d4 F01F0000 		.4byte	0x1ff0
 5041 14d8 1B       		.uleb128 0x1b
 5042 14d9 12000000 		.4byte	.LVL165
 5043 14dd C41F0000 		.4byte	0x1fc4
 5044 14e1 EB140000 		.4byte	0x14eb
 5045 14e5 1C       		.uleb128 0x1c
 5046 14e6 01       		.byte	0x1
 5047 14e7 50       		.byte	0x50
 5048 14e8 01       		.byte	0x1
 5049 14e9 3A       		.byte	0x3a
 5050 14ea 00       		.byte	0
 5051 14eb 1B       		.uleb128 0x1b
 5052 14ec 18000000 		.4byte	.LVL166
 5053 14f0 B00C0000 		.4byte	0xcb0
ARM GAS  C:\Users\CHUCK~1.ERH\AppData\Local\Temp\ccby6rnL.s 			page 121


 5054 14f4 02150000 		.4byte	0x1502
 5055 14f8 1C       		.uleb128 0x1c
 5056 14f9 01       		.byte	0x1
 5057 14fa 50       		.byte	0x50
 5058 14fb 05       		.byte	0x5
 5059 14fc 03       		.byte	0x3
 5060 14fd 00000000 		.4byte	.LC0
 5061 1501 00       		.byte	0
 5062 1502 1B       		.uleb128 0x1b
 5063 1503 20000000 		.4byte	.LVL169
 5064 1507 B00C0000 		.4byte	0xcb0
 5065 150b 19150000 		.4byte	0x1519
 5066 150f 1C       		.uleb128 0x1c
 5067 1510 01       		.byte	0x1
 5068 1511 50       		.byte	0x50
 5069 1512 05       		.byte	0x5
 5070 1513 03       		.byte	0x3
 5071 1514 0E000000 		.4byte	.LC1
 5072 1518 00       		.byte	0
 5073 1519 1B       		.uleb128 0x1b
 5074 151a 28000000 		.4byte	.LVL172
 5075 151e B00C0000 		.4byte	0xcb0
 5076 1522 30150000 		.4byte	0x1530
 5077 1526 1C       		.uleb128 0x1c
 5078 1527 01       		.byte	0x1
 5079 1528 50       		.byte	0x50
 5080 1529 05       		.byte	0x5
 5081 152a 03       		.byte	0x3
 5082 152b 1C000000 		.4byte	.LC2
 5083 152f 00       		.byte	0
 5084 1530 1D       		.uleb128 0x1d
 5085 1531 38000000 		.4byte	.LVL175
 5086 1535 01       		.byte	0x1
 5087 1536 A1110000 		.4byte	0x11a1
 5088 153a 1C       		.uleb128 0x1c
 5089 153b 01       		.byte	0x1
 5090 153c 52       		.byte	0x52
 5091 153d 02       		.byte	0x2
 5092 153e 74       		.byte	0x74
 5093 153f 00       		.sleb128 0
 5094 1540 1C       		.uleb128 0x1c
 5095 1541 01       		.byte	0x1
 5096 1542 51       		.byte	0x51
 5097 1543 02       		.byte	0x2
 5098 1544 75       		.byte	0x75
 5099 1545 00       		.sleb128 0
 5100 1546 1C       		.uleb128 0x1c
 5101 1547 01       		.byte	0x1
 5102 1548 50       		.byte	0x50
 5103 1549 05       		.byte	0x5
 5104 154a 03       		.byte	0x3
 5105 154b 00000000 		.4byte	.LANCHOR1
 5106 154f 00       		.byte	0
 5107 1550 00       		.byte	0
 5108 1551 34       		.uleb128 0x34
 5109 1552 01       		.byte	0x1
 5110 1553 20000000 		.4byte	.LASF88
ARM GAS  C:\Users\CHUCK~1.ERH\AppData\Local\Temp\ccby6rnL.s 			page 122


 5111 1557 01       		.byte	0x1
 5112 1558 A104     		.2byte	0x4a1
 5113 155a 01       		.byte	0x1
 5114 155b 6F000000 		.4byte	0x6f
 5115 155f 00000000 		.4byte	.LFB83
 5116 1563 22000000 		.4byte	.LFE83
 5117 1567 2C0E0000 		.4byte	.LLST111
 5118 156b 01       		.byte	0x1
 5119 156c C9150000 		.4byte	0x15c9
 5120 1570 1F       		.uleb128 0x1f
 5121 1571 89000000 		.4byte	.LASF22
 5122 1575 01       		.byte	0x1
 5123 1576 A104     		.2byte	0x4a1
 5124 1578 6F000000 		.4byte	0x6f
 5125 157c 4C0E0000 		.4byte	.LLST112
 5126 1580 21       		.uleb128 0x21
 5127 1581 C7060000 		.4byte	.LASF89
 5128 1585 01       		.byte	0x1
 5129 1586 A304     		.2byte	0x4a3
 5130 1588 6F000000 		.4byte	0x6f
 5131 158c 6D0E0000 		.4byte	.LLST113
 5132 1590 1B       		.uleb128 0x1b
 5133 1591 08000000 		.4byte	.LVL177
 5134 1595 01060000 		.4byte	0x601
 5135 1599 A4150000 		.4byte	0x15a4
 5136 159d 1C       		.uleb128 0x1c
 5137 159e 01       		.byte	0x1
 5138 159f 50       		.byte	0x50
 5139 15a0 02       		.byte	0x2
 5140 15a1 74       		.byte	0x74
 5141 15a2 00       		.sleb128 0
 5142 15a3 00       		.byte	0
 5143 15a4 1B       		.uleb128 0x1b
 5144 15a5 12000000 		.4byte	.LVL179
 5145 15a9 17010000 		.4byte	0x117
 5146 15ad B8150000 		.4byte	0x15b8
 5147 15b1 1C       		.uleb128 0x1c
 5148 15b2 01       		.byte	0x1
 5149 15b3 50       		.byte	0x50
 5150 15b4 02       		.byte	0x2
 5151 15b5 74       		.byte	0x74
 5152 15b6 00       		.sleb128 0
 5153 15b7 00       		.byte	0
 5154 15b8 22       		.uleb128 0x22
 5155 15b9 18000000 		.4byte	.LVL180
 5156 15bd 01060000 		.4byte	0x601
 5157 15c1 1C       		.uleb128 0x1c
 5158 15c2 01       		.byte	0x1
 5159 15c3 50       		.byte	0x50
 5160 15c4 02       		.byte	0x2
 5161 15c5 74       		.byte	0x74
 5162 15c6 00       		.sleb128 0
 5163 15c7 00       		.byte	0
 5164 15c8 00       		.byte	0
 5165 15c9 34       		.uleb128 0x34
 5166 15ca 01       		.byte	0x1
 5167 15cb 3E000000 		.4byte	.LASF90
ARM GAS  C:\Users\CHUCK~1.ERH\AppData\Local\Temp\ccby6rnL.s 			page 123


 5168 15cf 01       		.byte	0x1
 5169 15d0 AF04     		.2byte	0x4af
 5170 15d2 01       		.byte	0x1
 5171 15d3 6F000000 		.4byte	0x6f
 5172 15d7 00000000 		.4byte	.LFB84
 5173 15db 10000000 		.4byte	.LFE84
 5174 15df 800E0000 		.4byte	.LLST114
 5175 15e3 01       		.byte	0x1
 5176 15e4 02160000 		.4byte	0x1602
 5177 15e8 1F       		.uleb128 0x1f
 5178 15e9 89000000 		.4byte	.LASF22
 5179 15ed 01       		.byte	0x1
 5180 15ee AF04     		.2byte	0x4af
 5181 15f0 6F000000 		.4byte	0x6f
 5182 15f4 A00E0000 		.4byte	.LLST115
 5183 15f8 1A       		.uleb128 0x1a
 5184 15f9 06000000 		.4byte	.LVL182
 5185 15fd 01060000 		.4byte	0x601
 5186 1601 00       		.byte	0
 5187 1602 3C       		.uleb128 0x3c
 5188 1603 01       		.byte	0x1
 5189 1604 CE000000 		.4byte	.LASF91
 5190 1608 01       		.byte	0x1
 5191 1609 EB04     		.2byte	0x4eb
 5192 160b 01       		.byte	0x1
 5193 160c 7A000000 		.4byte	0x7a
 5194 1610 00000000 		.4byte	.LFB87
 5195 1614 04000000 		.4byte	.LFE87
 5196 1618 02       		.byte	0x2
 5197 1619 7D       		.byte	0x7d
 5198 161a 00       		.sleb128 0
 5199 161b 01       		.byte	0x1
 5200 161c 3B160000 		.4byte	0x163b
 5201 1620 1F       		.uleb128 0x1f
 5202 1621 89000000 		.4byte	.LASF22
 5203 1625 01       		.byte	0x1
 5204 1626 EB04     		.2byte	0x4eb
 5205 1628 6F000000 		.4byte	0x6f
 5206 162c C10E0000 		.4byte	.LLST116
 5207 1630 27       		.uleb128 0x27
 5208 1631 04000000 		.4byte	.LVL184
 5209 1635 01       		.byte	0x1
 5210 1636 F9070000 		.4byte	0x7f9
 5211 163a 00       		.byte	0
 5212 163b 3C       		.uleb128 0x3c
 5213 163c 01       		.byte	0x1
 5214 163d C1000000 		.4byte	.LASF92
 5215 1641 01       		.byte	0x1
 5216 1642 F504     		.2byte	0x4f5
 5217 1644 01       		.byte	0x1
 5218 1645 6F000000 		.4byte	0x6f
 5219 1649 00000000 		.4byte	.LFB88
 5220 164d 0A000000 		.4byte	.LFE88
 5221 1651 02       		.byte	0x2
 5222 1652 7D       		.byte	0x7d
 5223 1653 00       		.sleb128 0
 5224 1654 01       		.byte	0x1
ARM GAS  C:\Users\CHUCK~1.ERH\AppData\Local\Temp\ccby6rnL.s 			page 124


 5225 1655 7F160000 		.4byte	0x167f
 5226 1659 1F       		.uleb128 0x1f
 5227 165a 69020000 		.4byte	.LASF80
 5228 165e 01       		.byte	0x1
 5229 165f F504     		.2byte	0x4f5
 5230 1661 7A000000 		.4byte	0x7a
 5231 1665 E20E0000 		.4byte	.LLST117
 5232 1669 1D       		.uleb128 0x1d
 5233 166a 0A000000 		.4byte	.LVL187
 5234 166e 01       		.byte	0x1
 5235 166f F30F0000 		.4byte	0xff3
 5236 1673 1C       		.uleb128 0x1c
 5237 1674 01       		.byte	0x1
 5238 1675 52       		.byte	0x52
 5239 1676 01       		.byte	0x1
 5240 1677 30       		.byte	0x30
 5241 1678 1C       		.uleb128 0x1c
 5242 1679 01       		.byte	0x1
 5243 167a 50       		.byte	0x50
 5244 167b 01       		.byte	0x1
 5245 167c 31       		.byte	0x31
 5246 167d 00       		.byte	0
 5247 167e 00       		.byte	0
 5248 167f 3D       		.uleb128 0x3d
 5249 1680 01       		.byte	0x1
 5250 1681 C2050000 		.4byte	.LASF93
 5251 1685 01       		.byte	0x1
 5252 1686 FB04     		.2byte	0x4fb
 5253 1688 01       		.byte	0x1
 5254 1689 00000000 		.4byte	.LFB89
 5255 168d 0C000000 		.4byte	.LFE89
 5256 1691 02       		.byte	0x2
 5257 1692 7D       		.byte	0x7d
 5258 1693 00       		.sleb128 0
 5259 1694 01       		.byte	0x1
 5260 1695 BA160000 		.4byte	0x16ba
 5261 1699 1F       		.uleb128 0x1f
 5262 169a 89000000 		.4byte	.LASF22
 5263 169e 01       		.byte	0x1
 5264 169f FB04     		.2byte	0x4fb
 5265 16a1 6F000000 		.4byte	0x6f
 5266 16a5 030F0000 		.4byte	.LLST118
 5267 16a9 1D       		.uleb128 0x1d
 5268 16aa 0A000000 		.4byte	.LVL189
 5269 16ae 01       		.byte	0x1
 5270 16af 4E0A0000 		.4byte	0xa4e
 5271 16b3 1C       		.uleb128 0x1c
 5272 16b4 01       		.byte	0x1
 5273 16b5 51       		.byte	0x51
 5274 16b6 01       		.byte	0x1
 5275 16b7 32       		.byte	0x32
 5276 16b8 00       		.byte	0
 5277 16b9 00       		.byte	0
 5278 16ba 39       		.uleb128 0x39
 5279 16bb 01       		.byte	0x1
 5280 16bc 1D050000 		.4byte	.LASF94
 5281 16c0 01       		.byte	0x1
ARM GAS  C:\Users\CHUCK~1.ERH\AppData\Local\Temp\ccby6rnL.s 			page 125


 5282 16c1 0805     		.2byte	0x508
 5283 16c3 01       		.byte	0x1
 5284 16c4 00000000 		.4byte	.LFB90
 5285 16c8 1A000000 		.4byte	.LFE90
 5286 16cc 2F0F0000 		.4byte	.LLST119
 5287 16d0 01       		.byte	0x1
 5288 16d1 1D170000 		.4byte	0x171d
 5289 16d5 1F       		.uleb128 0x1f
 5290 16d6 89000000 		.4byte	.LASF22
 5291 16da 01       		.byte	0x1
 5292 16db 0805     		.2byte	0x508
 5293 16dd 6F000000 		.4byte	0x6f
 5294 16e1 4F0F0000 		.4byte	.LLST120
 5295 16e5 1B       		.uleb128 0x1b
 5296 16e6 08000000 		.4byte	.LVL191
 5297 16ea 7F160000 		.4byte	0x167f
 5298 16ee F9160000 		.4byte	0x16f9
 5299 16f2 1C       		.uleb128 0x1c
 5300 16f3 01       		.byte	0x1
 5301 16f4 50       		.byte	0x50
 5302 16f5 02       		.byte	0x2
 5303 16f6 74       		.byte	0x74
 5304 16f7 00       		.sleb128 0
 5305 16f8 00       		.byte	0
 5306 16f9 1B       		.uleb128 0x1b
 5307 16fa 0E000000 		.4byte	.LVL192
 5308 16fe C9150000 		.4byte	0x15c9
 5309 1702 0D170000 		.4byte	0x170d
 5310 1706 1C       		.uleb128 0x1c
 5311 1707 01       		.byte	0x1
 5312 1708 50       		.byte	0x50
 5313 1709 02       		.byte	0x2
 5314 170a 74       		.byte	0x74
 5315 170b 00       		.sleb128 0
 5316 170c 00       		.byte	0
 5317 170d 22       		.uleb128 0x22
 5318 170e 16000000 		.4byte	.LVL193
 5319 1712 C41F0000 		.4byte	0x1fc4
 5320 1716 1C       		.uleb128 0x1c
 5321 1717 01       		.byte	0x1
 5322 1718 50       		.byte	0x50
 5323 1719 01       		.byte	0x1
 5324 171a 31       		.byte	0x31
 5325 171b 00       		.byte	0
 5326 171c 00       		.byte	0
 5327 171d 10       		.uleb128 0x10
 5328 171e 15060000 		.4byte	.LASF95
 5329 1722 01       		.byte	0x1
 5330 1723 7C02     		.2byte	0x27c
 5331 1725 01       		.byte	0x1
 5332 1726 01       		.byte	0x1
 5333 1727 43170000 		.4byte	0x1743
 5334 172b 0B       		.uleb128 0xb
 5335 172c 89000000 		.4byte	.LASF22
 5336 1730 01       		.byte	0x1
 5337 1731 7C02     		.2byte	0x27c
 5338 1733 6F000000 		.4byte	0x6f
ARM GAS  C:\Users\CHUCK~1.ERH\AppData\Local\Temp\ccby6rnL.s 			page 126


 5339 1737 11       		.uleb128 0x11
 5340 1738 697000   		.ascii	"ip\000"
 5341 173b 01       		.byte	0x1
 5342 173c 7C02     		.2byte	0x27c
 5343 173e 85000000 		.4byte	0x85
 5344 1742 00       		.byte	0
 5345 1743 10       		.uleb128 0x10
 5346 1744 7B070000 		.4byte	.LASF96
 5347 1748 01       		.byte	0x1
 5348 1749 8C02     		.2byte	0x28c
 5349 174b 01       		.byte	0x1
 5350 174c 01       		.byte	0x1
 5351 174d 6A170000 		.4byte	0x176a
 5352 1751 0B       		.uleb128 0xb
 5353 1752 89000000 		.4byte	.LASF22
 5354 1756 01       		.byte	0x1
 5355 1757 8C02     		.2byte	0x28c
 5356 1759 6F000000 		.4byte	0x6f
 5357 175d 0B       		.uleb128 0xb
 5358 175e 69020000 		.4byte	.LASF80
 5359 1762 01       		.byte	0x1
 5360 1763 8C02     		.2byte	0x28c
 5361 1765 7A000000 		.4byte	0x7a
 5362 1769 00       		.byte	0
 5363 176a 39       		.uleb128 0x39
 5364 176b 01       		.byte	0x1
 5365 176c 2E040000 		.4byte	.LASF97
 5366 1770 01       		.byte	0x1
 5367 1771 1205     		.2byte	0x512
 5368 1773 01       		.byte	0x1
 5369 1774 00000000 		.4byte	.LFB91
 5370 1778 78000000 		.4byte	.LFE91
 5371 177c 700F0000 		.4byte	.LLST121
 5372 1780 01       		.byte	0x1
 5373 1781 10190000 		.4byte	0x1910
 5374 1785 1F       		.uleb128 0x1f
 5375 1786 89000000 		.4byte	.LASF22
 5376 178a 01       		.byte	0x1
 5377 178b 1205     		.2byte	0x512
 5378 178d 6F000000 		.4byte	0x6f
 5379 1791 900F0000 		.4byte	.LLST122
 5380 1795 20       		.uleb128 0x20
 5381 1796 697000   		.ascii	"ip\000"
 5382 1799 01       		.byte	0x1
 5383 179a 1205     		.2byte	0x512
 5384 179c 85000000 		.4byte	0x85
 5385 17a0 BC0F0000 		.4byte	.LLST123
 5386 17a4 1F       		.uleb128 0x1f
 5387 17a5 69020000 		.4byte	.LASF80
 5388 17a9 01       		.byte	0x1
 5389 17aa 1205     		.2byte	0x512
 5390 17ac 7A000000 		.4byte	0x7a
 5391 17b0 E80F0000 		.4byte	.LLST124
 5392 17b4 21       		.uleb128 0x21
 5393 17b5 E8020000 		.4byte	.LASF60
 5394 17b9 01       		.byte	0x1
 5395 17ba 1405     		.2byte	0x514
ARM GAS  C:\Users\CHUCK~1.ERH\AppData\Local\Temp\ccby6rnL.s 			page 127


 5396 17bc 85000000 		.4byte	0x85
 5397 17c0 14100000 		.4byte	.LLST125
 5398 17c4 14       		.uleb128 0x14
 5399 17c5 697200   		.ascii	"ir\000"
 5400 17c8 01       		.byte	0x1
 5401 17c9 1505     		.2byte	0x515
 5402 17cb 6F000000 		.4byte	0x6f
 5403 17cf 33       		.uleb128 0x33
 5404 17d0 1D170000 		.4byte	0x171d
 5405 17d4 0C000000 		.4byte	.LBB176
 5406 17d8 18000000 		.4byte	.LBE176
 5407 17dc 01       		.byte	0x1
 5408 17dd 1805     		.2byte	0x518
 5409 17df 0A180000 		.4byte	0x180a
 5410 17e3 31       		.uleb128 0x31
 5411 17e4 37170000 		.4byte	0x1737
 5412 17e8 2B       		.uleb128 0x2b
 5413 17e9 2B170000 		.4byte	0x172b
 5414 17ed 57100000 		.4byte	.LLST126
 5415 17f1 22       		.uleb128 0x22
 5416 17f2 18000000 		.4byte	.LVL197
 5417 17f6 5A040000 		.4byte	0x45a
 5418 17fa 1C       		.uleb128 0x1c
 5419 17fb 01       		.byte	0x1
 5420 17fc 51       		.byte	0x51
 5421 17fd 03       		.byte	0x3
 5422 17fe F3       		.byte	0xf3
 5423 17ff 01       		.uleb128 0x1
 5424 1800 51       		.byte	0x51
 5425 1801 1C       		.uleb128 0x1c
 5426 1802 01       		.byte	0x1
 5427 1803 50       		.byte	0x50
 5428 1804 03       		.byte	0x3
 5429 1805 75       		.byte	0x75
 5430 1806 8C08     		.sleb128 1036
 5431 1808 00       		.byte	0
 5432 1809 00       		.byte	0
 5433 180a 33       		.uleb128 0x33
 5434 180b 43170000 		.4byte	0x1743
 5435 180f 18000000 		.4byte	.LBB178
 5436 1813 24000000 		.4byte	.LBE178
 5437 1817 01       		.byte	0x1
 5438 1818 1905     		.2byte	0x519
 5439 181a 48180000 		.4byte	0x1848
 5440 181e 2B       		.uleb128 0x2b
 5441 181f 5D170000 		.4byte	0x175d
 5442 1823 75100000 		.4byte	.LLST127
 5443 1827 2B       		.uleb128 0x2b
 5444 1828 51170000 		.4byte	0x1751
 5445 182c 88100000 		.4byte	.LLST128
 5446 1830 22       		.uleb128 0x22
 5447 1831 24000000 		.4byte	.LVL198
 5448 1835 EC030000 		.4byte	0x3ec
 5449 1839 1C       		.uleb128 0x1c
 5450 183a 01       		.byte	0x1
 5451 183b 51       		.byte	0x51
 5452 183c 02       		.byte	0x2
ARM GAS  C:\Users\CHUCK~1.ERH\AppData\Local\Temp\ccby6rnL.s 			page 128


 5453 183d 77       		.byte	0x77
 5454 183e 00       		.sleb128 0
 5455 183f 1C       		.uleb128 0x1c
 5456 1840 01       		.byte	0x1
 5457 1841 50       		.byte	0x50
 5458 1842 03       		.byte	0x3
 5459 1843 75       		.byte	0x75
 5460 1844 9008     		.sleb128 1040
 5461 1846 00       		.byte	0
 5462 1847 00       		.byte	0
 5463 1848 33       		.uleb128 0x33
 5464 1849 140B0000 		.4byte	0xb14
 5465 184d 24000000 		.4byte	.LBB180
 5466 1851 2E000000 		.4byte	.LBE180
 5467 1855 01       		.byte	0x1
 5468 1856 1B05     		.2byte	0x51b
 5469 1858 75180000 		.4byte	0x1875
 5470 185c 2B       		.uleb128 0x2b
 5471 185d 220B0000 		.4byte	0xb22
 5472 1861 9B100000 		.4byte	.LLST129
 5473 1865 22       		.uleb128 0x22
 5474 1866 2E000000 		.4byte	.LVL199
 5475 186a 5A040000 		.4byte	0x45a
 5476 186e 1C       		.uleb128 0x1c
 5477 186f 01       		.byte	0x1
 5478 1870 50       		.byte	0x50
 5479 1871 01       		.byte	0x1
 5480 1872 35       		.byte	0x35
 5481 1873 00       		.byte	0
 5482 1874 00       		.byte	0
 5483 1875 33       		.uleb128 0x33
 5484 1876 2E0B0000 		.4byte	0xb2e
 5485 187a 4C000000 		.4byte	.LBB182
 5486 187e 56000000 		.4byte	.LBE182
 5487 1882 01       		.byte	0x1
 5488 1883 2105     		.2byte	0x521
 5489 1885 A0180000 		.4byte	0x18a0
 5490 1889 31       		.uleb128 0x31
 5491 188a 400B0000 		.4byte	0xb40
 5492 188e 22       		.uleb128 0x22
 5493 188f 56000000 		.4byte	.LVL203
 5494 1893 37050000 		.4byte	0x537
 5495 1897 1C       		.uleb128 0x1c
 5496 1898 01       		.byte	0x1
 5497 1899 50       		.byte	0x50
 5498 189a 03       		.byte	0x3
 5499 189b 75       		.byte	0x75
 5500 189c 8208     		.sleb128 1026
 5501 189e 00       		.byte	0
 5502 189f 00       		.byte	0
 5503 18a0 2F       		.uleb128 0x2f
 5504 18a1 140B0000 		.4byte	0xb14
 5505 18a5 66000000 		.4byte	.LBB184
 5506 18a9 28010000 		.4byte	.Ldebug_ranges0+0x128
 5507 18ad 01       		.byte	0x1
 5508 18ae 2805     		.2byte	0x528
 5509 18b0 D3180000 		.4byte	0x18d3
ARM GAS  C:\Users\CHUCK~1.ERH\AppData\Local\Temp\ccby6rnL.s 			page 129


 5510 18b4 2B       		.uleb128 0x2b
 5511 18b5 220B0000 		.4byte	0xb22
 5512 18b9 B2100000 		.4byte	.LLST130
 5513 18bd 1D       		.uleb128 0x1d
 5514 18be 72000000 		.4byte	.LVL208
 5515 18c2 01       		.byte	0x1
 5516 18c3 5A040000 		.4byte	0x45a
 5517 18c7 1C       		.uleb128 0x1c
 5518 18c8 01       		.byte	0x1
 5519 18c9 51       		.byte	0x51
 5520 18ca 01       		.byte	0x1
 5521 18cb 30       		.byte	0x30
 5522 18cc 1C       		.uleb128 0x1c
 5523 18cd 01       		.byte	0x1
 5524 18ce 50       		.byte	0x50
 5525 18cf 01       		.byte	0x1
 5526 18d0 35       		.byte	0x35
 5527 18d1 00       		.byte	0
 5528 18d2 00       		.byte	0
 5529 18d3 1B       		.uleb128 0x1b
 5530 18d4 36000000 		.4byte	.LVL200
 5531 18d8 4E0A0000 		.4byte	0xa4e
 5532 18dc EC180000 		.4byte	0x18ec
 5533 18e0 1C       		.uleb128 0x1c
 5534 18e1 01       		.byte	0x1
 5535 18e2 51       		.byte	0x51
 5536 18e3 01       		.byte	0x1
 5537 18e4 34       		.byte	0x34
 5538 18e5 1C       		.uleb128 0x1c
 5539 18e6 01       		.byte	0x1
 5540 18e7 50       		.byte	0x50
 5541 18e8 02       		.byte	0x2
 5542 18e9 76       		.byte	0x76
 5543 18ea 00       		.sleb128 0
 5544 18eb 00       		.byte	0
 5545 18ec 1B       		.uleb128 0x1b
 5546 18ed 3C000000 		.4byte	.LVL201
 5547 18f1 C9150000 		.4byte	0x15c9
 5548 18f5 00190000 		.4byte	0x1900
 5549 18f9 1C       		.uleb128 0x1c
 5550 18fa 01       		.byte	0x1
 5551 18fb 50       		.byte	0x50
 5552 18fc 02       		.byte	0x2
 5553 18fd 76       		.byte	0x76
 5554 18fe 00       		.sleb128 0
 5555 18ff 00       		.byte	0
 5556 1900 22       		.uleb128 0x22
 5557 1901 4C000000 		.4byte	.LVL202
 5558 1905 C41F0000 		.4byte	0x1fc4
 5559 1909 1C       		.uleb128 0x1c
 5560 190a 01       		.byte	0x1
 5561 190b 50       		.byte	0x50
 5562 190c 01       		.byte	0x1
 5563 190d 31       		.byte	0x31
 5564 190e 00       		.byte	0
 5565 190f 00       		.byte	0
 5566 1910 3C       		.uleb128 0x3c
ARM GAS  C:\Users\CHUCK~1.ERH\AppData\Local\Temp\ccby6rnL.s 			page 130


 5567 1911 01       		.byte	0x1
 5568 1912 66030000 		.4byte	.LASF98
 5569 1916 01       		.byte	0x1
 5570 1917 2D05     		.2byte	0x52d
 5571 1919 01       		.byte	0x1
 5572 191a 6F000000 		.4byte	0x6f
 5573 191e 00000000 		.4byte	.LFB92
 5574 1922 04000000 		.4byte	.LFE92
 5575 1926 02       		.byte	0x2
 5576 1927 7D       		.byte	0x7d
 5577 1928 00       		.sleb128 0
 5578 1929 01       		.byte	0x1
 5579 192a 49190000 		.4byte	0x1949
 5580 192e 1F       		.uleb128 0x1f
 5581 192f 89000000 		.4byte	.LASF22
 5582 1933 01       		.byte	0x1
 5583 1934 2D05     		.2byte	0x52d
 5584 1936 6F000000 		.4byte	0x6f
 5585 193a C6100000 		.4byte	.LLST131
 5586 193e 27       		.uleb128 0x27
 5587 193f 04000000 		.4byte	.LVL210
 5588 1943 01       		.byte	0x1
 5589 1944 C9150000 		.4byte	0x15c9
 5590 1948 00       		.byte	0
 5591 1949 3D       		.uleb128 0x3d
 5592 194a 01       		.byte	0x1
 5593 194b 95050000 		.4byte	.LASF99
 5594 194f 01       		.byte	0x1
 5595 1950 3105     		.2byte	0x531
 5596 1952 01       		.byte	0x1
 5597 1953 00000000 		.4byte	.LFB93
 5598 1957 06000000 		.4byte	.LFE93
 5599 195b 02       		.byte	0x2
 5600 195c 7D       		.byte	0x7d
 5601 195d 00       		.sleb128 0
 5602 195e 01       		.byte	0x1
 5603 195f 84190000 		.4byte	0x1984
 5604 1963 1F       		.uleb128 0x1f
 5605 1964 89000000 		.4byte	.LASF22
 5606 1968 01       		.byte	0x1
 5607 1969 3105     		.2byte	0x531
 5608 196b 6F000000 		.4byte	0x6f
 5609 196f E7100000 		.4byte	.LLST132
 5610 1973 1D       		.uleb128 0x1d
 5611 1974 06000000 		.4byte	.LVL212
 5612 1978 01       		.byte	0x1
 5613 1979 4E0A0000 		.4byte	0xa4e
 5614 197d 1C       		.uleb128 0x1c
 5615 197e 01       		.byte	0x1
 5616 197f 51       		.byte	0x51
 5617 1980 01       		.byte	0x1
 5618 1981 38       		.byte	0x38
 5619 1982 00       		.byte	0
 5620 1983 00       		.byte	0
 5621 1984 13       		.uleb128 0x13
 5622 1985 CE060000 		.4byte	.LASF100
 5623 1989 01       		.byte	0x1
ARM GAS  C:\Users\CHUCK~1.ERH\AppData\Local\Temp\ccby6rnL.s 			page 131


 5624 198a 2F03     		.2byte	0x32f
 5625 198c 01       		.byte	0x1
 5626 198d 7A000000 		.4byte	0x7a
 5627 1991 01       		.byte	0x1
 5628 1992 BB190000 		.4byte	0x19bb
 5629 1996 0B       		.uleb128 0xb
 5630 1997 89000000 		.4byte	.LASF22
 5631 199b 01       		.byte	0x1
 5632 199c 2F03     		.2byte	0x32f
 5633 199e 6F000000 		.4byte	0x6f
 5634 19a2 12       		.uleb128 0x12
 5635 19a3 BC050000 		.4byte	.LASF52
 5636 19a7 01       		.byte	0x1
 5637 19a8 3103     		.2byte	0x331
 5638 19aa 7A000000 		.4byte	0x7a
 5639 19ae 12       		.uleb128 0x12
 5640 19af CE010000 		.4byte	.LASF53
 5641 19b3 01       		.byte	0x1
 5642 19b4 3103     		.2byte	0x331
 5643 19b6 7A000000 		.4byte	0x7a
 5644 19ba 00       		.byte	0
 5645 19bb 13       		.uleb128 0x13
 5646 19bc 5E040000 		.4byte	.LASF101
 5647 19c0 01       		.byte	0x1
 5648 19c1 DC02     		.2byte	0x2dc
 5649 19c3 01       		.byte	0x1
 5650 19c4 7A000000 		.4byte	0x7a
 5651 19c8 01       		.byte	0x1
 5652 19c9 DA190000 		.4byte	0x19da
 5653 19cd 0B       		.uleb128 0xb
 5654 19ce 89000000 		.4byte	.LASF22
 5655 19d2 01       		.byte	0x1
 5656 19d3 DC02     		.2byte	0x2dc
 5657 19d5 6F000000 		.4byte	0x6f
 5658 19d9 00       		.byte	0
 5659 19da 34       		.uleb128 0x34
 5660 19db 01       		.byte	0x1
 5661 19dc 08060000 		.4byte	.LASF102
 5662 19e0 01       		.byte	0x1
 5663 19e1 3705     		.2byte	0x537
 5664 19e3 01       		.byte	0x1
 5665 19e4 7A000000 		.4byte	0x7a
 5666 19e8 00000000 		.4byte	.LFB94
 5667 19ec 7C000000 		.4byte	.LFE94
 5668 19f0 08110000 		.4byte	.LLST133
 5669 19f4 01       		.byte	0x1
 5670 19f5 321B0000 		.4byte	0x1b32
 5671 19f9 1F       		.uleb128 0x1f
 5672 19fa 89000000 		.4byte	.LASF22
 5673 19fe 01       		.byte	0x1
 5674 19ff 3705     		.2byte	0x537
 5675 1a01 6F000000 		.4byte	0x6f
 5676 1a05 28110000 		.4byte	.LLST134
 5677 1a09 1F       		.uleb128 0x1f
 5678 1a0a 40060000 		.4byte	.LASF27
 5679 1a0e 01       		.byte	0x1
 5680 1a0f 3705     		.2byte	0x537
ARM GAS  C:\Users\CHUCK~1.ERH\AppData\Local\Temp\ccby6rnL.s 			page 132


 5681 1a11 62010000 		.4byte	0x162
 5682 1a15 49110000 		.4byte	.LLST135
 5683 1a19 20       		.uleb128 0x20
 5684 1a1a 6C656E00 		.ascii	"len\000"
 5685 1a1e 01       		.byte	0x1
 5686 1a1f 3705     		.2byte	0x537
 5687 1a21 7A000000 		.4byte	0x7a
 5688 1a25 67110000 		.4byte	.LLST136
 5689 1a29 21       		.uleb128 0x21
 5690 1a2a 6A000000 		.4byte	.LASF103
 5691 1a2e 01       		.byte	0x1
 5692 1a2f 3905     		.2byte	0x539
 5693 1a31 7A000000 		.4byte	0x7a
 5694 1a35 88110000 		.4byte	.LLST137
 5695 1a39 21       		.uleb128 0x21
 5696 1a3a 34030000 		.4byte	.LASF104
 5697 1a3e 01       		.byte	0x1
 5698 1a3f 3A05     		.2byte	0x53a
 5699 1a41 7A000000 		.4byte	0x7a
 5700 1a45 FE110000 		.4byte	.LLST138
 5701 1a49 21       		.uleb128 0x21
 5702 1a4a C7060000 		.4byte	.LASF89
 5703 1a4e 01       		.byte	0x1
 5704 1a4f 3B05     		.2byte	0x53b
 5705 1a51 6F000000 		.4byte	0x6f
 5706 1a55 1C120000 		.4byte	.LLST139
 5707 1a59 2F       		.uleb128 0x2f
 5708 1a5a 84190000 		.4byte	0x1984
 5709 1a5e 20000000 		.4byte	.LBB194
 5710 1a62 40010000 		.4byte	.Ldebug_ranges0+0x140
 5711 1a66 01       		.byte	0x1
 5712 1a67 4A05     		.2byte	0x54a
 5713 1a69 D91A0000 		.4byte	0x1ad9
 5714 1a6d 31       		.uleb128 0x31
 5715 1a6e 96190000 		.4byte	0x1996
 5716 1a72 3E       		.uleb128 0x3e
 5717 1a73 60010000 		.4byte	.Ldebug_ranges0+0x160
 5718 1a77 2D       		.uleb128 0x2d
 5719 1a78 A2190000 		.4byte	0x19a2
 5720 1a7c 01       		.byte	0x1
 5721 1a7d 58       		.byte	0x58
 5722 1a7e 2C       		.uleb128 0x2c
 5723 1a7f AE190000 		.4byte	0x19ae
 5724 1a83 45120000 		.4byte	.LLST140
 5725 1a87 2F       		.uleb128 0x2f
 5726 1a88 BB190000 		.4byte	0x19bb
 5727 1a8c 20000000 		.4byte	.LBB196
 5728 1a90 80010000 		.4byte	.Ldebug_ranges0+0x180
 5729 1a94 01       		.byte	0x1
 5730 1a95 3603     		.2byte	0x336
 5731 1a97 B11A0000 		.4byte	0x1ab1
 5732 1a9b 31       		.uleb128 0x31
 5733 1a9c CD190000 		.4byte	0x19cd
 5734 1aa0 22       		.uleb128 0x22
 5735 1aa1 44000000 		.4byte	.LVL219
 5736 1aa5 39060000 		.4byte	0x639
 5737 1aa9 1C       		.uleb128 0x1c
ARM GAS  C:\Users\CHUCK~1.ERH\AppData\Local\Temp\ccby6rnL.s 			page 133


 5738 1aaa 01       		.byte	0x1
 5739 1aab 50       		.byte	0x50
 5740 1aac 02       		.byte	0x2
 5741 1aad 77       		.byte	0x77
 5742 1aae 00       		.sleb128 0
 5743 1aaf 00       		.byte	0
 5744 1ab0 00       		.byte	0
 5745 1ab1 32       		.uleb128 0x32
 5746 1ab2 BB190000 		.4byte	0x19bb
 5747 1ab6 48000000 		.4byte	.LBB202
 5748 1aba 50000000 		.4byte	.LBE202
 5749 1abe 01       		.byte	0x1
 5750 1abf 3803     		.2byte	0x338
 5751 1ac1 31       		.uleb128 0x31
 5752 1ac2 CD190000 		.4byte	0x19cd
 5753 1ac6 22       		.uleb128 0x22
 5754 1ac7 4E000000 		.4byte	.LVL220
 5755 1acb 39060000 		.4byte	0x639
 5756 1acf 1C       		.uleb128 0x1c
 5757 1ad0 01       		.byte	0x1
 5758 1ad1 50       		.byte	0x50
 5759 1ad2 02       		.byte	0x2
 5760 1ad3 77       		.byte	0x77
 5761 1ad4 00       		.sleb128 0
 5762 1ad5 00       		.byte	0
 5763 1ad6 00       		.byte	0
 5764 1ad7 00       		.byte	0
 5765 1ad8 00       		.byte	0
 5766 1ad9 1B       		.uleb128 0x1b
 5767 1ada 0E000000 		.4byte	.LVL215
 5768 1ade 01060000 		.4byte	0x601
 5769 1ae2 ED1A0000 		.4byte	0x1aed
 5770 1ae6 1C       		.uleb128 0x1c
 5771 1ae7 01       		.byte	0x1
 5772 1ae8 50       		.byte	0x50
 5773 1ae9 02       		.byte	0x2
 5774 1aea 75       		.byte	0x75
 5775 1aeb 00       		.sleb128 0
 5776 1aec 00       		.byte	0
 5777 1aed 1B       		.uleb128 0x1b
 5778 1aee 5A000000 		.4byte	.LVL222
 5779 1af2 01060000 		.4byte	0x601
 5780 1af6 011B0000 		.4byte	0x1b01
 5781 1afa 1C       		.uleb128 0x1c
 5782 1afb 01       		.byte	0x1
 5783 1afc 50       		.byte	0x50
 5784 1afd 02       		.byte	0x2
 5785 1afe 75       		.byte	0x75
 5786 1aff 00       		.sleb128 0
 5787 1b00 00       		.byte	0
 5788 1b01 1B       		.uleb128 0x1b
 5789 1b02 66000000 		.4byte	.LVL225
 5790 1b06 E2060000 		.4byte	0x6e2
 5791 1b0a 211B0000 		.4byte	0x1b21
 5792 1b0e 1C       		.uleb128 0x1c
 5793 1b0f 01       		.byte	0x1
 5794 1b10 52       		.byte	0x52
ARM GAS  C:\Users\CHUCK~1.ERH\AppData\Local\Temp\ccby6rnL.s 			page 134


 5795 1b11 02       		.byte	0x2
 5796 1b12 74       		.byte	0x74
 5797 1b13 00       		.sleb128 0
 5798 1b14 1C       		.uleb128 0x1c
 5799 1b15 01       		.byte	0x1
 5800 1b16 51       		.byte	0x51
 5801 1b17 02       		.byte	0x2
 5802 1b18 79       		.byte	0x79
 5803 1b19 00       		.sleb128 0
 5804 1b1a 1C       		.uleb128 0x1c
 5805 1b1b 01       		.byte	0x1
 5806 1b1c 50       		.byte	0x50
 5807 1b1d 02       		.byte	0x2
 5808 1b1e 75       		.byte	0x75
 5809 1b1f 00       		.sleb128 0
 5810 1b20 00       		.byte	0
 5811 1b21 22       		.uleb128 0x22
 5812 1b22 6C000000 		.4byte	.LVL226
 5813 1b26 730B0000 		.4byte	0xb73
 5814 1b2a 1C       		.uleb128 0x1c
 5815 1b2b 01       		.byte	0x1
 5816 1b2c 50       		.byte	0x50
 5817 1b2d 02       		.byte	0x2
 5818 1b2e 75       		.byte	0x75
 5819 1b2f 00       		.sleb128 0
 5820 1b30 00       		.byte	0
 5821 1b31 00       		.byte	0
 5822 1b32 34       		.uleb128 0x34
 5823 1b33 01       		.byte	0x1
 5824 1b34 06070000 		.4byte	.LASF105
 5825 1b38 01       		.byte	0x1
 5826 1b39 5F05     		.2byte	0x55f
 5827 1b3b 01       		.byte	0x1
 5828 1b3c 7A000000 		.4byte	0x7a
 5829 1b40 00000000 		.4byte	.LFB95
 5830 1b44 3E000000 		.4byte	.LFE95
 5831 1b48 58120000 		.4byte	.LLST141
 5832 1b4c 01       		.byte	0x1
 5833 1b4d F51B0000 		.4byte	0x1bf5
 5834 1b51 1F       		.uleb128 0x1f
 5835 1b52 89000000 		.4byte	.LASF22
 5836 1b56 01       		.byte	0x1
 5837 1b57 5F05     		.2byte	0x55f
 5838 1b59 6F000000 		.4byte	0x6f
 5839 1b5d 78120000 		.4byte	.LLST142
 5840 1b61 1F       		.uleb128 0x1f
 5841 1b62 40060000 		.4byte	.LASF27
 5842 1b66 01       		.byte	0x1
 5843 1b67 5F05     		.2byte	0x55f
 5844 1b69 62010000 		.4byte	0x162
 5845 1b6d 99120000 		.4byte	.LLST143
 5846 1b71 1F       		.uleb128 0x1f
 5847 1b72 D6050000 		.4byte	.LASF36
 5848 1b76 01       		.byte	0x1
 5849 1b77 5F05     		.2byte	0x55f
 5850 1b79 7A000000 		.4byte	0x7a
 5851 1b7d B7120000 		.4byte	.LLST144
ARM GAS  C:\Users\CHUCK~1.ERH\AppData\Local\Temp\ccby6rnL.s 			page 135


 5852 1b81 21       		.uleb128 0x21
 5853 1b82 DB030000 		.4byte	.LASF106
 5854 1b86 01       		.byte	0x1
 5855 1b87 6105     		.2byte	0x561
 5856 1b89 7A000000 		.4byte	0x7a
 5857 1b8d D8120000 		.4byte	.LLST145
 5858 1b91 1B       		.uleb128 0x1b
 5859 1b92 0C000000 		.4byte	.LVL230
 5860 1b96 01060000 		.4byte	0x601
 5861 1b9a A51B0000 		.4byte	0x1ba5
 5862 1b9e 1C       		.uleb128 0x1c
 5863 1b9f 01       		.byte	0x1
 5864 1ba0 50       		.byte	0x50
 5865 1ba1 02       		.byte	0x2
 5866 1ba2 75       		.byte	0x75
 5867 1ba3 00       		.sleb128 0
 5868 1ba4 00       		.byte	0
 5869 1ba5 1B       		.uleb128 0x1b
 5870 1ba6 1A000000 		.4byte	.LVL233
 5871 1baa F9070000 		.4byte	0x7f9
 5872 1bae B91B0000 		.4byte	0x1bb9
 5873 1bb2 1C       		.uleb128 0x1c
 5874 1bb3 01       		.byte	0x1
 5875 1bb4 50       		.byte	0x50
 5876 1bb5 02       		.byte	0x2
 5877 1bb6 75       		.byte	0x75
 5878 1bb7 00       		.sleb128 0
 5879 1bb8 00       		.byte	0
 5880 1bb9 1B       		.uleb128 0x1b
 5881 1bba 32000000 		.4byte	.LVL237
 5882 1bbe 4C090000 		.4byte	0x94c
 5883 1bc2 DE1B0000 		.4byte	0x1bde
 5884 1bc6 1C       		.uleb128 0x1c
 5885 1bc7 01       		.byte	0x1
 5886 1bc8 53       		.byte	0x53
 5887 1bc9 02       		.byte	0x2
 5888 1bca 74       		.byte	0x74
 5889 1bcb 00       		.sleb128 0
 5890 1bcc 1C       		.uleb128 0x1c
 5891 1bcd 01       		.byte	0x1
 5892 1bce 52       		.byte	0x52
 5893 1bcf 02       		.byte	0x2
 5894 1bd0 76       		.byte	0x76
 5895 1bd1 00       		.sleb128 0
 5896 1bd2 1C       		.uleb128 0x1c
 5897 1bd3 01       		.byte	0x1
 5898 1bd4 51       		.byte	0x51
 5899 1bd5 01       		.byte	0x1
 5900 1bd6 30       		.byte	0x30
 5901 1bd7 1C       		.uleb128 0x1c
 5902 1bd8 01       		.byte	0x1
 5903 1bd9 50       		.byte	0x50
 5904 1bda 02       		.byte	0x2
 5905 1bdb 75       		.byte	0x75
 5906 1bdc 00       		.sleb128 0
 5907 1bdd 00       		.byte	0
 5908 1bde 22       		.uleb128 0x22
ARM GAS  C:\Users\CHUCK~1.ERH\AppData\Local\Temp\ccby6rnL.s 			page 136


 5909 1bdf 3A000000 		.4byte	.LVL238
 5910 1be3 4E0A0000 		.4byte	0xa4e
 5911 1be7 1C       		.uleb128 0x1c
 5912 1be8 01       		.byte	0x1
 5913 1be9 51       		.byte	0x51
 5914 1bea 02       		.byte	0x2
 5915 1beb 08       		.byte	0x8
 5916 1bec 40       		.byte	0x40
 5917 1bed 1C       		.uleb128 0x1c
 5918 1bee 01       		.byte	0x1
 5919 1bef 50       		.byte	0x50
 5920 1bf0 02       		.byte	0x2
 5921 1bf1 75       		.byte	0x75
 5922 1bf2 00       		.sleb128 0
 5923 1bf3 00       		.byte	0
 5924 1bf4 00       		.byte	0
 5925 1bf5 39       		.uleb128 0x39
 5926 1bf6 01       		.byte	0x1
 5927 1bf7 D5010000 		.4byte	.LASF107
 5928 1bfb 01       		.byte	0x1
 5929 1bfc 8005     		.2byte	0x580
 5930 1bfe 01       		.byte	0x1
 5931 1bff 00000000 		.4byte	.LFB96
 5932 1c03 1A000000 		.4byte	.LFE96
 5933 1c07 19130000 		.4byte	.LLST146
 5934 1c0b 01       		.byte	0x1
 5935 1c0c 5C1C0000 		.4byte	0x1c5c
 5936 1c10 1F       		.uleb128 0x1f
 5937 1c11 89000000 		.4byte	.LASF22
 5938 1c15 01       		.byte	0x1
 5939 1c16 8005     		.2byte	0x580
 5940 1c18 6F000000 		.4byte	0x6f
 5941 1c1c 39130000 		.4byte	.LLST147
 5942 1c20 20       		.uleb128 0x20
 5943 1c21 73747200 		.ascii	"str\000"
 5944 1c25 01       		.byte	0x1
 5945 1c26 8005     		.2byte	0x580
 5946 1c28 AC000000 		.4byte	0xac
 5947 1c2c 5A130000 		.4byte	.LLST148
 5948 1c30 1B       		.uleb128 0x1b
 5949 1c31 0C000000 		.4byte	.LVL241
 5950 1c35 D81F0000 		.4byte	0x1fd8
 5951 1c39 441C0000 		.4byte	0x1c44
 5952 1c3d 1C       		.uleb128 0x1c
 5953 1c3e 01       		.byte	0x1
 5954 1c3f 50       		.byte	0x50
 5955 1c40 02       		.byte	0x2
 5956 1c41 74       		.byte	0x74
 5957 1c42 00       		.sleb128 0
 5958 1c43 00       		.byte	0
 5959 1c44 1D       		.uleb128 0x1d
 5960 1c45 1A000000 		.4byte	.LVL242
 5961 1c49 01       		.byte	0x1
 5962 1c4a DA190000 		.4byte	0x19da
 5963 1c4e 1C       		.uleb128 0x1c
 5964 1c4f 01       		.byte	0x1
 5965 1c50 51       		.byte	0x51
ARM GAS  C:\Users\CHUCK~1.ERH\AppData\Local\Temp\ccby6rnL.s 			page 137


 5966 1c51 02       		.byte	0x2
 5967 1c52 74       		.byte	0x74
 5968 1c53 00       		.sleb128 0
 5969 1c54 1C       		.uleb128 0x1c
 5970 1c55 01       		.byte	0x1
 5971 1c56 50       		.byte	0x50
 5972 1c57 02       		.byte	0x2
 5973 1c58 75       		.byte	0x75
 5974 1c59 00       		.sleb128 0
 5975 1c5a 00       		.byte	0
 5976 1c5b 00       		.byte	0
 5977 1c5c 3C       		.uleb128 0x3c
 5978 1c5d 01       		.byte	0x1
 5979 1c5e 88050000 		.4byte	.LASF108
 5980 1c62 01       		.byte	0x1
 5981 1c63 8A05     		.2byte	0x58a
 5982 1c65 01       		.byte	0x1
 5983 1c66 6F000000 		.4byte	0x6f
 5984 1c6a 00000000 		.4byte	.LFB97
 5985 1c6e 0A000000 		.4byte	.LFE97
 5986 1c72 02       		.byte	0x2
 5987 1c73 7D       		.byte	0x7d
 5988 1c74 00       		.sleb128 0
 5989 1c75 01       		.byte	0x1
 5990 1c76 A01C0000 		.4byte	0x1ca0
 5991 1c7a 1F       		.uleb128 0x1f
 5992 1c7b 69020000 		.4byte	.LASF80
 5993 1c7f 01       		.byte	0x1
 5994 1c80 8A05     		.2byte	0x58a
 5995 1c82 7A000000 		.4byte	0x7a
 5996 1c86 78130000 		.4byte	.LLST149
 5997 1c8a 1D       		.uleb128 0x1d
 5998 1c8b 0A000000 		.4byte	.LVL245
 5999 1c8f 01       		.byte	0x1
 6000 1c90 F30F0000 		.4byte	0xff3
 6001 1c94 1C       		.uleb128 0x1c
 6002 1c95 01       		.byte	0x1
 6003 1c96 52       		.byte	0x52
 6004 1c97 01       		.byte	0x1
 6005 1c98 30       		.byte	0x30
 6006 1c99 1C       		.uleb128 0x1c
 6007 1c9a 01       		.byte	0x1
 6008 1c9b 50       		.byte	0x50
 6009 1c9c 01       		.byte	0x1
 6010 1c9d 32       		.byte	0x32
 6011 1c9e 00       		.byte	0
 6012 1c9f 00       		.byte	0
 6013 1ca0 34       		.uleb128 0x34
 6014 1ca1 01       		.byte	0x1
 6015 1ca2 4D030000 		.4byte	.LASF109
 6016 1ca6 01       		.byte	0x1
 6017 1ca7 9005     		.2byte	0x590
 6018 1ca9 01       		.byte	0x1
 6019 1caa 7A000000 		.4byte	0x7a
 6020 1cae 00000000 		.4byte	.LFB98
 6021 1cb2 5C000000 		.4byte	.LFE98
 6022 1cb6 99130000 		.4byte	.LLST150
ARM GAS  C:\Users\CHUCK~1.ERH\AppData\Local\Temp\ccby6rnL.s 			page 138


 6023 1cba 01       		.byte	0x1
 6024 1cbb DC1D0000 		.4byte	0x1ddc
 6025 1cbf 1F       		.uleb128 0x1f
 6026 1cc0 89000000 		.4byte	.LASF22
 6027 1cc4 01       		.byte	0x1
 6028 1cc5 9005     		.2byte	0x590
 6029 1cc7 6F000000 		.4byte	0x6f
 6030 1ccb B9130000 		.4byte	.LLST151
 6031 1ccf 20       		.uleb128 0x20
 6032 1cd0 697000   		.ascii	"ip\000"
 6033 1cd3 01       		.byte	0x1
 6034 1cd4 9005     		.2byte	0x590
 6035 1cd6 85000000 		.4byte	0x85
 6036 1cda DA130000 		.4byte	.LLST152
 6037 1cde 1F       		.uleb128 0x1f
 6038 1cdf 69020000 		.4byte	.LASF80
 6039 1ce3 01       		.byte	0x1
 6040 1ce4 9005     		.2byte	0x590
 6041 1ce6 7A000000 		.4byte	0x7a
 6042 1cea F8130000 		.4byte	.LLST153
 6043 1cee 1F       		.uleb128 0x1f
 6044 1cef 40060000 		.4byte	.LASF27
 6045 1cf3 01       		.byte	0x1
 6046 1cf4 9005     		.2byte	0x590
 6047 1cf6 62010000 		.4byte	0x162
 6048 1cfa 19140000 		.4byte	.LLST154
 6049 1cfe 3F       		.uleb128 0x3f
 6050 1cff D6050000 		.4byte	.LASF36
 6051 1d03 01       		.byte	0x1
 6052 1d04 9005     		.2byte	0x590
 6053 1d06 7A000000 		.4byte	0x7a
 6054 1d0a 02       		.byte	0x2
 6055 1d0b 91       		.byte	0x91
 6056 1d0c 00       		.sleb128 0
 6057 1d0d 21       		.uleb128 0x21
 6058 1d0e 6A000000 		.4byte	.LASF103
 6059 1d12 01       		.byte	0x1
 6060 1d13 9205     		.2byte	0x592
 6061 1d15 7A000000 		.4byte	0x7a
 6062 1d19 37140000 		.4byte	.LLST155
 6063 1d1d 2F       		.uleb128 0x2f
 6064 1d1e 1D170000 		.4byte	0x171d
 6065 1d22 1A000000 		.4byte	.LBB212
 6066 1d26 A0010000 		.4byte	.Ldebug_ranges0+0x1a0
 6067 1d2a 01       		.byte	0x1
 6068 1d2b A405     		.2byte	0x5a4
 6069 1d2d 5A1D0000 		.4byte	0x1d5a
 6070 1d31 2B       		.uleb128 0x2b
 6071 1d32 37170000 		.4byte	0x1737
 6072 1d36 6D140000 		.4byte	.LLST156
 6073 1d3a 2B       		.uleb128 0x2b
 6074 1d3b 2B170000 		.4byte	0x172b
 6075 1d3f 80140000 		.4byte	.LLST157
 6076 1d43 22       		.uleb128 0x22
 6077 1d44 30000000 		.4byte	.LVL249
 6078 1d48 5A040000 		.4byte	0x45a
 6079 1d4c 1C       		.uleb128 0x1c
ARM GAS  C:\Users\CHUCK~1.ERH\AppData\Local\Temp\ccby6rnL.s 			page 139


 6080 1d4d 01       		.byte	0x1
 6081 1d4e 51       		.byte	0x51
 6082 1d4f 02       		.byte	0x2
 6083 1d50 76       		.byte	0x76
 6084 1d51 00       		.sleb128 0
 6085 1d52 1C       		.uleb128 0x1c
 6086 1d53 01       		.byte	0x1
 6087 1d54 50       		.byte	0x50
 6088 1d55 02       		.byte	0x2
 6089 1d56 77       		.byte	0x77
 6090 1d57 7C       		.sleb128 -4
 6091 1d58 00       		.byte	0
 6092 1d59 00       		.byte	0
 6093 1d5a 2F       		.uleb128 0x2f
 6094 1d5b 43170000 		.4byte	0x1743
 6095 1d5f 28000000 		.4byte	.LBB217
 6096 1d63 C0010000 		.4byte	.Ldebug_ranges0+0x1c0
 6097 1d67 01       		.byte	0x1
 6098 1d68 A505     		.2byte	0x5a5
 6099 1d6a 971D0000 		.4byte	0x1d97
 6100 1d6e 2B       		.uleb128 0x2b
 6101 1d6f 5D170000 		.4byte	0x175d
 6102 1d73 93140000 		.4byte	.LLST158
 6103 1d77 2B       		.uleb128 0x2b
 6104 1d78 51170000 		.4byte	0x1751
 6105 1d7c 80140000 		.4byte	.LLST157
 6106 1d80 22       		.uleb128 0x22
 6107 1d81 42000000 		.4byte	.LVL251
 6108 1d85 EC030000 		.4byte	0x3ec
 6109 1d89 1C       		.uleb128 0x1c
 6110 1d8a 01       		.byte	0x1
 6111 1d8b 51       		.byte	0x51
 6112 1d8c 02       		.byte	0x2
 6113 1d8d 79       		.byte	0x79
 6114 1d8e 00       		.sleb128 0
 6115 1d8f 1C       		.uleb128 0x1c
 6116 1d90 01       		.byte	0x1
 6117 1d91 50       		.byte	0x50
 6118 1d92 02       		.byte	0x2
 6119 1d93 77       		.byte	0x77
 6120 1d94 00       		.sleb128 0
 6121 1d95 00       		.byte	0
 6122 1d96 00       		.byte	0
 6123 1d97 1B       		.uleb128 0x1b
 6124 1d98 10000000 		.4byte	.LVL247
 6125 1d9c 01060000 		.4byte	0x601
 6126 1da0 AB1D0000 		.4byte	0x1dab
 6127 1da4 1C       		.uleb128 0x1c
 6128 1da5 01       		.byte	0x1
 6129 1da6 50       		.byte	0x50
 6130 1da7 02       		.byte	0x2
 6131 1da8 75       		.byte	0x75
 6132 1da9 00       		.sleb128 0
 6133 1daa 00       		.byte	0
 6134 1dab 1B       		.uleb128 0x1b
 6135 1dac 4C000000 		.4byte	.LVL252
 6136 1db0 E2060000 		.4byte	0x6e2
ARM GAS  C:\Users\CHUCK~1.ERH\AppData\Local\Temp\ccby6rnL.s 			page 140


 6137 1db4 CB1D0000 		.4byte	0x1dcb
 6138 1db8 1C       		.uleb128 0x1c
 6139 1db9 01       		.byte	0x1
 6140 1dba 52       		.byte	0x52
 6141 1dbb 02       		.byte	0x2
 6142 1dbc 74       		.byte	0x74
 6143 1dbd 00       		.sleb128 0
 6144 1dbe 1C       		.uleb128 0x1c
 6145 1dbf 01       		.byte	0x1
 6146 1dc0 51       		.byte	0x51
 6147 1dc1 02       		.byte	0x2
 6148 1dc2 78       		.byte	0x78
 6149 1dc3 00       		.sleb128 0
 6150 1dc4 1C       		.uleb128 0x1c
 6151 1dc5 01       		.byte	0x1
 6152 1dc6 50       		.byte	0x50
 6153 1dc7 02       		.byte	0x2
 6154 1dc8 75       		.byte	0x75
 6155 1dc9 00       		.sleb128 0
 6156 1dca 00       		.byte	0
 6157 1dcb 22       		.uleb128 0x22
 6158 1dcc 52000000 		.4byte	.LVL253
 6159 1dd0 730B0000 		.4byte	0xb73
 6160 1dd4 1C       		.uleb128 0x1c
 6161 1dd5 01       		.byte	0x1
 6162 1dd6 50       		.byte	0x50
 6163 1dd7 02       		.byte	0x2
 6164 1dd8 75       		.byte	0x75
 6165 1dd9 00       		.sleb128 0
 6166 1dda 00       		.byte	0
 6167 1ddb 00       		.byte	0
 6168 1ddc 34       		.uleb128 0x34
 6169 1ddd 01       		.byte	0x1
 6170 1dde E7000000 		.4byte	.LASF110
 6171 1de2 01       		.byte	0x1
 6172 1de3 B905     		.2byte	0x5b9
 6173 1de5 01       		.byte	0x1
 6174 1de6 7A000000 		.4byte	0x7a
 6175 1dea 00000000 		.4byte	.LFB99
 6176 1dee 9E000000 		.4byte	.LFE99
 6177 1df2 A6140000 		.4byte	.LLST160
 6178 1df6 01       		.byte	0x1
 6179 1df7 001F0000 		.4byte	0x1f00
 6180 1dfb 1F       		.uleb128 0x1f
 6181 1dfc 89000000 		.4byte	.LASF22
 6182 1e00 01       		.byte	0x1
 6183 1e01 B905     		.2byte	0x5b9
 6184 1e03 6F000000 		.4byte	0x6f
 6185 1e07 C6140000 		.4byte	.LLST161
 6186 1e0b 20       		.uleb128 0x20
 6187 1e0c 697000   		.ascii	"ip\000"
 6188 1e0f 01       		.byte	0x1
 6189 1e10 B905     		.2byte	0x5b9
 6190 1e12 ED010000 		.4byte	0x1ed
 6191 1e16 E7140000 		.4byte	.LLST162
 6192 1e1a 1F       		.uleb128 0x1f
 6193 1e1b 69020000 		.4byte	.LASF80
ARM GAS  C:\Users\CHUCK~1.ERH\AppData\Local\Temp\ccby6rnL.s 			page 141


 6194 1e1f 01       		.byte	0x1
 6195 1e20 B905     		.2byte	0x5b9
 6196 1e22 001F0000 		.4byte	0x1f00
 6197 1e26 05150000 		.4byte	.LLST163
 6198 1e2a 1F       		.uleb128 0x1f
 6199 1e2b 40060000 		.4byte	.LASF27
 6200 1e2f 01       		.byte	0x1
 6201 1e30 B905     		.2byte	0x5b9
 6202 1e32 62010000 		.4byte	0x162
 6203 1e36 23150000 		.4byte	.LLST164
 6204 1e3a 3F       		.uleb128 0x3f
 6205 1e3b D6050000 		.4byte	.LASF36
 6206 1e3f 01       		.byte	0x1
 6207 1e40 B905     		.2byte	0x5b9
 6208 1e42 7A000000 		.4byte	0x7a
 6209 1e46 02       		.byte	0x2
 6210 1e47 91       		.byte	0x91
 6211 1e48 00       		.sleb128 0
 6212 1e49 21       		.uleb128 0x21
 6213 1e4a DB030000 		.4byte	.LASF106
 6214 1e4e 01       		.byte	0x1
 6215 1e4f BB05     		.2byte	0x5bb
 6216 1e51 7A000000 		.4byte	0x7a
 6217 1e55 41150000 		.4byte	.LLST165
 6218 1e59 21       		.uleb128 0x21
 6219 1e5a A2000000 		.4byte	.LASF111
 6220 1e5e 01       		.byte	0x1
 6221 1e5f BC05     		.2byte	0x5bc
 6222 1e61 7A000000 		.4byte	0x7a
 6223 1e65 82150000 		.4byte	.LLST166
 6224 1e69 35       		.uleb128 0x35
 6225 1e6a 6E060000 		.4byte	.LASF112
 6226 1e6e 01       		.byte	0x1
 6227 1e6f BD05     		.2byte	0x5bd
 6228 1e71 061F0000 		.4byte	0x1f06
 6229 1e75 02       		.byte	0x2
 6230 1e76 91       		.byte	0x91
 6231 1e77 58       		.sleb128 -40
 6232 1e78 1B       		.uleb128 0x1b
 6233 1e79 14000000 		.4byte	.LVL257
 6234 1e7d 01060000 		.4byte	0x601
 6235 1e81 8C1E0000 		.4byte	0x1e8c
 6236 1e85 1C       		.uleb128 0x1c
 6237 1e86 01       		.byte	0x1
 6238 1e87 50       		.byte	0x50
 6239 1e88 02       		.byte	0x2
 6240 1e89 74       		.byte	0x74
 6241 1e8a 00       		.sleb128 0
 6242 1e8b 00       		.byte	0
 6243 1e8c 1B       		.uleb128 0x1b
 6244 1e8d 22000000 		.4byte	.LVL260
 6245 1e91 F9070000 		.4byte	0x7f9
 6246 1e95 A01E0000 		.4byte	0x1ea0
 6247 1e99 1C       		.uleb128 0x1c
 6248 1e9a 01       		.byte	0x1
 6249 1e9b 50       		.byte	0x50
 6250 1e9c 02       		.byte	0x2
ARM GAS  C:\Users\CHUCK~1.ERH\AppData\Local\Temp\ccby6rnL.s 			page 142


 6251 1e9d 74       		.byte	0x74
 6252 1e9e 00       		.sleb128 0
 6253 1e9f 00       		.byte	0
 6254 1ea0 1B       		.uleb128 0x1b
 6255 1ea1 3E000000 		.4byte	.LVL262
 6256 1ea5 4C090000 		.4byte	0x94c
 6257 1ea9 C41E0000 		.4byte	0x1ec4
 6258 1ead 1C       		.uleb128 0x1c
 6259 1eae 01       		.byte	0x1
 6260 1eaf 53       		.byte	0x53
 6261 1eb0 01       		.byte	0x1
 6262 1eb1 38       		.byte	0x38
 6263 1eb2 1C       		.uleb128 0x1c
 6264 1eb3 01       		.byte	0x1
 6265 1eb4 52       		.byte	0x52
 6266 1eb5 02       		.byte	0x2
 6267 1eb6 91       		.byte	0x91
 6268 1eb7 58       		.sleb128 -40
 6269 1eb8 1C       		.uleb128 0x1c
 6270 1eb9 01       		.byte	0x1
 6271 1eba 51       		.byte	0x51
 6272 1ebb 01       		.byte	0x1
 6273 1ebc 30       		.byte	0x30
 6274 1ebd 1C       		.uleb128 0x1c
 6275 1ebe 01       		.byte	0x1
 6276 1ebf 50       		.byte	0x50
 6277 1ec0 02       		.byte	0x2
 6278 1ec1 74       		.byte	0x74
 6279 1ec2 00       		.sleb128 0
 6280 1ec3 00       		.byte	0
 6281 1ec4 1B       		.uleb128 0x1b
 6282 1ec5 8C000000 		.4byte	.LVL264
 6283 1ec9 4C090000 		.4byte	0x94c
 6284 1ecd E91E0000 		.4byte	0x1ee9
 6285 1ed1 1C       		.uleb128 0x1c
 6286 1ed2 01       		.byte	0x1
 6287 1ed3 53       		.byte	0x53
 6288 1ed4 02       		.byte	0x2
 6289 1ed5 75       		.byte	0x75
 6290 1ed6 00       		.sleb128 0
 6291 1ed7 1C       		.uleb128 0x1c
 6292 1ed8 01       		.byte	0x1
 6293 1ed9 52       		.byte	0x52
 6294 1eda 02       		.byte	0x2
 6295 1edb 77       		.byte	0x77
 6296 1edc 00       		.sleb128 0
 6297 1edd 1C       		.uleb128 0x1c
 6298 1ede 01       		.byte	0x1
 6299 1edf 51       		.byte	0x51
 6300 1ee0 01       		.byte	0x1
 6301 1ee1 38       		.byte	0x38
 6302 1ee2 1C       		.uleb128 0x1c
 6303 1ee3 01       		.byte	0x1
 6304 1ee4 50       		.byte	0x50
 6305 1ee5 02       		.byte	0x2
 6306 1ee6 74       		.byte	0x74
 6307 1ee7 00       		.sleb128 0
ARM GAS  C:\Users\CHUCK~1.ERH\AppData\Local\Temp\ccby6rnL.s 			page 143


 6308 1ee8 00       		.byte	0
 6309 1ee9 22       		.uleb128 0x22
 6310 1eea 94000000 		.4byte	.LVL265
 6311 1eee 4E0A0000 		.4byte	0xa4e
 6312 1ef2 1C       		.uleb128 0x1c
 6313 1ef3 01       		.byte	0x1
 6314 1ef4 51       		.byte	0x51
 6315 1ef5 02       		.byte	0x2
 6316 1ef6 08       		.byte	0x8
 6317 1ef7 40       		.byte	0x40
 6318 1ef8 1C       		.uleb128 0x1c
 6319 1ef9 01       		.byte	0x1
 6320 1efa 50       		.byte	0x50
 6321 1efb 02       		.byte	0x2
 6322 1efc 74       		.byte	0x74
 6323 1efd 00       		.sleb128 0
 6324 1efe 00       		.byte	0
 6325 1eff 00       		.byte	0
 6326 1f00 05       		.uleb128 0x5
 6327 1f01 04       		.byte	0x4
 6328 1f02 7A000000 		.4byte	0x7a
 6329 1f06 15       		.uleb128 0x15
 6330 1f07 6F000000 		.4byte	0x6f
 6331 1f0b 161F0000 		.4byte	0x1f16
 6332 1f0f 16       		.uleb128 0x16
 6333 1f10 A5000000 		.4byte	0xa5
 6334 1f14 07       		.byte	0x7
 6335 1f15 00       		.byte	0
 6336 1f16 15       		.uleb128 0x15
 6337 1f17 03010000 		.4byte	0x103
 6338 1f1b 261F0000 		.4byte	0x1f26
 6339 1f1f 16       		.uleb128 0x16
 6340 1f20 A5000000 		.4byte	0xa5
 6341 1f24 03       		.byte	0x3
 6342 1f25 00       		.byte	0
 6343 1f26 40       		.uleb128 0x40
 6344 1f27 53050000 		.4byte	.LASF113
 6345 1f2b 01       		.byte	0x1
 6346 1f2c 24       		.byte	0x24
 6347 1f2d 161F0000 		.4byte	0x1f16
 6348 1f31 05       		.byte	0x5
 6349 1f32 03       		.byte	0x3
 6350 1f33 04000000 		.4byte	ETH0_SocketConfig
 6351 1f37 40       		.uleb128 0x40
 6352 1f38 43050000 		.4byte	.LASF114
 6353 1f3c 01       		.byte	0x1
 6354 1f3d 25       		.byte	0x25
 6355 1f3e 85000000 		.4byte	0x85
 6356 1f42 05       		.byte	0x5
 6357 1f43 03       		.byte	0x3
 6358 1f44 00000000 		.4byte	ETH0_SubnetMask
 6359 1f48 15       		.uleb128 0x15
 6360 1f49 6F000000 		.4byte	0x6f
 6361 1f4d 581F0000 		.4byte	0x1f58
 6362 1f51 16       		.uleb128 0x16
 6363 1f52 A5000000 		.4byte	0xa5
 6364 1f56 05       		.byte	0x5
ARM GAS  C:\Users\CHUCK~1.ERH\AppData\Local\Temp\ccby6rnL.s 			page 144


 6365 1f57 00       		.byte	0
 6366 1f58 40       		.uleb128 0x40
 6367 1f59 C9030000 		.4byte	.LASF115
 6368 1f5d 01       		.byte	0x1
 6369 1f5e 27       		.byte	0x27
 6370 1f5f 481F0000 		.4byte	0x1f48
 6371 1f63 05       		.byte	0x5
 6372 1f64 03       		.byte	0x3
 6373 1f65 00000000 		.4byte	ETH0_MAC
 6374 1f69 41       		.uleb128 0x41
 6375 1f6a 38020000 		.4byte	.LASF129
 6376 1f6e 01       		.byte	0x1
 6377 1f6f 17       		.byte	0x17
 6378 1f70 6F000000 		.4byte	0x6f
 6379 1f74 01       		.byte	0x1
 6380 1f75 01       		.byte	0x1
 6381 1f76 42       		.uleb128 0x42
 6382 1f77 01       		.byte	0x1
 6383 1f78 BB010000 		.4byte	.LASF122
 6384 1f7c 04       		.byte	0x4
 6385 1f7d 6F       		.byte	0x6f
 6386 1f7e 01       		.byte	0x1
 6387 1f7f 01       		.byte	0x1
 6388 1f80 43       		.uleb128 0x43
 6389 1f81 01       		.byte	0x1
 6390 1f82 5D060000 		.4byte	.LASF117
 6391 1f86 04       		.byte	0x4
 6392 1f87 69       		.byte	0x69
 6393 1f88 01       		.byte	0x1
 6394 1f89 01       		.byte	0x1
 6395 1f8a 941F0000 		.4byte	0x1f94
 6396 1f8e 44       		.uleb128 0x44
 6397 1f8f 6F000000 		.4byte	0x6f
 6398 1f93 00       		.byte	0
 6399 1f94 43       		.uleb128 0x43
 6400 1f95 01       		.byte	0x1
 6401 1f96 27020000 		.4byte	.LASF118
 6402 1f9a 05       		.byte	0x5
 6403 1f9b 78       		.byte	0x78
 6404 1f9c 01       		.byte	0x1
 6405 1f9d 01       		.byte	0x1
 6406 1f9e A81F0000 		.4byte	0x1fa8
 6407 1fa2 44       		.uleb128 0x44
 6408 1fa3 7A000000 		.4byte	0x7a
 6409 1fa7 00       		.byte	0
 6410 1fa8 45       		.uleb128 0x45
 6411 1fa9 01       		.byte	0x1
 6412 1faa 55000000 		.4byte	.LASF119
 6413 1fae 04       		.byte	0x4
 6414 1faf 6D       		.byte	0x6d
 6415 1fb0 01       		.byte	0x1
 6416 1fb1 6F000000 		.4byte	0x6f
 6417 1fb5 01       		.byte	0x1
 6418 1fb6 45       		.uleb128 0x45
 6419 1fb7 01       		.byte	0x1
 6420 1fb8 73040000 		.4byte	.LASF120
 6421 1fbc 04       		.byte	0x4
ARM GAS  C:\Users\CHUCK~1.ERH\AppData\Local\Temp\ccby6rnL.s 			page 145


 6422 1fbd 6B       		.byte	0x6b
 6423 1fbe 01       		.byte	0x1
 6424 1fbf 6F000000 		.4byte	0x6f
 6425 1fc3 01       		.byte	0x1
 6426 1fc4 43       		.uleb128 0x43
 6427 1fc5 01       		.byte	0x1
 6428 1fc6 8D060000 		.4byte	.LASF121
 6429 1fca 05       		.byte	0x5
 6430 1fcb 77       		.byte	0x77
 6431 1fcc 01       		.byte	0x1
 6432 1fcd 01       		.byte	0x1
 6433 1fce D81F0000 		.4byte	0x1fd8
 6434 1fd2 44       		.uleb128 0x44
 6435 1fd3 85000000 		.4byte	0x85
 6436 1fd7 00       		.byte	0
 6437 1fd8 46       		.uleb128 0x46
 6438 1fd9 01       		.byte	0x1
 6439 1fda 8B020000 		.4byte	.LASF130
 6440 1fde 06       		.byte	0x6
 6441 1fdf 22       		.byte	0x22
 6442 1fe0 01       		.byte	0x1
 6443 1fe1 B7000000 		.4byte	0xb7
 6444 1fe5 01       		.byte	0x1
 6445 1fe6 F01F0000 		.4byte	0x1ff0
 6446 1fea 44       		.uleb128 0x44
 6447 1feb AC000000 		.4byte	0xac
 6448 1fef 00       		.byte	0
 6449 1ff0 42       		.uleb128 0x42
 6450 1ff1 01       		.byte	0x1
 6451 1ff2 89040000 		.4byte	.LASF123
 6452 1ff6 04       		.byte	0x4
 6453 1ff7 58       		.byte	0x58
 6454 1ff8 01       		.byte	0x1
 6455 1ff9 01       		.byte	0x1
 6456 1ffa 00       		.byte	0
 6457              		.section	.debug_abbrev,"",%progbits
 6458              	.Ldebug_abbrev0:
 6459 0000 01       		.uleb128 0x1
 6460 0001 11       		.uleb128 0x11
 6461 0002 01       		.byte	0x1
 6462 0003 25       		.uleb128 0x25
 6463 0004 0E       		.uleb128 0xe
 6464 0005 13       		.uleb128 0x13
 6465 0006 0B       		.uleb128 0xb
 6466 0007 03       		.uleb128 0x3
 6467 0008 0E       		.uleb128 0xe
 6468 0009 1B       		.uleb128 0x1b
 6469 000a 0E       		.uleb128 0xe
 6470 000b 55       		.uleb128 0x55
 6471 000c 06       		.uleb128 0x6
 6472 000d 11       		.uleb128 0x11
 6473 000e 01       		.uleb128 0x1
 6474 000f 52       		.uleb128 0x52
 6475 0010 01       		.uleb128 0x1
 6476 0011 10       		.uleb128 0x10
 6477 0012 06       		.uleb128 0x6
 6478 0013 00       		.byte	0
ARM GAS  C:\Users\CHUCK~1.ERH\AppData\Local\Temp\ccby6rnL.s 			page 146


 6479 0014 00       		.byte	0
 6480 0015 02       		.uleb128 0x2
 6481 0016 24       		.uleb128 0x24
 6482 0017 00       		.byte	0
 6483 0018 0B       		.uleb128 0xb
 6484 0019 0B       		.uleb128 0xb
 6485 001a 3E       		.uleb128 0x3e
 6486 001b 0B       		.uleb128 0xb
 6487 001c 03       		.uleb128 0x3
 6488 001d 0E       		.uleb128 0xe
 6489 001e 00       		.byte	0
 6490 001f 00       		.byte	0
 6491 0020 03       		.uleb128 0x3
 6492 0021 24       		.uleb128 0x24
 6493 0022 00       		.byte	0
 6494 0023 0B       		.uleb128 0xb
 6495 0024 0B       		.uleb128 0xb
 6496 0025 3E       		.uleb128 0x3e
 6497 0026 0B       		.uleb128 0xb
 6498 0027 03       		.uleb128 0x3
 6499 0028 08       		.uleb128 0x8
 6500 0029 00       		.byte	0
 6501 002a 00       		.byte	0
 6502 002b 04       		.uleb128 0x4
 6503 002c 16       		.uleb128 0x16
 6504 002d 00       		.byte	0
 6505 002e 03       		.uleb128 0x3
 6506 002f 0E       		.uleb128 0xe
 6507 0030 3A       		.uleb128 0x3a
 6508 0031 0B       		.uleb128 0xb
 6509 0032 3B       		.uleb128 0x3b
 6510 0033 0B       		.uleb128 0xb
 6511 0034 49       		.uleb128 0x49
 6512 0035 13       		.uleb128 0x13
 6513 0036 00       		.byte	0
 6514 0037 00       		.byte	0
 6515 0038 05       		.uleb128 0x5
 6516 0039 0F       		.uleb128 0xf
 6517 003a 00       		.byte	0
 6518 003b 0B       		.uleb128 0xb
 6519 003c 0B       		.uleb128 0xb
 6520 003d 49       		.uleb128 0x49
 6521 003e 13       		.uleb128 0x13
 6522 003f 00       		.byte	0
 6523 0040 00       		.byte	0
 6524 0041 06       		.uleb128 0x6
 6525 0042 26       		.uleb128 0x26
 6526 0043 00       		.byte	0
 6527 0044 49       		.uleb128 0x49
 6528 0045 13       		.uleb128 0x13
 6529 0046 00       		.byte	0
 6530 0047 00       		.byte	0
 6531 0048 07       		.uleb128 0x7
 6532 0049 13       		.uleb128 0x13
 6533 004a 01       		.byte	0x1
 6534 004b 0B       		.uleb128 0xb
 6535 004c 0B       		.uleb128 0xb
ARM GAS  C:\Users\CHUCK~1.ERH\AppData\Local\Temp\ccby6rnL.s 			page 147


 6536 004d 3A       		.uleb128 0x3a
 6537 004e 0B       		.uleb128 0xb
 6538 004f 3B       		.uleb128 0x3b
 6539 0050 0B       		.uleb128 0xb
 6540 0051 01       		.uleb128 0x1
 6541 0052 13       		.uleb128 0x13
 6542 0053 00       		.byte	0
 6543 0054 00       		.byte	0
 6544 0055 08       		.uleb128 0x8
 6545 0056 0D       		.uleb128 0xd
 6546 0057 00       		.byte	0
 6547 0058 03       		.uleb128 0x3
 6548 0059 0E       		.uleb128 0xe
 6549 005a 3A       		.uleb128 0x3a
 6550 005b 0B       		.uleb128 0xb
 6551 005c 3B       		.uleb128 0x3b
 6552 005d 0B       		.uleb128 0xb
 6553 005e 49       		.uleb128 0x49
 6554 005f 13       		.uleb128 0x13
 6555 0060 38       		.uleb128 0x38
 6556 0061 0A       		.uleb128 0xa
 6557 0062 00       		.byte	0
 6558 0063 00       		.byte	0
 6559 0064 09       		.uleb128 0x9
 6560 0065 2E       		.uleb128 0x2e
 6561 0066 00       		.byte	0
 6562 0067 03       		.uleb128 0x3
 6563 0068 0E       		.uleb128 0xe
 6564 0069 3A       		.uleb128 0x3a
 6565 006a 0B       		.uleb128 0xb
 6566 006b 3B       		.uleb128 0x3b
 6567 006c 0B       		.uleb128 0xb
 6568 006d 27       		.uleb128 0x27
 6569 006e 0C       		.uleb128 0xc
 6570 006f 20       		.uleb128 0x20
 6571 0070 0B       		.uleb128 0xb
 6572 0071 00       		.byte	0
 6573 0072 00       		.byte	0
 6574 0073 0A       		.uleb128 0xa
 6575 0074 2E       		.uleb128 0x2e
 6576 0075 01       		.byte	0x1
 6577 0076 3F       		.uleb128 0x3f
 6578 0077 0C       		.uleb128 0xc
 6579 0078 03       		.uleb128 0x3
 6580 0079 0E       		.uleb128 0xe
 6581 007a 3A       		.uleb128 0x3a
 6582 007b 0B       		.uleb128 0xb
 6583 007c 3B       		.uleb128 0x3b
 6584 007d 05       		.uleb128 0x5
 6585 007e 27       		.uleb128 0x27
 6586 007f 0C       		.uleb128 0xc
 6587 0080 20       		.uleb128 0x20
 6588 0081 0B       		.uleb128 0xb
 6589 0082 01       		.uleb128 0x1
 6590 0083 13       		.uleb128 0x13
 6591 0084 00       		.byte	0
 6592 0085 00       		.byte	0
ARM GAS  C:\Users\CHUCK~1.ERH\AppData\Local\Temp\ccby6rnL.s 			page 148


 6593 0086 0B       		.uleb128 0xb
 6594 0087 05       		.uleb128 0x5
 6595 0088 00       		.byte	0
 6596 0089 03       		.uleb128 0x3
 6597 008a 0E       		.uleb128 0xe
 6598 008b 3A       		.uleb128 0x3a
 6599 008c 0B       		.uleb128 0xb
 6600 008d 3B       		.uleb128 0x3b
 6601 008e 05       		.uleb128 0x5
 6602 008f 49       		.uleb128 0x49
 6603 0090 13       		.uleb128 0x13
 6604 0091 00       		.byte	0
 6605 0092 00       		.byte	0
 6606 0093 0C       		.uleb128 0xc
 6607 0094 2E       		.uleb128 0x2e
 6608 0095 01       		.byte	0x1
 6609 0096 03       		.uleb128 0x3
 6610 0097 0E       		.uleb128 0xe
 6611 0098 3A       		.uleb128 0x3a
 6612 0099 0B       		.uleb128 0xb
 6613 009a 3B       		.uleb128 0x3b
 6614 009b 0B       		.uleb128 0xb
 6615 009c 27       		.uleb128 0x27
 6616 009d 0C       		.uleb128 0xc
 6617 009e 20       		.uleb128 0x20
 6618 009f 0B       		.uleb128 0xb
 6619 00a0 01       		.uleb128 0x1
 6620 00a1 13       		.uleb128 0x13
 6621 00a2 00       		.byte	0
 6622 00a3 00       		.byte	0
 6623 00a4 0D       		.uleb128 0xd
 6624 00a5 05       		.uleb128 0x5
 6625 00a6 00       		.byte	0
 6626 00a7 03       		.uleb128 0x3
 6627 00a8 0E       		.uleb128 0xe
 6628 00a9 3A       		.uleb128 0x3a
 6629 00aa 0B       		.uleb128 0xb
 6630 00ab 3B       		.uleb128 0x3b
 6631 00ac 0B       		.uleb128 0xb
 6632 00ad 49       		.uleb128 0x49
 6633 00ae 13       		.uleb128 0x13
 6634 00af 00       		.byte	0
 6635 00b0 00       		.byte	0
 6636 00b1 0E       		.uleb128 0xe
 6637 00b2 05       		.uleb128 0x5
 6638 00b3 00       		.byte	0
 6639 00b4 03       		.uleb128 0x3
 6640 00b5 08       		.uleb128 0x8
 6641 00b6 3A       		.uleb128 0x3a
 6642 00b7 0B       		.uleb128 0xb
 6643 00b8 3B       		.uleb128 0x3b
 6644 00b9 0B       		.uleb128 0xb
 6645 00ba 49       		.uleb128 0x49
 6646 00bb 13       		.uleb128 0x13
 6647 00bc 00       		.byte	0
 6648 00bd 00       		.byte	0
 6649 00be 0F       		.uleb128 0xf
ARM GAS  C:\Users\CHUCK~1.ERH\AppData\Local\Temp\ccby6rnL.s 			page 149


 6650 00bf 34       		.uleb128 0x34
 6651 00c0 00       		.byte	0
 6652 00c1 03       		.uleb128 0x3
 6653 00c2 0E       		.uleb128 0xe
 6654 00c3 3A       		.uleb128 0x3a
 6655 00c4 0B       		.uleb128 0xb
 6656 00c5 3B       		.uleb128 0x3b
 6657 00c6 0B       		.uleb128 0xb
 6658 00c7 49       		.uleb128 0x49
 6659 00c8 13       		.uleb128 0x13
 6660 00c9 00       		.byte	0
 6661 00ca 00       		.byte	0
 6662 00cb 10       		.uleb128 0x10
 6663 00cc 2E       		.uleb128 0x2e
 6664 00cd 01       		.byte	0x1
 6665 00ce 03       		.uleb128 0x3
 6666 00cf 0E       		.uleb128 0xe
 6667 00d0 3A       		.uleb128 0x3a
 6668 00d1 0B       		.uleb128 0xb
 6669 00d2 3B       		.uleb128 0x3b
 6670 00d3 05       		.uleb128 0x5
 6671 00d4 27       		.uleb128 0x27
 6672 00d5 0C       		.uleb128 0xc
 6673 00d6 20       		.uleb128 0x20
 6674 00d7 0B       		.uleb128 0xb
 6675 00d8 01       		.uleb128 0x1
 6676 00d9 13       		.uleb128 0x13
 6677 00da 00       		.byte	0
 6678 00db 00       		.byte	0
 6679 00dc 11       		.uleb128 0x11
 6680 00dd 05       		.uleb128 0x5
 6681 00de 00       		.byte	0
 6682 00df 03       		.uleb128 0x3
 6683 00e0 08       		.uleb128 0x8
 6684 00e1 3A       		.uleb128 0x3a
 6685 00e2 0B       		.uleb128 0xb
 6686 00e3 3B       		.uleb128 0x3b
 6687 00e4 05       		.uleb128 0x5
 6688 00e5 49       		.uleb128 0x49
 6689 00e6 13       		.uleb128 0x13
 6690 00e7 00       		.byte	0
 6691 00e8 00       		.byte	0
 6692 00e9 12       		.uleb128 0x12
 6693 00ea 34       		.uleb128 0x34
 6694 00eb 00       		.byte	0
 6695 00ec 03       		.uleb128 0x3
 6696 00ed 0E       		.uleb128 0xe
 6697 00ee 3A       		.uleb128 0x3a
 6698 00ef 0B       		.uleb128 0xb
 6699 00f0 3B       		.uleb128 0x3b
 6700 00f1 05       		.uleb128 0x5
 6701 00f2 49       		.uleb128 0x49
 6702 00f3 13       		.uleb128 0x13
 6703 00f4 00       		.byte	0
 6704 00f5 00       		.byte	0
 6705 00f6 13       		.uleb128 0x13
 6706 00f7 2E       		.uleb128 0x2e
ARM GAS  C:\Users\CHUCK~1.ERH\AppData\Local\Temp\ccby6rnL.s 			page 150


 6707 00f8 01       		.byte	0x1
 6708 00f9 03       		.uleb128 0x3
 6709 00fa 0E       		.uleb128 0xe
 6710 00fb 3A       		.uleb128 0x3a
 6711 00fc 0B       		.uleb128 0xb
 6712 00fd 3B       		.uleb128 0x3b
 6713 00fe 05       		.uleb128 0x5
 6714 00ff 27       		.uleb128 0x27
 6715 0100 0C       		.uleb128 0xc
 6716 0101 49       		.uleb128 0x49
 6717 0102 13       		.uleb128 0x13
 6718 0103 20       		.uleb128 0x20
 6719 0104 0B       		.uleb128 0xb
 6720 0105 01       		.uleb128 0x1
 6721 0106 13       		.uleb128 0x13
 6722 0107 00       		.byte	0
 6723 0108 00       		.byte	0
 6724 0109 14       		.uleb128 0x14
 6725 010a 34       		.uleb128 0x34
 6726 010b 00       		.byte	0
 6727 010c 03       		.uleb128 0x3
 6728 010d 08       		.uleb128 0x8
 6729 010e 3A       		.uleb128 0x3a
 6730 010f 0B       		.uleb128 0xb
 6731 0110 3B       		.uleb128 0x3b
 6732 0111 05       		.uleb128 0x5
 6733 0112 49       		.uleb128 0x49
 6734 0113 13       		.uleb128 0x13
 6735 0114 00       		.byte	0
 6736 0115 00       		.byte	0
 6737 0116 15       		.uleb128 0x15
 6738 0117 01       		.uleb128 0x1
 6739 0118 01       		.byte	0x1
 6740 0119 49       		.uleb128 0x49
 6741 011a 13       		.uleb128 0x13
 6742 011b 01       		.uleb128 0x1
 6743 011c 13       		.uleb128 0x13
 6744 011d 00       		.byte	0
 6745 011e 00       		.byte	0
 6746 011f 16       		.uleb128 0x16
 6747 0120 21       		.uleb128 0x21
 6748 0121 00       		.byte	0
 6749 0122 49       		.uleb128 0x49
 6750 0123 13       		.uleb128 0x13
 6751 0124 2F       		.uleb128 0x2f
 6752 0125 0B       		.uleb128 0xb
 6753 0126 00       		.byte	0
 6754 0127 00       		.byte	0
 6755 0128 17       		.uleb128 0x17
 6756 0129 2E       		.uleb128 0x2e
 6757 012a 01       		.byte	0x1
 6758 012b 3F       		.uleb128 0x3f
 6759 012c 0C       		.uleb128 0xc
 6760 012d 03       		.uleb128 0x3
 6761 012e 0E       		.uleb128 0xe
 6762 012f 3A       		.uleb128 0x3a
 6763 0130 0B       		.uleb128 0xb
ARM GAS  C:\Users\CHUCK~1.ERH\AppData\Local\Temp\ccby6rnL.s 			page 151


 6764 0131 3B       		.uleb128 0x3b
 6765 0132 0B       		.uleb128 0xb
 6766 0133 27       		.uleb128 0x27
 6767 0134 0C       		.uleb128 0xc
 6768 0135 11       		.uleb128 0x11
 6769 0136 01       		.uleb128 0x1
 6770 0137 12       		.uleb128 0x12
 6771 0138 01       		.uleb128 0x1
 6772 0139 40       		.uleb128 0x40
 6773 013a 06       		.uleb128 0x6
 6774 013b 9742     		.uleb128 0x2117
 6775 013d 0C       		.uleb128 0xc
 6776 013e 01       		.uleb128 0x1
 6777 013f 13       		.uleb128 0x13
 6778 0140 00       		.byte	0
 6779 0141 00       		.byte	0
 6780 0142 18       		.uleb128 0x18
 6781 0143 05       		.uleb128 0x5
 6782 0144 00       		.byte	0
 6783 0145 03       		.uleb128 0x3
 6784 0146 0E       		.uleb128 0xe
 6785 0147 3A       		.uleb128 0x3a
 6786 0148 0B       		.uleb128 0xb
 6787 0149 3B       		.uleb128 0x3b
 6788 014a 0B       		.uleb128 0xb
 6789 014b 49       		.uleb128 0x49
 6790 014c 13       		.uleb128 0x13
 6791 014d 02       		.uleb128 0x2
 6792 014e 06       		.uleb128 0x6
 6793 014f 00       		.byte	0
 6794 0150 00       		.byte	0
 6795 0151 19       		.uleb128 0x19
 6796 0152 05       		.uleb128 0x5
 6797 0153 00       		.byte	0
 6798 0154 03       		.uleb128 0x3
 6799 0155 08       		.uleb128 0x8
 6800 0156 3A       		.uleb128 0x3a
 6801 0157 0B       		.uleb128 0xb
 6802 0158 3B       		.uleb128 0x3b
 6803 0159 0B       		.uleb128 0xb
 6804 015a 49       		.uleb128 0x49
 6805 015b 13       		.uleb128 0x13
 6806 015c 02       		.uleb128 0x2
 6807 015d 06       		.uleb128 0x6
 6808 015e 00       		.byte	0
 6809 015f 00       		.byte	0
 6810 0160 1A       		.uleb128 0x1a
 6811 0161 898201   		.uleb128 0x4109
 6812 0164 00       		.byte	0
 6813 0165 11       		.uleb128 0x11
 6814 0166 01       		.uleb128 0x1
 6815 0167 31       		.uleb128 0x31
 6816 0168 13       		.uleb128 0x13
 6817 0169 00       		.byte	0
 6818 016a 00       		.byte	0
 6819 016b 1B       		.uleb128 0x1b
 6820 016c 898201   		.uleb128 0x4109
ARM GAS  C:\Users\CHUCK~1.ERH\AppData\Local\Temp\ccby6rnL.s 			page 152


 6821 016f 01       		.byte	0x1
 6822 0170 11       		.uleb128 0x11
 6823 0171 01       		.uleb128 0x1
 6824 0172 31       		.uleb128 0x31
 6825 0173 13       		.uleb128 0x13
 6826 0174 01       		.uleb128 0x1
 6827 0175 13       		.uleb128 0x13
 6828 0176 00       		.byte	0
 6829 0177 00       		.byte	0
 6830 0178 1C       		.uleb128 0x1c
 6831 0179 8A8201   		.uleb128 0x410a
 6832 017c 00       		.byte	0
 6833 017d 02       		.uleb128 0x2
 6834 017e 0A       		.uleb128 0xa
 6835 017f 9142     		.uleb128 0x2111
 6836 0181 0A       		.uleb128 0xa
 6837 0182 00       		.byte	0
 6838 0183 00       		.byte	0
 6839 0184 1D       		.uleb128 0x1d
 6840 0185 898201   		.uleb128 0x4109
 6841 0188 01       		.byte	0x1
 6842 0189 11       		.uleb128 0x11
 6843 018a 01       		.uleb128 0x1
 6844 018b 9542     		.uleb128 0x2115
 6845 018d 0C       		.uleb128 0xc
 6846 018e 31       		.uleb128 0x31
 6847 018f 13       		.uleb128 0x13
 6848 0190 00       		.byte	0
 6849 0191 00       		.byte	0
 6850 0192 1E       		.uleb128 0x1e
 6851 0193 2E       		.uleb128 0x2e
 6852 0194 01       		.byte	0x1
 6853 0195 03       		.uleb128 0x3
 6854 0196 0E       		.uleb128 0xe
 6855 0197 3A       		.uleb128 0x3a
 6856 0198 0B       		.uleb128 0xb
 6857 0199 3B       		.uleb128 0x3b
 6858 019a 05       		.uleb128 0x5
 6859 019b 27       		.uleb128 0x27
 6860 019c 0C       		.uleb128 0xc
 6861 019d 11       		.uleb128 0x11
 6862 019e 01       		.uleb128 0x1
 6863 019f 12       		.uleb128 0x12
 6864 01a0 01       		.uleb128 0x1
 6865 01a1 40       		.uleb128 0x40
 6866 01a2 06       		.uleb128 0x6
 6867 01a3 9742     		.uleb128 0x2117
 6868 01a5 0C       		.uleb128 0xc
 6869 01a6 01       		.uleb128 0x1
 6870 01a7 13       		.uleb128 0x13
 6871 01a8 00       		.byte	0
 6872 01a9 00       		.byte	0
 6873 01aa 1F       		.uleb128 0x1f
 6874 01ab 05       		.uleb128 0x5
 6875 01ac 00       		.byte	0
 6876 01ad 03       		.uleb128 0x3
 6877 01ae 0E       		.uleb128 0xe
ARM GAS  C:\Users\CHUCK~1.ERH\AppData\Local\Temp\ccby6rnL.s 			page 153


 6878 01af 3A       		.uleb128 0x3a
 6879 01b0 0B       		.uleb128 0xb
 6880 01b1 3B       		.uleb128 0x3b
 6881 01b2 05       		.uleb128 0x5
 6882 01b3 49       		.uleb128 0x49
 6883 01b4 13       		.uleb128 0x13
 6884 01b5 02       		.uleb128 0x2
 6885 01b6 06       		.uleb128 0x6
 6886 01b7 00       		.byte	0
 6887 01b8 00       		.byte	0
 6888 01b9 20       		.uleb128 0x20
 6889 01ba 05       		.uleb128 0x5
 6890 01bb 00       		.byte	0
 6891 01bc 03       		.uleb128 0x3
 6892 01bd 08       		.uleb128 0x8
 6893 01be 3A       		.uleb128 0x3a
 6894 01bf 0B       		.uleb128 0xb
 6895 01c0 3B       		.uleb128 0x3b
 6896 01c1 05       		.uleb128 0x5
 6897 01c2 49       		.uleb128 0x49
 6898 01c3 13       		.uleb128 0x13
 6899 01c4 02       		.uleb128 0x2
 6900 01c5 06       		.uleb128 0x6
 6901 01c6 00       		.byte	0
 6902 01c7 00       		.byte	0
 6903 01c8 21       		.uleb128 0x21
 6904 01c9 34       		.uleb128 0x34
 6905 01ca 00       		.byte	0
 6906 01cb 03       		.uleb128 0x3
 6907 01cc 0E       		.uleb128 0xe
 6908 01cd 3A       		.uleb128 0x3a
 6909 01ce 0B       		.uleb128 0xb
 6910 01cf 3B       		.uleb128 0x3b
 6911 01d0 05       		.uleb128 0x5
 6912 01d1 49       		.uleb128 0x49
 6913 01d2 13       		.uleb128 0x13
 6914 01d3 02       		.uleb128 0x2
 6915 01d4 06       		.uleb128 0x6
 6916 01d5 00       		.byte	0
 6917 01d6 00       		.byte	0
 6918 01d7 22       		.uleb128 0x22
 6919 01d8 898201   		.uleb128 0x4109
 6920 01db 01       		.byte	0x1
 6921 01dc 11       		.uleb128 0x11
 6922 01dd 01       		.uleb128 0x1
 6923 01de 31       		.uleb128 0x31
 6924 01df 13       		.uleb128 0x13
 6925 01e0 00       		.byte	0
 6926 01e1 00       		.byte	0
 6927 01e2 23       		.uleb128 0x23
 6928 01e3 2E       		.uleb128 0x2e
 6929 01e4 01       		.byte	0x1
 6930 01e5 3F       		.uleb128 0x3f
 6931 01e6 0C       		.uleb128 0xc
 6932 01e7 03       		.uleb128 0x3
 6933 01e8 0E       		.uleb128 0xe
 6934 01e9 3A       		.uleb128 0x3a
ARM GAS  C:\Users\CHUCK~1.ERH\AppData\Local\Temp\ccby6rnL.s 			page 154


 6935 01ea 0B       		.uleb128 0xb
 6936 01eb 3B       		.uleb128 0x3b
 6937 01ec 0B       		.uleb128 0xb
 6938 01ed 27       		.uleb128 0x27
 6939 01ee 0C       		.uleb128 0xc
 6940 01ef 49       		.uleb128 0x49
 6941 01f0 13       		.uleb128 0x13
 6942 01f1 11       		.uleb128 0x11
 6943 01f2 01       		.uleb128 0x1
 6944 01f3 12       		.uleb128 0x12
 6945 01f4 01       		.uleb128 0x1
 6946 01f5 40       		.uleb128 0x40
 6947 01f6 06       		.uleb128 0x6
 6948 01f7 9742     		.uleb128 0x2117
 6949 01f9 0C       		.uleb128 0xc
 6950 01fa 01       		.uleb128 0x1
 6951 01fb 13       		.uleb128 0x13
 6952 01fc 00       		.byte	0
 6953 01fd 00       		.byte	0
 6954 01fe 24       		.uleb128 0x24
 6955 01ff 34       		.uleb128 0x34
 6956 0200 00       		.byte	0
 6957 0201 03       		.uleb128 0x3
 6958 0202 08       		.uleb128 0x8
 6959 0203 3A       		.uleb128 0x3a
 6960 0204 0B       		.uleb128 0xb
 6961 0205 3B       		.uleb128 0x3b
 6962 0206 0B       		.uleb128 0xb
 6963 0207 49       		.uleb128 0x49
 6964 0208 13       		.uleb128 0x13
 6965 0209 02       		.uleb128 0x2
 6966 020a 06       		.uleb128 0x6
 6967 020b 00       		.byte	0
 6968 020c 00       		.byte	0
 6969 020d 25       		.uleb128 0x25
 6970 020e 34       		.uleb128 0x34
 6971 020f 00       		.byte	0
 6972 0210 03       		.uleb128 0x3
 6973 0211 0E       		.uleb128 0xe
 6974 0212 3A       		.uleb128 0x3a
 6975 0213 0B       		.uleb128 0xb
 6976 0214 3B       		.uleb128 0x3b
 6977 0215 0B       		.uleb128 0xb
 6978 0216 49       		.uleb128 0x49
 6979 0217 13       		.uleb128 0x13
 6980 0218 02       		.uleb128 0x2
 6981 0219 06       		.uleb128 0x6
 6982 021a 00       		.byte	0
 6983 021b 00       		.byte	0
 6984 021c 26       		.uleb128 0x26
 6985 021d 2E       		.uleb128 0x2e
 6986 021e 01       		.byte	0x1
 6987 021f 03       		.uleb128 0x3
 6988 0220 0E       		.uleb128 0xe
 6989 0221 3A       		.uleb128 0x3a
 6990 0222 0B       		.uleb128 0xb
 6991 0223 3B       		.uleb128 0x3b
ARM GAS  C:\Users\CHUCK~1.ERH\AppData\Local\Temp\ccby6rnL.s 			page 155


 6992 0224 05       		.uleb128 0x5
 6993 0225 27       		.uleb128 0x27
 6994 0226 0C       		.uleb128 0xc
 6995 0227 49       		.uleb128 0x49
 6996 0228 13       		.uleb128 0x13
 6997 0229 11       		.uleb128 0x11
 6998 022a 01       		.uleb128 0x1
 6999 022b 12       		.uleb128 0x12
 7000 022c 01       		.uleb128 0x1
 7001 022d 40       		.uleb128 0x40
 7002 022e 0A       		.uleb128 0xa
 7003 022f 9742     		.uleb128 0x2117
 7004 0231 0C       		.uleb128 0xc
 7005 0232 01       		.uleb128 0x1
 7006 0233 13       		.uleb128 0x13
 7007 0234 00       		.byte	0
 7008 0235 00       		.byte	0
 7009 0236 27       		.uleb128 0x27
 7010 0237 898201   		.uleb128 0x4109
 7011 023a 00       		.byte	0
 7012 023b 11       		.uleb128 0x11
 7013 023c 01       		.uleb128 0x1
 7014 023d 9542     		.uleb128 0x2115
 7015 023f 0C       		.uleb128 0xc
 7016 0240 31       		.uleb128 0x31
 7017 0241 13       		.uleb128 0x13
 7018 0242 00       		.byte	0
 7019 0243 00       		.byte	0
 7020 0244 28       		.uleb128 0x28
 7021 0245 2E       		.uleb128 0x2e
 7022 0246 01       		.byte	0x1
 7023 0247 03       		.uleb128 0x3
 7024 0248 0E       		.uleb128 0xe
 7025 0249 3A       		.uleb128 0x3a
 7026 024a 0B       		.uleb128 0xb
 7027 024b 3B       		.uleb128 0x3b
 7028 024c 05       		.uleb128 0x5
 7029 024d 27       		.uleb128 0x27
 7030 024e 0C       		.uleb128 0xc
 7031 024f 49       		.uleb128 0x49
 7032 0250 13       		.uleb128 0x13
 7033 0251 11       		.uleb128 0x11
 7034 0252 01       		.uleb128 0x1
 7035 0253 12       		.uleb128 0x12
 7036 0254 01       		.uleb128 0x1
 7037 0255 40       		.uleb128 0x40
 7038 0256 06       		.uleb128 0x6
 7039 0257 9742     		.uleb128 0x2117
 7040 0259 0C       		.uleb128 0xc
 7041 025a 01       		.uleb128 0x1
 7042 025b 13       		.uleb128 0x13
 7043 025c 00       		.byte	0
 7044 025d 00       		.byte	0
 7045 025e 29       		.uleb128 0x29
 7046 025f 34       		.uleb128 0x34
 7047 0260 00       		.byte	0
 7048 0261 03       		.uleb128 0x3
ARM GAS  C:\Users\CHUCK~1.ERH\AppData\Local\Temp\ccby6rnL.s 			page 156


 7049 0262 08       		.uleb128 0x8
 7050 0263 3A       		.uleb128 0x3a
 7051 0264 0B       		.uleb128 0xb
 7052 0265 3B       		.uleb128 0x3b
 7053 0266 05       		.uleb128 0x5
 7054 0267 49       		.uleb128 0x49
 7055 0268 13       		.uleb128 0x13
 7056 0269 02       		.uleb128 0x2
 7057 026a 06       		.uleb128 0x6
 7058 026b 00       		.byte	0
 7059 026c 00       		.byte	0
 7060 026d 2A       		.uleb128 0x2a
 7061 026e 2E       		.uleb128 0x2e
 7062 026f 01       		.byte	0x1
 7063 0270 31       		.uleb128 0x31
 7064 0271 13       		.uleb128 0x13
 7065 0272 11       		.uleb128 0x11
 7066 0273 01       		.uleb128 0x1
 7067 0274 12       		.uleb128 0x12
 7068 0275 01       		.uleb128 0x1
 7069 0276 40       		.uleb128 0x40
 7070 0277 06       		.uleb128 0x6
 7071 0278 9742     		.uleb128 0x2117
 7072 027a 0C       		.uleb128 0xc
 7073 027b 01       		.uleb128 0x1
 7074 027c 13       		.uleb128 0x13
 7075 027d 00       		.byte	0
 7076 027e 00       		.byte	0
 7077 027f 2B       		.uleb128 0x2b
 7078 0280 05       		.uleb128 0x5
 7079 0281 00       		.byte	0
 7080 0282 31       		.uleb128 0x31
 7081 0283 13       		.uleb128 0x13
 7082 0284 02       		.uleb128 0x2
 7083 0285 06       		.uleb128 0x6
 7084 0286 00       		.byte	0
 7085 0287 00       		.byte	0
 7086 0288 2C       		.uleb128 0x2c
 7087 0289 34       		.uleb128 0x34
 7088 028a 00       		.byte	0
 7089 028b 31       		.uleb128 0x31
 7090 028c 13       		.uleb128 0x13
 7091 028d 02       		.uleb128 0x2
 7092 028e 06       		.uleb128 0x6
 7093 028f 00       		.byte	0
 7094 0290 00       		.byte	0
 7095 0291 2D       		.uleb128 0x2d
 7096 0292 34       		.uleb128 0x34
 7097 0293 00       		.byte	0
 7098 0294 31       		.uleb128 0x31
 7099 0295 13       		.uleb128 0x13
 7100 0296 02       		.uleb128 0x2
 7101 0297 0A       		.uleb128 0xa
 7102 0298 00       		.byte	0
 7103 0299 00       		.byte	0
 7104 029a 2E       		.uleb128 0x2e
 7105 029b 05       		.uleb128 0x5
ARM GAS  C:\Users\CHUCK~1.ERH\AppData\Local\Temp\ccby6rnL.s 			page 157


 7106 029c 00       		.byte	0
 7107 029d 31       		.uleb128 0x31
 7108 029e 13       		.uleb128 0x13
 7109 029f 1C       		.uleb128 0x1c
 7110 02a0 0B       		.uleb128 0xb
 7111 02a1 00       		.byte	0
 7112 02a2 00       		.byte	0
 7113 02a3 2F       		.uleb128 0x2f
 7114 02a4 1D       		.uleb128 0x1d
 7115 02a5 01       		.byte	0x1
 7116 02a6 31       		.uleb128 0x31
 7117 02a7 13       		.uleb128 0x13
 7118 02a8 52       		.uleb128 0x52
 7119 02a9 01       		.uleb128 0x1
 7120 02aa 55       		.uleb128 0x55
 7121 02ab 06       		.uleb128 0x6
 7122 02ac 58       		.uleb128 0x58
 7123 02ad 0B       		.uleb128 0xb
 7124 02ae 59       		.uleb128 0x59
 7125 02af 05       		.uleb128 0x5
 7126 02b0 01       		.uleb128 0x1
 7127 02b1 13       		.uleb128 0x13
 7128 02b2 00       		.byte	0
 7129 02b3 00       		.byte	0
 7130 02b4 30       		.uleb128 0x30
 7131 02b5 05       		.uleb128 0x5
 7132 02b6 00       		.byte	0
 7133 02b7 31       		.uleb128 0x31
 7134 02b8 13       		.uleb128 0x13
 7135 02b9 02       		.uleb128 0x2
 7136 02ba 0A       		.uleb128 0xa
 7137 02bb 00       		.byte	0
 7138 02bc 00       		.byte	0
 7139 02bd 31       		.uleb128 0x31
 7140 02be 05       		.uleb128 0x5
 7141 02bf 00       		.byte	0
 7142 02c0 31       		.uleb128 0x31
 7143 02c1 13       		.uleb128 0x13
 7144 02c2 00       		.byte	0
 7145 02c3 00       		.byte	0
 7146 02c4 32       		.uleb128 0x32
 7147 02c5 1D       		.uleb128 0x1d
 7148 02c6 01       		.byte	0x1
 7149 02c7 31       		.uleb128 0x31
 7150 02c8 13       		.uleb128 0x13
 7151 02c9 11       		.uleb128 0x11
 7152 02ca 01       		.uleb128 0x1
 7153 02cb 12       		.uleb128 0x12
 7154 02cc 01       		.uleb128 0x1
 7155 02cd 58       		.uleb128 0x58
 7156 02ce 0B       		.uleb128 0xb
 7157 02cf 59       		.uleb128 0x59
 7158 02d0 05       		.uleb128 0x5
 7159 02d1 00       		.byte	0
 7160 02d2 00       		.byte	0
 7161 02d3 33       		.uleb128 0x33
 7162 02d4 1D       		.uleb128 0x1d
ARM GAS  C:\Users\CHUCK~1.ERH\AppData\Local\Temp\ccby6rnL.s 			page 158


 7163 02d5 01       		.byte	0x1
 7164 02d6 31       		.uleb128 0x31
 7165 02d7 13       		.uleb128 0x13
 7166 02d8 11       		.uleb128 0x11
 7167 02d9 01       		.uleb128 0x1
 7168 02da 12       		.uleb128 0x12
 7169 02db 01       		.uleb128 0x1
 7170 02dc 58       		.uleb128 0x58
 7171 02dd 0B       		.uleb128 0xb
 7172 02de 59       		.uleb128 0x59
 7173 02df 05       		.uleb128 0x5
 7174 02e0 01       		.uleb128 0x1
 7175 02e1 13       		.uleb128 0x13
 7176 02e2 00       		.byte	0
 7177 02e3 00       		.byte	0
 7178 02e4 34       		.uleb128 0x34
 7179 02e5 2E       		.uleb128 0x2e
 7180 02e6 01       		.byte	0x1
 7181 02e7 3F       		.uleb128 0x3f
 7182 02e8 0C       		.uleb128 0xc
 7183 02e9 03       		.uleb128 0x3
 7184 02ea 0E       		.uleb128 0xe
 7185 02eb 3A       		.uleb128 0x3a
 7186 02ec 0B       		.uleb128 0xb
 7187 02ed 3B       		.uleb128 0x3b
 7188 02ee 05       		.uleb128 0x5
 7189 02ef 27       		.uleb128 0x27
 7190 02f0 0C       		.uleb128 0xc
 7191 02f1 49       		.uleb128 0x49
 7192 02f2 13       		.uleb128 0x13
 7193 02f3 11       		.uleb128 0x11
 7194 02f4 01       		.uleb128 0x1
 7195 02f5 12       		.uleb128 0x12
 7196 02f6 01       		.uleb128 0x1
 7197 02f7 40       		.uleb128 0x40
 7198 02f8 06       		.uleb128 0x6
 7199 02f9 9742     		.uleb128 0x2117
 7200 02fb 0C       		.uleb128 0xc
 7201 02fc 01       		.uleb128 0x1
 7202 02fd 13       		.uleb128 0x13
 7203 02fe 00       		.byte	0
 7204 02ff 00       		.byte	0
 7205 0300 35       		.uleb128 0x35
 7206 0301 34       		.uleb128 0x34
 7207 0302 00       		.byte	0
 7208 0303 03       		.uleb128 0x3
 7209 0304 0E       		.uleb128 0xe
 7210 0305 3A       		.uleb128 0x3a
 7211 0306 0B       		.uleb128 0xb
 7212 0307 3B       		.uleb128 0x3b
 7213 0308 05       		.uleb128 0x5
 7214 0309 49       		.uleb128 0x49
 7215 030a 13       		.uleb128 0x13
 7216 030b 02       		.uleb128 0x2
 7217 030c 0A       		.uleb128 0xa
 7218 030d 00       		.byte	0
 7219 030e 00       		.byte	0
ARM GAS  C:\Users\CHUCK~1.ERH\AppData\Local\Temp\ccby6rnL.s 			page 159


 7220 030f 36       		.uleb128 0x36
 7221 0310 34       		.uleb128 0x34
 7222 0311 00       		.byte	0
 7223 0312 03       		.uleb128 0x3
 7224 0313 08       		.uleb128 0x8
 7225 0314 3A       		.uleb128 0x3a
 7226 0315 0B       		.uleb128 0xb
 7227 0316 3B       		.uleb128 0x3b
 7228 0317 05       		.uleb128 0x5
 7229 0318 49       		.uleb128 0x49
 7230 0319 13       		.uleb128 0x13
 7231 031a 02       		.uleb128 0x2
 7232 031b 0A       		.uleb128 0xa
 7233 031c 00       		.byte	0
 7234 031d 00       		.byte	0
 7235 031e 37       		.uleb128 0x37
 7236 031f 2E       		.uleb128 0x2e
 7237 0320 00       		.byte	0
 7238 0321 03       		.uleb128 0x3
 7239 0322 0E       		.uleb128 0xe
 7240 0323 3A       		.uleb128 0x3a
 7241 0324 0B       		.uleb128 0xb
 7242 0325 3B       		.uleb128 0x3b
 7243 0326 05       		.uleb128 0x5
 7244 0327 27       		.uleb128 0x27
 7245 0328 0C       		.uleb128 0xc
 7246 0329 49       		.uleb128 0x49
 7247 032a 13       		.uleb128 0x13
 7248 032b 20       		.uleb128 0x20
 7249 032c 0B       		.uleb128 0xb
 7250 032d 00       		.byte	0
 7251 032e 00       		.byte	0
 7252 032f 38       		.uleb128 0x38
 7253 0330 0B       		.uleb128 0xb
 7254 0331 01       		.byte	0x1
 7255 0332 11       		.uleb128 0x11
 7256 0333 01       		.uleb128 0x1
 7257 0334 12       		.uleb128 0x12
 7258 0335 01       		.uleb128 0x1
 7259 0336 00       		.byte	0
 7260 0337 00       		.byte	0
 7261 0338 39       		.uleb128 0x39
 7262 0339 2E       		.uleb128 0x2e
 7263 033a 01       		.byte	0x1
 7264 033b 3F       		.uleb128 0x3f
 7265 033c 0C       		.uleb128 0xc
 7266 033d 03       		.uleb128 0x3
 7267 033e 0E       		.uleb128 0xe
 7268 033f 3A       		.uleb128 0x3a
 7269 0340 0B       		.uleb128 0xb
 7270 0341 3B       		.uleb128 0x3b
 7271 0342 05       		.uleb128 0x5
 7272 0343 27       		.uleb128 0x27
 7273 0344 0C       		.uleb128 0xc
 7274 0345 11       		.uleb128 0x11
 7275 0346 01       		.uleb128 0x1
 7276 0347 12       		.uleb128 0x12
ARM GAS  C:\Users\CHUCK~1.ERH\AppData\Local\Temp\ccby6rnL.s 			page 160


 7277 0348 01       		.uleb128 0x1
 7278 0349 40       		.uleb128 0x40
 7279 034a 06       		.uleb128 0x6
 7280 034b 9742     		.uleb128 0x2117
 7281 034d 0C       		.uleb128 0xc
 7282 034e 01       		.uleb128 0x1
 7283 034f 13       		.uleb128 0x13
 7284 0350 00       		.byte	0
 7285 0351 00       		.byte	0
 7286 0352 3A       		.uleb128 0x3a
 7287 0353 1D       		.uleb128 0x1d
 7288 0354 01       		.byte	0x1
 7289 0355 31       		.uleb128 0x31
 7290 0356 13       		.uleb128 0x13
 7291 0357 52       		.uleb128 0x52
 7292 0358 01       		.uleb128 0x1
 7293 0359 55       		.uleb128 0x55
 7294 035a 06       		.uleb128 0x6
 7295 035b 58       		.uleb128 0x58
 7296 035c 0B       		.uleb128 0xb
 7297 035d 59       		.uleb128 0x59
 7298 035e 05       		.uleb128 0x5
 7299 035f 00       		.byte	0
 7300 0360 00       		.byte	0
 7301 0361 3B       		.uleb128 0x3b
 7302 0362 05       		.uleb128 0x5
 7303 0363 00       		.byte	0
 7304 0364 31       		.uleb128 0x31
 7305 0365 13       		.uleb128 0x13
 7306 0366 1C       		.uleb128 0x1c
 7307 0367 0D       		.uleb128 0xd
 7308 0368 00       		.byte	0
 7309 0369 00       		.byte	0
 7310 036a 3C       		.uleb128 0x3c
 7311 036b 2E       		.uleb128 0x2e
 7312 036c 01       		.byte	0x1
 7313 036d 3F       		.uleb128 0x3f
 7314 036e 0C       		.uleb128 0xc
 7315 036f 03       		.uleb128 0x3
 7316 0370 0E       		.uleb128 0xe
 7317 0371 3A       		.uleb128 0x3a
 7318 0372 0B       		.uleb128 0xb
 7319 0373 3B       		.uleb128 0x3b
 7320 0374 05       		.uleb128 0x5
 7321 0375 27       		.uleb128 0x27
 7322 0376 0C       		.uleb128 0xc
 7323 0377 49       		.uleb128 0x49
 7324 0378 13       		.uleb128 0x13
 7325 0379 11       		.uleb128 0x11
 7326 037a 01       		.uleb128 0x1
 7327 037b 12       		.uleb128 0x12
 7328 037c 01       		.uleb128 0x1
 7329 037d 40       		.uleb128 0x40
 7330 037e 0A       		.uleb128 0xa
 7331 037f 9742     		.uleb128 0x2117
 7332 0381 0C       		.uleb128 0xc
 7333 0382 01       		.uleb128 0x1
ARM GAS  C:\Users\CHUCK~1.ERH\AppData\Local\Temp\ccby6rnL.s 			page 161


 7334 0383 13       		.uleb128 0x13
 7335 0384 00       		.byte	0
 7336 0385 00       		.byte	0
 7337 0386 3D       		.uleb128 0x3d
 7338 0387 2E       		.uleb128 0x2e
 7339 0388 01       		.byte	0x1
 7340 0389 3F       		.uleb128 0x3f
 7341 038a 0C       		.uleb128 0xc
 7342 038b 03       		.uleb128 0x3
 7343 038c 0E       		.uleb128 0xe
 7344 038d 3A       		.uleb128 0x3a
 7345 038e 0B       		.uleb128 0xb
 7346 038f 3B       		.uleb128 0x3b
 7347 0390 05       		.uleb128 0x5
 7348 0391 27       		.uleb128 0x27
 7349 0392 0C       		.uleb128 0xc
 7350 0393 11       		.uleb128 0x11
 7351 0394 01       		.uleb128 0x1
 7352 0395 12       		.uleb128 0x12
 7353 0396 01       		.uleb128 0x1
 7354 0397 40       		.uleb128 0x40
 7355 0398 0A       		.uleb128 0xa
 7356 0399 9742     		.uleb128 0x2117
 7357 039b 0C       		.uleb128 0xc
 7358 039c 01       		.uleb128 0x1
 7359 039d 13       		.uleb128 0x13
 7360 039e 00       		.byte	0
 7361 039f 00       		.byte	0
 7362 03a0 3E       		.uleb128 0x3e
 7363 03a1 0B       		.uleb128 0xb
 7364 03a2 01       		.byte	0x1
 7365 03a3 55       		.uleb128 0x55
 7366 03a4 06       		.uleb128 0x6
 7367 03a5 00       		.byte	0
 7368 03a6 00       		.byte	0
 7369 03a7 3F       		.uleb128 0x3f
 7370 03a8 05       		.uleb128 0x5
 7371 03a9 00       		.byte	0
 7372 03aa 03       		.uleb128 0x3
 7373 03ab 0E       		.uleb128 0xe
 7374 03ac 3A       		.uleb128 0x3a
 7375 03ad 0B       		.uleb128 0xb
 7376 03ae 3B       		.uleb128 0x3b
 7377 03af 05       		.uleb128 0x5
 7378 03b0 49       		.uleb128 0x49
 7379 03b1 13       		.uleb128 0x13
 7380 03b2 02       		.uleb128 0x2
 7381 03b3 0A       		.uleb128 0xa
 7382 03b4 00       		.byte	0
 7383 03b5 00       		.byte	0
 7384 03b6 40       		.uleb128 0x40
 7385 03b7 34       		.uleb128 0x34
 7386 03b8 00       		.byte	0
 7387 03b9 03       		.uleb128 0x3
 7388 03ba 0E       		.uleb128 0xe
 7389 03bb 3A       		.uleb128 0x3a
 7390 03bc 0B       		.uleb128 0xb
ARM GAS  C:\Users\CHUCK~1.ERH\AppData\Local\Temp\ccby6rnL.s 			page 162


 7391 03bd 3B       		.uleb128 0x3b
 7392 03be 0B       		.uleb128 0xb
 7393 03bf 49       		.uleb128 0x49
 7394 03c0 13       		.uleb128 0x13
 7395 03c1 02       		.uleb128 0x2
 7396 03c2 0A       		.uleb128 0xa
 7397 03c3 00       		.byte	0
 7398 03c4 00       		.byte	0
 7399 03c5 41       		.uleb128 0x41
 7400 03c6 34       		.uleb128 0x34
 7401 03c7 00       		.byte	0
 7402 03c8 03       		.uleb128 0x3
 7403 03c9 0E       		.uleb128 0xe
 7404 03ca 3A       		.uleb128 0x3a
 7405 03cb 0B       		.uleb128 0xb
 7406 03cc 3B       		.uleb128 0x3b
 7407 03cd 0B       		.uleb128 0xb
 7408 03ce 49       		.uleb128 0x49
 7409 03cf 13       		.uleb128 0x13
 7410 03d0 3F       		.uleb128 0x3f
 7411 03d1 0C       		.uleb128 0xc
 7412 03d2 3C       		.uleb128 0x3c
 7413 03d3 0C       		.uleb128 0xc
 7414 03d4 00       		.byte	0
 7415 03d5 00       		.byte	0
 7416 03d6 42       		.uleb128 0x42
 7417 03d7 2E       		.uleb128 0x2e
 7418 03d8 00       		.byte	0
 7419 03d9 3F       		.uleb128 0x3f
 7420 03da 0C       		.uleb128 0xc
 7421 03db 03       		.uleb128 0x3
 7422 03dc 0E       		.uleb128 0xe
 7423 03dd 3A       		.uleb128 0x3a
 7424 03de 0B       		.uleb128 0xb
 7425 03df 3B       		.uleb128 0x3b
 7426 03e0 0B       		.uleb128 0xb
 7427 03e1 27       		.uleb128 0x27
 7428 03e2 0C       		.uleb128 0xc
 7429 03e3 3C       		.uleb128 0x3c
 7430 03e4 0C       		.uleb128 0xc
 7431 03e5 00       		.byte	0
 7432 03e6 00       		.byte	0
 7433 03e7 43       		.uleb128 0x43
 7434 03e8 2E       		.uleb128 0x2e
 7435 03e9 01       		.byte	0x1
 7436 03ea 3F       		.uleb128 0x3f
 7437 03eb 0C       		.uleb128 0xc
 7438 03ec 03       		.uleb128 0x3
 7439 03ed 0E       		.uleb128 0xe
 7440 03ee 3A       		.uleb128 0x3a
 7441 03ef 0B       		.uleb128 0xb
 7442 03f0 3B       		.uleb128 0x3b
 7443 03f1 0B       		.uleb128 0xb
 7444 03f2 27       		.uleb128 0x27
 7445 03f3 0C       		.uleb128 0xc
 7446 03f4 3C       		.uleb128 0x3c
 7447 03f5 0C       		.uleb128 0xc
ARM GAS  C:\Users\CHUCK~1.ERH\AppData\Local\Temp\ccby6rnL.s 			page 163


 7448 03f6 01       		.uleb128 0x1
 7449 03f7 13       		.uleb128 0x13
 7450 03f8 00       		.byte	0
 7451 03f9 00       		.byte	0
 7452 03fa 44       		.uleb128 0x44
 7453 03fb 05       		.uleb128 0x5
 7454 03fc 00       		.byte	0
 7455 03fd 49       		.uleb128 0x49
 7456 03fe 13       		.uleb128 0x13
 7457 03ff 00       		.byte	0
 7458 0400 00       		.byte	0
 7459 0401 45       		.uleb128 0x45
 7460 0402 2E       		.uleb128 0x2e
 7461 0403 00       		.byte	0
 7462 0404 3F       		.uleb128 0x3f
 7463 0405 0C       		.uleb128 0xc
 7464 0406 03       		.uleb128 0x3
 7465 0407 0E       		.uleb128 0xe
 7466 0408 3A       		.uleb128 0x3a
 7467 0409 0B       		.uleb128 0xb
 7468 040a 3B       		.uleb128 0x3b
 7469 040b 0B       		.uleb128 0xb
 7470 040c 27       		.uleb128 0x27
 7471 040d 0C       		.uleb128 0xc
 7472 040e 49       		.uleb128 0x49
 7473 040f 13       		.uleb128 0x13
 7474 0410 3C       		.uleb128 0x3c
 7475 0411 0C       		.uleb128 0xc
 7476 0412 00       		.byte	0
 7477 0413 00       		.byte	0
 7478 0414 46       		.uleb128 0x46
 7479 0415 2E       		.uleb128 0x2e
 7480 0416 01       		.byte	0x1
 7481 0417 3F       		.uleb128 0x3f
 7482 0418 0C       		.uleb128 0xc
 7483 0419 03       		.uleb128 0x3
 7484 041a 0E       		.uleb128 0xe
 7485 041b 3A       		.uleb128 0x3a
 7486 041c 0B       		.uleb128 0xb
 7487 041d 3B       		.uleb128 0x3b
 7488 041e 0B       		.uleb128 0xb
 7489 041f 27       		.uleb128 0x27
 7490 0420 0C       		.uleb128 0xc
 7491 0421 49       		.uleb128 0x49
 7492 0422 13       		.uleb128 0x13
 7493 0423 3C       		.uleb128 0x3c
 7494 0424 0C       		.uleb128 0xc
 7495 0425 01       		.uleb128 0x1
 7496 0426 13       		.uleb128 0x13
 7497 0427 00       		.byte	0
 7498 0428 00       		.byte	0
 7499 0429 00       		.byte	0
 7500              		.section	.debug_loc,"",%progbits
 7501              	.Ldebug_loc0:
 7502              	.LLST0:
 7503 0000 00000000 		.4byte	.LFB1
 7504 0004 02000000 		.4byte	.LCFI0
ARM GAS  C:\Users\CHUCK~1.ERH\AppData\Local\Temp\ccby6rnL.s 			page 164


 7505 0008 0200     		.2byte	0x2
 7506 000a 7D       		.byte	0x7d
 7507 000b 00       		.sleb128 0
 7508 000c 02000000 		.4byte	.LCFI0
 7509 0010 2C000000 		.4byte	.LFE1
 7510 0014 0200     		.2byte	0x2
 7511 0016 7D       		.byte	0x7d
 7512 0017 10       		.sleb128 16
 7513 0018 00000000 		.4byte	0
 7514 001c 00000000 		.4byte	0
 7515              	.LLST1:
 7516 0020 00000000 		.4byte	.LVL0
 7517 0024 09000000 		.4byte	.LVL1-1
 7518 0028 0100     		.2byte	0x1
 7519 002a 50       		.byte	0x50
 7520 002b 09000000 		.4byte	.LVL1-1
 7521 002f 2C000000 		.4byte	.LFE1
 7522 0033 0400     		.2byte	0x4
 7523 0035 F3       		.byte	0xf3
 7524 0036 01       		.uleb128 0x1
 7525 0037 50       		.byte	0x50
 7526 0038 9F       		.byte	0x9f
 7527 0039 00000000 		.4byte	0
 7528 003d 00000000 		.4byte	0
 7529              	.LLST2:
 7530 0041 00000000 		.4byte	.LVL0
 7531 0045 09000000 		.4byte	.LVL1-1
 7532 0049 0100     		.2byte	0x1
 7533 004b 51       		.byte	0x51
 7534 004c 09000000 		.4byte	.LVL1-1
 7535 0050 2C000000 		.4byte	.LFE1
 7536 0054 0400     		.2byte	0x4
 7537 0056 F3       		.byte	0xf3
 7538 0057 01       		.uleb128 0x1
 7539 0058 51       		.byte	0x51
 7540 0059 9F       		.byte	0x9f
 7541 005a 00000000 		.4byte	0
 7542 005e 00000000 		.4byte	0
 7543              	.LLST3:
 7544 0062 00000000 		.4byte	.LFB7
 7545 0066 02000000 		.4byte	.LCFI1
 7546 006a 0200     		.2byte	0x2
 7547 006c 7D       		.byte	0x7d
 7548 006d 00       		.sleb128 0
 7549 006e 02000000 		.4byte	.LCFI1
 7550 0072 1A000000 		.4byte	.LFE7
 7551 0076 0200     		.2byte	0x2
 7552 0078 7D       		.byte	0x7d
 7553 0079 10       		.sleb128 16
 7554 007a 00000000 		.4byte	0
 7555 007e 00000000 		.4byte	0
 7556              	.LLST4:
 7557 0082 00000000 		.4byte	.LVL7
 7558 0086 0B000000 		.4byte	.LVL9-1
 7559 008a 0100     		.2byte	0x1
 7560 008c 50       		.byte	0x50
 7561 008d 0B000000 		.4byte	.LVL9-1
ARM GAS  C:\Users\CHUCK~1.ERH\AppData\Local\Temp\ccby6rnL.s 			page 165


 7562 0091 1A000000 		.4byte	.LFE7
 7563 0095 0400     		.2byte	0x4
 7564 0097 F3       		.byte	0xf3
 7565 0098 01       		.uleb128 0x1
 7566 0099 50       		.byte	0x50
 7567 009a 9F       		.byte	0x9f
 7568 009b 00000000 		.4byte	0
 7569 009f 00000000 		.4byte	0
 7570              	.LLST5:
 7571 00a3 00000000 		.4byte	.LVL7
 7572 00a7 06000000 		.4byte	.LVL8
 7573 00ab 0100     		.2byte	0x1
 7574 00ad 51       		.byte	0x51
 7575 00ae 06000000 		.4byte	.LVL8
 7576 00b2 1A000000 		.4byte	.LFE7
 7577 00b6 0400     		.2byte	0x4
 7578 00b8 F3       		.byte	0xf3
 7579 00b9 01       		.uleb128 0x1
 7580 00ba 51       		.byte	0x51
 7581 00bb 9F       		.byte	0x9f
 7582 00bc 00000000 		.4byte	0
 7583 00c0 00000000 		.4byte	0
 7584              	.LLST6:
 7585 00c4 00000000 		.4byte	.LFB5
 7586 00c8 02000000 		.4byte	.LCFI2
 7587 00cc 0200     		.2byte	0x2
 7588 00ce 7D       		.byte	0x7d
 7589 00cf 00       		.sleb128 0
 7590 00d0 02000000 		.4byte	.LCFI2
 7591 00d4 1C000000 		.4byte	.LFE5
 7592 00d8 0200     		.2byte	0x2
 7593 00da 7D       		.byte	0x7d
 7594 00db 18       		.sleb128 24
 7595 00dc 00000000 		.4byte	0
 7596 00e0 00000000 		.4byte	0
 7597              	.LLST7:
 7598 00e4 00000000 		.4byte	.LVL11
 7599 00e8 08000000 		.4byte	.LVL14
 7600 00ec 0100     		.2byte	0x1
 7601 00ee 50       		.byte	0x50
 7602 00ef 08000000 		.4byte	.LVL14
 7603 00f3 1C000000 		.4byte	.LFE5
 7604 00f7 0400     		.2byte	0x4
 7605 00f9 F3       		.byte	0xf3
 7606 00fa 01       		.uleb128 0x1
 7607 00fb 50       		.byte	0x50
 7608 00fc 9F       		.byte	0x9f
 7609 00fd 00000000 		.4byte	0
 7610 0101 00000000 		.4byte	0
 7611              	.LLST8:
 7612 0105 00000000 		.4byte	.LVL11
 7613 0109 02000000 		.4byte	.LVL12
 7614 010d 0100     		.2byte	0x1
 7615 010f 51       		.byte	0x51
 7616 0110 04000000 		.4byte	.LVL13
 7617 0114 1C000000 		.4byte	.LFE5
 7618 0118 0100     		.2byte	0x1
ARM GAS  C:\Users\CHUCK~1.ERH\AppData\Local\Temp\ccby6rnL.s 			page 166


 7619 011a 51       		.byte	0x51
 7620 011b 00000000 		.4byte	0
 7621 011f 00000000 		.4byte	0
 7622              	.LLST9:
 7623 0123 02000000 		.4byte	.LVL12
 7624 0127 08000000 		.4byte	.LVL14
 7625 012b 0200     		.2byte	0x2
 7626 012d 30       		.byte	0x30
 7627 012e 9F       		.byte	0x9f
 7628 012f 16000000 		.4byte	.LVL16
 7629 0133 1C000000 		.4byte	.LFE5
 7630 0137 0100     		.2byte	0x1
 7631 0139 54       		.byte	0x54
 7632 013a 00000000 		.4byte	0
 7633 013e 00000000 		.4byte	0
 7634              	.LLST10:
 7635 0142 02000000 		.4byte	.LVL12
 7636 0146 0C000000 		.4byte	.LVL15
 7637 014a 0300     		.2byte	0x3
 7638 014c 91       		.byte	0x91
 7639 014d 6C       		.sleb128 -20
 7640 014e 9F       		.byte	0x9f
 7641 014f 0C000000 		.4byte	.LVL15
 7642 0153 15000000 		.4byte	.LVL16-1
 7643 0157 0100     		.2byte	0x1
 7644 0159 53       		.byte	0x53
 7645 015a 15000000 		.4byte	.LVL16-1
 7646 015e 1C000000 		.4byte	.LFE5
 7647 0162 0300     		.2byte	0x3
 7648 0164 91       		.byte	0x91
 7649 0165 6C       		.sleb128 -20
 7650 0166 9F       		.byte	0x9f
 7651 0167 00000000 		.4byte	0
 7652 016b 00000000 		.4byte	0
 7653              	.LLST11:
 7654 016f 00000000 		.4byte	.LFB9
 7655 0173 02000000 		.4byte	.LCFI3
 7656 0177 0200     		.2byte	0x2
 7657 0179 7D       		.byte	0x7d
 7658 017a 00       		.sleb128 0
 7659 017b 02000000 		.4byte	.LCFI3
 7660 017f 1E000000 		.4byte	.LFE9
 7661 0183 0200     		.2byte	0x2
 7662 0185 7D       		.byte	0x7d
 7663 0186 18       		.sleb128 24
 7664 0187 00000000 		.4byte	0
 7665 018b 00000000 		.4byte	0
 7666              	.LLST12:
 7667 018f 00000000 		.4byte	.LVL17
 7668 0193 0A000000 		.4byte	.LVL18
 7669 0197 0100     		.2byte	0x1
 7670 0199 50       		.byte	0x50
 7671 019a 0A000000 		.4byte	.LVL18
 7672 019e 1E000000 		.4byte	.LFE9
 7673 01a2 0400     		.2byte	0x4
 7674 01a4 F3       		.byte	0xf3
 7675 01a5 01       		.uleb128 0x1
ARM GAS  C:\Users\CHUCK~1.ERH\AppData\Local\Temp\ccby6rnL.s 			page 167


 7676 01a6 50       		.byte	0x50
 7677 01a7 9F       		.byte	0x9f
 7678 01a8 00000000 		.4byte	0
 7679 01ac 00000000 		.4byte	0
 7680              	.LLST13:
 7681 01b0 00000000 		.4byte	.LVL17
 7682 01b4 0A000000 		.4byte	.LVL18
 7683 01b8 0100     		.2byte	0x1
 7684 01ba 51       		.byte	0x51
 7685 01bb 0A000000 		.4byte	.LVL18
 7686 01bf 1E000000 		.4byte	.LFE9
 7687 01c3 0100     		.2byte	0x1
 7688 01c5 56       		.byte	0x56
 7689 01c6 00000000 		.4byte	0
 7690 01ca 00000000 		.4byte	0
 7691              	.LLST14:
 7692 01ce 00000000 		.4byte	.LVL17
 7693 01d2 0A000000 		.4byte	.LVL18
 7694 01d6 0100     		.2byte	0x1
 7695 01d8 52       		.byte	0x52
 7696 01d9 0A000000 		.4byte	.LVL18
 7697 01dd 1E000000 		.4byte	.LFE9
 7698 01e1 0400     		.2byte	0x4
 7699 01e3 F3       		.byte	0xf3
 7700 01e4 01       		.uleb128 0x1
 7701 01e5 52       		.byte	0x52
 7702 01e6 9F       		.byte	0x9f
 7703 01e7 00000000 		.4byte	0
 7704 01eb 00000000 		.4byte	0
 7705              	.LLST15:
 7706 01ef 00000000 		.4byte	.LVL17
 7707 01f3 0A000000 		.4byte	.LVL18
 7708 01f7 0200     		.2byte	0x2
 7709 01f9 30       		.byte	0x30
 7710 01fa 9F       		.byte	0x9f
 7711 01fb 0A000000 		.4byte	.LVL18
 7712 01ff 1E000000 		.4byte	.LFE9
 7713 0203 0100     		.2byte	0x1
 7714 0205 54       		.byte	0x54
 7715 0206 00000000 		.4byte	0
 7716 020a 00000000 		.4byte	0
 7717              	.LLST16:
 7718 020e 00000000 		.4byte	.LFB2
 7719 0212 02000000 		.4byte	.LCFI4
 7720 0216 0200     		.2byte	0x2
 7721 0218 7D       		.byte	0x7d
 7722 0219 00       		.sleb128 0
 7723 021a 02000000 		.4byte	.LCFI4
 7724 021e 38000000 		.4byte	.LFE2
 7725 0222 0200     		.2byte	0x2
 7726 0224 7D       		.byte	0x7d
 7727 0225 10       		.sleb128 16
 7728 0226 00000000 		.4byte	0
 7729 022a 00000000 		.4byte	0
 7730              	.LLST17:
 7731 022e 00000000 		.4byte	.LVL21
 7732 0232 07000000 		.4byte	.LVL22-1
ARM GAS  C:\Users\CHUCK~1.ERH\AppData\Local\Temp\ccby6rnL.s 			page 168


 7733 0236 0100     		.2byte	0x1
 7734 0238 50       		.byte	0x50
 7735 0239 07000000 		.4byte	.LVL22-1
 7736 023d 38000000 		.4byte	.LFE2
 7737 0241 0400     		.2byte	0x4
 7738 0243 F3       		.byte	0xf3
 7739 0244 01       		.uleb128 0x1
 7740 0245 50       		.byte	0x50
 7741 0246 9F       		.byte	0x9f
 7742 0247 00000000 		.4byte	0
 7743 024b 00000000 		.4byte	0
 7744              	.LLST18:
 7745 024f 26000000 		.4byte	.LVL27
 7746 0253 2A000000 		.4byte	.LVL28
 7747 0257 0100     		.2byte	0x1
 7748 0259 55       		.byte	0x55
 7749 025a 00000000 		.4byte	0
 7750 025e 00000000 		.4byte	0
 7751              	.LLST19:
 7752 0262 2A000000 		.4byte	.LVL28
 7753 0266 2F000000 		.4byte	.LVL29-1
 7754 026a 0100     		.2byte	0x1
 7755 026c 50       		.byte	0x50
 7756 026d 34000000 		.4byte	.LVL30
 7757 0271 36000000 		.4byte	.LVL31
 7758 0275 0100     		.2byte	0x1
 7759 0277 50       		.byte	0x50
 7760 0278 00000000 		.4byte	0
 7761 027c 00000000 		.4byte	0
 7762              	.LLST20:
 7763 0280 00000000 		.4byte	.LVL32
 7764 0284 02000000 		.4byte	.LVL33
 7765 0288 0100     		.2byte	0x1
 7766 028a 50       		.byte	0x50
 7767 028b 02000000 		.4byte	.LVL33
 7768 028f 0C000000 		.4byte	.LFE44
 7769 0293 0400     		.2byte	0x4
 7770 0295 F3       		.byte	0xf3
 7771 0296 01       		.uleb128 0x1
 7772 0297 50       		.byte	0x50
 7773 0298 9F       		.byte	0x9f
 7774 0299 00000000 		.4byte	0
 7775 029d 00000000 		.4byte	0
 7776              	.LLST21:
 7777 02a1 00000000 		.4byte	.LFB8
 7778 02a5 02000000 		.4byte	.LCFI5
 7779 02a9 0200     		.2byte	0x2
 7780 02ab 7D       		.byte	0x7d
 7781 02ac 00       		.sleb128 0
 7782 02ad 02000000 		.4byte	.LCFI5
 7783 02b1 1A000000 		.4byte	.LFE8
 7784 02b5 0200     		.2byte	0x2
 7785 02b7 7D       		.byte	0x7d
 7786 02b8 10       		.sleb128 16
 7787 02b9 00000000 		.4byte	0
 7788 02bd 00000000 		.4byte	0
 7789              	.LLST22:
ARM GAS  C:\Users\CHUCK~1.ERH\AppData\Local\Temp\ccby6rnL.s 			page 169


 7790 02c1 00000000 		.4byte	.LVL35
 7791 02c5 07000000 		.4byte	.LVL36-1
 7792 02c9 0100     		.2byte	0x1
 7793 02cb 50       		.byte	0x50
 7794 02cc 07000000 		.4byte	.LVL36-1
 7795 02d0 1A000000 		.4byte	.LFE8
 7796 02d4 0400     		.2byte	0x4
 7797 02d6 F3       		.byte	0xf3
 7798 02d7 01       		.uleb128 0x1
 7799 02d8 50       		.byte	0x50
 7800 02d9 9F       		.byte	0x9f
 7801 02da 00000000 		.4byte	0
 7802 02de 00000000 		.4byte	0
 7803              	.LLST23:
 7804 02e2 08000000 		.4byte	.LVL36
 7805 02e6 0C000000 		.4byte	.LVL37
 7806 02ea 0100     		.2byte	0x1
 7807 02ec 50       		.byte	0x50
 7808 02ed 0E000000 		.4byte	.LVL38
 7809 02f1 10000000 		.4byte	.LVL39
 7810 02f5 0100     		.2byte	0x1
 7811 02f7 50       		.byte	0x50
 7812 02f8 10000000 		.4byte	.LVL39
 7813 02fc 14000000 		.4byte	.LVL40
 7814 0300 0100     		.2byte	0x1
 7815 0302 54       		.byte	0x54
 7816 0303 14000000 		.4byte	.LVL40
 7817 0307 18000000 		.4byte	.LVL41
 7818 030b 0900     		.2byte	0x9
 7819 030d 70       		.byte	0x70
 7820 030e 00       		.sleb128 0
 7821 030f 08       		.byte	0x8
 7822 0310 FF       		.byte	0xff
 7823 0311 1A       		.byte	0x1a
 7824 0312 74       		.byte	0x74
 7825 0313 00       		.sleb128 0
 7826 0314 22       		.byte	0x22
 7827 0315 9F       		.byte	0x9f
 7828 0316 00000000 		.4byte	0
 7829 031a 00000000 		.4byte	0
 7830              	.LLST24:
 7831 031e 00000000 		.4byte	.LFB108
 7832 0322 04000000 		.4byte	.LCFI6
 7833 0326 0200     		.2byte	0x2
 7834 0328 7D       		.byte	0x7d
 7835 0329 00       		.sleb128 0
 7836 032a 04000000 		.4byte	.LCFI6
 7837 032e 66000000 		.4byte	.LFE108
 7838 0332 0200     		.2byte	0x2
 7839 0334 7D       		.byte	0x7d
 7840 0335 20       		.sleb128 32
 7841 0336 00000000 		.4byte	0
 7842 033a 00000000 		.4byte	0
 7843              	.LLST25:
 7844 033e 00000000 		.4byte	.LVL42
 7845 0342 0E000000 		.4byte	.LVL43
 7846 0346 0100     		.2byte	0x1
ARM GAS  C:\Users\CHUCK~1.ERH\AppData\Local\Temp\ccby6rnL.s 			page 170


 7847 0348 50       		.byte	0x50
 7848 0349 0E000000 		.4byte	.LVL43
 7849 034d 66000000 		.4byte	.LFE108
 7850 0351 0400     		.2byte	0x4
 7851 0353 F3       		.byte	0xf3
 7852 0354 01       		.uleb128 0x1
 7853 0355 50       		.byte	0x50
 7854 0356 9F       		.byte	0x9f
 7855 0357 00000000 		.4byte	0
 7856 035b 00000000 		.4byte	0
 7857              	.LLST26:
 7858 035f 00000000 		.4byte	.LVL42
 7859 0363 19000000 		.4byte	.LVL44-1
 7860 0367 0100     		.2byte	0x1
 7861 0369 51       		.byte	0x51
 7862 036a 19000000 		.4byte	.LVL44-1
 7863 036e 50000000 		.4byte	.LVL51
 7864 0372 0100     		.2byte	0x1
 7865 0374 56       		.byte	0x56
 7866 0375 50000000 		.4byte	.LVL51
 7867 0379 52000000 		.4byte	.LVL52
 7868 037d 0100     		.2byte	0x1
 7869 037f 51       		.byte	0x51
 7870 0380 52000000 		.4byte	.LVL52
 7871 0384 66000000 		.4byte	.LFE108
 7872 0388 0100     		.2byte	0x1
 7873 038a 56       		.byte	0x56
 7874 038b 00000000 		.4byte	0
 7875 038f 00000000 		.4byte	0
 7876              	.LLST27:
 7877 0393 00000000 		.4byte	.LVL42
 7878 0397 19000000 		.4byte	.LVL44-1
 7879 039b 0100     		.2byte	0x1
 7880 039d 52       		.byte	0x52
 7881 039e 19000000 		.4byte	.LVL44-1
 7882 03a2 66000000 		.4byte	.LFE108
 7883 03a6 0400     		.2byte	0x4
 7884 03a8 F3       		.byte	0xf3
 7885 03a9 01       		.uleb128 0x1
 7886 03aa 52       		.byte	0x52
 7887 03ab 9F       		.byte	0x9f
 7888 03ac 00000000 		.4byte	0
 7889 03b0 00000000 		.4byte	0
 7890              	.LLST28:
 7891 03b4 3C000000 		.4byte	.LVL48
 7892 03b8 45000000 		.4byte	.LVL50-1
 7893 03bc 0100     		.2byte	0x1
 7894 03be 50       		.byte	0x50
 7895 03bf 45000000 		.4byte	.LVL50-1
 7896 03c3 50000000 		.4byte	.LVL51
 7897 03c7 0A00     		.2byte	0xa
 7898 03c9 78       		.byte	0x78
 7899 03ca 00       		.sleb128 0
 7900 03cb 45       		.byte	0x45
 7901 03cc 24       		.byte	0x24
 7902 03cd 45       		.byte	0x45
 7903 03ce 25       		.byte	0x25
ARM GAS  C:\Users\CHUCK~1.ERH\AppData\Local\Temp\ccby6rnL.s 			page 171


 7904 03cf 79       		.byte	0x79
 7905 03d0 00       		.sleb128 0
 7906 03d1 22       		.byte	0x22
 7907 03d2 9F       		.byte	0x9f
 7908 03d3 50000000 		.4byte	.LVL51
 7909 03d7 52000000 		.4byte	.LVL52
 7910 03db 0100     		.2byte	0x1
 7911 03dd 50       		.byte	0x50
 7912 03de 52000000 		.4byte	.LVL52
 7913 03e2 66000000 		.4byte	.LFE108
 7914 03e6 0A00     		.2byte	0xa
 7915 03e8 78       		.byte	0x78
 7916 03e9 00       		.sleb128 0
 7917 03ea 45       		.byte	0x45
 7918 03eb 24       		.byte	0x24
 7919 03ec 45       		.byte	0x45
 7920 03ed 25       		.byte	0x25
 7921 03ee 79       		.byte	0x79
 7922 03ef 00       		.sleb128 0
 7923 03f0 22       		.byte	0x22
 7924 03f1 9F       		.byte	0x9f
 7925 03f2 00000000 		.4byte	0
 7926 03f6 00000000 		.4byte	0
 7927              	.LLST29:
 7928 03fa 34000000 		.4byte	.LVL46
 7929 03fe 3A000000 		.4byte	.LVL47
 7930 0402 0100     		.2byte	0x1
 7931 0404 50       		.byte	0x50
 7932 0405 3A000000 		.4byte	.LVL47
 7933 0409 56000000 		.4byte	.LVL53
 7934 040d 0100     		.2byte	0x1
 7935 040f 58       		.byte	0x58
 7936 0410 56000000 		.4byte	.LVL53
 7937 0414 66000000 		.4byte	.LFE108
 7938 0418 0600     		.2byte	0x6
 7939 041a 78       		.byte	0x78
 7940 041b 00       		.sleb128 0
 7941 041c 74       		.byte	0x74
 7942 041d 00       		.sleb128 0
 7943 041e 22       		.byte	0x22
 7944 041f 9F       		.byte	0x9f
 7945 0420 00000000 		.4byte	0
 7946 0424 00000000 		.4byte	0
 7947              	.LLST30:
 7948 0428 34000000 		.4byte	.LVL46
 7949 042c 3E000000 		.4byte	.LVL49
 7950 0430 0100     		.2byte	0x1
 7951 0432 51       		.byte	0x51
 7952 0433 3E000000 		.4byte	.LVL49
 7953 0437 66000000 		.4byte	.LFE108
 7954 043b 0700     		.2byte	0x7
 7955 043d 78       		.byte	0x78
 7956 043e 00       		.sleb128 0
 7957 043f 45       		.byte	0x45
 7958 0440 24       		.byte	0x24
 7959 0441 45       		.byte	0x45
 7960 0442 25       		.byte	0x25
ARM GAS  C:\Users\CHUCK~1.ERH\AppData\Local\Temp\ccby6rnL.s 			page 172


 7961 0443 9F       		.byte	0x9f
 7962 0444 00000000 		.4byte	0
 7963 0448 00000000 		.4byte	0
 7964              	.LLST31:
 7965 044c 00000000 		.4byte	.LVL42
 7966 0450 0E000000 		.4byte	.LVL43
 7967 0454 0100     		.2byte	0x1
 7968 0456 50       		.byte	0x50
 7969 0457 0E000000 		.4byte	.LVL43
 7970 045b 30000000 		.4byte	.LVL45
 7971 045f 0100     		.2byte	0x1
 7972 0461 59       		.byte	0x59
 7973 0462 00000000 		.4byte	0
 7974 0466 00000000 		.4byte	0
 7975              	.LLST32:
 7976 046a 00000000 		.4byte	.LFB71
 7977 046e 04000000 		.4byte	.LCFI7
 7978 0472 0200     		.2byte	0x2
 7979 0474 7D       		.byte	0x7d
 7980 0475 00       		.sleb128 0
 7981 0476 04000000 		.4byte	.LCFI7
 7982 047a 26000000 		.4byte	.LFE71
 7983 047e 0200     		.2byte	0x2
 7984 0480 7D       		.byte	0x7d
 7985 0481 10       		.sleb128 16
 7986 0482 00000000 		.4byte	0
 7987 0486 00000000 		.4byte	0
 7988              	.LLST33:
 7989 048a 00000000 		.4byte	.LVL55
 7990 048e 02000000 		.4byte	.LVL56
 7991 0492 0100     		.2byte	0x1
 7992 0494 50       		.byte	0x50
 7993 0495 02000000 		.4byte	.LVL56
 7994 0499 26000000 		.4byte	.LFE71
 7995 049d 0400     		.2byte	0x4
 7996 049f F3       		.byte	0xf3
 7997 04a0 01       		.uleb128 0x1
 7998 04a1 50       		.byte	0x50
 7999 04a2 9F       		.byte	0x9f
 8000 04a3 00000000 		.4byte	0
 8001 04a7 00000000 		.4byte	0
 8002              	.LLST34:
 8003 04ab 00000000 		.4byte	.LVL55
 8004 04af 0C000000 		.4byte	.LVL57
 8005 04b3 0200     		.2byte	0x2
 8006 04b5 30       		.byte	0x30
 8007 04b6 9F       		.byte	0x9f
 8008 04b7 00000000 		.4byte	0
 8009 04bb 00000000 		.4byte	0
 8010              	.LLST35:
 8011 04bf 00000000 		.4byte	.LVL55
 8012 04c3 0C000000 		.4byte	.LVL57
 8013 04c7 0200     		.2byte	0x2
 8014 04c9 30       		.byte	0x30
 8015 04ca 9F       		.byte	0x9f
 8016 04cb 0C000000 		.4byte	.LVL57
 8017 04cf 26000000 		.4byte	.LFE71
ARM GAS  C:\Users\CHUCK~1.ERH\AppData\Local\Temp\ccby6rnL.s 			page 173


 8018 04d3 0100     		.2byte	0x1
 8019 04d5 56       		.byte	0x56
 8020 04d6 00000000 		.4byte	0
 8021 04da 00000000 		.4byte	0
 8022              	.LLST36:
 8023 04de 00000000 		.4byte	.LFB10
 8024 04e2 02000000 		.4byte	.LCFI8
 8025 04e6 0200     		.2byte	0x2
 8026 04e8 7D       		.byte	0x7d
 8027 04e9 00       		.sleb128 0
 8028 04ea 02000000 		.4byte	.LCFI8
 8029 04ee 1E000000 		.4byte	.LFE10
 8030 04f2 0200     		.2byte	0x2
 8031 04f4 7D       		.byte	0x7d
 8032 04f5 18       		.sleb128 24
 8033 04f6 00000000 		.4byte	0
 8034 04fa 00000000 		.4byte	0
 8035              	.LLST37:
 8036 04fe 00000000 		.4byte	.LVL61
 8037 0502 0A000000 		.4byte	.LVL62
 8038 0506 0100     		.2byte	0x1
 8039 0508 50       		.byte	0x50
 8040 0509 0A000000 		.4byte	.LVL62
 8041 050d 1E000000 		.4byte	.LFE10
 8042 0511 0400     		.2byte	0x4
 8043 0513 F3       		.byte	0xf3
 8044 0514 01       		.uleb128 0x1
 8045 0515 50       		.byte	0x50
 8046 0516 9F       		.byte	0x9f
 8047 0517 00000000 		.4byte	0
 8048 051b 00000000 		.4byte	0
 8049              	.LLST38:
 8050 051f 00000000 		.4byte	.LVL61
 8051 0523 0A000000 		.4byte	.LVL62
 8052 0527 0100     		.2byte	0x1
 8053 0529 51       		.byte	0x51
 8054 052a 0A000000 		.4byte	.LVL62
 8055 052e 1E000000 		.4byte	.LFE10
 8056 0532 0100     		.2byte	0x1
 8057 0534 56       		.byte	0x56
 8058 0535 00000000 		.4byte	0
 8059 0539 00000000 		.4byte	0
 8060              	.LLST39:
 8061 053d 00000000 		.4byte	.LVL61
 8062 0541 0A000000 		.4byte	.LVL62
 8063 0545 0100     		.2byte	0x1
 8064 0547 52       		.byte	0x52
 8065 0548 0A000000 		.4byte	.LVL62
 8066 054c 1E000000 		.4byte	.LFE10
 8067 0550 0400     		.2byte	0x4
 8068 0552 F3       		.byte	0xf3
 8069 0553 01       		.uleb128 0x1
 8070 0554 52       		.byte	0x52
 8071 0555 9F       		.byte	0x9f
 8072 0556 00000000 		.4byte	0
 8073 055a 00000000 		.4byte	0
 8074              	.LLST40:
ARM GAS  C:\Users\CHUCK~1.ERH\AppData\Local\Temp\ccby6rnL.s 			page 174


 8075 055e 00000000 		.4byte	.LVL61
 8076 0562 0A000000 		.4byte	.LVL62
 8077 0566 0200     		.2byte	0x2
 8078 0568 30       		.byte	0x30
 8079 0569 9F       		.byte	0x9f
 8080 056a 0A000000 		.4byte	.LVL62
 8081 056e 1E000000 		.4byte	.LFE10
 8082 0572 0100     		.2byte	0x1
 8083 0574 54       		.byte	0x54
 8084 0575 00000000 		.4byte	0
 8085 0579 00000000 		.4byte	0
 8086              	.LLST41:
 8087 057d 00000000 		.4byte	.LFB109
 8088 0581 02000000 		.4byte	.LCFI9
 8089 0585 0200     		.2byte	0x2
 8090 0587 7D       		.byte	0x7d
 8091 0588 00       		.sleb128 0
 8092 0589 02000000 		.4byte	.LCFI9
 8093 058d 4E000000 		.4byte	.LFE109
 8094 0591 0200     		.2byte	0x2
 8095 0593 7D       		.byte	0x7d
 8096 0594 18       		.sleb128 24
 8097 0595 00000000 		.4byte	0
 8098 0599 00000000 		.4byte	0
 8099              	.LLST42:
 8100 059d 00000000 		.4byte	.LVL65
 8101 05a1 06000000 		.4byte	.LVL66
 8102 05a5 0100     		.2byte	0x1
 8103 05a7 50       		.byte	0x50
 8104 05a8 06000000 		.4byte	.LVL66
 8105 05ac 4E000000 		.4byte	.LFE109
 8106 05b0 0400     		.2byte	0x4
 8107 05b2 F3       		.byte	0xf3
 8108 05b3 01       		.uleb128 0x1
 8109 05b4 50       		.byte	0x50
 8110 05b5 9F       		.byte	0x9f
 8111 05b6 00000000 		.4byte	0
 8112 05ba 00000000 		.4byte	0
 8113              	.LLST43:
 8114 05be 00000000 		.4byte	.LVL65
 8115 05c2 0C000000 		.4byte	.LVL67
 8116 05c6 0100     		.2byte	0x1
 8117 05c8 51       		.byte	0x51
 8118 05c9 0C000000 		.4byte	.LVL67
 8119 05cd 4E000000 		.4byte	.LFE109
 8120 05d1 0400     		.2byte	0x4
 8121 05d3 F3       		.byte	0xf3
 8122 05d4 01       		.uleb128 0x1
 8123 05d5 51       		.byte	0x51
 8124 05d6 9F       		.byte	0x9f
 8125 05d7 00000000 		.4byte	0
 8126 05db 00000000 		.4byte	0
 8127              	.LLST44:
 8128 05df 00000000 		.4byte	.LVL65
 8129 05e3 15000000 		.4byte	.LVL68-1
 8130 05e7 0100     		.2byte	0x1
 8131 05e9 52       		.byte	0x52
ARM GAS  C:\Users\CHUCK~1.ERH\AppData\Local\Temp\ccby6rnL.s 			page 175


 8132 05ea 15000000 		.4byte	.LVL68-1
 8133 05ee 44000000 		.4byte	.LVL75
 8134 05f2 0100     		.2byte	0x1
 8135 05f4 55       		.byte	0x55
 8136 05f5 44000000 		.4byte	.LVL75
 8137 05f9 46000000 		.4byte	.LVL76
 8138 05fd 0100     		.2byte	0x1
 8139 05ff 51       		.byte	0x51
 8140 0600 46000000 		.4byte	.LVL76
 8141 0604 4E000000 		.4byte	.LFE109
 8142 0608 0100     		.2byte	0x1
 8143 060a 55       		.byte	0x55
 8144 060b 00000000 		.4byte	0
 8145 060f 00000000 		.4byte	0
 8146              	.LLST45:
 8147 0613 00000000 		.4byte	.LVL65
 8148 0617 15000000 		.4byte	.LVL68-1
 8149 061b 0100     		.2byte	0x1
 8150 061d 53       		.byte	0x53
 8151 061e 15000000 		.4byte	.LVL68-1
 8152 0622 4E000000 		.4byte	.LFE109
 8153 0626 0400     		.2byte	0x4
 8154 0628 F3       		.byte	0xf3
 8155 0629 01       		.uleb128 0x1
 8156 062a 53       		.byte	0x53
 8157 062b 9F       		.byte	0x9f
 8158 062c 00000000 		.4byte	0
 8159 0630 00000000 		.4byte	0
 8160              	.LLST46:
 8161 0634 30000000 		.4byte	.LVL72
 8162 0638 32000000 		.4byte	.LVL73
 8163 063c 0100     		.2byte	0x1
 8164 063e 51       		.byte	0x51
 8165 063f 32000000 		.4byte	.LVL73
 8166 0643 39000000 		.4byte	.LVL74-1
 8167 0647 0100     		.2byte	0x1
 8168 0649 50       		.byte	0x50
 8169 064a 44000000 		.4byte	.LVL75
 8170 064e 46000000 		.4byte	.LVL76
 8171 0652 0100     		.2byte	0x1
 8172 0654 50       		.byte	0x50
 8173 0655 00000000 		.4byte	0
 8174 0659 00000000 		.4byte	0
 8175              	.LLST47:
 8176 065d 16000000 		.4byte	.LVL68
 8177 0661 1E000000 		.4byte	.LVL70
 8178 0665 0600     		.2byte	0x6
 8179 0667 70       		.byte	0x70
 8180 0668 00       		.sleb128 0
 8181 0669 74       		.byte	0x74
 8182 066a 00       		.sleb128 0
 8183 066b 22       		.byte	0x22
 8184 066c 9F       		.byte	0x9f
 8185 066d 00000000 		.4byte	0
 8186 0671 00000000 		.4byte	0
 8187              	.LLST48:
 8188 0675 1E000000 		.4byte	.LVL70
ARM GAS  C:\Users\CHUCK~1.ERH\AppData\Local\Temp\ccby6rnL.s 			page 176


 8189 0679 2C000000 		.4byte	.LVL71
 8190 067d 0100     		.2byte	0x1
 8191 067f 54       		.byte	0x54
 8192 0680 2C000000 		.4byte	.LVL71
 8193 0684 39000000 		.4byte	.LVL74-1
 8194 0688 0500     		.2byte	0x5
 8195 068a 73       		.byte	0x73
 8196 068b 00       		.sleb128 0
 8197 068c 45       		.byte	0x45
 8198 068d 25       		.byte	0x25
 8199 068e 9F       		.byte	0x9f
 8200 068f 44000000 		.4byte	.LVL75
 8201 0693 46000000 		.4byte	.LVL76
 8202 0697 0500     		.2byte	0x5
 8203 0699 73       		.byte	0x73
 8204 069a 00       		.sleb128 0
 8205 069b 45       		.byte	0x45
 8206 069c 25       		.byte	0x25
 8207 069d 9F       		.byte	0x9f
 8208 069e 00000000 		.4byte	0
 8209 06a2 00000000 		.4byte	0
 8210              	.LLST49:
 8211 06a6 30000000 		.4byte	.LVL72
 8212 06aa 39000000 		.4byte	.LVL74-1
 8213 06ae 0100     		.2byte	0x1
 8214 06b0 52       		.byte	0x52
 8215 06b1 39000000 		.4byte	.LVL74-1
 8216 06b5 44000000 		.4byte	.LVL75
 8217 06b9 0100     		.2byte	0x1
 8218 06bb 54       		.byte	0x54
 8219 06bc 44000000 		.4byte	.LVL75
 8220 06c0 46000000 		.4byte	.LVL76
 8221 06c4 0100     		.2byte	0x1
 8222 06c6 52       		.byte	0x52
 8223 06c7 46000000 		.4byte	.LVL76
 8224 06cb 4E000000 		.4byte	.LFE109
 8225 06cf 0100     		.2byte	0x1
 8226 06d1 54       		.byte	0x54
 8227 06d2 00000000 		.4byte	0
 8228 06d6 00000000 		.4byte	0
 8229              	.LLST50:
 8230 06da 00000000 		.4byte	.LVL65
 8231 06de 06000000 		.4byte	.LVL66
 8232 06e2 0100     		.2byte	0x1
 8233 06e4 50       		.byte	0x50
 8234 06e5 06000000 		.4byte	.LVL66
 8235 06e9 1C000000 		.4byte	.LVL69
 8236 06ed 0100     		.2byte	0x1
 8237 06ef 57       		.byte	0x57
 8238 06f0 00000000 		.4byte	0
 8239 06f4 00000000 		.4byte	0
 8240              	.LLST51:
 8241 06f8 00000000 		.4byte	.LFB69
 8242 06fc 04000000 		.4byte	.LCFI10
 8243 0700 0200     		.2byte	0x2
 8244 0702 7D       		.byte	0x7d
 8245 0703 00       		.sleb128 0
ARM GAS  C:\Users\CHUCK~1.ERH\AppData\Local\Temp\ccby6rnL.s 			page 177


 8246 0704 04000000 		.4byte	.LCFI10
 8247 0708 2E000000 		.4byte	.LFE69
 8248 070c 0200     		.2byte	0x2
 8249 070e 7D       		.byte	0x7d
 8250 070f 10       		.sleb128 16
 8251 0710 00000000 		.4byte	0
 8252 0714 00000000 		.4byte	0
 8253              	.LLST52:
 8254 0718 00000000 		.4byte	.LVL78
 8255 071c 02000000 		.4byte	.LVL79
 8256 0720 0100     		.2byte	0x1
 8257 0722 50       		.byte	0x50
 8258 0723 02000000 		.4byte	.LVL79
 8259 0727 2E000000 		.4byte	.LFE69
 8260 072b 0400     		.2byte	0x4
 8261 072d F3       		.byte	0xf3
 8262 072e 01       		.uleb128 0x1
 8263 072f 50       		.byte	0x50
 8264 0730 9F       		.byte	0x9f
 8265 0731 00000000 		.4byte	0
 8266 0735 00000000 		.4byte	0
 8267              	.LLST53:
 8268 0739 00000000 		.4byte	.LVL78
 8269 073d 0E000000 		.4byte	.LVL80
 8270 0741 0100     		.2byte	0x1
 8271 0743 51       		.byte	0x51
 8272 0744 0E000000 		.4byte	.LVL80
 8273 0748 2E000000 		.4byte	.LFE69
 8274 074c 0400     		.2byte	0x4
 8275 074e F3       		.byte	0xf3
 8276 074f 01       		.uleb128 0x1
 8277 0750 51       		.byte	0x51
 8278 0751 9F       		.byte	0x9f
 8279 0752 00000000 		.4byte	0
 8280 0756 00000000 		.4byte	0
 8281              	.LLST54:
 8282 075a 00000000 		.4byte	.LVL78
 8283 075e 14000000 		.4byte	.LVL82
 8284 0762 0200     		.2byte	0x2
 8285 0764 30       		.byte	0x30
 8286 0765 9F       		.byte	0x9f
 8287 0766 14000000 		.4byte	.LVL82
 8288 076a 2E000000 		.4byte	.LFE69
 8289 076e 0100     		.2byte	0x1
 8290 0770 54       		.byte	0x54
 8291 0771 00000000 		.4byte	0
 8292 0775 00000000 		.4byte	0
 8293              	.LLST55:
 8294 0779 00000000 		.4byte	.LVL78
 8295 077d 11000000 		.4byte	.LVL81-1
 8296 0781 0100     		.2byte	0x1
 8297 0783 51       		.byte	0x51
 8298 0784 11000000 		.4byte	.LVL81-1
 8299 0788 2E000000 		.4byte	.LFE69
 8300 078c 0400     		.2byte	0x4
 8301 078e F3       		.byte	0xf3
 8302 078f 01       		.uleb128 0x1
ARM GAS  C:\Users\CHUCK~1.ERH\AppData\Local\Temp\ccby6rnL.s 			page 178


 8303 0790 51       		.byte	0x51
 8304 0791 9F       		.byte	0x9f
 8305 0792 00000000 		.4byte	0
 8306 0796 00000000 		.4byte	0
 8307              	.LLST57:
 8308 079a 00000000 		.4byte	.LFB85
 8309 079e 04000000 		.4byte	.LCFI11
 8310 07a2 0200     		.2byte	0x2
 8311 07a4 7D       		.byte	0x7d
 8312 07a5 00       		.sleb128 0
 8313 07a6 04000000 		.4byte	.LCFI11
 8314 07aa 4C000000 		.4byte	.LFE85
 8315 07ae 0200     		.2byte	0x2
 8316 07b0 7D       		.byte	0x7d
 8317 07b1 08       		.sleb128 8
 8318 07b2 00000000 		.4byte	0
 8319 07b6 00000000 		.4byte	0
 8320              	.LLST58:
 8321 07ba 00000000 		.4byte	.LVL86
 8322 07be 0A000000 		.4byte	.LVL87
 8323 07c2 0100     		.2byte	0x1
 8324 07c4 50       		.byte	0x50
 8325 07c5 0A000000 		.4byte	.LVL87
 8326 07c9 4C000000 		.4byte	.LFE85
 8327 07cd 0400     		.2byte	0x4
 8328 07cf F3       		.byte	0xf3
 8329 07d0 01       		.uleb128 0x1
 8330 07d1 50       		.byte	0x50
 8331 07d2 9F       		.byte	0x9f
 8332 07d3 00000000 		.4byte	0
 8333 07d7 00000000 		.4byte	0
 8334              	.LLST59:
 8335 07db 24000000 		.4byte	.LVL91
 8336 07df 2C000000 		.4byte	.LVL92
 8337 07e3 0100     		.2byte	0x1
 8338 07e5 50       		.byte	0x50
 8339 07e6 32000000 		.4byte	.LVL94
 8340 07ea 34000000 		.4byte	.LVL95
 8341 07ee 0100     		.2byte	0x1
 8342 07f0 50       		.byte	0x50
 8343 07f1 00000000 		.4byte	0
 8344 07f5 00000000 		.4byte	0
 8345              	.LLST60:
 8346 07f9 00000000 		.4byte	.LVL86
 8347 07fd 0D000000 		.4byte	.LVL88-1
 8348 0801 0500     		.2byte	0x5
 8349 0803 03       		.byte	0x3
 8350 0804 00000000 		.4byte	ETH0_SubnetMask
 8351 0808 00000000 		.4byte	0
 8352 080c 00000000 		.4byte	0
 8353              	.LLST61:
 8354 0810 16000000 		.4byte	.LVL89
 8355 0814 1E000000 		.4byte	.LVL90
 8356 0818 0100     		.2byte	0x1
 8357 081a 54       		.byte	0x54
 8358 081b 00000000 		.4byte	0
 8359 081f 00000000 		.4byte	0
ARM GAS  C:\Users\CHUCK~1.ERH\AppData\Local\Temp\ccby6rnL.s 			page 179


 8360              	.LLST62:
 8361 0823 00000000 		.4byte	.LFB76
 8362 0827 02000000 		.4byte	.LCFI12
 8363 082b 0200     		.2byte	0x2
 8364 082d 7D       		.byte	0x7d
 8365 082e 00       		.sleb128 0
 8366 082f 02000000 		.4byte	.LCFI12
 8367 0833 06000000 		.4byte	.LCFI13
 8368 0837 0200     		.2byte	0x2
 8369 0839 7D       		.byte	0x7d
 8370 083a 14       		.sleb128 20
 8371 083b 06000000 		.4byte	.LCFI13
 8372 083f 9E000000 		.4byte	.LFE76
 8373 0843 0200     		.2byte	0x2
 8374 0845 7D       		.byte	0x7d
 8375 0846 28       		.sleb128 40
 8376 0847 00000000 		.4byte	0
 8377 084b 00000000 		.4byte	0
 8378              	.LLST63:
 8379 084f 00000000 		.4byte	.LVL98
 8380 0853 0C000000 		.4byte	.LVL99
 8381 0857 0100     		.2byte	0x1
 8382 0859 50       		.byte	0x50
 8383 085a 0C000000 		.4byte	.LVL99
 8384 085e 9E000000 		.4byte	.LFE76
 8385 0862 0100     		.2byte	0x1
 8386 0864 57       		.byte	0x57
 8387 0865 00000000 		.4byte	0
 8388 0869 00000000 		.4byte	0
 8389              	.LLST64:
 8390 086d 00000000 		.4byte	.LVL98
 8391 0871 0C000000 		.4byte	.LVL99
 8392 0875 0200     		.2byte	0x2
 8393 0877 30       		.byte	0x30
 8394 0878 9F       		.byte	0x9f
 8395 0879 76000000 		.4byte	.LVL108
 8396 087d 9A000000 		.4byte	.LVL109
 8397 0881 0100     		.2byte	0x1
 8398 0883 56       		.byte	0x56
 8399 0884 00000000 		.4byte	0
 8400 0888 00000000 		.4byte	0
 8401              	.LLST65:
 8402 088c 00000000 		.4byte	.LVL98
 8403 0890 0C000000 		.4byte	.LVL99
 8404 0894 0200     		.2byte	0x2
 8405 0896 30       		.byte	0x30
 8406 0897 9F       		.byte	0x9f
 8407 0898 74000000 		.4byte	.LVL107
 8408 089c 9A000000 		.4byte	.LVL109
 8409 08a0 0100     		.2byte	0x1
 8410 08a2 55       		.byte	0x55
 8411 08a3 00000000 		.4byte	0
 8412 08a7 00000000 		.4byte	0
 8413              	.LLST66:
 8414 08ab 00000000 		.4byte	.LVL98
 8415 08af 0C000000 		.4byte	.LVL99
 8416 08b3 0200     		.2byte	0x2
ARM GAS  C:\Users\CHUCK~1.ERH\AppData\Local\Temp\ccby6rnL.s 			page 180


 8417 08b5 30       		.byte	0x30
 8418 08b6 9F       		.byte	0x9f
 8419 08b7 34000000 		.4byte	.LVL101
 8420 08bb 4A000000 		.4byte	.LVL103
 8421 08bf 0100     		.2byte	0x1
 8422 08c1 54       		.byte	0x54
 8423 08c2 4E000000 		.4byte	.LVL104
 8424 08c6 56000000 		.4byte	.LVL105
 8425 08ca 0200     		.2byte	0x2
 8426 08cc 30       		.byte	0x30
 8427 08cd 9F       		.byte	0x9f
 8428 08ce 72000000 		.4byte	.LVL106
 8429 08d2 74000000 		.4byte	.LVL107
 8430 08d6 0200     		.2byte	0x2
 8431 08d8 30       		.byte	0x30
 8432 08d9 9F       		.byte	0x9f
 8433 08da 74000000 		.4byte	.LVL107
 8434 08de 9A000000 		.4byte	.LVL109
 8435 08e2 0100     		.2byte	0x1
 8436 08e4 54       		.byte	0x54
 8437 08e5 00000000 		.4byte	0
 8438 08e9 00000000 		.4byte	0
 8439              	.LLST67:
 8440 08ed 00000000 		.4byte	.LFB77
 8441 08f1 02000000 		.4byte	.LCFI14
 8442 08f5 0200     		.2byte	0x2
 8443 08f7 7D       		.byte	0x7d
 8444 08f8 00       		.sleb128 0
 8445 08f9 02000000 		.4byte	.LCFI14
 8446 08fd 18000000 		.4byte	.LFE77
 8447 0901 0200     		.2byte	0x2
 8448 0903 7D       		.byte	0x7d
 8449 0904 08       		.sleb128 8
 8450 0905 00000000 		.4byte	0
 8451 0909 00000000 		.4byte	0
 8452              	.LLST68:
 8453 090d 00000000 		.4byte	.LVL110
 8454 0911 0C000000 		.4byte	.LVL112
 8455 0915 0100     		.2byte	0x1
 8456 0917 50       		.byte	0x50
 8457 0918 0C000000 		.4byte	.LVL112
 8458 091c 0F000000 		.4byte	.LVL113-1
 8459 0920 0100     		.2byte	0x1
 8460 0922 51       		.byte	0x51
 8461 0923 0F000000 		.4byte	.LVL113-1
 8462 0927 14000000 		.4byte	.LVL114
 8463 092b 0400     		.2byte	0x4
 8464 092d F3       		.byte	0xf3
 8465 092e 01       		.uleb128 0x1
 8466 092f 50       		.byte	0x50
 8467 0930 9F       		.byte	0x9f
 8468 0931 14000000 		.4byte	.LVL114
 8469 0935 16000000 		.4byte	.LVL115
 8470 0939 0100     		.2byte	0x1
 8471 093b 50       		.byte	0x50
 8472 093c 16000000 		.4byte	.LVL115
 8473 0940 18000000 		.4byte	.LFE77
ARM GAS  C:\Users\CHUCK~1.ERH\AppData\Local\Temp\ccby6rnL.s 			page 181


 8474 0944 0100     		.2byte	0x1
 8475 0946 51       		.byte	0x51
 8476 0947 00000000 		.4byte	0
 8477 094b 00000000 		.4byte	0
 8478              	.LLST69:
 8479 094f 00000000 		.4byte	.LVL110
 8480 0953 16000000 		.4byte	.LVL115
 8481 0957 0200     		.2byte	0x2
 8482 0959 30       		.byte	0x30
 8483 095a 9F       		.byte	0x9f
 8484 095b 16000000 		.4byte	.LVL115
 8485 095f 18000000 		.4byte	.LFE77
 8486 0963 0100     		.2byte	0x1
 8487 0965 50       		.byte	0x50
 8488 0966 00000000 		.4byte	0
 8489 096a 00000000 		.4byte	0
 8490              	.LLST70:
 8491 096e 0A000000 		.4byte	.LVL111
 8492 0972 0C000000 		.4byte	.LVL112
 8493 0976 0100     		.2byte	0x1
 8494 0978 50       		.byte	0x50
 8495 0979 0C000000 		.4byte	.LVL112
 8496 097d 0F000000 		.4byte	.LVL113-1
 8497 0981 0100     		.2byte	0x1
 8498 0983 51       		.byte	0x51
 8499 0984 0F000000 		.4byte	.LVL113-1
 8500 0988 14000000 		.4byte	.LVL114
 8501 098c 0400     		.2byte	0x4
 8502 098e F3       		.byte	0xf3
 8503 098f 01       		.uleb128 0x1
 8504 0990 50       		.byte	0x50
 8505 0991 9F       		.byte	0x9f
 8506 0992 00000000 		.4byte	0
 8507 0996 00000000 		.4byte	0
 8508              	.LLST71:
 8509 099a 00000000 		.4byte	.LFB78
 8510 099e 02000000 		.4byte	.LCFI15
 8511 09a2 0200     		.2byte	0x2
 8512 09a4 7D       		.byte	0x7d
 8513 09a5 00       		.sleb128 0
 8514 09a6 02000000 		.4byte	.LCFI15
 8515 09aa 1E000000 		.4byte	.LFE78
 8516 09ae 0200     		.2byte	0x2
 8517 09b0 7D       		.byte	0x7d
 8518 09b1 10       		.sleb128 16
 8519 09b2 00000000 		.4byte	0
 8520 09b6 00000000 		.4byte	0
 8521              	.LLST72:
 8522 09ba 16000000 		.4byte	.LVL121
 8523 09be 1E000000 		.4byte	.LFE78
 8524 09c2 0100     		.2byte	0x1
 8525 09c4 54       		.byte	0x54
 8526 09c5 00000000 		.4byte	0
 8527 09c9 00000000 		.4byte	0
 8528              	.LLST73:
 8529 09cd 02000000 		.4byte	.LVL117
 8530 09d1 12000000 		.4byte	.LVL120
ARM GAS  C:\Users\CHUCK~1.ERH\AppData\Local\Temp\ccby6rnL.s 			page 182


 8531 09d5 0300     		.2byte	0x3
 8532 09d7 91       		.byte	0x91
 8533 09d8 74       		.sleb128 -12
 8534 09d9 9F       		.byte	0x9f
 8535 09da 12000000 		.4byte	.LVL120
 8536 09de 1E000000 		.4byte	.LFE78
 8537 09e2 0100     		.2byte	0x1
 8538 09e4 53       		.byte	0x53
 8539 09e5 00000000 		.4byte	0
 8540 09e9 00000000 		.4byte	0
 8541              	.LLST74:
 8542 09ed 00000000 		.4byte	.LFB79
 8543 09f1 02000000 		.4byte	.LCFI16
 8544 09f5 0200     		.2byte	0x2
 8545 09f7 7D       		.byte	0x7d
 8546 09f8 00       		.sleb128 0
 8547 09f9 02000000 		.4byte	.LCFI16
 8548 09fd 1A000000 		.4byte	.LFE79
 8549 0a01 0200     		.2byte	0x2
 8550 0a03 7D       		.byte	0x7d
 8551 0a04 10       		.sleb128 16
 8552 0a05 00000000 		.4byte	0
 8553 0a09 00000000 		.4byte	0
 8554              	.LLST75:
 8555 0a0d 00000000 		.4byte	.LVL122
 8556 0a11 06000000 		.4byte	.LVL124
 8557 0a15 0100     		.2byte	0x1
 8558 0a17 50       		.byte	0x50
 8559 0a18 06000000 		.4byte	.LVL124
 8560 0a1c 1A000000 		.4byte	.LFE79
 8561 0a20 0100     		.2byte	0x1
 8562 0a22 55       		.byte	0x55
 8563 0a23 00000000 		.4byte	0
 8564 0a27 00000000 		.4byte	0
 8565              	.LLST76:
 8566 0a2b 04000000 		.4byte	.LVL123
 8567 0a2f 06000000 		.4byte	.LVL124
 8568 0a33 0100     		.2byte	0x1
 8569 0a35 50       		.byte	0x50
 8570 0a36 06000000 		.4byte	.LVL124
 8571 0a3a 1A000000 		.4byte	.LFE79
 8572 0a3e 0100     		.2byte	0x1
 8573 0a40 55       		.byte	0x55
 8574 0a41 00000000 		.4byte	0
 8575 0a45 00000000 		.4byte	0
 8576              	.LLST78:
 8577 0a49 04000000 		.4byte	.LVL123
 8578 0a4d 06000000 		.4byte	.LVL124
 8579 0a51 0200     		.2byte	0x2
 8580 0a53 30       		.byte	0x30
 8581 0a54 9F       		.byte	0x9f
 8582 0a55 14000000 		.4byte	.LVL125
 8583 0a59 1A000000 		.4byte	.LFE79
 8584 0a5d 0100     		.2byte	0x1
 8585 0a5f 54       		.byte	0x54
 8586 0a60 00000000 		.4byte	0
 8587 0a64 00000000 		.4byte	0
ARM GAS  C:\Users\CHUCK~1.ERH\AppData\Local\Temp\ccby6rnL.s 			page 183


 8588              	.LLST79:
 8589 0a68 00000000 		.4byte	.LFB80
 8590 0a6c 02000000 		.4byte	.LCFI17
 8591 0a70 0200     		.2byte	0x2
 8592 0a72 7D       		.byte	0x7d
 8593 0a73 00       		.sleb128 0
 8594 0a74 02000000 		.4byte	.LCFI17
 8595 0a78 1A000000 		.4byte	.LFE80
 8596 0a7c 0200     		.2byte	0x2
 8597 0a7e 7D       		.byte	0x7d
 8598 0a7f 10       		.sleb128 16
 8599 0a80 00000000 		.4byte	0
 8600 0a84 00000000 		.4byte	0
 8601              	.LLST80:
 8602 0a88 00000000 		.4byte	.LVL126
 8603 0a8c 06000000 		.4byte	.LVL128
 8604 0a90 0100     		.2byte	0x1
 8605 0a92 50       		.byte	0x50
 8606 0a93 06000000 		.4byte	.LVL128
 8607 0a97 1A000000 		.4byte	.LFE80
 8608 0a9b 0100     		.2byte	0x1
 8609 0a9d 55       		.byte	0x55
 8610 0a9e 00000000 		.4byte	0
 8611 0aa2 00000000 		.4byte	0
 8612              	.LLST81:
 8613 0aa6 04000000 		.4byte	.LVL127
 8614 0aaa 06000000 		.4byte	.LVL128
 8615 0aae 0100     		.2byte	0x1
 8616 0ab0 50       		.byte	0x50
 8617 0ab1 06000000 		.4byte	.LVL128
 8618 0ab5 1A000000 		.4byte	.LFE80
 8619 0ab9 0100     		.2byte	0x1
 8620 0abb 55       		.byte	0x55
 8621 0abc 00000000 		.4byte	0
 8622 0ac0 00000000 		.4byte	0
 8623              	.LLST83:
 8624 0ac4 04000000 		.4byte	.LVL127
 8625 0ac8 06000000 		.4byte	.LVL128
 8626 0acc 0200     		.2byte	0x2
 8627 0ace 30       		.byte	0x30
 8628 0acf 9F       		.byte	0x9f
 8629 0ad0 14000000 		.4byte	.LVL130
 8630 0ad4 1A000000 		.4byte	.LFE80
 8631 0ad8 0100     		.2byte	0x1
 8632 0ada 54       		.byte	0x54
 8633 0adb 00000000 		.4byte	0
 8634 0adf 00000000 		.4byte	0
 8635              	.LLST84:
 8636 0ae3 00000000 		.4byte	.LFB81
 8637 0ae7 02000000 		.4byte	.LCFI18
 8638 0aeb 0200     		.2byte	0x2
 8639 0aed 7D       		.byte	0x7d
 8640 0aee 00       		.sleb128 0
 8641 0aef 02000000 		.4byte	.LCFI18
 8642 0af3 70000000 		.4byte	.LFE81
 8643 0af7 0200     		.2byte	0x2
 8644 0af9 7D       		.byte	0x7d
ARM GAS  C:\Users\CHUCK~1.ERH\AppData\Local\Temp\ccby6rnL.s 			page 184


 8645 0afa 18       		.sleb128 24
 8646 0afb 00000000 		.4byte	0
 8647 0aff 00000000 		.4byte	0
 8648              	.LLST85:
 8649 0b03 00000000 		.4byte	.LVL131
 8650 0b07 0A000000 		.4byte	.LVL132
 8651 0b0b 0100     		.2byte	0x1
 8652 0b0d 50       		.byte	0x50
 8653 0b0e 0A000000 		.4byte	.LVL132
 8654 0b12 70000000 		.4byte	.LFE81
 8655 0b16 0400     		.2byte	0x4
 8656 0b18 F3       		.byte	0xf3
 8657 0b19 01       		.uleb128 0x1
 8658 0b1a 50       		.byte	0x50
 8659 0b1b 9F       		.byte	0x9f
 8660 0b1c 00000000 		.4byte	0
 8661 0b20 00000000 		.4byte	0
 8662              	.LLST86:
 8663 0b24 00000000 		.4byte	.LVL131
 8664 0b28 49000000 		.4byte	.LVL137-1
 8665 0b2c 0100     		.2byte	0x1
 8666 0b2e 51       		.byte	0x51
 8667 0b2f 49000000 		.4byte	.LVL137-1
 8668 0b33 70000000 		.4byte	.LFE81
 8669 0b37 0400     		.2byte	0x4
 8670 0b39 F3       		.byte	0xf3
 8671 0b3a 01       		.uleb128 0x1
 8672 0b3b 51       		.byte	0x51
 8673 0b3c 9F       		.byte	0x9f
 8674 0b3d 00000000 		.4byte	0
 8675 0b41 00000000 		.4byte	0
 8676              	.LLST87:
 8677 0b45 00000000 		.4byte	.LVL131
 8678 0b49 0A000000 		.4byte	.LVL132
 8679 0b4d 0100     		.2byte	0x1
 8680 0b4f 52       		.byte	0x52
 8681 0b50 0A000000 		.4byte	.LVL132
 8682 0b54 70000000 		.4byte	.LFE81
 8683 0b58 0400     		.2byte	0x4
 8684 0b5a F3       		.byte	0xf3
 8685 0b5b 01       		.uleb128 0x1
 8686 0b5c 52       		.byte	0x52
 8687 0b5d 9F       		.byte	0x9f
 8688 0b5e 00000000 		.4byte	0
 8689 0b62 00000000 		.4byte	0
 8690              	.LLST88:
 8691 0b66 00000000 		.4byte	.LVL131
 8692 0b6a 0A000000 		.4byte	.LVL132
 8693 0b6e 0300     		.2byte	0x3
 8694 0b70 09       		.byte	0x9
 8695 0b71 FF       		.byte	0xff
 8696 0b72 9F       		.byte	0x9f
 8697 0b73 20000000 		.4byte	.LVL133
 8698 0b77 70000000 		.4byte	.LFE81
 8699 0b7b 0100     		.2byte	0x1
 8700 0b7d 54       		.byte	0x54
 8701 0b7e 00000000 		.4byte	0
ARM GAS  C:\Users\CHUCK~1.ERH\AppData\Local\Temp\ccby6rnL.s 			page 185


 8702 0b82 00000000 		.4byte	0
 8703              	.LLST89:
 8704 0b86 00000000 		.4byte	.LVL131
 8705 0b8a 0A000000 		.4byte	.LVL132
 8706 0b8e 0200     		.2byte	0x2
 8707 0b90 30       		.byte	0x30
 8708 0b91 9F       		.byte	0x9f
 8709 0b92 22000000 		.4byte	.LVL134
 8710 0b96 34000000 		.4byte	.LVL135
 8711 0b9a 0100     		.2byte	0x1
 8712 0b9c 53       		.byte	0x53
 8713 0b9d 00000000 		.4byte	0
 8714 0ba1 00000000 		.4byte	0
 8715              	.LLST90:
 8716 0ba5 38000000 		.4byte	.LVL136
 8717 0ba9 49000000 		.4byte	.LVL137-1
 8718 0bad 0100     		.2byte	0x1
 8719 0baf 51       		.byte	0x51
 8720 0bb0 00000000 		.4byte	0
 8721 0bb4 00000000 		.4byte	0
 8722              	.LLST91:
 8723 0bb8 38000000 		.4byte	.LVL136
 8724 0bbc 62000000 		.4byte	.LVL139
 8725 0bc0 0100     		.2byte	0x1
 8726 0bc2 54       		.byte	0x54
 8727 0bc3 00000000 		.4byte	0
 8728 0bc7 00000000 		.4byte	0
 8729              	.LLST92:
 8730 0bcb 4A000000 		.4byte	.LVL137
 8731 0bcf 62000000 		.4byte	.LVL139
 8732 0bd3 0600     		.2byte	0x6
 8733 0bd5 76       		.byte	0x76
 8734 0bd6 00       		.sleb128 0
 8735 0bd7 75       		.byte	0x75
 8736 0bd8 00       		.sleb128 0
 8737 0bd9 21       		.byte	0x21
 8738 0bda 9F       		.byte	0x9f
 8739 0bdb 00000000 		.4byte	0
 8740 0bdf 00000000 		.4byte	0
 8741              	.LLST93:
 8742 0be3 4A000000 		.4byte	.LVL137
 8743 0be7 62000000 		.4byte	.LVL139
 8744 0beb 0100     		.2byte	0x1
 8745 0bed 54       		.byte	0x54
 8746 0bee 00000000 		.4byte	0
 8747 0bf2 00000000 		.4byte	0
 8748              	.LLST94:
 8749 0bf6 00000000 		.4byte	.LFB82
 8750 0bfa 04000000 		.4byte	.LCFI19
 8751 0bfe 0200     		.2byte	0x2
 8752 0c00 7D       		.byte	0x7d
 8753 0c01 00       		.sleb128 0
 8754 0c02 04000000 		.4byte	.LCFI19
 8755 0c06 34000000 		.4byte	.LFE82
 8756 0c0a 0200     		.2byte	0x2
 8757 0c0c 7D       		.byte	0x7d
 8758 0c0d 08       		.sleb128 8
ARM GAS  C:\Users\CHUCK~1.ERH\AppData\Local\Temp\ccby6rnL.s 			page 186


 8759 0c0e 00000000 		.4byte	0
 8760 0c12 00000000 		.4byte	0
 8761              	.LLST95:
 8762 0c16 00000000 		.4byte	.LVL140
 8763 0c1a 1B000000 		.4byte	.LVL142-1
 8764 0c1e 0100     		.2byte	0x1
 8765 0c20 50       		.byte	0x50
 8766 0c21 1B000000 		.4byte	.LVL142-1
 8767 0c25 2E000000 		.4byte	.LVL143
 8768 0c29 0400     		.2byte	0x4
 8769 0c2b F3       		.byte	0xf3
 8770 0c2c 01       		.uleb128 0x1
 8771 0c2d 50       		.byte	0x50
 8772 0c2e 9F       		.byte	0x9f
 8773 0c2f 2E000000 		.4byte	.LVL143
 8774 0c33 34000000 		.4byte	.LFE82
 8775 0c37 0100     		.2byte	0x1
 8776 0c39 50       		.byte	0x50
 8777 0c3a 00000000 		.4byte	0
 8778 0c3e 00000000 		.4byte	0
 8779              	.LLST96:
 8780 0c42 08000000 		.4byte	.LVL141
 8781 0c46 1B000000 		.4byte	.LVL142-1
 8782 0c4a 0100     		.2byte	0x1
 8783 0c4c 50       		.byte	0x50
 8784 0c4d 1B000000 		.4byte	.LVL142-1
 8785 0c51 2E000000 		.4byte	.LVL143
 8786 0c55 0100     		.2byte	0x1
 8787 0c57 54       		.byte	0x54
 8788 0c58 00000000 		.4byte	0
 8789 0c5c 00000000 		.4byte	0
 8790              	.LLST97:
 8791 0c60 1C000000 		.4byte	.LVL142
 8792 0c64 2E000000 		.4byte	.LVL143
 8793 0c68 0300     		.2byte	0x3
 8794 0c6a 09       		.byte	0x9
 8795 0c6b FF       		.byte	0xff
 8796 0c6c 9F       		.byte	0x9f
 8797 0c6d 00000000 		.4byte	0
 8798 0c71 00000000 		.4byte	0
 8799              	.LLST98:
 8800 0c75 1C000000 		.4byte	.LVL142
 8801 0c79 2E000000 		.4byte	.LVL143
 8802 0c7d 0100     		.2byte	0x1
 8803 0c7f 54       		.byte	0x54
 8804 0c80 00000000 		.4byte	0
 8805 0c84 00000000 		.4byte	0
 8806              	.LLST99:
 8807 0c88 00000000 		.4byte	.LFB74
 8808 0c8c 02000000 		.4byte	.LCFI20
 8809 0c90 0200     		.2byte	0x2
 8810 0c92 7D       		.byte	0x7d
 8811 0c93 00       		.sleb128 0
 8812 0c94 02000000 		.4byte	.LCFI20
 8813 0c98 90000000 		.4byte	.LFE74
 8814 0c9c 0200     		.2byte	0x2
 8815 0c9e 7D       		.byte	0x7d
ARM GAS  C:\Users\CHUCK~1.ERH\AppData\Local\Temp\ccby6rnL.s 			page 187


 8816 0c9f 18       		.sleb128 24
 8817 0ca0 00000000 		.4byte	0
 8818 0ca4 00000000 		.4byte	0
 8819              	.LLST100:
 8820 0ca8 00000000 		.4byte	.LVL144
 8821 0cac 06000000 		.4byte	.LVL145
 8822 0cb0 0100     		.2byte	0x1
 8823 0cb2 50       		.byte	0x50
 8824 0cb3 06000000 		.4byte	.LVL145
 8825 0cb7 90000000 		.4byte	.LFE74
 8826 0cbb 0100     		.2byte	0x1
 8827 0cbd 56       		.byte	0x56
 8828 0cbe 00000000 		.4byte	0
 8829 0cc2 00000000 		.4byte	0
 8830              	.LLST101:
 8831 0cc6 00000000 		.4byte	.LVL144
 8832 0cca 0F000000 		.4byte	.LVL146-1
 8833 0cce 0100     		.2byte	0x1
 8834 0cd0 51       		.byte	0x51
 8835 0cd1 0F000000 		.4byte	.LVL146-1
 8836 0cd5 90000000 		.4byte	.LFE74
 8837 0cd9 0100     		.2byte	0x1
 8838 0cdb 55       		.byte	0x55
 8839 0cdc 00000000 		.4byte	0
 8840 0ce0 00000000 		.4byte	0
 8841              	.LLST102:
 8842 0ce4 00000000 		.4byte	.LVL144
 8843 0ce8 0F000000 		.4byte	.LVL146-1
 8844 0cec 0100     		.2byte	0x1
 8845 0cee 52       		.byte	0x52
 8846 0cef 0F000000 		.4byte	.LVL146-1
 8847 0cf3 5C000000 		.4byte	.LVL158
 8848 0cf7 0100     		.2byte	0x1
 8849 0cf9 54       		.byte	0x54
 8850 0cfa 5C000000 		.4byte	.LVL158
 8851 0cfe 90000000 		.4byte	.LFE74
 8852 0d02 0400     		.2byte	0x4
 8853 0d04 F3       		.byte	0xf3
 8854 0d05 01       		.uleb128 0x1
 8855 0d06 52       		.byte	0x52
 8856 0d07 9F       		.byte	0x9f
 8857 0d08 00000000 		.4byte	0
 8858 0d0c 00000000 		.4byte	0
 8859              	.LLST103:
 8860 0d10 00000000 		.4byte	.LVL144
 8861 0d14 0F000000 		.4byte	.LVL146-1
 8862 0d18 0100     		.2byte	0x1
 8863 0d1a 53       		.byte	0x53
 8864 0d1b 0F000000 		.4byte	.LVL146-1
 8865 0d1f 90000000 		.4byte	.LFE74
 8866 0d23 0100     		.2byte	0x1
 8867 0d25 57       		.byte	0x57
 8868 0d26 00000000 		.4byte	0
 8869 0d2a 00000000 		.4byte	0
 8870              	.LLST104:
 8871 0d2e 1E000000 		.4byte	.LVL148
 8872 0d32 24000000 		.4byte	.LVL149
ARM GAS  C:\Users\CHUCK~1.ERH\AppData\Local\Temp\ccby6rnL.s 			page 188


 8873 0d36 0200     		.2byte	0x2
 8874 0d38 30       		.byte	0x30
 8875 0d39 9F       		.byte	0x9f
 8876 0d3a 24000000 		.4byte	.LVL149
 8877 0d3e 2A000000 		.4byte	.LVL150
 8878 0d42 0200     		.2byte	0x2
 8879 0d44 31       		.byte	0x31
 8880 0d45 9F       		.byte	0x9f
 8881 0d46 2A000000 		.4byte	.LVL150
 8882 0d4a 30000000 		.4byte	.LVL151
 8883 0d4e 0200     		.2byte	0x2
 8884 0d50 32       		.byte	0x32
 8885 0d51 9F       		.byte	0x9f
 8886 0d52 30000000 		.4byte	.LVL151
 8887 0d56 36000000 		.4byte	.LVL152
 8888 0d5a 0200     		.2byte	0x2
 8889 0d5c 33       		.byte	0x33
 8890 0d5d 9F       		.byte	0x9f
 8891 0d5e 36000000 		.4byte	.LVL152
 8892 0d62 90000000 		.4byte	.LFE74
 8893 0d66 0200     		.2byte	0x2
 8894 0d68 34       		.byte	0x34
 8895 0d69 9F       		.byte	0x9f
 8896 0d6a 00000000 		.4byte	0
 8897 0d6e 00000000 		.4byte	0
 8898              	.LLST105:
 8899 0d72 4E000000 		.4byte	.LVL155
 8900 0d76 5C000000 		.4byte	.LVL158
 8901 0d7a 0100     		.2byte	0x1
 8902 0d7c 54       		.byte	0x54
 8903 0d7d 5C000000 		.4byte	.LVL158
 8904 0d81 90000000 		.4byte	.LFE74
 8905 0d85 0400     		.2byte	0x4
 8906 0d87 F3       		.byte	0xf3
 8907 0d88 01       		.uleb128 0x1
 8908 0d89 52       		.byte	0x52
 8909 0d8a 9F       		.byte	0x9f
 8910 0d8b 00000000 		.4byte	0
 8911 0d8f 00000000 		.4byte	0
 8912              	.LLST106:
 8913 0d93 5A000000 		.4byte	.LVL157
 8914 0d97 5C000000 		.4byte	.LVL158
 8915 0d9b 0200     		.2byte	0x2
 8916 0d9d 30       		.byte	0x30
 8917 0d9e 9F       		.byte	0x9f
 8918 0d9f 6A000000 		.4byte	.LVL159
 8919 0da3 90000000 		.4byte	.LFE74
 8920 0da7 0100     		.2byte	0x1
 8921 0da9 54       		.byte	0x54
 8922 0daa 00000000 		.4byte	0
 8923 0dae 00000000 		.4byte	0
 8924              	.LLST107:
 8925 0db2 00000000 		.4byte	.LFB75
 8926 0db6 02000000 		.4byte	.LCFI21
 8927 0dba 0200     		.2byte	0x2
 8928 0dbc 7D       		.byte	0x7d
 8929 0dbd 00       		.sleb128 0
ARM GAS  C:\Users\CHUCK~1.ERH\AppData\Local\Temp\ccby6rnL.s 			page 189


 8930 0dbe 02000000 		.4byte	.LCFI21
 8931 0dc2 4C000000 		.4byte	.LFE75
 8932 0dc6 0200     		.2byte	0x2
 8933 0dc8 7D       		.byte	0x7d
 8934 0dc9 10       		.sleb128 16
 8935 0dca 00000000 		.4byte	0
 8936 0dce 00000000 		.4byte	0
 8937              	.LLST108:
 8938 0dd2 1A000000 		.4byte	.LVL167
 8939 0dd6 1C000000 		.4byte	.LVL168
 8940 0dda 0100     		.2byte	0x1
 8941 0ddc 50       		.byte	0x50
 8942 0ddd 1C000000 		.4byte	.LVL168
 8943 0de1 4C000000 		.4byte	.LFE75
 8944 0de5 0100     		.2byte	0x1
 8945 0de7 55       		.byte	0x55
 8946 0de8 00000000 		.4byte	0
 8947 0dec 00000000 		.4byte	0
 8948              	.LLST109:
 8949 0df0 2A000000 		.4byte	.LVL173
 8950 0df4 2C000000 		.4byte	.LVL174
 8951 0df8 0100     		.2byte	0x1
 8952 0dfa 50       		.byte	0x50
 8953 0dfb 2C000000 		.4byte	.LVL174
 8954 0dff 37000000 		.4byte	.LVL175-1
 8955 0e03 0100     		.2byte	0x1
 8956 0e05 53       		.byte	0x53
 8957 0e06 00000000 		.4byte	0
 8958 0e0a 00000000 		.4byte	0
 8959              	.LLST110:
 8960 0e0e 22000000 		.4byte	.LVL170
 8961 0e12 24000000 		.4byte	.LVL171
 8962 0e16 0100     		.2byte	0x1
 8963 0e18 50       		.byte	0x50
 8964 0e19 24000000 		.4byte	.LVL171
 8965 0e1d 4C000000 		.4byte	.LFE75
 8966 0e21 0100     		.2byte	0x1
 8967 0e23 54       		.byte	0x54
 8968 0e24 00000000 		.4byte	0
 8969 0e28 00000000 		.4byte	0
 8970              	.LLST111:
 8971 0e2c 00000000 		.4byte	.LFB83
 8972 0e30 02000000 		.4byte	.LCFI22
 8973 0e34 0200     		.2byte	0x2
 8974 0e36 7D       		.byte	0x7d
 8975 0e37 00       		.sleb128 0
 8976 0e38 02000000 		.4byte	.LCFI22
 8977 0e3c 22000000 		.4byte	.LFE83
 8978 0e40 0200     		.2byte	0x2
 8979 0e42 7D       		.byte	0x7d
 8980 0e43 08       		.sleb128 8
 8981 0e44 00000000 		.4byte	0
 8982 0e48 00000000 		.4byte	0
 8983              	.LLST112:
 8984 0e4c 00000000 		.4byte	.LVL176
 8985 0e50 07000000 		.4byte	.LVL177-1
 8986 0e54 0100     		.2byte	0x1
ARM GAS  C:\Users\CHUCK~1.ERH\AppData\Local\Temp\ccby6rnL.s 			page 190


 8987 0e56 50       		.byte	0x50
 8988 0e57 07000000 		.4byte	.LVL177-1
 8989 0e5b 22000000 		.4byte	.LFE83
 8990 0e5f 0400     		.2byte	0x4
 8991 0e61 F3       		.byte	0xf3
 8992 0e62 01       		.uleb128 0x1
 8993 0e63 50       		.byte	0x50
 8994 0e64 9F       		.byte	0x9f
 8995 0e65 00000000 		.4byte	0
 8996 0e69 00000000 		.4byte	0
 8997              	.LLST113:
 8998 0e6d 08000000 		.4byte	.LVL177
 8999 0e71 0E000000 		.4byte	.LVL178
 9000 0e75 0100     		.2byte	0x1
 9001 0e77 50       		.byte	0x50
 9002 0e78 00000000 		.4byte	0
 9003 0e7c 00000000 		.4byte	0
 9004              	.LLST114:
 9005 0e80 00000000 		.4byte	.LFB84
 9006 0e84 02000000 		.4byte	.LCFI23
 9007 0e88 0200     		.2byte	0x2
 9008 0e8a 7D       		.byte	0x7d
 9009 0e8b 00       		.sleb128 0
 9010 0e8c 02000000 		.4byte	.LCFI23
 9011 0e90 10000000 		.4byte	.LFE84
 9012 0e94 0200     		.2byte	0x2
 9013 0e96 7D       		.byte	0x7d
 9014 0e97 08       		.sleb128 8
 9015 0e98 00000000 		.4byte	0
 9016 0e9c 00000000 		.4byte	0
 9017              	.LLST115:
 9018 0ea0 00000000 		.4byte	.LVL181
 9019 0ea4 05000000 		.4byte	.LVL182-1
 9020 0ea8 0100     		.2byte	0x1
 9021 0eaa 50       		.byte	0x50
 9022 0eab 05000000 		.4byte	.LVL182-1
 9023 0eaf 10000000 		.4byte	.LFE84
 9024 0eb3 0400     		.2byte	0x4
 9025 0eb5 F3       		.byte	0xf3
 9026 0eb6 01       		.uleb128 0x1
 9027 0eb7 50       		.byte	0x50
 9028 0eb8 9F       		.byte	0x9f
 9029 0eb9 00000000 		.4byte	0
 9030 0ebd 00000000 		.4byte	0
 9031              	.LLST116:
 9032 0ec1 00000000 		.4byte	.LVL183
 9033 0ec5 03000000 		.4byte	.LVL184-1
 9034 0ec9 0100     		.2byte	0x1
 9035 0ecb 50       		.byte	0x50
 9036 0ecc 03000000 		.4byte	.LVL184-1
 9037 0ed0 04000000 		.4byte	.LFE87
 9038 0ed4 0400     		.2byte	0x4
 9039 0ed6 F3       		.byte	0xf3
 9040 0ed7 01       		.uleb128 0x1
 9041 0ed8 50       		.byte	0x50
 9042 0ed9 9F       		.byte	0x9f
 9043 0eda 00000000 		.4byte	0
ARM GAS  C:\Users\CHUCK~1.ERH\AppData\Local\Temp\ccby6rnL.s 			page 191


 9044 0ede 00000000 		.4byte	0
 9045              	.LLST117:
 9046 0ee2 00000000 		.4byte	.LVL185
 9047 0ee6 06000000 		.4byte	.LVL186
 9048 0eea 0100     		.2byte	0x1
 9049 0eec 50       		.byte	0x50
 9050 0eed 06000000 		.4byte	.LVL186
 9051 0ef1 0A000000 		.4byte	.LFE88
 9052 0ef5 0400     		.2byte	0x4
 9053 0ef7 F3       		.byte	0xf3
 9054 0ef8 01       		.uleb128 0x1
 9055 0ef9 50       		.byte	0x50
 9056 0efa 9F       		.byte	0x9f
 9057 0efb 00000000 		.4byte	0
 9058 0eff 00000000 		.4byte	0
 9059              	.LLST118:
 9060 0f03 00000000 		.4byte	.LVL188
 9061 0f07 09000000 		.4byte	.LVL189-1
 9062 0f0b 0100     		.2byte	0x1
 9063 0f0d 50       		.byte	0x50
 9064 0f0e 09000000 		.4byte	.LVL189-1
 9065 0f12 0A000000 		.4byte	.LVL189
 9066 0f16 0400     		.2byte	0x4
 9067 0f18 F3       		.byte	0xf3
 9068 0f19 01       		.uleb128 0x1
 9069 0f1a 50       		.byte	0x50
 9070 0f1b 9F       		.byte	0x9f
 9071 0f1c 0A000000 		.4byte	.LVL189
 9072 0f20 0C000000 		.4byte	.LFE89
 9073 0f24 0100     		.2byte	0x1
 9074 0f26 50       		.byte	0x50
 9075 0f27 00000000 		.4byte	0
 9076 0f2b 00000000 		.4byte	0
 9077              	.LLST119:
 9078 0f2f 00000000 		.4byte	.LFB90
 9079 0f33 02000000 		.4byte	.LCFI24
 9080 0f37 0200     		.2byte	0x2
 9081 0f39 7D       		.byte	0x7d
 9082 0f3a 00       		.sleb128 0
 9083 0f3b 02000000 		.4byte	.LCFI24
 9084 0f3f 1A000000 		.4byte	.LFE90
 9085 0f43 0200     		.2byte	0x2
 9086 0f45 7D       		.byte	0x7d
 9087 0f46 08       		.sleb128 8
 9088 0f47 00000000 		.4byte	0
 9089 0f4b 00000000 		.4byte	0
 9090              	.LLST120:
 9091 0f4f 00000000 		.4byte	.LVL190
 9092 0f53 07000000 		.4byte	.LVL191-1
 9093 0f57 0100     		.2byte	0x1
 9094 0f59 50       		.byte	0x50
 9095 0f5a 07000000 		.4byte	.LVL191-1
 9096 0f5e 1A000000 		.4byte	.LFE90
 9097 0f62 0400     		.2byte	0x4
 9098 0f64 F3       		.byte	0xf3
 9099 0f65 01       		.uleb128 0x1
 9100 0f66 50       		.byte	0x50
ARM GAS  C:\Users\CHUCK~1.ERH\AppData\Local\Temp\ccby6rnL.s 			page 192


 9101 0f67 9F       		.byte	0x9f
 9102 0f68 00000000 		.4byte	0
 9103 0f6c 00000000 		.4byte	0
 9104              	.LLST121:
 9105 0f70 00000000 		.4byte	.LFB91
 9106 0f74 02000000 		.4byte	.LCFI25
 9107 0f78 0200     		.2byte	0x2
 9108 0f7a 7D       		.byte	0x7d
 9109 0f7b 00       		.sleb128 0
 9110 0f7c 02000000 		.4byte	.LCFI25
 9111 0f80 78000000 		.4byte	.LFE91
 9112 0f84 0200     		.2byte	0x2
 9113 0f86 7D       		.byte	0x7d
 9114 0f87 18       		.sleb128 24
 9115 0f88 00000000 		.4byte	0
 9116 0f8c 00000000 		.4byte	0
 9117              	.LLST122:
 9118 0f90 00000000 		.4byte	.LVL194
 9119 0f94 12000000 		.4byte	.LVL196
 9120 0f98 0100     		.2byte	0x1
 9121 0f9a 50       		.byte	0x50
 9122 0f9b 12000000 		.4byte	.LVL196
 9123 0f9f 72000000 		.4byte	.LVL208
 9124 0fa3 0400     		.2byte	0x4
 9125 0fa5 F3       		.byte	0xf3
 9126 0fa6 01       		.uleb128 0x1
 9127 0fa7 50       		.byte	0x50
 9128 0fa8 9F       		.byte	0x9f
 9129 0fa9 72000000 		.4byte	.LVL208
 9130 0fad 78000000 		.4byte	.LFE91
 9131 0fb1 0100     		.2byte	0x1
 9132 0fb3 50       		.byte	0x50
 9133 0fb4 00000000 		.4byte	0
 9134 0fb8 00000000 		.4byte	0
 9135              	.LLST123:
 9136 0fbc 00000000 		.4byte	.LVL194
 9137 0fc0 17000000 		.4byte	.LVL197-1
 9138 0fc4 0100     		.2byte	0x1
 9139 0fc6 51       		.byte	0x51
 9140 0fc7 17000000 		.4byte	.LVL197-1
 9141 0fcb 72000000 		.4byte	.LVL208
 9142 0fcf 0400     		.2byte	0x4
 9143 0fd1 F3       		.byte	0xf3
 9144 0fd2 01       		.uleb128 0x1
 9145 0fd3 51       		.byte	0x51
 9146 0fd4 9F       		.byte	0x9f
 9147 0fd5 72000000 		.4byte	.LVL208
 9148 0fd9 78000000 		.4byte	.LFE91
 9149 0fdd 0100     		.2byte	0x1
 9150 0fdf 51       		.byte	0x51
 9151 0fe0 00000000 		.4byte	0
 9152 0fe4 00000000 		.4byte	0
 9153              	.LLST124:
 9154 0fe8 00000000 		.4byte	.LVL194
 9155 0fec 17000000 		.4byte	.LVL197-1
 9156 0ff0 0100     		.2byte	0x1
 9157 0ff2 52       		.byte	0x52
ARM GAS  C:\Users\CHUCK~1.ERH\AppData\Local\Temp\ccby6rnL.s 			page 193


 9158 0ff3 17000000 		.4byte	.LVL197-1
 9159 0ff7 72000000 		.4byte	.LVL208
 9160 0ffb 0400     		.2byte	0x4
 9161 0ffd F3       		.byte	0xf3
 9162 0ffe 01       		.uleb128 0x1
 9163 0fff 52       		.byte	0x52
 9164 1000 9F       		.byte	0x9f
 9165 1001 72000000 		.4byte	.LVL208
 9166 1005 78000000 		.4byte	.LFE91
 9167 1009 0100     		.2byte	0x1
 9168 100b 52       		.byte	0x52
 9169 100c 00000000 		.4byte	0
 9170 1010 00000000 		.4byte	0
 9171              	.LLST125:
 9172 1014 36000000 		.4byte	.LVL200
 9173 1018 4C000000 		.4byte	.LVL202
 9174 101c 0100     		.2byte	0x1
 9175 101e 54       		.byte	0x54
 9176 101f 4C000000 		.4byte	.LVL202
 9177 1023 60000000 		.4byte	.LVL204
 9178 1027 0300     		.2byte	0x3
 9179 1029 74       		.byte	0x74
 9180 102a 01       		.sleb128 1
 9181 102b 9F       		.byte	0x9f
 9182 102c 60000000 		.4byte	.LVL204
 9183 1030 62000000 		.4byte	.LVL205
 9184 1034 0100     		.2byte	0x1
 9185 1036 54       		.byte	0x54
 9186 1037 62000000 		.4byte	.LVL205
 9187 103b 64000000 		.4byte	.LVL206
 9188 103f 0300     		.2byte	0x3
 9189 1041 74       		.byte	0x74
 9190 1042 01       		.sleb128 1
 9191 1043 9F       		.byte	0x9f
 9192 1044 66000000 		.4byte	.LVL207
 9193 1048 72000000 		.4byte	.LVL208
 9194 104c 0100     		.2byte	0x1
 9195 104e 54       		.byte	0x54
 9196 104f 00000000 		.4byte	0
 9197 1053 00000000 		.4byte	0
 9198              	.LLST126:
 9199 1057 0C000000 		.4byte	.LVL195
 9200 105b 12000000 		.4byte	.LVL196
 9201 105f 0100     		.2byte	0x1
 9202 1061 50       		.byte	0x50
 9203 1062 12000000 		.4byte	.LVL196
 9204 1066 72000000 		.4byte	.LVL208
 9205 106a 0100     		.2byte	0x1
 9206 106c 56       		.byte	0x56
 9207 106d 00000000 		.4byte	0
 9208 1071 00000000 		.4byte	0
 9209              	.LLST127:
 9210 1075 18000000 		.4byte	.LVL197
 9211 1079 36000000 		.4byte	.LVL200
 9212 107d 0100     		.2byte	0x1
 9213 107f 57       		.byte	0x57
 9214 1080 00000000 		.4byte	0
ARM GAS  C:\Users\CHUCK~1.ERH\AppData\Local\Temp\ccby6rnL.s 			page 194


 9215 1084 00000000 		.4byte	0
 9216              	.LLST128:
 9217 1088 18000000 		.4byte	.LVL197
 9218 108c 72000000 		.4byte	.LVL208
 9219 1090 0100     		.2byte	0x1
 9220 1092 56       		.byte	0x56
 9221 1093 00000000 		.4byte	0
 9222 1097 00000000 		.4byte	0
 9223              	.LLST129:
 9224 109b 24000000 		.4byte	.LVL198
 9225 109f 2D000000 		.4byte	.LVL199-1
 9226 10a3 0500     		.2byte	0x5
 9227 10a5 03       		.byte	0x3
 9228 10a6 00000000 		.4byte	ETH0_SubnetMask
 9229 10aa 00000000 		.4byte	0
 9230 10ae 00000000 		.4byte	0
 9231              	.LLST130:
 9232 10b2 66000000 		.4byte	.LVL207
 9233 10b6 72000000 		.4byte	.LVL208
 9234 10ba 0200     		.2byte	0x2
 9235 10bc 30       		.byte	0x30
 9236 10bd 9F       		.byte	0x9f
 9237 10be 00000000 		.4byte	0
 9238 10c2 00000000 		.4byte	0
 9239              	.LLST131:
 9240 10c6 00000000 		.4byte	.LVL209
 9241 10ca 03000000 		.4byte	.LVL210-1
 9242 10ce 0100     		.2byte	0x1
 9243 10d0 50       		.byte	0x50
 9244 10d1 03000000 		.4byte	.LVL210-1
 9245 10d5 04000000 		.4byte	.LFE92
 9246 10d9 0400     		.2byte	0x4
 9247 10db F3       		.byte	0xf3
 9248 10dc 01       		.uleb128 0x1
 9249 10dd 50       		.byte	0x50
 9250 10de 9F       		.byte	0x9f
 9251 10df 00000000 		.4byte	0
 9252 10e3 00000000 		.4byte	0
 9253              	.LLST132:
 9254 10e7 00000000 		.4byte	.LVL211
 9255 10eb 05000000 		.4byte	.LVL212-1
 9256 10ef 0100     		.2byte	0x1
 9257 10f1 50       		.byte	0x50
 9258 10f2 05000000 		.4byte	.LVL212-1
 9259 10f6 06000000 		.4byte	.LFE93
 9260 10fa 0400     		.2byte	0x4
 9261 10fc F3       		.byte	0xf3
 9262 10fd 01       		.uleb128 0x1
 9263 10fe 50       		.byte	0x50
 9264 10ff 9F       		.byte	0x9f
 9265 1100 00000000 		.4byte	0
 9266 1104 00000000 		.4byte	0
 9267              	.LLST133:
 9268 1108 00000000 		.4byte	.LFB94
 9269 110c 04000000 		.4byte	.LCFI26
 9270 1110 0200     		.2byte	0x2
 9271 1112 7D       		.byte	0x7d
ARM GAS  C:\Users\CHUCK~1.ERH\AppData\Local\Temp\ccby6rnL.s 			page 195


 9272 1113 00       		.sleb128 0
 9273 1114 04000000 		.4byte	.LCFI26
 9274 1118 7C000000 		.4byte	.LFE94
 9275 111c 0200     		.2byte	0x2
 9276 111e 7D       		.byte	0x7d
 9277 111f 20       		.sleb128 32
 9278 1120 00000000 		.4byte	0
 9279 1124 00000000 		.4byte	0
 9280              	.LLST134:
 9281 1128 00000000 		.4byte	.LVL213
 9282 112c 0D000000 		.4byte	.LVL215-1
 9283 1130 0100     		.2byte	0x1
 9284 1132 50       		.byte	0x50
 9285 1133 0D000000 		.4byte	.LVL215-1
 9286 1137 7C000000 		.4byte	.LFE94
 9287 113b 0400     		.2byte	0x4
 9288 113d F3       		.byte	0xf3
 9289 113e 01       		.uleb128 0x1
 9290 113f 50       		.byte	0x50
 9291 1140 9F       		.byte	0x9f
 9292 1141 00000000 		.4byte	0
 9293 1145 00000000 		.4byte	0
 9294              	.LLST135:
 9295 1149 00000000 		.4byte	.LVL213
 9296 114d 0D000000 		.4byte	.LVL215-1
 9297 1151 0100     		.2byte	0x1
 9298 1153 51       		.byte	0x51
 9299 1154 0D000000 		.4byte	.LVL215-1
 9300 1158 7C000000 		.4byte	.LFE94
 9301 115c 0100     		.2byte	0x1
 9302 115e 59       		.byte	0x59
 9303 115f 00000000 		.4byte	0
 9304 1163 00000000 		.4byte	0
 9305              	.LLST136:
 9306 1167 00000000 		.4byte	.LVL213
 9307 116b 0D000000 		.4byte	.LVL215-1
 9308 116f 0100     		.2byte	0x1
 9309 1171 52       		.byte	0x52
 9310 1172 0D000000 		.4byte	.LVL215-1
 9311 1176 7C000000 		.4byte	.LFE94
 9312 117a 0400     		.2byte	0x4
 9313 117c F3       		.byte	0xf3
 9314 117d 01       		.uleb128 0x1
 9315 117e 52       		.byte	0x52
 9316 117f 9F       		.byte	0x9f
 9317 1180 00000000 		.4byte	0
 9318 1184 00000000 		.4byte	0
 9319              	.LLST137:
 9320 1188 0A000000 		.4byte	.LVL214
 9321 118c 0D000000 		.4byte	.LVL215-1
 9322 1190 1700     		.2byte	0x17
 9323 1192 72       		.byte	0x72
 9324 1193 00       		.sleb128 0
 9325 1194 12       		.byte	0x12
 9326 1195 0A       		.byte	0xa
 9327 1196 FFFF     		.2byte	0xffff
 9328 1198 1A       		.byte	0x1a
ARM GAS  C:\Users\CHUCK~1.ERH\AppData\Local\Temp\ccby6rnL.s 			page 196


 9329 1199 0A       		.byte	0xa
 9330 119a 0008     		.2byte	0x800
 9331 119c 16       		.byte	0x16
 9332 119d 14       		.byte	0x14
 9333 119e 0A       		.byte	0xa
 9334 119f FFFF     		.2byte	0xffff
 9335 11a1 1A       		.byte	0x1a
 9336 11a2 2D       		.byte	0x2d
 9337 11a3 28       		.byte	0x28
 9338 11a4 0100     		.2byte	0x1
 9339 11a6 16       		.byte	0x16
 9340 11a7 13       		.byte	0x13
 9341 11a8 9F       		.byte	0x9f
 9342 11a9 0D000000 		.4byte	.LVL215-1
 9343 11ad 32000000 		.4byte	.LVL216
 9344 11b1 1700     		.2byte	0x17
 9345 11b3 74       		.byte	0x74
 9346 11b4 00       		.sleb128 0
 9347 11b5 12       		.byte	0x12
 9348 11b6 0A       		.byte	0xa
 9349 11b7 FFFF     		.2byte	0xffff
 9350 11b9 1A       		.byte	0x1a
 9351 11ba 0A       		.byte	0xa
 9352 11bb 0008     		.2byte	0x800
 9353 11bd 16       		.byte	0x16
 9354 11be 14       		.byte	0x14
 9355 11bf 0A       		.byte	0xa
 9356 11c0 FFFF     		.2byte	0xffff
 9357 11c2 1A       		.byte	0x1a
 9358 11c3 2D       		.byte	0x2d
 9359 11c4 28       		.byte	0x28
 9360 11c5 0100     		.2byte	0x1
 9361 11c7 16       		.byte	0x16
 9362 11c8 13       		.byte	0x13
 9363 11c9 9F       		.byte	0x9f
 9364 11ca 6E000000 		.4byte	.LVL227
 9365 11ce 70000000 		.4byte	.LVL228
 9366 11d2 1700     		.2byte	0x17
 9367 11d4 74       		.byte	0x74
 9368 11d5 00       		.sleb128 0
 9369 11d6 12       		.byte	0x12
 9370 11d7 0A       		.byte	0xa
 9371 11d8 FFFF     		.2byte	0xffff
 9372 11da 1A       		.byte	0x1a
 9373 11db 0A       		.byte	0xa
 9374 11dc 0008     		.2byte	0x800
 9375 11de 16       		.byte	0x16
 9376 11df 14       		.byte	0x14
 9377 11e0 0A       		.byte	0xa
 9378 11e1 FFFF     		.2byte	0xffff
 9379 11e3 1A       		.byte	0x1a
 9380 11e4 2D       		.byte	0x2d
 9381 11e5 28       		.byte	0x28
 9382 11e6 0100     		.2byte	0x1
 9383 11e8 16       		.byte	0x16
 9384 11e9 13       		.byte	0x13
 9385 11ea 9F       		.byte	0x9f
ARM GAS  C:\Users\CHUCK~1.ERH\AppData\Local\Temp\ccby6rnL.s 			page 197


 9386 11eb 70000000 		.4byte	.LVL228
 9387 11ef 7C000000 		.4byte	.LFE94
 9388 11f3 0100     		.2byte	0x1
 9389 11f5 54       		.byte	0x54
 9390 11f6 00000000 		.4byte	0
 9391 11fa 00000000 		.4byte	0
 9392              	.LLST138:
 9393 11fe 34000000 		.4byte	.LVL217
 9394 1202 3E000000 		.4byte	.LVL218
 9395 1206 0100     		.2byte	0x1
 9396 1208 56       		.byte	0x56
 9397 1209 5C000000 		.4byte	.LVL223
 9398 120d 6E000000 		.4byte	.LVL227
 9399 1211 0100     		.2byte	0x1
 9400 1213 56       		.byte	0x56
 9401 1214 00000000 		.4byte	0
 9402 1218 00000000 		.4byte	0
 9403              	.LLST139:
 9404 121c 0E000000 		.4byte	.LVL215
 9405 1220 3E000000 		.4byte	.LVL218
 9406 1224 0100     		.2byte	0x1
 9407 1226 50       		.byte	0x50
 9408 1227 5A000000 		.4byte	.LVL222
 9409 122b 5E000000 		.4byte	.LVL224
 9410 122f 0100     		.2byte	0x1
 9411 1231 50       		.byte	0x50
 9412 1232 6E000000 		.4byte	.LVL227
 9413 1236 70000000 		.4byte	.LVL228
 9414 123a 0100     		.2byte	0x1
 9415 123c 50       		.byte	0x50
 9416 123d 00000000 		.4byte	0
 9417 1241 00000000 		.4byte	0
 9418              	.LLST140:
 9419 1245 3E000000 		.4byte	.LVL218
 9420 1249 5C000000 		.4byte	.LVL223
 9421 124d 0100     		.2byte	0x1
 9422 124f 56       		.byte	0x56
 9423 1250 00000000 		.4byte	0
 9424 1254 00000000 		.4byte	0
 9425              	.LLST141:
 9426 1258 00000000 		.4byte	.LFB95
 9427 125c 02000000 		.4byte	.LCFI27
 9428 1260 0200     		.2byte	0x2
 9429 1262 7D       		.byte	0x7d
 9430 1263 00       		.sleb128 0
 9431 1264 02000000 		.4byte	.LCFI27
 9432 1268 3E000000 		.4byte	.LFE95
 9433 126c 0200     		.2byte	0x2
 9434 126e 7D       		.byte	0x7d
 9435 126f 10       		.sleb128 16
 9436 1270 00000000 		.4byte	0
 9437 1274 00000000 		.4byte	0
 9438              	.LLST142:
 9439 1278 00000000 		.4byte	.LVL229
 9440 127c 0B000000 		.4byte	.LVL230-1
 9441 1280 0100     		.2byte	0x1
 9442 1282 50       		.byte	0x50
ARM GAS  C:\Users\CHUCK~1.ERH\AppData\Local\Temp\ccby6rnL.s 			page 198


 9443 1283 0B000000 		.4byte	.LVL230-1
 9444 1287 3E000000 		.4byte	.LFE95
 9445 128b 0400     		.2byte	0x4
 9446 128d F3       		.byte	0xf3
 9447 128e 01       		.uleb128 0x1
 9448 128f 50       		.byte	0x50
 9449 1290 9F       		.byte	0x9f
 9450 1291 00000000 		.4byte	0
 9451 1295 00000000 		.4byte	0
 9452              	.LLST143:
 9453 1299 00000000 		.4byte	.LVL229
 9454 129d 0B000000 		.4byte	.LVL230-1
 9455 12a1 0100     		.2byte	0x1
 9456 12a3 51       		.byte	0x51
 9457 12a4 0B000000 		.4byte	.LVL230-1
 9458 12a8 3E000000 		.4byte	.LFE95
 9459 12ac 0100     		.2byte	0x1
 9460 12ae 56       		.byte	0x56
 9461 12af 00000000 		.4byte	0
 9462 12b3 00000000 		.4byte	0
 9463              	.LLST144:
 9464 12b7 00000000 		.4byte	.LVL229
 9465 12bb 0B000000 		.4byte	.LVL230-1
 9466 12bf 0100     		.2byte	0x1
 9467 12c1 52       		.byte	0x52
 9468 12c2 0B000000 		.4byte	.LVL230-1
 9469 12c6 3E000000 		.4byte	.LFE95
 9470 12ca 0400     		.2byte	0x4
 9471 12cc F3       		.byte	0xf3
 9472 12cd 01       		.uleb128 0x1
 9473 12ce 52       		.byte	0x52
 9474 12cf 9F       		.byte	0x9f
 9475 12d0 00000000 		.4byte	0
 9476 12d4 00000000 		.4byte	0
 9477              	.LLST145:
 9478 12d8 00000000 		.4byte	.LVL229
 9479 12dc 10000000 		.4byte	.LVL231
 9480 12e0 0200     		.2byte	0x2
 9481 12e2 30       		.byte	0x30
 9482 12e3 9F       		.byte	0x9f
 9483 12e4 14000000 		.4byte	.LVL232
 9484 12e8 1A000000 		.4byte	.LVL233
 9485 12ec 0200     		.2byte	0x2
 9486 12ee 30       		.byte	0x30
 9487 12ef 9F       		.byte	0x9f
 9488 12f0 1A000000 		.4byte	.LVL233
 9489 12f4 20000000 		.4byte	.LVL234
 9490 12f8 0100     		.2byte	0x1
 9491 12fa 50       		.byte	0x50
 9492 12fb 22000000 		.4byte	.LVL235
 9493 12ff 28000000 		.4byte	.LVL236
 9494 1303 0100     		.2byte	0x1
 9495 1305 50       		.byte	0x50
 9496 1306 28000000 		.4byte	.LVL236
 9497 130a 3E000000 		.4byte	.LFE95
 9498 130e 0100     		.2byte	0x1
 9499 1310 54       		.byte	0x54
ARM GAS  C:\Users\CHUCK~1.ERH\AppData\Local\Temp\ccby6rnL.s 			page 199


 9500 1311 00000000 		.4byte	0
 9501 1315 00000000 		.4byte	0
 9502              	.LLST146:
 9503 1319 00000000 		.4byte	.LFB96
 9504 131d 02000000 		.4byte	.LCFI28
 9505 1321 0200     		.2byte	0x2
 9506 1323 7D       		.byte	0x7d
 9507 1324 00       		.sleb128 0
 9508 1325 02000000 		.4byte	.LCFI28
 9509 1329 1A000000 		.4byte	.LFE96
 9510 132d 0200     		.2byte	0x2
 9511 132f 7D       		.byte	0x7d
 9512 1330 10       		.sleb128 16
 9513 1331 00000000 		.4byte	0
 9514 1335 00000000 		.4byte	0
 9515              	.LLST147:
 9516 1339 00000000 		.4byte	.LVL239
 9517 133d 06000000 		.4byte	.LVL240
 9518 1341 0100     		.2byte	0x1
 9519 1343 50       		.byte	0x50
 9520 1344 06000000 		.4byte	.LVL240
 9521 1348 1A000000 		.4byte	.LFE96
 9522 134c 0400     		.2byte	0x4
 9523 134e F3       		.byte	0xf3
 9524 134f 01       		.uleb128 0x1
 9525 1350 50       		.byte	0x50
 9526 1351 9F       		.byte	0x9f
 9527 1352 00000000 		.4byte	0
 9528 1356 00000000 		.4byte	0
 9529              	.LLST148:
 9530 135a 00000000 		.4byte	.LVL239
 9531 135e 0B000000 		.4byte	.LVL241-1
 9532 1362 0100     		.2byte	0x1
 9533 1364 51       		.byte	0x51
 9534 1365 0B000000 		.4byte	.LVL241-1
 9535 1369 1A000000 		.4byte	.LFE96
 9536 136d 0100     		.2byte	0x1
 9537 136f 54       		.byte	0x54
 9538 1370 00000000 		.4byte	0
 9539 1374 00000000 		.4byte	0
 9540              	.LLST149:
 9541 1378 00000000 		.4byte	.LVL243
 9542 137c 06000000 		.4byte	.LVL244
 9543 1380 0100     		.2byte	0x1
 9544 1382 50       		.byte	0x50
 9545 1383 06000000 		.4byte	.LVL244
 9546 1387 0A000000 		.4byte	.LFE97
 9547 138b 0400     		.2byte	0x4
 9548 138d F3       		.byte	0xf3
 9549 138e 01       		.uleb128 0x1
 9550 138f 50       		.byte	0x50
 9551 1390 9F       		.byte	0x9f
 9552 1391 00000000 		.4byte	0
 9553 1395 00000000 		.4byte	0
 9554              	.LLST150:
 9555 1399 00000000 		.4byte	.LFB98
 9556 139d 04000000 		.4byte	.LCFI29
ARM GAS  C:\Users\CHUCK~1.ERH\AppData\Local\Temp\ccby6rnL.s 			page 200


 9557 13a1 0200     		.2byte	0x2
 9558 13a3 7D       		.byte	0x7d
 9559 13a4 00       		.sleb128 0
 9560 13a5 04000000 		.4byte	.LCFI29
 9561 13a9 5C000000 		.4byte	.LFE98
 9562 13ad 0200     		.2byte	0x2
 9563 13af 7D       		.byte	0x7d
 9564 13b0 20       		.sleb128 32
 9565 13b1 00000000 		.4byte	0
 9566 13b5 00000000 		.4byte	0
 9567              	.LLST151:
 9568 13b9 00000000 		.4byte	.LVL246
 9569 13bd 0F000000 		.4byte	.LVL247-1
 9570 13c1 0100     		.2byte	0x1
 9571 13c3 50       		.byte	0x50
 9572 13c4 0F000000 		.4byte	.LVL247-1
 9573 13c8 5C000000 		.4byte	.LFE98
 9574 13cc 0400     		.2byte	0x4
 9575 13ce F3       		.byte	0xf3
 9576 13cf 01       		.uleb128 0x1
 9577 13d0 50       		.byte	0x50
 9578 13d1 9F       		.byte	0x9f
 9579 13d2 00000000 		.4byte	0
 9580 13d6 00000000 		.4byte	0
 9581              	.LLST152:
 9582 13da 00000000 		.4byte	.LVL246
 9583 13de 0F000000 		.4byte	.LVL247-1
 9584 13e2 0100     		.2byte	0x1
 9585 13e4 51       		.byte	0x51
 9586 13e5 0F000000 		.4byte	.LVL247-1
 9587 13e9 5C000000 		.4byte	.LFE98
 9588 13ed 0100     		.2byte	0x1
 9589 13ef 56       		.byte	0x56
 9590 13f0 00000000 		.4byte	0
 9591 13f4 00000000 		.4byte	0
 9592              	.LLST153:
 9593 13f8 00000000 		.4byte	.LVL246
 9594 13fc 0F000000 		.4byte	.LVL247-1
 9595 1400 0100     		.2byte	0x1
 9596 1402 52       		.byte	0x52
 9597 1403 0F000000 		.4byte	.LVL247-1
 9598 1407 5C000000 		.4byte	.LFE98
 9599 140b 0400     		.2byte	0x4
 9600 140d F3       		.byte	0xf3
 9601 140e 01       		.uleb128 0x1
 9602 140f 52       		.byte	0x52
 9603 1410 9F       		.byte	0x9f
 9604 1411 00000000 		.4byte	0
 9605 1415 00000000 		.4byte	0
 9606              	.LLST154:
 9607 1419 00000000 		.4byte	.LVL246
 9608 141d 0F000000 		.4byte	.LVL247-1
 9609 1421 0100     		.2byte	0x1
 9610 1423 53       		.byte	0x53
 9611 1424 0F000000 		.4byte	.LVL247-1
 9612 1428 5C000000 		.4byte	.LFE98
 9613 142c 0100     		.2byte	0x1
ARM GAS  C:\Users\CHUCK~1.ERH\AppData\Local\Temp\ccby6rnL.s 			page 201


 9614 142e 58       		.byte	0x58
 9615 142f 00000000 		.4byte	0
 9616 1433 00000000 		.4byte	0
 9617              	.LLST155:
 9618 1437 14000000 		.4byte	.LVL248
 9619 143b 56000000 		.4byte	.LVL255
 9620 143f 1900     		.2byte	0x19
 9621 1441 91       		.byte	0x91
 9622 1442 00       		.sleb128 0
 9623 1443 94       		.byte	0x94
 9624 1444 02       		.byte	0x2
 9625 1445 12       		.byte	0x12
 9626 1446 0A       		.byte	0xa
 9627 1447 FFFF     		.2byte	0xffff
 9628 1449 1A       		.byte	0x1a
 9629 144a 0A       		.byte	0xa
 9630 144b 0008     		.2byte	0x800
 9631 144d 16       		.byte	0x16
 9632 144e 14       		.byte	0x14
 9633 144f 0A       		.byte	0xa
 9634 1450 FFFF     		.2byte	0xffff
 9635 1452 1A       		.byte	0x1a
 9636 1453 2D       		.byte	0x2d
 9637 1454 28       		.byte	0x28
 9638 1455 0100     		.2byte	0x1
 9639 1457 16       		.byte	0x16
 9640 1458 13       		.byte	0x13
 9641 1459 9F       		.byte	0x9f
 9642 145a 56000000 		.4byte	.LVL255
 9643 145e 5C000000 		.4byte	.LFE98
 9644 1462 0100     		.2byte	0x1
 9645 1464 54       		.byte	0x54
 9646 1465 00000000 		.4byte	0
 9647 1469 00000000 		.4byte	0
 9648              	.LLST156:
 9649 146d 3A000000 		.4byte	.LVL250
 9650 1471 54000000 		.4byte	.LVL254
 9651 1475 0100     		.2byte	0x1
 9652 1477 56       		.byte	0x56
 9653 1478 00000000 		.4byte	0
 9654 147c 00000000 		.4byte	0
 9655              	.LLST157:
 9656 1480 3A000000 		.4byte	.LVL250
 9657 1484 54000000 		.4byte	.LVL254
 9658 1488 0100     		.2byte	0x1
 9659 148a 55       		.byte	0x55
 9660 148b 00000000 		.4byte	0
 9661 148f 00000000 		.4byte	0
 9662              	.LLST158:
 9663 1493 3A000000 		.4byte	.LVL250
 9664 1497 54000000 		.4byte	.LVL254
 9665 149b 0100     		.2byte	0x1
 9666 149d 59       		.byte	0x59
 9667 149e 00000000 		.4byte	0
 9668 14a2 00000000 		.4byte	0
 9669              	.LLST160:
 9670 14a6 00000000 		.4byte	.LFB99
ARM GAS  C:\Users\CHUCK~1.ERH\AppData\Local\Temp\ccby6rnL.s 			page 202


 9671 14aa 04000000 		.4byte	.LCFI30
 9672 14ae 0200     		.2byte	0x2
 9673 14b0 7D       		.byte	0x7d
 9674 14b1 00       		.sleb128 0
 9675 14b2 04000000 		.4byte	.LCFI30
 9676 14b6 9E000000 		.4byte	.LFE99
 9677 14ba 0200     		.2byte	0x2
 9678 14bc 7D       		.byte	0x7d
 9679 14bd 28       		.sleb128 40
 9680 14be 00000000 		.4byte	0
 9681 14c2 00000000 		.4byte	0
 9682              	.LLST161:
 9683 14c6 00000000 		.4byte	.LVL256
 9684 14ca 13000000 		.4byte	.LVL257-1
 9685 14ce 0100     		.2byte	0x1
 9686 14d0 50       		.byte	0x50
 9687 14d1 13000000 		.4byte	.LVL257-1
 9688 14d5 9E000000 		.4byte	.LFE99
 9689 14d9 0400     		.2byte	0x4
 9690 14db F3       		.byte	0xf3
 9691 14dc 01       		.uleb128 0x1
 9692 14dd 50       		.byte	0x50
 9693 14de 9F       		.byte	0x9f
 9694 14df 00000000 		.4byte	0
 9695 14e3 00000000 		.4byte	0
 9696              	.LLST162:
 9697 14e7 00000000 		.4byte	.LVL256
 9698 14eb 13000000 		.4byte	.LVL257-1
 9699 14ef 0100     		.2byte	0x1
 9700 14f1 51       		.byte	0x51
 9701 14f2 13000000 		.4byte	.LVL257-1
 9702 14f6 9E000000 		.4byte	.LFE99
 9703 14fa 0100     		.2byte	0x1
 9704 14fc 59       		.byte	0x59
 9705 14fd 00000000 		.4byte	0
 9706 1501 00000000 		.4byte	0
 9707              	.LLST163:
 9708 1505 00000000 		.4byte	.LVL256
 9709 1509 13000000 		.4byte	.LVL257-1
 9710 150d 0100     		.2byte	0x1
 9711 150f 52       		.byte	0x52
 9712 1510 13000000 		.4byte	.LVL257-1
 9713 1514 9E000000 		.4byte	.LFE99
 9714 1518 0100     		.2byte	0x1
 9715 151a 58       		.byte	0x58
 9716 151b 00000000 		.4byte	0
 9717 151f 00000000 		.4byte	0
 9718              	.LLST164:
 9719 1523 00000000 		.4byte	.LVL256
 9720 1527 13000000 		.4byte	.LVL257-1
 9721 152b 0100     		.2byte	0x1
 9722 152d 53       		.byte	0x53
 9723 152e 13000000 		.4byte	.LVL257-1
 9724 1532 9E000000 		.4byte	.LFE99
 9725 1536 0100     		.2byte	0x1
 9726 1538 57       		.byte	0x57
 9727 1539 00000000 		.4byte	0
ARM GAS  C:\Users\CHUCK~1.ERH\AppData\Local\Temp\ccby6rnL.s 			page 203


 9728 153d 00000000 		.4byte	0
 9729              	.LLST165:
 9730 1541 00000000 		.4byte	.LVL256
 9731 1545 18000000 		.4byte	.LVL258
 9732 1549 0200     		.2byte	0x2
 9733 154b 30       		.byte	0x30
 9734 154c 9F       		.byte	0x9f
 9735 154d 1C000000 		.4byte	.LVL259
 9736 1551 22000000 		.4byte	.LVL260
 9737 1555 0200     		.2byte	0x2
 9738 1557 30       		.byte	0x30
 9739 1558 9F       		.byte	0x9f
 9740 1559 22000000 		.4byte	.LVL260
 9741 155d 38000000 		.4byte	.LVL261
 9742 1561 0100     		.2byte	0x1
 9743 1563 50       		.byte	0x50
 9744 1564 94000000 		.4byte	.LVL265
 9745 1568 98000000 		.4byte	.LVL266
 9746 156c 0100     		.2byte	0x1
 9747 156e 55       		.byte	0x55
 9748 156f 9A000000 		.4byte	.LVL267
 9749 1573 9E000000 		.4byte	.LFE99
 9750 1577 0100     		.2byte	0x1
 9751 1579 50       		.byte	0x50
 9752 157a 00000000 		.4byte	0
 9753 157e 00000000 		.4byte	0
 9754              	.LLST166:
 9755 1582 7A000000 		.4byte	.LVL263
 9756 1586 9A000000 		.4byte	.LVL267
 9757 158a 0100     		.2byte	0x1
 9758 158c 55       		.byte	0x55
 9759 158d 00000000 		.4byte	0
 9760 1591 00000000 		.4byte	0
 9761              		.section	.debug_aranges,"",%progbits
 9762 0000 3C010000 		.4byte	0x13c
 9763 0004 0200     		.2byte	0x2
 9764 0006 00000000 		.4byte	.Ldebug_info0
 9765 000a 04       		.byte	0x4
 9766 000b 00       		.byte	0
 9767 000c 0000     		.2byte	0
 9768 000e 0000     		.2byte	0
 9769 0010 00000000 		.4byte	.LFB1
 9770 0014 2C000000 		.4byte	.LFE1-.LFB1
 9771 0018 00000000 		.4byte	.LFB7
 9772 001c 1A000000 		.4byte	.LFE7-.LFB7
 9773 0020 00000000 		.4byte	.LFB5
 9774 0024 1C000000 		.4byte	.LFE5-.LFB5
 9775 0028 00000000 		.4byte	.LFB9
 9776 002c 1E000000 		.4byte	.LFE9-.LFB9
 9777 0030 00000000 		.4byte	.LFB2
 9778 0034 38000000 		.4byte	.LFE2-.LFB2
 9779 0038 00000000 		.4byte	.LFB44
 9780 003c 0C000000 		.4byte	.LFE44-.LFB44
 9781 0040 00000000 		.4byte	.LFB8
 9782 0044 1A000000 		.4byte	.LFE8-.LFB8
 9783 0048 00000000 		.4byte	.LFB108
 9784 004c 66000000 		.4byte	.LFE108-.LFB108
ARM GAS  C:\Users\CHUCK~1.ERH\AppData\Local\Temp\ccby6rnL.s 			page 204


 9785 0050 00000000 		.4byte	.LFB71
 9786 0054 26000000 		.4byte	.LFE71-.LFB71
 9787 0058 00000000 		.4byte	.LFB10
 9788 005c 1E000000 		.4byte	.LFE10-.LFB10
 9789 0060 00000000 		.4byte	.LFB109
 9790 0064 4E000000 		.4byte	.LFE109-.LFB109
 9791 0068 00000000 		.4byte	.LFB69
 9792 006c 2E000000 		.4byte	.LFE69-.LFB69
 9793 0070 00000000 		.4byte	.LFB85
 9794 0074 4C000000 		.4byte	.LFE85-.LFB85
 9795 0078 00000000 		.4byte	.LFB76
 9796 007c 9E000000 		.4byte	.LFE76-.LFB76
 9797 0080 00000000 		.4byte	.LFB77
 9798 0084 18000000 		.4byte	.LFE77-.LFB77
 9799 0088 00000000 		.4byte	.LFB78
 9800 008c 1E000000 		.4byte	.LFE78-.LFB78
 9801 0090 00000000 		.4byte	.LFB79
 9802 0094 1A000000 		.4byte	.LFE79-.LFB79
 9803 0098 00000000 		.4byte	.LFB80
 9804 009c 1A000000 		.4byte	.LFE80-.LFB80
 9805 00a0 00000000 		.4byte	.LFB81
 9806 00a4 70000000 		.4byte	.LFE81-.LFB81
 9807 00a8 00000000 		.4byte	.LFB82
 9808 00ac 34000000 		.4byte	.LFE82-.LFB82
 9809 00b0 00000000 		.4byte	.LFB74
 9810 00b4 90000000 		.4byte	.LFE74-.LFB74
 9811 00b8 00000000 		.4byte	.LFB75
 9812 00bc 4C000000 		.4byte	.LFE75-.LFB75
 9813 00c0 00000000 		.4byte	.LFB83
 9814 00c4 22000000 		.4byte	.LFE83-.LFB83
 9815 00c8 00000000 		.4byte	.LFB84
 9816 00cc 10000000 		.4byte	.LFE84-.LFB84
 9817 00d0 00000000 		.4byte	.LFB87
 9818 00d4 04000000 		.4byte	.LFE87-.LFB87
 9819 00d8 00000000 		.4byte	.LFB88
 9820 00dc 0A000000 		.4byte	.LFE88-.LFB88
 9821 00e0 00000000 		.4byte	.LFB89
 9822 00e4 0C000000 		.4byte	.LFE89-.LFB89
 9823 00e8 00000000 		.4byte	.LFB90
 9824 00ec 1A000000 		.4byte	.LFE90-.LFB90
 9825 00f0 00000000 		.4byte	.LFB91
 9826 00f4 78000000 		.4byte	.LFE91-.LFB91
 9827 00f8 00000000 		.4byte	.LFB92
 9828 00fc 04000000 		.4byte	.LFE92-.LFB92
 9829 0100 00000000 		.4byte	.LFB93
 9830 0104 06000000 		.4byte	.LFE93-.LFB93
 9831 0108 00000000 		.4byte	.LFB94
 9832 010c 7C000000 		.4byte	.LFE94-.LFB94
 9833 0110 00000000 		.4byte	.LFB95
 9834 0114 3E000000 		.4byte	.LFE95-.LFB95
 9835 0118 00000000 		.4byte	.LFB96
 9836 011c 1A000000 		.4byte	.LFE96-.LFB96
 9837 0120 00000000 		.4byte	.LFB97
 9838 0124 0A000000 		.4byte	.LFE97-.LFB97
 9839 0128 00000000 		.4byte	.LFB98
 9840 012c 5C000000 		.4byte	.LFE98-.LFB98
 9841 0130 00000000 		.4byte	.LFB99
ARM GAS  C:\Users\CHUCK~1.ERH\AppData\Local\Temp\ccby6rnL.s 			page 205


 9842 0134 9E000000 		.4byte	.LFE99-.LFB99
 9843 0138 00000000 		.4byte	0
 9844 013c 00000000 		.4byte	0
 9845              		.section	.debug_ranges,"",%progbits
 9846              	.Ldebug_ranges0:
 9847 0000 04000000 		.4byte	.LBB10
 9848 0004 08000000 		.4byte	.LBE10
 9849 0008 0A000000 		.4byte	.LBB15
 9850 000c 12000000 		.4byte	.LBE15
 9851 0010 16000000 		.4byte	.LBB16
 9852 0014 1A000000 		.4byte	.LBE16
 9853 0018 32000000 		.4byte	.LBB17
 9854 001c 34000000 		.4byte	.LBE17
 9855 0020 00000000 		.4byte	0
 9856 0024 00000000 		.4byte	0
 9857 0028 5A000000 		.4byte	.LBB18
 9858 002c 5E000000 		.4byte	.LBE18
 9859 0030 62000000 		.4byte	.LBB21
 9860 0034 66000000 		.4byte	.LBE21
 9861 0038 00000000 		.4byte	0
 9862 003c 00000000 		.4byte	0
 9863 0040 00000000 		.4byte	.LBB26
 9864 0044 02000000 		.4byte	.LBE26
 9865 0048 04000000 		.4byte	.LBB29
 9866 004c 12000000 		.4byte	.LBE29
 9867 0050 00000000 		.4byte	0
 9868 0054 00000000 		.4byte	0
 9869 0058 04000000 		.4byte	.LBB36
 9870 005c 06000000 		.4byte	.LBE36
 9871 0060 08000000 		.4byte	.LBB40
 9872 0064 0E000000 		.4byte	.LBE40
 9873 0068 12000000 		.4byte	.LBB41
 9874 006c 16000000 		.4byte	.LBE41
 9875 0070 00000000 		.4byte	0
 9876 0074 00000000 		.4byte	0
 9877 0078 00000000 		.4byte	.LBB46
 9878 007c 02000000 		.4byte	.LBE46
 9879 0080 04000000 		.4byte	.LBB49
 9880 0084 14000000 		.4byte	.LBE49
 9881 0088 00000000 		.4byte	0
 9882 008c 00000000 		.4byte	0
 9883 0090 00000000 		.4byte	.LBB62
 9884 0094 02000000 		.4byte	.LBE62
 9885 0098 04000000 		.4byte	.LBB66
 9886 009c 06000000 		.4byte	.LBE66
 9887 00a0 08000000 		.4byte	.LBB67
 9888 00a4 0E000000 		.4byte	.LBE67
 9889 00a8 00000000 		.4byte	0
 9890 00ac 00000000 		.4byte	0
 9891 00b0 3A000000 		.4byte	.LBB74
 9892 00b4 3E000000 		.4byte	.LBE74
 9893 00b8 42000000 		.4byte	.LBB77
 9894 00bc 4C000000 		.4byte	.LBE77
 9895 00c0 00000000 		.4byte	0
 9896 00c4 00000000 		.4byte	0
 9897 00c8 38000000 		.4byte	.LBB107
 9898 00cc 3E000000 		.4byte	.LBE107
ARM GAS  C:\Users\CHUCK~1.ERH\AppData\Local\Temp\ccby6rnL.s 			page 206


 9899 00d0 44000000 		.4byte	.LBB110
 9900 00d4 4A000000 		.4byte	.LBE110
 9901 00d8 00000000 		.4byte	0
 9902 00dc 00000000 		.4byte	0
 9903 00e0 08000000 		.4byte	.LBB117
 9904 00e4 26000000 		.4byte	.LBE117
 9905 00e8 2A000000 		.4byte	.LBB124
 9906 00ec 34000000 		.4byte	.LBE124
 9907 00f0 00000000 		.4byte	0
 9908 00f4 00000000 		.4byte	0
 9909 00f8 1C000000 		.4byte	.LBB119
 9910 00fc 26000000 		.4byte	.LBE119
 9911 0100 2A000000 		.4byte	.LBB122
 9912 0104 34000000 		.4byte	.LBE122
 9913 0108 00000000 		.4byte	0
 9914 010c 00000000 		.4byte	0
 9915 0110 7E000000 		.4byte	.LBB162
 9916 0114 82000000 		.4byte	.LBE162
 9917 0118 86000000 		.4byte	.LBB165
 9918 011c 90000000 		.4byte	.LBE165
 9919 0120 00000000 		.4byte	0
 9920 0124 00000000 		.4byte	0
 9921 0128 66000000 		.4byte	.LBB184
 9922 012c 6A000000 		.4byte	.LBE184
 9923 0130 6E000000 		.4byte	.LBB187
 9924 0134 78000000 		.4byte	.LBE187
 9925 0138 00000000 		.4byte	0
 9926 013c 00000000 		.4byte	0
 9927 0140 20000000 		.4byte	.LBB194
 9928 0144 28000000 		.4byte	.LBE194
 9929 0148 32000000 		.4byte	.LBB206
 9930 014c 34000000 		.4byte	.LBE206
 9931 0150 3E000000 		.4byte	.LBB207
 9932 0154 54000000 		.4byte	.LBE207
 9933 0158 00000000 		.4byte	0
 9934 015c 00000000 		.4byte	0
 9935 0160 20000000 		.4byte	.LBB195
 9936 0164 28000000 		.4byte	.LBE195
 9937 0168 32000000 		.4byte	.LBB204
 9938 016c 34000000 		.4byte	.LBE204
 9939 0170 3E000000 		.4byte	.LBB205
 9940 0174 54000000 		.4byte	.LBE205
 9941 0178 00000000 		.4byte	0
 9942 017c 00000000 		.4byte	0
 9943 0180 20000000 		.4byte	.LBB196
 9944 0184 28000000 		.4byte	.LBE196
 9945 0188 32000000 		.4byte	.LBB200
 9946 018c 34000000 		.4byte	.LBE200
 9947 0190 3E000000 		.4byte	.LBB201
 9948 0194 44000000 		.4byte	.LBE201
 9949 0198 00000000 		.4byte	0
 9950 019c 00000000 		.4byte	0
 9951 01a0 1A000000 		.4byte	.LBB212
 9952 01a4 1C000000 		.4byte	.LBE212
 9953 01a8 20000000 		.4byte	.LBB216
 9954 01ac 28000000 		.4byte	.LBE216
 9955 01b0 2C000000 		.4byte	.LBB220
ARM GAS  C:\Users\CHUCK~1.ERH\AppData\Local\Temp\ccby6rnL.s 			page 207


 9956 01b4 30000000 		.4byte	.LBE220
 9957 01b8 00000000 		.4byte	0
 9958 01bc 00000000 		.4byte	0
 9959 01c0 28000000 		.4byte	.LBB217
 9960 01c4 2C000000 		.4byte	.LBE217
 9961 01c8 3A000000 		.4byte	.LBB221
 9962 01cc 42000000 		.4byte	.LBE221
 9963 01d0 00000000 		.4byte	0
 9964 01d4 00000000 		.4byte	0
 9965 01d8 00000000 		.4byte	.LFB1
 9966 01dc 2C000000 		.4byte	.LFE1
 9967 01e0 00000000 		.4byte	.LFB7
 9968 01e4 1A000000 		.4byte	.LFE7
 9969 01e8 00000000 		.4byte	.LFB5
 9970 01ec 1C000000 		.4byte	.LFE5
 9971 01f0 00000000 		.4byte	.LFB9
 9972 01f4 1E000000 		.4byte	.LFE9
 9973 01f8 00000000 		.4byte	.LFB2
 9974 01fc 38000000 		.4byte	.LFE2
 9975 0200 00000000 		.4byte	.LFB44
 9976 0204 0C000000 		.4byte	.LFE44
 9977 0208 00000000 		.4byte	.LFB8
 9978 020c 1A000000 		.4byte	.LFE8
 9979 0210 00000000 		.4byte	.LFB108
 9980 0214 66000000 		.4byte	.LFE108
 9981 0218 00000000 		.4byte	.LFB71
 9982 021c 26000000 		.4byte	.LFE71
 9983 0220 00000000 		.4byte	.LFB10
 9984 0224 1E000000 		.4byte	.LFE10
 9985 0228 00000000 		.4byte	.LFB109
 9986 022c 4E000000 		.4byte	.LFE109
 9987 0230 00000000 		.4byte	.LFB69
 9988 0234 2E000000 		.4byte	.LFE69
 9989 0238 00000000 		.4byte	.LFB85
 9990 023c 4C000000 		.4byte	.LFE85
 9991 0240 00000000 		.4byte	.LFB76
 9992 0244 9E000000 		.4byte	.LFE76
 9993 0248 00000000 		.4byte	.LFB77
 9994 024c 18000000 		.4byte	.LFE77
 9995 0250 00000000 		.4byte	.LFB78
 9996 0254 1E000000 		.4byte	.LFE78
 9997 0258 00000000 		.4byte	.LFB79
 9998 025c 1A000000 		.4byte	.LFE79
 9999 0260 00000000 		.4byte	.LFB80
 10000 0264 1A000000 		.4byte	.LFE80
 10001 0268 00000000 		.4byte	.LFB81
 10002 026c 70000000 		.4byte	.LFE81
 10003 0270 00000000 		.4byte	.LFB82
 10004 0274 34000000 		.4byte	.LFE82
 10005 0278 00000000 		.4byte	.LFB74
 10006 027c 90000000 		.4byte	.LFE74
 10007 0280 00000000 		.4byte	.LFB75
 10008 0284 4C000000 		.4byte	.LFE75
 10009 0288 00000000 		.4byte	.LFB83
 10010 028c 22000000 		.4byte	.LFE83
 10011 0290 00000000 		.4byte	.LFB84
 10012 0294 10000000 		.4byte	.LFE84
ARM GAS  C:\Users\CHUCK~1.ERH\AppData\Local\Temp\ccby6rnL.s 			page 208


 10013 0298 00000000 		.4byte	.LFB87
 10014 029c 04000000 		.4byte	.LFE87
 10015 02a0 00000000 		.4byte	.LFB88
 10016 02a4 0A000000 		.4byte	.LFE88
 10017 02a8 00000000 		.4byte	.LFB89
 10018 02ac 0C000000 		.4byte	.LFE89
 10019 02b0 00000000 		.4byte	.LFB90
 10020 02b4 1A000000 		.4byte	.LFE90
 10021 02b8 00000000 		.4byte	.LFB91
 10022 02bc 78000000 		.4byte	.LFE91
 10023 02c0 00000000 		.4byte	.LFB92
 10024 02c4 04000000 		.4byte	.LFE92
 10025 02c8 00000000 		.4byte	.LFB93
 10026 02cc 06000000 		.4byte	.LFE93
 10027 02d0 00000000 		.4byte	.LFB94
 10028 02d4 7C000000 		.4byte	.LFE94
 10029 02d8 00000000 		.4byte	.LFB95
 10030 02dc 3E000000 		.4byte	.LFE95
 10031 02e0 00000000 		.4byte	.LFB96
 10032 02e4 1A000000 		.4byte	.LFE96
 10033 02e8 00000000 		.4byte	.LFB97
 10034 02ec 0A000000 		.4byte	.LFE97
 10035 02f0 00000000 		.4byte	.LFB98
 10036 02f4 5C000000 		.4byte	.LFE98
 10037 02f8 00000000 		.4byte	.LFB99
 10038 02fc 9E000000 		.4byte	.LFE99
 10039 0300 00000000 		.4byte	0
 10040 0304 00000000 		.4byte	0
 10041              		.section	.debug_line,"",%progbits
 10042              	.Ldebug_line0:
 10043 0000 3A070000 		.section	.debug_str,"MS",%progbits,1
 10043      02008A01 
 10043      00000201 
 10043      FB0E0D00 
 10043      01010101 
 10044              	.LASF44:
 10045 0000 636F756E 		.ascii	"count\000"
 10045      7400
 10046              	.LASF10:
 10047 0006 75696E74 		.ascii	"uint16\000"
 10047      313600
 10048              	.LASF54:
 10049 000d 45544830 		.ascii	"ETH0_W51_ReadBlock\000"
 10049      5F573531 
 10049      5F526561 
 10049      64426C6F 
 10049      636B00
 10050              	.LASF88:
 10051 0020 45544830 		.ascii	"ETH0_SocketProcessConnections\000"
 10051      5F536F63 
 10051      6B657450 
 10051      726F6365 
 10051      7373436F 
 10052              	.LASF90:
 10053 003e 45544830 		.ascii	"ETH0_SocketEstablished\000"
 10053      5F536F63 
 10053      6B657445 
ARM GAS  C:\Users\CHUCK~1.ERH\AppData\Local\Temp\ccby6rnL.s 			page 209


 10053      73746162 
 10053      6C697368 
 10054              	.LASF119:
 10055 0055 53504930 		.ascii	"SPI0_GetRxBufferSize\000"
 10055      5F476574 
 10055      52784275 
 10055      66666572 
 10055      53697A65 
 10056              	.LASF103:
 10057 006a 54785369 		.ascii	"TxSize\000"
 10057      7A6500
 10058              	.LASF16:
 10059 0071 73697A65 		.ascii	"size_t\000"
 10059      5F7400
 10060              	.LASF128:
 10061 0078 45544830 		.ascii	"ETH0_GetSourceIP\000"
 10061      5F476574 
 10061      536F7572 
 10061      63654950 
 10061      00
 10062              	.LASF22:
 10063 0089 736F636B 		.ascii	"socket\000"
 10063      657400
 10064              	.LASF31:
 10065 0090 45544830 		.ascii	"ETH0_SetRxMemSize\000"
 10065      5F536574 
 10065      52784D65 
 10065      6D53697A 
 10065      6500
 10066              	.LASF111:
 10067 00a2 5061636B 		.ascii	"PacketSize\000"
 10067      65745369 
 10067      7A6500
 10068              	.LASF43:
 10069 00ad 45544830 		.ascii	"ETH0_W51_WriteBlock\000"
 10069      5F573531 
 10069      5F577269 
 10069      7465426C 
 10069      6F636B00 
 10070              	.LASF92:
 10071 00c1 45544830 		.ascii	"ETH0_TcpOpen\000"
 10071      5F546370 
 10071      4F70656E 
 10071      00
 10072              	.LASF91:
 10073 00ce 45544830 		.ascii	"ETH0_SocketRxDataWaiting\000"
 10073      5F536F63 
 10073      6B657452 
 10073      78446174 
 10073      61576169 
 10074              	.LASF110:
 10075 00e7 45544830 		.ascii	"ETH0_UdpReceive\000"
 10075      5F556470 
 10075      52656365 
 10075      69766500 
 10076              	.LASF7:
 10077 00f7 6C6F6E67 		.ascii	"long long unsigned int\000"
ARM GAS  C:\Users\CHUCK~1.ERH\AppData\Local\Temp\ccby6rnL.s 			page 210


 10077      206C6F6E 
 10077      6720756E 
 10077      7369676E 
 10077      65642069 
 10078              	.LASF23:
 10079 010e 61646472 		.ascii	"addr\000"
 10079      00
 10080              	.LASF59:
 10081 0113 45544830 		.ascii	"ETH0_ExecuteSocketCommand\000"
 10081      5F457865 
 10081      63757465 
 10081      536F636B 
 10081      6574436F 
 10082              	.LASF17:
 10083 012d 50726F74 		.ascii	"Protocol\000"
 10083      6F636F6C 
 10083      00
 10084              	.LASF116:
 10085 0136 45544830 		.ascii	"ETH0_SocketClose\000"
 10085      5F536F63 
 10085      6B657443 
 10085      6C6F7365 
 10085      00
 10086              	.LASF86:
 10087 0147 67617465 		.ascii	"gateway\000"
 10087      77617900 
 10088              	.LASF56:
 10089 014f 45544830 		.ascii	"ETH0_SetSocketRxReadPtr\000"
 10089      5F536574 
 10089      536F636B 
 10089      65745278 
 10089      52656164 
 10090              	.LASF82:
 10091 0167 45544830 		.ascii	"ETH0_SocketOpen\000"
 10091      5F536F63 
 10091      6B65744F 
 10091      70656E00 
 10092              	.LASF6:
 10093 0177 6C6F6E67 		.ascii	"long long int\000"
 10093      206C6F6E 
 10093      6720696E 
 10093      7400
 10094              	.LASF0:
 10095 0185 7369676E 		.ascii	"signed char\000"
 10095      65642063 
 10095      68617200 
 10096              	.LASF19:
 10097 0191 536F7572 		.ascii	"SourcePort\000"
 10097      6365506F 
 10097      727400
 10098              	.LASF68:
 10099 019c 64696769 		.ascii	"digit\000"
 10099      7400
 10100              	.LASF49:
 10101 01a2 45544830 		.ascii	"ETH0_SetSocketTxWritePtr\000"
 10101      5F536574 
 10101      536F636B 
ARM GAS  C:\Users\CHUCK~1.ERH\AppData\Local\Temp\ccby6rnL.s 			page 211


 10101      65745478 
 10101      57726974 
 10102              	.LASF122:
 10103 01bb 53504930 		.ascii	"SPI0_ClearRxBuffer\000"
 10103      5F436C65 
 10103      61725278 
 10103      42756666 
 10103      657200
 10104              	.LASF53:
 10105 01ce 7365636F 		.ascii	"second\000"
 10105      6E6400
 10106              	.LASF107:
 10107 01d5 45544830 		.ascii	"ETH0_TcpPrint\000"
 10107      5F546370 
 10107      5072696E 
 10107      7400
 10108              	.LASF4:
 10109 01e3 6C6F6E67 		.ascii	"long int\000"
 10109      20696E74 
 10109      00
 10110              	.LASF70:
 10111 01ec 64696E64 		.ascii	"dindex\000"
 10111      657800
 10112              	.LASF65:
 10113 01f3 45544830 		.ascii	"ETH0_W51_Read\000"
 10113      5F573531 
 10113      5F526561 
 10113      6400
 10114              	.LASF9:
 10115 0201 75696E74 		.ascii	"uint8\000"
 10115      3800
 10116              	.LASF125:
 10117 0207 2E5C4765 		.ascii	".\\Generated_Source\\PSoC5\\ETH0.c\000"
 10117      6E657261 
 10117      7465645F 
 10117      536F7572 
 10117      63655C50 
 10118              	.LASF118:
 10119 0227 43794465 		.ascii	"CyDelayUs\000"
 10119      6C617955 
 10119      7300
 10120              	.LASF13:
 10121 0231 646F7562 		.ascii	"double\000"
 10121      6C6500
 10122              	.LASF129:
 10123 0238 53504930 		.ascii	"SPI0_initVar\000"
 10123      5F696E69 
 10123      74566172 
 10123      00
 10124              	.LASF11:
 10125 0245 75696E74 		.ascii	"uint32\000"
 10125      333200
 10126              	.LASF78:
 10127 024c 45544830 		.ascii	"ETH0_GetMAC\000"
 10127      5F476574 
 10127      4D414300 
 10128              	.LASF63:
ARM GAS  C:\Users\CHUCK~1.ERH\AppData\Local\Temp\ccby6rnL.s 			page 212


 10129 0258 45544830 		.ascii	"ETH0_SetSocketIR\000"
 10129      5F536574 
 10129      536F636B 
 10129      65744952 
 10129      00
 10130              	.LASF80:
 10131 0269 706F7274 		.ascii	"port\000"
 10131      00
 10132              	.LASF24:
 10133 026e 45544830 		.ascii	"ETH0_W51_SetMAC\000"
 10133      5F573531 
 10133      5F536574 
 10133      4D414300 
 10134              	.LASF8:
 10135 027e 756E7369 		.ascii	"unsigned int\000"
 10135      676E6564 
 10135      20696E74 
 10135      00
 10136              	.LASF130:
 10137 028b 7374726C 		.ascii	"strlen\000"
 10137      656E00
 10138              	.LASF41:
 10139 0292 45544830 		.ascii	"ETH0_W51_Write16\000"
 10139      5F573531 
 10139      5F577269 
 10139      74653136 
 10139      00
 10140              	.LASF42:
 10141 02a3 45544830 		.ascii	"ETH0_W51_SetIP\000"
 10141      5F573531 
 10141      5F536574 
 10141      495000
 10142              	.LASF33:
 10143 02b2 45544830 		.ascii	"ETH0_SetTxMemSize\000"
 10143      5F536574 
 10143      54784D65 
 10143      6D53697A 
 10143      6500
 10144              	.LASF5:
 10145 02c4 6C6F6E67 		.ascii	"long unsigned int\000"
 10145      20756E73 
 10145      69676E65 
 10145      6420696E 
 10145      7400
 10146              	.LASF77:
 10147 02d6 45544830 		.ascii	"ETH0_GetSourceMAC\000"
 10147      5F476574 
 10147      536F7572 
 10147      63654D41 
 10147      4300
 10148              	.LASF60:
 10149 02e8 74696D65 		.ascii	"timeout\000"
 10149      6F757400 
 10150              	.LASF66:
 10151 02f0 45544830 		.ascii	"ETH0_ParseIP\000"
 10151      5F506172 
 10151      73654950 
ARM GAS  C:\Users\CHUCK~1.ERH\AppData\Local\Temp\ccby6rnL.s 			page 213


 10151      00
 10152              	.LASF85:
 10153 02fd 7375626E 		.ascii	"subnet\000"
 10153      657400
 10154              	.LASF32:
 10155 0304 73697A65 		.ascii	"size\000"
 10155      00
 10156              	.LASF3:
 10157 0309 73686F72 		.ascii	"short unsigned int\000"
 10157      7420756E 
 10157      7369676E 
 10157      65642069 
 10157      6E7400
 10158              	.LASF55:
 10159 031c 45544830 		.ascii	"ETH0_GetSocketRxReadPtr\000"
 10159      5F476574 
 10159      536F636B 
 10159      65745278 
 10159      52656164 
 10160              	.LASF104:
 10161 0334 46726565 		.ascii	"FreeSpace\000"
 10161      53706163 
 10161      6500
 10162              	.LASF75:
 10163 033e 45544830 		.ascii	"ETH0_W51_Write\000"
 10163      5F573531 
 10163      5F577269 
 10163      746500
 10164              	.LASF109:
 10165 034d 45544830 		.ascii	"ETH0_UdpSend\000"
 10165      5F556470 
 10165      53656E64 
 10165      00
 10166              	.LASF21:
 10167 035a 45544830 		.ascii	"ETH0_SOCKET\000"
 10167      5F534F43 
 10167      4B455400 
 10168              	.LASF98:
 10169 0366 45544830 		.ascii	"ETH0_TcpConnected\000"
 10169      5F546370 
 10169      436F6E6E 
 10169      65637465 
 10169      6400
 10170              	.LASF127:
 10171 0378 45544830 		.ascii	"ETH0_W51_Select\000"
 10171      5F573531 
 10171      5F53656C 
 10171      65637400 
 10172              	.LASF38:
 10173 0388 506F696E 		.ascii	"PointerOffset\000"
 10173      7465724F 
 10173      66667365 
 10173      7400
 10174              	.LASF48:
 10175 0396 45544830 		.ascii	"ETH0_GetSocketTxWritePtr\000"
 10175      5F476574 
 10175      536F636B 
ARM GAS  C:\Users\CHUCK~1.ERH\AppData\Local\Temp\ccby6rnL.s 			page 214


 10175      65745478 
 10175      57726974 
 10176              	.LASF50:
 10177 03af 45544830 		.ascii	"ETH0_GetSocketRxSize\000"
 10177      5F476574 
 10177      536F636B 
 10177      65745278 
 10177      53697A65 
 10178              	.LASF37:
 10179 03c4 62617365 		.ascii	"base\000"
 10179      00
 10180              	.LASF115:
 10181 03c9 45544830 		.ascii	"ETH0_MAC\000"
 10181      5F4D4143 
 10181      00
 10182              	.LASF15:
 10183 03d2 73697A65 		.ascii	"sizetype\000"
 10183      74797065 
 10183      00
 10184              	.LASF106:
 10185 03db 52785369 		.ascii	"RxSize\000"
 10185      7A6500
 10186              	.LASF72:
 10187 03e2 45544830 		.ascii	"ETH0_SetIP\000"
 10187      5F536574 
 10187      495000
 10188              	.LASF30:
 10189 03ed 45544830 		.ascii	"ETH0_SetIR\000"
 10189      5F536574 
 10189      495200
 10190              	.LASF34:
 10191 03f8 45544830 		.ascii	"ETH0_ProcessTxData\000"
 10191      5F50726F 
 10191      63657373 
 10191      54784461 
 10191      746100
 10192              	.LASF18:
 10193 040b 536F636B 		.ascii	"SocketFlags\000"
 10193      6574466C 
 10193      61677300 
 10194              	.LASF83:
 10195 0417 45544830 		.ascii	"ETH0_SetGatewayAddress\000"
 10195      5F536574 
 10195      47617465 
 10195      77617941 
 10195      64647265 
 10196              	.LASF97:
 10197 042e 45544830 		.ascii	"ETH0_TcpConnect\000"
 10197      5F546370 
 10197      436F6E6E 
 10197      65637400 
 10198              	.LASF28:
 10199 043e 45544830 		.ascii	"ETH0_SetMode\000"
 10199      5F536574 
 10199      4D6F6465 
 10199      00
 10200              	.LASF81:
ARM GAS  C:\Users\CHUCK~1.ERH\AppData\Local\Temp\ccby6rnL.s 			page 215


 10201 044b 45544830 		.ascii	"ETH0_SetSocketMode\000"
 10201      5F536574 
 10201      536F636B 
 10201      65744D6F 
 10201      646500
 10202              	.LASF101:
 10203 045e 45544830 		.ascii	"ETH0_GetSocketTxFree\000"
 10203      5F476574 
 10203      536F636B 
 10203      65745478 
 10203      46726565 
 10204              	.LASF120:
 10205 0473 53504930 		.ascii	"SPI0_ReadRxData\000"
 10205      5F526561 
 10205      64527844 
 10205      61746100 
 10206              	.LASF12:
 10207 0483 666C6F61 		.ascii	"float\000"
 10207      7400
 10208              	.LASF123:
 10209 0489 53504930 		.ascii	"SPI0_Start\000"
 10209      5F537461 
 10209      727400
 10210              	.LASF57:
 10211 0494 45544830 		.ascii	"ETH0_SetSocketCommand\000"
 10211      5F536574 
 10211      536F636B 
 10211      6574436F 
 10211      6D6D616E 
 10212              	.LASF71:
 10213 04aa 45544830 		.ascii	"ETH0_SetSourceIP\000"
 10213      5F536574 
 10213      536F7572 
 10213      63654950 
 10213      00
 10214              	.LASF124:
 10215 04bb 474E5520 		.ascii	"GNU C 4.7.3 20130312 (release) [ARM/embedded-4_7-br"
 10215      4320342E 
 10215      372E3320 
 10215      32303133 
 10215      30333132 
 10216 04ee 616E6368 		.ascii	"anch revision 196615]\000"
 10216      20726576 
 10216      6973696F 
 10216      6E203139 
 10216      36363135 
 10217              	.LASF79:
 10218 0504 45544830 		.ascii	"ETH0_SetSocketSourcePort\000"
 10218      5F536574 
 10218      536F636B 
 10218      6574536F 
 10218      75726365 
 10219              	.LASF94:
 10220 051d 45544830 		.ascii	"ETH0_TcpStartServerWait\000"
 10220      5F546370 
 10220      53746172 
 10220      74536572 
ARM GAS  C:\Users\CHUCK~1.ERH\AppData\Local\Temp\ccby6rnL.s 			page 216


 10220      76657257 
 10221              	.LASF1:
 10222 0535 756E7369 		.ascii	"unsigned char\000"
 10222      676E6564 
 10222      20636861 
 10222      7200
 10223              	.LASF114:
 10224 0543 45544830 		.ascii	"ETH0_SubnetMask\000"
 10224      5F537562 
 10224      6E65744D 
 10224      61736B00 
 10225              	.LASF113:
 10226 0553 45544830 		.ascii	"ETH0_SocketConfig\000"
 10226      5F536F63 
 10226      6B657443 
 10226      6F6E6669 
 10226      6700
 10227              	.LASF2:
 10228 0565 73686F72 		.ascii	"short int\000"
 10228      7420696E 
 10228      7400
 10229              	.LASF69:
 10230 056f 636F756E 		.ascii	"counter\000"
 10230      74657200 
 10231              	.LASF62:
 10232 0577 45544830 		.ascii	"ETH0_GetSocketIR\000"
 10232      5F476574 
 10232      536F636B 
 10232      65744952 
 10232      00
 10233              	.LASF108:
 10234 0588 45544830 		.ascii	"ETH0_UdpOpen\000"
 10234      5F556470 
 10234      4F70656E 
 10234      00
 10235              	.LASF99:
 10236 0595 45544830 		.ascii	"ETH0_TcpDisconnect\000"
 10236      5F546370 
 10236      44697363 
 10236      6F6E6E65 
 10236      637400
 10237              	.LASF67:
 10238 05a8 69705374 		.ascii	"ipString\000"
 10238      72696E67 
 10238      00
 10239              	.LASF20:
 10240 05b1 53657276 		.ascii	"ServerFlag\000"
 10240      6572466C 
 10240      616700
 10241              	.LASF52:
 10242 05bc 66697273 		.ascii	"first\000"
 10242      7400
 10243              	.LASF93:
 10244 05c2 45544830 		.ascii	"ETH0_TcpStartServer\000"
 10244      5F546370 
 10244      53746172 
 10244      74536572 
ARM GAS  C:\Users\CHUCK~1.ERH\AppData\Local\Temp\ccby6rnL.s 			page 217


 10244      76657200 
 10245              	.LASF36:
 10246 05d6 6C656E67 		.ascii	"length\000"
 10246      746800
 10247              	.LASF14:
 10248 05dd 63686172 		.ascii	"char\000"
 10248      00
 10249              	.LASF87:
 10250 05e2 45544830 		.ascii	"ETH0_Start\000"
 10250      5F537461 
 10250      727400
 10251              	.LASF29:
 10252 05ed 6D6F6465 		.ascii	"mode\000"
 10252      00
 10253              	.LASF46:
 10254 05f2 45544830 		.ascii	"ETH0_W51_Read16\000"
 10254      5F573531 
 10254      5F526561 
 10254      64313600 
 10255              	.LASF26:
 10256 0602 696E6465 		.ascii	"index\000"
 10256      7800
 10257              	.LASF102:
 10258 0608 45544830 		.ascii	"ETH0_TcpSend\000"
 10258      5F546370 
 10258      53656E64 
 10258      00
 10259              	.LASF95:
 10260 0615 45544830 		.ascii	"ETH0_SetSocketDestIP\000"
 10260      5F536574 
 10260      536F636B 
 10260      65744465 
 10260      73744950 
 10261              	.LASF58:
 10262 062a 45544830 		.ascii	"ETH0_GetSocketCommand\000"
 10262      5F476574 
 10262      536F636B 
 10262      6574436F 
 10262      6D6D616E 
 10263              	.LASF27:
 10264 0640 62756666 		.ascii	"buffer\000"
 10264      657200
 10265              	.LASF47:
 10266 0647 45544830 		.ascii	"ETH0_W51_GetIP\000"
 10266      5F573531 
 10266      5F476574 
 10266      495000
 10267              	.LASF35:
 10268 0656 6F666673 		.ascii	"offset\000"
 10268      657400
 10269              	.LASF117:
 10270 065d 53504930 		.ascii	"SPI0_WriteTxData\000"
 10270      5F577269 
 10270      74655478 
 10270      44617461 
 10270      00
 10271              	.LASF112:
ARM GAS  C:\Users\CHUCK~1.ERH\AppData\Local\Temp\ccby6rnL.s 			page 218


 10272 066e 5061636B 		.ascii	"PacketHeader\000"
 10272      65744865 
 10272      61646572 
 10272      00
 10273              	.LASF74:
 10274 067b 45544830 		.ascii	"ETH0_SetSourceMAC\000"
 10274      5F536574 
 10274      536F7572 
 10274      63654D41 
 10274      4300
 10275              	.LASF121:
 10276 068d 43794465 		.ascii	"CyDelay\000"
 10276      6C617900 
 10277              	.LASF61:
 10278 0695 45544830 		.ascii	"ETH0_SetSubnetMask\000"
 10278      5F536574 
 10278      5375626E 
 10278      65744D61 
 10278      736B00
 10279              	.LASF64:
 10280 06a8 45544830 		.ascii	"ETH0_SocketSend\000"
 10280      5F536F63 
 10280      6B657453 
 10280      656E6400 
 10281              	.LASF51:
 10282 06b8 45544830 		.ascii	"ETH0_GetRxSize\000"
 10282      5F476574 
 10282      52785369 
 10282      7A6500
 10283              	.LASF89:
 10284 06c7 73746174 		.ascii	"status\000"
 10284      757300
 10285              	.LASF100:
 10286 06ce 45544830 		.ascii	"ETH0_GetTxFreeSize\000"
 10286      5F476574 
 10286      54784672 
 10286      65655369 
 10286      7A6500
 10287              	.LASF40:
 10288 06e1 666C6167 		.ascii	"flags\000"
 10288      7300
 10289              	.LASF45:
 10290 06e7 45544830 		.ascii	"ETH0_GetSocketStatus\000"
 10290      5F476574 
 10290      536F636B 
 10290      65745374 
 10290      61747573 
 10291              	.LASF84:
 10292 06fc 45544830 		.ascii	"ETH0_Init\000"
 10292      5F496E69 
 10292      7400
 10293              	.LASF105:
 10294 0706 45544830 		.ascii	"ETH0_TcpReceive\000"
 10294      5F546370 
 10294      52656365 
 10294      69766500 
 10295              	.LASF126:
ARM GAS  C:\Users\CHUCK~1.ERH\AppData\Local\Temp\ccby6rnL.s 			page 219


 10296 0716 433A5C55 		.ascii	"C:\\Users\\chuck.erhardt\\Documents\\GitHub\\PSoC-W"
 10296      73657273 
 10296      5C636875 
 10296      636B2E65 
 10296      72686172 
 10297 0744 35313030 		.ascii	"5100-Driver\\freeSoCExplorer+ArduinoSheld_Example.c"
 10297      2D447269 
 10297      7665725C 
 10297      66726565 
 10297      536F4345 
 10298 0776 7964736E 		.ascii	"ydsn\000"
 10298      00
 10299              	.LASF96:
 10300 077b 45544830 		.ascii	"ETH0_SetSocketDestPort\000"
 10300      5F536574 
 10300      536F636B 
 10300      65744465 
 10300      7374506F 
 10301              	.LASF76:
 10302 0792 45544830 		.ascii	"ETH0_SetMAC\000"
 10302      5F536574 
 10302      4D414300 
 10303              	.LASF25:
 10304 079e 45544830 		.ascii	"ETH0_W51_GetMAC\000"
 10304      5F573531 
 10304      5F476574 
 10304      4D414300 
 10305              	.LASF73:
 10306 07ae 45544830 		.ascii	"ETH0_GetIP\000"
 10306      5F476574 
 10306      495000
 10307              	.LASF39:
 10308 07b9 45544830 		.ascii	"ETH0_ProcessRxData\000"
 10308      5F50726F 
 10308      63657373 
 10308      52784461 
 10308      746100
 10309              		.ident	"GCC: (GNU Tools for ARM Embedded Processors) 4.7.3 20130312 (release) [ARM/embedded-4_7-br
