ARM GAS  C:\Users\CHUCK~1.ERH\AppData\Local\Temp\ccpye8jH.s 			page 1


   1              		.syntax unified
   2              		.cpu cortex-m3
   3              		.fpu softvfp
   4              		.eabi_attribute 20, 1
   5              		.eabi_attribute 21, 1
   6              		.eabi_attribute 23, 3
   7              		.eabi_attribute 24, 1
   8              		.eabi_attribute 25, 1
   9              		.eabi_attribute 26, 1
  10              		.eabi_attribute 30, 4
  11              		.eabi_attribute 34, 1
  12              		.eabi_attribute 18, 4
  13              		.thumb
  14              		.file	"main.c"
  15              		.text
  16              	.Ltext0:
  17              		.cfi_sections	.debug_frame
  18              		.section	.text.startup.main,"ax",%progbits
  19              		.align	1
  20              		.global	main
  21              		.thumb
  22              		.thumb_func
  23              		.type	main, %function
  24              	main:
  25              	.LFB56:
  26              		.file 1 ".\\main.c"
   1:.\main.c      **** /* ========================================
   2:.\main.c      ****  *
   3:.\main.c      ****  * Copyright YOUR COMPANY, THE YEAR
   4:.\main.c      ****  * All Rights Reserved
   5:.\main.c      ****  * UNPUBLISHED, LICENSED SOFTWARE.
   6:.\main.c      ****  *
   7:.\main.c      ****  * CONFIDENTIAL AND PROPRIETARY INFORMATION
   8:.\main.c      ****  * WHICH IS THE PROPERTY OF your company.
   9:.\main.c      ****  *
  10:.\main.c      ****  * ========================================
  11:.\main.c      **** */
  12:.\main.c      **** /**
  13:.\main.c      ****  * Notes:
  14:.\main.c      ****  * 1) Test executed using a FreeSoC Eplorer board wired to use the Arduino Ethernet shield
  15:.\main.c      ****  * 2) Modified design clock from 48 MHz PLL out to 64 PLL and added a 2000 byte speed test
  16:.\main.c      ****  *    to end of the code to further compare data rates and issues as reported on the PSoC
  17:.\main.c      ****  *    community forum by Pavloven.
  18:.\main.c      ****  */
  19:.\main.c      ****  
  20:.\main.c      **** #include <project.h>
  21:.\main.c      **** 
  22:.\main.c      **** char randomData[2000];
  23:.\main.c      **** 
  24:.\main.c      **** int main()
  25:.\main.c      **** {
  27              		.loc 1 25 0
  28              		.cfi_startproc
  29              		@ args = 0, pretend = 0, frame = 128
  30              		@ frame_needed = 0, uses_anonymous_args = 0
  31 0000 30B5     		push	{r4, r5, lr}
  32              	.LCFI0:
ARM GAS  C:\Users\CHUCK~1.ERH\AppData\Local\Temp\ccpye8jH.s 			page 2


  33              		.cfi_def_cfa_offset 12
  34              		.cfi_offset 4, -12
  35              		.cfi_offset 5, -8
  36              		.cfi_offset 14, -4
  37 0002 A1B0     		sub	sp, sp, #132
  38              	.LCFI1:
  39              		.cfi_def_cfa_offset 144
  26:.\main.c      **** 	char buffer[128];
  27:.\main.c      **** 	uint8 socket;
  28:.\main.c      **** 	uint16 length;
  29:.\main.c      **** 	int temp;
  30:.\main.c      **** 	
  31:.\main.c      ****     /* Place your initialization/startup code here (e.g. MyInst_Start()) */
  32:.\main.c      **** 	SPI0_Start();
  40              		.loc 1 32 0
  41 0004 FFF7FEFF 		bl	SPI0_Start
  42              	.LVL0:
  33:.\main.c      **** 	ETH0_Start();
  43              		.loc 1 33 0
  44 0008 FFF7FEFF 		bl	ETH0_Start
  45              	.LVL1:
  34:.\main.c      **** 	
  35:.\main.c      **** 	/* Generate some random bytes to transmit to the Ethernet client */
  36:.\main.c      **** 	for (temp = 0; temp < 2000; ++temp)
  46              		.loc 1 36 0
  47 000c 0024     		movs	r4, #0
  48              	.LVL2:
  49              	.L2:
  50              	.LBB2:
  37:.\main.c      **** 	{
  38:.\main.c      **** 		randomData[temp] = (rand()&0x17) + 'A';
  51              		.loc 1 38 0 discriminator 2
  52 000e FFF7FEFF 		bl	rand
  53              	.LVL3:
  54 0012 334B     		ldr	r3, .L20
  55 0014 00F01700 		and	r0, r0, #23
  56 0018 4130     		adds	r0, r0, #65
  57 001a E054     		strb	r0, [r4, r3]
  58              	.LBE2:
  36:.\main.c      **** 	for (temp = 0; temp < 2000; ++temp)
  59              		.loc 1 36 0 discriminator 2
  60 001c 0134     		adds	r4, r4, #1
  61              	.LVL4:
  62 001e B4F5FA6F 		cmp	r4, #2000
  63 0022 F4D1     		bne	.L2
  64              	.LVL5:
  65              	.L15:
  39:.\main.c      **** 	}
  40:.\main.c      **** 
  41:.\main.c      **** //    CyGlobalIntEnable; /* Uncomment this line to enable global interrupts. */
  42:.\main.c      **** 	
  43:.\main.c      **** 	
  44:.\main.c      ****     for(;;)
  45:.\main.c      ****     {
  46:.\main.c      ****         /* Place your application code here. */
  47:.\main.c      **** 		socket = ETH0_TcpOpen( 23 );
  66              		.loc 1 47 0
ARM GAS  C:\Users\CHUCK~1.ERH\AppData\Local\Temp\ccpye8jH.s 			page 3


  67 0024 1720     		movs	r0, #23
  68 0026 FFF7FEFF 		bl	ETH0_TcpOpen
  69              	.LVL6:
  70 002a 0446     		mov	r4, r0
  71              	.LVL7:
  48:.\main.c      **** 		ETH0_TcpStartServer( socket );
  72              		.loc 1 48 0
  73 002c FFF7FEFF 		bl	ETH0_TcpStartServer
  74              	.LVL8:
  75              	.L3:
  49:.\main.c      **** 		while ( !ETH0_TcpConnected( socket ) ) {
  76              		.loc 1 49 0 discriminator 1
  77 0030 2046     		mov	r0, r4
  78 0032 FFF7FEFF 		bl	ETH0_TcpConnected
  79              	.LVL9:
  80 0036 18B9     		cbnz	r0, .L18
  81              	.L4:
  50:.\main.c      **** 			/*
  51:.\main.c      **** 			 * While we are waiting for the client to attach
  52:.\main.c      **** 			 * to the server, flash some random colors on the
  53:.\main.c      **** 			 * LED to provide entertainment.
  54:.\main.c      **** 			 */
  55:.\main.c      **** 			/* wait for a connection, and delay the flashes */
  56:.\main.c      **** 			CyDelay(100);
  82              		.loc 1 56 0
  83 0038 6420     		movs	r0, #100
  84 003a FFF7FEFF 		bl	CyDelay
  85              	.LVL10:
  86 003e F7E7     		b	.L3
  87              	.L18:
  57:.\main.c      **** 		}
  58:.\main.c      **** 		/*
  59:.\main.c      **** 		 * Send the Logon welcom message to the client.
  60:.\main.c      **** 		 */
  61:.\main.c      **** 		ETH0_TcpPrint(socket,"Welcome to the freeSoC Explorer Board!\r\n");
  88              		.loc 1 61 0
  89 0040 2046     		mov	r0, r4
  90 0042 2849     		ldr	r1, .L20+4
  91 0044 FFF7FEFF 		bl	ETH0_TcpPrint
  92              	.LVL11:
  62:.\main.c      **** 		ETH0_TcpPrint(socket,"---------------------------------------------------------------------------
  93              		.loc 1 62 0
  94 0048 2046     		mov	r0, r4
  95 004a 2749     		ldr	r1, .L20+8
  96 004c FFF7FEFF 		bl	ETH0_TcpPrint
  97              	.LVL12:
  63:.\main.c      **** 		temp = 0;
  98              		.loc 1 63 0
  99 0050 0025     		movs	r5, #0
 100              	.LVL13:
 101              	.L5:
  64:.\main.c      **** 		while( ETH0_SocketRxDataWaiting(socket) == 0) {
 102              		.loc 1 64 0 discriminator 1
 103 0052 2046     		mov	r0, r4
 104 0054 FFF7FEFF 		bl	ETH0_SocketRxDataWaiting
 105              	.LVL14:
 106 0058 E8B9     		cbnz	r0, .L19
ARM GAS  C:\Users\CHUCK~1.ERH\AppData\Local\Temp\ccpye8jH.s 			page 4


 107              	.L12:
  65:.\main.c      **** 			ETH0_TcpPrint(socket, "Please Press a key: ");
 108              		.loc 1 65 0
 109 005a 2046     		mov	r0, r4
 110 005c 2349     		ldr	r1, .L20+12
 111 005e FFF7FEFF 		bl	ETH0_TcpPrint
 112              	.LVL15:
  66:.\main.c      **** 			switch(temp) {
 113              		.loc 1 66 0
 114 0062 032D     		cmp	r5, #3
 115 0064 10D8     		bhi	.L6
 116 0066 DFE805F0 		tbb	[pc, r5]
 117              	.L11:
 118 006a 02       		.byte	(.L7-.L11)/2
 119 006b 05       		.byte	(.L8-.L11)/2
 120 006c 08       		.byte	(.L9-.L11)/2
 121 006d 0B       		.byte	(.L10-.L11)/2
 122              		.align	1
 123              	.L7:
  67:.\main.c      **** 				case 0:
  68:.\main.c      **** 					ETH0_TcpPrint(socket, "\\ \r");
 124              		.loc 1 68 0
 125 006e 2046     		mov	r0, r4
 126 0070 1F49     		ldr	r1, .L20+16
 127 0072 07E0     		b	.L16
 128              	.L8:
  69:.\main.c      **** 					break;
  70:.\main.c      **** 				case 1:
  71:.\main.c      **** 					ETH0_TcpPrint(socket, "|\r");
 129              		.loc 1 71 0
 130 0074 2046     		mov	r0, r4
 131 0076 1F49     		ldr	r1, .L20+20
 132 0078 04E0     		b	.L16
 133              	.L9:
  72:.\main.c      **** 					break;
  73:.\main.c      **** 				case 2:
  74:.\main.c      **** 					ETH0_TcpPrint(socket, "/\r");
 134              		.loc 1 74 0
 135 007a 2046     		mov	r0, r4
 136 007c 1E49     		ldr	r1, .L20+24
 137 007e 01E0     		b	.L16
 138              	.L10:
  75:.\main.c      **** 					break;
  76:.\main.c      **** 				case 3:
  77:.\main.c      **** 					ETH0_TcpPrint(socket, "-\r");
 139              		.loc 1 77 0
 140 0080 1E49     		ldr	r1, .L20+28
 141 0082 2046     		mov	r0, r4
 142              	.LVL16:
 143              	.L16:
 144 0084 FFF7FEFF 		bl	ETH0_TcpPrint
 145              	.LVL17:
 146              	.L6:
  78:.\main.c      **** 					break;
  79:.\main.c      **** 			}
  80:.\main.c      **** 			temp = (temp + 1) & 3;
 147              		.loc 1 80 0
ARM GAS  C:\Users\CHUCK~1.ERH\AppData\Local\Temp\ccpye8jH.s 			page 5


 148 0088 0135     		adds	r5, r5, #1
 149              	.LVL18:
  81:.\main.c      **** 			CyDelay(1);
 150              		.loc 1 81 0
 151 008a 0120     		movs	r0, #1
  80:.\main.c      **** 			temp = (temp + 1) & 3;
 152              		.loc 1 80 0
 153 008c 05F00305 		and	r5, r5, #3
 154              	.LVL19:
 155              		.loc 1 81 0
 156 0090 FFF7FEFF 		bl	CyDelay
 157              	.LVL20:
 158 0094 DDE7     		b	.L5
 159              	.L19:
  82:.\main.c      **** 		}
  83:.\main.c      **** 		ETH0_TcpPrint(socket,"\r\nThank You! :-) ");
 160              		.loc 1 83 0
 161 0096 2046     		mov	r0, r4
 162 0098 1949     		ldr	r1, .L20+32
 163 009a FFF7FEFF 		bl	ETH0_TcpPrint
 164              	.LVL21:
  84:.\main.c      **** 		length = ETH0_TcpReceive(socket,(uint8*)&buffer[0],128);
 165              		.loc 1 84 0
 166 009e 6946     		mov	r1, sp
 167 00a0 8022     		movs	r2, #128
 168 00a2 2046     		mov	r0, r4
 169 00a4 FFF7FEFF 		bl	ETH0_TcpReceive
 170              	.LVL22:
  85:.\main.c      **** 		ETH0_TcpSend(socket,(uint8*)&buffer[0],length);
 171              		.loc 1 85 0
 172 00a8 6946     		mov	r1, sp
  84:.\main.c      **** 		length = ETH0_TcpReceive(socket,(uint8*)&buffer[0],128);
 173              		.loc 1 84 0
 174 00aa 0246     		mov	r2, r0
 175              	.LVL23:
 176              		.loc 1 85 0
 177 00ac 2046     		mov	r0, r4
 178              	.LVL24:
 179 00ae FFF7FEFF 		bl	ETH0_TcpSend
 180              	.LVL25:
  86:.\main.c      **** 		
  87:.\main.c      **** 		/* pavloven test: TcpSend() of 2000 bytes */
  88:.\main.c      **** 		/* set I/O pin low for timing */
  89:.\main.c      **** 		SDCS_Write(0);
 181              		.loc 1 89 0
 182 00b2 0020     		movs	r0, #0
 183 00b4 FFF7FEFF 		bl	SDCS_Write
 184              	.LVL26:
  90:.\main.c      **** 		/* Transmit 2000 bytes through the driver to the host */
  91:.\main.c      **** 		ETH0_TcpSend(socket,(uint8*)&randomData[0], 2000);
 185              		.loc 1 91 0
 186 00b8 0949     		ldr	r1, .L20
 187 00ba 4FF4FA62 		mov	r2, #2000
 188 00be 2046     		mov	r0, r4
 189 00c0 FFF7FEFF 		bl	ETH0_TcpSend
 190              	.LVL27:
  92:.\main.c      **** 		/* Set I/O pin high for measuring time */
ARM GAS  C:\Users\CHUCK~1.ERH\AppData\Local\Temp\ccpye8jH.s 			page 6


  93:.\main.c      **** 		SDCS_Write(1);
 191              		.loc 1 93 0
 192 00c4 0120     		movs	r0, #1
 193 00c6 FFF7FEFF 		bl	SDCS_Write
 194              	.LVL28:
  94:.\main.c      **** 		/* end test : measured time TBD ms (Effective Data Rate: TBD bps) */
  95:.\main.c      **** 		
  96:.\main.c      **** 		ETH0_TcpDisconnect( socket );
 195              		.loc 1 96 0
 196 00ca 2046     		mov	r0, r4
 197 00cc FFF7FEFF 		bl	ETH0_TcpDisconnect
 198              	.LVL29:
  97:.\main.c      **** 		ETH0_SocketClose( socket );
 199              		.loc 1 97 0
 200 00d0 2046     		mov	r0, r4
 201 00d2 FFF7FEFF 		bl	ETH0_SocketClose
 202              	.LVL30:
  98:.\main.c      **** 		CyDelay(10);
 203              		.loc 1 98 0
 204 00d6 0A20     		movs	r0, #10
 205 00d8 FFF7FEFF 		bl	CyDelay
 206              	.LVL31:
  99:.\main.c      ****     }
 207              		.loc 1 99 0
 208 00dc A2E7     		b	.L15
 209              	.L21:
 210 00de 00BF     		.align	2
 211              	.L20:
 212 00e0 00000000 		.word	randomData
 213 00e4 00000000 		.word	.LC0
 214 00e8 29000000 		.word	.LC1
 215 00ec 7A000000 		.word	.LC2
 216 00f0 8F000000 		.word	.LC3
 217 00f4 93000000 		.word	.LC4
 218 00f8 96000000 		.word	.LC5
 219 00fc 99000000 		.word	.LC6
 220 0100 9C000000 		.word	.LC7
 221              		.cfi_endproc
 222              	.LFE56:
 223              		.size	main, .-main
 224              		.comm	randomData,2000,1
 225              		.section	.rodata.str1.1,"aMS",%progbits,1
 226              	.LC0:
 227 0000 57656C63 		.ascii	"Welcome to the freeSoC Explorer Board!\015\012\000"
 227      6F6D6520 
 227      746F2074 
 227      68652066 
 227      72656553 
 228              	.LC1:
 229 0029 2D2D2D2D 		.ascii	"---------------------------------------------------"
 229      2D2D2D2D 
 229      2D2D2D2D 
 229      2D2D2D2D 
 229      2D2D2D2D 
 230 005c 2D2D2D2D 		.ascii	"-------------------------\015\012\015\012\000"
 230      2D2D2D2D 
 230      2D2D2D2D 
ARM GAS  C:\Users\CHUCK~1.ERH\AppData\Local\Temp\ccpye8jH.s 			page 7


 230      2D2D2D2D 
 230      2D2D2D2D 
 231              	.LC2:
 232 007a 506C6561 		.ascii	"Please Press a key: \000"
 232      73652050 
 232      72657373 
 232      2061206B 
 232      65793A20 
 233              	.LC3:
 234 008f 5C200D00 		.ascii	"\\ \015\000"
 235              	.LC4:
 236 0093 7C0D00   		.ascii	"|\015\000"
 237              	.LC5:
 238 0096 2F0D00   		.ascii	"/\015\000"
 239              	.LC6:
 240 0099 2D0D00   		.ascii	"-\015\000"
 241              	.LC7:
 242 009c 0D0A5468 		.ascii	"\015\012Thank You! :-) \000"
 242      616E6B20 
 242      596F7521 
 242      203A2D29 
 242      2000
 243              		.text
 244              	.Letext0:
 245              		.file 2 "c:\\program files (x86)\\cypress\\psoc creator\\3.0\\psoc creator\\import\\gnu_cs\\arm\\4
 246              		.file 3 "./Generated_Source/PSoC5/cytypes.h"
 247              		.file 4 "./Generated_Source/PSoC5/core_cm3.h"
 248              		.file 5 "./Generated_Source/PSoC5/SPI0.h"
 249              		.file 6 "./Generated_Source/PSoC5/ETH0.h"
 250              		.file 7 "./Generated_Source/PSoC5/CyLib.h"
 251              		.file 8 "./Generated_Source/PSoC5/SDCS.h"