ARM GAS  C:\Users\CHUCK~1.ERH\AppData\Local\Temp\ccV1Pdmp.s 			page 1


   1              		.syntax unified
   2              		.cpu cortex-m3
   3              		.fpu softvfp
   4              		.eabi_attribute 20, 1
   5              		.eabi_attribute 21, 1
   6              		.eabi_attribute 23, 3
   7              		.eabi_attribute 24, 1
   8              		.eabi_attribute 25, 1
   9              		.eabi_attribute 26, 1
  10              		.eabi_attribute 30, 4
  11              		.eabi_attribute 34, 1
  12              		.eabi_attribute 18, 4
  13              		.thumb
  14              		.file	"SPI0_PM.c"
  15              		.text
  16              	.Ltext0:
  17              		.cfi_sections	.debug_frame
  18              		.section	.text.SPI0_SaveConfig,"ax",%progbits
  19              		.align	1
  20              		.global	SPI0_SaveConfig
  21              		.thumb
  22              		.thumb_func
  23              		.type	SPI0_SaveConfig, %function
  24              	SPI0_SaveConfig:
  25              	.LFB0:
  26              		.file 1 ".\\Generated_Source\\PSoC5\\SPI0_PM.c"
   1:.\Generated_Source\PSoC5/SPI0_PM.c **** /*******************************************************************************
   2:.\Generated_Source\PSoC5/SPI0_PM.c **** * File Name: SPI0_PM.c
   3:.\Generated_Source\PSoC5/SPI0_PM.c **** * Version 2.40
   4:.\Generated_Source\PSoC5/SPI0_PM.c **** *
   5:.\Generated_Source\PSoC5/SPI0_PM.c **** * Description:
   6:.\Generated_Source\PSoC5/SPI0_PM.c **** *  This file contains the setup, control and status commands to support
   7:.\Generated_Source\PSoC5/SPI0_PM.c **** *  component operations in low power mode.
   8:.\Generated_Source\PSoC5/SPI0_PM.c **** *
   9:.\Generated_Source\PSoC5/SPI0_PM.c **** * Note:
  10:.\Generated_Source\PSoC5/SPI0_PM.c **** *
  11:.\Generated_Source\PSoC5/SPI0_PM.c **** ********************************************************************************
  12:.\Generated_Source\PSoC5/SPI0_PM.c **** * Copyright 2008-2012, Cypress Semiconductor Corporation.  All rights reserved.
  13:.\Generated_Source\PSoC5/SPI0_PM.c **** * You may use this file only in accordance with the license, terms, conditions,
  14:.\Generated_Source\PSoC5/SPI0_PM.c **** * disclaimers, and limitations in the end user license agreement accompanying
  15:.\Generated_Source\PSoC5/SPI0_PM.c **** * the software package with which this file was provided.
  16:.\Generated_Source\PSoC5/SPI0_PM.c **** *******************************************************************************/
  17:.\Generated_Source\PSoC5/SPI0_PM.c **** 
  18:.\Generated_Source\PSoC5/SPI0_PM.c **** #include "SPI0_PVT.h"
  19:.\Generated_Source\PSoC5/SPI0_PM.c **** 
  20:.\Generated_Source\PSoC5/SPI0_PM.c **** static SPI0_BACKUP_STRUCT SPI0_backup =
  21:.\Generated_Source\PSoC5/SPI0_PM.c **** {
  22:.\Generated_Source\PSoC5/SPI0_PM.c ****     SPI0_DISABLED,
  23:.\Generated_Source\PSoC5/SPI0_PM.c ****     SPI0_BITCTR_INIT,
  24:.\Generated_Source\PSoC5/SPI0_PM.c ****     #if(CY_UDB_V0)
  25:.\Generated_Source\PSoC5/SPI0_PM.c ****         SPI0_TX_INIT_INTERRUPTS_MASK,
  26:.\Generated_Source\PSoC5/SPI0_PM.c ****         SPI0_RX_INIT_INTERRUPTS_MASK
  27:.\Generated_Source\PSoC5/SPI0_PM.c ****     #endif /* CY_UDB_V0 */
  28:.\Generated_Source\PSoC5/SPI0_PM.c **** };
  29:.\Generated_Source\PSoC5/SPI0_PM.c **** 
  30:.\Generated_Source\PSoC5/SPI0_PM.c **** 
  31:.\Generated_Source\PSoC5/SPI0_PM.c **** /*******************************************************************************
ARM GAS  C:\Users\CHUCK~1.ERH\AppData\Local\Temp\ccV1Pdmp.s 			page 2


  32:.\Generated_Source\PSoC5/SPI0_PM.c **** * Function Name: SPI0_SaveConfig
  33:.\Generated_Source\PSoC5/SPI0_PM.c **** ********************************************************************************
  34:.\Generated_Source\PSoC5/SPI0_PM.c **** *
  35:.\Generated_Source\PSoC5/SPI0_PM.c **** * Summary:
  36:.\Generated_Source\PSoC5/SPI0_PM.c **** *  Saves SPIM configuration.
  37:.\Generated_Source\PSoC5/SPI0_PM.c **** *
  38:.\Generated_Source\PSoC5/SPI0_PM.c **** * Parameters:
  39:.\Generated_Source\PSoC5/SPI0_PM.c **** *  None.
  40:.\Generated_Source\PSoC5/SPI0_PM.c **** *
  41:.\Generated_Source\PSoC5/SPI0_PM.c **** * Return:
  42:.\Generated_Source\PSoC5/SPI0_PM.c **** *  None.
  43:.\Generated_Source\PSoC5/SPI0_PM.c **** *
  44:.\Generated_Source\PSoC5/SPI0_PM.c **** * Global Variables:
  45:.\Generated_Source\PSoC5/SPI0_PM.c **** *  SPI0_backup - modified when non-retention registers are saved.
  46:.\Generated_Source\PSoC5/SPI0_PM.c **** *
  47:.\Generated_Source\PSoC5/SPI0_PM.c **** * Reentrant:
  48:.\Generated_Source\PSoC5/SPI0_PM.c **** *  No.
  49:.\Generated_Source\PSoC5/SPI0_PM.c **** *
  50:.\Generated_Source\PSoC5/SPI0_PM.c **** *******************************************************************************/
  51:.\Generated_Source\PSoC5/SPI0_PM.c **** void SPI0_SaveConfig(void) 
  52:.\Generated_Source\PSoC5/SPI0_PM.c **** {
  27              		.loc 1 52 0
  28              		.cfi_startproc
  29              		@ args = 0, pretend = 0, frame = 0
  30              		@ frame_needed = 0, uses_anonymous_args = 0
  31              		@ link register save eliminated.
  32 0000 7047     		bx	lr
  33              		.cfi_endproc
  34              	.LFE0:
  35              		.size	SPI0_SaveConfig, .-SPI0_SaveConfig
  36              		.section	.text.SPI0_RestoreConfig,"ax",%progbits
  37              		.align	1
  38              		.global	SPI0_RestoreConfig
  39              		.thumb
  40              		.thumb_func
  41              		.type	SPI0_RestoreConfig, %function
  42              	SPI0_RestoreConfig:
  43              	.LFB1:
  53:.\Generated_Source\PSoC5/SPI0_PM.c ****     /* Store Status Mask registers */
  54:.\Generated_Source\PSoC5/SPI0_PM.c ****     #if(CY_UDB_V0)
  55:.\Generated_Source\PSoC5/SPI0_PM.c ****        SPI0_backup.cntrPeriod      = SPI0_COUNTER_PERIOD_REG;
  56:.\Generated_Source\PSoC5/SPI0_PM.c ****        SPI0_backup.saveSrTxIntMask = SPI0_TX_STATUS_MASK_REG;
  57:.\Generated_Source\PSoC5/SPI0_PM.c ****        SPI0_backup.saveSrRxIntMask = SPI0_RX_STATUS_MASK_REG;
  58:.\Generated_Source\PSoC5/SPI0_PM.c ****     #endif /* (CY_UDB_V0) */
  59:.\Generated_Source\PSoC5/SPI0_PM.c **** }
  60:.\Generated_Source\PSoC5/SPI0_PM.c **** 
  61:.\Generated_Source\PSoC5/SPI0_PM.c **** 
  62:.\Generated_Source\PSoC5/SPI0_PM.c **** /*******************************************************************************
  63:.\Generated_Source\PSoC5/SPI0_PM.c **** * Function Name: SPI0_RestoreConfig
  64:.\Generated_Source\PSoC5/SPI0_PM.c **** ********************************************************************************
  65:.\Generated_Source\PSoC5/SPI0_PM.c **** *
  66:.\Generated_Source\PSoC5/SPI0_PM.c **** * Summary:
  67:.\Generated_Source\PSoC5/SPI0_PM.c **** *  Restores SPIM configuration.
  68:.\Generated_Source\PSoC5/SPI0_PM.c **** *
  69:.\Generated_Source\PSoC5/SPI0_PM.c **** * Parameters:
  70:.\Generated_Source\PSoC5/SPI0_PM.c **** *  None.
  71:.\Generated_Source\PSoC5/SPI0_PM.c **** *
ARM GAS  C:\Users\CHUCK~1.ERH\AppData\Local\Temp\ccV1Pdmp.s 			page 3


  72:.\Generated_Source\PSoC5/SPI0_PM.c **** * Return:
  73:.\Generated_Source\PSoC5/SPI0_PM.c **** *  None.
  74:.\Generated_Source\PSoC5/SPI0_PM.c **** *
  75:.\Generated_Source\PSoC5/SPI0_PM.c **** * Global Variables:
  76:.\Generated_Source\PSoC5/SPI0_PM.c **** *  SPI0_backup - used when non-retention registers are restored.
  77:.\Generated_Source\PSoC5/SPI0_PM.c **** *
  78:.\Generated_Source\PSoC5/SPI0_PM.c **** * Side Effects:
  79:.\Generated_Source\PSoC5/SPI0_PM.c **** *  If this API is called without first calling SaveConfig then in the following
  80:.\Generated_Source\PSoC5/SPI0_PM.c **** *  registers will be default values from Customizer:
  81:.\Generated_Source\PSoC5/SPI0_PM.c **** *  SPI0_STATUS_MASK_REG and SPI0_COUNTER_PERIOD_REG.
  82:.\Generated_Source\PSoC5/SPI0_PM.c **** *
  83:.\Generated_Source\PSoC5/SPI0_PM.c **** *******************************************************************************/
  84:.\Generated_Source\PSoC5/SPI0_PM.c **** void SPI0_RestoreConfig(void) 
  85:.\Generated_Source\PSoC5/SPI0_PM.c **** {
  44              		.loc 1 85 0
  45              		.cfi_startproc
  46              		@ args = 0, pretend = 0, frame = 0
  47              		@ frame_needed = 0, uses_anonymous_args = 0
  48              		@ link register save eliminated.
  49 0000 7047     		bx	lr
  50              		.cfi_endproc
  51              	.LFE1:
  52              		.size	SPI0_RestoreConfig, .-SPI0_RestoreConfig
  53              		.section	.text.SPI0_Sleep,"ax",%progbits
  54              		.align	1
  55              		.global	SPI0_Sleep
  56              		.thumb
  57              		.thumb_func
  58              		.type	SPI0_Sleep, %function
  59              	SPI0_Sleep:
  60              	.LFB2:
  86:.\Generated_Source\PSoC5/SPI0_PM.c ****     /* Restore the data, saved by SaveConfig() function */
  87:.\Generated_Source\PSoC5/SPI0_PM.c ****     #if(CY_UDB_V0)
  88:.\Generated_Source\PSoC5/SPI0_PM.c ****         SPI0_COUNTER_PERIOD_REG = SPI0_backup.cntrPeriod;
  89:.\Generated_Source\PSoC5/SPI0_PM.c ****         SPI0_TX_STATUS_MASK_REG = ((uint8) SPI0_backup.saveSrTxIntMask);
  90:.\Generated_Source\PSoC5/SPI0_PM.c ****         SPI0_RX_STATUS_MASK_REG = ((uint8) SPI0_backup.saveSrRxIntMask);
  91:.\Generated_Source\PSoC5/SPI0_PM.c ****     #endif /* (CY_UDB_V0) */
  92:.\Generated_Source\PSoC5/SPI0_PM.c **** }
  93:.\Generated_Source\PSoC5/SPI0_PM.c **** 
  94:.\Generated_Source\PSoC5/SPI0_PM.c **** 
  95:.\Generated_Source\PSoC5/SPI0_PM.c **** /*******************************************************************************
  96:.\Generated_Source\PSoC5/SPI0_PM.c **** * Function Name: SPI0_Sleep
  97:.\Generated_Source\PSoC5/SPI0_PM.c **** ********************************************************************************
  98:.\Generated_Source\PSoC5/SPI0_PM.c **** *
  99:.\Generated_Source\PSoC5/SPI0_PM.c **** * Summary:
 100:.\Generated_Source\PSoC5/SPI0_PM.c **** *  Prepare SPIM Component goes to sleep.
 101:.\Generated_Source\PSoC5/SPI0_PM.c **** *
 102:.\Generated_Source\PSoC5/SPI0_PM.c **** * Parameters:
 103:.\Generated_Source\PSoC5/SPI0_PM.c **** *  None.
 104:.\Generated_Source\PSoC5/SPI0_PM.c **** *
 105:.\Generated_Source\PSoC5/SPI0_PM.c **** * Return:
 106:.\Generated_Source\PSoC5/SPI0_PM.c **** *  None.
 107:.\Generated_Source\PSoC5/SPI0_PM.c **** *
 108:.\Generated_Source\PSoC5/SPI0_PM.c **** * Global Variables:
 109:.\Generated_Source\PSoC5/SPI0_PM.c **** *  SPI0_backup - modified when non-retention registers are saved.
 110:.\Generated_Source\PSoC5/SPI0_PM.c **** *
 111:.\Generated_Source\PSoC5/SPI0_PM.c **** * Reentrant:
ARM GAS  C:\Users\CHUCK~1.ERH\AppData\Local\Temp\ccV1Pdmp.s 			page 4


 112:.\Generated_Source\PSoC5/SPI0_PM.c **** *  No.
 113:.\Generated_Source\PSoC5/SPI0_PM.c **** *
 114:.\Generated_Source\PSoC5/SPI0_PM.c **** *******************************************************************************/
 115:.\Generated_Source\PSoC5/SPI0_PM.c **** void SPI0_Sleep(void) 
 116:.\Generated_Source\PSoC5/SPI0_PM.c **** {
  61              		.loc 1 116 0
  62              		.cfi_startproc
  63              		@ args = 0, pretend = 0, frame = 0
  64              		@ frame_needed = 0, uses_anonymous_args = 0
  65              		@ link register save eliminated.
 117:.\Generated_Source\PSoC5/SPI0_PM.c ****     /* Save components enable state */
 118:.\Generated_Source\PSoC5/SPI0_PM.c ****     SPI0_backup.enableState = ((uint8) SPI0_IS_ENABLED);
  66              		.loc 1 118 0
  67 0000 034B     		ldr	r3, .L4
  68 0002 0449     		ldr	r1, .L4+4
  69 0004 1A78     		ldrb	r2, [r3, #0]	@ zero_extendqisi2
  70 0006 C2F30010 		ubfx	r0, r2, #4, #1
  71 000a 0870     		strb	r0, [r1, #0]
 119:.\Generated_Source\PSoC5/SPI0_PM.c **** 
 120:.\Generated_Source\PSoC5/SPI0_PM.c ****     SPI0_Stop();
 121:.\Generated_Source\PSoC5/SPI0_PM.c ****     SPI0_SaveConfig();
 122:.\Generated_Source\PSoC5/SPI0_PM.c **** }
  72              		.loc 1 122 0
 120:.\Generated_Source\PSoC5/SPI0_PM.c ****     SPI0_Stop();
  73              		.loc 1 120 0
  74 000c FFF7FEBF 		b	SPI0_Stop
  75              	.LVL0:
  76              	.L5:
  77              		.align	2
  78              	.L4:
  79 0010 95650040 		.word	1073767829
  80 0014 00000000 		.word	.LANCHOR0
  81              		.cfi_endproc
  82              	.LFE2:
  83              		.size	SPI0_Sleep, .-SPI0_Sleep
  84              		.section	.text.SPI0_Wakeup,"ax",%progbits
  85              		.align	1
  86              		.global	SPI0_Wakeup
  87              		.thumb
  88              		.thumb_func
  89              		.type	SPI0_Wakeup, %function
  90              	SPI0_Wakeup:
  91              	.LFB3:
 123:.\Generated_Source\PSoC5/SPI0_PM.c **** 
 124:.\Generated_Source\PSoC5/SPI0_PM.c **** 
 125:.\Generated_Source\PSoC5/SPI0_PM.c **** /*******************************************************************************
 126:.\Generated_Source\PSoC5/SPI0_PM.c **** * Function Name: SPI0_Wakeup
 127:.\Generated_Source\PSoC5/SPI0_PM.c **** ********************************************************************************
 128:.\Generated_Source\PSoC5/SPI0_PM.c **** *
 129:.\Generated_Source\PSoC5/SPI0_PM.c **** * Summary:
 130:.\Generated_Source\PSoC5/SPI0_PM.c **** *  Prepare SPIM Component to wake up.
 131:.\Generated_Source\PSoC5/SPI0_PM.c **** *
 132:.\Generated_Source\PSoC5/SPI0_PM.c **** * Parameters:
 133:.\Generated_Source\PSoC5/SPI0_PM.c **** *  None.
 134:.\Generated_Source\PSoC5/SPI0_PM.c **** *
 135:.\Generated_Source\PSoC5/SPI0_PM.c **** * Return:
 136:.\Generated_Source\PSoC5/SPI0_PM.c **** *  None.
ARM GAS  C:\Users\CHUCK~1.ERH\AppData\Local\Temp\ccV1Pdmp.s 			page 5


 137:.\Generated_Source\PSoC5/SPI0_PM.c **** *
 138:.\Generated_Source\PSoC5/SPI0_PM.c **** * Global Variables:
 139:.\Generated_Source\PSoC5/SPI0_PM.c **** *  SPI0_backup - used when non-retention registers are restored.
 140:.\Generated_Source\PSoC5/SPI0_PM.c **** *  SPI0_txBufferWrite - modified every function call - resets to
 141:.\Generated_Source\PSoC5/SPI0_PM.c **** *  zero.
 142:.\Generated_Source\PSoC5/SPI0_PM.c **** *  SPI0_txBufferRead - modified every function call - resets to
 143:.\Generated_Source\PSoC5/SPI0_PM.c **** *  zero.
 144:.\Generated_Source\PSoC5/SPI0_PM.c **** *  SPI0_rxBufferWrite - modified every function call - resets to
 145:.\Generated_Source\PSoC5/SPI0_PM.c **** *  zero.
 146:.\Generated_Source\PSoC5/SPI0_PM.c **** *  SPI0_rxBufferRead - modified every function call - resets to
 147:.\Generated_Source\PSoC5/SPI0_PM.c **** *  zero.
 148:.\Generated_Source\PSoC5/SPI0_PM.c **** *
 149:.\Generated_Source\PSoC5/SPI0_PM.c **** * Reentrant:
 150:.\Generated_Source\PSoC5/SPI0_PM.c **** *  No.
 151:.\Generated_Source\PSoC5/SPI0_PM.c **** *
 152:.\Generated_Source\PSoC5/SPI0_PM.c **** *******************************************************************************/
 153:.\Generated_Source\PSoC5/SPI0_PM.c **** void SPI0_Wakeup(void) 
 154:.\Generated_Source\PSoC5/SPI0_PM.c **** {
  92              		.loc 1 154 0
  93              		.cfi_startproc
  94              		@ args = 0, pretend = 0, frame = 0
  95              		@ frame_needed = 0, uses_anonymous_args = 0
  96 0000 08B5     		push	{r3, lr}
  97              	.LCFI0:
  98              		.cfi_def_cfa_offset 8
  99              		.cfi_offset 3, -8
 100              		.cfi_offset 14, -4
 155:.\Generated_Source\PSoC5/SPI0_PM.c ****     SPI0_RestoreConfig();
 156:.\Generated_Source\PSoC5/SPI0_PM.c **** 
 157:.\Generated_Source\PSoC5/SPI0_PM.c ****     #if(SPI0_RX_SOFTWARE_BUF_ENABLED)
 158:.\Generated_Source\PSoC5/SPI0_PM.c ****         SPI0_rxBufferFull  = 0u;
 159:.\Generated_Source\PSoC5/SPI0_PM.c ****         SPI0_rxBufferRead  = 0u;
 160:.\Generated_Source\PSoC5/SPI0_PM.c ****         SPI0_rxBufferWrite = 0u;
 161:.\Generated_Source\PSoC5/SPI0_PM.c ****     #endif /* (SPI0_RX_SOFTWARE_BUF_ENABLED) */
 162:.\Generated_Source\PSoC5/SPI0_PM.c **** 
 163:.\Generated_Source\PSoC5/SPI0_PM.c ****     #if(SPI0_TX_SOFTWARE_BUF_ENABLED)
 164:.\Generated_Source\PSoC5/SPI0_PM.c ****         SPI0_txBufferFull  = 0u;
 165:.\Generated_Source\PSoC5/SPI0_PM.c ****         SPI0_txBufferRead  = 0u;
 166:.\Generated_Source\PSoC5/SPI0_PM.c ****         SPI0_txBufferWrite = 0u;
 167:.\Generated_Source\PSoC5/SPI0_PM.c ****     #endif /* (SPI0_TX_SOFTWARE_BUF_ENABLED) */
 168:.\Generated_Source\PSoC5/SPI0_PM.c **** 
 169:.\Generated_Source\PSoC5/SPI0_PM.c ****     /* Clear any data from the RX and TX FIFO */
 170:.\Generated_Source\PSoC5/SPI0_PM.c ****     SPI0_ClearFIFO();
 101              		.loc 1 170 0
 102 0002 FFF7FEFF 		bl	SPI0_ClearFIFO
 103              	.LVL1:
 171:.\Generated_Source\PSoC5/SPI0_PM.c **** 
 172:.\Generated_Source\PSoC5/SPI0_PM.c ****     /* Restore components block enable state */
 173:.\Generated_Source\PSoC5/SPI0_PM.c ****     if(0u != SPI0_backup.enableState)
 104              		.loc 1 173 0
 105 0006 044B     		ldr	r3, .L9
 106 0008 1878     		ldrb	r0, [r3, #0]	@ zero_extendqisi2
 107 000a 18B1     		cbz	r0, .L6
 174:.\Generated_Source\PSoC5/SPI0_PM.c ****     {
 175:.\Generated_Source\PSoC5/SPI0_PM.c ****         SPI0_Enable();
 176:.\Generated_Source\PSoC5/SPI0_PM.c ****     }
 177:.\Generated_Source\PSoC5/SPI0_PM.c **** }
ARM GAS  C:\Users\CHUCK~1.ERH\AppData\Local\Temp\ccV1Pdmp.s 			page 6


 108              		.loc 1 177 0
 109 000c BDE80840 		pop	{r3, lr}
 175:.\Generated_Source\PSoC5/SPI0_PM.c ****         SPI0_Enable();
 110              		.loc 1 175 0
 111 0010 FFF7FEBF 		b	SPI0_Enable
 112              	.LVL2:
 113              	.L6:
 114 0014 08BD     		pop	{r3, pc}
 115              	.L10:
 116 0016 00BF     		.align	2
 117              	.L9:
 118 0018 00000000 		.word	.LANCHOR0
 119              		.cfi_endproc
 120              	.LFE3:
 121              		.size	SPI0_Wakeup, .-SPI0_Wakeup
 122              		.data
 123              		.set	.LANCHOR0,. + 0
 124              		.type	SPI0_backup, %object
 125              		.size	SPI0_backup, 2
 126              	SPI0_backup:
 127 0000 00       		.byte	0
 128 0001 0F       		.byte	15
 129              		.text
 130              	.Letext0:
 131              		.file 2 ".\\Generated_Source\\PSoC5\\cytypes.h"
 132              		.file 3 ".\\Generated_Source\\PSoC5\\SPI0.h"